   1              		.cpu cortex-a9
   2              		.eabi_attribute 28, 1
   3              		.eabi_attribute 20, 1
   4              		.eabi_attribute 21, 1
   5              		.eabi_attribute 23, 3
   6              		.eabi_attribute 24, 1
   7              		.eabi_attribute 25, 1
   8              		.eabi_attribute 26, 1
   9              		.eabi_attribute 30, 1
  10              		.eabi_attribute 34, 0
  11              		.eabi_attribute 18, 4
  12              		.file	"DecodedBitStreamParser.cpp"
  13              		.text
  14              	.Ltext0:
  15              		.cfi_sections	.debug_frame
  16              		.section	.text._ZNK5zxing9Exception4whatEv,"axG",%progbits,_ZNK5zxing9Exception4whatEv,comdat
  17              		.align	2
  18              		.weak	_ZNK5zxing9Exception4whatEv
  19              		.syntax unified
  20              		.arm
  21              		.fpu neon
  23              	_ZNK5zxing9Exception4whatEv:
  24              		.fnstart
  25              	.LFB2096:
  26              		.file 1 "/home/zkmike/workspace/RZA2M/rza2m_2d_barcode_sample_freertos_gcc/src/zxing_lib/zxing/Exc
   1:/home/zkmike/workspace/RZA2M/rza2m_2d_barcode_sample_freertos_gcc/src/zxing_lib/zxing/Exception.h **** // -*- mode:c++; tab-width:2; indent-tabs-mode:nil; c-basic-offset:2 -*-
   2:/home/zkmike/workspace/RZA2M/rza2m_2d_barcode_sample_freertos_gcc/src/zxing_lib/zxing/Exception.h **** #ifndef __EXCEPTION_H__
   3:/home/zkmike/workspace/RZA2M/rza2m_2d_barcode_sample_freertos_gcc/src/zxing_lib/zxing/Exception.h **** #define __EXCEPTION_H__
   4:/home/zkmike/workspace/RZA2M/rza2m_2d_barcode_sample_freertos_gcc/src/zxing_lib/zxing/Exception.h **** 
   5:/home/zkmike/workspace/RZA2M/rza2m_2d_barcode_sample_freertos_gcc/src/zxing_lib/zxing/Exception.h **** /*
   6:/home/zkmike/workspace/RZA2M/rza2m_2d_barcode_sample_freertos_gcc/src/zxing_lib/zxing/Exception.h ****  *  Exception.h
   7:/home/zkmike/workspace/RZA2M/rza2m_2d_barcode_sample_freertos_gcc/src/zxing_lib/zxing/Exception.h ****  *  ZXing
   8:/home/zkmike/workspace/RZA2M/rza2m_2d_barcode_sample_freertos_gcc/src/zxing_lib/zxing/Exception.h ****  *
   9:/home/zkmike/workspace/RZA2M/rza2m_2d_barcode_sample_freertos_gcc/src/zxing_lib/zxing/Exception.h ****  *  Copyright 2010 ZXing authors All rights reserved.
  10:/home/zkmike/workspace/RZA2M/rza2m_2d_barcode_sample_freertos_gcc/src/zxing_lib/zxing/Exception.h ****  *
  11:/home/zkmike/workspace/RZA2M/rza2m_2d_barcode_sample_freertos_gcc/src/zxing_lib/zxing/Exception.h ****  * Licensed under the Apache License, Version 2.0 (the "License");
  12:/home/zkmike/workspace/RZA2M/rza2m_2d_barcode_sample_freertos_gcc/src/zxing_lib/zxing/Exception.h ****  * you may not use this file except in compliance with the License.
  13:/home/zkmike/workspace/RZA2M/rza2m_2d_barcode_sample_freertos_gcc/src/zxing_lib/zxing/Exception.h ****  * You may obtain a copy of the License at
  14:/home/zkmike/workspace/RZA2M/rza2m_2d_barcode_sample_freertos_gcc/src/zxing_lib/zxing/Exception.h ****  *
  15:/home/zkmike/workspace/RZA2M/rza2m_2d_barcode_sample_freertos_gcc/src/zxing_lib/zxing/Exception.h ****  *      http://www.apache.org/licenses/LICENSE-2.0
  16:/home/zkmike/workspace/RZA2M/rza2m_2d_barcode_sample_freertos_gcc/src/zxing_lib/zxing/Exception.h ****  *
  17:/home/zkmike/workspace/RZA2M/rza2m_2d_barcode_sample_freertos_gcc/src/zxing_lib/zxing/Exception.h ****  * Unless required by applicable law or agreed to in writing, software
  18:/home/zkmike/workspace/RZA2M/rza2m_2d_barcode_sample_freertos_gcc/src/zxing_lib/zxing/Exception.h ****  * distributed under the License is distributed on an "AS IS" BASIS,
  19:/home/zkmike/workspace/RZA2M/rza2m_2d_barcode_sample_freertos_gcc/src/zxing_lib/zxing/Exception.h ****  * WITHOUT WARRANTIES OR CONDITIONS OF ANY KIND, either express or implied.
  20:/home/zkmike/workspace/RZA2M/rza2m_2d_barcode_sample_freertos_gcc/src/zxing_lib/zxing/Exception.h ****  * See the License for the specific language governing permissions and
  21:/home/zkmike/workspace/RZA2M/rza2m_2d_barcode_sample_freertos_gcc/src/zxing_lib/zxing/Exception.h ****  * limitations under the License.
  22:/home/zkmike/workspace/RZA2M/rza2m_2d_barcode_sample_freertos_gcc/src/zxing_lib/zxing/Exception.h ****  */
  23:/home/zkmike/workspace/RZA2M/rza2m_2d_barcode_sample_freertos_gcc/src/zxing_lib/zxing/Exception.h **** 
  24:/home/zkmike/workspace/RZA2M/rza2m_2d_barcode_sample_freertos_gcc/src/zxing_lib/zxing/Exception.h **** #include <string>
  25:/home/zkmike/workspace/RZA2M/rza2m_2d_barcode_sample_freertos_gcc/src/zxing_lib/zxing/Exception.h **** #include <exception>
  26:/home/zkmike/workspace/RZA2M/rza2m_2d_barcode_sample_freertos_gcc/src/zxing_lib/zxing/Exception.h **** 
  27:/home/zkmike/workspace/RZA2M/rza2m_2d_barcode_sample_freertos_gcc/src/zxing_lib/zxing/Exception.h **** namespace zxing {
  28:/home/zkmike/workspace/RZA2M/rza2m_2d_barcode_sample_freertos_gcc/src/zxing_lib/zxing/Exception.h **** 
  29:/home/zkmike/workspace/RZA2M/rza2m_2d_barcode_sample_freertos_gcc/src/zxing_lib/zxing/Exception.h **** class Exception : public std::exception {
  30:/home/zkmike/workspace/RZA2M/rza2m_2d_barcode_sample_freertos_gcc/src/zxing_lib/zxing/Exception.h **** private:
  31:/home/zkmike/workspace/RZA2M/rza2m_2d_barcode_sample_freertos_gcc/src/zxing_lib/zxing/Exception.h ****   char const* const message;
  32:/home/zkmike/workspace/RZA2M/rza2m_2d_barcode_sample_freertos_gcc/src/zxing_lib/zxing/Exception.h **** 
  33:/home/zkmike/workspace/RZA2M/rza2m_2d_barcode_sample_freertos_gcc/src/zxing_lib/zxing/Exception.h **** public:
  34:/home/zkmike/workspace/RZA2M/rza2m_2d_barcode_sample_freertos_gcc/src/zxing_lib/zxing/Exception.h ****   Exception() throw() : message(0) {}
  35:/home/zkmike/workspace/RZA2M/rza2m_2d_barcode_sample_freertos_gcc/src/zxing_lib/zxing/Exception.h ****   Exception(const char* msg) throw() : message(copy(msg)) {}
  36:/home/zkmike/workspace/RZA2M/rza2m_2d_barcode_sample_freertos_gcc/src/zxing_lib/zxing/Exception.h ****   Exception(Exception const& that) throw() : std::exception(that), message(copy(that.message)) {}
  37:/home/zkmike/workspace/RZA2M/rza2m_2d_barcode_sample_freertos_gcc/src/zxing_lib/zxing/Exception.h ****   ~Exception() throw() {
  38:/home/zkmike/workspace/RZA2M/rza2m_2d_barcode_sample_freertos_gcc/src/zxing_lib/zxing/Exception.h ****     if(message) {
  39:/home/zkmike/workspace/RZA2M/rza2m_2d_barcode_sample_freertos_gcc/src/zxing_lib/zxing/Exception.h ****       deleteMessage();
  40:/home/zkmike/workspace/RZA2M/rza2m_2d_barcode_sample_freertos_gcc/src/zxing_lib/zxing/Exception.h ****     }
  41:/home/zkmike/workspace/RZA2M/rza2m_2d_barcode_sample_freertos_gcc/src/zxing_lib/zxing/Exception.h ****   }
  42:/home/zkmike/workspace/RZA2M/rza2m_2d_barcode_sample_freertos_gcc/src/zxing_lib/zxing/Exception.h ****   char const* what() const throw() {return message ? message : "";}
  27              		.loc 1 42 0
  28              		.cfi_startproc
  29              		@ args = 0, pretend = 0, frame = 0
  30              		@ frame_needed = 0, uses_anonymous_args = 0
  31              		@ link register save eliminated.
  32              	.LVL0:
  33              		.loc 1 42 0
  34 0000 040090E5 		ldr	r0, [r0, #4]
  35              	.LVL1:
  36 0004 000050E3 		cmp	r0, #0
  37 0008 1EFF2F11 		bxne	lr
  38 000c 000000E3 		movw	r0, #:lower16:.LC0
  39 0010 000040E3 		movt	r0, #:upper16:.LC0
  40 0014 1EFF2FE1 		bx	lr
  41              		.cfi_endproc
  42              	.LFE2096:
  43              		.cantunwind
  44              		.fnend
  46              		.section	.text._ZN5zxing8ArrayRefIcED2Ev,"axG",%progbits,_ZN5zxing8ArrayRefIcED5Ev,comdat
  47              		.align	2
  48              		.weak	_ZN5zxing8ArrayRefIcED2Ev
  49              		.syntax unified
  50              		.arm
  51              		.fpu neon
  53              	_ZN5zxing8ArrayRefIcED2Ev:
  54              		.fnstart
  55              	.LFB3121:
  56              		.file 2 "/home/zkmike/workspace/RZA2M/rza2m_2d_barcode_sample_freertos_gcc/src/zxing_lib/zxing/com
   1:/home/zkmike/workspace/RZA2M/rza2m_2d_barcode_sample_freertos_gcc/src/zxing_lib/zxing/common/Array.h **** // -*- mode:c++; tab-width:2; indent-tabs-mode:nil; c-basic-offset:2 -*-
   2:/home/zkmike/workspace/RZA2M/rza2m_2d_barcode_sample_freertos_gcc/src/zxing_lib/zxing/common/Array.h **** #ifndef __ARRAY_H__
   3:/home/zkmike/workspace/RZA2M/rza2m_2d_barcode_sample_freertos_gcc/src/zxing_lib/zxing/common/Array.h **** #define __ARRAY_H__
   4:/home/zkmike/workspace/RZA2M/rza2m_2d_barcode_sample_freertos_gcc/src/zxing_lib/zxing/common/Array.h **** 
   5:/home/zkmike/workspace/RZA2M/rza2m_2d_barcode_sample_freertos_gcc/src/zxing_lib/zxing/common/Array.h **** /*
   6:/home/zkmike/workspace/RZA2M/rza2m_2d_barcode_sample_freertos_gcc/src/zxing_lib/zxing/common/Array.h ****  *  Array.h
   7:/home/zkmike/workspace/RZA2M/rza2m_2d_barcode_sample_freertos_gcc/src/zxing_lib/zxing/common/Array.h ****  *  zxing
   8:/home/zkmike/workspace/RZA2M/rza2m_2d_barcode_sample_freertos_gcc/src/zxing_lib/zxing/common/Array.h ****  *
   9:/home/zkmike/workspace/RZA2M/rza2m_2d_barcode_sample_freertos_gcc/src/zxing_lib/zxing/common/Array.h ****  *  Copyright 2010 ZXing authors All rights reserved.
  10:/home/zkmike/workspace/RZA2M/rza2m_2d_barcode_sample_freertos_gcc/src/zxing_lib/zxing/common/Array.h ****  *
  11:/home/zkmike/workspace/RZA2M/rza2m_2d_barcode_sample_freertos_gcc/src/zxing_lib/zxing/common/Array.h ****  * Licensed under the Apache License, Version 2.0 (the "License");
  12:/home/zkmike/workspace/RZA2M/rza2m_2d_barcode_sample_freertos_gcc/src/zxing_lib/zxing/common/Array.h ****  * you may not use this file except in compliance with the License.
  13:/home/zkmike/workspace/RZA2M/rza2m_2d_barcode_sample_freertos_gcc/src/zxing_lib/zxing/common/Array.h ****  * You may obtain a copy of the License at
  14:/home/zkmike/workspace/RZA2M/rza2m_2d_barcode_sample_freertos_gcc/src/zxing_lib/zxing/common/Array.h ****  *
  15:/home/zkmike/workspace/RZA2M/rza2m_2d_barcode_sample_freertos_gcc/src/zxing_lib/zxing/common/Array.h ****  *      http://www.apache.org/licenses/LICENSE-2.0
  16:/home/zkmike/workspace/RZA2M/rza2m_2d_barcode_sample_freertos_gcc/src/zxing_lib/zxing/common/Array.h ****  *
  17:/home/zkmike/workspace/RZA2M/rza2m_2d_barcode_sample_freertos_gcc/src/zxing_lib/zxing/common/Array.h ****  * Unless required by applicable law or agreed to in writing, software
  18:/home/zkmike/workspace/RZA2M/rza2m_2d_barcode_sample_freertos_gcc/src/zxing_lib/zxing/common/Array.h ****  * distributed under the License is distributed on an "AS IS" BASIS,
  19:/home/zkmike/workspace/RZA2M/rza2m_2d_barcode_sample_freertos_gcc/src/zxing_lib/zxing/common/Array.h ****  * WITHOUT WARRANTIES OR CONDITIONS OF ANY KIND, either express or implied.
  20:/home/zkmike/workspace/RZA2M/rza2m_2d_barcode_sample_freertos_gcc/src/zxing_lib/zxing/common/Array.h ****  * See the License for the specific language governing permissions and
  21:/home/zkmike/workspace/RZA2M/rza2m_2d_barcode_sample_freertos_gcc/src/zxing_lib/zxing/common/Array.h ****  * limitations under the License.
  22:/home/zkmike/workspace/RZA2M/rza2m_2d_barcode_sample_freertos_gcc/src/zxing_lib/zxing/common/Array.h ****  */
  23:/home/zkmike/workspace/RZA2M/rza2m_2d_barcode_sample_freertos_gcc/src/zxing_lib/zxing/common/Array.h **** 
  24:/home/zkmike/workspace/RZA2M/rza2m_2d_barcode_sample_freertos_gcc/src/zxing_lib/zxing/common/Array.h **** #include <vector>
  25:/home/zkmike/workspace/RZA2M/rza2m_2d_barcode_sample_freertos_gcc/src/zxing_lib/zxing/common/Array.h **** 
  26:/home/zkmike/workspace/RZA2M/rza2m_2d_barcode_sample_freertos_gcc/src/zxing_lib/zxing/common/Array.h **** #include <zxing/common/Counted.h>
  27:/home/zkmike/workspace/RZA2M/rza2m_2d_barcode_sample_freertos_gcc/src/zxing_lib/zxing/common/Array.h **** 
  28:/home/zkmike/workspace/RZA2M/rza2m_2d_barcode_sample_freertos_gcc/src/zxing_lib/zxing/common/Array.h **** namespace zxing {
  29:/home/zkmike/workspace/RZA2M/rza2m_2d_barcode_sample_freertos_gcc/src/zxing_lib/zxing/common/Array.h **** 
  30:/home/zkmike/workspace/RZA2M/rza2m_2d_barcode_sample_freertos_gcc/src/zxing_lib/zxing/common/Array.h **** template<typename T> class Array : public Counted {
  31:/home/zkmike/workspace/RZA2M/rza2m_2d_barcode_sample_freertos_gcc/src/zxing_lib/zxing/common/Array.h **** protected:
  32:/home/zkmike/workspace/RZA2M/rza2m_2d_barcode_sample_freertos_gcc/src/zxing_lib/zxing/common/Array.h **** public:
  33:/home/zkmike/workspace/RZA2M/rza2m_2d_barcode_sample_freertos_gcc/src/zxing_lib/zxing/common/Array.h ****   std::vector<T> values_;
  34:/home/zkmike/workspace/RZA2M/rza2m_2d_barcode_sample_freertos_gcc/src/zxing_lib/zxing/common/Array.h ****   Array() {}
  35:/home/zkmike/workspace/RZA2M/rza2m_2d_barcode_sample_freertos_gcc/src/zxing_lib/zxing/common/Array.h ****   Array(int n) :
  36:/home/zkmike/workspace/RZA2M/rza2m_2d_barcode_sample_freertos_gcc/src/zxing_lib/zxing/common/Array.h ****       Counted(), values_(n, T()) {
  37:/home/zkmike/workspace/RZA2M/rza2m_2d_barcode_sample_freertos_gcc/src/zxing_lib/zxing/common/Array.h ****   }
  38:/home/zkmike/workspace/RZA2M/rza2m_2d_barcode_sample_freertos_gcc/src/zxing_lib/zxing/common/Array.h ****   Array(T const* ts, int n) :
  39:/home/zkmike/workspace/RZA2M/rza2m_2d_barcode_sample_freertos_gcc/src/zxing_lib/zxing/common/Array.h ****       Counted(), values_(ts, ts+n) {
  40:/home/zkmike/workspace/RZA2M/rza2m_2d_barcode_sample_freertos_gcc/src/zxing_lib/zxing/common/Array.h ****   }
  41:/home/zkmike/workspace/RZA2M/rza2m_2d_barcode_sample_freertos_gcc/src/zxing_lib/zxing/common/Array.h ****   Array(T const* ts, T const* te) :
  42:/home/zkmike/workspace/RZA2M/rza2m_2d_barcode_sample_freertos_gcc/src/zxing_lib/zxing/common/Array.h ****       Counted(), values_(ts, te) {
  43:/home/zkmike/workspace/RZA2M/rza2m_2d_barcode_sample_freertos_gcc/src/zxing_lib/zxing/common/Array.h ****   }
  44:/home/zkmike/workspace/RZA2M/rza2m_2d_barcode_sample_freertos_gcc/src/zxing_lib/zxing/common/Array.h ****   Array(T v, int n) :
  45:/home/zkmike/workspace/RZA2M/rza2m_2d_barcode_sample_freertos_gcc/src/zxing_lib/zxing/common/Array.h ****       Counted(), values_(n, v) {
  46:/home/zkmike/workspace/RZA2M/rza2m_2d_barcode_sample_freertos_gcc/src/zxing_lib/zxing/common/Array.h ****   }
  47:/home/zkmike/workspace/RZA2M/rza2m_2d_barcode_sample_freertos_gcc/src/zxing_lib/zxing/common/Array.h ****   Array(std::vector<T> &v) :
  48:/home/zkmike/workspace/RZA2M/rza2m_2d_barcode_sample_freertos_gcc/src/zxing_lib/zxing/common/Array.h ****       Counted(), values_(v) {
  49:/home/zkmike/workspace/RZA2M/rza2m_2d_barcode_sample_freertos_gcc/src/zxing_lib/zxing/common/Array.h ****   }
  50:/home/zkmike/workspace/RZA2M/rza2m_2d_barcode_sample_freertos_gcc/src/zxing_lib/zxing/common/Array.h ****   Array(Array<T> &other) :
  51:/home/zkmike/workspace/RZA2M/rza2m_2d_barcode_sample_freertos_gcc/src/zxing_lib/zxing/common/Array.h ****       Counted(), values_(other.values_) {
  52:/home/zkmike/workspace/RZA2M/rza2m_2d_barcode_sample_freertos_gcc/src/zxing_lib/zxing/common/Array.h ****   }
  53:/home/zkmike/workspace/RZA2M/rza2m_2d_barcode_sample_freertos_gcc/src/zxing_lib/zxing/common/Array.h ****   Array(Array<T> *other) :
  54:/home/zkmike/workspace/RZA2M/rza2m_2d_barcode_sample_freertos_gcc/src/zxing_lib/zxing/common/Array.h ****       Counted(), values_(other->values_) {
  55:/home/zkmike/workspace/RZA2M/rza2m_2d_barcode_sample_freertos_gcc/src/zxing_lib/zxing/common/Array.h ****   }
  56:/home/zkmike/workspace/RZA2M/rza2m_2d_barcode_sample_freertos_gcc/src/zxing_lib/zxing/common/Array.h ****   virtual ~Array() {
  57:/home/zkmike/workspace/RZA2M/rza2m_2d_barcode_sample_freertos_gcc/src/zxing_lib/zxing/common/Array.h ****   }
  58:/home/zkmike/workspace/RZA2M/rza2m_2d_barcode_sample_freertos_gcc/src/zxing_lib/zxing/common/Array.h ****   Array<T>& operator=(const Array<T> &other) {
  59:/home/zkmike/workspace/RZA2M/rza2m_2d_barcode_sample_freertos_gcc/src/zxing_lib/zxing/common/Array.h ****     values_ = other.values_;
  60:/home/zkmike/workspace/RZA2M/rza2m_2d_barcode_sample_freertos_gcc/src/zxing_lib/zxing/common/Array.h ****     return *this;
  61:/home/zkmike/workspace/RZA2M/rza2m_2d_barcode_sample_freertos_gcc/src/zxing_lib/zxing/common/Array.h ****   }
  62:/home/zkmike/workspace/RZA2M/rza2m_2d_barcode_sample_freertos_gcc/src/zxing_lib/zxing/common/Array.h ****   Array<T>& operator=(const std::vector<T> &array) {
  63:/home/zkmike/workspace/RZA2M/rza2m_2d_barcode_sample_freertos_gcc/src/zxing_lib/zxing/common/Array.h ****     values_ = array;
  64:/home/zkmike/workspace/RZA2M/rza2m_2d_barcode_sample_freertos_gcc/src/zxing_lib/zxing/common/Array.h ****     return *this;
  65:/home/zkmike/workspace/RZA2M/rza2m_2d_barcode_sample_freertos_gcc/src/zxing_lib/zxing/common/Array.h ****   }
  66:/home/zkmike/workspace/RZA2M/rza2m_2d_barcode_sample_freertos_gcc/src/zxing_lib/zxing/common/Array.h ****   T const& operator[](int i) const {
  67:/home/zkmike/workspace/RZA2M/rza2m_2d_barcode_sample_freertos_gcc/src/zxing_lib/zxing/common/Array.h ****     return values_[i];
  68:/home/zkmike/workspace/RZA2M/rza2m_2d_barcode_sample_freertos_gcc/src/zxing_lib/zxing/common/Array.h ****   }
  69:/home/zkmike/workspace/RZA2M/rza2m_2d_barcode_sample_freertos_gcc/src/zxing_lib/zxing/common/Array.h ****   T& operator[](int i) {
  70:/home/zkmike/workspace/RZA2M/rza2m_2d_barcode_sample_freertos_gcc/src/zxing_lib/zxing/common/Array.h ****     return values_[i];
  71:/home/zkmike/workspace/RZA2M/rza2m_2d_barcode_sample_freertos_gcc/src/zxing_lib/zxing/common/Array.h ****   }
  72:/home/zkmike/workspace/RZA2M/rza2m_2d_barcode_sample_freertos_gcc/src/zxing_lib/zxing/common/Array.h ****   int size() const {
  73:/home/zkmike/workspace/RZA2M/rza2m_2d_barcode_sample_freertos_gcc/src/zxing_lib/zxing/common/Array.h ****     return values_.size();
  74:/home/zkmike/workspace/RZA2M/rza2m_2d_barcode_sample_freertos_gcc/src/zxing_lib/zxing/common/Array.h ****   }
  75:/home/zkmike/workspace/RZA2M/rza2m_2d_barcode_sample_freertos_gcc/src/zxing_lib/zxing/common/Array.h ****   bool empty() const {
  76:/home/zkmike/workspace/RZA2M/rza2m_2d_barcode_sample_freertos_gcc/src/zxing_lib/zxing/common/Array.h ****     return values_.size() == 0;
  77:/home/zkmike/workspace/RZA2M/rza2m_2d_barcode_sample_freertos_gcc/src/zxing_lib/zxing/common/Array.h ****   }
  78:/home/zkmike/workspace/RZA2M/rza2m_2d_barcode_sample_freertos_gcc/src/zxing_lib/zxing/common/Array.h ****   std::vector<T> const& values() const {
  79:/home/zkmike/workspace/RZA2M/rza2m_2d_barcode_sample_freertos_gcc/src/zxing_lib/zxing/common/Array.h ****     return values_;
  80:/home/zkmike/workspace/RZA2M/rza2m_2d_barcode_sample_freertos_gcc/src/zxing_lib/zxing/common/Array.h ****   }
  81:/home/zkmike/workspace/RZA2M/rza2m_2d_barcode_sample_freertos_gcc/src/zxing_lib/zxing/common/Array.h ****   std::vector<T>& values() {
  82:/home/zkmike/workspace/RZA2M/rza2m_2d_barcode_sample_freertos_gcc/src/zxing_lib/zxing/common/Array.h ****     return values_;
  83:/home/zkmike/workspace/RZA2M/rza2m_2d_barcode_sample_freertos_gcc/src/zxing_lib/zxing/common/Array.h ****   }
  84:/home/zkmike/workspace/RZA2M/rza2m_2d_barcode_sample_freertos_gcc/src/zxing_lib/zxing/common/Array.h **** };
  85:/home/zkmike/workspace/RZA2M/rza2m_2d_barcode_sample_freertos_gcc/src/zxing_lib/zxing/common/Array.h **** 
  86:/home/zkmike/workspace/RZA2M/rza2m_2d_barcode_sample_freertos_gcc/src/zxing_lib/zxing/common/Array.h **** template<typename T> class ArrayRef : public Counted {
  87:/home/zkmike/workspace/RZA2M/rza2m_2d_barcode_sample_freertos_gcc/src/zxing_lib/zxing/common/Array.h **** private:
  88:/home/zkmike/workspace/RZA2M/rza2m_2d_barcode_sample_freertos_gcc/src/zxing_lib/zxing/common/Array.h **** public:
  89:/home/zkmike/workspace/RZA2M/rza2m_2d_barcode_sample_freertos_gcc/src/zxing_lib/zxing/common/Array.h ****   Array<T> *array_;
  90:/home/zkmike/workspace/RZA2M/rza2m_2d_barcode_sample_freertos_gcc/src/zxing_lib/zxing/common/Array.h ****   ArrayRef() :
  91:/home/zkmike/workspace/RZA2M/rza2m_2d_barcode_sample_freertos_gcc/src/zxing_lib/zxing/common/Array.h ****       array_(0) {
  92:/home/zkmike/workspace/RZA2M/rza2m_2d_barcode_sample_freertos_gcc/src/zxing_lib/zxing/common/Array.h ****   }
  93:/home/zkmike/workspace/RZA2M/rza2m_2d_barcode_sample_freertos_gcc/src/zxing_lib/zxing/common/Array.h ****   explicit ArrayRef(int n) :
  94:/home/zkmike/workspace/RZA2M/rza2m_2d_barcode_sample_freertos_gcc/src/zxing_lib/zxing/common/Array.h ****       array_(0) {
  95:/home/zkmike/workspace/RZA2M/rza2m_2d_barcode_sample_freertos_gcc/src/zxing_lib/zxing/common/Array.h ****     reset(new Array<T> (n));
  96:/home/zkmike/workspace/RZA2M/rza2m_2d_barcode_sample_freertos_gcc/src/zxing_lib/zxing/common/Array.h ****   }
  97:/home/zkmike/workspace/RZA2M/rza2m_2d_barcode_sample_freertos_gcc/src/zxing_lib/zxing/common/Array.h ****   ArrayRef(T *ts, int n) :
  98:/home/zkmike/workspace/RZA2M/rza2m_2d_barcode_sample_freertos_gcc/src/zxing_lib/zxing/common/Array.h ****       array_(0) {
  99:/home/zkmike/workspace/RZA2M/rza2m_2d_barcode_sample_freertos_gcc/src/zxing_lib/zxing/common/Array.h ****     reset(new Array<T> (ts, n));
 100:/home/zkmike/workspace/RZA2M/rza2m_2d_barcode_sample_freertos_gcc/src/zxing_lib/zxing/common/Array.h ****   }
 101:/home/zkmike/workspace/RZA2M/rza2m_2d_barcode_sample_freertos_gcc/src/zxing_lib/zxing/common/Array.h ****   ArrayRef(Array<T> *a) :
 102:/home/zkmike/workspace/RZA2M/rza2m_2d_barcode_sample_freertos_gcc/src/zxing_lib/zxing/common/Array.h ****       array_(0) {
 103:/home/zkmike/workspace/RZA2M/rza2m_2d_barcode_sample_freertos_gcc/src/zxing_lib/zxing/common/Array.h ****     reset(a);
 104:/home/zkmike/workspace/RZA2M/rza2m_2d_barcode_sample_freertos_gcc/src/zxing_lib/zxing/common/Array.h ****   }
 105:/home/zkmike/workspace/RZA2M/rza2m_2d_barcode_sample_freertos_gcc/src/zxing_lib/zxing/common/Array.h ****   ArrayRef(const ArrayRef &other) :
 106:/home/zkmike/workspace/RZA2M/rza2m_2d_barcode_sample_freertos_gcc/src/zxing_lib/zxing/common/Array.h ****       Counted(), array_(0) {
 107:/home/zkmike/workspace/RZA2M/rza2m_2d_barcode_sample_freertos_gcc/src/zxing_lib/zxing/common/Array.h ****     reset(other.array_);
 108:/home/zkmike/workspace/RZA2M/rza2m_2d_barcode_sample_freertos_gcc/src/zxing_lib/zxing/common/Array.h ****   }
 109:/home/zkmike/workspace/RZA2M/rza2m_2d_barcode_sample_freertos_gcc/src/zxing_lib/zxing/common/Array.h **** 
 110:/home/zkmike/workspace/RZA2M/rza2m_2d_barcode_sample_freertos_gcc/src/zxing_lib/zxing/common/Array.h ****   template<class Y>
 111:/home/zkmike/workspace/RZA2M/rza2m_2d_barcode_sample_freertos_gcc/src/zxing_lib/zxing/common/Array.h ****   ArrayRef(const ArrayRef<Y> &other) :
 112:/home/zkmike/workspace/RZA2M/rza2m_2d_barcode_sample_freertos_gcc/src/zxing_lib/zxing/common/Array.h ****       array_(0) {
 113:/home/zkmike/workspace/RZA2M/rza2m_2d_barcode_sample_freertos_gcc/src/zxing_lib/zxing/common/Array.h ****     reset(static_cast<const Array<T> *>(other.array_));
 114:/home/zkmike/workspace/RZA2M/rza2m_2d_barcode_sample_freertos_gcc/src/zxing_lib/zxing/common/Array.h ****   }
 115:/home/zkmike/workspace/RZA2M/rza2m_2d_barcode_sample_freertos_gcc/src/zxing_lib/zxing/common/Array.h **** 
 116:/home/zkmike/workspace/RZA2M/rza2m_2d_barcode_sample_freertos_gcc/src/zxing_lib/zxing/common/Array.h ****   ~ArrayRef() {
  57              		.loc 2 116 0
  58              		.cfi_startproc
  59              		@ args = 0, pretend = 0, frame = 0
  60              		@ frame_needed = 0, uses_anonymous_args = 0
  61              	.LVL2:
  62 0000 10402DE9 		push	{r4, lr}
  63              		.cfi_def_cfa_offset 8
  64              		.cfi_offset 4, -8
  65              		.cfi_offset 14, -4
  66 0004 0040A0E1 		mov	r4, r0
  67              	.LBB1880:
 117:/home/zkmike/workspace/RZA2M/rza2m_2d_barcode_sample_freertos_gcc/src/zxing_lib/zxing/common/Array.h ****     if (array_) {
 118:/home/zkmike/workspace/RZA2M/rza2m_2d_barcode_sample_freertos_gcc/src/zxing_lib/zxing/common/Array.h ****       array_->release();
 119:/home/zkmike/workspace/RZA2M/rza2m_2d_barcode_sample_freertos_gcc/src/zxing_lib/zxing/common/Array.h ****     }
 120:/home/zkmike/workspace/RZA2M/rza2m_2d_barcode_sample_freertos_gcc/src/zxing_lib/zxing/common/Array.h ****     array_ = 0;
 121:/home/zkmike/workspace/RZA2M/rza2m_2d_barcode_sample_freertos_gcc/src/zxing_lib/zxing/common/Array.h ****   }
  68              		.loc 2 121 0
  69 0008 44309FE5 		ldr	r3, .L7
  70 000c 003080E5 		str	r3, [r0]
 117:/home/zkmike/workspace/RZA2M/rza2m_2d_barcode_sample_freertos_gcc/src/zxing_lib/zxing/common/Array.h ****     if (array_) {
  71              		.loc 2 117 0
  72 0010 080090E5 		ldr	r0, [r0, #8]
  73              	.LVL3:
  74 0014 000050E3 		cmp	r0, #0
  75 0018 0400000A 		beq	.L4
  76              	.LVL4:
  77              	.LBB1881:
  78              	.LBB1882:
  79              		.file 3 "/home/zkmike/workspace/RZA2M/rza2m_2d_barcode_sample_freertos_gcc/src/zxing_lib/zxing/com
   1:/home/zkmike/workspace/RZA2M/rza2m_2d_barcode_sample_freertos_gcc/src/zxing_lib/zxing/common/Counted.h **** // -*- mode:c++; tab-width:2; indent-tabs-mode:nil; c-basic-offset:2 -*-
   2:/home/zkmike/workspace/RZA2M/rza2m_2d_barcode_sample_freertos_gcc/src/zxing_lib/zxing/common/Counted.h **** #ifndef __COUNTED_H__
   3:/home/zkmike/workspace/RZA2M/rza2m_2d_barcode_sample_freertos_gcc/src/zxing_lib/zxing/common/Counted.h **** #define __COUNTED_H__
   4:/home/zkmike/workspace/RZA2M/rza2m_2d_barcode_sample_freertos_gcc/src/zxing_lib/zxing/common/Counted.h **** 
   5:/home/zkmike/workspace/RZA2M/rza2m_2d_barcode_sample_freertos_gcc/src/zxing_lib/zxing/common/Counted.h **** /*
   6:/home/zkmike/workspace/RZA2M/rza2m_2d_barcode_sample_freertos_gcc/src/zxing_lib/zxing/common/Counted.h ****  *  Copyright 2010 ZXing authors All rights reserved.
   7:/home/zkmike/workspace/RZA2M/rza2m_2d_barcode_sample_freertos_gcc/src/zxing_lib/zxing/common/Counted.h ****  *
   8:/home/zkmike/workspace/RZA2M/rza2m_2d_barcode_sample_freertos_gcc/src/zxing_lib/zxing/common/Counted.h ****  * Licensed under the Apache License, Version 2.0 (the "License");
   9:/home/zkmike/workspace/RZA2M/rza2m_2d_barcode_sample_freertos_gcc/src/zxing_lib/zxing/common/Counted.h ****  * you may not use this file except in compliance with the License.
  10:/home/zkmike/workspace/RZA2M/rza2m_2d_barcode_sample_freertos_gcc/src/zxing_lib/zxing/common/Counted.h ****  * You may obtain a copy of the License at
  11:/home/zkmike/workspace/RZA2M/rza2m_2d_barcode_sample_freertos_gcc/src/zxing_lib/zxing/common/Counted.h ****  *
  12:/home/zkmike/workspace/RZA2M/rza2m_2d_barcode_sample_freertos_gcc/src/zxing_lib/zxing/common/Counted.h ****  *      http://www.apache.org/licenses/LICENSE-2.0
  13:/home/zkmike/workspace/RZA2M/rza2m_2d_barcode_sample_freertos_gcc/src/zxing_lib/zxing/common/Counted.h ****  *
  14:/home/zkmike/workspace/RZA2M/rza2m_2d_barcode_sample_freertos_gcc/src/zxing_lib/zxing/common/Counted.h ****  * Unless required by applicable law or agreed to in writing, software
  15:/home/zkmike/workspace/RZA2M/rza2m_2d_barcode_sample_freertos_gcc/src/zxing_lib/zxing/common/Counted.h ****  * distributed under the License is distributed on an "AS IS" BASIS,
  16:/home/zkmike/workspace/RZA2M/rza2m_2d_barcode_sample_freertos_gcc/src/zxing_lib/zxing/common/Counted.h ****  * WITHOUT WARRANTIES OR CONDITIONS OF ANY KIND, either express or implied.
  17:/home/zkmike/workspace/RZA2M/rza2m_2d_barcode_sample_freertos_gcc/src/zxing_lib/zxing/common/Counted.h ****  * See the License for the specific language governing permissions and
  18:/home/zkmike/workspace/RZA2M/rza2m_2d_barcode_sample_freertos_gcc/src/zxing_lib/zxing/common/Counted.h ****  * limitations under the License.
  19:/home/zkmike/workspace/RZA2M/rza2m_2d_barcode_sample_freertos_gcc/src/zxing_lib/zxing/common/Counted.h ****  */
  20:/home/zkmike/workspace/RZA2M/rza2m_2d_barcode_sample_freertos_gcc/src/zxing_lib/zxing/common/Counted.h **** 
  21:/home/zkmike/workspace/RZA2M/rza2m_2d_barcode_sample_freertos_gcc/src/zxing_lib/zxing/common/Counted.h **** #include <iostream>
  22:/home/zkmike/workspace/RZA2M/rza2m_2d_barcode_sample_freertos_gcc/src/zxing_lib/zxing/common/Counted.h **** 
  23:/home/zkmike/workspace/RZA2M/rza2m_2d_barcode_sample_freertos_gcc/src/zxing_lib/zxing/common/Counted.h **** namespace zxing {
  24:/home/zkmike/workspace/RZA2M/rza2m_2d_barcode_sample_freertos_gcc/src/zxing_lib/zxing/common/Counted.h **** 
  25:/home/zkmike/workspace/RZA2M/rza2m_2d_barcode_sample_freertos_gcc/src/zxing_lib/zxing/common/Counted.h **** /* base class for reference-counted objects */
  26:/home/zkmike/workspace/RZA2M/rza2m_2d_barcode_sample_freertos_gcc/src/zxing_lib/zxing/common/Counted.h **** class Counted {
  27:/home/zkmike/workspace/RZA2M/rza2m_2d_barcode_sample_freertos_gcc/src/zxing_lib/zxing/common/Counted.h **** private:
  28:/home/zkmike/workspace/RZA2M/rza2m_2d_barcode_sample_freertos_gcc/src/zxing_lib/zxing/common/Counted.h ****   unsigned int count_;
  29:/home/zkmike/workspace/RZA2M/rza2m_2d_barcode_sample_freertos_gcc/src/zxing_lib/zxing/common/Counted.h **** public:
  30:/home/zkmike/workspace/RZA2M/rza2m_2d_barcode_sample_freertos_gcc/src/zxing_lib/zxing/common/Counted.h ****   Counted() :
  31:/home/zkmike/workspace/RZA2M/rza2m_2d_barcode_sample_freertos_gcc/src/zxing_lib/zxing/common/Counted.h ****       count_(0) {
  32:/home/zkmike/workspace/RZA2M/rza2m_2d_barcode_sample_freertos_gcc/src/zxing_lib/zxing/common/Counted.h ****   }
  33:/home/zkmike/workspace/RZA2M/rza2m_2d_barcode_sample_freertos_gcc/src/zxing_lib/zxing/common/Counted.h ****   virtual ~Counted() {
  34:/home/zkmike/workspace/RZA2M/rza2m_2d_barcode_sample_freertos_gcc/src/zxing_lib/zxing/common/Counted.h ****   }
  35:/home/zkmike/workspace/RZA2M/rza2m_2d_barcode_sample_freertos_gcc/src/zxing_lib/zxing/common/Counted.h ****   Counted *retain() {
  36:/home/zkmike/workspace/RZA2M/rza2m_2d_barcode_sample_freertos_gcc/src/zxing_lib/zxing/common/Counted.h ****     count_++;
  37:/home/zkmike/workspace/RZA2M/rza2m_2d_barcode_sample_freertos_gcc/src/zxing_lib/zxing/common/Counted.h ****     return this;
  38:/home/zkmike/workspace/RZA2M/rza2m_2d_barcode_sample_freertos_gcc/src/zxing_lib/zxing/common/Counted.h ****   }
  39:/home/zkmike/workspace/RZA2M/rza2m_2d_barcode_sample_freertos_gcc/src/zxing_lib/zxing/common/Counted.h ****   void release() {
  40:/home/zkmike/workspace/RZA2M/rza2m_2d_barcode_sample_freertos_gcc/src/zxing_lib/zxing/common/Counted.h ****     count_--;
  80              		.loc 3 40 0
  81 001c 043090E5 		ldr	r3, [r0, #4]
  82 0020 013043E2 		sub	r3, r3, #1
  83 0024 043080E5 		str	r3, [r0, #4]
  41:/home/zkmike/workspace/RZA2M/rza2m_2d_barcode_sample_freertos_gcc/src/zxing_lib/zxing/common/Counted.h ****     if (count_ == 0) {
  84              		.loc 3 41 0
  85 0028 000053E3 		cmp	r3, #0
  86 002c 0100000A 		beq	.L6
  87              	.LVL5:
  88              	.L4:
  89              	.LBE1882:
  90              	.LBE1881:
  91              	.LBE1880:
  92              		.loc 2 121 0
  93 0030 0400A0E1 		mov	r0, r4
  94 0034 1080BDE8 		pop	{r4, pc}
  95              	.LVL6:
  96              	.L6:
  97              	.LBB1885:
  98              	.LBB1884:
  99              	.LBB1883:
  42:/home/zkmike/workspace/RZA2M/rza2m_2d_barcode_sample_freertos_gcc/src/zxing_lib/zxing/common/Counted.h ****       count_ = 0xDEADF001;
 100              		.loc 3 42 0
 101 0038 01300FE3 		movw	r3, #61441
 102 003c AD3E4DE3 		movt	r3, 57005
 103 0040 043080E5 		str	r3, [r0, #4]
  43:/home/zkmike/workspace/RZA2M/rza2m_2d_barcode_sample_freertos_gcc/src/zxing_lib/zxing/common/Counted.h ****       delete this;
 104              		.loc 3 43 0
 105 0044 003090E5 		ldr	r3, [r0]
 106 0048 043093E5 		ldr	r3, [r3, #4]
 107 004c 33FF2FE1 		blx	r3
 108              	.LVL7:
 109 0050 F6FFFFEA 		b	.L4
 110              	.L8:
 111              		.align	2
 112              	.L7:
 113 0054 08000000 		.word	_ZTVN5zxing8ArrayRefIcEE+8
 114              	.LBE1883:
 115              	.LBE1884:
 116              	.LBE1885:
 117              		.cfi_endproc
 118              	.LFE3121:
 119              		.cantunwind
 120              		.fnend
 122              		.weak	_ZN5zxing8ArrayRefIcED1Ev
 123              		.set	_ZN5zxing8ArrayRefIcED1Ev,_ZN5zxing8ArrayRefIcED2Ev
 124              		.section	.text._ZN5zxing8ArrayRefINS0_IcEEED2Ev,"axG",%progbits,_ZN5zxing8ArrayRefINS0_IcEEED5Ev,c
 125              		.align	2
 126              		.weak	_ZN5zxing8ArrayRefINS0_IcEEED2Ev
 127              		.syntax unified
 128              		.arm
 129              		.fpu neon
 131              	_ZN5zxing8ArrayRefINS0_IcEEED2Ev:
 132              		.fnstart
 133              	.LFB3165:
 116:/home/zkmike/workspace/RZA2M/rza2m_2d_barcode_sample_freertos_gcc/src/zxing_lib/zxing/common/Array.h ****     if (array_) {
 134              		.loc 2 116 0
 135              		.cfi_startproc
 136              		@ args = 0, pretend = 0, frame = 0
 137              		@ frame_needed = 0, uses_anonymous_args = 0
 138              	.LVL8:
 139 0000 10402DE9 		push	{r4, lr}
 140              		.cfi_def_cfa_offset 8
 141              		.cfi_offset 4, -8
 142              		.cfi_offset 14, -4
 143 0004 0040A0E1 		mov	r4, r0
 144              	.LBB1886:
 145              		.loc 2 121 0
 146 0008 44309FE5 		ldr	r3, .L13
 147 000c 003080E5 		str	r3, [r0]
 117:/home/zkmike/workspace/RZA2M/rza2m_2d_barcode_sample_freertos_gcc/src/zxing_lib/zxing/common/Array.h ****       array_->release();
 148              		.loc 2 117 0
 149 0010 080090E5 		ldr	r0, [r0, #8]
 150              	.LVL9:
 151 0014 000050E3 		cmp	r0, #0
 152 0018 0400000A 		beq	.L10
 153              	.LVL10:
 154              	.LBB1887:
 155              	.LBB1888:
  40:/home/zkmike/workspace/RZA2M/rza2m_2d_barcode_sample_freertos_gcc/src/zxing_lib/zxing/common/Counted.h ****     if (count_ == 0) {
 156              		.loc 3 40 0
 157 001c 043090E5 		ldr	r3, [r0, #4]
 158 0020 013043E2 		sub	r3, r3, #1
 159 0024 043080E5 		str	r3, [r0, #4]
  41:/home/zkmike/workspace/RZA2M/rza2m_2d_barcode_sample_freertos_gcc/src/zxing_lib/zxing/common/Counted.h ****       count_ = 0xDEADF001;
 160              		.loc 3 41 0
 161 0028 000053E3 		cmp	r3, #0
 162 002c 0100000A 		beq	.L12
 163              	.LVL11:
 164              	.L10:
 165              	.LBE1888:
 166              	.LBE1887:
 167              	.LBE1886:
 168              		.loc 2 121 0
 169 0030 0400A0E1 		mov	r0, r4
 170 0034 1080BDE8 		pop	{r4, pc}
 171              	.LVL12:
 172              	.L12:
 173              	.LBB1891:
 174              	.LBB1890:
 175              	.LBB1889:
  42:/home/zkmike/workspace/RZA2M/rza2m_2d_barcode_sample_freertos_gcc/src/zxing_lib/zxing/common/Counted.h ****       delete this;
 176              		.loc 3 42 0
 177 0038 01300FE3 		movw	r3, #61441
 178 003c AD3E4DE3 		movt	r3, 57005
 179 0040 043080E5 		str	r3, [r0, #4]
 180              		.loc 3 43 0
 181 0044 003090E5 		ldr	r3, [r0]
 182 0048 043093E5 		ldr	r3, [r3, #4]
 183 004c 33FF2FE1 		blx	r3
 184              	.LVL13:
 185 0050 F6FFFFEA 		b	.L10
 186              	.L14:
 187              		.align	2
 188              	.L13:
 189 0054 08000000 		.word	_ZTVN5zxing8ArrayRefINS0_IcEEEE+8
 190              	.LBE1889:
 191              	.LBE1890:
 192              	.LBE1891:
 193              		.cfi_endproc
 194              	.LFE3165:
 195              		.cantunwind
 196              		.fnend
 198              		.weak	_ZN5zxing8ArrayRefINS0_IcEEED1Ev
 199              		.set	_ZN5zxing8ArrayRefINS0_IcEEED1Ev,_ZN5zxing8ArrayRefINS0_IcEEED2Ev
 200              		.section	.text._ZN5zxing9BitSourceD2Ev,"axG",%progbits,_ZN5zxing9BitSourceD5Ev,comdat
 201              		.align	2
 202              		.weak	_ZN5zxing9BitSourceD2Ev
 203              		.syntax unified
 204              		.arm
 205              		.fpu neon
 207              	_ZN5zxing9BitSourceD2Ev:
 208              		.fnstart
 209              	.LFB3583:
 210              		.file 4 "/home/zkmike/workspace/RZA2M/rza2m_2d_barcode_sample_freertos_gcc/src/zxing_lib/zxing/com
   1:/home/zkmike/workspace/RZA2M/rza2m_2d_barcode_sample_freertos_gcc/src/zxing_lib/zxing/common/BitSource.h **** #ifndef __BIT_SOURCE_H__
   2:/home/zkmike/workspace/RZA2M/rza2m_2d_barcode_sample_freertos_gcc/src/zxing_lib/zxing/common/BitSource.h **** #define __BIT_SOURCE_H__
   3:/home/zkmike/workspace/RZA2M/rza2m_2d_barcode_sample_freertos_gcc/src/zxing_lib/zxing/common/BitSource.h **** 
   4:/home/zkmike/workspace/RZA2M/rza2m_2d_barcode_sample_freertos_gcc/src/zxing_lib/zxing/common/BitSource.h **** /*
   5:/home/zkmike/workspace/RZA2M/rza2m_2d_barcode_sample_freertos_gcc/src/zxing_lib/zxing/common/BitSource.h ****  *  BitSource.h
   6:/home/zkmike/workspace/RZA2M/rza2m_2d_barcode_sample_freertos_gcc/src/zxing_lib/zxing/common/BitSource.h ****  *  zxing
   7:/home/zkmike/workspace/RZA2M/rza2m_2d_barcode_sample_freertos_gcc/src/zxing_lib/zxing/common/BitSource.h ****  *
   8:/home/zkmike/workspace/RZA2M/rza2m_2d_barcode_sample_freertos_gcc/src/zxing_lib/zxing/common/BitSource.h ****  *  Copyright 2010 ZXing authors All rights reserved.
   9:/home/zkmike/workspace/RZA2M/rza2m_2d_barcode_sample_freertos_gcc/src/zxing_lib/zxing/common/BitSource.h ****  *
  10:/home/zkmike/workspace/RZA2M/rza2m_2d_barcode_sample_freertos_gcc/src/zxing_lib/zxing/common/BitSource.h ****  * Licensed under the Apache License, Version 2.0 (the "License");
  11:/home/zkmike/workspace/RZA2M/rza2m_2d_barcode_sample_freertos_gcc/src/zxing_lib/zxing/common/BitSource.h ****  * you may not use this file except in compliance with the License.
  12:/home/zkmike/workspace/RZA2M/rza2m_2d_barcode_sample_freertos_gcc/src/zxing_lib/zxing/common/BitSource.h ****  * You may obtain a copy of the License at
  13:/home/zkmike/workspace/RZA2M/rza2m_2d_barcode_sample_freertos_gcc/src/zxing_lib/zxing/common/BitSource.h ****  *
  14:/home/zkmike/workspace/RZA2M/rza2m_2d_barcode_sample_freertos_gcc/src/zxing_lib/zxing/common/BitSource.h ****  *      http://www.apache.org/licenses/LICENSE-2.0
  15:/home/zkmike/workspace/RZA2M/rza2m_2d_barcode_sample_freertos_gcc/src/zxing_lib/zxing/common/BitSource.h ****  *
  16:/home/zkmike/workspace/RZA2M/rza2m_2d_barcode_sample_freertos_gcc/src/zxing_lib/zxing/common/BitSource.h ****  * Unless required by applicable law or agreed to in writing, software
  17:/home/zkmike/workspace/RZA2M/rza2m_2d_barcode_sample_freertos_gcc/src/zxing_lib/zxing/common/BitSource.h ****  * distributed under the License is distributed on an "AS IS" BASIS,
  18:/home/zkmike/workspace/RZA2M/rza2m_2d_barcode_sample_freertos_gcc/src/zxing_lib/zxing/common/BitSource.h ****  * WITHOUT WARRANTIES OR CONDITIONS OF ANY KIND, either express or implied.
  19:/home/zkmike/workspace/RZA2M/rza2m_2d_barcode_sample_freertos_gcc/src/zxing_lib/zxing/common/BitSource.h ****  * See the License for the specific language governing permissions and
  20:/home/zkmike/workspace/RZA2M/rza2m_2d_barcode_sample_freertos_gcc/src/zxing_lib/zxing/common/BitSource.h ****  * limitations under the License.
  21:/home/zkmike/workspace/RZA2M/rza2m_2d_barcode_sample_freertos_gcc/src/zxing_lib/zxing/common/BitSource.h ****  */
  22:/home/zkmike/workspace/RZA2M/rza2m_2d_barcode_sample_freertos_gcc/src/zxing_lib/zxing/common/BitSource.h **** 
  23:/home/zkmike/workspace/RZA2M/rza2m_2d_barcode_sample_freertos_gcc/src/zxing_lib/zxing/common/BitSource.h **** #include <zxing/common/Array.h>
  24:/home/zkmike/workspace/RZA2M/rza2m_2d_barcode_sample_freertos_gcc/src/zxing_lib/zxing/common/BitSource.h **** 
  25:/home/zkmike/workspace/RZA2M/rza2m_2d_barcode_sample_freertos_gcc/src/zxing_lib/zxing/common/BitSource.h **** namespace zxing {
  26:/home/zkmike/workspace/RZA2M/rza2m_2d_barcode_sample_freertos_gcc/src/zxing_lib/zxing/common/BitSource.h **** /**
  27:/home/zkmike/workspace/RZA2M/rza2m_2d_barcode_sample_freertos_gcc/src/zxing_lib/zxing/common/BitSource.h ****  * <p>This provides an easy abstraction to read bits at a time from a sequence of bytes, where the
  28:/home/zkmike/workspace/RZA2M/rza2m_2d_barcode_sample_freertos_gcc/src/zxing_lib/zxing/common/BitSource.h ****  * number of bits read is not often a multiple of 8.</p>
  29:/home/zkmike/workspace/RZA2M/rza2m_2d_barcode_sample_freertos_gcc/src/zxing_lib/zxing/common/BitSource.h ****  *
  30:/home/zkmike/workspace/RZA2M/rza2m_2d_barcode_sample_freertos_gcc/src/zxing_lib/zxing/common/BitSource.h ****  * <p>This class is not thread-safe.</p>
  31:/home/zkmike/workspace/RZA2M/rza2m_2d_barcode_sample_freertos_gcc/src/zxing_lib/zxing/common/BitSource.h ****  *
  32:/home/zkmike/workspace/RZA2M/rza2m_2d_barcode_sample_freertos_gcc/src/zxing_lib/zxing/common/BitSource.h ****  * @author srowen@google.com (Sean Owen)
  33:/home/zkmike/workspace/RZA2M/rza2m_2d_barcode_sample_freertos_gcc/src/zxing_lib/zxing/common/BitSource.h ****  * @author christian.brunschen@gmail.com (Christian Brunschen)
  34:/home/zkmike/workspace/RZA2M/rza2m_2d_barcode_sample_freertos_gcc/src/zxing_lib/zxing/common/BitSource.h ****  */
  35:/home/zkmike/workspace/RZA2M/rza2m_2d_barcode_sample_freertos_gcc/src/zxing_lib/zxing/common/BitSource.h **** class BitSource : public Counted {
 211              		.loc 4 35 0
 212              		.cfi_startproc
 213              		@ args = 0, pretend = 0, frame = 0
 214              		@ frame_needed = 0, uses_anonymous_args = 0
 215              	.LVL14:
 216 0000 10402DE9 		push	{r4, lr}
 217              		.cfi_def_cfa_offset 8
 218              		.cfi_offset 4, -8
 219              		.cfi_offset 14, -4
 220 0004 0040A0E1 		mov	r4, r0
 221              	.LBB1892:
 222              		.loc 4 35 0
 223 0008 4C309FE5 		ldr	r3, .L19
 224 000c 003080E5 		str	r3, [r0]
 225              	.LVL15:
 226              	.LBB1893:
 227              	.LBB1894:
 228              		.loc 2 121 0
 229 0010 48309FE5 		ldr	r3, .L19+4
 230 0014 083080E5 		str	r3, [r0, #8]
 117:/home/zkmike/workspace/RZA2M/rza2m_2d_barcode_sample_freertos_gcc/src/zxing_lib/zxing/common/Array.h ****       array_->release();
 231              		.loc 2 117 0
 232 0018 100090E5 		ldr	r0, [r0, #16]
 233              	.LVL16:
 234 001c 000050E3 		cmp	r0, #0
 235 0020 0400000A 		beq	.L16
 236              	.LVL17:
 237              	.LBB1895:
 238              	.LBB1896:
  40:/home/zkmike/workspace/RZA2M/rza2m_2d_barcode_sample_freertos_gcc/src/zxing_lib/zxing/common/Counted.h ****     if (count_ == 0) {
 239              		.loc 3 40 0
 240 0024 043090E5 		ldr	r3, [r0, #4]
 241 0028 013043E2 		sub	r3, r3, #1
 242 002c 043080E5 		str	r3, [r0, #4]
  41:/home/zkmike/workspace/RZA2M/rza2m_2d_barcode_sample_freertos_gcc/src/zxing_lib/zxing/common/Counted.h ****       count_ = 0xDEADF001;
 243              		.loc 3 41 0
 244 0030 000053E3 		cmp	r3, #0
 245 0034 0100000A 		beq	.L18
 246              	.LVL18:
 247              	.L16:
 248              	.LBE1896:
 249              	.LBE1895:
 250              	.LBE1894:
 251              	.LBE1893:
 252              	.LBE1892:
 253              		.loc 4 35 0
 254 0038 0400A0E1 		mov	r0, r4
 255 003c 1080BDE8 		pop	{r4, pc}
 256              	.LVL19:
 257              	.L18:
 258              	.LBB1901:
 259              	.LBB1900:
 260              	.LBB1899:
 261              	.LBB1898:
 262              	.LBB1897:
  42:/home/zkmike/workspace/RZA2M/rza2m_2d_barcode_sample_freertos_gcc/src/zxing_lib/zxing/common/Counted.h ****       delete this;
 263              		.loc 3 42 0
 264 0040 01300FE3 		movw	r3, #61441
 265 0044 AD3E4DE3 		movt	r3, 57005
 266 0048 043080E5 		str	r3, [r0, #4]
 267              		.loc 3 43 0
 268 004c 003090E5 		ldr	r3, [r0]
 269 0050 043093E5 		ldr	r3, [r3, #4]
 270 0054 33FF2FE1 		blx	r3
 271              	.LVL20:
 272 0058 F6FFFFEA 		b	.L16
 273              	.L20:
 274              		.align	2
 275              	.L19:
 276 005c 08000000 		.word	_ZTVN5zxing9BitSourceE+8
 277 0060 08000000 		.word	_ZTVN5zxing8ArrayRefIcEE+8
 278              	.LBE1897:
 279              	.LBE1898:
 280              	.LBE1899:
 281              	.LBE1900:
 282              	.LBE1901:
 283              		.cfi_endproc
 284              	.LFE3583:
 285              		.cantunwind
 286              		.fnend
 288              		.weak	_ZN5zxing9BitSourceD1Ev
 289              		.set	_ZN5zxing9BitSourceD1Ev,_ZN5zxing9BitSourceD2Ev
 290              		.section	.text._ZN12_GLOBAL__N_113parseECIValueERN5zxing9BitSourceE,"ax",%progbits
 291              		.align	2
 292              		.syntax unified
 293              		.arm
 294              		.fpu neon
 296              	_ZN12_GLOBAL__N_113parseECIValueERN5zxing9BitSourceE:
 297              		.fnstart
 298              	.LFB2901:
 299              		.file 5 "../src/zxing_lib/zxing/qrcode/decoder/DecodedBitStreamParser.cpp"
   1:../src/zxing_lib/zxing/qrcode/decoder/DecodedBitStreamParser.cpp **** // -*- mode:c++; tab-width:2; indent-tabs-mode:nil; c-basic-offset:2 -*-
   2:../src/zxing_lib/zxing/qrcode/decoder/DecodedBitStreamParser.cpp **** /*
   3:../src/zxing_lib/zxing/qrcode/decoder/DecodedBitStreamParser.cpp ****  *  DecodedBitStreamParser.cpp
   4:../src/zxing_lib/zxing/qrcode/decoder/DecodedBitStreamParser.cpp ****  *  zxing
   5:../src/zxing_lib/zxing/qrcode/decoder/DecodedBitStreamParser.cpp ****  *
   6:../src/zxing_lib/zxing/qrcode/decoder/DecodedBitStreamParser.cpp ****  *  Created by Christian Brunschen on 20/05/2008.
   7:../src/zxing_lib/zxing/qrcode/decoder/DecodedBitStreamParser.cpp ****  *  Copyright 2008 ZXing authors All rights reserved.
   8:../src/zxing_lib/zxing/qrcode/decoder/DecodedBitStreamParser.cpp ****  *
   9:../src/zxing_lib/zxing/qrcode/decoder/DecodedBitStreamParser.cpp ****  * Licensed under the Apache License, Version 2.0 (the "License");
  10:../src/zxing_lib/zxing/qrcode/decoder/DecodedBitStreamParser.cpp ****  * you may not use this file except in compliance with the License.
  11:../src/zxing_lib/zxing/qrcode/decoder/DecodedBitStreamParser.cpp ****  * You may obtain a copy of the License at
  12:../src/zxing_lib/zxing/qrcode/decoder/DecodedBitStreamParser.cpp ****  *
  13:../src/zxing_lib/zxing/qrcode/decoder/DecodedBitStreamParser.cpp ****  *      http://www.apache.org/licenses/LICENSE-2.0
  14:../src/zxing_lib/zxing/qrcode/decoder/DecodedBitStreamParser.cpp ****  *
  15:../src/zxing_lib/zxing/qrcode/decoder/DecodedBitStreamParser.cpp ****  * Unless required by applicable law or agreed to in writing, software
  16:../src/zxing_lib/zxing/qrcode/decoder/DecodedBitStreamParser.cpp ****  * distributed under the License is distributed on an "AS IS" BASIS,
  17:../src/zxing_lib/zxing/qrcode/decoder/DecodedBitStreamParser.cpp ****  * WITHOUT WARRANTIES OR CONDITIONS OF ANY KIND, either express or implied.
  18:../src/zxing_lib/zxing/qrcode/decoder/DecodedBitStreamParser.cpp ****  * See the License for the specific language governing permissions and
  19:../src/zxing_lib/zxing/qrcode/decoder/DecodedBitStreamParser.cpp ****  * limitations under the License.
  20:../src/zxing_lib/zxing/qrcode/decoder/DecodedBitStreamParser.cpp ****  */
  21:../src/zxing_lib/zxing/qrcode/decoder/DecodedBitStreamParser.cpp **** 
  22:../src/zxing_lib/zxing/qrcode/decoder/DecodedBitStreamParser.cpp **** #include <zxing/qrcode/decoder/DecodedBitStreamParser.h>
  23:../src/zxing_lib/zxing/qrcode/decoder/DecodedBitStreamParser.cpp **** #include <zxing/common/CharacterSetECI.h>
  24:../src/zxing_lib/zxing/qrcode/decoder/DecodedBitStreamParser.cpp **** #include <zxing/FormatException.h>
  25:../src/zxing_lib/zxing/qrcode/decoder/DecodedBitStreamParser.cpp **** #include <zxing/common/StringUtils.h>
  26:../src/zxing_lib/zxing/qrcode/decoder/DecodedBitStreamParser.cpp **** #include <iostream>
  27:../src/zxing_lib/zxing/qrcode/decoder/DecodedBitStreamParser.cpp **** #ifndef NO_ICONV
  28:../src/zxing_lib/zxing/qrcode/decoder/DecodedBitStreamParser.cpp **** #include <iconv.h>
  29:../src/zxing_lib/zxing/qrcode/decoder/DecodedBitStreamParser.cpp **** #endif
  30:../src/zxing_lib/zxing/qrcode/decoder/DecodedBitStreamParser.cpp **** 
  31:../src/zxing_lib/zxing/qrcode/decoder/DecodedBitStreamParser.cpp **** // Required for compatibility. TODO: test on Symbian
  32:../src/zxing_lib/zxing/qrcode/decoder/DecodedBitStreamParser.cpp **** #ifdef ZXING_ICONV_CONST
  33:../src/zxing_lib/zxing/qrcode/decoder/DecodedBitStreamParser.cpp **** #undef ICONV_CONST
  34:../src/zxing_lib/zxing/qrcode/decoder/DecodedBitStreamParser.cpp **** #define ICONV_CONST const
  35:../src/zxing_lib/zxing/qrcode/decoder/DecodedBitStreamParser.cpp **** #endif
  36:../src/zxing_lib/zxing/qrcode/decoder/DecodedBitStreamParser.cpp **** 
  37:../src/zxing_lib/zxing/qrcode/decoder/DecodedBitStreamParser.cpp **** #ifndef ICONV_CONST
  38:../src/zxing_lib/zxing/qrcode/decoder/DecodedBitStreamParser.cpp **** #define ICONV_CONST /**/
  39:../src/zxing_lib/zxing/qrcode/decoder/DecodedBitStreamParser.cpp **** #endif
  40:../src/zxing_lib/zxing/qrcode/decoder/DecodedBitStreamParser.cpp **** 
  41:../src/zxing_lib/zxing/qrcode/decoder/DecodedBitStreamParser.cpp **** using namespace std;
  42:../src/zxing_lib/zxing/qrcode/decoder/DecodedBitStreamParser.cpp **** using namespace zxing;
  43:../src/zxing_lib/zxing/qrcode/decoder/DecodedBitStreamParser.cpp **** using namespace zxing::qrcode;
  44:../src/zxing_lib/zxing/qrcode/decoder/DecodedBitStreamParser.cpp **** using namespace zxing::common;
  45:../src/zxing_lib/zxing/qrcode/decoder/DecodedBitStreamParser.cpp **** 
  46:../src/zxing_lib/zxing/qrcode/decoder/DecodedBitStreamParser.cpp **** const char DecodedBitStreamParser::ALPHANUMERIC_CHARS[] =
  47:../src/zxing_lib/zxing/qrcode/decoder/DecodedBitStreamParser.cpp ****   { '0', '1', '2', '3', '4', '5', '6', '7', '8', '9', 'A', 'B',
  48:../src/zxing_lib/zxing/qrcode/decoder/DecodedBitStreamParser.cpp ****     'C', 'D', 'E', 'F', 'G', 'H', 'I', 'J', 'K', 'L', 'M', 'N',
  49:../src/zxing_lib/zxing/qrcode/decoder/DecodedBitStreamParser.cpp ****     'O', 'P', 'Q', 'R', 'S', 'T', 'U', 'V', 'W', 'X',
  50:../src/zxing_lib/zxing/qrcode/decoder/DecodedBitStreamParser.cpp ****     'Y', 'Z', ' ', '$', '%', '*', '+', '-', '.', '/', ':'
  51:../src/zxing_lib/zxing/qrcode/decoder/DecodedBitStreamParser.cpp ****   };
  52:../src/zxing_lib/zxing/qrcode/decoder/DecodedBitStreamParser.cpp **** 
  53:../src/zxing_lib/zxing/qrcode/decoder/DecodedBitStreamParser.cpp **** namespace {int GB2312_SUBSET = 1;}
  54:../src/zxing_lib/zxing/qrcode/decoder/DecodedBitStreamParser.cpp **** 
  55:../src/zxing_lib/zxing/qrcode/decoder/DecodedBitStreamParser.cpp **** void DecodedBitStreamParser::append(std::string &result,
  56:../src/zxing_lib/zxing/qrcode/decoder/DecodedBitStreamParser.cpp ****                                     string const& in,
  57:../src/zxing_lib/zxing/qrcode/decoder/DecodedBitStreamParser.cpp ****                                     const char *src) {
  58:../src/zxing_lib/zxing/qrcode/decoder/DecodedBitStreamParser.cpp ****   append(result, (char const*)in.c_str(), in.length(), src);
  59:../src/zxing_lib/zxing/qrcode/decoder/DecodedBitStreamParser.cpp **** }
  60:../src/zxing_lib/zxing/qrcode/decoder/DecodedBitStreamParser.cpp **** 
  61:../src/zxing_lib/zxing/qrcode/decoder/DecodedBitStreamParser.cpp **** void DecodedBitStreamParser::append(std::string &result,
  62:../src/zxing_lib/zxing/qrcode/decoder/DecodedBitStreamParser.cpp ****                                     const char *bufIn,
  63:../src/zxing_lib/zxing/qrcode/decoder/DecodedBitStreamParser.cpp ****                                     size_t nIn,
  64:../src/zxing_lib/zxing/qrcode/decoder/DecodedBitStreamParser.cpp ****                                     const char *src) {
  65:../src/zxing_lib/zxing/qrcode/decoder/DecodedBitStreamParser.cpp **** #ifndef NO_ICONV
  66:../src/zxing_lib/zxing/qrcode/decoder/DecodedBitStreamParser.cpp ****   if (nIn == 0) {
  67:../src/zxing_lib/zxing/qrcode/decoder/DecodedBitStreamParser.cpp ****     return;
  68:../src/zxing_lib/zxing/qrcode/decoder/DecodedBitStreamParser.cpp ****   }
  69:../src/zxing_lib/zxing/qrcode/decoder/DecodedBitStreamParser.cpp **** 
  70:../src/zxing_lib/zxing/qrcode/decoder/DecodedBitStreamParser.cpp ****   iconv_t cd = iconv_open(StringUtils::UTF8, src);
  71:../src/zxing_lib/zxing/qrcode/decoder/DecodedBitStreamParser.cpp ****   if (cd == (iconv_t)-1) {
  72:../src/zxing_lib/zxing/qrcode/decoder/DecodedBitStreamParser.cpp ****     result.append((const char *)bufIn, nIn);
  73:../src/zxing_lib/zxing/qrcode/decoder/DecodedBitStreamParser.cpp ****     return;
  74:../src/zxing_lib/zxing/qrcode/decoder/DecodedBitStreamParser.cpp ****   }
  75:../src/zxing_lib/zxing/qrcode/decoder/DecodedBitStreamParser.cpp **** 
  76:../src/zxing_lib/zxing/qrcode/decoder/DecodedBitStreamParser.cpp ****   const int maxOut = 4 * nIn + 1;
  77:../src/zxing_lib/zxing/qrcode/decoder/DecodedBitStreamParser.cpp ****   char* bufOut = new char[maxOut];
  78:../src/zxing_lib/zxing/qrcode/decoder/DecodedBitStreamParser.cpp **** 
  79:../src/zxing_lib/zxing/qrcode/decoder/DecodedBitStreamParser.cpp ****   ICONV_CONST char *fromPtr = (ICONV_CONST char *)bufIn;
  80:../src/zxing_lib/zxing/qrcode/decoder/DecodedBitStreamParser.cpp ****   size_t nFrom = nIn;
  81:../src/zxing_lib/zxing/qrcode/decoder/DecodedBitStreamParser.cpp ****   char *toPtr = (char *)bufOut;
  82:../src/zxing_lib/zxing/qrcode/decoder/DecodedBitStreamParser.cpp ****   size_t nTo = maxOut;
  83:../src/zxing_lib/zxing/qrcode/decoder/DecodedBitStreamParser.cpp **** 
  84:../src/zxing_lib/zxing/qrcode/decoder/DecodedBitStreamParser.cpp ****   while (nFrom > 0) {
  85:../src/zxing_lib/zxing/qrcode/decoder/DecodedBitStreamParser.cpp ****     size_t oneway = iconv(cd, &fromPtr, &nFrom, &toPtr, &nTo);
  86:../src/zxing_lib/zxing/qrcode/decoder/DecodedBitStreamParser.cpp ****     if (oneway == (size_t)(-1)) {
  87:../src/zxing_lib/zxing/qrcode/decoder/DecodedBitStreamParser.cpp ****       iconv_close(cd);
  88:../src/zxing_lib/zxing/qrcode/decoder/DecodedBitStreamParser.cpp ****       delete[] bufOut;
  89:../src/zxing_lib/zxing/qrcode/decoder/DecodedBitStreamParser.cpp ****       throw ReaderException("error converting characters");
  90:../src/zxing_lib/zxing/qrcode/decoder/DecodedBitStreamParser.cpp ****     }
  91:../src/zxing_lib/zxing/qrcode/decoder/DecodedBitStreamParser.cpp ****   }
  92:../src/zxing_lib/zxing/qrcode/decoder/DecodedBitStreamParser.cpp ****   iconv_close(cd);
  93:../src/zxing_lib/zxing/qrcode/decoder/DecodedBitStreamParser.cpp **** 
  94:../src/zxing_lib/zxing/qrcode/decoder/DecodedBitStreamParser.cpp ****   int nResult = maxOut - nTo;
  95:../src/zxing_lib/zxing/qrcode/decoder/DecodedBitStreamParser.cpp ****   bufOut[nResult] = '\0';
  96:../src/zxing_lib/zxing/qrcode/decoder/DecodedBitStreamParser.cpp ****   result.append((const char *)bufOut);
  97:../src/zxing_lib/zxing/qrcode/decoder/DecodedBitStreamParser.cpp ****   delete[] bufOut;
  98:../src/zxing_lib/zxing/qrcode/decoder/DecodedBitStreamParser.cpp **** #else
  99:../src/zxing_lib/zxing/qrcode/decoder/DecodedBitStreamParser.cpp ****   result.append((const char *)bufIn, nIn);
 100:../src/zxing_lib/zxing/qrcode/decoder/DecodedBitStreamParser.cpp **** #endif
 101:../src/zxing_lib/zxing/qrcode/decoder/DecodedBitStreamParser.cpp **** }
 102:../src/zxing_lib/zxing/qrcode/decoder/DecodedBitStreamParser.cpp **** 
 103:../src/zxing_lib/zxing/qrcode/decoder/DecodedBitStreamParser.cpp **** void DecodedBitStreamParser::decodeHanziSegment(Ref<BitSource> bits_,
 104:../src/zxing_lib/zxing/qrcode/decoder/DecodedBitStreamParser.cpp ****                                                 string& result,
 105:../src/zxing_lib/zxing/qrcode/decoder/DecodedBitStreamParser.cpp ****                                                 int count) {
 106:../src/zxing_lib/zxing/qrcode/decoder/DecodedBitStreamParser.cpp ****   BitSource& bits (*bits_);
 107:../src/zxing_lib/zxing/qrcode/decoder/DecodedBitStreamParser.cpp ****   // Don't crash trying to read more bits than we have available.
 108:../src/zxing_lib/zxing/qrcode/decoder/DecodedBitStreamParser.cpp ****   if (count * 13 > bits.available()) {
 109:../src/zxing_lib/zxing/qrcode/decoder/DecodedBitStreamParser.cpp ****     throw FormatException();
 110:../src/zxing_lib/zxing/qrcode/decoder/DecodedBitStreamParser.cpp ****   }
 111:../src/zxing_lib/zxing/qrcode/decoder/DecodedBitStreamParser.cpp **** 
 112:../src/zxing_lib/zxing/qrcode/decoder/DecodedBitStreamParser.cpp ****   // Each character will require 2 bytes. Read the characters as 2-byte pairs
 113:../src/zxing_lib/zxing/qrcode/decoder/DecodedBitStreamParser.cpp ****   // and decode as GB2312 afterwards
 114:../src/zxing_lib/zxing/qrcode/decoder/DecodedBitStreamParser.cpp ****   size_t nBytes = 2 * count;
 115:../src/zxing_lib/zxing/qrcode/decoder/DecodedBitStreamParser.cpp ****   char* buffer = new char[nBytes];
 116:../src/zxing_lib/zxing/qrcode/decoder/DecodedBitStreamParser.cpp ****   int offset = 0;
 117:../src/zxing_lib/zxing/qrcode/decoder/DecodedBitStreamParser.cpp ****   while (count > 0) {
 118:../src/zxing_lib/zxing/qrcode/decoder/DecodedBitStreamParser.cpp ****     // Each 13 bits encodes a 2-byte character
 119:../src/zxing_lib/zxing/qrcode/decoder/DecodedBitStreamParser.cpp ****     int twoBytes = bits.readBits(13);
 120:../src/zxing_lib/zxing/qrcode/decoder/DecodedBitStreamParser.cpp ****     int assembledTwoBytes = ((twoBytes / 0x060) << 8) | (twoBytes % 0x060);
 121:../src/zxing_lib/zxing/qrcode/decoder/DecodedBitStreamParser.cpp ****     if (assembledTwoBytes < 0x003BF) {
 122:../src/zxing_lib/zxing/qrcode/decoder/DecodedBitStreamParser.cpp ****       // In the 0xA1A1 to 0xAAFE range
 123:../src/zxing_lib/zxing/qrcode/decoder/DecodedBitStreamParser.cpp ****       assembledTwoBytes += 0x0A1A1;
 124:../src/zxing_lib/zxing/qrcode/decoder/DecodedBitStreamParser.cpp ****     } else {
 125:../src/zxing_lib/zxing/qrcode/decoder/DecodedBitStreamParser.cpp ****       // In the 0xB0A1 to 0xFAFE range
 126:../src/zxing_lib/zxing/qrcode/decoder/DecodedBitStreamParser.cpp ****       assembledTwoBytes += 0x0A6A1;
 127:../src/zxing_lib/zxing/qrcode/decoder/DecodedBitStreamParser.cpp ****     }
 128:../src/zxing_lib/zxing/qrcode/decoder/DecodedBitStreamParser.cpp ****     buffer[offset] = (char) ((assembledTwoBytes >> 8) & 0xFF);
 129:../src/zxing_lib/zxing/qrcode/decoder/DecodedBitStreamParser.cpp ****     buffer[offset + 1] = (char) (assembledTwoBytes & 0xFF);
 130:../src/zxing_lib/zxing/qrcode/decoder/DecodedBitStreamParser.cpp ****     offset += 2;
 131:../src/zxing_lib/zxing/qrcode/decoder/DecodedBitStreamParser.cpp ****     count--;
 132:../src/zxing_lib/zxing/qrcode/decoder/DecodedBitStreamParser.cpp ****   }
 133:../src/zxing_lib/zxing/qrcode/decoder/DecodedBitStreamParser.cpp **** 
 134:../src/zxing_lib/zxing/qrcode/decoder/DecodedBitStreamParser.cpp ****   try {
 135:../src/zxing_lib/zxing/qrcode/decoder/DecodedBitStreamParser.cpp ****     append(result, buffer, nBytes, StringUtils::GB2312);
 136:../src/zxing_lib/zxing/qrcode/decoder/DecodedBitStreamParser.cpp ****   } catch (ReaderException const& ignored) {
 137:../src/zxing_lib/zxing/qrcode/decoder/DecodedBitStreamParser.cpp ****     (void)ignored;
 138:../src/zxing_lib/zxing/qrcode/decoder/DecodedBitStreamParser.cpp ****     delete [] buffer;
 139:../src/zxing_lib/zxing/qrcode/decoder/DecodedBitStreamParser.cpp ****     throw FormatException();
 140:../src/zxing_lib/zxing/qrcode/decoder/DecodedBitStreamParser.cpp ****   }
 141:../src/zxing_lib/zxing/qrcode/decoder/DecodedBitStreamParser.cpp **** 
 142:../src/zxing_lib/zxing/qrcode/decoder/DecodedBitStreamParser.cpp ****   delete [] buffer;
 143:../src/zxing_lib/zxing/qrcode/decoder/DecodedBitStreamParser.cpp **** }
 144:../src/zxing_lib/zxing/qrcode/decoder/DecodedBitStreamParser.cpp **** 
 145:../src/zxing_lib/zxing/qrcode/decoder/DecodedBitStreamParser.cpp **** void DecodedBitStreamParser::decodeKanjiSegment(Ref<BitSource> bits, std::string &result, int count
 146:../src/zxing_lib/zxing/qrcode/decoder/DecodedBitStreamParser.cpp ****   // Each character will require 2 bytes. Read the characters as 2-byte pairs
 147:../src/zxing_lib/zxing/qrcode/decoder/DecodedBitStreamParser.cpp ****   // and decode as Shift_JIS afterwards
 148:../src/zxing_lib/zxing/qrcode/decoder/DecodedBitStreamParser.cpp ****   size_t nBytes = 2 * count;
 149:../src/zxing_lib/zxing/qrcode/decoder/DecodedBitStreamParser.cpp ****   char* buffer = new char[nBytes];
 150:../src/zxing_lib/zxing/qrcode/decoder/DecodedBitStreamParser.cpp ****   int offset = 0;
 151:../src/zxing_lib/zxing/qrcode/decoder/DecodedBitStreamParser.cpp ****   while (count > 0) {
 152:../src/zxing_lib/zxing/qrcode/decoder/DecodedBitStreamParser.cpp ****     // Each 13 bits encodes a 2-byte character
 153:../src/zxing_lib/zxing/qrcode/decoder/DecodedBitStreamParser.cpp **** 
 154:../src/zxing_lib/zxing/qrcode/decoder/DecodedBitStreamParser.cpp ****     int twoBytes = bits->readBits(13);
 155:../src/zxing_lib/zxing/qrcode/decoder/DecodedBitStreamParser.cpp ****     int assembledTwoBytes = ((twoBytes / 0x0C0) << 8) | (twoBytes % 0x0C0);
 156:../src/zxing_lib/zxing/qrcode/decoder/DecodedBitStreamParser.cpp ****     if (assembledTwoBytes < 0x01F00) {
 157:../src/zxing_lib/zxing/qrcode/decoder/DecodedBitStreamParser.cpp ****       // In the 0x8140 to 0x9FFC range
 158:../src/zxing_lib/zxing/qrcode/decoder/DecodedBitStreamParser.cpp ****       assembledTwoBytes += 0x08140;
 159:../src/zxing_lib/zxing/qrcode/decoder/DecodedBitStreamParser.cpp ****     } else {
 160:../src/zxing_lib/zxing/qrcode/decoder/DecodedBitStreamParser.cpp ****       // In the 0xE040 to 0xEBBF range
 161:../src/zxing_lib/zxing/qrcode/decoder/DecodedBitStreamParser.cpp ****       assembledTwoBytes += 0x0C140;
 162:../src/zxing_lib/zxing/qrcode/decoder/DecodedBitStreamParser.cpp ****     }
 163:../src/zxing_lib/zxing/qrcode/decoder/DecodedBitStreamParser.cpp ****     buffer[offset] = (char)(assembledTwoBytes >> 8);
 164:../src/zxing_lib/zxing/qrcode/decoder/DecodedBitStreamParser.cpp ****     buffer[offset + 1] = (char)assembledTwoBytes;
 165:../src/zxing_lib/zxing/qrcode/decoder/DecodedBitStreamParser.cpp ****     offset += 2;
 166:../src/zxing_lib/zxing/qrcode/decoder/DecodedBitStreamParser.cpp ****     count--;
 167:../src/zxing_lib/zxing/qrcode/decoder/DecodedBitStreamParser.cpp ****   }
 168:../src/zxing_lib/zxing/qrcode/decoder/DecodedBitStreamParser.cpp ****   try {
 169:../src/zxing_lib/zxing/qrcode/decoder/DecodedBitStreamParser.cpp ****     append(result, buffer, nBytes, StringUtils::SHIFT_JIS);
 170:../src/zxing_lib/zxing/qrcode/decoder/DecodedBitStreamParser.cpp ****   } catch (ReaderException const& ignored) {
 171:../src/zxing_lib/zxing/qrcode/decoder/DecodedBitStreamParser.cpp ****     (void)ignored;
 172:../src/zxing_lib/zxing/qrcode/decoder/DecodedBitStreamParser.cpp ****     delete [] buffer;
 173:../src/zxing_lib/zxing/qrcode/decoder/DecodedBitStreamParser.cpp ****     throw FormatException();
 174:../src/zxing_lib/zxing/qrcode/decoder/DecodedBitStreamParser.cpp ****   }
 175:../src/zxing_lib/zxing/qrcode/decoder/DecodedBitStreamParser.cpp ****   delete[] buffer;
 176:../src/zxing_lib/zxing/qrcode/decoder/DecodedBitStreamParser.cpp **** }
 177:../src/zxing_lib/zxing/qrcode/decoder/DecodedBitStreamParser.cpp **** 
 178:../src/zxing_lib/zxing/qrcode/decoder/DecodedBitStreamParser.cpp **** void DecodedBitStreamParser::decodeByteSegment(Ref<BitSource> bits_,
 179:../src/zxing_lib/zxing/qrcode/decoder/DecodedBitStreamParser.cpp ****                                                string& result,
 180:../src/zxing_lib/zxing/qrcode/decoder/DecodedBitStreamParser.cpp ****                                                int count,
 181:../src/zxing_lib/zxing/qrcode/decoder/DecodedBitStreamParser.cpp ****                                                CharacterSetECI* currentCharacterSetECI,
 182:../src/zxing_lib/zxing/qrcode/decoder/DecodedBitStreamParser.cpp ****                                                ArrayRef< ArrayRef<char> >& byteSegments,
 183:../src/zxing_lib/zxing/qrcode/decoder/DecodedBitStreamParser.cpp ****                                                Hashtable const& hints) {
 184:../src/zxing_lib/zxing/qrcode/decoder/DecodedBitStreamParser.cpp ****   int nBytes = count;
 185:../src/zxing_lib/zxing/qrcode/decoder/DecodedBitStreamParser.cpp ****   BitSource& bits (*bits_);
 186:../src/zxing_lib/zxing/qrcode/decoder/DecodedBitStreamParser.cpp ****   // Don't crash trying to read more bits than we have available.
 187:../src/zxing_lib/zxing/qrcode/decoder/DecodedBitStreamParser.cpp ****   if (count << 3 > bits.available()) {
 188:../src/zxing_lib/zxing/qrcode/decoder/DecodedBitStreamParser.cpp ****     throw FormatException();
 189:../src/zxing_lib/zxing/qrcode/decoder/DecodedBitStreamParser.cpp ****   }
 190:../src/zxing_lib/zxing/qrcode/decoder/DecodedBitStreamParser.cpp **** 
 191:../src/zxing_lib/zxing/qrcode/decoder/DecodedBitStreamParser.cpp ****   ArrayRef<char> bytes_ (count);
 192:../src/zxing_lib/zxing/qrcode/decoder/DecodedBitStreamParser.cpp ****   char* readBytes = &(*bytes_)[0];
 193:../src/zxing_lib/zxing/qrcode/decoder/DecodedBitStreamParser.cpp ****   for (int i = 0; i < count; i++) {
 194:../src/zxing_lib/zxing/qrcode/decoder/DecodedBitStreamParser.cpp ****     readBytes[i] = (char) bits.readBits(8);
 195:../src/zxing_lib/zxing/qrcode/decoder/DecodedBitStreamParser.cpp ****   }
 196:../src/zxing_lib/zxing/qrcode/decoder/DecodedBitStreamParser.cpp ****   string encoding;
 197:../src/zxing_lib/zxing/qrcode/decoder/DecodedBitStreamParser.cpp ****   if (currentCharacterSetECI == 0) {
 198:../src/zxing_lib/zxing/qrcode/decoder/DecodedBitStreamParser.cpp ****     // The spec isn't clear on this mode; see
 199:../src/zxing_lib/zxing/qrcode/decoder/DecodedBitStreamParser.cpp ****     // section 6.4.5: t does not say which encoding to assuming
 200:../src/zxing_lib/zxing/qrcode/decoder/DecodedBitStreamParser.cpp ****     // upon decoding. I have seen ISO-8859-1 used as well as
 201:../src/zxing_lib/zxing/qrcode/decoder/DecodedBitStreamParser.cpp ****     // Shift_JIS -- without anything like an ECI designator to
 202:../src/zxing_lib/zxing/qrcode/decoder/DecodedBitStreamParser.cpp ****     // give a hint.
 203:../src/zxing_lib/zxing/qrcode/decoder/DecodedBitStreamParser.cpp ****     encoding = StringUtils::guessEncoding(readBytes, count, hints);
 204:../src/zxing_lib/zxing/qrcode/decoder/DecodedBitStreamParser.cpp ****   } else {
 205:../src/zxing_lib/zxing/qrcode/decoder/DecodedBitStreamParser.cpp ****     encoding = currentCharacterSetECI->name();
 206:../src/zxing_lib/zxing/qrcode/decoder/DecodedBitStreamParser.cpp ****   }
 207:../src/zxing_lib/zxing/qrcode/decoder/DecodedBitStreamParser.cpp ****   try {
 208:../src/zxing_lib/zxing/qrcode/decoder/DecodedBitStreamParser.cpp ****     append(result, readBytes, nBytes, encoding.c_str());
 209:../src/zxing_lib/zxing/qrcode/decoder/DecodedBitStreamParser.cpp ****   } catch (ReaderException const& ignored) {
 210:../src/zxing_lib/zxing/qrcode/decoder/DecodedBitStreamParser.cpp ****     (void)ignored;
 211:../src/zxing_lib/zxing/qrcode/decoder/DecodedBitStreamParser.cpp ****     throw FormatException();
 212:../src/zxing_lib/zxing/qrcode/decoder/DecodedBitStreamParser.cpp ****   }
 213:../src/zxing_lib/zxing/qrcode/decoder/DecodedBitStreamParser.cpp ****   byteSegments->values().push_back(bytes_);
 214:../src/zxing_lib/zxing/qrcode/decoder/DecodedBitStreamParser.cpp **** }
 215:../src/zxing_lib/zxing/qrcode/decoder/DecodedBitStreamParser.cpp **** 
 216:../src/zxing_lib/zxing/qrcode/decoder/DecodedBitStreamParser.cpp **** void DecodedBitStreamParser::decodeNumericSegment(Ref<BitSource> bits, std::string &result, int cou
 217:../src/zxing_lib/zxing/qrcode/decoder/DecodedBitStreamParser.cpp ****   int nBytes = count;
 218:../src/zxing_lib/zxing/qrcode/decoder/DecodedBitStreamParser.cpp ****   char* bytes = new char[nBytes];
 219:../src/zxing_lib/zxing/qrcode/decoder/DecodedBitStreamParser.cpp ****   int i = 0;
 220:../src/zxing_lib/zxing/qrcode/decoder/DecodedBitStreamParser.cpp ****   // Read three digits at a time
 221:../src/zxing_lib/zxing/qrcode/decoder/DecodedBitStreamParser.cpp ****   while (count >= 3) {
 222:../src/zxing_lib/zxing/qrcode/decoder/DecodedBitStreamParser.cpp ****     // Each 10 bits encodes three digits
 223:../src/zxing_lib/zxing/qrcode/decoder/DecodedBitStreamParser.cpp ****     if (bits->available() < 10) {
 224:../src/zxing_lib/zxing/qrcode/decoder/DecodedBitStreamParser.cpp ****       delete[] bytes;
 225:../src/zxing_lib/zxing/qrcode/decoder/DecodedBitStreamParser.cpp ****       throw ReaderException("format exception");
 226:../src/zxing_lib/zxing/qrcode/decoder/DecodedBitStreamParser.cpp ****     }
 227:../src/zxing_lib/zxing/qrcode/decoder/DecodedBitStreamParser.cpp ****     int threeDigitsBits = bits->readBits(10);
 228:../src/zxing_lib/zxing/qrcode/decoder/DecodedBitStreamParser.cpp ****     if (threeDigitsBits >= 1000) {
 229:../src/zxing_lib/zxing/qrcode/decoder/DecodedBitStreamParser.cpp ****       ostringstream s;
 230:../src/zxing_lib/zxing/qrcode/decoder/DecodedBitStreamParser.cpp ****       s << "Illegal value for 3-digit unit: " << threeDigitsBits;
 231:../src/zxing_lib/zxing/qrcode/decoder/DecodedBitStreamParser.cpp ****       delete[] bytes;
 232:../src/zxing_lib/zxing/qrcode/decoder/DecodedBitStreamParser.cpp ****       throw ReaderException(s.str().c_str());
 233:../src/zxing_lib/zxing/qrcode/decoder/DecodedBitStreamParser.cpp ****     }
 234:../src/zxing_lib/zxing/qrcode/decoder/DecodedBitStreamParser.cpp ****     bytes[i++] = ALPHANUMERIC_CHARS[threeDigitsBits / 100];
 235:../src/zxing_lib/zxing/qrcode/decoder/DecodedBitStreamParser.cpp ****     bytes[i++] = ALPHANUMERIC_CHARS[(threeDigitsBits / 10) % 10];
 236:../src/zxing_lib/zxing/qrcode/decoder/DecodedBitStreamParser.cpp ****     bytes[i++] = ALPHANUMERIC_CHARS[threeDigitsBits % 10];
 237:../src/zxing_lib/zxing/qrcode/decoder/DecodedBitStreamParser.cpp ****     count -= 3;
 238:../src/zxing_lib/zxing/qrcode/decoder/DecodedBitStreamParser.cpp ****   }
 239:../src/zxing_lib/zxing/qrcode/decoder/DecodedBitStreamParser.cpp ****   if (count == 2) {
 240:../src/zxing_lib/zxing/qrcode/decoder/DecodedBitStreamParser.cpp ****     if (bits->available() < 7) {
 241:../src/zxing_lib/zxing/qrcode/decoder/DecodedBitStreamParser.cpp ****       delete[] bytes;
 242:../src/zxing_lib/zxing/qrcode/decoder/DecodedBitStreamParser.cpp ****       throw ReaderException("format exception");
 243:../src/zxing_lib/zxing/qrcode/decoder/DecodedBitStreamParser.cpp ****     }
 244:../src/zxing_lib/zxing/qrcode/decoder/DecodedBitStreamParser.cpp ****     // Two digits left over to read, encoded in 7 bits
 245:../src/zxing_lib/zxing/qrcode/decoder/DecodedBitStreamParser.cpp ****     int twoDigitsBits = bits->readBits(7);
 246:../src/zxing_lib/zxing/qrcode/decoder/DecodedBitStreamParser.cpp ****     if (twoDigitsBits >= 100) {
 247:../src/zxing_lib/zxing/qrcode/decoder/DecodedBitStreamParser.cpp ****       ostringstream s;
 248:../src/zxing_lib/zxing/qrcode/decoder/DecodedBitStreamParser.cpp ****       s << "Illegal value for 2-digit unit: " << twoDigitsBits;
 249:../src/zxing_lib/zxing/qrcode/decoder/DecodedBitStreamParser.cpp ****       delete[] bytes;
 250:../src/zxing_lib/zxing/qrcode/decoder/DecodedBitStreamParser.cpp ****       throw ReaderException(s.str().c_str());
 251:../src/zxing_lib/zxing/qrcode/decoder/DecodedBitStreamParser.cpp ****     }
 252:../src/zxing_lib/zxing/qrcode/decoder/DecodedBitStreamParser.cpp ****     bytes[i++] = ALPHANUMERIC_CHARS[twoDigitsBits / 10];
 253:../src/zxing_lib/zxing/qrcode/decoder/DecodedBitStreamParser.cpp ****     bytes[i++] = ALPHANUMERIC_CHARS[twoDigitsBits % 10];
 254:../src/zxing_lib/zxing/qrcode/decoder/DecodedBitStreamParser.cpp ****   } else if (count == 1) {
 255:../src/zxing_lib/zxing/qrcode/decoder/DecodedBitStreamParser.cpp ****     if (bits->available() < 4) {
 256:../src/zxing_lib/zxing/qrcode/decoder/DecodedBitStreamParser.cpp ****       delete[] bytes;
 257:../src/zxing_lib/zxing/qrcode/decoder/DecodedBitStreamParser.cpp ****       throw ReaderException("format exception");
 258:../src/zxing_lib/zxing/qrcode/decoder/DecodedBitStreamParser.cpp ****     }
 259:../src/zxing_lib/zxing/qrcode/decoder/DecodedBitStreamParser.cpp ****     // One digit left over to read
 260:../src/zxing_lib/zxing/qrcode/decoder/DecodedBitStreamParser.cpp ****     int digitBits = bits->readBits(4);
 261:../src/zxing_lib/zxing/qrcode/decoder/DecodedBitStreamParser.cpp ****     if (digitBits >= 10) {
 262:../src/zxing_lib/zxing/qrcode/decoder/DecodedBitStreamParser.cpp ****       ostringstream s;
 263:../src/zxing_lib/zxing/qrcode/decoder/DecodedBitStreamParser.cpp ****       s << "Illegal value for digit unit: " << digitBits;
 264:../src/zxing_lib/zxing/qrcode/decoder/DecodedBitStreamParser.cpp ****       delete[] bytes;
 265:../src/zxing_lib/zxing/qrcode/decoder/DecodedBitStreamParser.cpp ****       throw ReaderException(s.str().c_str());
 266:../src/zxing_lib/zxing/qrcode/decoder/DecodedBitStreamParser.cpp ****     }
 267:../src/zxing_lib/zxing/qrcode/decoder/DecodedBitStreamParser.cpp ****     bytes[i++] = ALPHANUMERIC_CHARS[digitBits];
 268:../src/zxing_lib/zxing/qrcode/decoder/DecodedBitStreamParser.cpp ****   }
 269:../src/zxing_lib/zxing/qrcode/decoder/DecodedBitStreamParser.cpp ****   append(result, bytes, nBytes, StringUtils::ASCII);
 270:../src/zxing_lib/zxing/qrcode/decoder/DecodedBitStreamParser.cpp ****   delete[] bytes;
 271:../src/zxing_lib/zxing/qrcode/decoder/DecodedBitStreamParser.cpp **** }
 272:../src/zxing_lib/zxing/qrcode/decoder/DecodedBitStreamParser.cpp **** 
 273:../src/zxing_lib/zxing/qrcode/decoder/DecodedBitStreamParser.cpp **** char DecodedBitStreamParser::toAlphaNumericChar(size_t value) {
 274:../src/zxing_lib/zxing/qrcode/decoder/DecodedBitStreamParser.cpp ****   if (value >= sizeof(DecodedBitStreamParser::ALPHANUMERIC_CHARS)) {
 275:../src/zxing_lib/zxing/qrcode/decoder/DecodedBitStreamParser.cpp ****     throw FormatException();
 276:../src/zxing_lib/zxing/qrcode/decoder/DecodedBitStreamParser.cpp ****   }
 277:../src/zxing_lib/zxing/qrcode/decoder/DecodedBitStreamParser.cpp ****   return ALPHANUMERIC_CHARS[value];
 278:../src/zxing_lib/zxing/qrcode/decoder/DecodedBitStreamParser.cpp **** }
 279:../src/zxing_lib/zxing/qrcode/decoder/DecodedBitStreamParser.cpp **** 
 280:../src/zxing_lib/zxing/qrcode/decoder/DecodedBitStreamParser.cpp **** void DecodedBitStreamParser::decodeAlphanumericSegment(Ref<BitSource> bits_,
 281:../src/zxing_lib/zxing/qrcode/decoder/DecodedBitStreamParser.cpp ****                                                        string& result,
 282:../src/zxing_lib/zxing/qrcode/decoder/DecodedBitStreamParser.cpp ****                                                        int count,
 283:../src/zxing_lib/zxing/qrcode/decoder/DecodedBitStreamParser.cpp ****                                                        bool fc1InEffect) {
 284:../src/zxing_lib/zxing/qrcode/decoder/DecodedBitStreamParser.cpp ****   BitSource& bits (*bits_);
 285:../src/zxing_lib/zxing/qrcode/decoder/DecodedBitStreamParser.cpp ****   ostringstream bytes;
 286:../src/zxing_lib/zxing/qrcode/decoder/DecodedBitStreamParser.cpp ****   // Read two characters at a time
 287:../src/zxing_lib/zxing/qrcode/decoder/DecodedBitStreamParser.cpp ****   while (count > 1) {
 288:../src/zxing_lib/zxing/qrcode/decoder/DecodedBitStreamParser.cpp ****     if (bits.available() < 11) {
 289:../src/zxing_lib/zxing/qrcode/decoder/DecodedBitStreamParser.cpp ****       throw FormatException();
 290:../src/zxing_lib/zxing/qrcode/decoder/DecodedBitStreamParser.cpp ****     }
 291:../src/zxing_lib/zxing/qrcode/decoder/DecodedBitStreamParser.cpp ****     int nextTwoCharsBits = bits.readBits(11);
 292:../src/zxing_lib/zxing/qrcode/decoder/DecodedBitStreamParser.cpp ****     bytes << toAlphaNumericChar(nextTwoCharsBits / 45);
 293:../src/zxing_lib/zxing/qrcode/decoder/DecodedBitStreamParser.cpp ****     bytes << toAlphaNumericChar(nextTwoCharsBits % 45);
 294:../src/zxing_lib/zxing/qrcode/decoder/DecodedBitStreamParser.cpp ****     count -= 2;
 295:../src/zxing_lib/zxing/qrcode/decoder/DecodedBitStreamParser.cpp ****   }
 296:../src/zxing_lib/zxing/qrcode/decoder/DecodedBitStreamParser.cpp ****   if (count == 1) {
 297:../src/zxing_lib/zxing/qrcode/decoder/DecodedBitStreamParser.cpp ****     // special case: one character left
 298:../src/zxing_lib/zxing/qrcode/decoder/DecodedBitStreamParser.cpp ****     if (bits.available() < 6) {
 299:../src/zxing_lib/zxing/qrcode/decoder/DecodedBitStreamParser.cpp ****       throw FormatException();
 300:../src/zxing_lib/zxing/qrcode/decoder/DecodedBitStreamParser.cpp ****     }
 301:../src/zxing_lib/zxing/qrcode/decoder/DecodedBitStreamParser.cpp ****     bytes << toAlphaNumericChar(bits.readBits(6));
 302:../src/zxing_lib/zxing/qrcode/decoder/DecodedBitStreamParser.cpp ****   }
 303:../src/zxing_lib/zxing/qrcode/decoder/DecodedBitStreamParser.cpp ****   // See section 6.4.8.1, 6.4.8.2
 304:../src/zxing_lib/zxing/qrcode/decoder/DecodedBitStreamParser.cpp ****   string s = bytes.str();
 305:../src/zxing_lib/zxing/qrcode/decoder/DecodedBitStreamParser.cpp ****   if (fc1InEffect) {
 306:../src/zxing_lib/zxing/qrcode/decoder/DecodedBitStreamParser.cpp ****     // We need to massage the result a bit if in an FNC1 mode:
 307:../src/zxing_lib/zxing/qrcode/decoder/DecodedBitStreamParser.cpp ****     ostringstream r;
 308:../src/zxing_lib/zxing/qrcode/decoder/DecodedBitStreamParser.cpp ****     for (size_t i = 0; i < s.length(); i++) {
 309:../src/zxing_lib/zxing/qrcode/decoder/DecodedBitStreamParser.cpp ****       if (s[i] != '%') {
 310:../src/zxing_lib/zxing/qrcode/decoder/DecodedBitStreamParser.cpp ****         r << s[i];
 311:../src/zxing_lib/zxing/qrcode/decoder/DecodedBitStreamParser.cpp ****       } else {
 312:../src/zxing_lib/zxing/qrcode/decoder/DecodedBitStreamParser.cpp ****         if (i < s.length() - 1 && s[i + 1] == '%') {
 313:../src/zxing_lib/zxing/qrcode/decoder/DecodedBitStreamParser.cpp ****           // %% is rendered as %
 314:../src/zxing_lib/zxing/qrcode/decoder/DecodedBitStreamParser.cpp ****           r << s[i++];
 315:../src/zxing_lib/zxing/qrcode/decoder/DecodedBitStreamParser.cpp ****         } else {
 316:../src/zxing_lib/zxing/qrcode/decoder/DecodedBitStreamParser.cpp ****           // In alpha mode, % should be converted to FNC1 separator 0x1D
 317:../src/zxing_lib/zxing/qrcode/decoder/DecodedBitStreamParser.cpp ****           r << (char)0x1D;
 318:../src/zxing_lib/zxing/qrcode/decoder/DecodedBitStreamParser.cpp ****         }
 319:../src/zxing_lib/zxing/qrcode/decoder/DecodedBitStreamParser.cpp ****       }
 320:../src/zxing_lib/zxing/qrcode/decoder/DecodedBitStreamParser.cpp ****     }
 321:../src/zxing_lib/zxing/qrcode/decoder/DecodedBitStreamParser.cpp ****     s = r.str();
 322:../src/zxing_lib/zxing/qrcode/decoder/DecodedBitStreamParser.cpp ****   }
 323:../src/zxing_lib/zxing/qrcode/decoder/DecodedBitStreamParser.cpp ****   append(result, s, StringUtils::ASCII);
 324:../src/zxing_lib/zxing/qrcode/decoder/DecodedBitStreamParser.cpp **** }
 325:../src/zxing_lib/zxing/qrcode/decoder/DecodedBitStreamParser.cpp **** 
 326:../src/zxing_lib/zxing/qrcode/decoder/DecodedBitStreamParser.cpp **** namespace {
 327:../src/zxing_lib/zxing/qrcode/decoder/DecodedBitStreamParser.cpp ****   int parseECIValue(BitSource& bits) {
 300              		.loc 5 327 0
 301              		.cfi_startproc
 302              		.cfi_personality 0,__gxx_personality_v0
 303              		.cfi_lsda 0,.LLSDA2901
 304              		@ args = 0, pretend = 0, frame = 0
 305              		@ frame_needed = 0, uses_anonymous_args = 0
 306              	.LVL21:
 307 0000 70402DE9 		push	{r4, r5, r6, lr}
 308              		.save {r4, r5, r6, lr}
 309              		.cfi_def_cfa_offset 16
 310              		.cfi_offset 4, -16
 311              		.cfi_offset 5, -12
 312              		.cfi_offset 6, -8
 313              		.cfi_offset 14, -4
 314 0004 0050A0E1 		mov	r5, r0
 328:../src/zxing_lib/zxing/qrcode/decoder/DecodedBitStreamParser.cpp ****     int firstByte = bits.readBits(8);
 315              		.loc 5 328 0
 316 0008 0810A0E3 		mov	r1, #8
 317              	.LEHB0:
 318 000c FEFFFFEB 		bl	_ZN5zxing9BitSource8readBitsEi
 319              	.LVL22:
 320 0010 0040A0E1 		mov	r4, r0
 321              	.LVL23:
 329:../src/zxing_lib/zxing/qrcode/decoder/DecodedBitStreamParser.cpp ****     if ((firstByte & 0x80) == 0) {
 322              		.loc 5 329 0
 323 0014 800010E3 		tst	r0, #128
 324 0018 0C00000A 		beq	.L29
 325              	.LBB1902:
 330:../src/zxing_lib/zxing/qrcode/decoder/DecodedBitStreamParser.cpp ****       // just one byte
 331:../src/zxing_lib/zxing/qrcode/decoder/DecodedBitStreamParser.cpp ****       return firstByte & 0x7F;
 332:../src/zxing_lib/zxing/qrcode/decoder/DecodedBitStreamParser.cpp ****     }
 333:../src/zxing_lib/zxing/qrcode/decoder/DecodedBitStreamParser.cpp ****     if ((firstByte & 0xC0) == 0x80) {
 326              		.loc 5 333 0
 327 001c C03000E2 		and	r3, r0, #192
 328 0020 800053E3 		cmp	r3, #128
 329 0024 0B00000A 		beq	.L30
 330              	.LBE1902:
 331              	.LBB1904:
 334:../src/zxing_lib/zxing/qrcode/decoder/DecodedBitStreamParser.cpp ****       // two bytes
 335:../src/zxing_lib/zxing/qrcode/decoder/DecodedBitStreamParser.cpp ****       int secondByte = bits.readBits(8);
 336:../src/zxing_lib/zxing/qrcode/decoder/DecodedBitStreamParser.cpp ****       return ((firstByte & 0x3F) << 8) | secondByte;
 337:../src/zxing_lib/zxing/qrcode/decoder/DecodedBitStreamParser.cpp ****     }
 338:../src/zxing_lib/zxing/qrcode/decoder/DecodedBitStreamParser.cpp ****     if ((firstByte & 0xE0) == 0xC0) {
 332              		.loc 5 338 0
 333 0028 E03000E2 		and	r3, r0, #224
 334 002c C00053E3 		cmp	r3, #192
 335 0030 0F00001A 		bne	.L25
 336              	.LBB1905:
 339:../src/zxing_lib/zxing/qrcode/decoder/DecodedBitStreamParser.cpp ****       // three bytes
 340:../src/zxing_lib/zxing/qrcode/decoder/DecodedBitStreamParser.cpp ****       int secondThirdBytes = bits.readBits(16);
 337              		.loc 5 340 0
 338 0034 1010A0E3 		mov	r1, #16
 339 0038 0500A0E1 		mov	r0, r5
 340              	.LVL24:
 341 003c FEFFFFEB 		bl	_ZN5zxing9BitSource8readBitsEi
 342              	.LVL25:
 341:../src/zxing_lib/zxing/qrcode/decoder/DecodedBitStreamParser.cpp ****       return ((firstByte & 0x1F) << 16) | secondThirdBytes;
 343              		.loc 5 341 0
 344 0040 0448A0E1 		lsl	r4, r4, #16
 345              	.LVL26:
 346 0044 1F4804E2 		and	r4, r4, #2031616
 347 0048 040080E1 		orr	r0, r0, r4
 348              	.LVL27:
 349 004c 7080BDE8 		pop	{r4, r5, r6, pc}
 350              	.LVL28:
 351              	.L29:
 352              	.LBE1905:
 353              	.LBE1904:
 331:../src/zxing_lib/zxing/qrcode/decoder/DecodedBitStreamParser.cpp ****     }
 354              		.loc 5 331 0
 355 0050 7F0000E2 		and	r0, r0, #127
 356              	.LVL29:
 357 0054 7080BDE8 		pop	{r4, r5, r6, pc}
 358              	.LVL30:
 359              	.L30:
 360              	.LBB1906:
 361              	.LBB1903:
 335:../src/zxing_lib/zxing/qrcode/decoder/DecodedBitStreamParser.cpp ****       return ((firstByte & 0x3F) << 8) | secondByte;
 362              		.loc 5 335 0
 363 0058 0810A0E3 		mov	r1, #8
 364 005c 0500A0E1 		mov	r0, r5
 365              	.LVL31:
 366 0060 FEFFFFEB 		bl	_ZN5zxing9BitSource8readBitsEi
 367              	.LVL32:
 368              	.LEHE0:
 336:../src/zxing_lib/zxing/qrcode/decoder/DecodedBitStreamParser.cpp ****     }
 369              		.loc 5 336 0
 370 0064 0444A0E1 		lsl	r4, r4, #8
 371              	.LVL33:
 372 0068 3F4C04E2 		and	r4, r4, #16128
 373 006c 040080E1 		orr	r0, r0, r4
 374              	.LVL34:
 375 0070 7080BDE8 		pop	{r4, r5, r6, pc}
 376              	.LVL35:
 377              	.L25:
 378              	.LBE1903:
 379              	.LBE1906:
 342:../src/zxing_lib/zxing/qrcode/decoder/DecodedBitStreamParser.cpp ****     }
 343:../src/zxing_lib/zxing/qrcode/decoder/DecodedBitStreamParser.cpp ****     throw FormatException();
 380              		.loc 5 343 0
 381 0074 0800A0E3 		mov	r0, #8
 382              	.LVL36:
 383 0078 FEFFFFEB 		bl	__cxa_allocate_exception
 384              	.LVL37:
 385 007c 0040A0E1 		mov	r4, r0
 386              	.LVL38:
 387              	.LEHB1:
 388 0080 FEFFFFEB 		bl	_ZN5zxing15FormatExceptionC1Ev
 389              	.LVL39:
 390              	.LEHE1:
 391              		.loc 5 343 0 is_stmt 0 discriminator 2
 392 0084 002000E3 		movw	r2, #:lower16:_ZN5zxing15FormatExceptionD1Ev
 393 0088 002040E3 		movt	r2, #:upper16:_ZN5zxing15FormatExceptionD1Ev
 394 008c 001000E3 		movw	r1, #:lower16:_ZTIN5zxing15FormatExceptionE
 395 0090 001040E3 		movt	r1, #:upper16:_ZTIN5zxing15FormatExceptionE
 396 0094 0400A0E1 		mov	r0, r4
 397              	.LEHB2:
 398 0098 FEFFFFEB 		bl	__cxa_throw
 399              	.LVL40:
 400              	.L27:
 401              		.loc 5 343 0
 402 009c 0400A0E1 		mov	r0, r4
 403 00a0 FEFFFFEB 		bl	__cxa_free_exception
 404              	.LVL41:
 405 00a4 FEFFFFEB 		bl	__cxa_end_cleanup
 406              	.LVL42:
 407              	.LEHE2:
 408              		.cfi_endproc
 409              	.LFE2901:
 410              		.global	__gxx_personality_v0
 411              		.personality	__gxx_personality_v0
 412              		.handlerdata
 413              	.LLSDA2901:
 414 0008 FF       		.byte	0xff
 415 0009 FF       		.byte	0xff
 416 000a 01       		.byte	0x1
 417 000b 0F       		.uleb128 .LLSDACSE2901-.LLSDACSB2901
 418              	.LLSDACSB2901:
 419 000c 0C       		.uleb128 .LEHB0-.LFB2901
 420 000d 58       		.uleb128 .LEHE0-.LEHB0
 421 000e 00       		.uleb128 0
 422 000f 00       		.uleb128 0
 423 0010 8001     		.uleb128 .LEHB1-.LFB2901
 424 0012 04       		.uleb128 .LEHE1-.LEHB1
 425 0013 9C01     		.uleb128 .L27-.LFB2901
 426 0015 00       		.uleb128 0
 427 0016 9801     		.uleb128 .LEHB2-.LFB2901
 428 0018 10       		.uleb128 .LEHE2-.LEHB2
 429 0019 00       		.uleb128 0
 430 001a 00       		.uleb128 0
 431              	.LLSDACSE2901:
 432              		.section	.text._ZN12_GLOBAL__N_113parseECIValueERN5zxing9BitSourceE
 433              		.fnend
 435              		.section	.text._ZN5zxing8ArrayRefIcED0Ev,"axG",%progbits,_ZN5zxing8ArrayRefIcED5Ev,comdat
 436              		.align	2
 437              		.weak	_ZN5zxing8ArrayRefIcED0Ev
 438              		.syntax unified
 439              		.arm
 440              		.fpu neon
 442              	_ZN5zxing8ArrayRefIcED0Ev:
 443              		.fnstart
 444              	.LFB3123:
 116:/home/zkmike/workspace/RZA2M/rza2m_2d_barcode_sample_freertos_gcc/src/zxing_lib/zxing/common/Array.h ****     if (array_) {
 445              		.loc 2 116 0 is_stmt 1
 446              		.cfi_startproc
 447              		@ args = 0, pretend = 0, frame = 0
 448              		@ frame_needed = 0, uses_anonymous_args = 0
 449              	.LVL43:
 450 0000 10402DE9 		push	{r4, lr}
 451              		.cfi_def_cfa_offset 8
 452              		.cfi_offset 4, -8
 453              		.cfi_offset 14, -4
 454 0004 0040A0E1 		mov	r4, r0
 455              	.LVL44:
 456              	.LBB1907:
 457              	.LBB1908:
 458              		.loc 2 121 0
 459 0008 50309FE5 		ldr	r3, .L35
 460 000c 003080E5 		str	r3, [r0]
 117:/home/zkmike/workspace/RZA2M/rza2m_2d_barcode_sample_freertos_gcc/src/zxing_lib/zxing/common/Array.h ****       array_->release();
 461              		.loc 2 117 0
 462 0010 080090E5 		ldr	r0, [r0, #8]
 463              	.LVL45:
 464 0014 000050E3 		cmp	r0, #0
 465 0018 0400000A 		beq	.L32
 466              	.LVL46:
 467              	.LBB1909:
 468              	.LBB1910:
  40:/home/zkmike/workspace/RZA2M/rza2m_2d_barcode_sample_freertos_gcc/src/zxing_lib/zxing/common/Counted.h ****     if (count_ == 0) {
 469              		.loc 3 40 0
 470 001c 043090E5 		ldr	r3, [r0, #4]
 471 0020 013043E2 		sub	r3, r3, #1
 472 0024 043080E5 		str	r3, [r0, #4]
  41:/home/zkmike/workspace/RZA2M/rza2m_2d_barcode_sample_freertos_gcc/src/zxing_lib/zxing/common/Counted.h ****       count_ = 0xDEADF001;
 473              		.loc 3 41 0
 474 0028 000053E3 		cmp	r3, #0
 475 002c 0400000A 		beq	.L34
 476              	.LVL47:
 477              	.L32:
 478              	.LBE1910:
 479              	.LBE1909:
 480              	.LBE1908:
 481              	.LBE1907:
 482              		.loc 2 121 0
 483 0030 0C10A0E3 		mov	r1, #12
 484 0034 0400A0E1 		mov	r0, r4
 485 0038 FEFFFFEB 		bl	_ZdlPvj
 486              	.LVL48:
 487 003c 0400A0E1 		mov	r0, r4
 488 0040 1080BDE8 		pop	{r4, pc}
 489              	.LVL49:
 490              	.L34:
 491              	.LBB1914:
 492              	.LBB1913:
 493              	.LBB1912:
 494              	.LBB1911:
  42:/home/zkmike/workspace/RZA2M/rza2m_2d_barcode_sample_freertos_gcc/src/zxing_lib/zxing/common/Counted.h ****       delete this;
 495              		.loc 3 42 0
 496 0044 01300FE3 		movw	r3, #61441
 497 0048 AD3E4DE3 		movt	r3, 57005
 498 004c 043080E5 		str	r3, [r0, #4]
 499              		.loc 3 43 0
 500 0050 003090E5 		ldr	r3, [r0]
 501 0054 043093E5 		ldr	r3, [r3, #4]
 502 0058 33FF2FE1 		blx	r3
 503              	.LVL50:
 504 005c F3FFFFEA 		b	.L32
 505              	.L36:
 506              		.align	2
 507              	.L35:
 508 0060 08000000 		.word	_ZTVN5zxing8ArrayRefIcEE+8
 509              	.LBE1911:
 510              	.LBE1912:
 511              	.LBE1913:
 512              	.LBE1914:
 513              		.cfi_endproc
 514              	.LFE3123:
 515              		.cantunwind
 516              		.fnend
 518              		.section	.text._ZN5zxing9BitSourceD0Ev,"axG",%progbits,_ZN5zxing9BitSourceD5Ev,comdat
 519              		.align	2
 520              		.weak	_ZN5zxing9BitSourceD0Ev
 521              		.syntax unified
 522              		.arm
 523              		.fpu neon
 525              	_ZN5zxing9BitSourceD0Ev:
 526              		.fnstart
 527              	.LFB3585:
 528              		.loc 4 35 0
 529              		.cfi_startproc
 530              		@ args = 0, pretend = 0, frame = 0
 531              		@ frame_needed = 0, uses_anonymous_args = 0
 532              	.LVL51:
 533 0000 10402DE9 		push	{r4, lr}
 534              		.cfi_def_cfa_offset 8
 535              		.cfi_offset 4, -8
 536              		.cfi_offset 14, -4
 537 0004 0040A0E1 		mov	r4, r0
 538              	.LVL52:
 539              	.LBB1915:
 540              	.LBB1916:
 541              		.loc 4 35 0
 542 0008 58309FE5 		ldr	r3, .L41
 543 000c 003080E5 		str	r3, [r0]
 544              	.LVL53:
 545              	.LBB1917:
 546              	.LBB1918:
 547              		.loc 2 121 0
 548 0010 54309FE5 		ldr	r3, .L41+4
 549 0014 083080E5 		str	r3, [r0, #8]
 117:/home/zkmike/workspace/RZA2M/rza2m_2d_barcode_sample_freertos_gcc/src/zxing_lib/zxing/common/Array.h ****       array_->release();
 550              		.loc 2 117 0
 551 0018 100090E5 		ldr	r0, [r0, #16]
 552              	.LVL54:
 553 001c 000050E3 		cmp	r0, #0
 554 0020 0400000A 		beq	.L38
 555              	.LVL55:
 556              	.LBB1919:
 557              	.LBB1920:
  40:/home/zkmike/workspace/RZA2M/rza2m_2d_barcode_sample_freertos_gcc/src/zxing_lib/zxing/common/Counted.h ****     if (count_ == 0) {
 558              		.loc 3 40 0
 559 0024 043090E5 		ldr	r3, [r0, #4]
 560 0028 013043E2 		sub	r3, r3, #1
 561 002c 043080E5 		str	r3, [r0, #4]
  41:/home/zkmike/workspace/RZA2M/rza2m_2d_barcode_sample_freertos_gcc/src/zxing_lib/zxing/common/Counted.h ****       count_ = 0xDEADF001;
 562              		.loc 3 41 0
 563 0030 000053E3 		cmp	r3, #0
 564 0034 0400000A 		beq	.L40
 565              	.LVL56:
 566              	.L38:
 567              	.LBE1920:
 568              	.LBE1919:
 569              	.LBE1918:
 570              	.LBE1917:
 571              	.LBE1916:
 572              	.LBE1915:
 573              		.loc 4 35 0
 574 0038 1C10A0E3 		mov	r1, #28
 575 003c 0400A0E1 		mov	r0, r4
 576 0040 FEFFFFEB 		bl	_ZdlPvj
 577              	.LVL57:
 578 0044 0400A0E1 		mov	r0, r4
 579 0048 1080BDE8 		pop	{r4, pc}
 580              	.LVL58:
 581              	.L40:
 582              	.LBB1926:
 583              	.LBB1925:
 584              	.LBB1924:
 585              	.LBB1923:
 586              	.LBB1922:
 587              	.LBB1921:
  42:/home/zkmike/workspace/RZA2M/rza2m_2d_barcode_sample_freertos_gcc/src/zxing_lib/zxing/common/Counted.h ****       delete this;
 588              		.loc 3 42 0
 589 004c 01300FE3 		movw	r3, #61441
 590 0050 AD3E4DE3 		movt	r3, 57005
 591 0054 043080E5 		str	r3, [r0, #4]
 592              		.loc 3 43 0
 593 0058 003090E5 		ldr	r3, [r0]
 594 005c 043093E5 		ldr	r3, [r3, #4]
 595 0060 33FF2FE1 		blx	r3
 596              	.LVL59:
 597 0064 F3FFFFEA 		b	.L38
 598              	.L42:
 599              		.align	2
 600              	.L41:
 601 0068 08000000 		.word	_ZTVN5zxing9BitSourceE+8
 602 006c 08000000 		.word	_ZTVN5zxing8ArrayRefIcEE+8
 603              	.LBE1921:
 604              	.LBE1922:
 605              	.LBE1923:
 606              	.LBE1924:
 607              	.LBE1925:
 608              	.LBE1926:
 609              		.cfi_endproc
 610              	.LFE3585:
 611              		.cantunwind
 612              		.fnend
 614              		.section	.text._ZN5zxing8ArrayRefINS0_IcEEED0Ev,"axG",%progbits,_ZN5zxing8ArrayRefINS0_IcEEED5Ev,c
 615              		.align	2
 616              		.weak	_ZN5zxing8ArrayRefINS0_IcEEED0Ev
 617              		.syntax unified
 618              		.arm
 619              		.fpu neon
 621              	_ZN5zxing8ArrayRefINS0_IcEEED0Ev:
 622              		.fnstart
 623              	.LFB3167:
 116:/home/zkmike/workspace/RZA2M/rza2m_2d_barcode_sample_freertos_gcc/src/zxing_lib/zxing/common/Array.h ****     if (array_) {
 624              		.loc 2 116 0
 625              		.cfi_startproc
 626              		@ args = 0, pretend = 0, frame = 0
 627              		@ frame_needed = 0, uses_anonymous_args = 0
 628              	.LVL60:
 629 0000 10402DE9 		push	{r4, lr}
 630              		.cfi_def_cfa_offset 8
 631              		.cfi_offset 4, -8
 632              		.cfi_offset 14, -4
 633 0004 0040A0E1 		mov	r4, r0
 634              	.LVL61:
 635              	.LBB1927:
 636              	.LBB1928:
 637              		.loc 2 121 0
 638 0008 50309FE5 		ldr	r3, .L47
 639 000c 003080E5 		str	r3, [r0]
 117:/home/zkmike/workspace/RZA2M/rza2m_2d_barcode_sample_freertos_gcc/src/zxing_lib/zxing/common/Array.h ****       array_->release();
 640              		.loc 2 117 0
 641 0010 080090E5 		ldr	r0, [r0, #8]
 642              	.LVL62:
 643 0014 000050E3 		cmp	r0, #0
 644 0018 0400000A 		beq	.L44
 645              	.LVL63:
 646              	.LBB1929:
 647              	.LBB1930:
  40:/home/zkmike/workspace/RZA2M/rza2m_2d_barcode_sample_freertos_gcc/src/zxing_lib/zxing/common/Counted.h ****     if (count_ == 0) {
 648              		.loc 3 40 0
 649 001c 043090E5 		ldr	r3, [r0, #4]
 650 0020 013043E2 		sub	r3, r3, #1
 651 0024 043080E5 		str	r3, [r0, #4]
  41:/home/zkmike/workspace/RZA2M/rza2m_2d_barcode_sample_freertos_gcc/src/zxing_lib/zxing/common/Counted.h ****       count_ = 0xDEADF001;
 652              		.loc 3 41 0
 653 0028 000053E3 		cmp	r3, #0
 654 002c 0400000A 		beq	.L46
 655              	.LVL64:
 656              	.L44:
 657              	.LBE1930:
 658              	.LBE1929:
 659              	.LBE1928:
 660              	.LBE1927:
 661              		.loc 2 121 0
 662 0030 0C10A0E3 		mov	r1, #12
 663 0034 0400A0E1 		mov	r0, r4
 664 0038 FEFFFFEB 		bl	_ZdlPvj
 665              	.LVL65:
 666 003c 0400A0E1 		mov	r0, r4
 667 0040 1080BDE8 		pop	{r4, pc}
 668              	.LVL66:
 669              	.L46:
 670              	.LBB1934:
 671              	.LBB1933:
 672              	.LBB1932:
 673              	.LBB1931:
  42:/home/zkmike/workspace/RZA2M/rza2m_2d_barcode_sample_freertos_gcc/src/zxing_lib/zxing/common/Counted.h ****       delete this;
 674              		.loc 3 42 0
 675 0044 01300FE3 		movw	r3, #61441
 676 0048 AD3E4DE3 		movt	r3, 57005
 677 004c 043080E5 		str	r3, [r0, #4]
 678              		.loc 3 43 0
 679 0050 003090E5 		ldr	r3, [r0]
 680 0054 043093E5 		ldr	r3, [r3, #4]
 681 0058 33FF2FE1 		blx	r3
 682              	.LVL67:
 683 005c F3FFFFEA 		b	.L44
 684              	.L48:
 685              		.align	2
 686              	.L47:
 687 0060 08000000 		.word	_ZTVN5zxing8ArrayRefINS0_IcEEEE+8
 688              	.LBE1931:
 689              	.LBE1932:
 690              	.LBE1933:
 691              	.LBE1934:
 692              		.cfi_endproc
 693              	.LFE3167:
 694              		.cantunwind
 695              		.fnend
 697              		.section	.text._ZN5zxing5ArrayIcED2Ev,"axG",%progbits,_ZN5zxing5ArrayIcED5Ev,comdat
 698              		.align	2
 699              		.weak	_ZN5zxing5ArrayIcED2Ev
 700              		.syntax unified
 701              		.arm
 702              		.fpu neon
 704              	_ZN5zxing5ArrayIcED2Ev:
 705              		.fnstart
 706              	.LFB3592:
  56:/home/zkmike/workspace/RZA2M/rza2m_2d_barcode_sample_freertos_gcc/src/zxing_lib/zxing/common/Array.h ****   }
 707              		.loc 2 56 0
 708              		.cfi_startproc
 709              		@ args = 0, pretend = 0, frame = 0
 710              		@ frame_needed = 0, uses_anonymous_args = 0
 711              	.LVL68:
 712 0000 10402DE9 		push	{r4, lr}
 713              		.cfi_def_cfa_offset 8
 714              		.cfi_offset 4, -8
 715              		.cfi_offset 14, -4
 716 0004 0040A0E1 		mov	r4, r0
 717              	.LBB1935:
  57:/home/zkmike/workspace/RZA2M/rza2m_2d_barcode_sample_freertos_gcc/src/zxing_lib/zxing/common/Array.h ****   Array<T>& operator=(const Array<T> &other) {
 718              		.loc 2 57 0
 719 0008 18309FE5 		ldr	r3, .L52
 720 000c 003080E5 		str	r3, [r0]
 721              	.LVL69:
 722              	.LBB1936:
 723              	.LBB1937:
 724              		.file 6 "/home/zkmike/.local/share/renesas/e2_studio/toolchains/gcc_arm/gcc-arm-none-eabi-6-2017-q
   1:/home/zkmike/.local/share/renesas/e2_studio/toolchains/gcc_arm/gcc-arm-none-eabi-6-2017-q2-update/arm-none-eabi/include/c++/6.3.1/bits/stl_vector.h **** // Vector implementation -*- C++ -*-
   2:/home/zkmike/.local/share/renesas/e2_studio/toolchains/gcc_arm/gcc-arm-none-eabi-6-2017-q2-update/arm-none-eabi/include/c++/6.3.1/bits/stl_vector.h **** 
   3:/home/zkmike/.local/share/renesas/e2_studio/toolchains/gcc_arm/gcc-arm-none-eabi-6-2017-q2-update/arm-none-eabi/include/c++/6.3.1/bits/stl_vector.h **** // Copyright (C) 2001-2016 Free Software Foundation, Inc.
   4:/home/zkmike/.local/share/renesas/e2_studio/toolchains/gcc_arm/gcc-arm-none-eabi-6-2017-q2-update/arm-none-eabi/include/c++/6.3.1/bits/stl_vector.h **** //
   5:/home/zkmike/.local/share/renesas/e2_studio/toolchains/gcc_arm/gcc-arm-none-eabi-6-2017-q2-update/arm-none-eabi/include/c++/6.3.1/bits/stl_vector.h **** // This file is part of the GNU ISO C++ Library.  This library is free
   6:/home/zkmike/.local/share/renesas/e2_studio/toolchains/gcc_arm/gcc-arm-none-eabi-6-2017-q2-update/arm-none-eabi/include/c++/6.3.1/bits/stl_vector.h **** // software; you can redistribute it and/or modify it under the
   7:/home/zkmike/.local/share/renesas/e2_studio/toolchains/gcc_arm/gcc-arm-none-eabi-6-2017-q2-update/arm-none-eabi/include/c++/6.3.1/bits/stl_vector.h **** // terms of the GNU General Public License as published by the
   8:/home/zkmike/.local/share/renesas/e2_studio/toolchains/gcc_arm/gcc-arm-none-eabi-6-2017-q2-update/arm-none-eabi/include/c++/6.3.1/bits/stl_vector.h **** // Free Software Foundation; either version 3, or (at your option)
   9:/home/zkmike/.local/share/renesas/e2_studio/toolchains/gcc_arm/gcc-arm-none-eabi-6-2017-q2-update/arm-none-eabi/include/c++/6.3.1/bits/stl_vector.h **** // any later version.
  10:/home/zkmike/.local/share/renesas/e2_studio/toolchains/gcc_arm/gcc-arm-none-eabi-6-2017-q2-update/arm-none-eabi/include/c++/6.3.1/bits/stl_vector.h **** 
  11:/home/zkmike/.local/share/renesas/e2_studio/toolchains/gcc_arm/gcc-arm-none-eabi-6-2017-q2-update/arm-none-eabi/include/c++/6.3.1/bits/stl_vector.h **** // This library is distributed in the hope that it will be useful,
  12:/home/zkmike/.local/share/renesas/e2_studio/toolchains/gcc_arm/gcc-arm-none-eabi-6-2017-q2-update/arm-none-eabi/include/c++/6.3.1/bits/stl_vector.h **** // but WITHOUT ANY WARRANTY; without even the implied warranty of
  13:/home/zkmike/.local/share/renesas/e2_studio/toolchains/gcc_arm/gcc-arm-none-eabi-6-2017-q2-update/arm-none-eabi/include/c++/6.3.1/bits/stl_vector.h **** // MERCHANTABILITY or FITNESS FOR A PARTICULAR PURPOSE.  See the
  14:/home/zkmike/.local/share/renesas/e2_studio/toolchains/gcc_arm/gcc-arm-none-eabi-6-2017-q2-update/arm-none-eabi/include/c++/6.3.1/bits/stl_vector.h **** // GNU General Public License for more details.
  15:/home/zkmike/.local/share/renesas/e2_studio/toolchains/gcc_arm/gcc-arm-none-eabi-6-2017-q2-update/arm-none-eabi/include/c++/6.3.1/bits/stl_vector.h **** 
  16:/home/zkmike/.local/share/renesas/e2_studio/toolchains/gcc_arm/gcc-arm-none-eabi-6-2017-q2-update/arm-none-eabi/include/c++/6.3.1/bits/stl_vector.h **** // Under Section 7 of GPL version 3, you are granted additional
  17:/home/zkmike/.local/share/renesas/e2_studio/toolchains/gcc_arm/gcc-arm-none-eabi-6-2017-q2-update/arm-none-eabi/include/c++/6.3.1/bits/stl_vector.h **** // permissions described in the GCC Runtime Library Exception, version
  18:/home/zkmike/.local/share/renesas/e2_studio/toolchains/gcc_arm/gcc-arm-none-eabi-6-2017-q2-update/arm-none-eabi/include/c++/6.3.1/bits/stl_vector.h **** // 3.1, as published by the Free Software Foundation.
  19:/home/zkmike/.local/share/renesas/e2_studio/toolchains/gcc_arm/gcc-arm-none-eabi-6-2017-q2-update/arm-none-eabi/include/c++/6.3.1/bits/stl_vector.h **** 
  20:/home/zkmike/.local/share/renesas/e2_studio/toolchains/gcc_arm/gcc-arm-none-eabi-6-2017-q2-update/arm-none-eabi/include/c++/6.3.1/bits/stl_vector.h **** // You should have received a copy of the GNU General Public License and
  21:/home/zkmike/.local/share/renesas/e2_studio/toolchains/gcc_arm/gcc-arm-none-eabi-6-2017-q2-update/arm-none-eabi/include/c++/6.3.1/bits/stl_vector.h **** // a copy of the GCC Runtime Library Exception along with this program;
  22:/home/zkmike/.local/share/renesas/e2_studio/toolchains/gcc_arm/gcc-arm-none-eabi-6-2017-q2-update/arm-none-eabi/include/c++/6.3.1/bits/stl_vector.h **** // see the files COPYING3 and COPYING.RUNTIME respectively.  If not, see
  23:/home/zkmike/.local/share/renesas/e2_studio/toolchains/gcc_arm/gcc-arm-none-eabi-6-2017-q2-update/arm-none-eabi/include/c++/6.3.1/bits/stl_vector.h **** // <http://www.gnu.org/licenses/>.
  24:/home/zkmike/.local/share/renesas/e2_studio/toolchains/gcc_arm/gcc-arm-none-eabi-6-2017-q2-update/arm-none-eabi/include/c++/6.3.1/bits/stl_vector.h **** 
  25:/home/zkmike/.local/share/renesas/e2_studio/toolchains/gcc_arm/gcc-arm-none-eabi-6-2017-q2-update/arm-none-eabi/include/c++/6.3.1/bits/stl_vector.h **** /*
  26:/home/zkmike/.local/share/renesas/e2_studio/toolchains/gcc_arm/gcc-arm-none-eabi-6-2017-q2-update/arm-none-eabi/include/c++/6.3.1/bits/stl_vector.h ****  *
  27:/home/zkmike/.local/share/renesas/e2_studio/toolchains/gcc_arm/gcc-arm-none-eabi-6-2017-q2-update/arm-none-eabi/include/c++/6.3.1/bits/stl_vector.h ****  * Copyright (c) 1994
  28:/home/zkmike/.local/share/renesas/e2_studio/toolchains/gcc_arm/gcc-arm-none-eabi-6-2017-q2-update/arm-none-eabi/include/c++/6.3.1/bits/stl_vector.h ****  * Hewlett-Packard Company
  29:/home/zkmike/.local/share/renesas/e2_studio/toolchains/gcc_arm/gcc-arm-none-eabi-6-2017-q2-update/arm-none-eabi/include/c++/6.3.1/bits/stl_vector.h ****  *
  30:/home/zkmike/.local/share/renesas/e2_studio/toolchains/gcc_arm/gcc-arm-none-eabi-6-2017-q2-update/arm-none-eabi/include/c++/6.3.1/bits/stl_vector.h ****  * Permission to use, copy, modify, distribute and sell this software
  31:/home/zkmike/.local/share/renesas/e2_studio/toolchains/gcc_arm/gcc-arm-none-eabi-6-2017-q2-update/arm-none-eabi/include/c++/6.3.1/bits/stl_vector.h ****  * and its documentation for any purpose is hereby granted without fee,
  32:/home/zkmike/.local/share/renesas/e2_studio/toolchains/gcc_arm/gcc-arm-none-eabi-6-2017-q2-update/arm-none-eabi/include/c++/6.3.1/bits/stl_vector.h ****  * provided that the above copyright notice appear in all copies and
  33:/home/zkmike/.local/share/renesas/e2_studio/toolchains/gcc_arm/gcc-arm-none-eabi-6-2017-q2-update/arm-none-eabi/include/c++/6.3.1/bits/stl_vector.h ****  * that both that copyright notice and this permission notice appear
  34:/home/zkmike/.local/share/renesas/e2_studio/toolchains/gcc_arm/gcc-arm-none-eabi-6-2017-q2-update/arm-none-eabi/include/c++/6.3.1/bits/stl_vector.h ****  * in supporting documentation.  Hewlett-Packard Company makes no
  35:/home/zkmike/.local/share/renesas/e2_studio/toolchains/gcc_arm/gcc-arm-none-eabi-6-2017-q2-update/arm-none-eabi/include/c++/6.3.1/bits/stl_vector.h ****  * representations about the suitability of this software for any
  36:/home/zkmike/.local/share/renesas/e2_studio/toolchains/gcc_arm/gcc-arm-none-eabi-6-2017-q2-update/arm-none-eabi/include/c++/6.3.1/bits/stl_vector.h ****  * purpose.  It is provided "as is" without express or implied warranty.
  37:/home/zkmike/.local/share/renesas/e2_studio/toolchains/gcc_arm/gcc-arm-none-eabi-6-2017-q2-update/arm-none-eabi/include/c++/6.3.1/bits/stl_vector.h ****  *
  38:/home/zkmike/.local/share/renesas/e2_studio/toolchains/gcc_arm/gcc-arm-none-eabi-6-2017-q2-update/arm-none-eabi/include/c++/6.3.1/bits/stl_vector.h ****  *
  39:/home/zkmike/.local/share/renesas/e2_studio/toolchains/gcc_arm/gcc-arm-none-eabi-6-2017-q2-update/arm-none-eabi/include/c++/6.3.1/bits/stl_vector.h ****  * Copyright (c) 1996
  40:/home/zkmike/.local/share/renesas/e2_studio/toolchains/gcc_arm/gcc-arm-none-eabi-6-2017-q2-update/arm-none-eabi/include/c++/6.3.1/bits/stl_vector.h ****  * Silicon Graphics Computer Systems, Inc.
  41:/home/zkmike/.local/share/renesas/e2_studio/toolchains/gcc_arm/gcc-arm-none-eabi-6-2017-q2-update/arm-none-eabi/include/c++/6.3.1/bits/stl_vector.h ****  *
  42:/home/zkmike/.local/share/renesas/e2_studio/toolchains/gcc_arm/gcc-arm-none-eabi-6-2017-q2-update/arm-none-eabi/include/c++/6.3.1/bits/stl_vector.h ****  * Permission to use, copy, modify, distribute and sell this software
  43:/home/zkmike/.local/share/renesas/e2_studio/toolchains/gcc_arm/gcc-arm-none-eabi-6-2017-q2-update/arm-none-eabi/include/c++/6.3.1/bits/stl_vector.h ****  * and its documentation for any purpose is hereby granted without fee,
  44:/home/zkmike/.local/share/renesas/e2_studio/toolchains/gcc_arm/gcc-arm-none-eabi-6-2017-q2-update/arm-none-eabi/include/c++/6.3.1/bits/stl_vector.h ****  * provided that the above copyright notice appear in all copies and
  45:/home/zkmike/.local/share/renesas/e2_studio/toolchains/gcc_arm/gcc-arm-none-eabi-6-2017-q2-update/arm-none-eabi/include/c++/6.3.1/bits/stl_vector.h ****  * that both that copyright notice and this permission notice appear
  46:/home/zkmike/.local/share/renesas/e2_studio/toolchains/gcc_arm/gcc-arm-none-eabi-6-2017-q2-update/arm-none-eabi/include/c++/6.3.1/bits/stl_vector.h ****  * in supporting documentation.  Silicon Graphics makes no
  47:/home/zkmike/.local/share/renesas/e2_studio/toolchains/gcc_arm/gcc-arm-none-eabi-6-2017-q2-update/arm-none-eabi/include/c++/6.3.1/bits/stl_vector.h ****  * representations about the suitability of this  software for any
  48:/home/zkmike/.local/share/renesas/e2_studio/toolchains/gcc_arm/gcc-arm-none-eabi-6-2017-q2-update/arm-none-eabi/include/c++/6.3.1/bits/stl_vector.h ****  * purpose.  It is provided "as is" without express or implied warranty.
  49:/home/zkmike/.local/share/renesas/e2_studio/toolchains/gcc_arm/gcc-arm-none-eabi-6-2017-q2-update/arm-none-eabi/include/c++/6.3.1/bits/stl_vector.h ****  */
  50:/home/zkmike/.local/share/renesas/e2_studio/toolchains/gcc_arm/gcc-arm-none-eabi-6-2017-q2-update/arm-none-eabi/include/c++/6.3.1/bits/stl_vector.h **** 
  51:/home/zkmike/.local/share/renesas/e2_studio/toolchains/gcc_arm/gcc-arm-none-eabi-6-2017-q2-update/arm-none-eabi/include/c++/6.3.1/bits/stl_vector.h **** /** @file bits/stl_vector.h
  52:/home/zkmike/.local/share/renesas/e2_studio/toolchains/gcc_arm/gcc-arm-none-eabi-6-2017-q2-update/arm-none-eabi/include/c++/6.3.1/bits/stl_vector.h ****  *  This is an internal header file, included by other library headers.
  53:/home/zkmike/.local/share/renesas/e2_studio/toolchains/gcc_arm/gcc-arm-none-eabi-6-2017-q2-update/arm-none-eabi/include/c++/6.3.1/bits/stl_vector.h ****  *  Do not attempt to use it directly. @headername{vector}
  54:/home/zkmike/.local/share/renesas/e2_studio/toolchains/gcc_arm/gcc-arm-none-eabi-6-2017-q2-update/arm-none-eabi/include/c++/6.3.1/bits/stl_vector.h ****  */
  55:/home/zkmike/.local/share/renesas/e2_studio/toolchains/gcc_arm/gcc-arm-none-eabi-6-2017-q2-update/arm-none-eabi/include/c++/6.3.1/bits/stl_vector.h **** 
  56:/home/zkmike/.local/share/renesas/e2_studio/toolchains/gcc_arm/gcc-arm-none-eabi-6-2017-q2-update/arm-none-eabi/include/c++/6.3.1/bits/stl_vector.h **** #ifndef _STL_VECTOR_H
  57:/home/zkmike/.local/share/renesas/e2_studio/toolchains/gcc_arm/gcc-arm-none-eabi-6-2017-q2-update/arm-none-eabi/include/c++/6.3.1/bits/stl_vector.h **** #define _STL_VECTOR_H 1
  58:/home/zkmike/.local/share/renesas/e2_studio/toolchains/gcc_arm/gcc-arm-none-eabi-6-2017-q2-update/arm-none-eabi/include/c++/6.3.1/bits/stl_vector.h **** 
  59:/home/zkmike/.local/share/renesas/e2_studio/toolchains/gcc_arm/gcc-arm-none-eabi-6-2017-q2-update/arm-none-eabi/include/c++/6.3.1/bits/stl_vector.h **** #include <bits/stl_iterator_base_funcs.h>
  60:/home/zkmike/.local/share/renesas/e2_studio/toolchains/gcc_arm/gcc-arm-none-eabi-6-2017-q2-update/arm-none-eabi/include/c++/6.3.1/bits/stl_vector.h **** #include <bits/functexcept.h>
  61:/home/zkmike/.local/share/renesas/e2_studio/toolchains/gcc_arm/gcc-arm-none-eabi-6-2017-q2-update/arm-none-eabi/include/c++/6.3.1/bits/stl_vector.h **** #include <bits/concept_check.h>
  62:/home/zkmike/.local/share/renesas/e2_studio/toolchains/gcc_arm/gcc-arm-none-eabi-6-2017-q2-update/arm-none-eabi/include/c++/6.3.1/bits/stl_vector.h **** #if __cplusplus >= 201103L
  63:/home/zkmike/.local/share/renesas/e2_studio/toolchains/gcc_arm/gcc-arm-none-eabi-6-2017-q2-update/arm-none-eabi/include/c++/6.3.1/bits/stl_vector.h **** #include <initializer_list>
  64:/home/zkmike/.local/share/renesas/e2_studio/toolchains/gcc_arm/gcc-arm-none-eabi-6-2017-q2-update/arm-none-eabi/include/c++/6.3.1/bits/stl_vector.h **** #endif
  65:/home/zkmike/.local/share/renesas/e2_studio/toolchains/gcc_arm/gcc-arm-none-eabi-6-2017-q2-update/arm-none-eabi/include/c++/6.3.1/bits/stl_vector.h **** 
  66:/home/zkmike/.local/share/renesas/e2_studio/toolchains/gcc_arm/gcc-arm-none-eabi-6-2017-q2-update/arm-none-eabi/include/c++/6.3.1/bits/stl_vector.h **** namespace std _GLIBCXX_VISIBILITY(default)
  67:/home/zkmike/.local/share/renesas/e2_studio/toolchains/gcc_arm/gcc-arm-none-eabi-6-2017-q2-update/arm-none-eabi/include/c++/6.3.1/bits/stl_vector.h **** {
  68:/home/zkmike/.local/share/renesas/e2_studio/toolchains/gcc_arm/gcc-arm-none-eabi-6-2017-q2-update/arm-none-eabi/include/c++/6.3.1/bits/stl_vector.h **** _GLIBCXX_BEGIN_NAMESPACE_CONTAINER
  69:/home/zkmike/.local/share/renesas/e2_studio/toolchains/gcc_arm/gcc-arm-none-eabi-6-2017-q2-update/arm-none-eabi/include/c++/6.3.1/bits/stl_vector.h **** 
  70:/home/zkmike/.local/share/renesas/e2_studio/toolchains/gcc_arm/gcc-arm-none-eabi-6-2017-q2-update/arm-none-eabi/include/c++/6.3.1/bits/stl_vector.h ****   /// See bits/stl_deque.h's _Deque_base for an explanation.
  71:/home/zkmike/.local/share/renesas/e2_studio/toolchains/gcc_arm/gcc-arm-none-eabi-6-2017-q2-update/arm-none-eabi/include/c++/6.3.1/bits/stl_vector.h ****   template<typename _Tp, typename _Alloc>
  72:/home/zkmike/.local/share/renesas/e2_studio/toolchains/gcc_arm/gcc-arm-none-eabi-6-2017-q2-update/arm-none-eabi/include/c++/6.3.1/bits/stl_vector.h ****     struct _Vector_base
  73:/home/zkmike/.local/share/renesas/e2_studio/toolchains/gcc_arm/gcc-arm-none-eabi-6-2017-q2-update/arm-none-eabi/include/c++/6.3.1/bits/stl_vector.h ****     {
  74:/home/zkmike/.local/share/renesas/e2_studio/toolchains/gcc_arm/gcc-arm-none-eabi-6-2017-q2-update/arm-none-eabi/include/c++/6.3.1/bits/stl_vector.h ****       typedef typename __gnu_cxx::__alloc_traits<_Alloc>::template
  75:/home/zkmike/.local/share/renesas/e2_studio/toolchains/gcc_arm/gcc-arm-none-eabi-6-2017-q2-update/arm-none-eabi/include/c++/6.3.1/bits/stl_vector.h ****         rebind<_Tp>::other _Tp_alloc_type;
  76:/home/zkmike/.local/share/renesas/e2_studio/toolchains/gcc_arm/gcc-arm-none-eabi-6-2017-q2-update/arm-none-eabi/include/c++/6.3.1/bits/stl_vector.h ****       typedef typename __gnu_cxx::__alloc_traits<_Tp_alloc_type>::pointer
  77:/home/zkmike/.local/share/renesas/e2_studio/toolchains/gcc_arm/gcc-arm-none-eabi-6-2017-q2-update/arm-none-eabi/include/c++/6.3.1/bits/stl_vector.h ****        	pointer;
  78:/home/zkmike/.local/share/renesas/e2_studio/toolchains/gcc_arm/gcc-arm-none-eabi-6-2017-q2-update/arm-none-eabi/include/c++/6.3.1/bits/stl_vector.h **** 
  79:/home/zkmike/.local/share/renesas/e2_studio/toolchains/gcc_arm/gcc-arm-none-eabi-6-2017-q2-update/arm-none-eabi/include/c++/6.3.1/bits/stl_vector.h ****       struct _Vector_impl 
  80:/home/zkmike/.local/share/renesas/e2_studio/toolchains/gcc_arm/gcc-arm-none-eabi-6-2017-q2-update/arm-none-eabi/include/c++/6.3.1/bits/stl_vector.h ****       : public _Tp_alloc_type
  81:/home/zkmike/.local/share/renesas/e2_studio/toolchains/gcc_arm/gcc-arm-none-eabi-6-2017-q2-update/arm-none-eabi/include/c++/6.3.1/bits/stl_vector.h ****       {
  82:/home/zkmike/.local/share/renesas/e2_studio/toolchains/gcc_arm/gcc-arm-none-eabi-6-2017-q2-update/arm-none-eabi/include/c++/6.3.1/bits/stl_vector.h **** 	pointer _M_start;
  83:/home/zkmike/.local/share/renesas/e2_studio/toolchains/gcc_arm/gcc-arm-none-eabi-6-2017-q2-update/arm-none-eabi/include/c++/6.3.1/bits/stl_vector.h **** 	pointer _M_finish;
  84:/home/zkmike/.local/share/renesas/e2_studio/toolchains/gcc_arm/gcc-arm-none-eabi-6-2017-q2-update/arm-none-eabi/include/c++/6.3.1/bits/stl_vector.h **** 	pointer _M_end_of_storage;
  85:/home/zkmike/.local/share/renesas/e2_studio/toolchains/gcc_arm/gcc-arm-none-eabi-6-2017-q2-update/arm-none-eabi/include/c++/6.3.1/bits/stl_vector.h **** 
  86:/home/zkmike/.local/share/renesas/e2_studio/toolchains/gcc_arm/gcc-arm-none-eabi-6-2017-q2-update/arm-none-eabi/include/c++/6.3.1/bits/stl_vector.h **** 	_Vector_impl()
  87:/home/zkmike/.local/share/renesas/e2_studio/toolchains/gcc_arm/gcc-arm-none-eabi-6-2017-q2-update/arm-none-eabi/include/c++/6.3.1/bits/stl_vector.h **** 	: _Tp_alloc_type(), _M_start(), _M_finish(), _M_end_of_storage()
  88:/home/zkmike/.local/share/renesas/e2_studio/toolchains/gcc_arm/gcc-arm-none-eabi-6-2017-q2-update/arm-none-eabi/include/c++/6.3.1/bits/stl_vector.h **** 	{ }
  89:/home/zkmike/.local/share/renesas/e2_studio/toolchains/gcc_arm/gcc-arm-none-eabi-6-2017-q2-update/arm-none-eabi/include/c++/6.3.1/bits/stl_vector.h **** 
  90:/home/zkmike/.local/share/renesas/e2_studio/toolchains/gcc_arm/gcc-arm-none-eabi-6-2017-q2-update/arm-none-eabi/include/c++/6.3.1/bits/stl_vector.h **** 	_Vector_impl(_Tp_alloc_type const& __a) _GLIBCXX_NOEXCEPT
  91:/home/zkmike/.local/share/renesas/e2_studio/toolchains/gcc_arm/gcc-arm-none-eabi-6-2017-q2-update/arm-none-eabi/include/c++/6.3.1/bits/stl_vector.h **** 	: _Tp_alloc_type(__a), _M_start(), _M_finish(), _M_end_of_storage()
  92:/home/zkmike/.local/share/renesas/e2_studio/toolchains/gcc_arm/gcc-arm-none-eabi-6-2017-q2-update/arm-none-eabi/include/c++/6.3.1/bits/stl_vector.h **** 	{ }
  93:/home/zkmike/.local/share/renesas/e2_studio/toolchains/gcc_arm/gcc-arm-none-eabi-6-2017-q2-update/arm-none-eabi/include/c++/6.3.1/bits/stl_vector.h **** 
  94:/home/zkmike/.local/share/renesas/e2_studio/toolchains/gcc_arm/gcc-arm-none-eabi-6-2017-q2-update/arm-none-eabi/include/c++/6.3.1/bits/stl_vector.h **** #if __cplusplus >= 201103L
  95:/home/zkmike/.local/share/renesas/e2_studio/toolchains/gcc_arm/gcc-arm-none-eabi-6-2017-q2-update/arm-none-eabi/include/c++/6.3.1/bits/stl_vector.h **** 	_Vector_impl(_Tp_alloc_type&& __a) noexcept
  96:/home/zkmike/.local/share/renesas/e2_studio/toolchains/gcc_arm/gcc-arm-none-eabi-6-2017-q2-update/arm-none-eabi/include/c++/6.3.1/bits/stl_vector.h **** 	: _Tp_alloc_type(std::move(__a)),
  97:/home/zkmike/.local/share/renesas/e2_studio/toolchains/gcc_arm/gcc-arm-none-eabi-6-2017-q2-update/arm-none-eabi/include/c++/6.3.1/bits/stl_vector.h **** 	  _M_start(), _M_finish(), _M_end_of_storage()
  98:/home/zkmike/.local/share/renesas/e2_studio/toolchains/gcc_arm/gcc-arm-none-eabi-6-2017-q2-update/arm-none-eabi/include/c++/6.3.1/bits/stl_vector.h **** 	{ }
  99:/home/zkmike/.local/share/renesas/e2_studio/toolchains/gcc_arm/gcc-arm-none-eabi-6-2017-q2-update/arm-none-eabi/include/c++/6.3.1/bits/stl_vector.h **** #endif
 100:/home/zkmike/.local/share/renesas/e2_studio/toolchains/gcc_arm/gcc-arm-none-eabi-6-2017-q2-update/arm-none-eabi/include/c++/6.3.1/bits/stl_vector.h **** 
 101:/home/zkmike/.local/share/renesas/e2_studio/toolchains/gcc_arm/gcc-arm-none-eabi-6-2017-q2-update/arm-none-eabi/include/c++/6.3.1/bits/stl_vector.h **** 	void _M_swap_data(_Vector_impl& __x) _GLIBCXX_NOEXCEPT
 102:/home/zkmike/.local/share/renesas/e2_studio/toolchains/gcc_arm/gcc-arm-none-eabi-6-2017-q2-update/arm-none-eabi/include/c++/6.3.1/bits/stl_vector.h **** 	{
 103:/home/zkmike/.local/share/renesas/e2_studio/toolchains/gcc_arm/gcc-arm-none-eabi-6-2017-q2-update/arm-none-eabi/include/c++/6.3.1/bits/stl_vector.h **** 	  std::swap(_M_start, __x._M_start);
 104:/home/zkmike/.local/share/renesas/e2_studio/toolchains/gcc_arm/gcc-arm-none-eabi-6-2017-q2-update/arm-none-eabi/include/c++/6.3.1/bits/stl_vector.h **** 	  std::swap(_M_finish, __x._M_finish);
 105:/home/zkmike/.local/share/renesas/e2_studio/toolchains/gcc_arm/gcc-arm-none-eabi-6-2017-q2-update/arm-none-eabi/include/c++/6.3.1/bits/stl_vector.h **** 	  std::swap(_M_end_of_storage, __x._M_end_of_storage);
 106:/home/zkmike/.local/share/renesas/e2_studio/toolchains/gcc_arm/gcc-arm-none-eabi-6-2017-q2-update/arm-none-eabi/include/c++/6.3.1/bits/stl_vector.h **** 	}
 107:/home/zkmike/.local/share/renesas/e2_studio/toolchains/gcc_arm/gcc-arm-none-eabi-6-2017-q2-update/arm-none-eabi/include/c++/6.3.1/bits/stl_vector.h ****       };
 108:/home/zkmike/.local/share/renesas/e2_studio/toolchains/gcc_arm/gcc-arm-none-eabi-6-2017-q2-update/arm-none-eabi/include/c++/6.3.1/bits/stl_vector.h ****       
 109:/home/zkmike/.local/share/renesas/e2_studio/toolchains/gcc_arm/gcc-arm-none-eabi-6-2017-q2-update/arm-none-eabi/include/c++/6.3.1/bits/stl_vector.h ****     public:
 110:/home/zkmike/.local/share/renesas/e2_studio/toolchains/gcc_arm/gcc-arm-none-eabi-6-2017-q2-update/arm-none-eabi/include/c++/6.3.1/bits/stl_vector.h ****       typedef _Alloc allocator_type;
 111:/home/zkmike/.local/share/renesas/e2_studio/toolchains/gcc_arm/gcc-arm-none-eabi-6-2017-q2-update/arm-none-eabi/include/c++/6.3.1/bits/stl_vector.h **** 
 112:/home/zkmike/.local/share/renesas/e2_studio/toolchains/gcc_arm/gcc-arm-none-eabi-6-2017-q2-update/arm-none-eabi/include/c++/6.3.1/bits/stl_vector.h ****       _Tp_alloc_type&
 113:/home/zkmike/.local/share/renesas/e2_studio/toolchains/gcc_arm/gcc-arm-none-eabi-6-2017-q2-update/arm-none-eabi/include/c++/6.3.1/bits/stl_vector.h ****       _M_get_Tp_allocator() _GLIBCXX_NOEXCEPT
 114:/home/zkmike/.local/share/renesas/e2_studio/toolchains/gcc_arm/gcc-arm-none-eabi-6-2017-q2-update/arm-none-eabi/include/c++/6.3.1/bits/stl_vector.h ****       { return *static_cast<_Tp_alloc_type*>(&this->_M_impl); }
 115:/home/zkmike/.local/share/renesas/e2_studio/toolchains/gcc_arm/gcc-arm-none-eabi-6-2017-q2-update/arm-none-eabi/include/c++/6.3.1/bits/stl_vector.h **** 
 116:/home/zkmike/.local/share/renesas/e2_studio/toolchains/gcc_arm/gcc-arm-none-eabi-6-2017-q2-update/arm-none-eabi/include/c++/6.3.1/bits/stl_vector.h ****       const _Tp_alloc_type&
 117:/home/zkmike/.local/share/renesas/e2_studio/toolchains/gcc_arm/gcc-arm-none-eabi-6-2017-q2-update/arm-none-eabi/include/c++/6.3.1/bits/stl_vector.h ****       _M_get_Tp_allocator() const _GLIBCXX_NOEXCEPT
 118:/home/zkmike/.local/share/renesas/e2_studio/toolchains/gcc_arm/gcc-arm-none-eabi-6-2017-q2-update/arm-none-eabi/include/c++/6.3.1/bits/stl_vector.h ****       { return *static_cast<const _Tp_alloc_type*>(&this->_M_impl); }
 119:/home/zkmike/.local/share/renesas/e2_studio/toolchains/gcc_arm/gcc-arm-none-eabi-6-2017-q2-update/arm-none-eabi/include/c++/6.3.1/bits/stl_vector.h **** 
 120:/home/zkmike/.local/share/renesas/e2_studio/toolchains/gcc_arm/gcc-arm-none-eabi-6-2017-q2-update/arm-none-eabi/include/c++/6.3.1/bits/stl_vector.h ****       allocator_type
 121:/home/zkmike/.local/share/renesas/e2_studio/toolchains/gcc_arm/gcc-arm-none-eabi-6-2017-q2-update/arm-none-eabi/include/c++/6.3.1/bits/stl_vector.h ****       get_allocator() const _GLIBCXX_NOEXCEPT
 122:/home/zkmike/.local/share/renesas/e2_studio/toolchains/gcc_arm/gcc-arm-none-eabi-6-2017-q2-update/arm-none-eabi/include/c++/6.3.1/bits/stl_vector.h ****       { return allocator_type(_M_get_Tp_allocator()); }
 123:/home/zkmike/.local/share/renesas/e2_studio/toolchains/gcc_arm/gcc-arm-none-eabi-6-2017-q2-update/arm-none-eabi/include/c++/6.3.1/bits/stl_vector.h **** 
 124:/home/zkmike/.local/share/renesas/e2_studio/toolchains/gcc_arm/gcc-arm-none-eabi-6-2017-q2-update/arm-none-eabi/include/c++/6.3.1/bits/stl_vector.h ****       _Vector_base()
 125:/home/zkmike/.local/share/renesas/e2_studio/toolchains/gcc_arm/gcc-arm-none-eabi-6-2017-q2-update/arm-none-eabi/include/c++/6.3.1/bits/stl_vector.h ****       : _M_impl() { }
 126:/home/zkmike/.local/share/renesas/e2_studio/toolchains/gcc_arm/gcc-arm-none-eabi-6-2017-q2-update/arm-none-eabi/include/c++/6.3.1/bits/stl_vector.h **** 
 127:/home/zkmike/.local/share/renesas/e2_studio/toolchains/gcc_arm/gcc-arm-none-eabi-6-2017-q2-update/arm-none-eabi/include/c++/6.3.1/bits/stl_vector.h ****       _Vector_base(const allocator_type& __a) _GLIBCXX_NOEXCEPT
 128:/home/zkmike/.local/share/renesas/e2_studio/toolchains/gcc_arm/gcc-arm-none-eabi-6-2017-q2-update/arm-none-eabi/include/c++/6.3.1/bits/stl_vector.h ****       : _M_impl(__a) { }
 129:/home/zkmike/.local/share/renesas/e2_studio/toolchains/gcc_arm/gcc-arm-none-eabi-6-2017-q2-update/arm-none-eabi/include/c++/6.3.1/bits/stl_vector.h **** 
 130:/home/zkmike/.local/share/renesas/e2_studio/toolchains/gcc_arm/gcc-arm-none-eabi-6-2017-q2-update/arm-none-eabi/include/c++/6.3.1/bits/stl_vector.h ****       _Vector_base(size_t __n)
 131:/home/zkmike/.local/share/renesas/e2_studio/toolchains/gcc_arm/gcc-arm-none-eabi-6-2017-q2-update/arm-none-eabi/include/c++/6.3.1/bits/stl_vector.h ****       : _M_impl()
 132:/home/zkmike/.local/share/renesas/e2_studio/toolchains/gcc_arm/gcc-arm-none-eabi-6-2017-q2-update/arm-none-eabi/include/c++/6.3.1/bits/stl_vector.h ****       { _M_create_storage(__n); }
 133:/home/zkmike/.local/share/renesas/e2_studio/toolchains/gcc_arm/gcc-arm-none-eabi-6-2017-q2-update/arm-none-eabi/include/c++/6.3.1/bits/stl_vector.h **** 
 134:/home/zkmike/.local/share/renesas/e2_studio/toolchains/gcc_arm/gcc-arm-none-eabi-6-2017-q2-update/arm-none-eabi/include/c++/6.3.1/bits/stl_vector.h ****       _Vector_base(size_t __n, const allocator_type& __a)
 135:/home/zkmike/.local/share/renesas/e2_studio/toolchains/gcc_arm/gcc-arm-none-eabi-6-2017-q2-update/arm-none-eabi/include/c++/6.3.1/bits/stl_vector.h ****       : _M_impl(__a)
 136:/home/zkmike/.local/share/renesas/e2_studio/toolchains/gcc_arm/gcc-arm-none-eabi-6-2017-q2-update/arm-none-eabi/include/c++/6.3.1/bits/stl_vector.h ****       { _M_create_storage(__n); }
 137:/home/zkmike/.local/share/renesas/e2_studio/toolchains/gcc_arm/gcc-arm-none-eabi-6-2017-q2-update/arm-none-eabi/include/c++/6.3.1/bits/stl_vector.h **** 
 138:/home/zkmike/.local/share/renesas/e2_studio/toolchains/gcc_arm/gcc-arm-none-eabi-6-2017-q2-update/arm-none-eabi/include/c++/6.3.1/bits/stl_vector.h **** #if __cplusplus >= 201103L
 139:/home/zkmike/.local/share/renesas/e2_studio/toolchains/gcc_arm/gcc-arm-none-eabi-6-2017-q2-update/arm-none-eabi/include/c++/6.3.1/bits/stl_vector.h ****       _Vector_base(_Tp_alloc_type&& __a) noexcept
 140:/home/zkmike/.local/share/renesas/e2_studio/toolchains/gcc_arm/gcc-arm-none-eabi-6-2017-q2-update/arm-none-eabi/include/c++/6.3.1/bits/stl_vector.h ****       : _M_impl(std::move(__a)) { }
 141:/home/zkmike/.local/share/renesas/e2_studio/toolchains/gcc_arm/gcc-arm-none-eabi-6-2017-q2-update/arm-none-eabi/include/c++/6.3.1/bits/stl_vector.h **** 
 142:/home/zkmike/.local/share/renesas/e2_studio/toolchains/gcc_arm/gcc-arm-none-eabi-6-2017-q2-update/arm-none-eabi/include/c++/6.3.1/bits/stl_vector.h ****       _Vector_base(_Vector_base&& __x) noexcept
 143:/home/zkmike/.local/share/renesas/e2_studio/toolchains/gcc_arm/gcc-arm-none-eabi-6-2017-q2-update/arm-none-eabi/include/c++/6.3.1/bits/stl_vector.h ****       : _M_impl(std::move(__x._M_get_Tp_allocator()))
 144:/home/zkmike/.local/share/renesas/e2_studio/toolchains/gcc_arm/gcc-arm-none-eabi-6-2017-q2-update/arm-none-eabi/include/c++/6.3.1/bits/stl_vector.h ****       { this->_M_impl._M_swap_data(__x._M_impl); }
 145:/home/zkmike/.local/share/renesas/e2_studio/toolchains/gcc_arm/gcc-arm-none-eabi-6-2017-q2-update/arm-none-eabi/include/c++/6.3.1/bits/stl_vector.h **** 
 146:/home/zkmike/.local/share/renesas/e2_studio/toolchains/gcc_arm/gcc-arm-none-eabi-6-2017-q2-update/arm-none-eabi/include/c++/6.3.1/bits/stl_vector.h ****       _Vector_base(_Vector_base&& __x, const allocator_type& __a)
 147:/home/zkmike/.local/share/renesas/e2_studio/toolchains/gcc_arm/gcc-arm-none-eabi-6-2017-q2-update/arm-none-eabi/include/c++/6.3.1/bits/stl_vector.h ****       : _M_impl(__a)
 148:/home/zkmike/.local/share/renesas/e2_studio/toolchains/gcc_arm/gcc-arm-none-eabi-6-2017-q2-update/arm-none-eabi/include/c++/6.3.1/bits/stl_vector.h ****       {
 149:/home/zkmike/.local/share/renesas/e2_studio/toolchains/gcc_arm/gcc-arm-none-eabi-6-2017-q2-update/arm-none-eabi/include/c++/6.3.1/bits/stl_vector.h **** 	if (__x.get_allocator() == __a)
 150:/home/zkmike/.local/share/renesas/e2_studio/toolchains/gcc_arm/gcc-arm-none-eabi-6-2017-q2-update/arm-none-eabi/include/c++/6.3.1/bits/stl_vector.h **** 	  this->_M_impl._M_swap_data(__x._M_impl);
 151:/home/zkmike/.local/share/renesas/e2_studio/toolchains/gcc_arm/gcc-arm-none-eabi-6-2017-q2-update/arm-none-eabi/include/c++/6.3.1/bits/stl_vector.h **** 	else
 152:/home/zkmike/.local/share/renesas/e2_studio/toolchains/gcc_arm/gcc-arm-none-eabi-6-2017-q2-update/arm-none-eabi/include/c++/6.3.1/bits/stl_vector.h **** 	  {
 153:/home/zkmike/.local/share/renesas/e2_studio/toolchains/gcc_arm/gcc-arm-none-eabi-6-2017-q2-update/arm-none-eabi/include/c++/6.3.1/bits/stl_vector.h **** 	    size_t __n = __x._M_impl._M_finish - __x._M_impl._M_start;
 154:/home/zkmike/.local/share/renesas/e2_studio/toolchains/gcc_arm/gcc-arm-none-eabi-6-2017-q2-update/arm-none-eabi/include/c++/6.3.1/bits/stl_vector.h **** 	    _M_create_storage(__n);
 155:/home/zkmike/.local/share/renesas/e2_studio/toolchains/gcc_arm/gcc-arm-none-eabi-6-2017-q2-update/arm-none-eabi/include/c++/6.3.1/bits/stl_vector.h **** 	  }
 156:/home/zkmike/.local/share/renesas/e2_studio/toolchains/gcc_arm/gcc-arm-none-eabi-6-2017-q2-update/arm-none-eabi/include/c++/6.3.1/bits/stl_vector.h ****       }
 157:/home/zkmike/.local/share/renesas/e2_studio/toolchains/gcc_arm/gcc-arm-none-eabi-6-2017-q2-update/arm-none-eabi/include/c++/6.3.1/bits/stl_vector.h **** #endif
 158:/home/zkmike/.local/share/renesas/e2_studio/toolchains/gcc_arm/gcc-arm-none-eabi-6-2017-q2-update/arm-none-eabi/include/c++/6.3.1/bits/stl_vector.h **** 
 159:/home/zkmike/.local/share/renesas/e2_studio/toolchains/gcc_arm/gcc-arm-none-eabi-6-2017-q2-update/arm-none-eabi/include/c++/6.3.1/bits/stl_vector.h ****       ~_Vector_base() _GLIBCXX_NOEXCEPT
 160:/home/zkmike/.local/share/renesas/e2_studio/toolchains/gcc_arm/gcc-arm-none-eabi-6-2017-q2-update/arm-none-eabi/include/c++/6.3.1/bits/stl_vector.h ****       { _M_deallocate(this->_M_impl._M_start, this->_M_impl._M_end_of_storage
 161:/home/zkmike/.local/share/renesas/e2_studio/toolchains/gcc_arm/gcc-arm-none-eabi-6-2017-q2-update/arm-none-eabi/include/c++/6.3.1/bits/stl_vector.h **** 		      - this->_M_impl._M_start); }
 162:/home/zkmike/.local/share/renesas/e2_studio/toolchains/gcc_arm/gcc-arm-none-eabi-6-2017-q2-update/arm-none-eabi/include/c++/6.3.1/bits/stl_vector.h **** 
 163:/home/zkmike/.local/share/renesas/e2_studio/toolchains/gcc_arm/gcc-arm-none-eabi-6-2017-q2-update/arm-none-eabi/include/c++/6.3.1/bits/stl_vector.h ****     public:
 164:/home/zkmike/.local/share/renesas/e2_studio/toolchains/gcc_arm/gcc-arm-none-eabi-6-2017-q2-update/arm-none-eabi/include/c++/6.3.1/bits/stl_vector.h ****       _Vector_impl _M_impl;
 165:/home/zkmike/.local/share/renesas/e2_studio/toolchains/gcc_arm/gcc-arm-none-eabi-6-2017-q2-update/arm-none-eabi/include/c++/6.3.1/bits/stl_vector.h **** 
 166:/home/zkmike/.local/share/renesas/e2_studio/toolchains/gcc_arm/gcc-arm-none-eabi-6-2017-q2-update/arm-none-eabi/include/c++/6.3.1/bits/stl_vector.h ****       pointer
 167:/home/zkmike/.local/share/renesas/e2_studio/toolchains/gcc_arm/gcc-arm-none-eabi-6-2017-q2-update/arm-none-eabi/include/c++/6.3.1/bits/stl_vector.h ****       _M_allocate(size_t __n)
 168:/home/zkmike/.local/share/renesas/e2_studio/toolchains/gcc_arm/gcc-arm-none-eabi-6-2017-q2-update/arm-none-eabi/include/c++/6.3.1/bits/stl_vector.h ****       {
 169:/home/zkmike/.local/share/renesas/e2_studio/toolchains/gcc_arm/gcc-arm-none-eabi-6-2017-q2-update/arm-none-eabi/include/c++/6.3.1/bits/stl_vector.h **** 	typedef __gnu_cxx::__alloc_traits<_Tp_alloc_type> _Tr;
 170:/home/zkmike/.local/share/renesas/e2_studio/toolchains/gcc_arm/gcc-arm-none-eabi-6-2017-q2-update/arm-none-eabi/include/c++/6.3.1/bits/stl_vector.h **** 	return __n != 0 ? _Tr::allocate(_M_impl, __n) : pointer();
 171:/home/zkmike/.local/share/renesas/e2_studio/toolchains/gcc_arm/gcc-arm-none-eabi-6-2017-q2-update/arm-none-eabi/include/c++/6.3.1/bits/stl_vector.h ****       }
 172:/home/zkmike/.local/share/renesas/e2_studio/toolchains/gcc_arm/gcc-arm-none-eabi-6-2017-q2-update/arm-none-eabi/include/c++/6.3.1/bits/stl_vector.h **** 
 173:/home/zkmike/.local/share/renesas/e2_studio/toolchains/gcc_arm/gcc-arm-none-eabi-6-2017-q2-update/arm-none-eabi/include/c++/6.3.1/bits/stl_vector.h ****       void
 174:/home/zkmike/.local/share/renesas/e2_studio/toolchains/gcc_arm/gcc-arm-none-eabi-6-2017-q2-update/arm-none-eabi/include/c++/6.3.1/bits/stl_vector.h ****       _M_deallocate(pointer __p, size_t __n)
 175:/home/zkmike/.local/share/renesas/e2_studio/toolchains/gcc_arm/gcc-arm-none-eabi-6-2017-q2-update/arm-none-eabi/include/c++/6.3.1/bits/stl_vector.h ****       {
 176:/home/zkmike/.local/share/renesas/e2_studio/toolchains/gcc_arm/gcc-arm-none-eabi-6-2017-q2-update/arm-none-eabi/include/c++/6.3.1/bits/stl_vector.h **** 	typedef __gnu_cxx::__alloc_traits<_Tp_alloc_type> _Tr;
 177:/home/zkmike/.local/share/renesas/e2_studio/toolchains/gcc_arm/gcc-arm-none-eabi-6-2017-q2-update/arm-none-eabi/include/c++/6.3.1/bits/stl_vector.h **** 	if (__p)
 178:/home/zkmike/.local/share/renesas/e2_studio/toolchains/gcc_arm/gcc-arm-none-eabi-6-2017-q2-update/arm-none-eabi/include/c++/6.3.1/bits/stl_vector.h **** 	  _Tr::deallocate(_M_impl, __p, __n);
 179:/home/zkmike/.local/share/renesas/e2_studio/toolchains/gcc_arm/gcc-arm-none-eabi-6-2017-q2-update/arm-none-eabi/include/c++/6.3.1/bits/stl_vector.h ****       }
 180:/home/zkmike/.local/share/renesas/e2_studio/toolchains/gcc_arm/gcc-arm-none-eabi-6-2017-q2-update/arm-none-eabi/include/c++/6.3.1/bits/stl_vector.h **** 
 181:/home/zkmike/.local/share/renesas/e2_studio/toolchains/gcc_arm/gcc-arm-none-eabi-6-2017-q2-update/arm-none-eabi/include/c++/6.3.1/bits/stl_vector.h ****     private:
 182:/home/zkmike/.local/share/renesas/e2_studio/toolchains/gcc_arm/gcc-arm-none-eabi-6-2017-q2-update/arm-none-eabi/include/c++/6.3.1/bits/stl_vector.h ****       void
 183:/home/zkmike/.local/share/renesas/e2_studio/toolchains/gcc_arm/gcc-arm-none-eabi-6-2017-q2-update/arm-none-eabi/include/c++/6.3.1/bits/stl_vector.h ****       _M_create_storage(size_t __n)
 184:/home/zkmike/.local/share/renesas/e2_studio/toolchains/gcc_arm/gcc-arm-none-eabi-6-2017-q2-update/arm-none-eabi/include/c++/6.3.1/bits/stl_vector.h ****       {
 185:/home/zkmike/.local/share/renesas/e2_studio/toolchains/gcc_arm/gcc-arm-none-eabi-6-2017-q2-update/arm-none-eabi/include/c++/6.3.1/bits/stl_vector.h **** 	this->_M_impl._M_start = this->_M_allocate(__n);
 186:/home/zkmike/.local/share/renesas/e2_studio/toolchains/gcc_arm/gcc-arm-none-eabi-6-2017-q2-update/arm-none-eabi/include/c++/6.3.1/bits/stl_vector.h **** 	this->_M_impl._M_finish = this->_M_impl._M_start;
 187:/home/zkmike/.local/share/renesas/e2_studio/toolchains/gcc_arm/gcc-arm-none-eabi-6-2017-q2-update/arm-none-eabi/include/c++/6.3.1/bits/stl_vector.h **** 	this->_M_impl._M_end_of_storage = this->_M_impl._M_start + __n;
 188:/home/zkmike/.local/share/renesas/e2_studio/toolchains/gcc_arm/gcc-arm-none-eabi-6-2017-q2-update/arm-none-eabi/include/c++/6.3.1/bits/stl_vector.h ****       }
 189:/home/zkmike/.local/share/renesas/e2_studio/toolchains/gcc_arm/gcc-arm-none-eabi-6-2017-q2-update/arm-none-eabi/include/c++/6.3.1/bits/stl_vector.h ****     };
 190:/home/zkmike/.local/share/renesas/e2_studio/toolchains/gcc_arm/gcc-arm-none-eabi-6-2017-q2-update/arm-none-eabi/include/c++/6.3.1/bits/stl_vector.h **** 
 191:/home/zkmike/.local/share/renesas/e2_studio/toolchains/gcc_arm/gcc-arm-none-eabi-6-2017-q2-update/arm-none-eabi/include/c++/6.3.1/bits/stl_vector.h **** 
 192:/home/zkmike/.local/share/renesas/e2_studio/toolchains/gcc_arm/gcc-arm-none-eabi-6-2017-q2-update/arm-none-eabi/include/c++/6.3.1/bits/stl_vector.h ****   /**
 193:/home/zkmike/.local/share/renesas/e2_studio/toolchains/gcc_arm/gcc-arm-none-eabi-6-2017-q2-update/arm-none-eabi/include/c++/6.3.1/bits/stl_vector.h ****    *  @brief A standard container which offers fixed time access to
 194:/home/zkmike/.local/share/renesas/e2_studio/toolchains/gcc_arm/gcc-arm-none-eabi-6-2017-q2-update/arm-none-eabi/include/c++/6.3.1/bits/stl_vector.h ****    *  individual elements in any order.
 195:/home/zkmike/.local/share/renesas/e2_studio/toolchains/gcc_arm/gcc-arm-none-eabi-6-2017-q2-update/arm-none-eabi/include/c++/6.3.1/bits/stl_vector.h ****    *
 196:/home/zkmike/.local/share/renesas/e2_studio/toolchains/gcc_arm/gcc-arm-none-eabi-6-2017-q2-update/arm-none-eabi/include/c++/6.3.1/bits/stl_vector.h ****    *  @ingroup sequences
 197:/home/zkmike/.local/share/renesas/e2_studio/toolchains/gcc_arm/gcc-arm-none-eabi-6-2017-q2-update/arm-none-eabi/include/c++/6.3.1/bits/stl_vector.h ****    *
 198:/home/zkmike/.local/share/renesas/e2_studio/toolchains/gcc_arm/gcc-arm-none-eabi-6-2017-q2-update/arm-none-eabi/include/c++/6.3.1/bits/stl_vector.h ****    *  @tparam _Tp  Type of element.
 199:/home/zkmike/.local/share/renesas/e2_studio/toolchains/gcc_arm/gcc-arm-none-eabi-6-2017-q2-update/arm-none-eabi/include/c++/6.3.1/bits/stl_vector.h ****    *  @tparam _Alloc  Allocator type, defaults to allocator<_Tp>.
 200:/home/zkmike/.local/share/renesas/e2_studio/toolchains/gcc_arm/gcc-arm-none-eabi-6-2017-q2-update/arm-none-eabi/include/c++/6.3.1/bits/stl_vector.h ****    *
 201:/home/zkmike/.local/share/renesas/e2_studio/toolchains/gcc_arm/gcc-arm-none-eabi-6-2017-q2-update/arm-none-eabi/include/c++/6.3.1/bits/stl_vector.h ****    *  Meets the requirements of a <a href="tables.html#65">container</a>, a
 202:/home/zkmike/.local/share/renesas/e2_studio/toolchains/gcc_arm/gcc-arm-none-eabi-6-2017-q2-update/arm-none-eabi/include/c++/6.3.1/bits/stl_vector.h ****    *  <a href="tables.html#66">reversible container</a>, and a
 203:/home/zkmike/.local/share/renesas/e2_studio/toolchains/gcc_arm/gcc-arm-none-eabi-6-2017-q2-update/arm-none-eabi/include/c++/6.3.1/bits/stl_vector.h ****    *  <a href="tables.html#67">sequence</a>, including the
 204:/home/zkmike/.local/share/renesas/e2_studio/toolchains/gcc_arm/gcc-arm-none-eabi-6-2017-q2-update/arm-none-eabi/include/c++/6.3.1/bits/stl_vector.h ****    *  <a href="tables.html#68">optional sequence requirements</a> with the
 205:/home/zkmike/.local/share/renesas/e2_studio/toolchains/gcc_arm/gcc-arm-none-eabi-6-2017-q2-update/arm-none-eabi/include/c++/6.3.1/bits/stl_vector.h ****    *  %exception of @c push_front and @c pop_front.
 206:/home/zkmike/.local/share/renesas/e2_studio/toolchains/gcc_arm/gcc-arm-none-eabi-6-2017-q2-update/arm-none-eabi/include/c++/6.3.1/bits/stl_vector.h ****    *
 207:/home/zkmike/.local/share/renesas/e2_studio/toolchains/gcc_arm/gcc-arm-none-eabi-6-2017-q2-update/arm-none-eabi/include/c++/6.3.1/bits/stl_vector.h ****    *  In some terminology a %vector can be described as a dynamic
 208:/home/zkmike/.local/share/renesas/e2_studio/toolchains/gcc_arm/gcc-arm-none-eabi-6-2017-q2-update/arm-none-eabi/include/c++/6.3.1/bits/stl_vector.h ****    *  C-style array, it offers fast and efficient access to individual
 209:/home/zkmike/.local/share/renesas/e2_studio/toolchains/gcc_arm/gcc-arm-none-eabi-6-2017-q2-update/arm-none-eabi/include/c++/6.3.1/bits/stl_vector.h ****    *  elements in any order and saves the user from worrying about
 210:/home/zkmike/.local/share/renesas/e2_studio/toolchains/gcc_arm/gcc-arm-none-eabi-6-2017-q2-update/arm-none-eabi/include/c++/6.3.1/bits/stl_vector.h ****    *  memory and size allocation.  Subscripting ( @c [] ) access is
 211:/home/zkmike/.local/share/renesas/e2_studio/toolchains/gcc_arm/gcc-arm-none-eabi-6-2017-q2-update/arm-none-eabi/include/c++/6.3.1/bits/stl_vector.h ****    *  also provided as with C-style arrays.
 212:/home/zkmike/.local/share/renesas/e2_studio/toolchains/gcc_arm/gcc-arm-none-eabi-6-2017-q2-update/arm-none-eabi/include/c++/6.3.1/bits/stl_vector.h ****   */
 213:/home/zkmike/.local/share/renesas/e2_studio/toolchains/gcc_arm/gcc-arm-none-eabi-6-2017-q2-update/arm-none-eabi/include/c++/6.3.1/bits/stl_vector.h ****   template<typename _Tp, typename _Alloc = std::allocator<_Tp> >
 214:/home/zkmike/.local/share/renesas/e2_studio/toolchains/gcc_arm/gcc-arm-none-eabi-6-2017-q2-update/arm-none-eabi/include/c++/6.3.1/bits/stl_vector.h ****     class vector : protected _Vector_base<_Tp, _Alloc>
 215:/home/zkmike/.local/share/renesas/e2_studio/toolchains/gcc_arm/gcc-arm-none-eabi-6-2017-q2-update/arm-none-eabi/include/c++/6.3.1/bits/stl_vector.h ****     {
 216:/home/zkmike/.local/share/renesas/e2_studio/toolchains/gcc_arm/gcc-arm-none-eabi-6-2017-q2-update/arm-none-eabi/include/c++/6.3.1/bits/stl_vector.h ****       // Concept requirements.
 217:/home/zkmike/.local/share/renesas/e2_studio/toolchains/gcc_arm/gcc-arm-none-eabi-6-2017-q2-update/arm-none-eabi/include/c++/6.3.1/bits/stl_vector.h ****       typedef typename _Alloc::value_type                _Alloc_value_type;
 218:/home/zkmike/.local/share/renesas/e2_studio/toolchains/gcc_arm/gcc-arm-none-eabi-6-2017-q2-update/arm-none-eabi/include/c++/6.3.1/bits/stl_vector.h **** #if __cplusplus < 201103L
 219:/home/zkmike/.local/share/renesas/e2_studio/toolchains/gcc_arm/gcc-arm-none-eabi-6-2017-q2-update/arm-none-eabi/include/c++/6.3.1/bits/stl_vector.h ****       __glibcxx_class_requires(_Tp, _SGIAssignableConcept)
 220:/home/zkmike/.local/share/renesas/e2_studio/toolchains/gcc_arm/gcc-arm-none-eabi-6-2017-q2-update/arm-none-eabi/include/c++/6.3.1/bits/stl_vector.h **** #endif
 221:/home/zkmike/.local/share/renesas/e2_studio/toolchains/gcc_arm/gcc-arm-none-eabi-6-2017-q2-update/arm-none-eabi/include/c++/6.3.1/bits/stl_vector.h ****       __glibcxx_class_requires2(_Tp, _Alloc_value_type, _SameTypeConcept)
 222:/home/zkmike/.local/share/renesas/e2_studio/toolchains/gcc_arm/gcc-arm-none-eabi-6-2017-q2-update/arm-none-eabi/include/c++/6.3.1/bits/stl_vector.h ****       
 223:/home/zkmike/.local/share/renesas/e2_studio/toolchains/gcc_arm/gcc-arm-none-eabi-6-2017-q2-update/arm-none-eabi/include/c++/6.3.1/bits/stl_vector.h ****       typedef _Vector_base<_Tp, _Alloc>			 _Base;
 224:/home/zkmike/.local/share/renesas/e2_studio/toolchains/gcc_arm/gcc-arm-none-eabi-6-2017-q2-update/arm-none-eabi/include/c++/6.3.1/bits/stl_vector.h ****       typedef typename _Base::_Tp_alloc_type		 _Tp_alloc_type;
 225:/home/zkmike/.local/share/renesas/e2_studio/toolchains/gcc_arm/gcc-arm-none-eabi-6-2017-q2-update/arm-none-eabi/include/c++/6.3.1/bits/stl_vector.h ****       typedef __gnu_cxx::__alloc_traits<_Tp_alloc_type>  _Alloc_traits;
 226:/home/zkmike/.local/share/renesas/e2_studio/toolchains/gcc_arm/gcc-arm-none-eabi-6-2017-q2-update/arm-none-eabi/include/c++/6.3.1/bits/stl_vector.h **** 
 227:/home/zkmike/.local/share/renesas/e2_studio/toolchains/gcc_arm/gcc-arm-none-eabi-6-2017-q2-update/arm-none-eabi/include/c++/6.3.1/bits/stl_vector.h ****     public:
 228:/home/zkmike/.local/share/renesas/e2_studio/toolchains/gcc_arm/gcc-arm-none-eabi-6-2017-q2-update/arm-none-eabi/include/c++/6.3.1/bits/stl_vector.h ****       typedef _Tp					 value_type;
 229:/home/zkmike/.local/share/renesas/e2_studio/toolchains/gcc_arm/gcc-arm-none-eabi-6-2017-q2-update/arm-none-eabi/include/c++/6.3.1/bits/stl_vector.h ****       typedef typename _Base::pointer                    pointer;
 230:/home/zkmike/.local/share/renesas/e2_studio/toolchains/gcc_arm/gcc-arm-none-eabi-6-2017-q2-update/arm-none-eabi/include/c++/6.3.1/bits/stl_vector.h ****       typedef typename _Alloc_traits::const_pointer      const_pointer;
 231:/home/zkmike/.local/share/renesas/e2_studio/toolchains/gcc_arm/gcc-arm-none-eabi-6-2017-q2-update/arm-none-eabi/include/c++/6.3.1/bits/stl_vector.h ****       typedef typename _Alloc_traits::reference          reference;
 232:/home/zkmike/.local/share/renesas/e2_studio/toolchains/gcc_arm/gcc-arm-none-eabi-6-2017-q2-update/arm-none-eabi/include/c++/6.3.1/bits/stl_vector.h ****       typedef typename _Alloc_traits::const_reference    const_reference;
 233:/home/zkmike/.local/share/renesas/e2_studio/toolchains/gcc_arm/gcc-arm-none-eabi-6-2017-q2-update/arm-none-eabi/include/c++/6.3.1/bits/stl_vector.h ****       typedef __gnu_cxx::__normal_iterator<pointer, vector> iterator;
 234:/home/zkmike/.local/share/renesas/e2_studio/toolchains/gcc_arm/gcc-arm-none-eabi-6-2017-q2-update/arm-none-eabi/include/c++/6.3.1/bits/stl_vector.h ****       typedef __gnu_cxx::__normal_iterator<const_pointer, vector>
 235:/home/zkmike/.local/share/renesas/e2_studio/toolchains/gcc_arm/gcc-arm-none-eabi-6-2017-q2-update/arm-none-eabi/include/c++/6.3.1/bits/stl_vector.h ****       const_iterator;
 236:/home/zkmike/.local/share/renesas/e2_studio/toolchains/gcc_arm/gcc-arm-none-eabi-6-2017-q2-update/arm-none-eabi/include/c++/6.3.1/bits/stl_vector.h ****       typedef std::reverse_iterator<const_iterator>  const_reverse_iterator;
 237:/home/zkmike/.local/share/renesas/e2_studio/toolchains/gcc_arm/gcc-arm-none-eabi-6-2017-q2-update/arm-none-eabi/include/c++/6.3.1/bits/stl_vector.h ****       typedef std::reverse_iterator<iterator>		 reverse_iterator;
 238:/home/zkmike/.local/share/renesas/e2_studio/toolchains/gcc_arm/gcc-arm-none-eabi-6-2017-q2-update/arm-none-eabi/include/c++/6.3.1/bits/stl_vector.h ****       typedef size_t					 size_type;
 239:/home/zkmike/.local/share/renesas/e2_studio/toolchains/gcc_arm/gcc-arm-none-eabi-6-2017-q2-update/arm-none-eabi/include/c++/6.3.1/bits/stl_vector.h ****       typedef ptrdiff_t					 difference_type;
 240:/home/zkmike/.local/share/renesas/e2_studio/toolchains/gcc_arm/gcc-arm-none-eabi-6-2017-q2-update/arm-none-eabi/include/c++/6.3.1/bits/stl_vector.h ****       typedef _Alloc                        		 allocator_type;
 241:/home/zkmike/.local/share/renesas/e2_studio/toolchains/gcc_arm/gcc-arm-none-eabi-6-2017-q2-update/arm-none-eabi/include/c++/6.3.1/bits/stl_vector.h **** 
 242:/home/zkmike/.local/share/renesas/e2_studio/toolchains/gcc_arm/gcc-arm-none-eabi-6-2017-q2-update/arm-none-eabi/include/c++/6.3.1/bits/stl_vector.h ****     protected:
 243:/home/zkmike/.local/share/renesas/e2_studio/toolchains/gcc_arm/gcc-arm-none-eabi-6-2017-q2-update/arm-none-eabi/include/c++/6.3.1/bits/stl_vector.h ****       using _Base::_M_allocate;
 244:/home/zkmike/.local/share/renesas/e2_studio/toolchains/gcc_arm/gcc-arm-none-eabi-6-2017-q2-update/arm-none-eabi/include/c++/6.3.1/bits/stl_vector.h ****       using _Base::_M_deallocate;
 245:/home/zkmike/.local/share/renesas/e2_studio/toolchains/gcc_arm/gcc-arm-none-eabi-6-2017-q2-update/arm-none-eabi/include/c++/6.3.1/bits/stl_vector.h ****       using _Base::_M_impl;
 246:/home/zkmike/.local/share/renesas/e2_studio/toolchains/gcc_arm/gcc-arm-none-eabi-6-2017-q2-update/arm-none-eabi/include/c++/6.3.1/bits/stl_vector.h ****       using _Base::_M_get_Tp_allocator;
 247:/home/zkmike/.local/share/renesas/e2_studio/toolchains/gcc_arm/gcc-arm-none-eabi-6-2017-q2-update/arm-none-eabi/include/c++/6.3.1/bits/stl_vector.h **** 
 248:/home/zkmike/.local/share/renesas/e2_studio/toolchains/gcc_arm/gcc-arm-none-eabi-6-2017-q2-update/arm-none-eabi/include/c++/6.3.1/bits/stl_vector.h ****     public:
 249:/home/zkmike/.local/share/renesas/e2_studio/toolchains/gcc_arm/gcc-arm-none-eabi-6-2017-q2-update/arm-none-eabi/include/c++/6.3.1/bits/stl_vector.h ****       // [23.2.4.1] construct/copy/destroy
 250:/home/zkmike/.local/share/renesas/e2_studio/toolchains/gcc_arm/gcc-arm-none-eabi-6-2017-q2-update/arm-none-eabi/include/c++/6.3.1/bits/stl_vector.h ****       // (assign() and get_allocator() are also listed in this section)
 251:/home/zkmike/.local/share/renesas/e2_studio/toolchains/gcc_arm/gcc-arm-none-eabi-6-2017-q2-update/arm-none-eabi/include/c++/6.3.1/bits/stl_vector.h **** 
 252:/home/zkmike/.local/share/renesas/e2_studio/toolchains/gcc_arm/gcc-arm-none-eabi-6-2017-q2-update/arm-none-eabi/include/c++/6.3.1/bits/stl_vector.h ****       /**
 253:/home/zkmike/.local/share/renesas/e2_studio/toolchains/gcc_arm/gcc-arm-none-eabi-6-2017-q2-update/arm-none-eabi/include/c++/6.3.1/bits/stl_vector.h ****        *  @brief  Creates a %vector with no elements.
 254:/home/zkmike/.local/share/renesas/e2_studio/toolchains/gcc_arm/gcc-arm-none-eabi-6-2017-q2-update/arm-none-eabi/include/c++/6.3.1/bits/stl_vector.h ****        */
 255:/home/zkmike/.local/share/renesas/e2_studio/toolchains/gcc_arm/gcc-arm-none-eabi-6-2017-q2-update/arm-none-eabi/include/c++/6.3.1/bits/stl_vector.h ****       vector()
 256:/home/zkmike/.local/share/renesas/e2_studio/toolchains/gcc_arm/gcc-arm-none-eabi-6-2017-q2-update/arm-none-eabi/include/c++/6.3.1/bits/stl_vector.h **** #if __cplusplus >= 201103L
 257:/home/zkmike/.local/share/renesas/e2_studio/toolchains/gcc_arm/gcc-arm-none-eabi-6-2017-q2-update/arm-none-eabi/include/c++/6.3.1/bits/stl_vector.h ****       noexcept(is_nothrow_default_constructible<_Alloc>::value)
 258:/home/zkmike/.local/share/renesas/e2_studio/toolchains/gcc_arm/gcc-arm-none-eabi-6-2017-q2-update/arm-none-eabi/include/c++/6.3.1/bits/stl_vector.h **** #endif
 259:/home/zkmike/.local/share/renesas/e2_studio/toolchains/gcc_arm/gcc-arm-none-eabi-6-2017-q2-update/arm-none-eabi/include/c++/6.3.1/bits/stl_vector.h ****       : _Base() { }
 260:/home/zkmike/.local/share/renesas/e2_studio/toolchains/gcc_arm/gcc-arm-none-eabi-6-2017-q2-update/arm-none-eabi/include/c++/6.3.1/bits/stl_vector.h **** 
 261:/home/zkmike/.local/share/renesas/e2_studio/toolchains/gcc_arm/gcc-arm-none-eabi-6-2017-q2-update/arm-none-eabi/include/c++/6.3.1/bits/stl_vector.h ****       /**
 262:/home/zkmike/.local/share/renesas/e2_studio/toolchains/gcc_arm/gcc-arm-none-eabi-6-2017-q2-update/arm-none-eabi/include/c++/6.3.1/bits/stl_vector.h ****        *  @brief  Creates a %vector with no elements.
 263:/home/zkmike/.local/share/renesas/e2_studio/toolchains/gcc_arm/gcc-arm-none-eabi-6-2017-q2-update/arm-none-eabi/include/c++/6.3.1/bits/stl_vector.h ****        *  @param  __a  An allocator object.
 264:/home/zkmike/.local/share/renesas/e2_studio/toolchains/gcc_arm/gcc-arm-none-eabi-6-2017-q2-update/arm-none-eabi/include/c++/6.3.1/bits/stl_vector.h ****        */
 265:/home/zkmike/.local/share/renesas/e2_studio/toolchains/gcc_arm/gcc-arm-none-eabi-6-2017-q2-update/arm-none-eabi/include/c++/6.3.1/bits/stl_vector.h ****       explicit
 266:/home/zkmike/.local/share/renesas/e2_studio/toolchains/gcc_arm/gcc-arm-none-eabi-6-2017-q2-update/arm-none-eabi/include/c++/6.3.1/bits/stl_vector.h ****       vector(const allocator_type& __a) _GLIBCXX_NOEXCEPT
 267:/home/zkmike/.local/share/renesas/e2_studio/toolchains/gcc_arm/gcc-arm-none-eabi-6-2017-q2-update/arm-none-eabi/include/c++/6.3.1/bits/stl_vector.h ****       : _Base(__a) { }
 268:/home/zkmike/.local/share/renesas/e2_studio/toolchains/gcc_arm/gcc-arm-none-eabi-6-2017-q2-update/arm-none-eabi/include/c++/6.3.1/bits/stl_vector.h **** 
 269:/home/zkmike/.local/share/renesas/e2_studio/toolchains/gcc_arm/gcc-arm-none-eabi-6-2017-q2-update/arm-none-eabi/include/c++/6.3.1/bits/stl_vector.h **** #if __cplusplus >= 201103L
 270:/home/zkmike/.local/share/renesas/e2_studio/toolchains/gcc_arm/gcc-arm-none-eabi-6-2017-q2-update/arm-none-eabi/include/c++/6.3.1/bits/stl_vector.h ****       /**
 271:/home/zkmike/.local/share/renesas/e2_studio/toolchains/gcc_arm/gcc-arm-none-eabi-6-2017-q2-update/arm-none-eabi/include/c++/6.3.1/bits/stl_vector.h ****        *  @brief  Creates a %vector with default constructed elements.
 272:/home/zkmike/.local/share/renesas/e2_studio/toolchains/gcc_arm/gcc-arm-none-eabi-6-2017-q2-update/arm-none-eabi/include/c++/6.3.1/bits/stl_vector.h ****        *  @param  __n  The number of elements to initially create.
 273:/home/zkmike/.local/share/renesas/e2_studio/toolchains/gcc_arm/gcc-arm-none-eabi-6-2017-q2-update/arm-none-eabi/include/c++/6.3.1/bits/stl_vector.h ****        *  @param  __a  An allocator.
 274:/home/zkmike/.local/share/renesas/e2_studio/toolchains/gcc_arm/gcc-arm-none-eabi-6-2017-q2-update/arm-none-eabi/include/c++/6.3.1/bits/stl_vector.h ****        *
 275:/home/zkmike/.local/share/renesas/e2_studio/toolchains/gcc_arm/gcc-arm-none-eabi-6-2017-q2-update/arm-none-eabi/include/c++/6.3.1/bits/stl_vector.h ****        *  This constructor fills the %vector with @a __n default
 276:/home/zkmike/.local/share/renesas/e2_studio/toolchains/gcc_arm/gcc-arm-none-eabi-6-2017-q2-update/arm-none-eabi/include/c++/6.3.1/bits/stl_vector.h ****        *  constructed elements.
 277:/home/zkmike/.local/share/renesas/e2_studio/toolchains/gcc_arm/gcc-arm-none-eabi-6-2017-q2-update/arm-none-eabi/include/c++/6.3.1/bits/stl_vector.h ****        */
 278:/home/zkmike/.local/share/renesas/e2_studio/toolchains/gcc_arm/gcc-arm-none-eabi-6-2017-q2-update/arm-none-eabi/include/c++/6.3.1/bits/stl_vector.h ****       explicit
 279:/home/zkmike/.local/share/renesas/e2_studio/toolchains/gcc_arm/gcc-arm-none-eabi-6-2017-q2-update/arm-none-eabi/include/c++/6.3.1/bits/stl_vector.h ****       vector(size_type __n, const allocator_type& __a = allocator_type())
 280:/home/zkmike/.local/share/renesas/e2_studio/toolchains/gcc_arm/gcc-arm-none-eabi-6-2017-q2-update/arm-none-eabi/include/c++/6.3.1/bits/stl_vector.h ****       : _Base(__n, __a)
 281:/home/zkmike/.local/share/renesas/e2_studio/toolchains/gcc_arm/gcc-arm-none-eabi-6-2017-q2-update/arm-none-eabi/include/c++/6.3.1/bits/stl_vector.h ****       { _M_default_initialize(__n); }
 282:/home/zkmike/.local/share/renesas/e2_studio/toolchains/gcc_arm/gcc-arm-none-eabi-6-2017-q2-update/arm-none-eabi/include/c++/6.3.1/bits/stl_vector.h **** 
 283:/home/zkmike/.local/share/renesas/e2_studio/toolchains/gcc_arm/gcc-arm-none-eabi-6-2017-q2-update/arm-none-eabi/include/c++/6.3.1/bits/stl_vector.h ****       /**
 284:/home/zkmike/.local/share/renesas/e2_studio/toolchains/gcc_arm/gcc-arm-none-eabi-6-2017-q2-update/arm-none-eabi/include/c++/6.3.1/bits/stl_vector.h ****        *  @brief  Creates a %vector with copies of an exemplar element.
 285:/home/zkmike/.local/share/renesas/e2_studio/toolchains/gcc_arm/gcc-arm-none-eabi-6-2017-q2-update/arm-none-eabi/include/c++/6.3.1/bits/stl_vector.h ****        *  @param  __n  The number of elements to initially create.
 286:/home/zkmike/.local/share/renesas/e2_studio/toolchains/gcc_arm/gcc-arm-none-eabi-6-2017-q2-update/arm-none-eabi/include/c++/6.3.1/bits/stl_vector.h ****        *  @param  __value  An element to copy.
 287:/home/zkmike/.local/share/renesas/e2_studio/toolchains/gcc_arm/gcc-arm-none-eabi-6-2017-q2-update/arm-none-eabi/include/c++/6.3.1/bits/stl_vector.h ****        *  @param  __a  An allocator.
 288:/home/zkmike/.local/share/renesas/e2_studio/toolchains/gcc_arm/gcc-arm-none-eabi-6-2017-q2-update/arm-none-eabi/include/c++/6.3.1/bits/stl_vector.h ****        *
 289:/home/zkmike/.local/share/renesas/e2_studio/toolchains/gcc_arm/gcc-arm-none-eabi-6-2017-q2-update/arm-none-eabi/include/c++/6.3.1/bits/stl_vector.h ****        *  This constructor fills the %vector with @a __n copies of @a __value.
 290:/home/zkmike/.local/share/renesas/e2_studio/toolchains/gcc_arm/gcc-arm-none-eabi-6-2017-q2-update/arm-none-eabi/include/c++/6.3.1/bits/stl_vector.h ****        */
 291:/home/zkmike/.local/share/renesas/e2_studio/toolchains/gcc_arm/gcc-arm-none-eabi-6-2017-q2-update/arm-none-eabi/include/c++/6.3.1/bits/stl_vector.h ****       vector(size_type __n, const value_type& __value,
 292:/home/zkmike/.local/share/renesas/e2_studio/toolchains/gcc_arm/gcc-arm-none-eabi-6-2017-q2-update/arm-none-eabi/include/c++/6.3.1/bits/stl_vector.h **** 	     const allocator_type& __a = allocator_type())
 293:/home/zkmike/.local/share/renesas/e2_studio/toolchains/gcc_arm/gcc-arm-none-eabi-6-2017-q2-update/arm-none-eabi/include/c++/6.3.1/bits/stl_vector.h ****       : _Base(__n, __a)
 294:/home/zkmike/.local/share/renesas/e2_studio/toolchains/gcc_arm/gcc-arm-none-eabi-6-2017-q2-update/arm-none-eabi/include/c++/6.3.1/bits/stl_vector.h ****       { _M_fill_initialize(__n, __value); }
 295:/home/zkmike/.local/share/renesas/e2_studio/toolchains/gcc_arm/gcc-arm-none-eabi-6-2017-q2-update/arm-none-eabi/include/c++/6.3.1/bits/stl_vector.h **** #else
 296:/home/zkmike/.local/share/renesas/e2_studio/toolchains/gcc_arm/gcc-arm-none-eabi-6-2017-q2-update/arm-none-eabi/include/c++/6.3.1/bits/stl_vector.h ****       /**
 297:/home/zkmike/.local/share/renesas/e2_studio/toolchains/gcc_arm/gcc-arm-none-eabi-6-2017-q2-update/arm-none-eabi/include/c++/6.3.1/bits/stl_vector.h ****        *  @brief  Creates a %vector with copies of an exemplar element.
 298:/home/zkmike/.local/share/renesas/e2_studio/toolchains/gcc_arm/gcc-arm-none-eabi-6-2017-q2-update/arm-none-eabi/include/c++/6.3.1/bits/stl_vector.h ****        *  @param  __n  The number of elements to initially create.
 299:/home/zkmike/.local/share/renesas/e2_studio/toolchains/gcc_arm/gcc-arm-none-eabi-6-2017-q2-update/arm-none-eabi/include/c++/6.3.1/bits/stl_vector.h ****        *  @param  __value  An element to copy.
 300:/home/zkmike/.local/share/renesas/e2_studio/toolchains/gcc_arm/gcc-arm-none-eabi-6-2017-q2-update/arm-none-eabi/include/c++/6.3.1/bits/stl_vector.h ****        *  @param  __a  An allocator.
 301:/home/zkmike/.local/share/renesas/e2_studio/toolchains/gcc_arm/gcc-arm-none-eabi-6-2017-q2-update/arm-none-eabi/include/c++/6.3.1/bits/stl_vector.h ****        *
 302:/home/zkmike/.local/share/renesas/e2_studio/toolchains/gcc_arm/gcc-arm-none-eabi-6-2017-q2-update/arm-none-eabi/include/c++/6.3.1/bits/stl_vector.h ****        *  This constructor fills the %vector with @a __n copies of @a __value.
 303:/home/zkmike/.local/share/renesas/e2_studio/toolchains/gcc_arm/gcc-arm-none-eabi-6-2017-q2-update/arm-none-eabi/include/c++/6.3.1/bits/stl_vector.h ****        */
 304:/home/zkmike/.local/share/renesas/e2_studio/toolchains/gcc_arm/gcc-arm-none-eabi-6-2017-q2-update/arm-none-eabi/include/c++/6.3.1/bits/stl_vector.h ****       explicit
 305:/home/zkmike/.local/share/renesas/e2_studio/toolchains/gcc_arm/gcc-arm-none-eabi-6-2017-q2-update/arm-none-eabi/include/c++/6.3.1/bits/stl_vector.h ****       vector(size_type __n, const value_type& __value = value_type(),
 306:/home/zkmike/.local/share/renesas/e2_studio/toolchains/gcc_arm/gcc-arm-none-eabi-6-2017-q2-update/arm-none-eabi/include/c++/6.3.1/bits/stl_vector.h **** 	     const allocator_type& __a = allocator_type())
 307:/home/zkmike/.local/share/renesas/e2_studio/toolchains/gcc_arm/gcc-arm-none-eabi-6-2017-q2-update/arm-none-eabi/include/c++/6.3.1/bits/stl_vector.h ****       : _Base(__n, __a)
 308:/home/zkmike/.local/share/renesas/e2_studio/toolchains/gcc_arm/gcc-arm-none-eabi-6-2017-q2-update/arm-none-eabi/include/c++/6.3.1/bits/stl_vector.h ****       { _M_fill_initialize(__n, __value); }
 309:/home/zkmike/.local/share/renesas/e2_studio/toolchains/gcc_arm/gcc-arm-none-eabi-6-2017-q2-update/arm-none-eabi/include/c++/6.3.1/bits/stl_vector.h **** #endif
 310:/home/zkmike/.local/share/renesas/e2_studio/toolchains/gcc_arm/gcc-arm-none-eabi-6-2017-q2-update/arm-none-eabi/include/c++/6.3.1/bits/stl_vector.h **** 
 311:/home/zkmike/.local/share/renesas/e2_studio/toolchains/gcc_arm/gcc-arm-none-eabi-6-2017-q2-update/arm-none-eabi/include/c++/6.3.1/bits/stl_vector.h ****       /**
 312:/home/zkmike/.local/share/renesas/e2_studio/toolchains/gcc_arm/gcc-arm-none-eabi-6-2017-q2-update/arm-none-eabi/include/c++/6.3.1/bits/stl_vector.h ****        *  @brief  %Vector copy constructor.
 313:/home/zkmike/.local/share/renesas/e2_studio/toolchains/gcc_arm/gcc-arm-none-eabi-6-2017-q2-update/arm-none-eabi/include/c++/6.3.1/bits/stl_vector.h ****        *  @param  __x  A %vector of identical element and allocator types.
 314:/home/zkmike/.local/share/renesas/e2_studio/toolchains/gcc_arm/gcc-arm-none-eabi-6-2017-q2-update/arm-none-eabi/include/c++/6.3.1/bits/stl_vector.h ****        *
 315:/home/zkmike/.local/share/renesas/e2_studio/toolchains/gcc_arm/gcc-arm-none-eabi-6-2017-q2-update/arm-none-eabi/include/c++/6.3.1/bits/stl_vector.h ****        *  The newly-created %vector uses a copy of the allocation
 316:/home/zkmike/.local/share/renesas/e2_studio/toolchains/gcc_arm/gcc-arm-none-eabi-6-2017-q2-update/arm-none-eabi/include/c++/6.3.1/bits/stl_vector.h ****        *  object used by @a __x.  All the elements of @a __x are copied,
 317:/home/zkmike/.local/share/renesas/e2_studio/toolchains/gcc_arm/gcc-arm-none-eabi-6-2017-q2-update/arm-none-eabi/include/c++/6.3.1/bits/stl_vector.h ****        *  but any extra memory in
 318:/home/zkmike/.local/share/renesas/e2_studio/toolchains/gcc_arm/gcc-arm-none-eabi-6-2017-q2-update/arm-none-eabi/include/c++/6.3.1/bits/stl_vector.h ****        *  @a __x (for fast expansion) will not be copied.
 319:/home/zkmike/.local/share/renesas/e2_studio/toolchains/gcc_arm/gcc-arm-none-eabi-6-2017-q2-update/arm-none-eabi/include/c++/6.3.1/bits/stl_vector.h ****        */
 320:/home/zkmike/.local/share/renesas/e2_studio/toolchains/gcc_arm/gcc-arm-none-eabi-6-2017-q2-update/arm-none-eabi/include/c++/6.3.1/bits/stl_vector.h ****       vector(const vector& __x)
 321:/home/zkmike/.local/share/renesas/e2_studio/toolchains/gcc_arm/gcc-arm-none-eabi-6-2017-q2-update/arm-none-eabi/include/c++/6.3.1/bits/stl_vector.h ****       : _Base(__x.size(),
 322:/home/zkmike/.local/share/renesas/e2_studio/toolchains/gcc_arm/gcc-arm-none-eabi-6-2017-q2-update/arm-none-eabi/include/c++/6.3.1/bits/stl_vector.h ****         _Alloc_traits::_S_select_on_copy(__x._M_get_Tp_allocator()))
 323:/home/zkmike/.local/share/renesas/e2_studio/toolchains/gcc_arm/gcc-arm-none-eabi-6-2017-q2-update/arm-none-eabi/include/c++/6.3.1/bits/stl_vector.h ****       { this->_M_impl._M_finish =
 324:/home/zkmike/.local/share/renesas/e2_studio/toolchains/gcc_arm/gcc-arm-none-eabi-6-2017-q2-update/arm-none-eabi/include/c++/6.3.1/bits/stl_vector.h **** 	  std::__uninitialized_copy_a(__x.begin(), __x.end(),
 325:/home/zkmike/.local/share/renesas/e2_studio/toolchains/gcc_arm/gcc-arm-none-eabi-6-2017-q2-update/arm-none-eabi/include/c++/6.3.1/bits/stl_vector.h **** 				      this->_M_impl._M_start,
 326:/home/zkmike/.local/share/renesas/e2_studio/toolchains/gcc_arm/gcc-arm-none-eabi-6-2017-q2-update/arm-none-eabi/include/c++/6.3.1/bits/stl_vector.h **** 				      _M_get_Tp_allocator());
 327:/home/zkmike/.local/share/renesas/e2_studio/toolchains/gcc_arm/gcc-arm-none-eabi-6-2017-q2-update/arm-none-eabi/include/c++/6.3.1/bits/stl_vector.h ****       }
 328:/home/zkmike/.local/share/renesas/e2_studio/toolchains/gcc_arm/gcc-arm-none-eabi-6-2017-q2-update/arm-none-eabi/include/c++/6.3.1/bits/stl_vector.h **** 
 329:/home/zkmike/.local/share/renesas/e2_studio/toolchains/gcc_arm/gcc-arm-none-eabi-6-2017-q2-update/arm-none-eabi/include/c++/6.3.1/bits/stl_vector.h **** #if __cplusplus >= 201103L
 330:/home/zkmike/.local/share/renesas/e2_studio/toolchains/gcc_arm/gcc-arm-none-eabi-6-2017-q2-update/arm-none-eabi/include/c++/6.3.1/bits/stl_vector.h ****       /**
 331:/home/zkmike/.local/share/renesas/e2_studio/toolchains/gcc_arm/gcc-arm-none-eabi-6-2017-q2-update/arm-none-eabi/include/c++/6.3.1/bits/stl_vector.h ****        *  @brief  %Vector move constructor.
 332:/home/zkmike/.local/share/renesas/e2_studio/toolchains/gcc_arm/gcc-arm-none-eabi-6-2017-q2-update/arm-none-eabi/include/c++/6.3.1/bits/stl_vector.h ****        *  @param  __x  A %vector of identical element and allocator types.
 333:/home/zkmike/.local/share/renesas/e2_studio/toolchains/gcc_arm/gcc-arm-none-eabi-6-2017-q2-update/arm-none-eabi/include/c++/6.3.1/bits/stl_vector.h ****        *
 334:/home/zkmike/.local/share/renesas/e2_studio/toolchains/gcc_arm/gcc-arm-none-eabi-6-2017-q2-update/arm-none-eabi/include/c++/6.3.1/bits/stl_vector.h ****        *  The newly-created %vector contains the exact contents of @a __x.
 335:/home/zkmike/.local/share/renesas/e2_studio/toolchains/gcc_arm/gcc-arm-none-eabi-6-2017-q2-update/arm-none-eabi/include/c++/6.3.1/bits/stl_vector.h ****        *  The contents of @a __x are a valid, but unspecified %vector.
 336:/home/zkmike/.local/share/renesas/e2_studio/toolchains/gcc_arm/gcc-arm-none-eabi-6-2017-q2-update/arm-none-eabi/include/c++/6.3.1/bits/stl_vector.h ****        */
 337:/home/zkmike/.local/share/renesas/e2_studio/toolchains/gcc_arm/gcc-arm-none-eabi-6-2017-q2-update/arm-none-eabi/include/c++/6.3.1/bits/stl_vector.h ****       vector(vector&& __x) noexcept
 338:/home/zkmike/.local/share/renesas/e2_studio/toolchains/gcc_arm/gcc-arm-none-eabi-6-2017-q2-update/arm-none-eabi/include/c++/6.3.1/bits/stl_vector.h ****       : _Base(std::move(__x)) { }
 339:/home/zkmike/.local/share/renesas/e2_studio/toolchains/gcc_arm/gcc-arm-none-eabi-6-2017-q2-update/arm-none-eabi/include/c++/6.3.1/bits/stl_vector.h **** 
 340:/home/zkmike/.local/share/renesas/e2_studio/toolchains/gcc_arm/gcc-arm-none-eabi-6-2017-q2-update/arm-none-eabi/include/c++/6.3.1/bits/stl_vector.h ****       /// Copy constructor with alternative allocator
 341:/home/zkmike/.local/share/renesas/e2_studio/toolchains/gcc_arm/gcc-arm-none-eabi-6-2017-q2-update/arm-none-eabi/include/c++/6.3.1/bits/stl_vector.h ****       vector(const vector& __x, const allocator_type& __a)
 342:/home/zkmike/.local/share/renesas/e2_studio/toolchains/gcc_arm/gcc-arm-none-eabi-6-2017-q2-update/arm-none-eabi/include/c++/6.3.1/bits/stl_vector.h ****       : _Base(__x.size(), __a)
 343:/home/zkmike/.local/share/renesas/e2_studio/toolchains/gcc_arm/gcc-arm-none-eabi-6-2017-q2-update/arm-none-eabi/include/c++/6.3.1/bits/stl_vector.h ****       { this->_M_impl._M_finish =
 344:/home/zkmike/.local/share/renesas/e2_studio/toolchains/gcc_arm/gcc-arm-none-eabi-6-2017-q2-update/arm-none-eabi/include/c++/6.3.1/bits/stl_vector.h **** 	  std::__uninitialized_copy_a(__x.begin(), __x.end(),
 345:/home/zkmike/.local/share/renesas/e2_studio/toolchains/gcc_arm/gcc-arm-none-eabi-6-2017-q2-update/arm-none-eabi/include/c++/6.3.1/bits/stl_vector.h **** 				      this->_M_impl._M_start,
 346:/home/zkmike/.local/share/renesas/e2_studio/toolchains/gcc_arm/gcc-arm-none-eabi-6-2017-q2-update/arm-none-eabi/include/c++/6.3.1/bits/stl_vector.h **** 				      _M_get_Tp_allocator());
 347:/home/zkmike/.local/share/renesas/e2_studio/toolchains/gcc_arm/gcc-arm-none-eabi-6-2017-q2-update/arm-none-eabi/include/c++/6.3.1/bits/stl_vector.h ****       }
 348:/home/zkmike/.local/share/renesas/e2_studio/toolchains/gcc_arm/gcc-arm-none-eabi-6-2017-q2-update/arm-none-eabi/include/c++/6.3.1/bits/stl_vector.h **** 
 349:/home/zkmike/.local/share/renesas/e2_studio/toolchains/gcc_arm/gcc-arm-none-eabi-6-2017-q2-update/arm-none-eabi/include/c++/6.3.1/bits/stl_vector.h ****       /// Move constructor with alternative allocator
 350:/home/zkmike/.local/share/renesas/e2_studio/toolchains/gcc_arm/gcc-arm-none-eabi-6-2017-q2-update/arm-none-eabi/include/c++/6.3.1/bits/stl_vector.h ****       vector(vector&& __rv, const allocator_type& __m)
 351:/home/zkmike/.local/share/renesas/e2_studio/toolchains/gcc_arm/gcc-arm-none-eabi-6-2017-q2-update/arm-none-eabi/include/c++/6.3.1/bits/stl_vector.h ****       noexcept(_Alloc_traits::_S_always_equal())
 352:/home/zkmike/.local/share/renesas/e2_studio/toolchains/gcc_arm/gcc-arm-none-eabi-6-2017-q2-update/arm-none-eabi/include/c++/6.3.1/bits/stl_vector.h ****       : _Base(std::move(__rv), __m)
 353:/home/zkmike/.local/share/renesas/e2_studio/toolchains/gcc_arm/gcc-arm-none-eabi-6-2017-q2-update/arm-none-eabi/include/c++/6.3.1/bits/stl_vector.h ****       {
 354:/home/zkmike/.local/share/renesas/e2_studio/toolchains/gcc_arm/gcc-arm-none-eabi-6-2017-q2-update/arm-none-eabi/include/c++/6.3.1/bits/stl_vector.h **** 	if (__rv.get_allocator() != __m)
 355:/home/zkmike/.local/share/renesas/e2_studio/toolchains/gcc_arm/gcc-arm-none-eabi-6-2017-q2-update/arm-none-eabi/include/c++/6.3.1/bits/stl_vector.h **** 	  {
 356:/home/zkmike/.local/share/renesas/e2_studio/toolchains/gcc_arm/gcc-arm-none-eabi-6-2017-q2-update/arm-none-eabi/include/c++/6.3.1/bits/stl_vector.h **** 	    this->_M_impl._M_finish =
 357:/home/zkmike/.local/share/renesas/e2_studio/toolchains/gcc_arm/gcc-arm-none-eabi-6-2017-q2-update/arm-none-eabi/include/c++/6.3.1/bits/stl_vector.h **** 	      std::__uninitialized_move_a(__rv.begin(), __rv.end(),
 358:/home/zkmike/.local/share/renesas/e2_studio/toolchains/gcc_arm/gcc-arm-none-eabi-6-2017-q2-update/arm-none-eabi/include/c++/6.3.1/bits/stl_vector.h **** 					  this->_M_impl._M_start,
 359:/home/zkmike/.local/share/renesas/e2_studio/toolchains/gcc_arm/gcc-arm-none-eabi-6-2017-q2-update/arm-none-eabi/include/c++/6.3.1/bits/stl_vector.h **** 					  _M_get_Tp_allocator());
 360:/home/zkmike/.local/share/renesas/e2_studio/toolchains/gcc_arm/gcc-arm-none-eabi-6-2017-q2-update/arm-none-eabi/include/c++/6.3.1/bits/stl_vector.h **** 	    __rv.clear();
 361:/home/zkmike/.local/share/renesas/e2_studio/toolchains/gcc_arm/gcc-arm-none-eabi-6-2017-q2-update/arm-none-eabi/include/c++/6.3.1/bits/stl_vector.h **** 	  }
 362:/home/zkmike/.local/share/renesas/e2_studio/toolchains/gcc_arm/gcc-arm-none-eabi-6-2017-q2-update/arm-none-eabi/include/c++/6.3.1/bits/stl_vector.h ****       }
 363:/home/zkmike/.local/share/renesas/e2_studio/toolchains/gcc_arm/gcc-arm-none-eabi-6-2017-q2-update/arm-none-eabi/include/c++/6.3.1/bits/stl_vector.h **** 
 364:/home/zkmike/.local/share/renesas/e2_studio/toolchains/gcc_arm/gcc-arm-none-eabi-6-2017-q2-update/arm-none-eabi/include/c++/6.3.1/bits/stl_vector.h ****       /**
 365:/home/zkmike/.local/share/renesas/e2_studio/toolchains/gcc_arm/gcc-arm-none-eabi-6-2017-q2-update/arm-none-eabi/include/c++/6.3.1/bits/stl_vector.h ****        *  @brief  Builds a %vector from an initializer list.
 366:/home/zkmike/.local/share/renesas/e2_studio/toolchains/gcc_arm/gcc-arm-none-eabi-6-2017-q2-update/arm-none-eabi/include/c++/6.3.1/bits/stl_vector.h ****        *  @param  __l  An initializer_list.
 367:/home/zkmike/.local/share/renesas/e2_studio/toolchains/gcc_arm/gcc-arm-none-eabi-6-2017-q2-update/arm-none-eabi/include/c++/6.3.1/bits/stl_vector.h ****        *  @param  __a  An allocator.
 368:/home/zkmike/.local/share/renesas/e2_studio/toolchains/gcc_arm/gcc-arm-none-eabi-6-2017-q2-update/arm-none-eabi/include/c++/6.3.1/bits/stl_vector.h ****        *
 369:/home/zkmike/.local/share/renesas/e2_studio/toolchains/gcc_arm/gcc-arm-none-eabi-6-2017-q2-update/arm-none-eabi/include/c++/6.3.1/bits/stl_vector.h ****        *  Create a %vector consisting of copies of the elements in the
 370:/home/zkmike/.local/share/renesas/e2_studio/toolchains/gcc_arm/gcc-arm-none-eabi-6-2017-q2-update/arm-none-eabi/include/c++/6.3.1/bits/stl_vector.h ****        *  initializer_list @a __l.
 371:/home/zkmike/.local/share/renesas/e2_studio/toolchains/gcc_arm/gcc-arm-none-eabi-6-2017-q2-update/arm-none-eabi/include/c++/6.3.1/bits/stl_vector.h ****        *
 372:/home/zkmike/.local/share/renesas/e2_studio/toolchains/gcc_arm/gcc-arm-none-eabi-6-2017-q2-update/arm-none-eabi/include/c++/6.3.1/bits/stl_vector.h ****        *  This will call the element type's copy constructor N times
 373:/home/zkmike/.local/share/renesas/e2_studio/toolchains/gcc_arm/gcc-arm-none-eabi-6-2017-q2-update/arm-none-eabi/include/c++/6.3.1/bits/stl_vector.h ****        *  (where N is @a __l.size()) and do no memory reallocation.
 374:/home/zkmike/.local/share/renesas/e2_studio/toolchains/gcc_arm/gcc-arm-none-eabi-6-2017-q2-update/arm-none-eabi/include/c++/6.3.1/bits/stl_vector.h ****        */
 375:/home/zkmike/.local/share/renesas/e2_studio/toolchains/gcc_arm/gcc-arm-none-eabi-6-2017-q2-update/arm-none-eabi/include/c++/6.3.1/bits/stl_vector.h ****       vector(initializer_list<value_type> __l,
 376:/home/zkmike/.local/share/renesas/e2_studio/toolchains/gcc_arm/gcc-arm-none-eabi-6-2017-q2-update/arm-none-eabi/include/c++/6.3.1/bits/stl_vector.h **** 	     const allocator_type& __a = allocator_type())
 377:/home/zkmike/.local/share/renesas/e2_studio/toolchains/gcc_arm/gcc-arm-none-eabi-6-2017-q2-update/arm-none-eabi/include/c++/6.3.1/bits/stl_vector.h ****       : _Base(__a)
 378:/home/zkmike/.local/share/renesas/e2_studio/toolchains/gcc_arm/gcc-arm-none-eabi-6-2017-q2-update/arm-none-eabi/include/c++/6.3.1/bits/stl_vector.h ****       {
 379:/home/zkmike/.local/share/renesas/e2_studio/toolchains/gcc_arm/gcc-arm-none-eabi-6-2017-q2-update/arm-none-eabi/include/c++/6.3.1/bits/stl_vector.h **** 	_M_range_initialize(__l.begin(), __l.end(),
 380:/home/zkmike/.local/share/renesas/e2_studio/toolchains/gcc_arm/gcc-arm-none-eabi-6-2017-q2-update/arm-none-eabi/include/c++/6.3.1/bits/stl_vector.h **** 			    random_access_iterator_tag());
 381:/home/zkmike/.local/share/renesas/e2_studio/toolchains/gcc_arm/gcc-arm-none-eabi-6-2017-q2-update/arm-none-eabi/include/c++/6.3.1/bits/stl_vector.h ****       }
 382:/home/zkmike/.local/share/renesas/e2_studio/toolchains/gcc_arm/gcc-arm-none-eabi-6-2017-q2-update/arm-none-eabi/include/c++/6.3.1/bits/stl_vector.h **** #endif
 383:/home/zkmike/.local/share/renesas/e2_studio/toolchains/gcc_arm/gcc-arm-none-eabi-6-2017-q2-update/arm-none-eabi/include/c++/6.3.1/bits/stl_vector.h **** 
 384:/home/zkmike/.local/share/renesas/e2_studio/toolchains/gcc_arm/gcc-arm-none-eabi-6-2017-q2-update/arm-none-eabi/include/c++/6.3.1/bits/stl_vector.h ****       /**
 385:/home/zkmike/.local/share/renesas/e2_studio/toolchains/gcc_arm/gcc-arm-none-eabi-6-2017-q2-update/arm-none-eabi/include/c++/6.3.1/bits/stl_vector.h ****        *  @brief  Builds a %vector from a range.
 386:/home/zkmike/.local/share/renesas/e2_studio/toolchains/gcc_arm/gcc-arm-none-eabi-6-2017-q2-update/arm-none-eabi/include/c++/6.3.1/bits/stl_vector.h ****        *  @param  __first  An input iterator.
 387:/home/zkmike/.local/share/renesas/e2_studio/toolchains/gcc_arm/gcc-arm-none-eabi-6-2017-q2-update/arm-none-eabi/include/c++/6.3.1/bits/stl_vector.h ****        *  @param  __last  An input iterator.
 388:/home/zkmike/.local/share/renesas/e2_studio/toolchains/gcc_arm/gcc-arm-none-eabi-6-2017-q2-update/arm-none-eabi/include/c++/6.3.1/bits/stl_vector.h ****        *  @param  __a  An allocator.
 389:/home/zkmike/.local/share/renesas/e2_studio/toolchains/gcc_arm/gcc-arm-none-eabi-6-2017-q2-update/arm-none-eabi/include/c++/6.3.1/bits/stl_vector.h ****        *
 390:/home/zkmike/.local/share/renesas/e2_studio/toolchains/gcc_arm/gcc-arm-none-eabi-6-2017-q2-update/arm-none-eabi/include/c++/6.3.1/bits/stl_vector.h ****        *  Create a %vector consisting of copies of the elements from
 391:/home/zkmike/.local/share/renesas/e2_studio/toolchains/gcc_arm/gcc-arm-none-eabi-6-2017-q2-update/arm-none-eabi/include/c++/6.3.1/bits/stl_vector.h ****        *  [first,last).
 392:/home/zkmike/.local/share/renesas/e2_studio/toolchains/gcc_arm/gcc-arm-none-eabi-6-2017-q2-update/arm-none-eabi/include/c++/6.3.1/bits/stl_vector.h ****        *
 393:/home/zkmike/.local/share/renesas/e2_studio/toolchains/gcc_arm/gcc-arm-none-eabi-6-2017-q2-update/arm-none-eabi/include/c++/6.3.1/bits/stl_vector.h ****        *  If the iterators are forward, bidirectional, or
 394:/home/zkmike/.local/share/renesas/e2_studio/toolchains/gcc_arm/gcc-arm-none-eabi-6-2017-q2-update/arm-none-eabi/include/c++/6.3.1/bits/stl_vector.h ****        *  random-access, then this will call the elements' copy
 395:/home/zkmike/.local/share/renesas/e2_studio/toolchains/gcc_arm/gcc-arm-none-eabi-6-2017-q2-update/arm-none-eabi/include/c++/6.3.1/bits/stl_vector.h ****        *  constructor N times (where N is distance(first,last)) and do
 396:/home/zkmike/.local/share/renesas/e2_studio/toolchains/gcc_arm/gcc-arm-none-eabi-6-2017-q2-update/arm-none-eabi/include/c++/6.3.1/bits/stl_vector.h ****        *  no memory reallocation.  But if only input iterators are
 397:/home/zkmike/.local/share/renesas/e2_studio/toolchains/gcc_arm/gcc-arm-none-eabi-6-2017-q2-update/arm-none-eabi/include/c++/6.3.1/bits/stl_vector.h ****        *  used, then this will do at most 2N calls to the copy
 398:/home/zkmike/.local/share/renesas/e2_studio/toolchains/gcc_arm/gcc-arm-none-eabi-6-2017-q2-update/arm-none-eabi/include/c++/6.3.1/bits/stl_vector.h ****        *  constructor, and logN memory reallocations.
 399:/home/zkmike/.local/share/renesas/e2_studio/toolchains/gcc_arm/gcc-arm-none-eabi-6-2017-q2-update/arm-none-eabi/include/c++/6.3.1/bits/stl_vector.h ****        */
 400:/home/zkmike/.local/share/renesas/e2_studio/toolchains/gcc_arm/gcc-arm-none-eabi-6-2017-q2-update/arm-none-eabi/include/c++/6.3.1/bits/stl_vector.h **** #if __cplusplus >= 201103L
 401:/home/zkmike/.local/share/renesas/e2_studio/toolchains/gcc_arm/gcc-arm-none-eabi-6-2017-q2-update/arm-none-eabi/include/c++/6.3.1/bits/stl_vector.h ****       template<typename _InputIterator,
 402:/home/zkmike/.local/share/renesas/e2_studio/toolchains/gcc_arm/gcc-arm-none-eabi-6-2017-q2-update/arm-none-eabi/include/c++/6.3.1/bits/stl_vector.h **** 	       typename = std::_RequireInputIter<_InputIterator>>
 403:/home/zkmike/.local/share/renesas/e2_studio/toolchains/gcc_arm/gcc-arm-none-eabi-6-2017-q2-update/arm-none-eabi/include/c++/6.3.1/bits/stl_vector.h ****         vector(_InputIterator __first, _InputIterator __last,
 404:/home/zkmike/.local/share/renesas/e2_studio/toolchains/gcc_arm/gcc-arm-none-eabi-6-2017-q2-update/arm-none-eabi/include/c++/6.3.1/bits/stl_vector.h **** 	       const allocator_type& __a = allocator_type())
 405:/home/zkmike/.local/share/renesas/e2_studio/toolchains/gcc_arm/gcc-arm-none-eabi-6-2017-q2-update/arm-none-eabi/include/c++/6.3.1/bits/stl_vector.h **** 	: _Base(__a)
 406:/home/zkmike/.local/share/renesas/e2_studio/toolchains/gcc_arm/gcc-arm-none-eabi-6-2017-q2-update/arm-none-eabi/include/c++/6.3.1/bits/stl_vector.h ****         { _M_initialize_dispatch(__first, __last, __false_type()); }
 407:/home/zkmike/.local/share/renesas/e2_studio/toolchains/gcc_arm/gcc-arm-none-eabi-6-2017-q2-update/arm-none-eabi/include/c++/6.3.1/bits/stl_vector.h **** #else
 408:/home/zkmike/.local/share/renesas/e2_studio/toolchains/gcc_arm/gcc-arm-none-eabi-6-2017-q2-update/arm-none-eabi/include/c++/6.3.1/bits/stl_vector.h ****       template<typename _InputIterator>
 409:/home/zkmike/.local/share/renesas/e2_studio/toolchains/gcc_arm/gcc-arm-none-eabi-6-2017-q2-update/arm-none-eabi/include/c++/6.3.1/bits/stl_vector.h ****         vector(_InputIterator __first, _InputIterator __last,
 410:/home/zkmike/.local/share/renesas/e2_studio/toolchains/gcc_arm/gcc-arm-none-eabi-6-2017-q2-update/arm-none-eabi/include/c++/6.3.1/bits/stl_vector.h **** 	       const allocator_type& __a = allocator_type())
 411:/home/zkmike/.local/share/renesas/e2_studio/toolchains/gcc_arm/gcc-arm-none-eabi-6-2017-q2-update/arm-none-eabi/include/c++/6.3.1/bits/stl_vector.h **** 	: _Base(__a)
 412:/home/zkmike/.local/share/renesas/e2_studio/toolchains/gcc_arm/gcc-arm-none-eabi-6-2017-q2-update/arm-none-eabi/include/c++/6.3.1/bits/stl_vector.h ****         {
 413:/home/zkmike/.local/share/renesas/e2_studio/toolchains/gcc_arm/gcc-arm-none-eabi-6-2017-q2-update/arm-none-eabi/include/c++/6.3.1/bits/stl_vector.h **** 	  // Check whether it's an integral type.  If so, it's not an iterator.
 414:/home/zkmike/.local/share/renesas/e2_studio/toolchains/gcc_arm/gcc-arm-none-eabi-6-2017-q2-update/arm-none-eabi/include/c++/6.3.1/bits/stl_vector.h **** 	  typedef typename std::__is_integer<_InputIterator>::__type _Integral;
 415:/home/zkmike/.local/share/renesas/e2_studio/toolchains/gcc_arm/gcc-arm-none-eabi-6-2017-q2-update/arm-none-eabi/include/c++/6.3.1/bits/stl_vector.h **** 	  _M_initialize_dispatch(__first, __last, _Integral());
 416:/home/zkmike/.local/share/renesas/e2_studio/toolchains/gcc_arm/gcc-arm-none-eabi-6-2017-q2-update/arm-none-eabi/include/c++/6.3.1/bits/stl_vector.h **** 	}
 417:/home/zkmike/.local/share/renesas/e2_studio/toolchains/gcc_arm/gcc-arm-none-eabi-6-2017-q2-update/arm-none-eabi/include/c++/6.3.1/bits/stl_vector.h **** #endif
 418:/home/zkmike/.local/share/renesas/e2_studio/toolchains/gcc_arm/gcc-arm-none-eabi-6-2017-q2-update/arm-none-eabi/include/c++/6.3.1/bits/stl_vector.h **** 
 419:/home/zkmike/.local/share/renesas/e2_studio/toolchains/gcc_arm/gcc-arm-none-eabi-6-2017-q2-update/arm-none-eabi/include/c++/6.3.1/bits/stl_vector.h ****       /**
 420:/home/zkmike/.local/share/renesas/e2_studio/toolchains/gcc_arm/gcc-arm-none-eabi-6-2017-q2-update/arm-none-eabi/include/c++/6.3.1/bits/stl_vector.h ****        *  The dtor only erases the elements, and note that if the
 421:/home/zkmike/.local/share/renesas/e2_studio/toolchains/gcc_arm/gcc-arm-none-eabi-6-2017-q2-update/arm-none-eabi/include/c++/6.3.1/bits/stl_vector.h ****        *  elements themselves are pointers, the pointed-to memory is
 422:/home/zkmike/.local/share/renesas/e2_studio/toolchains/gcc_arm/gcc-arm-none-eabi-6-2017-q2-update/arm-none-eabi/include/c++/6.3.1/bits/stl_vector.h ****        *  not touched in any way.  Managing the pointer is the user's
 423:/home/zkmike/.local/share/renesas/e2_studio/toolchains/gcc_arm/gcc-arm-none-eabi-6-2017-q2-update/arm-none-eabi/include/c++/6.3.1/bits/stl_vector.h ****        *  responsibility.
 424:/home/zkmike/.local/share/renesas/e2_studio/toolchains/gcc_arm/gcc-arm-none-eabi-6-2017-q2-update/arm-none-eabi/include/c++/6.3.1/bits/stl_vector.h ****        */
 425:/home/zkmike/.local/share/renesas/e2_studio/toolchains/gcc_arm/gcc-arm-none-eabi-6-2017-q2-update/arm-none-eabi/include/c++/6.3.1/bits/stl_vector.h ****       ~vector() _GLIBCXX_NOEXCEPT
 426:/home/zkmike/.local/share/renesas/e2_studio/toolchains/gcc_arm/gcc-arm-none-eabi-6-2017-q2-update/arm-none-eabi/include/c++/6.3.1/bits/stl_vector.h ****       { std::_Destroy(this->_M_impl._M_start, this->_M_impl._M_finish,
 725              		.loc 6 426 0
 726 0010 080090E5 		ldr	r0, [r0, #8]
 727              	.LVL70:
 728              	.LBB1938:
 729              	.LBB1939:
 730              	.LBB1940:
 177:/home/zkmike/.local/share/renesas/e2_studio/toolchains/gcc_arm/gcc-arm-none-eabi-6-2017-q2-update/arm-none-eabi/include/c++/6.3.1/bits/stl_vector.h **** 	  _Tr::deallocate(_M_impl, __p, __n);
 731              		.loc 6 177 0
 732 0014 000050E3 		cmp	r0, #0
 733 0018 0000000A 		beq	.L50
 734              	.LVL71:
 735              	.LBB1941:
 736              	.LBB1942:
 737              	.LBB1943:
 738              		.file 7 "/home/zkmike/.local/share/renesas/e2_studio/toolchains/gcc_arm/gcc-arm-none-eabi-6-2017-q
   1:/home/zkmike/.local/share/renesas/e2_studio/toolchains/gcc_arm/gcc-arm-none-eabi-6-2017-q2-update/arm-none-eabi/include/c++/6.3.1/ext/new_allocator.h **** // Allocator that wraps operator new -*- C++ -*-
   2:/home/zkmike/.local/share/renesas/e2_studio/toolchains/gcc_arm/gcc-arm-none-eabi-6-2017-q2-update/arm-none-eabi/include/c++/6.3.1/ext/new_allocator.h **** 
   3:/home/zkmike/.local/share/renesas/e2_studio/toolchains/gcc_arm/gcc-arm-none-eabi-6-2017-q2-update/arm-none-eabi/include/c++/6.3.1/ext/new_allocator.h **** // Copyright (C) 2001-2016 Free Software Foundation, Inc.
   4:/home/zkmike/.local/share/renesas/e2_studio/toolchains/gcc_arm/gcc-arm-none-eabi-6-2017-q2-update/arm-none-eabi/include/c++/6.3.1/ext/new_allocator.h **** //
   5:/home/zkmike/.local/share/renesas/e2_studio/toolchains/gcc_arm/gcc-arm-none-eabi-6-2017-q2-update/arm-none-eabi/include/c++/6.3.1/ext/new_allocator.h **** // This file is part of the GNU ISO C++ Library.  This library is free
   6:/home/zkmike/.local/share/renesas/e2_studio/toolchains/gcc_arm/gcc-arm-none-eabi-6-2017-q2-update/arm-none-eabi/include/c++/6.3.1/ext/new_allocator.h **** // software; you can redistribute it and/or modify it under the
   7:/home/zkmike/.local/share/renesas/e2_studio/toolchains/gcc_arm/gcc-arm-none-eabi-6-2017-q2-update/arm-none-eabi/include/c++/6.3.1/ext/new_allocator.h **** // terms of the GNU General Public License as published by the
   8:/home/zkmike/.local/share/renesas/e2_studio/toolchains/gcc_arm/gcc-arm-none-eabi-6-2017-q2-update/arm-none-eabi/include/c++/6.3.1/ext/new_allocator.h **** // Free Software Foundation; either version 3, or (at your option)
   9:/home/zkmike/.local/share/renesas/e2_studio/toolchains/gcc_arm/gcc-arm-none-eabi-6-2017-q2-update/arm-none-eabi/include/c++/6.3.1/ext/new_allocator.h **** // any later version.
  10:/home/zkmike/.local/share/renesas/e2_studio/toolchains/gcc_arm/gcc-arm-none-eabi-6-2017-q2-update/arm-none-eabi/include/c++/6.3.1/ext/new_allocator.h **** 
  11:/home/zkmike/.local/share/renesas/e2_studio/toolchains/gcc_arm/gcc-arm-none-eabi-6-2017-q2-update/arm-none-eabi/include/c++/6.3.1/ext/new_allocator.h **** // This library is distributed in the hope that it will be useful,
  12:/home/zkmike/.local/share/renesas/e2_studio/toolchains/gcc_arm/gcc-arm-none-eabi-6-2017-q2-update/arm-none-eabi/include/c++/6.3.1/ext/new_allocator.h **** // but WITHOUT ANY WARRANTY; without even the implied warranty of
  13:/home/zkmike/.local/share/renesas/e2_studio/toolchains/gcc_arm/gcc-arm-none-eabi-6-2017-q2-update/arm-none-eabi/include/c++/6.3.1/ext/new_allocator.h **** // MERCHANTABILITY or FITNESS FOR A PARTICULAR PURPOSE.  See the
  14:/home/zkmike/.local/share/renesas/e2_studio/toolchains/gcc_arm/gcc-arm-none-eabi-6-2017-q2-update/arm-none-eabi/include/c++/6.3.1/ext/new_allocator.h **** // GNU General Public License for more details.
  15:/home/zkmike/.local/share/renesas/e2_studio/toolchains/gcc_arm/gcc-arm-none-eabi-6-2017-q2-update/arm-none-eabi/include/c++/6.3.1/ext/new_allocator.h **** 
  16:/home/zkmike/.local/share/renesas/e2_studio/toolchains/gcc_arm/gcc-arm-none-eabi-6-2017-q2-update/arm-none-eabi/include/c++/6.3.1/ext/new_allocator.h **** // Under Section 7 of GPL version 3, you are granted additional
  17:/home/zkmike/.local/share/renesas/e2_studio/toolchains/gcc_arm/gcc-arm-none-eabi-6-2017-q2-update/arm-none-eabi/include/c++/6.3.1/ext/new_allocator.h **** // permissions described in the GCC Runtime Library Exception, version
  18:/home/zkmike/.local/share/renesas/e2_studio/toolchains/gcc_arm/gcc-arm-none-eabi-6-2017-q2-update/arm-none-eabi/include/c++/6.3.1/ext/new_allocator.h **** // 3.1, as published by the Free Software Foundation.
  19:/home/zkmike/.local/share/renesas/e2_studio/toolchains/gcc_arm/gcc-arm-none-eabi-6-2017-q2-update/arm-none-eabi/include/c++/6.3.1/ext/new_allocator.h **** 
  20:/home/zkmike/.local/share/renesas/e2_studio/toolchains/gcc_arm/gcc-arm-none-eabi-6-2017-q2-update/arm-none-eabi/include/c++/6.3.1/ext/new_allocator.h **** // You should have received a copy of the GNU General Public License and
  21:/home/zkmike/.local/share/renesas/e2_studio/toolchains/gcc_arm/gcc-arm-none-eabi-6-2017-q2-update/arm-none-eabi/include/c++/6.3.1/ext/new_allocator.h **** // a copy of the GCC Runtime Library Exception along with this program;
  22:/home/zkmike/.local/share/renesas/e2_studio/toolchains/gcc_arm/gcc-arm-none-eabi-6-2017-q2-update/arm-none-eabi/include/c++/6.3.1/ext/new_allocator.h **** // see the files COPYING3 and COPYING.RUNTIME respectively.  If not, see
  23:/home/zkmike/.local/share/renesas/e2_studio/toolchains/gcc_arm/gcc-arm-none-eabi-6-2017-q2-update/arm-none-eabi/include/c++/6.3.1/ext/new_allocator.h **** // <http://www.gnu.org/licenses/>.
  24:/home/zkmike/.local/share/renesas/e2_studio/toolchains/gcc_arm/gcc-arm-none-eabi-6-2017-q2-update/arm-none-eabi/include/c++/6.3.1/ext/new_allocator.h **** 
  25:/home/zkmike/.local/share/renesas/e2_studio/toolchains/gcc_arm/gcc-arm-none-eabi-6-2017-q2-update/arm-none-eabi/include/c++/6.3.1/ext/new_allocator.h **** /** @file ext/new_allocator.h
  26:/home/zkmike/.local/share/renesas/e2_studio/toolchains/gcc_arm/gcc-arm-none-eabi-6-2017-q2-update/arm-none-eabi/include/c++/6.3.1/ext/new_allocator.h ****  *  This file is a GNU extension to the Standard C++ Library.
  27:/home/zkmike/.local/share/renesas/e2_studio/toolchains/gcc_arm/gcc-arm-none-eabi-6-2017-q2-update/arm-none-eabi/include/c++/6.3.1/ext/new_allocator.h ****  */
  28:/home/zkmike/.local/share/renesas/e2_studio/toolchains/gcc_arm/gcc-arm-none-eabi-6-2017-q2-update/arm-none-eabi/include/c++/6.3.1/ext/new_allocator.h **** 
  29:/home/zkmike/.local/share/renesas/e2_studio/toolchains/gcc_arm/gcc-arm-none-eabi-6-2017-q2-update/arm-none-eabi/include/c++/6.3.1/ext/new_allocator.h **** #ifndef _NEW_ALLOCATOR_H
  30:/home/zkmike/.local/share/renesas/e2_studio/toolchains/gcc_arm/gcc-arm-none-eabi-6-2017-q2-update/arm-none-eabi/include/c++/6.3.1/ext/new_allocator.h **** #define _NEW_ALLOCATOR_H 1
  31:/home/zkmike/.local/share/renesas/e2_studio/toolchains/gcc_arm/gcc-arm-none-eabi-6-2017-q2-update/arm-none-eabi/include/c++/6.3.1/ext/new_allocator.h **** 
  32:/home/zkmike/.local/share/renesas/e2_studio/toolchains/gcc_arm/gcc-arm-none-eabi-6-2017-q2-update/arm-none-eabi/include/c++/6.3.1/ext/new_allocator.h **** #include <bits/c++config.h>
  33:/home/zkmike/.local/share/renesas/e2_studio/toolchains/gcc_arm/gcc-arm-none-eabi-6-2017-q2-update/arm-none-eabi/include/c++/6.3.1/ext/new_allocator.h **** #include <new>
  34:/home/zkmike/.local/share/renesas/e2_studio/toolchains/gcc_arm/gcc-arm-none-eabi-6-2017-q2-update/arm-none-eabi/include/c++/6.3.1/ext/new_allocator.h **** #include <bits/functexcept.h>
  35:/home/zkmike/.local/share/renesas/e2_studio/toolchains/gcc_arm/gcc-arm-none-eabi-6-2017-q2-update/arm-none-eabi/include/c++/6.3.1/ext/new_allocator.h **** #include <bits/move.h>
  36:/home/zkmike/.local/share/renesas/e2_studio/toolchains/gcc_arm/gcc-arm-none-eabi-6-2017-q2-update/arm-none-eabi/include/c++/6.3.1/ext/new_allocator.h **** #if __cplusplus >= 201103L
  37:/home/zkmike/.local/share/renesas/e2_studio/toolchains/gcc_arm/gcc-arm-none-eabi-6-2017-q2-update/arm-none-eabi/include/c++/6.3.1/ext/new_allocator.h **** #include <type_traits>
  38:/home/zkmike/.local/share/renesas/e2_studio/toolchains/gcc_arm/gcc-arm-none-eabi-6-2017-q2-update/arm-none-eabi/include/c++/6.3.1/ext/new_allocator.h **** #endif
  39:/home/zkmike/.local/share/renesas/e2_studio/toolchains/gcc_arm/gcc-arm-none-eabi-6-2017-q2-update/arm-none-eabi/include/c++/6.3.1/ext/new_allocator.h **** 
  40:/home/zkmike/.local/share/renesas/e2_studio/toolchains/gcc_arm/gcc-arm-none-eabi-6-2017-q2-update/arm-none-eabi/include/c++/6.3.1/ext/new_allocator.h **** namespace __gnu_cxx _GLIBCXX_VISIBILITY(default)
  41:/home/zkmike/.local/share/renesas/e2_studio/toolchains/gcc_arm/gcc-arm-none-eabi-6-2017-q2-update/arm-none-eabi/include/c++/6.3.1/ext/new_allocator.h **** {
  42:/home/zkmike/.local/share/renesas/e2_studio/toolchains/gcc_arm/gcc-arm-none-eabi-6-2017-q2-update/arm-none-eabi/include/c++/6.3.1/ext/new_allocator.h **** _GLIBCXX_BEGIN_NAMESPACE_VERSION
  43:/home/zkmike/.local/share/renesas/e2_studio/toolchains/gcc_arm/gcc-arm-none-eabi-6-2017-q2-update/arm-none-eabi/include/c++/6.3.1/ext/new_allocator.h **** 
  44:/home/zkmike/.local/share/renesas/e2_studio/toolchains/gcc_arm/gcc-arm-none-eabi-6-2017-q2-update/arm-none-eabi/include/c++/6.3.1/ext/new_allocator.h ****   using std::size_t;
  45:/home/zkmike/.local/share/renesas/e2_studio/toolchains/gcc_arm/gcc-arm-none-eabi-6-2017-q2-update/arm-none-eabi/include/c++/6.3.1/ext/new_allocator.h ****   using std::ptrdiff_t;
  46:/home/zkmike/.local/share/renesas/e2_studio/toolchains/gcc_arm/gcc-arm-none-eabi-6-2017-q2-update/arm-none-eabi/include/c++/6.3.1/ext/new_allocator.h **** 
  47:/home/zkmike/.local/share/renesas/e2_studio/toolchains/gcc_arm/gcc-arm-none-eabi-6-2017-q2-update/arm-none-eabi/include/c++/6.3.1/ext/new_allocator.h ****   /**
  48:/home/zkmike/.local/share/renesas/e2_studio/toolchains/gcc_arm/gcc-arm-none-eabi-6-2017-q2-update/arm-none-eabi/include/c++/6.3.1/ext/new_allocator.h ****    *  @brief  An allocator that uses global new, as per [20.4].
  49:/home/zkmike/.local/share/renesas/e2_studio/toolchains/gcc_arm/gcc-arm-none-eabi-6-2017-q2-update/arm-none-eabi/include/c++/6.3.1/ext/new_allocator.h ****    *  @ingroup allocators
  50:/home/zkmike/.local/share/renesas/e2_studio/toolchains/gcc_arm/gcc-arm-none-eabi-6-2017-q2-update/arm-none-eabi/include/c++/6.3.1/ext/new_allocator.h ****    *
  51:/home/zkmike/.local/share/renesas/e2_studio/toolchains/gcc_arm/gcc-arm-none-eabi-6-2017-q2-update/arm-none-eabi/include/c++/6.3.1/ext/new_allocator.h ****    *  This is precisely the allocator defined in the C++ Standard. 
  52:/home/zkmike/.local/share/renesas/e2_studio/toolchains/gcc_arm/gcc-arm-none-eabi-6-2017-q2-update/arm-none-eabi/include/c++/6.3.1/ext/new_allocator.h ****    *    - all allocation calls operator new
  53:/home/zkmike/.local/share/renesas/e2_studio/toolchains/gcc_arm/gcc-arm-none-eabi-6-2017-q2-update/arm-none-eabi/include/c++/6.3.1/ext/new_allocator.h ****    *    - all deallocation calls operator delete
  54:/home/zkmike/.local/share/renesas/e2_studio/toolchains/gcc_arm/gcc-arm-none-eabi-6-2017-q2-update/arm-none-eabi/include/c++/6.3.1/ext/new_allocator.h ****    *
  55:/home/zkmike/.local/share/renesas/e2_studio/toolchains/gcc_arm/gcc-arm-none-eabi-6-2017-q2-update/arm-none-eabi/include/c++/6.3.1/ext/new_allocator.h ****    *  @tparam  _Tp  Type of allocated object.
  56:/home/zkmike/.local/share/renesas/e2_studio/toolchains/gcc_arm/gcc-arm-none-eabi-6-2017-q2-update/arm-none-eabi/include/c++/6.3.1/ext/new_allocator.h ****    */
  57:/home/zkmike/.local/share/renesas/e2_studio/toolchains/gcc_arm/gcc-arm-none-eabi-6-2017-q2-update/arm-none-eabi/include/c++/6.3.1/ext/new_allocator.h ****   template<typename _Tp>
  58:/home/zkmike/.local/share/renesas/e2_studio/toolchains/gcc_arm/gcc-arm-none-eabi-6-2017-q2-update/arm-none-eabi/include/c++/6.3.1/ext/new_allocator.h ****     class new_allocator
  59:/home/zkmike/.local/share/renesas/e2_studio/toolchains/gcc_arm/gcc-arm-none-eabi-6-2017-q2-update/arm-none-eabi/include/c++/6.3.1/ext/new_allocator.h ****     {
  60:/home/zkmike/.local/share/renesas/e2_studio/toolchains/gcc_arm/gcc-arm-none-eabi-6-2017-q2-update/arm-none-eabi/include/c++/6.3.1/ext/new_allocator.h ****     public:
  61:/home/zkmike/.local/share/renesas/e2_studio/toolchains/gcc_arm/gcc-arm-none-eabi-6-2017-q2-update/arm-none-eabi/include/c++/6.3.1/ext/new_allocator.h ****       typedef size_t     size_type;
  62:/home/zkmike/.local/share/renesas/e2_studio/toolchains/gcc_arm/gcc-arm-none-eabi-6-2017-q2-update/arm-none-eabi/include/c++/6.3.1/ext/new_allocator.h ****       typedef ptrdiff_t  difference_type;
  63:/home/zkmike/.local/share/renesas/e2_studio/toolchains/gcc_arm/gcc-arm-none-eabi-6-2017-q2-update/arm-none-eabi/include/c++/6.3.1/ext/new_allocator.h ****       typedef _Tp*       pointer;
  64:/home/zkmike/.local/share/renesas/e2_studio/toolchains/gcc_arm/gcc-arm-none-eabi-6-2017-q2-update/arm-none-eabi/include/c++/6.3.1/ext/new_allocator.h ****       typedef const _Tp* const_pointer;
  65:/home/zkmike/.local/share/renesas/e2_studio/toolchains/gcc_arm/gcc-arm-none-eabi-6-2017-q2-update/arm-none-eabi/include/c++/6.3.1/ext/new_allocator.h ****       typedef _Tp&       reference;
  66:/home/zkmike/.local/share/renesas/e2_studio/toolchains/gcc_arm/gcc-arm-none-eabi-6-2017-q2-update/arm-none-eabi/include/c++/6.3.1/ext/new_allocator.h ****       typedef const _Tp& const_reference;
  67:/home/zkmike/.local/share/renesas/e2_studio/toolchains/gcc_arm/gcc-arm-none-eabi-6-2017-q2-update/arm-none-eabi/include/c++/6.3.1/ext/new_allocator.h ****       typedef _Tp        value_type;
  68:/home/zkmike/.local/share/renesas/e2_studio/toolchains/gcc_arm/gcc-arm-none-eabi-6-2017-q2-update/arm-none-eabi/include/c++/6.3.1/ext/new_allocator.h **** 
  69:/home/zkmike/.local/share/renesas/e2_studio/toolchains/gcc_arm/gcc-arm-none-eabi-6-2017-q2-update/arm-none-eabi/include/c++/6.3.1/ext/new_allocator.h ****       template<typename _Tp1>
  70:/home/zkmike/.local/share/renesas/e2_studio/toolchains/gcc_arm/gcc-arm-none-eabi-6-2017-q2-update/arm-none-eabi/include/c++/6.3.1/ext/new_allocator.h ****         struct rebind
  71:/home/zkmike/.local/share/renesas/e2_studio/toolchains/gcc_arm/gcc-arm-none-eabi-6-2017-q2-update/arm-none-eabi/include/c++/6.3.1/ext/new_allocator.h ****         { typedef new_allocator<_Tp1> other; };
  72:/home/zkmike/.local/share/renesas/e2_studio/toolchains/gcc_arm/gcc-arm-none-eabi-6-2017-q2-update/arm-none-eabi/include/c++/6.3.1/ext/new_allocator.h **** 
  73:/home/zkmike/.local/share/renesas/e2_studio/toolchains/gcc_arm/gcc-arm-none-eabi-6-2017-q2-update/arm-none-eabi/include/c++/6.3.1/ext/new_allocator.h **** #if __cplusplus >= 201103L
  74:/home/zkmike/.local/share/renesas/e2_studio/toolchains/gcc_arm/gcc-arm-none-eabi-6-2017-q2-update/arm-none-eabi/include/c++/6.3.1/ext/new_allocator.h ****       // _GLIBCXX_RESOLVE_LIB_DEFECTS
  75:/home/zkmike/.local/share/renesas/e2_studio/toolchains/gcc_arm/gcc-arm-none-eabi-6-2017-q2-update/arm-none-eabi/include/c++/6.3.1/ext/new_allocator.h ****       // 2103. propagate_on_container_move_assignment
  76:/home/zkmike/.local/share/renesas/e2_studio/toolchains/gcc_arm/gcc-arm-none-eabi-6-2017-q2-update/arm-none-eabi/include/c++/6.3.1/ext/new_allocator.h ****       typedef std::true_type propagate_on_container_move_assignment;
  77:/home/zkmike/.local/share/renesas/e2_studio/toolchains/gcc_arm/gcc-arm-none-eabi-6-2017-q2-update/arm-none-eabi/include/c++/6.3.1/ext/new_allocator.h **** #endif
  78:/home/zkmike/.local/share/renesas/e2_studio/toolchains/gcc_arm/gcc-arm-none-eabi-6-2017-q2-update/arm-none-eabi/include/c++/6.3.1/ext/new_allocator.h **** 
  79:/home/zkmike/.local/share/renesas/e2_studio/toolchains/gcc_arm/gcc-arm-none-eabi-6-2017-q2-update/arm-none-eabi/include/c++/6.3.1/ext/new_allocator.h ****       new_allocator() _GLIBCXX_USE_NOEXCEPT { }
  80:/home/zkmike/.local/share/renesas/e2_studio/toolchains/gcc_arm/gcc-arm-none-eabi-6-2017-q2-update/arm-none-eabi/include/c++/6.3.1/ext/new_allocator.h **** 
  81:/home/zkmike/.local/share/renesas/e2_studio/toolchains/gcc_arm/gcc-arm-none-eabi-6-2017-q2-update/arm-none-eabi/include/c++/6.3.1/ext/new_allocator.h ****       new_allocator(const new_allocator&) _GLIBCXX_USE_NOEXCEPT { }
  82:/home/zkmike/.local/share/renesas/e2_studio/toolchains/gcc_arm/gcc-arm-none-eabi-6-2017-q2-update/arm-none-eabi/include/c++/6.3.1/ext/new_allocator.h **** 
  83:/home/zkmike/.local/share/renesas/e2_studio/toolchains/gcc_arm/gcc-arm-none-eabi-6-2017-q2-update/arm-none-eabi/include/c++/6.3.1/ext/new_allocator.h ****       template<typename _Tp1>
  84:/home/zkmike/.local/share/renesas/e2_studio/toolchains/gcc_arm/gcc-arm-none-eabi-6-2017-q2-update/arm-none-eabi/include/c++/6.3.1/ext/new_allocator.h ****         new_allocator(const new_allocator<_Tp1>&) _GLIBCXX_USE_NOEXCEPT { }
  85:/home/zkmike/.local/share/renesas/e2_studio/toolchains/gcc_arm/gcc-arm-none-eabi-6-2017-q2-update/arm-none-eabi/include/c++/6.3.1/ext/new_allocator.h **** 
  86:/home/zkmike/.local/share/renesas/e2_studio/toolchains/gcc_arm/gcc-arm-none-eabi-6-2017-q2-update/arm-none-eabi/include/c++/6.3.1/ext/new_allocator.h ****       ~new_allocator() _GLIBCXX_USE_NOEXCEPT { }
  87:/home/zkmike/.local/share/renesas/e2_studio/toolchains/gcc_arm/gcc-arm-none-eabi-6-2017-q2-update/arm-none-eabi/include/c++/6.3.1/ext/new_allocator.h **** 
  88:/home/zkmike/.local/share/renesas/e2_studio/toolchains/gcc_arm/gcc-arm-none-eabi-6-2017-q2-update/arm-none-eabi/include/c++/6.3.1/ext/new_allocator.h ****       pointer
  89:/home/zkmike/.local/share/renesas/e2_studio/toolchains/gcc_arm/gcc-arm-none-eabi-6-2017-q2-update/arm-none-eabi/include/c++/6.3.1/ext/new_allocator.h ****       address(reference __x) const _GLIBCXX_NOEXCEPT
  90:/home/zkmike/.local/share/renesas/e2_studio/toolchains/gcc_arm/gcc-arm-none-eabi-6-2017-q2-update/arm-none-eabi/include/c++/6.3.1/ext/new_allocator.h ****       { return std::__addressof(__x); }
  91:/home/zkmike/.local/share/renesas/e2_studio/toolchains/gcc_arm/gcc-arm-none-eabi-6-2017-q2-update/arm-none-eabi/include/c++/6.3.1/ext/new_allocator.h **** 
  92:/home/zkmike/.local/share/renesas/e2_studio/toolchains/gcc_arm/gcc-arm-none-eabi-6-2017-q2-update/arm-none-eabi/include/c++/6.3.1/ext/new_allocator.h ****       const_pointer
  93:/home/zkmike/.local/share/renesas/e2_studio/toolchains/gcc_arm/gcc-arm-none-eabi-6-2017-q2-update/arm-none-eabi/include/c++/6.3.1/ext/new_allocator.h ****       address(const_reference __x) const _GLIBCXX_NOEXCEPT
  94:/home/zkmike/.local/share/renesas/e2_studio/toolchains/gcc_arm/gcc-arm-none-eabi-6-2017-q2-update/arm-none-eabi/include/c++/6.3.1/ext/new_allocator.h ****       { return std::__addressof(__x); }
  95:/home/zkmike/.local/share/renesas/e2_studio/toolchains/gcc_arm/gcc-arm-none-eabi-6-2017-q2-update/arm-none-eabi/include/c++/6.3.1/ext/new_allocator.h **** 
  96:/home/zkmike/.local/share/renesas/e2_studio/toolchains/gcc_arm/gcc-arm-none-eabi-6-2017-q2-update/arm-none-eabi/include/c++/6.3.1/ext/new_allocator.h ****       // NB: __n is permitted to be 0.  The C++ standard says nothing
  97:/home/zkmike/.local/share/renesas/e2_studio/toolchains/gcc_arm/gcc-arm-none-eabi-6-2017-q2-update/arm-none-eabi/include/c++/6.3.1/ext/new_allocator.h ****       // about what the return value is when __n == 0.
  98:/home/zkmike/.local/share/renesas/e2_studio/toolchains/gcc_arm/gcc-arm-none-eabi-6-2017-q2-update/arm-none-eabi/include/c++/6.3.1/ext/new_allocator.h ****       pointer
  99:/home/zkmike/.local/share/renesas/e2_studio/toolchains/gcc_arm/gcc-arm-none-eabi-6-2017-q2-update/arm-none-eabi/include/c++/6.3.1/ext/new_allocator.h ****       allocate(size_type __n, const void* = 0)
 100:/home/zkmike/.local/share/renesas/e2_studio/toolchains/gcc_arm/gcc-arm-none-eabi-6-2017-q2-update/arm-none-eabi/include/c++/6.3.1/ext/new_allocator.h ****       { 
 101:/home/zkmike/.local/share/renesas/e2_studio/toolchains/gcc_arm/gcc-arm-none-eabi-6-2017-q2-update/arm-none-eabi/include/c++/6.3.1/ext/new_allocator.h **** 	if (__n > this->max_size())
 102:/home/zkmike/.local/share/renesas/e2_studio/toolchains/gcc_arm/gcc-arm-none-eabi-6-2017-q2-update/arm-none-eabi/include/c++/6.3.1/ext/new_allocator.h **** 	  std::__throw_bad_alloc();
 103:/home/zkmike/.local/share/renesas/e2_studio/toolchains/gcc_arm/gcc-arm-none-eabi-6-2017-q2-update/arm-none-eabi/include/c++/6.3.1/ext/new_allocator.h **** 
 104:/home/zkmike/.local/share/renesas/e2_studio/toolchains/gcc_arm/gcc-arm-none-eabi-6-2017-q2-update/arm-none-eabi/include/c++/6.3.1/ext/new_allocator.h **** 	return static_cast<_Tp*>(::operator new(__n * sizeof(_Tp)));
 105:/home/zkmike/.local/share/renesas/e2_studio/toolchains/gcc_arm/gcc-arm-none-eabi-6-2017-q2-update/arm-none-eabi/include/c++/6.3.1/ext/new_allocator.h ****       }
 106:/home/zkmike/.local/share/renesas/e2_studio/toolchains/gcc_arm/gcc-arm-none-eabi-6-2017-q2-update/arm-none-eabi/include/c++/6.3.1/ext/new_allocator.h **** 
 107:/home/zkmike/.local/share/renesas/e2_studio/toolchains/gcc_arm/gcc-arm-none-eabi-6-2017-q2-update/arm-none-eabi/include/c++/6.3.1/ext/new_allocator.h ****       // __p is not permitted to be a null pointer.
 108:/home/zkmike/.local/share/renesas/e2_studio/toolchains/gcc_arm/gcc-arm-none-eabi-6-2017-q2-update/arm-none-eabi/include/c++/6.3.1/ext/new_allocator.h ****       void
 109:/home/zkmike/.local/share/renesas/e2_studio/toolchains/gcc_arm/gcc-arm-none-eabi-6-2017-q2-update/arm-none-eabi/include/c++/6.3.1/ext/new_allocator.h ****       deallocate(pointer __p, size_type)
 110:/home/zkmike/.local/share/renesas/e2_studio/toolchains/gcc_arm/gcc-arm-none-eabi-6-2017-q2-update/arm-none-eabi/include/c++/6.3.1/ext/new_allocator.h ****       { ::operator delete(__p); }
 739              		.loc 7 110 0
 740 001c FEFFFFEB 		bl	_ZdlPv
 741              	.LVL72:
 742              	.L50:
 743              	.LBE1943:
 744              	.LBE1942:
 745              	.LBE1941:
 746              	.LBE1940:
 747              	.LBE1939:
 748              	.LBE1938:
 749              	.LBE1937:
 750              	.LBE1936:
 751              	.LBE1935:
  57:/home/zkmike/workspace/RZA2M/rza2m_2d_barcode_sample_freertos_gcc/src/zxing_lib/zxing/common/Array.h ****   Array<T>& operator=(const Array<T> &other) {
 752              		.loc 2 57 0
 753 0020 0400A0E1 		mov	r0, r4
 754 0024 1080BDE8 		pop	{r4, pc}
 755              	.L53:
 756              		.align	2
 757              	.L52:
 758 0028 08000000 		.word	_ZTVN5zxing5ArrayIcEE+8
 759              		.cfi_endproc
 760              	.LFE3592:
 761              		.cantunwind
 762              		.fnend
 764              		.weak	_ZN5zxing5ArrayIcED1Ev
 765              		.set	_ZN5zxing5ArrayIcED1Ev,_ZN5zxing5ArrayIcED2Ev
 766              		.section	.text._ZN5zxing5ArrayIcED0Ev,"axG",%progbits,_ZN5zxing5ArrayIcED5Ev,comdat
 767              		.align	2
 768              		.weak	_ZN5zxing5ArrayIcED0Ev
 769              		.syntax unified
 770              		.arm
 771              		.fpu neon
 773              	_ZN5zxing5ArrayIcED0Ev:
 774              		.fnstart
 775              	.LFB3594:
  56:/home/zkmike/workspace/RZA2M/rza2m_2d_barcode_sample_freertos_gcc/src/zxing_lib/zxing/common/Array.h ****   }
 776              		.loc 2 56 0
 777              		.cfi_startproc
 778              		@ args = 0, pretend = 0, frame = 0
 779              		@ frame_needed = 0, uses_anonymous_args = 0
 780              	.LVL73:
 781 0000 10402DE9 		push	{r4, lr}
 782              		.cfi_def_cfa_offset 8
 783              		.cfi_offset 4, -8
 784              		.cfi_offset 14, -4
 785 0004 0040A0E1 		mov	r4, r0
 786              	.LVL74:
 787              	.LBB1944:
 788              	.LBB1945:
  57:/home/zkmike/workspace/RZA2M/rza2m_2d_barcode_sample_freertos_gcc/src/zxing_lib/zxing/common/Array.h ****   Array<T>& operator=(const Array<T> &other) {
 789              		.loc 2 57 0
 790 0008 24309FE5 		ldr	r3, .L57
 791 000c 003080E5 		str	r3, [r0]
 792              	.LVL75:
 793              	.LBB1946:
 794              	.LBB1947:
 795              		.loc 6 426 0
 796 0010 080090E5 		ldr	r0, [r0, #8]
 797              	.LVL76:
 798              	.LBB1948:
 799              	.LBB1949:
 800              	.LBB1950:
 177:/home/zkmike/.local/share/renesas/e2_studio/toolchains/gcc_arm/gcc-arm-none-eabi-6-2017-q2-update/arm-none-eabi/include/c++/6.3.1/bits/stl_vector.h **** 	  _Tr::deallocate(_M_impl, __p, __n);
 801              		.loc 6 177 0
 802 0014 000050E3 		cmp	r0, #0
 803 0018 0000000A 		beq	.L55
 804              	.LVL77:
 805              	.LBB1951:
 806              	.LBB1952:
 807              	.LBB1953:
 808              		.loc 7 110 0
 809 001c FEFFFFEB 		bl	_ZdlPv
 810              	.LVL78:
 811              	.L55:
 812              	.LBE1953:
 813              	.LBE1952:
 814              	.LBE1951:
 815              	.LBE1950:
 816              	.LBE1949:
 817              	.LBE1948:
 818              	.LBE1947:
 819              	.LBE1946:
 820              	.LBE1945:
 821              	.LBE1944:
  57:/home/zkmike/workspace/RZA2M/rza2m_2d_barcode_sample_freertos_gcc/src/zxing_lib/zxing/common/Array.h ****   Array<T>& operator=(const Array<T> &other) {
 822              		.loc 2 57 0
 823 0020 1410A0E3 		mov	r1, #20
 824 0024 0400A0E1 		mov	r0, r4
 825 0028 FEFFFFEB 		bl	_ZdlPvj
 826              	.LVL79:
 827 002c 0400A0E1 		mov	r0, r4
 828 0030 1080BDE8 		pop	{r4, pc}
 829              	.L58:
 830              		.align	2
 831              	.L57:
 832 0034 08000000 		.word	_ZTVN5zxing5ArrayIcEE+8
 833              		.cfi_endproc
 834              	.LFE3594:
 835              		.cantunwind
 836              		.fnend
 838              		.section	.text._ZN5zxing5ArrayINS_8ArrayRefIcEEED0Ev,"axG",%progbits,_ZN5zxing5ArrayINS_8ArrayRefI
 839              		.align	2
 840              		.weak	_ZN5zxing5ArrayINS_8ArrayRefIcEEED0Ev
 841              		.syntax unified
 842              		.arm
 843              		.fpu neon
 845              	_ZN5zxing5ArrayINS_8ArrayRefIcEEED0Ev:
 846              		.fnstart
 847              	.LFB3590:
  56:/home/zkmike/workspace/RZA2M/rza2m_2d_barcode_sample_freertos_gcc/src/zxing_lib/zxing/common/Array.h ****   }
 848              		.loc 2 56 0
 849              		.cfi_startproc
 850              		@ args = 0, pretend = 0, frame = 0
 851              		@ frame_needed = 0, uses_anonymous_args = 0
 852              	.LVL80:
 853 0000 70402DE9 		push	{r4, r5, r6, lr}
 854              		.cfi_def_cfa_offset 16
 855              		.cfi_offset 4, -16
 856              		.cfi_offset 5, -12
 857              		.cfi_offset 6, -8
 858              		.cfi_offset 14, -4
 859 0004 0060A0E1 		mov	r6, r0
 860              	.LVL81:
 861              	.LBB1978:
 862              	.LBB1979:
  57:/home/zkmike/workspace/RZA2M/rza2m_2d_barcode_sample_freertos_gcc/src/zxing_lib/zxing/common/Array.h ****   Array<T>& operator=(const Array<T> &other) {
 863              		.loc 2 57 0
 864 0008 0030A0E1 		mov	r3, r0
 865 000c 4C209FE5 		ldr	r2, .L64
 866 0010 082083E4 		str	r2, [r3], #8
 867              	.LVL82:
 868              	.LBB1980:
 869              	.LBB1981:
 870              		.loc 6 426 0
 871 0014 084090E5 		ldr	r4, [r0, #8]
 872 0018 045093E5 		ldr	r5, [r3, #4]
 873              	.LVL83:
 874              	.L61:
 875              	.LBB1982:
 876              	.LBB1983:
 877              	.LBB1984:
 878              	.LBB1985:
 879              	.LBB1986:
 880              		.file 8 "/home/zkmike/.local/share/renesas/e2_studio/toolchains/gcc_arm/gcc-arm-none-eabi-6-2017-q
   1:/home/zkmike/.local/share/renesas/e2_studio/toolchains/gcc_arm/gcc-arm-none-eabi-6-2017-q2-update/arm-none-eabi/include/c++/6.3.1/bits/stl_construct.h **** // nonstandard construct and destroy functions -*- C++ -*-
   2:/home/zkmike/.local/share/renesas/e2_studio/toolchains/gcc_arm/gcc-arm-none-eabi-6-2017-q2-update/arm-none-eabi/include/c++/6.3.1/bits/stl_construct.h **** 
   3:/home/zkmike/.local/share/renesas/e2_studio/toolchains/gcc_arm/gcc-arm-none-eabi-6-2017-q2-update/arm-none-eabi/include/c++/6.3.1/bits/stl_construct.h **** // Copyright (C) 2001-2016 Free Software Foundation, Inc.
   4:/home/zkmike/.local/share/renesas/e2_studio/toolchains/gcc_arm/gcc-arm-none-eabi-6-2017-q2-update/arm-none-eabi/include/c++/6.3.1/bits/stl_construct.h **** //
   5:/home/zkmike/.local/share/renesas/e2_studio/toolchains/gcc_arm/gcc-arm-none-eabi-6-2017-q2-update/arm-none-eabi/include/c++/6.3.1/bits/stl_construct.h **** // This file is part of the GNU ISO C++ Library.  This library is free
   6:/home/zkmike/.local/share/renesas/e2_studio/toolchains/gcc_arm/gcc-arm-none-eabi-6-2017-q2-update/arm-none-eabi/include/c++/6.3.1/bits/stl_construct.h **** // software; you can redistribute it and/or modify it under the
   7:/home/zkmike/.local/share/renesas/e2_studio/toolchains/gcc_arm/gcc-arm-none-eabi-6-2017-q2-update/arm-none-eabi/include/c++/6.3.1/bits/stl_construct.h **** // terms of the GNU General Public License as published by the
   8:/home/zkmike/.local/share/renesas/e2_studio/toolchains/gcc_arm/gcc-arm-none-eabi-6-2017-q2-update/arm-none-eabi/include/c++/6.3.1/bits/stl_construct.h **** // Free Software Foundation; either version 3, or (at your option)
   9:/home/zkmike/.local/share/renesas/e2_studio/toolchains/gcc_arm/gcc-arm-none-eabi-6-2017-q2-update/arm-none-eabi/include/c++/6.3.1/bits/stl_construct.h **** // any later version.
  10:/home/zkmike/.local/share/renesas/e2_studio/toolchains/gcc_arm/gcc-arm-none-eabi-6-2017-q2-update/arm-none-eabi/include/c++/6.3.1/bits/stl_construct.h **** 
  11:/home/zkmike/.local/share/renesas/e2_studio/toolchains/gcc_arm/gcc-arm-none-eabi-6-2017-q2-update/arm-none-eabi/include/c++/6.3.1/bits/stl_construct.h **** // This library is distributed in the hope that it will be useful,
  12:/home/zkmike/.local/share/renesas/e2_studio/toolchains/gcc_arm/gcc-arm-none-eabi-6-2017-q2-update/arm-none-eabi/include/c++/6.3.1/bits/stl_construct.h **** // but WITHOUT ANY WARRANTY; without even the implied warranty of
  13:/home/zkmike/.local/share/renesas/e2_studio/toolchains/gcc_arm/gcc-arm-none-eabi-6-2017-q2-update/arm-none-eabi/include/c++/6.3.1/bits/stl_construct.h **** // MERCHANTABILITY or FITNESS FOR A PARTICULAR PURPOSE.  See the
  14:/home/zkmike/.local/share/renesas/e2_studio/toolchains/gcc_arm/gcc-arm-none-eabi-6-2017-q2-update/arm-none-eabi/include/c++/6.3.1/bits/stl_construct.h **** // GNU General Public License for more details.
  15:/home/zkmike/.local/share/renesas/e2_studio/toolchains/gcc_arm/gcc-arm-none-eabi-6-2017-q2-update/arm-none-eabi/include/c++/6.3.1/bits/stl_construct.h **** 
  16:/home/zkmike/.local/share/renesas/e2_studio/toolchains/gcc_arm/gcc-arm-none-eabi-6-2017-q2-update/arm-none-eabi/include/c++/6.3.1/bits/stl_construct.h **** // Under Section 7 of GPL version 3, you are granted additional
  17:/home/zkmike/.local/share/renesas/e2_studio/toolchains/gcc_arm/gcc-arm-none-eabi-6-2017-q2-update/arm-none-eabi/include/c++/6.3.1/bits/stl_construct.h **** // permissions described in the GCC Runtime Library Exception, version
  18:/home/zkmike/.local/share/renesas/e2_studio/toolchains/gcc_arm/gcc-arm-none-eabi-6-2017-q2-update/arm-none-eabi/include/c++/6.3.1/bits/stl_construct.h **** // 3.1, as published by the Free Software Foundation.
  19:/home/zkmike/.local/share/renesas/e2_studio/toolchains/gcc_arm/gcc-arm-none-eabi-6-2017-q2-update/arm-none-eabi/include/c++/6.3.1/bits/stl_construct.h **** 
  20:/home/zkmike/.local/share/renesas/e2_studio/toolchains/gcc_arm/gcc-arm-none-eabi-6-2017-q2-update/arm-none-eabi/include/c++/6.3.1/bits/stl_construct.h **** // You should have received a copy of the GNU General Public License and
  21:/home/zkmike/.local/share/renesas/e2_studio/toolchains/gcc_arm/gcc-arm-none-eabi-6-2017-q2-update/arm-none-eabi/include/c++/6.3.1/bits/stl_construct.h **** // a copy of the GCC Runtime Library Exception along with this program;
  22:/home/zkmike/.local/share/renesas/e2_studio/toolchains/gcc_arm/gcc-arm-none-eabi-6-2017-q2-update/arm-none-eabi/include/c++/6.3.1/bits/stl_construct.h **** // see the files COPYING3 and COPYING.RUNTIME respectively.  If not, see
  23:/home/zkmike/.local/share/renesas/e2_studio/toolchains/gcc_arm/gcc-arm-none-eabi-6-2017-q2-update/arm-none-eabi/include/c++/6.3.1/bits/stl_construct.h **** // <http://www.gnu.org/licenses/>.
  24:/home/zkmike/.local/share/renesas/e2_studio/toolchains/gcc_arm/gcc-arm-none-eabi-6-2017-q2-update/arm-none-eabi/include/c++/6.3.1/bits/stl_construct.h **** 
  25:/home/zkmike/.local/share/renesas/e2_studio/toolchains/gcc_arm/gcc-arm-none-eabi-6-2017-q2-update/arm-none-eabi/include/c++/6.3.1/bits/stl_construct.h **** /*
  26:/home/zkmike/.local/share/renesas/e2_studio/toolchains/gcc_arm/gcc-arm-none-eabi-6-2017-q2-update/arm-none-eabi/include/c++/6.3.1/bits/stl_construct.h ****  *
  27:/home/zkmike/.local/share/renesas/e2_studio/toolchains/gcc_arm/gcc-arm-none-eabi-6-2017-q2-update/arm-none-eabi/include/c++/6.3.1/bits/stl_construct.h ****  * Copyright (c) 1994
  28:/home/zkmike/.local/share/renesas/e2_studio/toolchains/gcc_arm/gcc-arm-none-eabi-6-2017-q2-update/arm-none-eabi/include/c++/6.3.1/bits/stl_construct.h ****  * Hewlett-Packard Company
  29:/home/zkmike/.local/share/renesas/e2_studio/toolchains/gcc_arm/gcc-arm-none-eabi-6-2017-q2-update/arm-none-eabi/include/c++/6.3.1/bits/stl_construct.h ****  *
  30:/home/zkmike/.local/share/renesas/e2_studio/toolchains/gcc_arm/gcc-arm-none-eabi-6-2017-q2-update/arm-none-eabi/include/c++/6.3.1/bits/stl_construct.h ****  * Permission to use, copy, modify, distribute and sell this software
  31:/home/zkmike/.local/share/renesas/e2_studio/toolchains/gcc_arm/gcc-arm-none-eabi-6-2017-q2-update/arm-none-eabi/include/c++/6.3.1/bits/stl_construct.h ****  * and its documentation for any purpose is hereby granted without fee,
  32:/home/zkmike/.local/share/renesas/e2_studio/toolchains/gcc_arm/gcc-arm-none-eabi-6-2017-q2-update/arm-none-eabi/include/c++/6.3.1/bits/stl_construct.h ****  * provided that the above copyright notice appear in all copies and
  33:/home/zkmike/.local/share/renesas/e2_studio/toolchains/gcc_arm/gcc-arm-none-eabi-6-2017-q2-update/arm-none-eabi/include/c++/6.3.1/bits/stl_construct.h ****  * that both that copyright notice and this permission notice appear
  34:/home/zkmike/.local/share/renesas/e2_studio/toolchains/gcc_arm/gcc-arm-none-eabi-6-2017-q2-update/arm-none-eabi/include/c++/6.3.1/bits/stl_construct.h ****  * in supporting documentation.  Hewlett-Packard Company makes no
  35:/home/zkmike/.local/share/renesas/e2_studio/toolchains/gcc_arm/gcc-arm-none-eabi-6-2017-q2-update/arm-none-eabi/include/c++/6.3.1/bits/stl_construct.h ****  * representations about the suitability of this software for any
  36:/home/zkmike/.local/share/renesas/e2_studio/toolchains/gcc_arm/gcc-arm-none-eabi-6-2017-q2-update/arm-none-eabi/include/c++/6.3.1/bits/stl_construct.h ****  * purpose.  It is provided "as is" without express or implied warranty.
  37:/home/zkmike/.local/share/renesas/e2_studio/toolchains/gcc_arm/gcc-arm-none-eabi-6-2017-q2-update/arm-none-eabi/include/c++/6.3.1/bits/stl_construct.h ****  *
  38:/home/zkmike/.local/share/renesas/e2_studio/toolchains/gcc_arm/gcc-arm-none-eabi-6-2017-q2-update/arm-none-eabi/include/c++/6.3.1/bits/stl_construct.h ****  *
  39:/home/zkmike/.local/share/renesas/e2_studio/toolchains/gcc_arm/gcc-arm-none-eabi-6-2017-q2-update/arm-none-eabi/include/c++/6.3.1/bits/stl_construct.h ****  * Copyright (c) 1996,1997
  40:/home/zkmike/.local/share/renesas/e2_studio/toolchains/gcc_arm/gcc-arm-none-eabi-6-2017-q2-update/arm-none-eabi/include/c++/6.3.1/bits/stl_construct.h ****  * Silicon Graphics Computer Systems, Inc.
  41:/home/zkmike/.local/share/renesas/e2_studio/toolchains/gcc_arm/gcc-arm-none-eabi-6-2017-q2-update/arm-none-eabi/include/c++/6.3.1/bits/stl_construct.h ****  *
  42:/home/zkmike/.local/share/renesas/e2_studio/toolchains/gcc_arm/gcc-arm-none-eabi-6-2017-q2-update/arm-none-eabi/include/c++/6.3.1/bits/stl_construct.h ****  * Permission to use, copy, modify, distribute and sell this software
  43:/home/zkmike/.local/share/renesas/e2_studio/toolchains/gcc_arm/gcc-arm-none-eabi-6-2017-q2-update/arm-none-eabi/include/c++/6.3.1/bits/stl_construct.h ****  * and its documentation for any purpose is hereby granted without fee,
  44:/home/zkmike/.local/share/renesas/e2_studio/toolchains/gcc_arm/gcc-arm-none-eabi-6-2017-q2-update/arm-none-eabi/include/c++/6.3.1/bits/stl_construct.h ****  * provided that the above copyright notice appear in all copies and
  45:/home/zkmike/.local/share/renesas/e2_studio/toolchains/gcc_arm/gcc-arm-none-eabi-6-2017-q2-update/arm-none-eabi/include/c++/6.3.1/bits/stl_construct.h ****  * that both that copyright notice and this permission notice appear
  46:/home/zkmike/.local/share/renesas/e2_studio/toolchains/gcc_arm/gcc-arm-none-eabi-6-2017-q2-update/arm-none-eabi/include/c++/6.3.1/bits/stl_construct.h ****  * in supporting documentation.  Silicon Graphics makes no
  47:/home/zkmike/.local/share/renesas/e2_studio/toolchains/gcc_arm/gcc-arm-none-eabi-6-2017-q2-update/arm-none-eabi/include/c++/6.3.1/bits/stl_construct.h ****  * representations about the suitability of this software for any
  48:/home/zkmike/.local/share/renesas/e2_studio/toolchains/gcc_arm/gcc-arm-none-eabi-6-2017-q2-update/arm-none-eabi/include/c++/6.3.1/bits/stl_construct.h ****  * purpose.  It is provided "as is" without express or implied warranty.
  49:/home/zkmike/.local/share/renesas/e2_studio/toolchains/gcc_arm/gcc-arm-none-eabi-6-2017-q2-update/arm-none-eabi/include/c++/6.3.1/bits/stl_construct.h ****  */
  50:/home/zkmike/.local/share/renesas/e2_studio/toolchains/gcc_arm/gcc-arm-none-eabi-6-2017-q2-update/arm-none-eabi/include/c++/6.3.1/bits/stl_construct.h **** 
  51:/home/zkmike/.local/share/renesas/e2_studio/toolchains/gcc_arm/gcc-arm-none-eabi-6-2017-q2-update/arm-none-eabi/include/c++/6.3.1/bits/stl_construct.h **** /** @file bits/stl_construct.h
  52:/home/zkmike/.local/share/renesas/e2_studio/toolchains/gcc_arm/gcc-arm-none-eabi-6-2017-q2-update/arm-none-eabi/include/c++/6.3.1/bits/stl_construct.h ****  *  This is an internal header file, included by other library headers.
  53:/home/zkmike/.local/share/renesas/e2_studio/toolchains/gcc_arm/gcc-arm-none-eabi-6-2017-q2-update/arm-none-eabi/include/c++/6.3.1/bits/stl_construct.h ****  *  Do not attempt to use it directly. @headername{memory}
  54:/home/zkmike/.local/share/renesas/e2_studio/toolchains/gcc_arm/gcc-arm-none-eabi-6-2017-q2-update/arm-none-eabi/include/c++/6.3.1/bits/stl_construct.h ****  */
  55:/home/zkmike/.local/share/renesas/e2_studio/toolchains/gcc_arm/gcc-arm-none-eabi-6-2017-q2-update/arm-none-eabi/include/c++/6.3.1/bits/stl_construct.h **** 
  56:/home/zkmike/.local/share/renesas/e2_studio/toolchains/gcc_arm/gcc-arm-none-eabi-6-2017-q2-update/arm-none-eabi/include/c++/6.3.1/bits/stl_construct.h **** #ifndef _STL_CONSTRUCT_H
  57:/home/zkmike/.local/share/renesas/e2_studio/toolchains/gcc_arm/gcc-arm-none-eabi-6-2017-q2-update/arm-none-eabi/include/c++/6.3.1/bits/stl_construct.h **** #define _STL_CONSTRUCT_H 1
  58:/home/zkmike/.local/share/renesas/e2_studio/toolchains/gcc_arm/gcc-arm-none-eabi-6-2017-q2-update/arm-none-eabi/include/c++/6.3.1/bits/stl_construct.h **** 
  59:/home/zkmike/.local/share/renesas/e2_studio/toolchains/gcc_arm/gcc-arm-none-eabi-6-2017-q2-update/arm-none-eabi/include/c++/6.3.1/bits/stl_construct.h **** #include <new>
  60:/home/zkmike/.local/share/renesas/e2_studio/toolchains/gcc_arm/gcc-arm-none-eabi-6-2017-q2-update/arm-none-eabi/include/c++/6.3.1/bits/stl_construct.h **** #include <bits/move.h>
  61:/home/zkmike/.local/share/renesas/e2_studio/toolchains/gcc_arm/gcc-arm-none-eabi-6-2017-q2-update/arm-none-eabi/include/c++/6.3.1/bits/stl_construct.h **** #include <ext/alloc_traits.h>
  62:/home/zkmike/.local/share/renesas/e2_studio/toolchains/gcc_arm/gcc-arm-none-eabi-6-2017-q2-update/arm-none-eabi/include/c++/6.3.1/bits/stl_construct.h **** 
  63:/home/zkmike/.local/share/renesas/e2_studio/toolchains/gcc_arm/gcc-arm-none-eabi-6-2017-q2-update/arm-none-eabi/include/c++/6.3.1/bits/stl_construct.h **** namespace std _GLIBCXX_VISIBILITY(default)
  64:/home/zkmike/.local/share/renesas/e2_studio/toolchains/gcc_arm/gcc-arm-none-eabi-6-2017-q2-update/arm-none-eabi/include/c++/6.3.1/bits/stl_construct.h **** {
  65:/home/zkmike/.local/share/renesas/e2_studio/toolchains/gcc_arm/gcc-arm-none-eabi-6-2017-q2-update/arm-none-eabi/include/c++/6.3.1/bits/stl_construct.h **** _GLIBCXX_BEGIN_NAMESPACE_VERSION
  66:/home/zkmike/.local/share/renesas/e2_studio/toolchains/gcc_arm/gcc-arm-none-eabi-6-2017-q2-update/arm-none-eabi/include/c++/6.3.1/bits/stl_construct.h **** 
  67:/home/zkmike/.local/share/renesas/e2_studio/toolchains/gcc_arm/gcc-arm-none-eabi-6-2017-q2-update/arm-none-eabi/include/c++/6.3.1/bits/stl_construct.h ****   /**
  68:/home/zkmike/.local/share/renesas/e2_studio/toolchains/gcc_arm/gcc-arm-none-eabi-6-2017-q2-update/arm-none-eabi/include/c++/6.3.1/bits/stl_construct.h ****    * Constructs an object in existing memory by invoking an allocated
  69:/home/zkmike/.local/share/renesas/e2_studio/toolchains/gcc_arm/gcc-arm-none-eabi-6-2017-q2-update/arm-none-eabi/include/c++/6.3.1/bits/stl_construct.h ****    * object's constructor with an initializer.
  70:/home/zkmike/.local/share/renesas/e2_studio/toolchains/gcc_arm/gcc-arm-none-eabi-6-2017-q2-update/arm-none-eabi/include/c++/6.3.1/bits/stl_construct.h ****    */
  71:/home/zkmike/.local/share/renesas/e2_studio/toolchains/gcc_arm/gcc-arm-none-eabi-6-2017-q2-update/arm-none-eabi/include/c++/6.3.1/bits/stl_construct.h **** #if __cplusplus >= 201103L
  72:/home/zkmike/.local/share/renesas/e2_studio/toolchains/gcc_arm/gcc-arm-none-eabi-6-2017-q2-update/arm-none-eabi/include/c++/6.3.1/bits/stl_construct.h ****   template<typename _T1, typename... _Args>
  73:/home/zkmike/.local/share/renesas/e2_studio/toolchains/gcc_arm/gcc-arm-none-eabi-6-2017-q2-update/arm-none-eabi/include/c++/6.3.1/bits/stl_construct.h ****     inline void
  74:/home/zkmike/.local/share/renesas/e2_studio/toolchains/gcc_arm/gcc-arm-none-eabi-6-2017-q2-update/arm-none-eabi/include/c++/6.3.1/bits/stl_construct.h ****     _Construct(_T1* __p, _Args&&... __args)
  75:/home/zkmike/.local/share/renesas/e2_studio/toolchains/gcc_arm/gcc-arm-none-eabi-6-2017-q2-update/arm-none-eabi/include/c++/6.3.1/bits/stl_construct.h ****     { ::new(static_cast<void*>(__p)) _T1(std::forward<_Args>(__args)...); }
  76:/home/zkmike/.local/share/renesas/e2_studio/toolchains/gcc_arm/gcc-arm-none-eabi-6-2017-q2-update/arm-none-eabi/include/c++/6.3.1/bits/stl_construct.h **** #else
  77:/home/zkmike/.local/share/renesas/e2_studio/toolchains/gcc_arm/gcc-arm-none-eabi-6-2017-q2-update/arm-none-eabi/include/c++/6.3.1/bits/stl_construct.h ****   template<typename _T1, typename _T2>
  78:/home/zkmike/.local/share/renesas/e2_studio/toolchains/gcc_arm/gcc-arm-none-eabi-6-2017-q2-update/arm-none-eabi/include/c++/6.3.1/bits/stl_construct.h ****     inline void
  79:/home/zkmike/.local/share/renesas/e2_studio/toolchains/gcc_arm/gcc-arm-none-eabi-6-2017-q2-update/arm-none-eabi/include/c++/6.3.1/bits/stl_construct.h ****     _Construct(_T1* __p, const _T2& __value)
  80:/home/zkmike/.local/share/renesas/e2_studio/toolchains/gcc_arm/gcc-arm-none-eabi-6-2017-q2-update/arm-none-eabi/include/c++/6.3.1/bits/stl_construct.h ****     {
  81:/home/zkmike/.local/share/renesas/e2_studio/toolchains/gcc_arm/gcc-arm-none-eabi-6-2017-q2-update/arm-none-eabi/include/c++/6.3.1/bits/stl_construct.h ****       // _GLIBCXX_RESOLVE_LIB_DEFECTS
  82:/home/zkmike/.local/share/renesas/e2_studio/toolchains/gcc_arm/gcc-arm-none-eabi-6-2017-q2-update/arm-none-eabi/include/c++/6.3.1/bits/stl_construct.h ****       // 402. wrong new expression in [some_]allocator::construct
  83:/home/zkmike/.local/share/renesas/e2_studio/toolchains/gcc_arm/gcc-arm-none-eabi-6-2017-q2-update/arm-none-eabi/include/c++/6.3.1/bits/stl_construct.h ****       ::new(static_cast<void*>(__p)) _T1(__value);
  84:/home/zkmike/.local/share/renesas/e2_studio/toolchains/gcc_arm/gcc-arm-none-eabi-6-2017-q2-update/arm-none-eabi/include/c++/6.3.1/bits/stl_construct.h ****     }
  85:/home/zkmike/.local/share/renesas/e2_studio/toolchains/gcc_arm/gcc-arm-none-eabi-6-2017-q2-update/arm-none-eabi/include/c++/6.3.1/bits/stl_construct.h **** #endif
  86:/home/zkmike/.local/share/renesas/e2_studio/toolchains/gcc_arm/gcc-arm-none-eabi-6-2017-q2-update/arm-none-eabi/include/c++/6.3.1/bits/stl_construct.h **** 
  87:/home/zkmike/.local/share/renesas/e2_studio/toolchains/gcc_arm/gcc-arm-none-eabi-6-2017-q2-update/arm-none-eabi/include/c++/6.3.1/bits/stl_construct.h ****   /**
  88:/home/zkmike/.local/share/renesas/e2_studio/toolchains/gcc_arm/gcc-arm-none-eabi-6-2017-q2-update/arm-none-eabi/include/c++/6.3.1/bits/stl_construct.h ****    * Destroy the object pointed to by a pointer type.
  89:/home/zkmike/.local/share/renesas/e2_studio/toolchains/gcc_arm/gcc-arm-none-eabi-6-2017-q2-update/arm-none-eabi/include/c++/6.3.1/bits/stl_construct.h ****    */
  90:/home/zkmike/.local/share/renesas/e2_studio/toolchains/gcc_arm/gcc-arm-none-eabi-6-2017-q2-update/arm-none-eabi/include/c++/6.3.1/bits/stl_construct.h ****   template<typename _Tp>
  91:/home/zkmike/.local/share/renesas/e2_studio/toolchains/gcc_arm/gcc-arm-none-eabi-6-2017-q2-update/arm-none-eabi/include/c++/6.3.1/bits/stl_construct.h ****     inline void
  92:/home/zkmike/.local/share/renesas/e2_studio/toolchains/gcc_arm/gcc-arm-none-eabi-6-2017-q2-update/arm-none-eabi/include/c++/6.3.1/bits/stl_construct.h ****     _Destroy(_Tp* __pointer)
  93:/home/zkmike/.local/share/renesas/e2_studio/toolchains/gcc_arm/gcc-arm-none-eabi-6-2017-q2-update/arm-none-eabi/include/c++/6.3.1/bits/stl_construct.h ****     { __pointer->~_Tp(); }
  94:/home/zkmike/.local/share/renesas/e2_studio/toolchains/gcc_arm/gcc-arm-none-eabi-6-2017-q2-update/arm-none-eabi/include/c++/6.3.1/bits/stl_construct.h **** 
  95:/home/zkmike/.local/share/renesas/e2_studio/toolchains/gcc_arm/gcc-arm-none-eabi-6-2017-q2-update/arm-none-eabi/include/c++/6.3.1/bits/stl_construct.h ****   template<bool>
  96:/home/zkmike/.local/share/renesas/e2_studio/toolchains/gcc_arm/gcc-arm-none-eabi-6-2017-q2-update/arm-none-eabi/include/c++/6.3.1/bits/stl_construct.h ****     struct _Destroy_aux
  97:/home/zkmike/.local/share/renesas/e2_studio/toolchains/gcc_arm/gcc-arm-none-eabi-6-2017-q2-update/arm-none-eabi/include/c++/6.3.1/bits/stl_construct.h ****     {
  98:/home/zkmike/.local/share/renesas/e2_studio/toolchains/gcc_arm/gcc-arm-none-eabi-6-2017-q2-update/arm-none-eabi/include/c++/6.3.1/bits/stl_construct.h ****       template<typename _ForwardIterator>
  99:/home/zkmike/.local/share/renesas/e2_studio/toolchains/gcc_arm/gcc-arm-none-eabi-6-2017-q2-update/arm-none-eabi/include/c++/6.3.1/bits/stl_construct.h ****         static void
 100:/home/zkmike/.local/share/renesas/e2_studio/toolchains/gcc_arm/gcc-arm-none-eabi-6-2017-q2-update/arm-none-eabi/include/c++/6.3.1/bits/stl_construct.h ****         __destroy(_ForwardIterator __first, _ForwardIterator __last)
 101:/home/zkmike/.local/share/renesas/e2_studio/toolchains/gcc_arm/gcc-arm-none-eabi-6-2017-q2-update/arm-none-eabi/include/c++/6.3.1/bits/stl_construct.h **** 	{
 102:/home/zkmike/.local/share/renesas/e2_studio/toolchains/gcc_arm/gcc-arm-none-eabi-6-2017-q2-update/arm-none-eabi/include/c++/6.3.1/bits/stl_construct.h **** 	  for (; __first != __last; ++__first)
 881              		.loc 8 102 0
 882 001c 040055E1 		cmp	r5, r4
 883 0020 0500000A 		beq	.L60
 884              	.LBB1987:
 885              	.LBB1988:
  93:/home/zkmike/.local/share/renesas/e2_studio/toolchains/gcc_arm/gcc-arm-none-eabi-6-2017-q2-update/arm-none-eabi/include/c++/6.3.1/bits/stl_construct.h **** 
 886              		.loc 8 93 0
 887 0024 003094E5 		ldr	r3, [r4]
 888 0028 003093E5 		ldr	r3, [r3]
 889 002c 0400A0E1 		mov	r0, r4
 890 0030 33FF2FE1 		blx	r3
 891              	.LVL84:
 892              	.LBE1988:
 893              	.LBE1987:
 894              		.loc 8 102 0
 895 0034 0C4084E2 		add	r4, r4, #12
 896              	.LVL85:
 897 0038 F7FFFFEA 		b	.L61
 898              	.L60:
 899              	.LVL86:
 900              	.LBE1986:
 901              	.LBE1985:
 902              	.LBE1984:
 903              	.LBE1983:
 904              	.LBE1982:
 905              	.LBB1989:
 906              	.LBB1990:
 160:/home/zkmike/.local/share/renesas/e2_studio/toolchains/gcc_arm/gcc-arm-none-eabi-6-2017-q2-update/arm-none-eabi/include/c++/6.3.1/bits/stl_vector.h **** 		      - this->_M_impl._M_start); }
 907              		.loc 6 160 0
 908 003c 080096E5 		ldr	r0, [r6, #8]
 909              	.LVL87:
 910              	.LBB1991:
 911              	.LBB1992:
 177:/home/zkmike/.local/share/renesas/e2_studio/toolchains/gcc_arm/gcc-arm-none-eabi-6-2017-q2-update/arm-none-eabi/include/c++/6.3.1/bits/stl_vector.h **** 	  _Tr::deallocate(_M_impl, __p, __n);
 912              		.loc 6 177 0
 913 0040 000050E3 		cmp	r0, #0
 914 0044 0000000A 		beq	.L62
 915              	.LVL88:
 916              	.LBB1993:
 917              	.LBB1994:
 918              	.LBB1995:
 919              		.loc 7 110 0
 920 0048 FEFFFFEB 		bl	_ZdlPv
 921              	.LVL89:
 922              	.L62:
 923              	.LBE1995:
 924              	.LBE1994:
 925              	.LBE1993:
 926              	.LBE1992:
 927              	.LBE1991:
 928              	.LBE1990:
 929              	.LBE1989:
 930              	.LBE1981:
 931              	.LBE1980:
 932              	.LBE1979:
 933              	.LBE1978:
  57:/home/zkmike/workspace/RZA2M/rza2m_2d_barcode_sample_freertos_gcc/src/zxing_lib/zxing/common/Array.h ****   Array<T>& operator=(const Array<T> &other) {
 934              		.loc 2 57 0
 935 004c 1410A0E3 		mov	r1, #20
 936 0050 0600A0E1 		mov	r0, r6
 937 0054 FEFFFFEB 		bl	_ZdlPvj
 938              	.LVL90:
 939 0058 0600A0E1 		mov	r0, r6
 940 005c 7080BDE8 		pop	{r4, r5, r6, pc}
 941              	.L65:
 942              		.align	2
 943              	.L64:
 944 0060 08000000 		.word	_ZTVN5zxing5ArrayINS_8ArrayRefIcEEEE+8
 945              		.cfi_endproc
 946              	.LFE3590:
 947              		.cantunwind
 948              		.fnend
 950              		.section	.text._ZN5zxing9ExceptionD2Ev,"axG",%progbits,_ZN5zxing9ExceptionD5Ev,comdat
 951              		.align	2
 952              		.weak	_ZN5zxing9ExceptionD2Ev
 953              		.syntax unified
 954              		.arm
 955              		.fpu neon
 957              	_ZN5zxing9ExceptionD2Ev:
 958              		.fnstart
 959              	.LFB2093:
  37:/home/zkmike/workspace/RZA2M/rza2m_2d_barcode_sample_freertos_gcc/src/zxing_lib/zxing/Exception.h ****     if(message) {
 960              		.loc 1 37 0
 961              		.cfi_startproc
 962              		.cfi_personality 0,__gxx_personality_v0
 963              		.cfi_lsda 0,.LLSDA2093
 964              		@ args = 0, pretend = 0, frame = 0
 965              		@ frame_needed = 0, uses_anonymous_args = 0
 966              	.LVL91:
 967 0000 70402DE9 		push	{r4, r5, r6, lr}
 968              		.save {r4, r5, r6, lr}
 969              		.cfi_def_cfa_offset 16
 970              		.cfi_offset 4, -16
 971              		.cfi_offset 5, -12
 972              		.cfi_offset 6, -8
 973              		.cfi_offset 14, -4
 974 0004 0040A0E1 		mov	r4, r0
 975              	.LBB1997:
  37:/home/zkmike/workspace/RZA2M/rza2m_2d_barcode_sample_freertos_gcc/src/zxing_lib/zxing/Exception.h ****     if(message) {
 976              		.loc 1 37 0
 977 0008 48309FE5 		ldr	r3, .L73
 978 000c 003080E5 		str	r3, [r0]
  38:/home/zkmike/workspace/RZA2M/rza2m_2d_barcode_sample_freertos_gcc/src/zxing_lib/zxing/Exception.h ****       deleteMessage();
 979              		.loc 1 38 0
 980 0010 043090E5 		ldr	r3, [r0, #4]
 981 0014 000053E3 		cmp	r3, #0
 982 0018 0A00000A 		beq	.L67
 983              	.LEHB3:
  39:/home/zkmike/workspace/RZA2M/rza2m_2d_barcode_sample_freertos_gcc/src/zxing_lib/zxing/Exception.h ****     }
 984              		.loc 1 39 0
 985 001c FEFFFFEB 		bl	_ZN5zxing9Exception13deleteMessageEv
 986              	.LVL92:
 987              	.LEHE3:
 988 0020 080000EA 		b	.L67
 989              	.L70:
 990 0024 0050A0E1 		mov	r5, r0
 991 0028 0160A0E1 		mov	r6, r1
  37:/home/zkmike/workspace/RZA2M/rza2m_2d_barcode_sample_freertos_gcc/src/zxing_lib/zxing/Exception.h ****     if(message) {
 992              		.loc 1 37 0
 993 002c 0400A0E1 		mov	r0, r4
 994 0030 FEFFFFEB 		bl	_ZNSt9exceptionD2Ev
 995              	.LVL93:
 996 0034 010076E3 		cmn	r6, #1
 997 0038 0000000A 		beq	.L69
 998              	.LEHB4:
 999 003c FEFFFFEB 		bl	__cxa_end_cleanup
 1000              	.LVL94:
 1001              	.L69:
 1002              	.LBE1997:
 1003 0040 0500A0E1 		mov	r0, r5
 1004 0044 FEFFFFEB 		bl	__cxa_call_unexpected
 1005              	.LVL95:
 1006              	.LEHE4:
 1007              	.L67:
 1008              	.LBB1998:
 1009 0048 0400A0E1 		mov	r0, r4
 1010 004c FEFFFFEB 		bl	_ZNSt9exceptionD2Ev
 1011              	.LVL96:
 1012              	.LBE1998:
  41:/home/zkmike/workspace/RZA2M/rza2m_2d_barcode_sample_freertos_gcc/src/zxing_lib/zxing/Exception.h ****   char const* what() const throw() {return message ? message : "";}
 1013              		.loc 1 41 0
 1014 0050 0400A0E1 		mov	r0, r4
 1015 0054 7080BDE8 		pop	{r4, r5, r6, pc}
 1016              	.L74:
 1017              		.align	2
 1018              	.L73:
 1019 0058 08000000 		.word	_ZTVN5zxing9ExceptionE+8
 1020              		.cfi_endproc
 1021              	.LFE2093:
 1022              		.personality	__gxx_personality_v0
 1023              		.handlerdata
 1024              		.align	2
 1025              	.LLSDA2093:
 1026 0008 FF       		.byte	0xff
 1027 0009 10       		.byte	0x10
 1028 000a 11       		.uleb128 .LLSDATT2093-.LLSDATTD2093
 1029              	.LLSDATTD2093:
 1030 000b 01       		.byte	0x1
 1031 000c 08       		.uleb128 .LLSDACSE2093-.LLSDACSB2093
 1032              	.LLSDACSB2093:
 1033 000d 1C       		.uleb128 .LEHB3-.LFB2093
 1034 000e 04       		.uleb128 .LEHE3-.LEHB3
 1035 000f 24       		.uleb128 .L70-.LFB2093
 1036 0010 03       		.uleb128 0x3
 1037 0011 3C       		.uleb128 .LEHB4-.LFB2093
 1038 0012 0C       		.uleb128 .LEHE4-.LEHB4
 1039 0013 00       		.uleb128 0
 1040 0014 00       		.uleb128 0
 1041              	.LLSDACSE2093:
 1042 0015 7F       		.byte	0x7f
 1043 0016 00       		.byte	0
 1044 0017 00       		.byte	0
 1045 0018 7D       		.byte	0x7d
 1046 0019 000000   		.align	2
 1047              	.LLSDATT2093:
 1048 001c 00000000 		.word	0
 1049              		.section	.text._ZN5zxing9ExceptionD2Ev,"axG",%progbits,_ZN5zxing9ExceptionD5Ev,comdat
 1050              		.fnend
 1052              		.weak	_ZN5zxing9ExceptionD1Ev
 1053              		.set	_ZN5zxing9ExceptionD1Ev,_ZN5zxing9ExceptionD2Ev
 1054              		.section	.text._Z41__static_initialization_and_destruction_0ii,"ax",%progbits
 1055              		.align	2
 1056              		.syntax unified
 1057              		.arm
 1058              		.fpu neon
 1060              	_Z41__static_initialization_and_destruction_0ii:
 1061              		.fnstart
 1062              	.LFB3586:
 344:../src/zxing_lib/zxing/qrcode/decoder/DecodedBitStreamParser.cpp ****   }
 345:../src/zxing_lib/zxing/qrcode/decoder/DecodedBitStreamParser.cpp **** }
 346:../src/zxing_lib/zxing/qrcode/decoder/DecodedBitStreamParser.cpp **** 
 347:../src/zxing_lib/zxing/qrcode/decoder/DecodedBitStreamParser.cpp **** Ref<DecoderResult>
 348:../src/zxing_lib/zxing/qrcode/decoder/DecodedBitStreamParser.cpp **** DecodedBitStreamParser::decode(ArrayRef<char> bytes,
 349:../src/zxing_lib/zxing/qrcode/decoder/DecodedBitStreamParser.cpp ****                                Version* version,
 350:../src/zxing_lib/zxing/qrcode/decoder/DecodedBitStreamParser.cpp ****                                ErrorCorrectionLevel const& ecLevel,
 351:../src/zxing_lib/zxing/qrcode/decoder/DecodedBitStreamParser.cpp ****                                Hashtable const& hints) {
 352:../src/zxing_lib/zxing/qrcode/decoder/DecodedBitStreamParser.cpp ****   Ref<BitSource> bits_ (new BitSource(bytes));
 353:../src/zxing_lib/zxing/qrcode/decoder/DecodedBitStreamParser.cpp ****   BitSource& bits (*bits_);
 354:../src/zxing_lib/zxing/qrcode/decoder/DecodedBitStreamParser.cpp ****   string result;
 355:../src/zxing_lib/zxing/qrcode/decoder/DecodedBitStreamParser.cpp ****   result.reserve(50);
 356:../src/zxing_lib/zxing/qrcode/decoder/DecodedBitStreamParser.cpp ****   ArrayRef< ArrayRef<char> > byteSegments (0);
 357:../src/zxing_lib/zxing/qrcode/decoder/DecodedBitStreamParser.cpp ****   try {
 358:../src/zxing_lib/zxing/qrcode/decoder/DecodedBitStreamParser.cpp ****     CharacterSetECI* currentCharacterSetECI = 0;
 359:../src/zxing_lib/zxing/qrcode/decoder/DecodedBitStreamParser.cpp ****     bool fc1InEffect = false;
 360:../src/zxing_lib/zxing/qrcode/decoder/DecodedBitStreamParser.cpp ****     Mode* mode = 0;
 361:../src/zxing_lib/zxing/qrcode/decoder/DecodedBitStreamParser.cpp ****     do {
 362:../src/zxing_lib/zxing/qrcode/decoder/DecodedBitStreamParser.cpp ****       // While still another segment to read...
 363:../src/zxing_lib/zxing/qrcode/decoder/DecodedBitStreamParser.cpp ****       if (bits.available() < 4) {
 364:../src/zxing_lib/zxing/qrcode/decoder/DecodedBitStreamParser.cpp ****         // OK, assume we're done. Really, a TERMINATOR mode should have been recorded here
 365:../src/zxing_lib/zxing/qrcode/decoder/DecodedBitStreamParser.cpp ****         mode = &Mode::TERMINATOR;
 366:../src/zxing_lib/zxing/qrcode/decoder/DecodedBitStreamParser.cpp ****       } else {
 367:../src/zxing_lib/zxing/qrcode/decoder/DecodedBitStreamParser.cpp ****         try {
 368:../src/zxing_lib/zxing/qrcode/decoder/DecodedBitStreamParser.cpp ****           mode = &Mode::forBits(bits.readBits(4)); // mode is encoded by 4 bits
 369:../src/zxing_lib/zxing/qrcode/decoder/DecodedBitStreamParser.cpp ****         } catch (IllegalArgumentException const& iae) {
 370:../src/zxing_lib/zxing/qrcode/decoder/DecodedBitStreamParser.cpp ****           throw iae;
 371:../src/zxing_lib/zxing/qrcode/decoder/DecodedBitStreamParser.cpp ****           // throw FormatException.getFormatInstance();
 372:../src/zxing_lib/zxing/qrcode/decoder/DecodedBitStreamParser.cpp ****         }
 373:../src/zxing_lib/zxing/qrcode/decoder/DecodedBitStreamParser.cpp ****       }
 374:../src/zxing_lib/zxing/qrcode/decoder/DecodedBitStreamParser.cpp ****       if (mode != &Mode::TERMINATOR) {
 375:../src/zxing_lib/zxing/qrcode/decoder/DecodedBitStreamParser.cpp ****         if ((mode == &Mode::FNC1_FIRST_POSITION) || (mode == &Mode::FNC1_SECOND_POSITION)) {
 376:../src/zxing_lib/zxing/qrcode/decoder/DecodedBitStreamParser.cpp ****           // We do little with FNC1 except alter the parsed result a bit according to the spec
 377:../src/zxing_lib/zxing/qrcode/decoder/DecodedBitStreamParser.cpp ****           fc1InEffect = true;
 378:../src/zxing_lib/zxing/qrcode/decoder/DecodedBitStreamParser.cpp ****         } else if (mode == &Mode::STRUCTURED_APPEND) {
 379:../src/zxing_lib/zxing/qrcode/decoder/DecodedBitStreamParser.cpp ****           if (bits.available() < 16) {
 380:../src/zxing_lib/zxing/qrcode/decoder/DecodedBitStreamParser.cpp ****             throw FormatException();
 381:../src/zxing_lib/zxing/qrcode/decoder/DecodedBitStreamParser.cpp ****           }
 382:../src/zxing_lib/zxing/qrcode/decoder/DecodedBitStreamParser.cpp ****           // not really supported; all we do is ignore it
 383:../src/zxing_lib/zxing/qrcode/decoder/DecodedBitStreamParser.cpp ****           // Read next 8 bits (symbol sequence #) and 8 bits (parity data), then continue
 384:../src/zxing_lib/zxing/qrcode/decoder/DecodedBitStreamParser.cpp ****           bits.readBits(16);
 385:../src/zxing_lib/zxing/qrcode/decoder/DecodedBitStreamParser.cpp ****         } else if (mode == &Mode::ECI) {
 386:../src/zxing_lib/zxing/qrcode/decoder/DecodedBitStreamParser.cpp ****           // Count doesn't apply to ECI
 387:../src/zxing_lib/zxing/qrcode/decoder/DecodedBitStreamParser.cpp ****           int value = parseECIValue(bits);
 388:../src/zxing_lib/zxing/qrcode/decoder/DecodedBitStreamParser.cpp ****           currentCharacterSetECI = CharacterSetECI::getCharacterSetECIByValue(value);
 389:../src/zxing_lib/zxing/qrcode/decoder/DecodedBitStreamParser.cpp ****           if (currentCharacterSetECI == 0) {
 390:../src/zxing_lib/zxing/qrcode/decoder/DecodedBitStreamParser.cpp ****             throw FormatException();
 391:../src/zxing_lib/zxing/qrcode/decoder/DecodedBitStreamParser.cpp ****           }
 392:../src/zxing_lib/zxing/qrcode/decoder/DecodedBitStreamParser.cpp ****         } else {
 393:../src/zxing_lib/zxing/qrcode/decoder/DecodedBitStreamParser.cpp ****           // First handle Hanzi mode which does not start with character count
 394:../src/zxing_lib/zxing/qrcode/decoder/DecodedBitStreamParser.cpp ****           if (mode == &Mode::HANZI) {
 395:../src/zxing_lib/zxing/qrcode/decoder/DecodedBitStreamParser.cpp ****             //chinese mode contains a sub set indicator right after mode indicator
 396:../src/zxing_lib/zxing/qrcode/decoder/DecodedBitStreamParser.cpp ****             int subset = bits.readBits(4);
 397:../src/zxing_lib/zxing/qrcode/decoder/DecodedBitStreamParser.cpp ****             int countHanzi = bits.readBits(mode->getCharacterCountBits(version));
 398:../src/zxing_lib/zxing/qrcode/decoder/DecodedBitStreamParser.cpp ****             if (subset == GB2312_SUBSET) {
 399:../src/zxing_lib/zxing/qrcode/decoder/DecodedBitStreamParser.cpp ****               decodeHanziSegment(bits_, result, countHanzi);
 400:../src/zxing_lib/zxing/qrcode/decoder/DecodedBitStreamParser.cpp ****             }
 401:../src/zxing_lib/zxing/qrcode/decoder/DecodedBitStreamParser.cpp ****           } else {
 402:../src/zxing_lib/zxing/qrcode/decoder/DecodedBitStreamParser.cpp ****             // "Normal" QR code modes:
 403:../src/zxing_lib/zxing/qrcode/decoder/DecodedBitStreamParser.cpp ****             // How many characters will follow, encoded in this mode?
 404:../src/zxing_lib/zxing/qrcode/decoder/DecodedBitStreamParser.cpp ****             int count = bits.readBits(mode->getCharacterCountBits(version));
 405:../src/zxing_lib/zxing/qrcode/decoder/DecodedBitStreamParser.cpp ****             if (mode == &Mode::NUMERIC) {
 406:../src/zxing_lib/zxing/qrcode/decoder/DecodedBitStreamParser.cpp ****               decodeNumericSegment(bits_, result, count);
 407:../src/zxing_lib/zxing/qrcode/decoder/DecodedBitStreamParser.cpp ****             } else if (mode == &Mode::ALPHANUMERIC) {
 408:../src/zxing_lib/zxing/qrcode/decoder/DecodedBitStreamParser.cpp ****               decodeAlphanumericSegment(bits_, result, count, fc1InEffect);
 409:../src/zxing_lib/zxing/qrcode/decoder/DecodedBitStreamParser.cpp ****             } else if (mode == &Mode::BYTE) {
 410:../src/zxing_lib/zxing/qrcode/decoder/DecodedBitStreamParser.cpp ****               decodeByteSegment(bits_, result, count, currentCharacterSetECI, byteSegments, hints);
 411:../src/zxing_lib/zxing/qrcode/decoder/DecodedBitStreamParser.cpp ****             } else if (mode == &Mode::KANJI) {
 412:../src/zxing_lib/zxing/qrcode/decoder/DecodedBitStreamParser.cpp ****               decodeKanjiSegment(bits_, result, count);
 413:../src/zxing_lib/zxing/qrcode/decoder/DecodedBitStreamParser.cpp ****             } else {
 414:../src/zxing_lib/zxing/qrcode/decoder/DecodedBitStreamParser.cpp ****               throw FormatException();
 415:../src/zxing_lib/zxing/qrcode/decoder/DecodedBitStreamParser.cpp ****             }
 416:../src/zxing_lib/zxing/qrcode/decoder/DecodedBitStreamParser.cpp ****           }
 417:../src/zxing_lib/zxing/qrcode/decoder/DecodedBitStreamParser.cpp ****         }
 418:../src/zxing_lib/zxing/qrcode/decoder/DecodedBitStreamParser.cpp ****       }
 419:../src/zxing_lib/zxing/qrcode/decoder/DecodedBitStreamParser.cpp ****     } while (mode != &Mode::TERMINATOR);
 420:../src/zxing_lib/zxing/qrcode/decoder/DecodedBitStreamParser.cpp ****   } catch (IllegalArgumentException const& iae) {
 421:../src/zxing_lib/zxing/qrcode/decoder/DecodedBitStreamParser.cpp ****     (void)iae;
 422:../src/zxing_lib/zxing/qrcode/decoder/DecodedBitStreamParser.cpp ****     // from readBits() calls
 423:../src/zxing_lib/zxing/qrcode/decoder/DecodedBitStreamParser.cpp ****     throw FormatException();
 424:../src/zxing_lib/zxing/qrcode/decoder/DecodedBitStreamParser.cpp ****   }
 425:../src/zxing_lib/zxing/qrcode/decoder/DecodedBitStreamParser.cpp ****   
 426:../src/zxing_lib/zxing/qrcode/decoder/DecodedBitStreamParser.cpp ****   return Ref<DecoderResult>(new DecoderResult(bytes, Ref<String>(new String(result)), byteSegments,
 427:../src/zxing_lib/zxing/qrcode/decoder/DecodedBitStreamParser.cpp **** }
 1063              		.loc 5 427 0
 1064              		.cfi_startproc
 1065              		@ args = 0, pretend = 0, frame = 0
 1066              		@ frame_needed = 0, uses_anonymous_args = 0
 1067              	.LVL97:
 1068 0000 010050E3 		cmp	r0, #1
 1069 0004 1EFF2F11 		bxne	lr
 1070              		.loc 5 427 0 is_stmt 0 discriminator 1
 1071 0008 FF3F0FE3 		movw	r3, #65535
 1072 000c 030051E1 		cmp	r1, r3
 1073 0010 1EFF2F11 		bxne	lr
 1074              		.loc 5 427 0
 1075 0014 10402DE9 		push	{r4, lr}
 1076              		.cfi_def_cfa_offset 8
 1077              		.cfi_offset 4, -8
 1078              		.cfi_offset 14, -4
 1079              		.file 9 "/home/zkmike/.local/share/renesas/e2_studio/toolchains/gcc_arm/gcc-arm-none-eabi-6-2017-q
   1:/home/zkmike/.local/share/renesas/e2_studio/toolchains/gcc_arm/gcc-arm-none-eabi-6-2017-q2-update/arm-none-eabi/include/c++/6.3.1/iostream **** // Standard iostream objects -*- C++ -*-
   2:/home/zkmike/.local/share/renesas/e2_studio/toolchains/gcc_arm/gcc-arm-none-eabi-6-2017-q2-update/arm-none-eabi/include/c++/6.3.1/iostream **** 
   3:/home/zkmike/.local/share/renesas/e2_studio/toolchains/gcc_arm/gcc-arm-none-eabi-6-2017-q2-update/arm-none-eabi/include/c++/6.3.1/iostream **** // Copyright (C) 1997-2016 Free Software Foundation, Inc.
   4:/home/zkmike/.local/share/renesas/e2_studio/toolchains/gcc_arm/gcc-arm-none-eabi-6-2017-q2-update/arm-none-eabi/include/c++/6.3.1/iostream **** //
   5:/home/zkmike/.local/share/renesas/e2_studio/toolchains/gcc_arm/gcc-arm-none-eabi-6-2017-q2-update/arm-none-eabi/include/c++/6.3.1/iostream **** // This file is part of the GNU ISO C++ Library.  This library is free
   6:/home/zkmike/.local/share/renesas/e2_studio/toolchains/gcc_arm/gcc-arm-none-eabi-6-2017-q2-update/arm-none-eabi/include/c++/6.3.1/iostream **** // software; you can redistribute it and/or modify it under the
   7:/home/zkmike/.local/share/renesas/e2_studio/toolchains/gcc_arm/gcc-arm-none-eabi-6-2017-q2-update/arm-none-eabi/include/c++/6.3.1/iostream **** // terms of the GNU General Public License as published by the
   8:/home/zkmike/.local/share/renesas/e2_studio/toolchains/gcc_arm/gcc-arm-none-eabi-6-2017-q2-update/arm-none-eabi/include/c++/6.3.1/iostream **** // Free Software Foundation; either version 3, or (at your option)
   9:/home/zkmike/.local/share/renesas/e2_studio/toolchains/gcc_arm/gcc-arm-none-eabi-6-2017-q2-update/arm-none-eabi/include/c++/6.3.1/iostream **** // any later version.
  10:/home/zkmike/.local/share/renesas/e2_studio/toolchains/gcc_arm/gcc-arm-none-eabi-6-2017-q2-update/arm-none-eabi/include/c++/6.3.1/iostream **** 
  11:/home/zkmike/.local/share/renesas/e2_studio/toolchains/gcc_arm/gcc-arm-none-eabi-6-2017-q2-update/arm-none-eabi/include/c++/6.3.1/iostream **** // This library is distributed in the hope that it will be useful,
  12:/home/zkmike/.local/share/renesas/e2_studio/toolchains/gcc_arm/gcc-arm-none-eabi-6-2017-q2-update/arm-none-eabi/include/c++/6.3.1/iostream **** // but WITHOUT ANY WARRANTY; without even the implied warranty of
  13:/home/zkmike/.local/share/renesas/e2_studio/toolchains/gcc_arm/gcc-arm-none-eabi-6-2017-q2-update/arm-none-eabi/include/c++/6.3.1/iostream **** // MERCHANTABILITY or FITNESS FOR A PARTICULAR PURPOSE.  See the
  14:/home/zkmike/.local/share/renesas/e2_studio/toolchains/gcc_arm/gcc-arm-none-eabi-6-2017-q2-update/arm-none-eabi/include/c++/6.3.1/iostream **** // GNU General Public License for more details.
  15:/home/zkmike/.local/share/renesas/e2_studio/toolchains/gcc_arm/gcc-arm-none-eabi-6-2017-q2-update/arm-none-eabi/include/c++/6.3.1/iostream **** 
  16:/home/zkmike/.local/share/renesas/e2_studio/toolchains/gcc_arm/gcc-arm-none-eabi-6-2017-q2-update/arm-none-eabi/include/c++/6.3.1/iostream **** // Under Section 7 of GPL version 3, you are granted additional
  17:/home/zkmike/.local/share/renesas/e2_studio/toolchains/gcc_arm/gcc-arm-none-eabi-6-2017-q2-update/arm-none-eabi/include/c++/6.3.1/iostream **** // permissions described in the GCC Runtime Library Exception, version
  18:/home/zkmike/.local/share/renesas/e2_studio/toolchains/gcc_arm/gcc-arm-none-eabi-6-2017-q2-update/arm-none-eabi/include/c++/6.3.1/iostream **** // 3.1, as published by the Free Software Foundation.
  19:/home/zkmike/.local/share/renesas/e2_studio/toolchains/gcc_arm/gcc-arm-none-eabi-6-2017-q2-update/arm-none-eabi/include/c++/6.3.1/iostream **** 
