   1              		.cpu cortex-a9
   2              		.eabi_attribute 28, 1
   3              		.eabi_attribute 20, 1
   4              		.eabi_attribute 21, 1
   5              		.eabi_attribute 23, 3
   6              		.eabi_attribute 24, 1
   7              		.eabi_attribute 25, 1
   8              		.eabi_attribute 26, 1
   9              		.eabi_attribute 30, 1
  10              		.eabi_attribute 34, 0
  11              		.eabi_attribute 18, 4
  12              		.file	"Mode.cpp"
  13              		.text
  14              	.Ltext0:
  15              		.cfi_sections	.debug_frame
  16              		.section	.text._ZNK5zxing9Exception4whatEv,"axG",%progbits,_ZNK5zxing9Exception4whatEv,comdat
  17              		.align	2
  18              		.weak	_ZNK5zxing9Exception4whatEv
  19              		.syntax unified
  20              		.arm
  21              		.fpu neon
  23              	_ZNK5zxing9Exception4whatEv:
  24              		.fnstart
  25              	.LFB1871:
  26              		.file 1 "/home/zkmike/workspace/RZA2M/rza2m_2d_barcode_sample_freertos_gcc/src/zxing_lib/zxing/Exc
   1:/home/zkmike/workspace/RZA2M/rza2m_2d_barcode_sample_freertos_gcc/src/zxing_lib/zxing/Exception.h **** // -*- mode:c++; tab-width:2; indent-tabs-mode:nil; c-basic-offset:2 -*-
   2:/home/zkmike/workspace/RZA2M/rza2m_2d_barcode_sample_freertos_gcc/src/zxing_lib/zxing/Exception.h **** #ifndef __EXCEPTION_H__
   3:/home/zkmike/workspace/RZA2M/rza2m_2d_barcode_sample_freertos_gcc/src/zxing_lib/zxing/Exception.h **** #define __EXCEPTION_H__
   4:/home/zkmike/workspace/RZA2M/rza2m_2d_barcode_sample_freertos_gcc/src/zxing_lib/zxing/Exception.h **** 
   5:/home/zkmike/workspace/RZA2M/rza2m_2d_barcode_sample_freertos_gcc/src/zxing_lib/zxing/Exception.h **** /*
   6:/home/zkmike/workspace/RZA2M/rza2m_2d_barcode_sample_freertos_gcc/src/zxing_lib/zxing/Exception.h ****  *  Exception.h
   7:/home/zkmike/workspace/RZA2M/rza2m_2d_barcode_sample_freertos_gcc/src/zxing_lib/zxing/Exception.h ****  *  ZXing
   8:/home/zkmike/workspace/RZA2M/rza2m_2d_barcode_sample_freertos_gcc/src/zxing_lib/zxing/Exception.h ****  *
   9:/home/zkmike/workspace/RZA2M/rza2m_2d_barcode_sample_freertos_gcc/src/zxing_lib/zxing/Exception.h ****  *  Copyright 2010 ZXing authors All rights reserved.
  10:/home/zkmike/workspace/RZA2M/rza2m_2d_barcode_sample_freertos_gcc/src/zxing_lib/zxing/Exception.h ****  *
  11:/home/zkmike/workspace/RZA2M/rza2m_2d_barcode_sample_freertos_gcc/src/zxing_lib/zxing/Exception.h ****  * Licensed under the Apache License, Version 2.0 (the "License");
  12:/home/zkmike/workspace/RZA2M/rza2m_2d_barcode_sample_freertos_gcc/src/zxing_lib/zxing/Exception.h ****  * you may not use this file except in compliance with the License.
  13:/home/zkmike/workspace/RZA2M/rza2m_2d_barcode_sample_freertos_gcc/src/zxing_lib/zxing/Exception.h ****  * You may obtain a copy of the License at
  14:/home/zkmike/workspace/RZA2M/rza2m_2d_barcode_sample_freertos_gcc/src/zxing_lib/zxing/Exception.h ****  *
  15:/home/zkmike/workspace/RZA2M/rza2m_2d_barcode_sample_freertos_gcc/src/zxing_lib/zxing/Exception.h ****  *      http://www.apache.org/licenses/LICENSE-2.0
  16:/home/zkmike/workspace/RZA2M/rza2m_2d_barcode_sample_freertos_gcc/src/zxing_lib/zxing/Exception.h ****  *
  17:/home/zkmike/workspace/RZA2M/rza2m_2d_barcode_sample_freertos_gcc/src/zxing_lib/zxing/Exception.h ****  * Unless required by applicable law or agreed to in writing, software
  18:/home/zkmike/workspace/RZA2M/rza2m_2d_barcode_sample_freertos_gcc/src/zxing_lib/zxing/Exception.h ****  * distributed under the License is distributed on an "AS IS" BASIS,
  19:/home/zkmike/workspace/RZA2M/rza2m_2d_barcode_sample_freertos_gcc/src/zxing_lib/zxing/Exception.h ****  * WITHOUT WARRANTIES OR CONDITIONS OF ANY KIND, either express or implied.
  20:/home/zkmike/workspace/RZA2M/rza2m_2d_barcode_sample_freertos_gcc/src/zxing_lib/zxing/Exception.h ****  * See the License for the specific language governing permissions and
  21:/home/zkmike/workspace/RZA2M/rza2m_2d_barcode_sample_freertos_gcc/src/zxing_lib/zxing/Exception.h ****  * limitations under the License.
  22:/home/zkmike/workspace/RZA2M/rza2m_2d_barcode_sample_freertos_gcc/src/zxing_lib/zxing/Exception.h ****  */
  23:/home/zkmike/workspace/RZA2M/rza2m_2d_barcode_sample_freertos_gcc/src/zxing_lib/zxing/Exception.h **** 
  24:/home/zkmike/workspace/RZA2M/rza2m_2d_barcode_sample_freertos_gcc/src/zxing_lib/zxing/Exception.h **** #include <string>
  25:/home/zkmike/workspace/RZA2M/rza2m_2d_barcode_sample_freertos_gcc/src/zxing_lib/zxing/Exception.h **** #include <exception>
  26:/home/zkmike/workspace/RZA2M/rza2m_2d_barcode_sample_freertos_gcc/src/zxing_lib/zxing/Exception.h **** 
  27:/home/zkmike/workspace/RZA2M/rza2m_2d_barcode_sample_freertos_gcc/src/zxing_lib/zxing/Exception.h **** namespace zxing {
  28:/home/zkmike/workspace/RZA2M/rza2m_2d_barcode_sample_freertos_gcc/src/zxing_lib/zxing/Exception.h **** 
  29:/home/zkmike/workspace/RZA2M/rza2m_2d_barcode_sample_freertos_gcc/src/zxing_lib/zxing/Exception.h **** class Exception : public std::exception {
  30:/home/zkmike/workspace/RZA2M/rza2m_2d_barcode_sample_freertos_gcc/src/zxing_lib/zxing/Exception.h **** private:
  31:/home/zkmike/workspace/RZA2M/rza2m_2d_barcode_sample_freertos_gcc/src/zxing_lib/zxing/Exception.h ****   char const* const message;
  32:/home/zkmike/workspace/RZA2M/rza2m_2d_barcode_sample_freertos_gcc/src/zxing_lib/zxing/Exception.h **** 
  33:/home/zkmike/workspace/RZA2M/rza2m_2d_barcode_sample_freertos_gcc/src/zxing_lib/zxing/Exception.h **** public:
  34:/home/zkmike/workspace/RZA2M/rza2m_2d_barcode_sample_freertos_gcc/src/zxing_lib/zxing/Exception.h ****   Exception() throw() : message(0) {}
  35:/home/zkmike/workspace/RZA2M/rza2m_2d_barcode_sample_freertos_gcc/src/zxing_lib/zxing/Exception.h ****   Exception(const char* msg) throw() : message(copy(msg)) {}
  36:/home/zkmike/workspace/RZA2M/rza2m_2d_barcode_sample_freertos_gcc/src/zxing_lib/zxing/Exception.h ****   Exception(Exception const& that) throw() : std::exception(that), message(copy(that.message)) {}
  37:/home/zkmike/workspace/RZA2M/rza2m_2d_barcode_sample_freertos_gcc/src/zxing_lib/zxing/Exception.h ****   ~Exception() throw() {
  38:/home/zkmike/workspace/RZA2M/rza2m_2d_barcode_sample_freertos_gcc/src/zxing_lib/zxing/Exception.h ****     if(message) {
  39:/home/zkmike/workspace/RZA2M/rza2m_2d_barcode_sample_freertos_gcc/src/zxing_lib/zxing/Exception.h ****       deleteMessage();
  40:/home/zkmike/workspace/RZA2M/rza2m_2d_barcode_sample_freertos_gcc/src/zxing_lib/zxing/Exception.h ****     }
  41:/home/zkmike/workspace/RZA2M/rza2m_2d_barcode_sample_freertos_gcc/src/zxing_lib/zxing/Exception.h ****   }
  42:/home/zkmike/workspace/RZA2M/rza2m_2d_barcode_sample_freertos_gcc/src/zxing_lib/zxing/Exception.h ****   char const* what() const throw() {return message ? message : "";}
  27              		.loc 1 42 0
  28              		.cfi_startproc
  29              		@ args = 0, pretend = 0, frame = 0
  30              		@ frame_needed = 0, uses_anonymous_args = 0
  31              		@ link register save eliminated.
  32              	.LVL0:
  33              		.loc 1 42 0
  34 0000 040090E5 		ldr	r0, [r0, #4]
  35              	.LVL1:
  36 0004 000050E3 		cmp	r0, #0
  37 0008 1EFF2F11 		bxne	lr
  38 000c 000000E3 		movw	r0, #:lower16:.LC0
  39 0010 000040E3 		movt	r0, #:upper16:.LC0
  40 0014 1EFF2FE1 		bx	lr
  41              		.cfi_endproc
  42              	.LFE1871:
  43              		.cantunwind
  44              		.fnend
  46              		.section	.text._ZN5zxing6qrcode4ModeD2Ev,"axG",%progbits,_ZN5zxing6qrcode4ModeD5Ev,comdat
  47              		.align	2
  48              		.weak	_ZN5zxing6qrcode4ModeD2Ev
  49              		.syntax unified
  50              		.arm
  51              		.fpu neon
  53              	_ZN5zxing6qrcode4ModeD2Ev:
  54              		.fnstart
  55              	.LFB2817:
  56              		.file 2 "/home/zkmike/workspace/RZA2M/rza2m_2d_barcode_sample_freertos_gcc/src/zxing_lib/zxing/qrc
   1:/home/zkmike/workspace/RZA2M/rza2m_2d_barcode_sample_freertos_gcc/src/zxing_lib/zxing/qrcode/decoder/Mode.h **** // -*- mode:c++; tab-width:2; indent-tabs-mode:nil; c-basic-offset:2 -*-
   2:/home/zkmike/workspace/RZA2M/rza2m_2d_barcode_sample_freertos_gcc/src/zxing_lib/zxing/qrcode/decoder/Mode.h **** #ifndef __MODE_H__
   3:/home/zkmike/workspace/RZA2M/rza2m_2d_barcode_sample_freertos_gcc/src/zxing_lib/zxing/qrcode/decoder/Mode.h **** #define __MODE_H__
   4:/home/zkmike/workspace/RZA2M/rza2m_2d_barcode_sample_freertos_gcc/src/zxing_lib/zxing/qrcode/decoder/Mode.h **** 
   5:/home/zkmike/workspace/RZA2M/rza2m_2d_barcode_sample_freertos_gcc/src/zxing_lib/zxing/qrcode/decoder/Mode.h **** /*
   6:/home/zkmike/workspace/RZA2M/rza2m_2d_barcode_sample_freertos_gcc/src/zxing_lib/zxing/qrcode/decoder/Mode.h ****  *  Mode.h
   7:/home/zkmike/workspace/RZA2M/rza2m_2d_barcode_sample_freertos_gcc/src/zxing_lib/zxing/qrcode/decoder/Mode.h ****  *  zxing
   8:/home/zkmike/workspace/RZA2M/rza2m_2d_barcode_sample_freertos_gcc/src/zxing_lib/zxing/qrcode/decoder/Mode.h ****  *
   9:/home/zkmike/workspace/RZA2M/rza2m_2d_barcode_sample_freertos_gcc/src/zxing_lib/zxing/qrcode/decoder/Mode.h ****  *  Copyright 2010 ZXing authors All rights reserved.
  10:/home/zkmike/workspace/RZA2M/rza2m_2d_barcode_sample_freertos_gcc/src/zxing_lib/zxing/qrcode/decoder/Mode.h ****  *
  11:/home/zkmike/workspace/RZA2M/rza2m_2d_barcode_sample_freertos_gcc/src/zxing_lib/zxing/qrcode/decoder/Mode.h ****  * Licensed under the Apache License, Version 2.0 (the "License");
  12:/home/zkmike/workspace/RZA2M/rza2m_2d_barcode_sample_freertos_gcc/src/zxing_lib/zxing/qrcode/decoder/Mode.h ****  * you may not use this file except in compliance with the License.
  13:/home/zkmike/workspace/RZA2M/rza2m_2d_barcode_sample_freertos_gcc/src/zxing_lib/zxing/qrcode/decoder/Mode.h ****  * You may obtain a copy of the License at
  14:/home/zkmike/workspace/RZA2M/rza2m_2d_barcode_sample_freertos_gcc/src/zxing_lib/zxing/qrcode/decoder/Mode.h ****  *
  15:/home/zkmike/workspace/RZA2M/rza2m_2d_barcode_sample_freertos_gcc/src/zxing_lib/zxing/qrcode/decoder/Mode.h ****  *      http://www.apache.org/licenses/LICENSE-2.0
  16:/home/zkmike/workspace/RZA2M/rza2m_2d_barcode_sample_freertos_gcc/src/zxing_lib/zxing/qrcode/decoder/Mode.h ****  *
  17:/home/zkmike/workspace/RZA2M/rza2m_2d_barcode_sample_freertos_gcc/src/zxing_lib/zxing/qrcode/decoder/Mode.h ****  * Unless required by applicable law or agreed to in writing, software
  18:/home/zkmike/workspace/RZA2M/rza2m_2d_barcode_sample_freertos_gcc/src/zxing_lib/zxing/qrcode/decoder/Mode.h ****  * distributed under the License is distributed on an "AS IS" BASIS,
  19:/home/zkmike/workspace/RZA2M/rza2m_2d_barcode_sample_freertos_gcc/src/zxing_lib/zxing/qrcode/decoder/Mode.h ****  * WITHOUT WARRANTIES OR CONDITIONS OF ANY KIND, either express or implied.
  20:/home/zkmike/workspace/RZA2M/rza2m_2d_barcode_sample_freertos_gcc/src/zxing_lib/zxing/qrcode/decoder/Mode.h ****  * See the License for the specific language governing permissions and
  21:/home/zkmike/workspace/RZA2M/rza2m_2d_barcode_sample_freertos_gcc/src/zxing_lib/zxing/qrcode/decoder/Mode.h ****  * limitations under the License.
  22:/home/zkmike/workspace/RZA2M/rza2m_2d_barcode_sample_freertos_gcc/src/zxing_lib/zxing/qrcode/decoder/Mode.h ****  */
  23:/home/zkmike/workspace/RZA2M/rza2m_2d_barcode_sample_freertos_gcc/src/zxing_lib/zxing/qrcode/decoder/Mode.h **** 
  24:/home/zkmike/workspace/RZA2M/rza2m_2d_barcode_sample_freertos_gcc/src/zxing_lib/zxing/qrcode/decoder/Mode.h **** #include <zxing/common/Counted.h>
  25:/home/zkmike/workspace/RZA2M/rza2m_2d_barcode_sample_freertos_gcc/src/zxing_lib/zxing/qrcode/decoder/Mode.h **** #include <zxing/qrcode/Version.h>
  26:/home/zkmike/workspace/RZA2M/rza2m_2d_barcode_sample_freertos_gcc/src/zxing_lib/zxing/qrcode/decoder/Mode.h **** 
  27:/home/zkmike/workspace/RZA2M/rza2m_2d_barcode_sample_freertos_gcc/src/zxing_lib/zxing/qrcode/decoder/Mode.h **** namespace zxing {
  28:/home/zkmike/workspace/RZA2M/rza2m_2d_barcode_sample_freertos_gcc/src/zxing_lib/zxing/qrcode/decoder/Mode.h **** namespace qrcode {
  29:/home/zkmike/workspace/RZA2M/rza2m_2d_barcode_sample_freertos_gcc/src/zxing_lib/zxing/qrcode/decoder/Mode.h **** 
  30:/home/zkmike/workspace/RZA2M/rza2m_2d_barcode_sample_freertos_gcc/src/zxing_lib/zxing/qrcode/decoder/Mode.h **** class Mode {
  57              		.loc 2 30 0
  58              		.cfi_startproc
  59              		@ args = 0, pretend = 0, frame = 0
  60              		@ frame_needed = 0, uses_anonymous_args = 0
  61              	.LVL2:
  62 0000 10402DE9 		push	{r4, lr}
  63              		.cfi_def_cfa_offset 8
  64              		.cfi_offset 4, -8
  65              		.cfi_offset 14, -4
  66 0004 0040A0E1 		mov	r4, r0
  67              	.LVL3:
  68              	.LBB719:
  69              	.LBB720:
  70              	.LBB721:
  71              	.LBB722:
  72              	.LBB723:
  73              	.LBB724:
  74              		.file 3 "/home/zkmike/.local/share/renesas/e2_studio/toolchains/gcc_arm/gcc-arm-none-eabi-6-2017-q
   1:/home/zkmike/.local/share/renesas/e2_studio/toolchains/gcc_arm/gcc-arm-none-eabi-6-2017-q2-update/arm-none-eabi/include/c++/6.3.1/bits/basic_string.h **** // Components for manipulating sequences of characters -*- C++ -*-
   2:/home/zkmike/.local/share/renesas/e2_studio/toolchains/gcc_arm/gcc-arm-none-eabi-6-2017-q2-update/arm-none-eabi/include/c++/6.3.1/bits/basic_string.h **** 
   3:/home/zkmike/.local/share/renesas/e2_studio/toolchains/gcc_arm/gcc-arm-none-eabi-6-2017-q2-update/arm-none-eabi/include/c++/6.3.1/bits/basic_string.h **** // Copyright (C) 1997-2016 Free Software Foundation, Inc.
   4:/home/zkmike/.local/share/renesas/e2_studio/toolchains/gcc_arm/gcc-arm-none-eabi-6-2017-q2-update/arm-none-eabi/include/c++/6.3.1/bits/basic_string.h **** //
   5:/home/zkmike/.local/share/renesas/e2_studio/toolchains/gcc_arm/gcc-arm-none-eabi-6-2017-q2-update/arm-none-eabi/include/c++/6.3.1/bits/basic_string.h **** // This file is part of the GNU ISO C++ Library.  This library is free
   6:/home/zkmike/.local/share/renesas/e2_studio/toolchains/gcc_arm/gcc-arm-none-eabi-6-2017-q2-update/arm-none-eabi/include/c++/6.3.1/bits/basic_string.h **** // software; you can redistribute it and/or modify it under the
   7:/home/zkmike/.local/share/renesas/e2_studio/toolchains/gcc_arm/gcc-arm-none-eabi-6-2017-q2-update/arm-none-eabi/include/c++/6.3.1/bits/basic_string.h **** // terms of the GNU General Public License as published by the
   8:/home/zkmike/.local/share/renesas/e2_studio/toolchains/gcc_arm/gcc-arm-none-eabi-6-2017-q2-update/arm-none-eabi/include/c++/6.3.1/bits/basic_string.h **** // Free Software Foundation; either version 3, or (at your option)
   9:/home/zkmike/.local/share/renesas/e2_studio/toolchains/gcc_arm/gcc-arm-none-eabi-6-2017-q2-update/arm-none-eabi/include/c++/6.3.1/bits/basic_string.h **** // any later version.
  10:/home/zkmike/.local/share/renesas/e2_studio/toolchains/gcc_arm/gcc-arm-none-eabi-6-2017-q2-update/arm-none-eabi/include/c++/6.3.1/bits/basic_string.h **** 
  11:/home/zkmike/.local/share/renesas/e2_studio/toolchains/gcc_arm/gcc-arm-none-eabi-6-2017-q2-update/arm-none-eabi/include/c++/6.3.1/bits/basic_string.h **** // This library is distributed in the hope that it will be useful,
  12:/home/zkmike/.local/share/renesas/e2_studio/toolchains/gcc_arm/gcc-arm-none-eabi-6-2017-q2-update/arm-none-eabi/include/c++/6.3.1/bits/basic_string.h **** // but WITHOUT ANY WARRANTY; without even the implied warranty of
  13:/home/zkmike/.local/share/renesas/e2_studio/toolchains/gcc_arm/gcc-arm-none-eabi-6-2017-q2-update/arm-none-eabi/include/c++/6.3.1/bits/basic_string.h **** // MERCHANTABILITY or FITNESS FOR A PARTICULAR PURPOSE.  See the
  14:/home/zkmike/.local/share/renesas/e2_studio/toolchains/gcc_arm/gcc-arm-none-eabi-6-2017-q2-update/arm-none-eabi/include/c++/6.3.1/bits/basic_string.h **** // GNU General Public License for more details.
  15:/home/zkmike/.local/share/renesas/e2_studio/toolchains/gcc_arm/gcc-arm-none-eabi-6-2017-q2-update/arm-none-eabi/include/c++/6.3.1/bits/basic_string.h **** 
  16:/home/zkmike/.local/share/renesas/e2_studio/toolchains/gcc_arm/gcc-arm-none-eabi-6-2017-q2-update/arm-none-eabi/include/c++/6.3.1/bits/basic_string.h **** // Under Section 7 of GPL version 3, you are granted additional
  17:/home/zkmike/.local/share/renesas/e2_studio/toolchains/gcc_arm/gcc-arm-none-eabi-6-2017-q2-update/arm-none-eabi/include/c++/6.3.1/bits/basic_string.h **** // permissions described in the GCC Runtime Library Exception, version
  18:/home/zkmike/.local/share/renesas/e2_studio/toolchains/gcc_arm/gcc-arm-none-eabi-6-2017-q2-update/arm-none-eabi/include/c++/6.3.1/bits/basic_string.h **** // 3.1, as published by the Free Software Foundation.
  19:/home/zkmike/.local/share/renesas/e2_studio/toolchains/gcc_arm/gcc-arm-none-eabi-6-2017-q2-update/arm-none-eabi/include/c++/6.3.1/bits/basic_string.h **** 
  20:/home/zkmike/.local/share/renesas/e2_studio/toolchains/gcc_arm/gcc-arm-none-eabi-6-2017-q2-update/arm-none-eabi/include/c++/6.3.1/bits/basic_string.h **** // You should have received a copy of the GNU General Public License and
  21:/home/zkmike/.local/share/renesas/e2_studio/toolchains/gcc_arm/gcc-arm-none-eabi-6-2017-q2-update/arm-none-eabi/include/c++/6.3.1/bits/basic_string.h **** // a copy of the GCC Runtime Library Exception along with this program;
  22:/home/zkmike/.local/share/renesas/e2_studio/toolchains/gcc_arm/gcc-arm-none-eabi-6-2017-q2-update/arm-none-eabi/include/c++/6.3.1/bits/basic_string.h **** // see the files COPYING3 and COPYING.RUNTIME respectively.  If not, see
  23:/home/zkmike/.local/share/renesas/e2_studio/toolchains/gcc_arm/gcc-arm-none-eabi-6-2017-q2-update/arm-none-eabi/include/c++/6.3.1/bits/basic_string.h **** // <http://www.gnu.org/licenses/>.
  24:/home/zkmike/.local/share/renesas/e2_studio/toolchains/gcc_arm/gcc-arm-none-eabi-6-2017-q2-update/arm-none-eabi/include/c++/6.3.1/bits/basic_string.h **** 
  25:/home/zkmike/.local/share/renesas/e2_studio/toolchains/gcc_arm/gcc-arm-none-eabi-6-2017-q2-update/arm-none-eabi/include/c++/6.3.1/bits/basic_string.h **** /** @file bits/basic_string.h
  26:/home/zkmike/.local/share/renesas/e2_studio/toolchains/gcc_arm/gcc-arm-none-eabi-6-2017-q2-update/arm-none-eabi/include/c++/6.3.1/bits/basic_string.h ****  *  This is an internal header file, included by other library headers.
  27:/home/zkmike/.local/share/renesas/e2_studio/toolchains/gcc_arm/gcc-arm-none-eabi-6-2017-q2-update/arm-none-eabi/include/c++/6.3.1/bits/basic_string.h ****  *  Do not attempt to use it directly. @headername{string}
  28:/home/zkmike/.local/share/renesas/e2_studio/toolchains/gcc_arm/gcc-arm-none-eabi-6-2017-q2-update/arm-none-eabi/include/c++/6.3.1/bits/basic_string.h ****  */
  29:/home/zkmike/.local/share/renesas/e2_studio/toolchains/gcc_arm/gcc-arm-none-eabi-6-2017-q2-update/arm-none-eabi/include/c++/6.3.1/bits/basic_string.h **** 
  30:/home/zkmike/.local/share/renesas/e2_studio/toolchains/gcc_arm/gcc-arm-none-eabi-6-2017-q2-update/arm-none-eabi/include/c++/6.3.1/bits/basic_string.h **** //
  31:/home/zkmike/.local/share/renesas/e2_studio/toolchains/gcc_arm/gcc-arm-none-eabi-6-2017-q2-update/arm-none-eabi/include/c++/6.3.1/bits/basic_string.h **** // ISO C++ 14882: 21 Strings library
  32:/home/zkmike/.local/share/renesas/e2_studio/toolchains/gcc_arm/gcc-arm-none-eabi-6-2017-q2-update/arm-none-eabi/include/c++/6.3.1/bits/basic_string.h **** //
  33:/home/zkmike/.local/share/renesas/e2_studio/toolchains/gcc_arm/gcc-arm-none-eabi-6-2017-q2-update/arm-none-eabi/include/c++/6.3.1/bits/basic_string.h **** 
  34:/home/zkmike/.local/share/renesas/e2_studio/toolchains/gcc_arm/gcc-arm-none-eabi-6-2017-q2-update/arm-none-eabi/include/c++/6.3.1/bits/basic_string.h **** #ifndef _BASIC_STRING_H
  35:/home/zkmike/.local/share/renesas/e2_studio/toolchains/gcc_arm/gcc-arm-none-eabi-6-2017-q2-update/arm-none-eabi/include/c++/6.3.1/bits/basic_string.h **** #define _BASIC_STRING_H 1
  36:/home/zkmike/.local/share/renesas/e2_studio/toolchains/gcc_arm/gcc-arm-none-eabi-6-2017-q2-update/arm-none-eabi/include/c++/6.3.1/bits/basic_string.h **** 
  37:/home/zkmike/.local/share/renesas/e2_studio/toolchains/gcc_arm/gcc-arm-none-eabi-6-2017-q2-update/arm-none-eabi/include/c++/6.3.1/bits/basic_string.h **** #pragma GCC system_header
  38:/home/zkmike/.local/share/renesas/e2_studio/toolchains/gcc_arm/gcc-arm-none-eabi-6-2017-q2-update/arm-none-eabi/include/c++/6.3.1/bits/basic_string.h **** 
  39:/home/zkmike/.local/share/renesas/e2_studio/toolchains/gcc_arm/gcc-arm-none-eabi-6-2017-q2-update/arm-none-eabi/include/c++/6.3.1/bits/basic_string.h **** #include <ext/atomicity.h>
  40:/home/zkmike/.local/share/renesas/e2_studio/toolchains/gcc_arm/gcc-arm-none-eabi-6-2017-q2-update/arm-none-eabi/include/c++/6.3.1/bits/basic_string.h **** #include <ext/alloc_traits.h>
  41:/home/zkmike/.local/share/renesas/e2_studio/toolchains/gcc_arm/gcc-arm-none-eabi-6-2017-q2-update/arm-none-eabi/include/c++/6.3.1/bits/basic_string.h **** #include <debug/debug.h>
  42:/home/zkmike/.local/share/renesas/e2_studio/toolchains/gcc_arm/gcc-arm-none-eabi-6-2017-q2-update/arm-none-eabi/include/c++/6.3.1/bits/basic_string.h **** 
  43:/home/zkmike/.local/share/renesas/e2_studio/toolchains/gcc_arm/gcc-arm-none-eabi-6-2017-q2-update/arm-none-eabi/include/c++/6.3.1/bits/basic_string.h **** #if __cplusplus >= 201103L
  44:/home/zkmike/.local/share/renesas/e2_studio/toolchains/gcc_arm/gcc-arm-none-eabi-6-2017-q2-update/arm-none-eabi/include/c++/6.3.1/bits/basic_string.h **** #include <initializer_list>
  45:/home/zkmike/.local/share/renesas/e2_studio/toolchains/gcc_arm/gcc-arm-none-eabi-6-2017-q2-update/arm-none-eabi/include/c++/6.3.1/bits/basic_string.h **** #endif
  46:/home/zkmike/.local/share/renesas/e2_studio/toolchains/gcc_arm/gcc-arm-none-eabi-6-2017-q2-update/arm-none-eabi/include/c++/6.3.1/bits/basic_string.h **** 
  47:/home/zkmike/.local/share/renesas/e2_studio/toolchains/gcc_arm/gcc-arm-none-eabi-6-2017-q2-update/arm-none-eabi/include/c++/6.3.1/bits/basic_string.h **** namespace std _GLIBCXX_VISIBILITY(default)
  48:/home/zkmike/.local/share/renesas/e2_studio/toolchains/gcc_arm/gcc-arm-none-eabi-6-2017-q2-update/arm-none-eabi/include/c++/6.3.1/bits/basic_string.h **** {
  49:/home/zkmike/.local/share/renesas/e2_studio/toolchains/gcc_arm/gcc-arm-none-eabi-6-2017-q2-update/arm-none-eabi/include/c++/6.3.1/bits/basic_string.h **** _GLIBCXX_BEGIN_NAMESPACE_VERSION
  50:/home/zkmike/.local/share/renesas/e2_studio/toolchains/gcc_arm/gcc-arm-none-eabi-6-2017-q2-update/arm-none-eabi/include/c++/6.3.1/bits/basic_string.h **** 
  51:/home/zkmike/.local/share/renesas/e2_studio/toolchains/gcc_arm/gcc-arm-none-eabi-6-2017-q2-update/arm-none-eabi/include/c++/6.3.1/bits/basic_string.h **** #if _GLIBCXX_USE_CXX11_ABI
  52:/home/zkmike/.local/share/renesas/e2_studio/toolchains/gcc_arm/gcc-arm-none-eabi-6-2017-q2-update/arm-none-eabi/include/c++/6.3.1/bits/basic_string.h **** _GLIBCXX_BEGIN_NAMESPACE_CXX11
  53:/home/zkmike/.local/share/renesas/e2_studio/toolchains/gcc_arm/gcc-arm-none-eabi-6-2017-q2-update/arm-none-eabi/include/c++/6.3.1/bits/basic_string.h ****   /**
  54:/home/zkmike/.local/share/renesas/e2_studio/toolchains/gcc_arm/gcc-arm-none-eabi-6-2017-q2-update/arm-none-eabi/include/c++/6.3.1/bits/basic_string.h ****    *  @class basic_string basic_string.h <string>
  55:/home/zkmike/.local/share/renesas/e2_studio/toolchains/gcc_arm/gcc-arm-none-eabi-6-2017-q2-update/arm-none-eabi/include/c++/6.3.1/bits/basic_string.h ****    *  @brief  Managing sequences of characters and character-like objects.
  56:/home/zkmike/.local/share/renesas/e2_studio/toolchains/gcc_arm/gcc-arm-none-eabi-6-2017-q2-update/arm-none-eabi/include/c++/6.3.1/bits/basic_string.h ****    *
  57:/home/zkmike/.local/share/renesas/e2_studio/toolchains/gcc_arm/gcc-arm-none-eabi-6-2017-q2-update/arm-none-eabi/include/c++/6.3.1/bits/basic_string.h ****    *  @ingroup strings
  58:/home/zkmike/.local/share/renesas/e2_studio/toolchains/gcc_arm/gcc-arm-none-eabi-6-2017-q2-update/arm-none-eabi/include/c++/6.3.1/bits/basic_string.h ****    *  @ingroup sequences
  59:/home/zkmike/.local/share/renesas/e2_studio/toolchains/gcc_arm/gcc-arm-none-eabi-6-2017-q2-update/arm-none-eabi/include/c++/6.3.1/bits/basic_string.h ****    *
  60:/home/zkmike/.local/share/renesas/e2_studio/toolchains/gcc_arm/gcc-arm-none-eabi-6-2017-q2-update/arm-none-eabi/include/c++/6.3.1/bits/basic_string.h ****    *  @tparam _CharT  Type of character
  61:/home/zkmike/.local/share/renesas/e2_studio/toolchains/gcc_arm/gcc-arm-none-eabi-6-2017-q2-update/arm-none-eabi/include/c++/6.3.1/bits/basic_string.h ****    *  @tparam _Traits  Traits for character type, defaults to
  62:/home/zkmike/.local/share/renesas/e2_studio/toolchains/gcc_arm/gcc-arm-none-eabi-6-2017-q2-update/arm-none-eabi/include/c++/6.3.1/bits/basic_string.h ****    *                   char_traits<_CharT>.
  63:/home/zkmike/.local/share/renesas/e2_studio/toolchains/gcc_arm/gcc-arm-none-eabi-6-2017-q2-update/arm-none-eabi/include/c++/6.3.1/bits/basic_string.h ****    *  @tparam _Alloc  Allocator type, defaults to allocator<_CharT>.
  64:/home/zkmike/.local/share/renesas/e2_studio/toolchains/gcc_arm/gcc-arm-none-eabi-6-2017-q2-update/arm-none-eabi/include/c++/6.3.1/bits/basic_string.h ****    *
  65:/home/zkmike/.local/share/renesas/e2_studio/toolchains/gcc_arm/gcc-arm-none-eabi-6-2017-q2-update/arm-none-eabi/include/c++/6.3.1/bits/basic_string.h ****    *  Meets the requirements of a <a href="tables.html#65">container</a>, a
  66:/home/zkmike/.local/share/renesas/e2_studio/toolchains/gcc_arm/gcc-arm-none-eabi-6-2017-q2-update/arm-none-eabi/include/c++/6.3.1/bits/basic_string.h ****    *  <a href="tables.html#66">reversible container</a>, and a
  67:/home/zkmike/.local/share/renesas/e2_studio/toolchains/gcc_arm/gcc-arm-none-eabi-6-2017-q2-update/arm-none-eabi/include/c++/6.3.1/bits/basic_string.h ****    *  <a href="tables.html#67">sequence</a>.  Of the
  68:/home/zkmike/.local/share/renesas/e2_studio/toolchains/gcc_arm/gcc-arm-none-eabi-6-2017-q2-update/arm-none-eabi/include/c++/6.3.1/bits/basic_string.h ****    *  <a href="tables.html#68">optional sequence requirements</a>, only
  69:/home/zkmike/.local/share/renesas/e2_studio/toolchains/gcc_arm/gcc-arm-none-eabi-6-2017-q2-update/arm-none-eabi/include/c++/6.3.1/bits/basic_string.h ****    *  @c push_back, @c at, and @c %array access are supported.
  70:/home/zkmike/.local/share/renesas/e2_studio/toolchains/gcc_arm/gcc-arm-none-eabi-6-2017-q2-update/arm-none-eabi/include/c++/6.3.1/bits/basic_string.h ****    */
  71:/home/zkmike/.local/share/renesas/e2_studio/toolchains/gcc_arm/gcc-arm-none-eabi-6-2017-q2-update/arm-none-eabi/include/c++/6.3.1/bits/basic_string.h ****   template<typename _CharT, typename _Traits, typename _Alloc>
  72:/home/zkmike/.local/share/renesas/e2_studio/toolchains/gcc_arm/gcc-arm-none-eabi-6-2017-q2-update/arm-none-eabi/include/c++/6.3.1/bits/basic_string.h ****     class basic_string
  73:/home/zkmike/.local/share/renesas/e2_studio/toolchains/gcc_arm/gcc-arm-none-eabi-6-2017-q2-update/arm-none-eabi/include/c++/6.3.1/bits/basic_string.h ****     {
  74:/home/zkmike/.local/share/renesas/e2_studio/toolchains/gcc_arm/gcc-arm-none-eabi-6-2017-q2-update/arm-none-eabi/include/c++/6.3.1/bits/basic_string.h ****       typedef typename __gnu_cxx::__alloc_traits<_Alloc>::template
  75:/home/zkmike/.local/share/renesas/e2_studio/toolchains/gcc_arm/gcc-arm-none-eabi-6-2017-q2-update/arm-none-eabi/include/c++/6.3.1/bits/basic_string.h **** 	rebind<_CharT>::other _Char_alloc_type;
  76:/home/zkmike/.local/share/renesas/e2_studio/toolchains/gcc_arm/gcc-arm-none-eabi-6-2017-q2-update/arm-none-eabi/include/c++/6.3.1/bits/basic_string.h ****       typedef __gnu_cxx::__alloc_traits<_Char_alloc_type> _Alloc_traits;
  77:/home/zkmike/.local/share/renesas/e2_studio/toolchains/gcc_arm/gcc-arm-none-eabi-6-2017-q2-update/arm-none-eabi/include/c++/6.3.1/bits/basic_string.h **** 
  78:/home/zkmike/.local/share/renesas/e2_studio/toolchains/gcc_arm/gcc-arm-none-eabi-6-2017-q2-update/arm-none-eabi/include/c++/6.3.1/bits/basic_string.h ****       // Types:
  79:/home/zkmike/.local/share/renesas/e2_studio/toolchains/gcc_arm/gcc-arm-none-eabi-6-2017-q2-update/arm-none-eabi/include/c++/6.3.1/bits/basic_string.h ****     public:
  80:/home/zkmike/.local/share/renesas/e2_studio/toolchains/gcc_arm/gcc-arm-none-eabi-6-2017-q2-update/arm-none-eabi/include/c++/6.3.1/bits/basic_string.h ****       typedef _Traits					traits_type;
  81:/home/zkmike/.local/share/renesas/e2_studio/toolchains/gcc_arm/gcc-arm-none-eabi-6-2017-q2-update/arm-none-eabi/include/c++/6.3.1/bits/basic_string.h ****       typedef typename _Traits::char_type		value_type;
  82:/home/zkmike/.local/share/renesas/e2_studio/toolchains/gcc_arm/gcc-arm-none-eabi-6-2017-q2-update/arm-none-eabi/include/c++/6.3.1/bits/basic_string.h ****       typedef _Char_alloc_type				allocator_type;
  83:/home/zkmike/.local/share/renesas/e2_studio/toolchains/gcc_arm/gcc-arm-none-eabi-6-2017-q2-update/arm-none-eabi/include/c++/6.3.1/bits/basic_string.h ****       typedef typename _Alloc_traits::size_type		size_type;
  84:/home/zkmike/.local/share/renesas/e2_studio/toolchains/gcc_arm/gcc-arm-none-eabi-6-2017-q2-update/arm-none-eabi/include/c++/6.3.1/bits/basic_string.h ****       typedef typename _Alloc_traits::difference_type	difference_type;
  85:/home/zkmike/.local/share/renesas/e2_studio/toolchains/gcc_arm/gcc-arm-none-eabi-6-2017-q2-update/arm-none-eabi/include/c++/6.3.1/bits/basic_string.h ****       typedef typename _Alloc_traits::reference		reference;
  86:/home/zkmike/.local/share/renesas/e2_studio/toolchains/gcc_arm/gcc-arm-none-eabi-6-2017-q2-update/arm-none-eabi/include/c++/6.3.1/bits/basic_string.h ****       typedef typename _Alloc_traits::const_reference	const_reference;
  87:/home/zkmike/.local/share/renesas/e2_studio/toolchains/gcc_arm/gcc-arm-none-eabi-6-2017-q2-update/arm-none-eabi/include/c++/6.3.1/bits/basic_string.h ****       typedef typename _Alloc_traits::pointer		pointer;
  88:/home/zkmike/.local/share/renesas/e2_studio/toolchains/gcc_arm/gcc-arm-none-eabi-6-2017-q2-update/arm-none-eabi/include/c++/6.3.1/bits/basic_string.h ****       typedef typename _Alloc_traits::const_pointer	const_pointer;
  89:/home/zkmike/.local/share/renesas/e2_studio/toolchains/gcc_arm/gcc-arm-none-eabi-6-2017-q2-update/arm-none-eabi/include/c++/6.3.1/bits/basic_string.h ****       typedef __gnu_cxx::__normal_iterator<pointer, basic_string>  iterator;
  90:/home/zkmike/.local/share/renesas/e2_studio/toolchains/gcc_arm/gcc-arm-none-eabi-6-2017-q2-update/arm-none-eabi/include/c++/6.3.1/bits/basic_string.h ****       typedef __gnu_cxx::__normal_iterator<const_pointer, basic_string>
  91:/home/zkmike/.local/share/renesas/e2_studio/toolchains/gcc_arm/gcc-arm-none-eabi-6-2017-q2-update/arm-none-eabi/include/c++/6.3.1/bits/basic_string.h **** 							const_iterator;
  92:/home/zkmike/.local/share/renesas/e2_studio/toolchains/gcc_arm/gcc-arm-none-eabi-6-2017-q2-update/arm-none-eabi/include/c++/6.3.1/bits/basic_string.h ****       typedef std::reverse_iterator<const_iterator>	const_reverse_iterator;
  93:/home/zkmike/.local/share/renesas/e2_studio/toolchains/gcc_arm/gcc-arm-none-eabi-6-2017-q2-update/arm-none-eabi/include/c++/6.3.1/bits/basic_string.h ****       typedef std::reverse_iterator<iterator>		reverse_iterator;
  94:/home/zkmike/.local/share/renesas/e2_studio/toolchains/gcc_arm/gcc-arm-none-eabi-6-2017-q2-update/arm-none-eabi/include/c++/6.3.1/bits/basic_string.h **** 
  95:/home/zkmike/.local/share/renesas/e2_studio/toolchains/gcc_arm/gcc-arm-none-eabi-6-2017-q2-update/arm-none-eabi/include/c++/6.3.1/bits/basic_string.h ****       ///  Value returned by various member functions when they fail.
  96:/home/zkmike/.local/share/renesas/e2_studio/toolchains/gcc_arm/gcc-arm-none-eabi-6-2017-q2-update/arm-none-eabi/include/c++/6.3.1/bits/basic_string.h ****       static const size_type	npos = static_cast<size_type>(-1);
  97:/home/zkmike/.local/share/renesas/e2_studio/toolchains/gcc_arm/gcc-arm-none-eabi-6-2017-q2-update/arm-none-eabi/include/c++/6.3.1/bits/basic_string.h **** 
  98:/home/zkmike/.local/share/renesas/e2_studio/toolchains/gcc_arm/gcc-arm-none-eabi-6-2017-q2-update/arm-none-eabi/include/c++/6.3.1/bits/basic_string.h ****     private:
  99:/home/zkmike/.local/share/renesas/e2_studio/toolchains/gcc_arm/gcc-arm-none-eabi-6-2017-q2-update/arm-none-eabi/include/c++/6.3.1/bits/basic_string.h ****       // type used for positions in insert, erase etc.
 100:/home/zkmike/.local/share/renesas/e2_studio/toolchains/gcc_arm/gcc-arm-none-eabi-6-2017-q2-update/arm-none-eabi/include/c++/6.3.1/bits/basic_string.h **** #if __cplusplus < 201103L
 101:/home/zkmike/.local/share/renesas/e2_studio/toolchains/gcc_arm/gcc-arm-none-eabi-6-2017-q2-update/arm-none-eabi/include/c++/6.3.1/bits/basic_string.h ****       typedef iterator __const_iterator;
 102:/home/zkmike/.local/share/renesas/e2_studio/toolchains/gcc_arm/gcc-arm-none-eabi-6-2017-q2-update/arm-none-eabi/include/c++/6.3.1/bits/basic_string.h **** #else
 103:/home/zkmike/.local/share/renesas/e2_studio/toolchains/gcc_arm/gcc-arm-none-eabi-6-2017-q2-update/arm-none-eabi/include/c++/6.3.1/bits/basic_string.h ****       typedef const_iterator __const_iterator;
 104:/home/zkmike/.local/share/renesas/e2_studio/toolchains/gcc_arm/gcc-arm-none-eabi-6-2017-q2-update/arm-none-eabi/include/c++/6.3.1/bits/basic_string.h **** #endif
 105:/home/zkmike/.local/share/renesas/e2_studio/toolchains/gcc_arm/gcc-arm-none-eabi-6-2017-q2-update/arm-none-eabi/include/c++/6.3.1/bits/basic_string.h **** 
 106:/home/zkmike/.local/share/renesas/e2_studio/toolchains/gcc_arm/gcc-arm-none-eabi-6-2017-q2-update/arm-none-eabi/include/c++/6.3.1/bits/basic_string.h ****       // Use empty-base optimization: http://www.cantrip.org/emptyopt.html
 107:/home/zkmike/.local/share/renesas/e2_studio/toolchains/gcc_arm/gcc-arm-none-eabi-6-2017-q2-update/arm-none-eabi/include/c++/6.3.1/bits/basic_string.h ****       struct _Alloc_hider : allocator_type // TODO check __is_final
 108:/home/zkmike/.local/share/renesas/e2_studio/toolchains/gcc_arm/gcc-arm-none-eabi-6-2017-q2-update/arm-none-eabi/include/c++/6.3.1/bits/basic_string.h ****       {
 109:/home/zkmike/.local/share/renesas/e2_studio/toolchains/gcc_arm/gcc-arm-none-eabi-6-2017-q2-update/arm-none-eabi/include/c++/6.3.1/bits/basic_string.h **** 	_Alloc_hider(pointer __dat, const _Alloc& __a = _Alloc())
 110:/home/zkmike/.local/share/renesas/e2_studio/toolchains/gcc_arm/gcc-arm-none-eabi-6-2017-q2-update/arm-none-eabi/include/c++/6.3.1/bits/basic_string.h **** 	: allocator_type(__a), _M_p(__dat) { }
 111:/home/zkmike/.local/share/renesas/e2_studio/toolchains/gcc_arm/gcc-arm-none-eabi-6-2017-q2-update/arm-none-eabi/include/c++/6.3.1/bits/basic_string.h **** 
 112:/home/zkmike/.local/share/renesas/e2_studio/toolchains/gcc_arm/gcc-arm-none-eabi-6-2017-q2-update/arm-none-eabi/include/c++/6.3.1/bits/basic_string.h **** 	pointer _M_p; // The actual data.
 113:/home/zkmike/.local/share/renesas/e2_studio/toolchains/gcc_arm/gcc-arm-none-eabi-6-2017-q2-update/arm-none-eabi/include/c++/6.3.1/bits/basic_string.h ****       };
 114:/home/zkmike/.local/share/renesas/e2_studio/toolchains/gcc_arm/gcc-arm-none-eabi-6-2017-q2-update/arm-none-eabi/include/c++/6.3.1/bits/basic_string.h **** 
 115:/home/zkmike/.local/share/renesas/e2_studio/toolchains/gcc_arm/gcc-arm-none-eabi-6-2017-q2-update/arm-none-eabi/include/c++/6.3.1/bits/basic_string.h ****       _Alloc_hider	_M_dataplus;
 116:/home/zkmike/.local/share/renesas/e2_studio/toolchains/gcc_arm/gcc-arm-none-eabi-6-2017-q2-update/arm-none-eabi/include/c++/6.3.1/bits/basic_string.h ****       size_type		_M_string_length;
 117:/home/zkmike/.local/share/renesas/e2_studio/toolchains/gcc_arm/gcc-arm-none-eabi-6-2017-q2-update/arm-none-eabi/include/c++/6.3.1/bits/basic_string.h **** 
 118:/home/zkmike/.local/share/renesas/e2_studio/toolchains/gcc_arm/gcc-arm-none-eabi-6-2017-q2-update/arm-none-eabi/include/c++/6.3.1/bits/basic_string.h ****       enum { _S_local_capacity = 15 / sizeof(_CharT) };
 119:/home/zkmike/.local/share/renesas/e2_studio/toolchains/gcc_arm/gcc-arm-none-eabi-6-2017-q2-update/arm-none-eabi/include/c++/6.3.1/bits/basic_string.h **** 
 120:/home/zkmike/.local/share/renesas/e2_studio/toolchains/gcc_arm/gcc-arm-none-eabi-6-2017-q2-update/arm-none-eabi/include/c++/6.3.1/bits/basic_string.h ****       union
 121:/home/zkmike/.local/share/renesas/e2_studio/toolchains/gcc_arm/gcc-arm-none-eabi-6-2017-q2-update/arm-none-eabi/include/c++/6.3.1/bits/basic_string.h ****       {
 122:/home/zkmike/.local/share/renesas/e2_studio/toolchains/gcc_arm/gcc-arm-none-eabi-6-2017-q2-update/arm-none-eabi/include/c++/6.3.1/bits/basic_string.h **** 	_CharT           _M_local_buf[_S_local_capacity + 1];
 123:/home/zkmike/.local/share/renesas/e2_studio/toolchains/gcc_arm/gcc-arm-none-eabi-6-2017-q2-update/arm-none-eabi/include/c++/6.3.1/bits/basic_string.h **** 	size_type        _M_allocated_capacity;
 124:/home/zkmike/.local/share/renesas/e2_studio/toolchains/gcc_arm/gcc-arm-none-eabi-6-2017-q2-update/arm-none-eabi/include/c++/6.3.1/bits/basic_string.h ****       };
 125:/home/zkmike/.local/share/renesas/e2_studio/toolchains/gcc_arm/gcc-arm-none-eabi-6-2017-q2-update/arm-none-eabi/include/c++/6.3.1/bits/basic_string.h **** 
 126:/home/zkmike/.local/share/renesas/e2_studio/toolchains/gcc_arm/gcc-arm-none-eabi-6-2017-q2-update/arm-none-eabi/include/c++/6.3.1/bits/basic_string.h ****       void
 127:/home/zkmike/.local/share/renesas/e2_studio/toolchains/gcc_arm/gcc-arm-none-eabi-6-2017-q2-update/arm-none-eabi/include/c++/6.3.1/bits/basic_string.h ****       _M_data(pointer __p)
 128:/home/zkmike/.local/share/renesas/e2_studio/toolchains/gcc_arm/gcc-arm-none-eabi-6-2017-q2-update/arm-none-eabi/include/c++/6.3.1/bits/basic_string.h ****       { _M_dataplus._M_p = __p; }
 129:/home/zkmike/.local/share/renesas/e2_studio/toolchains/gcc_arm/gcc-arm-none-eabi-6-2017-q2-update/arm-none-eabi/include/c++/6.3.1/bits/basic_string.h **** 
 130:/home/zkmike/.local/share/renesas/e2_studio/toolchains/gcc_arm/gcc-arm-none-eabi-6-2017-q2-update/arm-none-eabi/include/c++/6.3.1/bits/basic_string.h ****       void
 131:/home/zkmike/.local/share/renesas/e2_studio/toolchains/gcc_arm/gcc-arm-none-eabi-6-2017-q2-update/arm-none-eabi/include/c++/6.3.1/bits/basic_string.h ****       _M_length(size_type __length)
 132:/home/zkmike/.local/share/renesas/e2_studio/toolchains/gcc_arm/gcc-arm-none-eabi-6-2017-q2-update/arm-none-eabi/include/c++/6.3.1/bits/basic_string.h ****       { _M_string_length = __length; }
 133:/home/zkmike/.local/share/renesas/e2_studio/toolchains/gcc_arm/gcc-arm-none-eabi-6-2017-q2-update/arm-none-eabi/include/c++/6.3.1/bits/basic_string.h **** 
 134:/home/zkmike/.local/share/renesas/e2_studio/toolchains/gcc_arm/gcc-arm-none-eabi-6-2017-q2-update/arm-none-eabi/include/c++/6.3.1/bits/basic_string.h ****       pointer
 135:/home/zkmike/.local/share/renesas/e2_studio/toolchains/gcc_arm/gcc-arm-none-eabi-6-2017-q2-update/arm-none-eabi/include/c++/6.3.1/bits/basic_string.h ****       _M_data() const
 136:/home/zkmike/.local/share/renesas/e2_studio/toolchains/gcc_arm/gcc-arm-none-eabi-6-2017-q2-update/arm-none-eabi/include/c++/6.3.1/bits/basic_string.h ****       { return _M_dataplus._M_p; }
  75              		.loc 3 136 0
  76 0008 0C0090E5 		ldr	r0, [r0, #12]
  77              	.LVL4:
  78              	.LBE724:
  79              	.LBE723:
  80              	.LBB725:
  81              	.LBB726:
 137:/home/zkmike/.local/share/renesas/e2_studio/toolchains/gcc_arm/gcc-arm-none-eabi-6-2017-q2-update/arm-none-eabi/include/c++/6.3.1/bits/basic_string.h **** 
 138:/home/zkmike/.local/share/renesas/e2_studio/toolchains/gcc_arm/gcc-arm-none-eabi-6-2017-q2-update/arm-none-eabi/include/c++/6.3.1/bits/basic_string.h ****       pointer
 139:/home/zkmike/.local/share/renesas/e2_studio/toolchains/gcc_arm/gcc-arm-none-eabi-6-2017-q2-update/arm-none-eabi/include/c++/6.3.1/bits/basic_string.h ****       _M_local_data()
 140:/home/zkmike/.local/share/renesas/e2_studio/toolchains/gcc_arm/gcc-arm-none-eabi-6-2017-q2-update/arm-none-eabi/include/c++/6.3.1/bits/basic_string.h ****       {
 141:/home/zkmike/.local/share/renesas/e2_studio/toolchains/gcc_arm/gcc-arm-none-eabi-6-2017-q2-update/arm-none-eabi/include/c++/6.3.1/bits/basic_string.h **** #if __cplusplus >= 201103L
 142:/home/zkmike/.local/share/renesas/e2_studio/toolchains/gcc_arm/gcc-arm-none-eabi-6-2017-q2-update/arm-none-eabi/include/c++/6.3.1/bits/basic_string.h **** 	return std::pointer_traits<pointer>::pointer_to(*_M_local_buf);
 143:/home/zkmike/.local/share/renesas/e2_studio/toolchains/gcc_arm/gcc-arm-none-eabi-6-2017-q2-update/arm-none-eabi/include/c++/6.3.1/bits/basic_string.h **** #else
 144:/home/zkmike/.local/share/renesas/e2_studio/toolchains/gcc_arm/gcc-arm-none-eabi-6-2017-q2-update/arm-none-eabi/include/c++/6.3.1/bits/basic_string.h **** 	return pointer(_M_local_buf);
 145:/home/zkmike/.local/share/renesas/e2_studio/toolchains/gcc_arm/gcc-arm-none-eabi-6-2017-q2-update/arm-none-eabi/include/c++/6.3.1/bits/basic_string.h **** #endif
 146:/home/zkmike/.local/share/renesas/e2_studio/toolchains/gcc_arm/gcc-arm-none-eabi-6-2017-q2-update/arm-none-eabi/include/c++/6.3.1/bits/basic_string.h ****       }
 147:/home/zkmike/.local/share/renesas/e2_studio/toolchains/gcc_arm/gcc-arm-none-eabi-6-2017-q2-update/arm-none-eabi/include/c++/6.3.1/bits/basic_string.h **** 
 148:/home/zkmike/.local/share/renesas/e2_studio/toolchains/gcc_arm/gcc-arm-none-eabi-6-2017-q2-update/arm-none-eabi/include/c++/6.3.1/bits/basic_string.h ****       const_pointer
 149:/home/zkmike/.local/share/renesas/e2_studio/toolchains/gcc_arm/gcc-arm-none-eabi-6-2017-q2-update/arm-none-eabi/include/c++/6.3.1/bits/basic_string.h ****       _M_local_data() const
 150:/home/zkmike/.local/share/renesas/e2_studio/toolchains/gcc_arm/gcc-arm-none-eabi-6-2017-q2-update/arm-none-eabi/include/c++/6.3.1/bits/basic_string.h ****       {
 151:/home/zkmike/.local/share/renesas/e2_studio/toolchains/gcc_arm/gcc-arm-none-eabi-6-2017-q2-update/arm-none-eabi/include/c++/6.3.1/bits/basic_string.h **** #if __cplusplus >= 201103L
 152:/home/zkmike/.local/share/renesas/e2_studio/toolchains/gcc_arm/gcc-arm-none-eabi-6-2017-q2-update/arm-none-eabi/include/c++/6.3.1/bits/basic_string.h **** 	return std::pointer_traits<const_pointer>::pointer_to(*_M_local_buf);
  82              		.loc 3 152 0
  83 000c 143084E2 		add	r3, r4, #20
  84              	.LVL5:
  85              	.LBE726:
  86              	.LBE725:
  87              	.LBE722:
 153:/home/zkmike/.local/share/renesas/e2_studio/toolchains/gcc_arm/gcc-arm-none-eabi-6-2017-q2-update/arm-none-eabi/include/c++/6.3.1/bits/basic_string.h **** #else
 154:/home/zkmike/.local/share/renesas/e2_studio/toolchains/gcc_arm/gcc-arm-none-eabi-6-2017-q2-update/arm-none-eabi/include/c++/6.3.1/bits/basic_string.h **** 	return const_pointer(_M_local_buf);
 155:/home/zkmike/.local/share/renesas/e2_studio/toolchains/gcc_arm/gcc-arm-none-eabi-6-2017-q2-update/arm-none-eabi/include/c++/6.3.1/bits/basic_string.h **** #endif
 156:/home/zkmike/.local/share/renesas/e2_studio/toolchains/gcc_arm/gcc-arm-none-eabi-6-2017-q2-update/arm-none-eabi/include/c++/6.3.1/bits/basic_string.h ****       }
 157:/home/zkmike/.local/share/renesas/e2_studio/toolchains/gcc_arm/gcc-arm-none-eabi-6-2017-q2-update/arm-none-eabi/include/c++/6.3.1/bits/basic_string.h **** 
 158:/home/zkmike/.local/share/renesas/e2_studio/toolchains/gcc_arm/gcc-arm-none-eabi-6-2017-q2-update/arm-none-eabi/include/c++/6.3.1/bits/basic_string.h ****       void
 159:/home/zkmike/.local/share/renesas/e2_studio/toolchains/gcc_arm/gcc-arm-none-eabi-6-2017-q2-update/arm-none-eabi/include/c++/6.3.1/bits/basic_string.h ****       _M_capacity(size_type __capacity)
 160:/home/zkmike/.local/share/renesas/e2_studio/toolchains/gcc_arm/gcc-arm-none-eabi-6-2017-q2-update/arm-none-eabi/include/c++/6.3.1/bits/basic_string.h ****       { _M_allocated_capacity = __capacity; }
 161:/home/zkmike/.local/share/renesas/e2_studio/toolchains/gcc_arm/gcc-arm-none-eabi-6-2017-q2-update/arm-none-eabi/include/c++/6.3.1/bits/basic_string.h **** 
 162:/home/zkmike/.local/share/renesas/e2_studio/toolchains/gcc_arm/gcc-arm-none-eabi-6-2017-q2-update/arm-none-eabi/include/c++/6.3.1/bits/basic_string.h ****       void
 163:/home/zkmike/.local/share/renesas/e2_studio/toolchains/gcc_arm/gcc-arm-none-eabi-6-2017-q2-update/arm-none-eabi/include/c++/6.3.1/bits/basic_string.h ****       _M_set_length(size_type __n)
 164:/home/zkmike/.local/share/renesas/e2_studio/toolchains/gcc_arm/gcc-arm-none-eabi-6-2017-q2-update/arm-none-eabi/include/c++/6.3.1/bits/basic_string.h ****       {
 165:/home/zkmike/.local/share/renesas/e2_studio/toolchains/gcc_arm/gcc-arm-none-eabi-6-2017-q2-update/arm-none-eabi/include/c++/6.3.1/bits/basic_string.h **** 	_M_length(__n);
 166:/home/zkmike/.local/share/renesas/e2_studio/toolchains/gcc_arm/gcc-arm-none-eabi-6-2017-q2-update/arm-none-eabi/include/c++/6.3.1/bits/basic_string.h **** 	traits_type::assign(_M_data()[__n], _CharT());
 167:/home/zkmike/.local/share/renesas/e2_studio/toolchains/gcc_arm/gcc-arm-none-eabi-6-2017-q2-update/arm-none-eabi/include/c++/6.3.1/bits/basic_string.h ****       }
 168:/home/zkmike/.local/share/renesas/e2_studio/toolchains/gcc_arm/gcc-arm-none-eabi-6-2017-q2-update/arm-none-eabi/include/c++/6.3.1/bits/basic_string.h **** 
 169:/home/zkmike/.local/share/renesas/e2_studio/toolchains/gcc_arm/gcc-arm-none-eabi-6-2017-q2-update/arm-none-eabi/include/c++/6.3.1/bits/basic_string.h ****       bool
 170:/home/zkmike/.local/share/renesas/e2_studio/toolchains/gcc_arm/gcc-arm-none-eabi-6-2017-q2-update/arm-none-eabi/include/c++/6.3.1/bits/basic_string.h ****       _M_is_local() const
 171:/home/zkmike/.local/share/renesas/e2_studio/toolchains/gcc_arm/gcc-arm-none-eabi-6-2017-q2-update/arm-none-eabi/include/c++/6.3.1/bits/basic_string.h ****       { return _M_data() == _M_local_data(); }
 172:/home/zkmike/.local/share/renesas/e2_studio/toolchains/gcc_arm/gcc-arm-none-eabi-6-2017-q2-update/arm-none-eabi/include/c++/6.3.1/bits/basic_string.h **** 
 173:/home/zkmike/.local/share/renesas/e2_studio/toolchains/gcc_arm/gcc-arm-none-eabi-6-2017-q2-update/arm-none-eabi/include/c++/6.3.1/bits/basic_string.h ****       // Create & Destroy
 174:/home/zkmike/.local/share/renesas/e2_studio/toolchains/gcc_arm/gcc-arm-none-eabi-6-2017-q2-update/arm-none-eabi/include/c++/6.3.1/bits/basic_string.h ****       pointer
 175:/home/zkmike/.local/share/renesas/e2_studio/toolchains/gcc_arm/gcc-arm-none-eabi-6-2017-q2-update/arm-none-eabi/include/c++/6.3.1/bits/basic_string.h ****       _M_create(size_type&, size_type);
 176:/home/zkmike/.local/share/renesas/e2_studio/toolchains/gcc_arm/gcc-arm-none-eabi-6-2017-q2-update/arm-none-eabi/include/c++/6.3.1/bits/basic_string.h **** 
 177:/home/zkmike/.local/share/renesas/e2_studio/toolchains/gcc_arm/gcc-arm-none-eabi-6-2017-q2-update/arm-none-eabi/include/c++/6.3.1/bits/basic_string.h ****       void
 178:/home/zkmike/.local/share/renesas/e2_studio/toolchains/gcc_arm/gcc-arm-none-eabi-6-2017-q2-update/arm-none-eabi/include/c++/6.3.1/bits/basic_string.h ****       _M_dispose()
 179:/home/zkmike/.local/share/renesas/e2_studio/toolchains/gcc_arm/gcc-arm-none-eabi-6-2017-q2-update/arm-none-eabi/include/c++/6.3.1/bits/basic_string.h ****       {
 180:/home/zkmike/.local/share/renesas/e2_studio/toolchains/gcc_arm/gcc-arm-none-eabi-6-2017-q2-update/arm-none-eabi/include/c++/6.3.1/bits/basic_string.h **** 	if (!_M_is_local())
  88              		.loc 3 180 0
  89 0010 030050E1 		cmp	r0, r3
  90 0014 0000000A 		beq	.L4
  91              	.LVL6:
  92              	.LBB727:
  93              	.LBB728:
  94              	.LBB729:
  95              	.LBB730:
  96              		.file 4 "/home/zkmike/.local/share/renesas/e2_studio/toolchains/gcc_arm/gcc-arm-none-eabi-6-2017-q
   1:/home/zkmike/.local/share/renesas/e2_studio/toolchains/gcc_arm/gcc-arm-none-eabi-6-2017-q2-update/arm-none-eabi/include/c++/6.3.1/ext/new_allocator.h **** // Allocator that wraps operator new -*- C++ -*-
   2:/home/zkmike/.local/share/renesas/e2_studio/toolchains/gcc_arm/gcc-arm-none-eabi-6-2017-q2-update/arm-none-eabi/include/c++/6.3.1/ext/new_allocator.h **** 
   3:/home/zkmike/.local/share/renesas/e2_studio/toolchains/gcc_arm/gcc-arm-none-eabi-6-2017-q2-update/arm-none-eabi/include/c++/6.3.1/ext/new_allocator.h **** // Copyright (C) 2001-2016 Free Software Foundation, Inc.
   4:/home/zkmike/.local/share/renesas/e2_studio/toolchains/gcc_arm/gcc-arm-none-eabi-6-2017-q2-update/arm-none-eabi/include/c++/6.3.1/ext/new_allocator.h **** //
   5:/home/zkmike/.local/share/renesas/e2_studio/toolchains/gcc_arm/gcc-arm-none-eabi-6-2017-q2-update/arm-none-eabi/include/c++/6.3.1/ext/new_allocator.h **** // This file is part of the GNU ISO C++ Library.  This library is free
   6:/home/zkmike/.local/share/renesas/e2_studio/toolchains/gcc_arm/gcc-arm-none-eabi-6-2017-q2-update/arm-none-eabi/include/c++/6.3.1/ext/new_allocator.h **** // software; you can redistribute it and/or modify it under the
   7:/home/zkmike/.local/share/renesas/e2_studio/toolchains/gcc_arm/gcc-arm-none-eabi-6-2017-q2-update/arm-none-eabi/include/c++/6.3.1/ext/new_allocator.h **** // terms of the GNU General Public License as published by the
   8:/home/zkmike/.local/share/renesas/e2_studio/toolchains/gcc_arm/gcc-arm-none-eabi-6-2017-q2-update/arm-none-eabi/include/c++/6.3.1/ext/new_allocator.h **** // Free Software Foundation; either version 3, or (at your option)
   9:/home/zkmike/.local/share/renesas/e2_studio/toolchains/gcc_arm/gcc-arm-none-eabi-6-2017-q2-update/arm-none-eabi/include/c++/6.3.1/ext/new_allocator.h **** // any later version.
  10:/home/zkmike/.local/share/renesas/e2_studio/toolchains/gcc_arm/gcc-arm-none-eabi-6-2017-q2-update/arm-none-eabi/include/c++/6.3.1/ext/new_allocator.h **** 
  11:/home/zkmike/.local/share/renesas/e2_studio/toolchains/gcc_arm/gcc-arm-none-eabi-6-2017-q2-update/arm-none-eabi/include/c++/6.3.1/ext/new_allocator.h **** // This library is distributed in the hope that it will be useful,
  12:/home/zkmike/.local/share/renesas/e2_studio/toolchains/gcc_arm/gcc-arm-none-eabi-6-2017-q2-update/arm-none-eabi/include/c++/6.3.1/ext/new_allocator.h **** // but WITHOUT ANY WARRANTY; without even the implied warranty of
  13:/home/zkmike/.local/share/renesas/e2_studio/toolchains/gcc_arm/gcc-arm-none-eabi-6-2017-q2-update/arm-none-eabi/include/c++/6.3.1/ext/new_allocator.h **** // MERCHANTABILITY or FITNESS FOR A PARTICULAR PURPOSE.  See the
  14:/home/zkmike/.local/share/renesas/e2_studio/toolchains/gcc_arm/gcc-arm-none-eabi-6-2017-q2-update/arm-none-eabi/include/c++/6.3.1/ext/new_allocator.h **** // GNU General Public License for more details.
  15:/home/zkmike/.local/share/renesas/e2_studio/toolchains/gcc_arm/gcc-arm-none-eabi-6-2017-q2-update/arm-none-eabi/include/c++/6.3.1/ext/new_allocator.h **** 
  16:/home/zkmike/.local/share/renesas/e2_studio/toolchains/gcc_arm/gcc-arm-none-eabi-6-2017-q2-update/arm-none-eabi/include/c++/6.3.1/ext/new_allocator.h **** // Under Section 7 of GPL version 3, you are granted additional
  17:/home/zkmike/.local/share/renesas/e2_studio/toolchains/gcc_arm/gcc-arm-none-eabi-6-2017-q2-update/arm-none-eabi/include/c++/6.3.1/ext/new_allocator.h **** // permissions described in the GCC Runtime Library Exception, version
  18:/home/zkmike/.local/share/renesas/e2_studio/toolchains/gcc_arm/gcc-arm-none-eabi-6-2017-q2-update/arm-none-eabi/include/c++/6.3.1/ext/new_allocator.h **** // 3.1, as published by the Free Software Foundation.
  19:/home/zkmike/.local/share/renesas/e2_studio/toolchains/gcc_arm/gcc-arm-none-eabi-6-2017-q2-update/arm-none-eabi/include/c++/6.3.1/ext/new_allocator.h **** 
  20:/home/zkmike/.local/share/renesas/e2_studio/toolchains/gcc_arm/gcc-arm-none-eabi-6-2017-q2-update/arm-none-eabi/include/c++/6.3.1/ext/new_allocator.h **** // You should have received a copy of the GNU General Public License and
  21:/home/zkmike/.local/share/renesas/e2_studio/toolchains/gcc_arm/gcc-arm-none-eabi-6-2017-q2-update/arm-none-eabi/include/c++/6.3.1/ext/new_allocator.h **** // a copy of the GCC Runtime Library Exception along with this program;
  22:/home/zkmike/.local/share/renesas/e2_studio/toolchains/gcc_arm/gcc-arm-none-eabi-6-2017-q2-update/arm-none-eabi/include/c++/6.3.1/ext/new_allocator.h **** // see the files COPYING3 and COPYING.RUNTIME respectively.  If not, see
  23:/home/zkmike/.local/share/renesas/e2_studio/toolchains/gcc_arm/gcc-arm-none-eabi-6-2017-q2-update/arm-none-eabi/include/c++/6.3.1/ext/new_allocator.h **** // <http://www.gnu.org/licenses/>.
  24:/home/zkmike/.local/share/renesas/e2_studio/toolchains/gcc_arm/gcc-arm-none-eabi-6-2017-q2-update/arm-none-eabi/include/c++/6.3.1/ext/new_allocator.h **** 
  25:/home/zkmike/.local/share/renesas/e2_studio/toolchains/gcc_arm/gcc-arm-none-eabi-6-2017-q2-update/arm-none-eabi/include/c++/6.3.1/ext/new_allocator.h **** /** @file ext/new_allocator.h
  26:/home/zkmike/.local/share/renesas/e2_studio/toolchains/gcc_arm/gcc-arm-none-eabi-6-2017-q2-update/arm-none-eabi/include/c++/6.3.1/ext/new_allocator.h ****  *  This file is a GNU extension to the Standard C++ Library.
  27:/home/zkmike/.local/share/renesas/e2_studio/toolchains/gcc_arm/gcc-arm-none-eabi-6-2017-q2-update/arm-none-eabi/include/c++/6.3.1/ext/new_allocator.h ****  */
  28:/home/zkmike/.local/share/renesas/e2_studio/toolchains/gcc_arm/gcc-arm-none-eabi-6-2017-q2-update/arm-none-eabi/include/c++/6.3.1/ext/new_allocator.h **** 
  29:/home/zkmike/.local/share/renesas/e2_studio/toolchains/gcc_arm/gcc-arm-none-eabi-6-2017-q2-update/arm-none-eabi/include/c++/6.3.1/ext/new_allocator.h **** #ifndef _NEW_ALLOCATOR_H
  30:/home/zkmike/.local/share/renesas/e2_studio/toolchains/gcc_arm/gcc-arm-none-eabi-6-2017-q2-update/arm-none-eabi/include/c++/6.3.1/ext/new_allocator.h **** #define _NEW_ALLOCATOR_H 1
  31:/home/zkmike/.local/share/renesas/e2_studio/toolchains/gcc_arm/gcc-arm-none-eabi-6-2017-q2-update/arm-none-eabi/include/c++/6.3.1/ext/new_allocator.h **** 
  32:/home/zkmike/.local/share/renesas/e2_studio/toolchains/gcc_arm/gcc-arm-none-eabi-6-2017-q2-update/arm-none-eabi/include/c++/6.3.1/ext/new_allocator.h **** #include <bits/c++config.h>
  33:/home/zkmike/.local/share/renesas/e2_studio/toolchains/gcc_arm/gcc-arm-none-eabi-6-2017-q2-update/arm-none-eabi/include/c++/6.3.1/ext/new_allocator.h **** #include <new>
  34:/home/zkmike/.local/share/renesas/e2_studio/toolchains/gcc_arm/gcc-arm-none-eabi-6-2017-q2-update/arm-none-eabi/include/c++/6.3.1/ext/new_allocator.h **** #include <bits/functexcept.h>
  35:/home/zkmike/.local/share/renesas/e2_studio/toolchains/gcc_arm/gcc-arm-none-eabi-6-2017-q2-update/arm-none-eabi/include/c++/6.3.1/ext/new_allocator.h **** #include <bits/move.h>
  36:/home/zkmike/.local/share/renesas/e2_studio/toolchains/gcc_arm/gcc-arm-none-eabi-6-2017-q2-update/arm-none-eabi/include/c++/6.3.1/ext/new_allocator.h **** #if __cplusplus >= 201103L
  37:/home/zkmike/.local/share/renesas/e2_studio/toolchains/gcc_arm/gcc-arm-none-eabi-6-2017-q2-update/arm-none-eabi/include/c++/6.3.1/ext/new_allocator.h **** #include <type_traits>
  38:/home/zkmike/.local/share/renesas/e2_studio/toolchains/gcc_arm/gcc-arm-none-eabi-6-2017-q2-update/arm-none-eabi/include/c++/6.3.1/ext/new_allocator.h **** #endif
  39:/home/zkmike/.local/share/renesas/e2_studio/toolchains/gcc_arm/gcc-arm-none-eabi-6-2017-q2-update/arm-none-eabi/include/c++/6.3.1/ext/new_allocator.h **** 
  40:/home/zkmike/.local/share/renesas/e2_studio/toolchains/gcc_arm/gcc-arm-none-eabi-6-2017-q2-update/arm-none-eabi/include/c++/6.3.1/ext/new_allocator.h **** namespace __gnu_cxx _GLIBCXX_VISIBILITY(default)
  41:/home/zkmike/.local/share/renesas/e2_studio/toolchains/gcc_arm/gcc-arm-none-eabi-6-2017-q2-update/arm-none-eabi/include/c++/6.3.1/ext/new_allocator.h **** {
  42:/home/zkmike/.local/share/renesas/e2_studio/toolchains/gcc_arm/gcc-arm-none-eabi-6-2017-q2-update/arm-none-eabi/include/c++/6.3.1/ext/new_allocator.h **** _GLIBCXX_BEGIN_NAMESPACE_VERSION
  43:/home/zkmike/.local/share/renesas/e2_studio/toolchains/gcc_arm/gcc-arm-none-eabi-6-2017-q2-update/arm-none-eabi/include/c++/6.3.1/ext/new_allocator.h **** 
  44:/home/zkmike/.local/share/renesas/e2_studio/toolchains/gcc_arm/gcc-arm-none-eabi-6-2017-q2-update/arm-none-eabi/include/c++/6.3.1/ext/new_allocator.h ****   using std::size_t;
  45:/home/zkmike/.local/share/renesas/e2_studio/toolchains/gcc_arm/gcc-arm-none-eabi-6-2017-q2-update/arm-none-eabi/include/c++/6.3.1/ext/new_allocator.h ****   using std::ptrdiff_t;
  46:/home/zkmike/.local/share/renesas/e2_studio/toolchains/gcc_arm/gcc-arm-none-eabi-6-2017-q2-update/arm-none-eabi/include/c++/6.3.1/ext/new_allocator.h **** 
  47:/home/zkmike/.local/share/renesas/e2_studio/toolchains/gcc_arm/gcc-arm-none-eabi-6-2017-q2-update/arm-none-eabi/include/c++/6.3.1/ext/new_allocator.h ****   /**
  48:/home/zkmike/.local/share/renesas/e2_studio/toolchains/gcc_arm/gcc-arm-none-eabi-6-2017-q2-update/arm-none-eabi/include/c++/6.3.1/ext/new_allocator.h ****    *  @brief  An allocator that uses global new, as per [20.4].
  49:/home/zkmike/.local/share/renesas/e2_studio/toolchains/gcc_arm/gcc-arm-none-eabi-6-2017-q2-update/arm-none-eabi/include/c++/6.3.1/ext/new_allocator.h ****    *  @ingroup allocators
  50:/home/zkmike/.local/share/renesas/e2_studio/toolchains/gcc_arm/gcc-arm-none-eabi-6-2017-q2-update/arm-none-eabi/include/c++/6.3.1/ext/new_allocator.h ****    *
  51:/home/zkmike/.local/share/renesas/e2_studio/toolchains/gcc_arm/gcc-arm-none-eabi-6-2017-q2-update/arm-none-eabi/include/c++/6.3.1/ext/new_allocator.h ****    *  This is precisely the allocator defined in the C++ Standard. 
  52:/home/zkmike/.local/share/renesas/e2_studio/toolchains/gcc_arm/gcc-arm-none-eabi-6-2017-q2-update/arm-none-eabi/include/c++/6.3.1/ext/new_allocator.h ****    *    - all allocation calls operator new
  53:/home/zkmike/.local/share/renesas/e2_studio/toolchains/gcc_arm/gcc-arm-none-eabi-6-2017-q2-update/arm-none-eabi/include/c++/6.3.1/ext/new_allocator.h ****    *    - all deallocation calls operator delete
  54:/home/zkmike/.local/share/renesas/e2_studio/toolchains/gcc_arm/gcc-arm-none-eabi-6-2017-q2-update/arm-none-eabi/include/c++/6.3.1/ext/new_allocator.h ****    *
  55:/home/zkmike/.local/share/renesas/e2_studio/toolchains/gcc_arm/gcc-arm-none-eabi-6-2017-q2-update/arm-none-eabi/include/c++/6.3.1/ext/new_allocator.h ****    *  @tparam  _Tp  Type of allocated object.
  56:/home/zkmike/.local/share/renesas/e2_studio/toolchains/gcc_arm/gcc-arm-none-eabi-6-2017-q2-update/arm-none-eabi/include/c++/6.3.1/ext/new_allocator.h ****    */
  57:/home/zkmike/.local/share/renesas/e2_studio/toolchains/gcc_arm/gcc-arm-none-eabi-6-2017-q2-update/arm-none-eabi/include/c++/6.3.1/ext/new_allocator.h ****   template<typename _Tp>
  58:/home/zkmike/.local/share/renesas/e2_studio/toolchains/gcc_arm/gcc-arm-none-eabi-6-2017-q2-update/arm-none-eabi/include/c++/6.3.1/ext/new_allocator.h ****     class new_allocator
  59:/home/zkmike/.local/share/renesas/e2_studio/toolchains/gcc_arm/gcc-arm-none-eabi-6-2017-q2-update/arm-none-eabi/include/c++/6.3.1/ext/new_allocator.h ****     {
  60:/home/zkmike/.local/share/renesas/e2_studio/toolchains/gcc_arm/gcc-arm-none-eabi-6-2017-q2-update/arm-none-eabi/include/c++/6.3.1/ext/new_allocator.h ****     public:
  61:/home/zkmike/.local/share/renesas/e2_studio/toolchains/gcc_arm/gcc-arm-none-eabi-6-2017-q2-update/arm-none-eabi/include/c++/6.3.1/ext/new_allocator.h ****       typedef size_t     size_type;
  62:/home/zkmike/.local/share/renesas/e2_studio/toolchains/gcc_arm/gcc-arm-none-eabi-6-2017-q2-update/arm-none-eabi/include/c++/6.3.1/ext/new_allocator.h ****       typedef ptrdiff_t  difference_type;
  63:/home/zkmike/.local/share/renesas/e2_studio/toolchains/gcc_arm/gcc-arm-none-eabi-6-2017-q2-update/arm-none-eabi/include/c++/6.3.1/ext/new_allocator.h ****       typedef _Tp*       pointer;
  64:/home/zkmike/.local/share/renesas/e2_studio/toolchains/gcc_arm/gcc-arm-none-eabi-6-2017-q2-update/arm-none-eabi/include/c++/6.3.1/ext/new_allocator.h ****       typedef const _Tp* const_pointer;
  65:/home/zkmike/.local/share/renesas/e2_studio/toolchains/gcc_arm/gcc-arm-none-eabi-6-2017-q2-update/arm-none-eabi/include/c++/6.3.1/ext/new_allocator.h ****       typedef _Tp&       reference;
  66:/home/zkmike/.local/share/renesas/e2_studio/toolchains/gcc_arm/gcc-arm-none-eabi-6-2017-q2-update/arm-none-eabi/include/c++/6.3.1/ext/new_allocator.h ****       typedef const _Tp& const_reference;
  67:/home/zkmike/.local/share/renesas/e2_studio/toolchains/gcc_arm/gcc-arm-none-eabi-6-2017-q2-update/arm-none-eabi/include/c++/6.3.1/ext/new_allocator.h ****       typedef _Tp        value_type;
  68:/home/zkmike/.local/share/renesas/e2_studio/toolchains/gcc_arm/gcc-arm-none-eabi-6-2017-q2-update/arm-none-eabi/include/c++/6.3.1/ext/new_allocator.h **** 
  69:/home/zkmike/.local/share/renesas/e2_studio/toolchains/gcc_arm/gcc-arm-none-eabi-6-2017-q2-update/arm-none-eabi/include/c++/6.3.1/ext/new_allocator.h ****       template<typename _Tp1>
  70:/home/zkmike/.local/share/renesas/e2_studio/toolchains/gcc_arm/gcc-arm-none-eabi-6-2017-q2-update/arm-none-eabi/include/c++/6.3.1/ext/new_allocator.h ****         struct rebind
  71:/home/zkmike/.local/share/renesas/e2_studio/toolchains/gcc_arm/gcc-arm-none-eabi-6-2017-q2-update/arm-none-eabi/include/c++/6.3.1/ext/new_allocator.h ****         { typedef new_allocator<_Tp1> other; };
  72:/home/zkmike/.local/share/renesas/e2_studio/toolchains/gcc_arm/gcc-arm-none-eabi-6-2017-q2-update/arm-none-eabi/include/c++/6.3.1/ext/new_allocator.h **** 
  73:/home/zkmike/.local/share/renesas/e2_studio/toolchains/gcc_arm/gcc-arm-none-eabi-6-2017-q2-update/arm-none-eabi/include/c++/6.3.1/ext/new_allocator.h **** #if __cplusplus >= 201103L
  74:/home/zkmike/.local/share/renesas/e2_studio/toolchains/gcc_arm/gcc-arm-none-eabi-6-2017-q2-update/arm-none-eabi/include/c++/6.3.1/ext/new_allocator.h ****       // _GLIBCXX_RESOLVE_LIB_DEFECTS
  75:/home/zkmike/.local/share/renesas/e2_studio/toolchains/gcc_arm/gcc-arm-none-eabi-6-2017-q2-update/arm-none-eabi/include/c++/6.3.1/ext/new_allocator.h ****       // 2103. propagate_on_container_move_assignment
  76:/home/zkmike/.local/share/renesas/e2_studio/toolchains/gcc_arm/gcc-arm-none-eabi-6-2017-q2-update/arm-none-eabi/include/c++/6.3.1/ext/new_allocator.h ****       typedef std::true_type propagate_on_container_move_assignment;
  77:/home/zkmike/.local/share/renesas/e2_studio/toolchains/gcc_arm/gcc-arm-none-eabi-6-2017-q2-update/arm-none-eabi/include/c++/6.3.1/ext/new_allocator.h **** #endif
  78:/home/zkmike/.local/share/renesas/e2_studio/toolchains/gcc_arm/gcc-arm-none-eabi-6-2017-q2-update/arm-none-eabi/include/c++/6.3.1/ext/new_allocator.h **** 
  79:/home/zkmike/.local/share/renesas/e2_studio/toolchains/gcc_arm/gcc-arm-none-eabi-6-2017-q2-update/arm-none-eabi/include/c++/6.3.1/ext/new_allocator.h ****       new_allocator() _GLIBCXX_USE_NOEXCEPT { }
  80:/home/zkmike/.local/share/renesas/e2_studio/toolchains/gcc_arm/gcc-arm-none-eabi-6-2017-q2-update/arm-none-eabi/include/c++/6.3.1/ext/new_allocator.h **** 
  81:/home/zkmike/.local/share/renesas/e2_studio/toolchains/gcc_arm/gcc-arm-none-eabi-6-2017-q2-update/arm-none-eabi/include/c++/6.3.1/ext/new_allocator.h ****       new_allocator(const new_allocator&) _GLIBCXX_USE_NOEXCEPT { }
  82:/home/zkmike/.local/share/renesas/e2_studio/toolchains/gcc_arm/gcc-arm-none-eabi-6-2017-q2-update/arm-none-eabi/include/c++/6.3.1/ext/new_allocator.h **** 
  83:/home/zkmike/.local/share/renesas/e2_studio/toolchains/gcc_arm/gcc-arm-none-eabi-6-2017-q2-update/arm-none-eabi/include/c++/6.3.1/ext/new_allocator.h ****       template<typename _Tp1>
  84:/home/zkmike/.local/share/renesas/e2_studio/toolchains/gcc_arm/gcc-arm-none-eabi-6-2017-q2-update/arm-none-eabi/include/c++/6.3.1/ext/new_allocator.h ****         new_allocator(const new_allocator<_Tp1>&) _GLIBCXX_USE_NOEXCEPT { }
  85:/home/zkmike/.local/share/renesas/e2_studio/toolchains/gcc_arm/gcc-arm-none-eabi-6-2017-q2-update/arm-none-eabi/include/c++/6.3.1/ext/new_allocator.h **** 
  86:/home/zkmike/.local/share/renesas/e2_studio/toolchains/gcc_arm/gcc-arm-none-eabi-6-2017-q2-update/arm-none-eabi/include/c++/6.3.1/ext/new_allocator.h ****       ~new_allocator() _GLIBCXX_USE_NOEXCEPT { }
  87:/home/zkmike/.local/share/renesas/e2_studio/toolchains/gcc_arm/gcc-arm-none-eabi-6-2017-q2-update/arm-none-eabi/include/c++/6.3.1/ext/new_allocator.h **** 
  88:/home/zkmike/.local/share/renesas/e2_studio/toolchains/gcc_arm/gcc-arm-none-eabi-6-2017-q2-update/arm-none-eabi/include/c++/6.3.1/ext/new_allocator.h ****       pointer
  89:/home/zkmike/.local/share/renesas/e2_studio/toolchains/gcc_arm/gcc-arm-none-eabi-6-2017-q2-update/arm-none-eabi/include/c++/6.3.1/ext/new_allocator.h ****       address(reference __x) const _GLIBCXX_NOEXCEPT
  90:/home/zkmike/.local/share/renesas/e2_studio/toolchains/gcc_arm/gcc-arm-none-eabi-6-2017-q2-update/arm-none-eabi/include/c++/6.3.1/ext/new_allocator.h ****       { return std::__addressof(__x); }
  91:/home/zkmike/.local/share/renesas/e2_studio/toolchains/gcc_arm/gcc-arm-none-eabi-6-2017-q2-update/arm-none-eabi/include/c++/6.3.1/ext/new_allocator.h **** 
  92:/home/zkmike/.local/share/renesas/e2_studio/toolchains/gcc_arm/gcc-arm-none-eabi-6-2017-q2-update/arm-none-eabi/include/c++/6.3.1/ext/new_allocator.h ****       const_pointer
  93:/home/zkmike/.local/share/renesas/e2_studio/toolchains/gcc_arm/gcc-arm-none-eabi-6-2017-q2-update/arm-none-eabi/include/c++/6.3.1/ext/new_allocator.h ****       address(const_reference __x) const _GLIBCXX_NOEXCEPT
  94:/home/zkmike/.local/share/renesas/e2_studio/toolchains/gcc_arm/gcc-arm-none-eabi-6-2017-q2-update/arm-none-eabi/include/c++/6.3.1/ext/new_allocator.h ****       { return std::__addressof(__x); }
  95:/home/zkmike/.local/share/renesas/e2_studio/toolchains/gcc_arm/gcc-arm-none-eabi-6-2017-q2-update/arm-none-eabi/include/c++/6.3.1/ext/new_allocator.h **** 
  96:/home/zkmike/.local/share/renesas/e2_studio/toolchains/gcc_arm/gcc-arm-none-eabi-6-2017-q2-update/arm-none-eabi/include/c++/6.3.1/ext/new_allocator.h ****       // NB: __n is permitted to be 0.  The C++ standard says nothing
  97:/home/zkmike/.local/share/renesas/e2_studio/toolchains/gcc_arm/gcc-arm-none-eabi-6-2017-q2-update/arm-none-eabi/include/c++/6.3.1/ext/new_allocator.h ****       // about what the return value is when __n == 0.
  98:/home/zkmike/.local/share/renesas/e2_studio/toolchains/gcc_arm/gcc-arm-none-eabi-6-2017-q2-update/arm-none-eabi/include/c++/6.3.1/ext/new_allocator.h ****       pointer
  99:/home/zkmike/.local/share/renesas/e2_studio/toolchains/gcc_arm/gcc-arm-none-eabi-6-2017-q2-update/arm-none-eabi/include/c++/6.3.1/ext/new_allocator.h ****       allocate(size_type __n, const void* = 0)
 100:/home/zkmike/.local/share/renesas/e2_studio/toolchains/gcc_arm/gcc-arm-none-eabi-6-2017-q2-update/arm-none-eabi/include/c++/6.3.1/ext/new_allocator.h ****       { 
 101:/home/zkmike/.local/share/renesas/e2_studio/toolchains/gcc_arm/gcc-arm-none-eabi-6-2017-q2-update/arm-none-eabi/include/c++/6.3.1/ext/new_allocator.h **** 	if (__n > this->max_size())
 102:/home/zkmike/.local/share/renesas/e2_studio/toolchains/gcc_arm/gcc-arm-none-eabi-6-2017-q2-update/arm-none-eabi/include/c++/6.3.1/ext/new_allocator.h **** 	  std::__throw_bad_alloc();
 103:/home/zkmike/.local/share/renesas/e2_studio/toolchains/gcc_arm/gcc-arm-none-eabi-6-2017-q2-update/arm-none-eabi/include/c++/6.3.1/ext/new_allocator.h **** 
 104:/home/zkmike/.local/share/renesas/e2_studio/toolchains/gcc_arm/gcc-arm-none-eabi-6-2017-q2-update/arm-none-eabi/include/c++/6.3.1/ext/new_allocator.h **** 	return static_cast<_Tp*>(::operator new(__n * sizeof(_Tp)));
 105:/home/zkmike/.local/share/renesas/e2_studio/toolchains/gcc_arm/gcc-arm-none-eabi-6-2017-q2-update/arm-none-eabi/include/c++/6.3.1/ext/new_allocator.h ****       }
 106:/home/zkmike/.local/share/renesas/e2_studio/toolchains/gcc_arm/gcc-arm-none-eabi-6-2017-q2-update/arm-none-eabi/include/c++/6.3.1/ext/new_allocator.h **** 
 107:/home/zkmike/.local/share/renesas/e2_studio/toolchains/gcc_arm/gcc-arm-none-eabi-6-2017-q2-update/arm-none-eabi/include/c++/6.3.1/ext/new_allocator.h ****       // __p is not permitted to be a null pointer.
 108:/home/zkmike/.local/share/renesas/e2_studio/toolchains/gcc_arm/gcc-arm-none-eabi-6-2017-q2-update/arm-none-eabi/include/c++/6.3.1/ext/new_allocator.h ****       void
 109:/home/zkmike/.local/share/renesas/e2_studio/toolchains/gcc_arm/gcc-arm-none-eabi-6-2017-q2-update/arm-none-eabi/include/c++/6.3.1/ext/new_allocator.h ****       deallocate(pointer __p, size_type)
 110:/home/zkmike/.local/share/renesas/e2_studio/toolchains/gcc_arm/gcc-arm-none-eabi-6-2017-q2-update/arm-none-eabi/include/c++/6.3.1/ext/new_allocator.h ****       { ::operator delete(__p); }
  97              		.loc 4 110 0
  98 0018 FEFFFFEB 		bl	_ZdlPv
  99              	.LVL7:
 100              	.L4:
 101              	.LBE730:
 102              	.LBE729:
 103              	.LBE728:
 104              	.LBE727:
 105              	.LBE721:
 106              	.LBE720:
 107              	.LBE719:
 108              		.loc 2 30 0
 109 001c 0400A0E1 		mov	r0, r4
 110 0020 1080BDE8 		pop	{r4, pc}
 111              		.cfi_endproc
 112              	.LFE2817:
 113              		.cantunwind
 114              		.fnend
 116              		.weak	_ZN5zxing6qrcode4ModeD1Ev
 117              		.set	_ZN5zxing6qrcode4ModeD1Ev,_ZN5zxing6qrcode4ModeD2Ev
 118              		.section	.text._ZN5zxing9ExceptionD2Ev,"axG",%progbits,_ZN5zxing9ExceptionD5Ev,comdat
 119              		.align	2
 120              		.weak	_ZN5zxing9ExceptionD2Ev
 121              		.syntax unified
 122              		.arm
 123              		.fpu neon
 125              	_ZN5zxing9ExceptionD2Ev:
 126              		.fnstart
 127              	.LFB1868:
  37:/home/zkmike/workspace/RZA2M/rza2m_2d_barcode_sample_freertos_gcc/src/zxing_lib/zxing/Exception.h ****     if(message) {
 128              		.loc 1 37 0
 129              		.cfi_startproc
 130              		.cfi_personality 0,__gxx_personality_v0
 131              		.cfi_lsda 0,.LLSDA1868
 132              		@ args = 0, pretend = 0, frame = 0
 133              		@ frame_needed = 0, uses_anonymous_args = 0
 134              	.LVL8:
 135 0000 70402DE9 		push	{r4, r5, r6, lr}
 136              		.save {r4, r5, r6, lr}
 137              		.cfi_def_cfa_offset 16
 138              		.cfi_offset 4, -16
 139              		.cfi_offset 5, -12
 140              		.cfi_offset 6, -8
 141              		.cfi_offset 14, -4
 142 0004 0040A0E1 		mov	r4, r0
 143              	.LBB732:
  37:/home/zkmike/workspace/RZA2M/rza2m_2d_barcode_sample_freertos_gcc/src/zxing_lib/zxing/Exception.h ****     if(message) {
 144              		.loc 1 37 0
 145 0008 48309FE5 		ldr	r3, .L13
 146 000c 003080E5 		str	r3, [r0]
  38:/home/zkmike/workspace/RZA2M/rza2m_2d_barcode_sample_freertos_gcc/src/zxing_lib/zxing/Exception.h ****       deleteMessage();
 147              		.loc 1 38 0
 148 0010 043090E5 		ldr	r3, [r0, #4]
 149 0014 000053E3 		cmp	r3, #0
 150 0018 0A00000A 		beq	.L7
 151              	.LEHB0:
  39:/home/zkmike/workspace/RZA2M/rza2m_2d_barcode_sample_freertos_gcc/src/zxing_lib/zxing/Exception.h ****     }
 152              		.loc 1 39 0
 153 001c FEFFFFEB 		bl	_ZN5zxing9Exception13deleteMessageEv
 154              	.LVL9:
 155              	.LEHE0:
 156 0020 080000EA 		b	.L7
 157              	.L10:
 158 0024 0050A0E1 		mov	r5, r0
 159 0028 0160A0E1 		mov	r6, r1
  37:/home/zkmike/workspace/RZA2M/rza2m_2d_barcode_sample_freertos_gcc/src/zxing_lib/zxing/Exception.h ****     if(message) {
 160              		.loc 1 37 0
 161 002c 0400A0E1 		mov	r0, r4
 162 0030 FEFFFFEB 		bl	_ZNSt9exceptionD2Ev
 163              	.LVL10:
 164 0034 010076E3 		cmn	r6, #1
 165 0038 0000000A 		beq	.L9
 166              	.LEHB1:
 167 003c FEFFFFEB 		bl	__cxa_end_cleanup
 168              	.LVL11:
 169              	.L9:
 170              	.LBE732:
 171 0040 0500A0E1 		mov	r0, r5
 172 0044 FEFFFFEB 		bl	__cxa_call_unexpected
 173              	.LVL12:
 174              	.LEHE1:
 175              	.L7:
 176              	.LBB733:
 177 0048 0400A0E1 		mov	r0, r4
 178 004c FEFFFFEB 		bl	_ZNSt9exceptionD2Ev
 179              	.LVL13:
 180              	.LBE733:
  41:/home/zkmike/workspace/RZA2M/rza2m_2d_barcode_sample_freertos_gcc/src/zxing_lib/zxing/Exception.h ****   char const* what() const throw() {return message ? message : "";}
 181              		.loc 1 41 0
 182 0050 0400A0E1 		mov	r0, r4
 183 0054 7080BDE8 		pop	{r4, r5, r6, pc}
 184              	.L14:
 185              		.align	2
 186              	.L13:
 187 0058 08000000 		.word	_ZTVN5zxing9ExceptionE+8
 188              		.cfi_endproc
 189              	.LFE1868:
 190              		.global	__gxx_personality_v0
 191              		.personality	__gxx_personality_v0
 192              		.handlerdata
 193              		.align	2
 194              	.LLSDA1868:
 195 0008 FF       		.byte	0xff
 196 0009 10       		.byte	0x10
 197 000a 11       		.uleb128 .LLSDATT1868-.LLSDATTD1868
 198              	.LLSDATTD1868:
 199 000b 01       		.byte	0x1
 200 000c 08       		.uleb128 .LLSDACSE1868-.LLSDACSB1868
 201              	.LLSDACSB1868:
 202 000d 1C       		.uleb128 .LEHB0-.LFB1868
 203 000e 04       		.uleb128 .LEHE0-.LEHB0
 204 000f 24       		.uleb128 .L10-.LFB1868
 205 0010 03       		.uleb128 0x3
 206 0011 3C       		.uleb128 .LEHB1-.LFB1868
 207 0012 0C       		.uleb128 .LEHE1-.LEHB1
 208 0013 00       		.uleb128 0
 209 0014 00       		.uleb128 0
 210              	.LLSDACSE1868:
 211 0015 7F       		.byte	0x7f
 212 0016 00       		.byte	0
 213 0017 00       		.byte	0
 214 0018 7D       		.byte	0x7d
 215 0019 000000   		.align	2
 216              	.LLSDATT1868:
 217 001c 00000000 		.word	0
 218              		.section	.text._ZN5zxing9ExceptionD2Ev,"axG",%progbits,_ZN5zxing9ExceptionD5Ev,comdat
 219              		.fnend
 221              		.weak	_ZN5zxing9ExceptionD1Ev
 222              		.set	_ZN5zxing9ExceptionD1Ev,_ZN5zxing9ExceptionD2Ev
 223              		.section	.text._ZN5zxing15ReaderExceptionD2Ev,"axG",%progbits,_ZN5zxing15ReaderExceptionD5Ev,comda
 224              		.align	2
 225              		.weak	_ZN5zxing15ReaderExceptionD2Ev
 226              		.syntax unified
 227              		.arm
 228              		.fpu neon
 230              	_ZN5zxing15ReaderExceptionD2Ev:
 231              		.fnstart
 232              	.LFB1879:
 233              		.file 5 "/home/zkmike/workspace/RZA2M/rza2m_2d_barcode_sample_freertos_gcc/src/zxing_lib/zxing/Rea
   1:/home/zkmike/workspace/RZA2M/rza2m_2d_barcode_sample_freertos_gcc/src/zxing_lib/zxing/ReaderException.h **** // -*- mode:c++; tab-width:2; indent-tabs-mode:nil; c-basic-offset:2 -*-
   2:/home/zkmike/workspace/RZA2M/rza2m_2d_barcode_sample_freertos_gcc/src/zxing_lib/zxing/ReaderException.h **** #ifndef __READER_EXCEPTION_H__
   3:/home/zkmike/workspace/RZA2M/rza2m_2d_barcode_sample_freertos_gcc/src/zxing_lib/zxing/ReaderException.h **** #define __READER_EXCEPTION_H__
   4:/home/zkmike/workspace/RZA2M/rza2m_2d_barcode_sample_freertos_gcc/src/zxing_lib/zxing/ReaderException.h **** 
   5:/home/zkmike/workspace/RZA2M/rza2m_2d_barcode_sample_freertos_gcc/src/zxing_lib/zxing/ReaderException.h **** /*
   6:/home/zkmike/workspace/RZA2M/rza2m_2d_barcode_sample_freertos_gcc/src/zxing_lib/zxing/ReaderException.h ****  *  ReaderException.h
   7:/home/zkmike/workspace/RZA2M/rza2m_2d_barcode_sample_freertos_gcc/src/zxing_lib/zxing/ReaderException.h ****  *  zxing
   8:/home/zkmike/workspace/RZA2M/rza2m_2d_barcode_sample_freertos_gcc/src/zxing_lib/zxing/ReaderException.h ****  *
   9:/home/zkmike/workspace/RZA2M/rza2m_2d_barcode_sample_freertos_gcc/src/zxing_lib/zxing/ReaderException.h ****  *  Copyright 2010 ZXing authors All rights reserved.
  10:/home/zkmike/workspace/RZA2M/rza2m_2d_barcode_sample_freertos_gcc/src/zxing_lib/zxing/ReaderException.h ****  *
  11:/home/zkmike/workspace/RZA2M/rza2m_2d_barcode_sample_freertos_gcc/src/zxing_lib/zxing/ReaderException.h ****  * Licensed under the Apache License, Version 2.0 (the "License");
  12:/home/zkmike/workspace/RZA2M/rza2m_2d_barcode_sample_freertos_gcc/src/zxing_lib/zxing/ReaderException.h ****  * you may not use this file except in compliance with the License.
  13:/home/zkmike/workspace/RZA2M/rza2m_2d_barcode_sample_freertos_gcc/src/zxing_lib/zxing/ReaderException.h ****  * You may obtain a copy of the License at
  14:/home/zkmike/workspace/RZA2M/rza2m_2d_barcode_sample_freertos_gcc/src/zxing_lib/zxing/ReaderException.h ****  *
  15:/home/zkmike/workspace/RZA2M/rza2m_2d_barcode_sample_freertos_gcc/src/zxing_lib/zxing/ReaderException.h ****  *      http://www.apache.org/licenses/LICENSE-2.0
  16:/home/zkmike/workspace/RZA2M/rza2m_2d_barcode_sample_freertos_gcc/src/zxing_lib/zxing/ReaderException.h ****  *
  17:/home/zkmike/workspace/RZA2M/rza2m_2d_barcode_sample_freertos_gcc/src/zxing_lib/zxing/ReaderException.h ****  * Unless required by applicable law or agreed to in writing, software
  18:/home/zkmike/workspace/RZA2M/rza2m_2d_barcode_sample_freertos_gcc/src/zxing_lib/zxing/ReaderException.h ****  * distributed under the License is distributed on an "AS IS" BASIS,
  19:/home/zkmike/workspace/RZA2M/rza2m_2d_barcode_sample_freertos_gcc/src/zxing_lib/zxing/ReaderException.h ****  * WITHOUT WARRANTIES OR CONDITIONS OF ANY KIND, either express or implied.
  20:/home/zkmike/workspace/RZA2M/rza2m_2d_barcode_sample_freertos_gcc/src/zxing_lib/zxing/ReaderException.h ****  * See the License for the specific language governing permissions and
  21:/home/zkmike/workspace/RZA2M/rza2m_2d_barcode_sample_freertos_gcc/src/zxing_lib/zxing/ReaderException.h ****  * limitations under the License.
  22:/home/zkmike/workspace/RZA2M/rza2m_2d_barcode_sample_freertos_gcc/src/zxing_lib/zxing/ReaderException.h ****  */
  23:/home/zkmike/workspace/RZA2M/rza2m_2d_barcode_sample_freertos_gcc/src/zxing_lib/zxing/ReaderException.h **** 
  24:/home/zkmike/workspace/RZA2M/rza2m_2d_barcode_sample_freertos_gcc/src/zxing_lib/zxing/ReaderException.h **** #include <zxing/Exception.h>
  25:/home/zkmike/workspace/RZA2M/rza2m_2d_barcode_sample_freertos_gcc/src/zxing_lib/zxing/ReaderException.h **** 
  26:/home/zkmike/workspace/RZA2M/rza2m_2d_barcode_sample_freertos_gcc/src/zxing_lib/zxing/ReaderException.h **** namespace zxing {
  27:/home/zkmike/workspace/RZA2M/rza2m_2d_barcode_sample_freertos_gcc/src/zxing_lib/zxing/ReaderException.h **** 
  28:/home/zkmike/workspace/RZA2M/rza2m_2d_barcode_sample_freertos_gcc/src/zxing_lib/zxing/ReaderException.h **** class ReaderException : public Exception {
  29:/home/zkmike/workspace/RZA2M/rza2m_2d_barcode_sample_freertos_gcc/src/zxing_lib/zxing/ReaderException.h ****  public:
  30:/home/zkmike/workspace/RZA2M/rza2m_2d_barcode_sample_freertos_gcc/src/zxing_lib/zxing/ReaderException.h ****   ReaderException() throw() {}
  31:/home/zkmike/workspace/RZA2M/rza2m_2d_barcode_sample_freertos_gcc/src/zxing_lib/zxing/ReaderException.h ****   ReaderException(char const* msg) throw() : Exception(msg) {}
  32:/home/zkmike/workspace/RZA2M/rza2m_2d_barcode_sample_freertos_gcc/src/zxing_lib/zxing/ReaderException.h ****   ~ReaderException() throw() {}
 234              		.loc 5 32 0
 235              		.cfi_startproc
 236              		.cfi_personality 0,__gxx_personality_v0
 237              		.cfi_lsda 0,.LLSDA1879
 238              		@ args = 0, pretend = 0, frame = 0
 239              		@ frame_needed = 0, uses_anonymous_args = 0
 240              	.LVL14:
 241 0000 70402DE9 		push	{r4, r5, r6, lr}
 242              		.save {r4, r5, r6, lr}
 243              		.cfi_def_cfa_offset 16
 244              		.cfi_offset 4, -16
 245              		.cfi_offset 5, -12
 246              		.cfi_offset 6, -8
 247              		.cfi_offset 14, -4
 248 0004 0040A0E1 		mov	r4, r0
 249              	.LVL15:
 250              	.LBB738:
 251              	.LBB739:
 252              	.LBB740:
 253              	.LBB741:
  37:/home/zkmike/workspace/RZA2M/rza2m_2d_barcode_sample_freertos_gcc/src/zxing_lib/zxing/Exception.h ****     if(message) {
 254              		.loc 1 37 0
 255 0008 48309FE5 		ldr	r3, .L22
 256 000c 003080E5 		str	r3, [r0]
  38:/home/zkmike/workspace/RZA2M/rza2m_2d_barcode_sample_freertos_gcc/src/zxing_lib/zxing/Exception.h ****       deleteMessage();
 257              		.loc 1 38 0
 258 0010 043090E5 		ldr	r3, [r0, #4]
 259 0014 000053E3 		cmp	r3, #0
 260 0018 0A00000A 		beq	.L16
 261              	.LEHB2:
  39:/home/zkmike/workspace/RZA2M/rza2m_2d_barcode_sample_freertos_gcc/src/zxing_lib/zxing/Exception.h ****     }
 262              		.loc 1 39 0
 263 001c FEFFFFEB 		bl	_ZN5zxing9Exception13deleteMessageEv
 264              	.LVL16:
 265              	.LEHE2:
 266 0020 080000EA 		b	.L16
 267              	.L19:
 268 0024 0050A0E1 		mov	r5, r0
 269 0028 0160A0E1 		mov	r6, r1
  37:/home/zkmike/workspace/RZA2M/rza2m_2d_barcode_sample_freertos_gcc/src/zxing_lib/zxing/Exception.h ****     if(message) {
 270              		.loc 1 37 0
 271 002c 0400A0E1 		mov	r0, r4
 272 0030 FEFFFFEB 		bl	_ZNSt9exceptionD2Ev
 273              	.LVL17:
 274 0034 010076E3 		cmn	r6, #1
 275 0038 0000000A 		beq	.L18
 276              	.LEHB3:
 277 003c FEFFFFEB 		bl	__cxa_end_cleanup
 278              	.LVL18:
 279              	.L18:
 280              	.LBE741:
 281 0040 0500A0E1 		mov	r0, r5
 282 0044 FEFFFFEB 		bl	__cxa_call_unexpected
 283              	.LVL19:
 284              	.LEHE3:
 285              	.L16:
 286              	.LBB742:
 287 0048 0400A0E1 		mov	r0, r4
 288 004c FEFFFFEB 		bl	_ZNSt9exceptionD2Ev
 289              	.LVL20:
 290              	.LBE742:
 291              	.LBE740:
 292              	.LBE739:
 293              	.LBE738:
 294              		.loc 5 32 0
 295 0050 0400A0E1 		mov	r0, r4
 296 0054 7080BDE8 		pop	{r4, r5, r6, pc}
 297              	.L23:
 298              		.align	2
 299              	.L22:
 300 0058 08000000 		.word	_ZTVN5zxing9ExceptionE+8
 301              		.cfi_endproc
 302              	.LFE1879:
 303              		.personality	__gxx_personality_v0
 304              		.handlerdata
 305              		.align	2
 306              	.LLSDA1879:
 307 0008 FF       		.byte	0xff
 308 0009 10       		.byte	0x10
 309 000a 11       		.uleb128 .LLSDATT1879-.LLSDATTD1879
 310              	.LLSDATTD1879:
 311 000b 01       		.byte	0x1
 312 000c 08       		.uleb128 .LLSDACSE1879-.LLSDACSB1879
 313              	.LLSDACSB1879:
 314 000d 1C       		.uleb128 .LEHB2-.LFB1879
 315 000e 04       		.uleb128 .LEHE2-.LEHB2
 316 000f 24       		.uleb128 .L19-.LFB1879
 317 0010 03       		.uleb128 0x3
 318 0011 3C       		.uleb128 .LEHB3-.LFB1879
 319 0012 0C       		.uleb128 .LEHE3-.LEHB3
 320 0013 00       		.uleb128 0
 321 0014 00       		.uleb128 0
 322              	.LLSDACSE1879:
 323 0015 7F       		.byte	0x7f
 324 0016 00       		.byte	0
 325 0017 00       		.byte	0
 326 0018 7D       		.byte	0x7d
 327 0019 000000   		.align	2
 328              	.LLSDATT1879:
 329 001c 00000000 		.word	0
 330              		.section	.text._ZN5zxing15ReaderExceptionD2Ev,"axG",%progbits,_ZN5zxing15ReaderExceptionD5Ev,comda
 331              		.fnend
 333              		.weak	_ZN5zxing15ReaderExceptionD1Ev
 334              		.set	_ZN5zxing15ReaderExceptionD1Ev,_ZN5zxing15ReaderExceptionD2Ev
 335              		.section	.text._ZN5zxing9ExceptionD0Ev,"axG",%progbits,_ZN5zxing9ExceptionD5Ev,comdat
 336              		.align	2
 337              		.weak	_ZN5zxing9ExceptionD0Ev
 338              		.syntax unified
 339              		.arm
 340              		.fpu neon
 342              	_ZN5zxing9ExceptionD0Ev:
 343              		.fnstart
 344              	.LFB1870:
  37:/home/zkmike/workspace/RZA2M/rza2m_2d_barcode_sample_freertos_gcc/src/zxing_lib/zxing/Exception.h ****     if(message) {
 345              		.loc 1 37 0
 346              		.cfi_startproc
 347              		.cfi_personality 0,__gxx_personality_v0
 348              		.cfi_lsda 0,.LLSDA1870
 349              		@ args = 0, pretend = 0, frame = 0
 350              		@ frame_needed = 0, uses_anonymous_args = 0
 351              	.LVL21:
 352 0000 70402DE9 		push	{r4, r5, r6, lr}
 353              		.save {r4, r5, r6, lr}
 354              		.cfi_def_cfa_offset 16
 355              		.cfi_offset 4, -16
 356              		.cfi_offset 5, -12
 357              		.cfi_offset 6, -8
 358              		.cfi_offset 14, -4
 359 0004 0040A0E1 		mov	r4, r0
 360              	.LVL22:
 361              	.LBB746:
 362              	.LBB747:
 363              	.LBB748:
  37:/home/zkmike/workspace/RZA2M/rza2m_2d_barcode_sample_freertos_gcc/src/zxing_lib/zxing/Exception.h ****     if(message) {
 364              		.loc 1 37 0
 365 0008 54309FE5 		ldr	r3, .L31
 366 000c 003080E5 		str	r3, [r0]
  38:/home/zkmike/workspace/RZA2M/rza2m_2d_barcode_sample_freertos_gcc/src/zxing_lib/zxing/Exception.h ****       deleteMessage();
 367              		.loc 1 38 0
 368 0010 043090E5 		ldr	r3, [r0, #4]
 369 0014 000053E3 		cmp	r3, #0
 370 0018 0A00000A 		beq	.L25
 371              	.LEHB4:
  39:/home/zkmike/workspace/RZA2M/rza2m_2d_barcode_sample_freertos_gcc/src/zxing_lib/zxing/Exception.h ****     }
 372              		.loc 1 39 0
 373 001c FEFFFFEB 		bl	_ZN5zxing9Exception13deleteMessageEv
 374              	.LVL23:
 375              	.LEHE4:
 376 0020 080000EA 		b	.L25
 377              	.L28:
 378 0024 0050A0E1 		mov	r5, r0
 379 0028 0160A0E1 		mov	r6, r1
  37:/home/zkmike/workspace/RZA2M/rza2m_2d_barcode_sample_freertos_gcc/src/zxing_lib/zxing/Exception.h ****     if(message) {
 380              		.loc 1 37 0
 381 002c 0400A0E1 		mov	r0, r4
 382 0030 FEFFFFEB 		bl	_ZNSt9exceptionD2Ev
 383              	.LVL24:
 384 0034 010076E3 		cmn	r6, #1
 385 0038 0000000A 		beq	.L27
 386              	.LEHB5:
 387 003c FEFFFFEB 		bl	__cxa_end_cleanup
 388              	.LVL25:
 389              	.L27:
 390              	.LBE748:
 391 0040 0500A0E1 		mov	r0, r5
 392 0044 FEFFFFEB 		bl	__cxa_call_unexpected
 393              	.LVL26:
 394              	.LEHE5:
 395              	.L25:
 396              	.LBB749:
 397 0048 0400A0E1 		mov	r0, r4
 398 004c FEFFFFEB 		bl	_ZNSt9exceptionD2Ev
 399              	.LVL27:
 400              	.LBE749:
 401              	.LBE747:
 402              	.LBE746:
  41:/home/zkmike/workspace/RZA2M/rza2m_2d_barcode_sample_freertos_gcc/src/zxing_lib/zxing/Exception.h ****   char const* what() const throw() {return message ? message : "";}
 403              		.loc 1 41 0
 404 0050 0810A0E3 		mov	r1, #8
 405 0054 0400A0E1 		mov	r0, r4
 406 0058 FEFFFFEB 		bl	_ZdlPvj
 407              	.LVL28:
 408 005c 0400A0E1 		mov	r0, r4
 409 0060 7080BDE8 		pop	{r4, r5, r6, pc}
 410              	.L32:
 411              		.align	2
 412              	.L31:
 413 0064 08000000 		.word	_ZTVN5zxing9ExceptionE+8
 414              		.cfi_endproc
 415              	.LFE1870:
 416              		.personality	__gxx_personality_v0
 417              		.handlerdata
 418              		.align	2
 419              	.LLSDA1870:
 420 0008 FF       		.byte	0xff
 421 0009 10       		.byte	0x10
 422 000a 11       		.uleb128 .LLSDATT1870-.LLSDATTD1870
 423              	.LLSDATTD1870:
 424 000b 01       		.byte	0x1
 425 000c 08       		.uleb128 .LLSDACSE1870-.LLSDACSB1870
 426              	.LLSDACSB1870:
 427 000d 1C       		.uleb128 .LEHB4-.LFB1870
 428 000e 04       		.uleb128 .LEHE4-.LEHB4
 429 000f 24       		.uleb128 .L28-.LFB1870
 430 0010 03       		.uleb128 0x3
 431 0011 3C       		.uleb128 .LEHB5-.LFB1870
 432 0012 0C       		.uleb128 .LEHE5-.LEHB5
 433 0013 00       		.uleb128 0
 434 0014 00       		.uleb128 0
 435              	.LLSDACSE1870:
 436 0015 7F       		.byte	0x7f
 437 0016 00       		.byte	0
 438 0017 00       		.byte	0
 439 0018 7D       		.byte	0x7d
 440 0019 000000   		.align	2
 441              	.LLSDATT1870:
 442 001c 00000000 		.word	0
 443              		.section	.text._ZN5zxing9ExceptionD0Ev,"axG",%progbits,_ZN5zxing9ExceptionD5Ev,comdat
 444              		.fnend
 446              		.section	.text._ZN5zxing15ReaderExceptionD0Ev,"axG",%progbits,_ZN5zxing15ReaderExceptionD5Ev,comda
 447              		.align	2
 448              		.weak	_ZN5zxing15ReaderExceptionD0Ev
 449              		.syntax unified
 450              		.arm
 451              		.fpu neon
 453              	_ZN5zxing15ReaderExceptionD0Ev:
 454              		.fnstart
 455              	.LFB1881:
 456              		.loc 5 32 0
 457              		.cfi_startproc
 458              		.cfi_personality 0,__gxx_personality_v0
 459              		.cfi_lsda 0,.LLSDA1881
 460              		@ args = 0, pretend = 0, frame = 0
 461              		@ frame_needed = 0, uses_anonymous_args = 0
 462              	.LVL29:
 463 0000 70402DE9 		push	{r4, r5, r6, lr}
 464              		.save {r4, r5, r6, lr}
 465              		.cfi_def_cfa_offset 16
 466              		.cfi_offset 4, -16
 467              		.cfi_offset 5, -12
 468              		.cfi_offset 6, -8
 469              		.cfi_offset 14, -4
 470 0004 0040A0E1 		mov	r4, r0
 471              	.LVL30:
 472              	.LBB755:
 473              	.LBB756:
 474              	.LBB757:
 475              	.LBB758:
 476              	.LBB759:
  37:/home/zkmike/workspace/RZA2M/rza2m_2d_barcode_sample_freertos_gcc/src/zxing_lib/zxing/Exception.h ****     if(message) {
 477              		.loc 1 37 0
 478 0008 54309FE5 		ldr	r3, .L40
 479 000c 003080E5 		str	r3, [r0]
  38:/home/zkmike/workspace/RZA2M/rza2m_2d_barcode_sample_freertos_gcc/src/zxing_lib/zxing/Exception.h ****       deleteMessage();
 480              		.loc 1 38 0
 481 0010 043090E5 		ldr	r3, [r0, #4]
 482 0014 000053E3 		cmp	r3, #0
 483 0018 0A00000A 		beq	.L34
 484              	.LEHB6:
  39:/home/zkmike/workspace/RZA2M/rza2m_2d_barcode_sample_freertos_gcc/src/zxing_lib/zxing/Exception.h ****     }
 485              		.loc 1 39 0
 486 001c FEFFFFEB 		bl	_ZN5zxing9Exception13deleteMessageEv
 487              	.LVL31:
 488              	.LEHE6:
 489 0020 080000EA 		b	.L34
 490              	.L37:
 491 0024 0050A0E1 		mov	r5, r0
 492 0028 0160A0E1 		mov	r6, r1
  37:/home/zkmike/workspace/RZA2M/rza2m_2d_barcode_sample_freertos_gcc/src/zxing_lib/zxing/Exception.h ****     if(message) {
 493              		.loc 1 37 0
 494 002c 0400A0E1 		mov	r0, r4
 495 0030 FEFFFFEB 		bl	_ZNSt9exceptionD2Ev
 496              	.LVL32:
 497 0034 010076E3 		cmn	r6, #1
 498 0038 0000000A 		beq	.L36
 499              	.LEHB7:
 500 003c FEFFFFEB 		bl	__cxa_end_cleanup
 501              	.LVL33:
 502              	.L36:
 503              	.LBE759:
 504 0040 0500A0E1 		mov	r0, r5
 505 0044 FEFFFFEB 		bl	__cxa_call_unexpected
 506              	.LVL34:
 507              	.LEHE7:
 508              	.L34:
 509              	.LBB760:
 510 0048 0400A0E1 		mov	r0, r4
 511 004c FEFFFFEB 		bl	_ZNSt9exceptionD2Ev
 512              	.LVL35:
 513              	.LBE760:
 514              	.LBE758:
 515              	.LBE757:
 516              	.LBE756:
 517              	.LBE755:
 518              		.loc 5 32 0
 519 0050 0810A0E3 		mov	r1, #8
 520 0054 0400A0E1 		mov	r0, r4
 521 0058 FEFFFFEB 		bl	_ZdlPvj
 522              	.LVL36:
 523 005c 0400A0E1 		mov	r0, r4
 524 0060 7080BDE8 		pop	{r4, r5, r6, pc}
 525              	.L41:
 526              		.align	2
 527              	.L40:
 528 0064 08000000 		.word	_ZTVN5zxing9ExceptionE+8
 529              		.cfi_endproc
 530              	.LFE1881:
 531              		.personality	__gxx_personality_v0
 532              		.handlerdata
 533              		.align	2
 534              	.LLSDA1881:
 535 0008 FF       		.byte	0xff
 536 0009 10       		.byte	0x10
 537 000a 11       		.uleb128 .LLSDATT1881-.LLSDATTD1881
 538              	.LLSDATTD1881:
 539 000b 01       		.byte	0x1
 540 000c 08       		.uleb128 .LLSDACSE1881-.LLSDACSB1881
 541              	.LLSDACSB1881:
 542 000d 1C       		.uleb128 .LEHB6-.LFB1881
 543 000e 04       		.uleb128 .LEHE6-.LEHB6
 544 000f 24       		.uleb128 .L37-.LFB1881
 545 0010 03       		.uleb128 0x3
 546 0011 3C       		.uleb128 .LEHB7-.LFB1881
 547 0012 0C       		.uleb128 .LEHE7-.LEHB7
 548 0013 00       		.uleb128 0
 549 0014 00       		.uleb128 0
 550              	.LLSDACSE1881:
 551 0015 7F       		.byte	0x7f
 552 0016 00       		.byte	0
 553 0017 00       		.byte	0
 554 0018 7D       		.byte	0x7d
 555 0019 000000   		.align	2
 556              	.LLSDATT1881:
 557 001c 00000000 		.word	0
 558              		.section	.text._ZN5zxing15ReaderExceptionD0Ev,"axG",%progbits,_ZN5zxing15ReaderExceptionD5Ev,comda
 559              		.fnend
 561              		.section	.text._ZN5zxing6qrcode4Mode21getCharacterCountBitsEPNS0_7VersionE,"ax",%progbits
 562              		.align	2
 563              		.global	_ZN5zxing6qrcode4Mode21getCharacterCountBitsEPNS0_7VersionE
 564              		.syntax unified
 565              		.arm
 566              		.fpu neon
 568              	_ZN5zxing6qrcode4Mode21getCharacterCountBitsEPNS0_7VersionE:
 569              		.fnstart
 570              	.LFB2308:
 571              		.file 6 "../src/zxing_lib/zxing/qrcode/decoder/Mode.cpp"
   1:../src/zxing_lib/zxing/qrcode/decoder/Mode.cpp **** // -*- mode:c++; tab-width:2; indent-tabs-mode:nil; c-basic-offset:2 -*-
   2:../src/zxing_lib/zxing/qrcode/decoder/Mode.cpp **** /*
   3:../src/zxing_lib/zxing/qrcode/decoder/Mode.cpp ****  *  Mode.cpp
   4:../src/zxing_lib/zxing/qrcode/decoder/Mode.cpp ****  *  zxing
   5:../src/zxing_lib/zxing/qrcode/decoder/Mode.cpp ****  *
   6:../src/zxing_lib/zxing/qrcode/decoder/Mode.cpp ****  *  Created by Christian Brunschen on 19/05/2008.
   7:../src/zxing_lib/zxing/qrcode/decoder/Mode.cpp ****  *  Copyright 2008 ZXing authors All rights reserved.
   8:../src/zxing_lib/zxing/qrcode/decoder/Mode.cpp ****  *
   9:../src/zxing_lib/zxing/qrcode/decoder/Mode.cpp ****  * Licensed under the Apache License, Version 2.0 (the "License");
  10:../src/zxing_lib/zxing/qrcode/decoder/Mode.cpp ****  * you may not use this file except in compliance with the License.
  11:../src/zxing_lib/zxing/qrcode/decoder/Mode.cpp ****  * You may obtain a copy of the License at
  12:../src/zxing_lib/zxing/qrcode/decoder/Mode.cpp ****  *
  13:../src/zxing_lib/zxing/qrcode/decoder/Mode.cpp ****  *      http://www.apache.org/licenses/LICENSE-2.0
  14:../src/zxing_lib/zxing/qrcode/decoder/Mode.cpp ****  *
  15:../src/zxing_lib/zxing/qrcode/decoder/Mode.cpp ****  * Unless required by applicable law or agreed to in writing, software
  16:../src/zxing_lib/zxing/qrcode/decoder/Mode.cpp ****  * distributed under the License is distributed on an "AS IS" BASIS,
  17:../src/zxing_lib/zxing/qrcode/decoder/Mode.cpp ****  * WITHOUT WARRANTIES OR CONDITIONS OF ANY KIND, either express or implied.
  18:../src/zxing_lib/zxing/qrcode/decoder/Mode.cpp ****  * See the License for the specific language governing permissions and
  19:../src/zxing_lib/zxing/qrcode/decoder/Mode.cpp ****  * limitations under the License.
  20:../src/zxing_lib/zxing/qrcode/decoder/Mode.cpp ****  */
  21:../src/zxing_lib/zxing/qrcode/decoder/Mode.cpp **** 
  22:../src/zxing_lib/zxing/qrcode/decoder/Mode.cpp **** #include <zxing/ZXing.h>
  23:../src/zxing_lib/zxing/qrcode/decoder/Mode.cpp **** #include <zxing/qrcode/decoder/Mode.h>
  24:../src/zxing_lib/zxing/qrcode/decoder/Mode.cpp **** #include <zxing/common/Counted.h>
  25:../src/zxing_lib/zxing/qrcode/decoder/Mode.cpp **** #include <zxing/ReaderException.h>
  26:../src/zxing_lib/zxing/qrcode/decoder/Mode.cpp **** #include <zxing/qrcode/Version.h>
  27:../src/zxing_lib/zxing/qrcode/decoder/Mode.cpp **** #include <sstream>
  28:../src/zxing_lib/zxing/qrcode/decoder/Mode.cpp **** 
  29:../src/zxing_lib/zxing/qrcode/decoder/Mode.cpp **** using zxing::qrcode::Mode;
  30:../src/zxing_lib/zxing/qrcode/decoder/Mode.cpp **** using std::ostringstream;
  31:../src/zxing_lib/zxing/qrcode/decoder/Mode.cpp **** 
  32:../src/zxing_lib/zxing/qrcode/decoder/Mode.cpp **** // VC++
  33:../src/zxing_lib/zxing/qrcode/decoder/Mode.cpp **** using zxing::qrcode::Version;
  34:../src/zxing_lib/zxing/qrcode/decoder/Mode.cpp **** 
  35:../src/zxing_lib/zxing/qrcode/decoder/Mode.cpp **** Mode Mode::TERMINATOR(0, 0, 0, 0x00, "TERMINATOR");
  36:../src/zxing_lib/zxing/qrcode/decoder/Mode.cpp **** Mode Mode::NUMERIC(10, 12, 14, 0x01, "NUMERIC");
  37:../src/zxing_lib/zxing/qrcode/decoder/Mode.cpp **** Mode Mode::ALPHANUMERIC(9, 11, 13, 0x02, "ALPHANUMERIC");
  38:../src/zxing_lib/zxing/qrcode/decoder/Mode.cpp **** Mode Mode::STRUCTURED_APPEND(0, 0, 0, 0x03, "STRUCTURED_APPEND");
  39:../src/zxing_lib/zxing/qrcode/decoder/Mode.cpp **** Mode Mode::BYTE(8, 16, 16, 0x04, "BYTE");
  40:../src/zxing_lib/zxing/qrcode/decoder/Mode.cpp **** Mode Mode::ECI(0, 0, 0, 0x07, "ECI");
  41:../src/zxing_lib/zxing/qrcode/decoder/Mode.cpp **** Mode Mode::KANJI(8, 10, 12, 0x08, "KANJI");
  42:../src/zxing_lib/zxing/qrcode/decoder/Mode.cpp **** Mode Mode::FNC1_FIRST_POSITION(0, 0, 0, 0x05, "FNC1_FIRST_POSITION");
  43:../src/zxing_lib/zxing/qrcode/decoder/Mode.cpp **** Mode Mode::FNC1_SECOND_POSITION(0, 0, 0, 0x09, "FNC1_SECOND_POSITION");
  44:../src/zxing_lib/zxing/qrcode/decoder/Mode.cpp **** Mode Mode::HANZI(8, 10, 12, 0x0D, "HANZI");
  45:../src/zxing_lib/zxing/qrcode/decoder/Mode.cpp **** 
  46:../src/zxing_lib/zxing/qrcode/decoder/Mode.cpp **** Mode::Mode(int cbv0_9, int cbv10_26, int cbv27, int /* bits */, char const* name) :
  47:../src/zxing_lib/zxing/qrcode/decoder/Mode.cpp ****   characterCountBitsForVersions0To9_(cbv0_9), characterCountBitsForVersions10To26_(cbv10_26),
  48:../src/zxing_lib/zxing/qrcode/decoder/Mode.cpp ****   characterCountBitsForVersions27AndHigher_(cbv27), name_(name) {
  49:../src/zxing_lib/zxing/qrcode/decoder/Mode.cpp **** }
  50:../src/zxing_lib/zxing/qrcode/decoder/Mode.cpp **** 
  51:../src/zxing_lib/zxing/qrcode/decoder/Mode.cpp **** Mode& Mode::forBits(int bits) {
  52:../src/zxing_lib/zxing/qrcode/decoder/Mode.cpp ****   switch (bits) {
  53:../src/zxing_lib/zxing/qrcode/decoder/Mode.cpp ****   case 0x0:
  54:../src/zxing_lib/zxing/qrcode/decoder/Mode.cpp ****     return TERMINATOR;
  55:../src/zxing_lib/zxing/qrcode/decoder/Mode.cpp ****   case 0x1:
  56:../src/zxing_lib/zxing/qrcode/decoder/Mode.cpp ****     return NUMERIC;
  57:../src/zxing_lib/zxing/qrcode/decoder/Mode.cpp ****   case 0x2:
  58:../src/zxing_lib/zxing/qrcode/decoder/Mode.cpp ****     return ALPHANUMERIC;
  59:../src/zxing_lib/zxing/qrcode/decoder/Mode.cpp ****   case 0x3:
  60:../src/zxing_lib/zxing/qrcode/decoder/Mode.cpp ****     return STRUCTURED_APPEND;
  61:../src/zxing_lib/zxing/qrcode/decoder/Mode.cpp ****   case 0x4:
  62:../src/zxing_lib/zxing/qrcode/decoder/Mode.cpp ****     return BYTE;
  63:../src/zxing_lib/zxing/qrcode/decoder/Mode.cpp ****   case 0x5:
  64:../src/zxing_lib/zxing/qrcode/decoder/Mode.cpp ****     return FNC1_FIRST_POSITION;
  65:../src/zxing_lib/zxing/qrcode/decoder/Mode.cpp ****   case 0x7:
  66:../src/zxing_lib/zxing/qrcode/decoder/Mode.cpp ****     return ECI;
  67:../src/zxing_lib/zxing/qrcode/decoder/Mode.cpp ****   case 0x8:
  68:../src/zxing_lib/zxing/qrcode/decoder/Mode.cpp ****     return KANJI;
  69:../src/zxing_lib/zxing/qrcode/decoder/Mode.cpp ****   case 0x9:
  70:../src/zxing_lib/zxing/qrcode/decoder/Mode.cpp ****     return FNC1_SECOND_POSITION;
  71:../src/zxing_lib/zxing/qrcode/decoder/Mode.cpp ****   case 0xD:
  72:../src/zxing_lib/zxing/qrcode/decoder/Mode.cpp ****     // 0xD is defined in GBT 18284-2000, may not be supported in foreign country
  73:../src/zxing_lib/zxing/qrcode/decoder/Mode.cpp ****     return HANZI;
  74:../src/zxing_lib/zxing/qrcode/decoder/Mode.cpp ****   default:
  75:../src/zxing_lib/zxing/qrcode/decoder/Mode.cpp ****     ostringstream s;
  76:../src/zxing_lib/zxing/qrcode/decoder/Mode.cpp ****     s << "Illegal mode bits: " << bits;
  77:../src/zxing_lib/zxing/qrcode/decoder/Mode.cpp ****     throw ReaderException(s.str().c_str());
  78:../src/zxing_lib/zxing/qrcode/decoder/Mode.cpp ****   }
  79:../src/zxing_lib/zxing/qrcode/decoder/Mode.cpp **** }
  80:../src/zxing_lib/zxing/qrcode/decoder/Mode.cpp **** 
  81:../src/zxing_lib/zxing/qrcode/decoder/Mode.cpp **** int Mode::getCharacterCountBits(Version *version) {
 572              		.loc 6 81 0
 573              		.cfi_startproc
 574              		@ args = 0, pretend = 0, frame = 0
 575              		@ frame_needed = 0, uses_anonymous_args = 0
 576              	.LVL37:
 577 0000 10402DE9 		push	{r4, lr}
 578              		.save {r4, lr}
 579              		.cfi_def_cfa_offset 8
 580              		.cfi_offset 4, -8
 581              		.cfi_offset 14, -4
 582 0004 0040A0E1 		mov	r4, r0
  82:../src/zxing_lib/zxing/qrcode/decoder/Mode.cpp ****   int number = version->getVersionNumber();
 583              		.loc 6 82 0
 584 0008 0100A0E1 		mov	r0, r1
 585              	.LVL38:
 586 000c FEFFFFEB 		bl	_ZN5zxing6qrcode7Version16getVersionNumberEv
 587              	.LVL39:
  83:../src/zxing_lib/zxing/qrcode/decoder/Mode.cpp ****   if (number <= 9) {
 588              		.loc 6 83 0
 589 0010 090050E3 		cmp	r0, #9
 590 0014 030000DA 		ble	.L47
  84:../src/zxing_lib/zxing/qrcode/decoder/Mode.cpp ****     return characterCountBitsForVersions0To9_;
  85:../src/zxing_lib/zxing/qrcode/decoder/Mode.cpp ****   } else if (number <= 26) {
 591              		.loc 6 85 0
 592 0018 1A0050E3 		cmp	r0, #26
 593 001c 030000DA 		ble	.L48
  86:../src/zxing_lib/zxing/qrcode/decoder/Mode.cpp ****     return characterCountBitsForVersions10To26_;
  87:../src/zxing_lib/zxing/qrcode/decoder/Mode.cpp ****   } else {
  88:../src/zxing_lib/zxing/qrcode/decoder/Mode.cpp ****     return characterCountBitsForVersions27AndHigher_;
 594              		.loc 6 88 0
 595 0020 080094E5 		ldr	r0, [r4, #8]
 596              	.LVL40:
  89:../src/zxing_lib/zxing/qrcode/decoder/Mode.cpp ****   }
  90:../src/zxing_lib/zxing/qrcode/decoder/Mode.cpp **** }
 597              		.loc 6 90 0
 598 0024 1080BDE8 		pop	{r4, pc}
 599              	.LVL41:
 600              	.L47:
  84:../src/zxing_lib/zxing/qrcode/decoder/Mode.cpp ****   } else if (number <= 26) {
 601              		.loc 6 84 0
 602 0028 000094E5 		ldr	r0, [r4]
 603              	.LVL42:
 604 002c 1080BDE8 		pop	{r4, pc}
 605              	.LVL43:
 606              	.L48:
  86:../src/zxing_lib/zxing/qrcode/decoder/Mode.cpp ****     return characterCountBitsForVersions10To26_;
 607              		.loc 6 86 0
 608 0030 040094E5 		ldr	r0, [r4, #4]
 609              	.LVL44:
 610 0034 1080BDE8 		pop	{r4, pc}
 611              		.cfi_endproc
 612              	.LFE2308:
 613              		.fnend
 615              		.section	.text._ZNSt7__cxx1115basic_stringbufIcSt11char_traitsIcESaIcEED2Ev,"axG",%progbits,_ZNSt7
 616              		.align	2
 617              		.weak	_ZNSt7__cxx1115basic_stringbufIcSt11char_traitsIcESaIcEED2Ev
 618              		.syntax unified
 619              		.arm
 620              		.fpu neon
 622              	_ZNSt7__cxx1115basic_stringbufIcSt11char_traitsIcESaIcEED2Ev:
 623              		.fnstart
 624              	.LFB2525:
 625              		.file 7 "/home/zkmike/.local/share/renesas/e2_studio/toolchains/gcc_arm/gcc-arm-none-eabi-6-2017-q
   1:/home/zkmike/.local/share/renesas/e2_studio/toolchains/gcc_arm/gcc-arm-none-eabi-6-2017-q2-update/arm-none-eabi/include/c++/6.3.1/sstream **** // String based streams -*- C++ -*-
   2:/home/zkmike/.local/share/renesas/e2_studio/toolchains/gcc_arm/gcc-arm-none-eabi-6-2017-q2-update/arm-none-eabi/include/c++/6.3.1/sstream **** 
   3:/home/zkmike/.local/share/renesas/e2_studio/toolchains/gcc_arm/gcc-arm-none-eabi-6-2017-q2-update/arm-none-eabi/include/c++/6.3.1/sstream **** // Copyright (C) 1997-2016 Free Software Foundation, Inc.
   4:/home/zkmike/.local/share/renesas/e2_studio/toolchains/gcc_arm/gcc-arm-none-eabi-6-2017-q2-update/arm-none-eabi/include/c++/6.3.1/sstream **** //
   5:/home/zkmike/.local/share/renesas/e2_studio/toolchains/gcc_arm/gcc-arm-none-eabi-6-2017-q2-update/arm-none-eabi/include/c++/6.3.1/sstream **** // This file is part of the GNU ISO C++ Library.  This library is free
   6:/home/zkmike/.local/share/renesas/e2_studio/toolchains/gcc_arm/gcc-arm-none-eabi-6-2017-q2-update/arm-none-eabi/include/c++/6.3.1/sstream **** // software; you can redistribute it and/or modify it under the
   7:/home/zkmike/.local/share/renesas/e2_studio/toolchains/gcc_arm/gcc-arm-none-eabi-6-2017-q2-update/arm-none-eabi/include/c++/6.3.1/sstream **** // terms of the GNU General Public License as published by the
   8:/home/zkmike/.local/share/renesas/e2_studio/toolchains/gcc_arm/gcc-arm-none-eabi-6-2017-q2-update/arm-none-eabi/include/c++/6.3.1/sstream **** // Free Software Foundation; either version 3, or (at your option)
   9:/home/zkmike/.local/share/renesas/e2_studio/toolchains/gcc_arm/gcc-arm-none-eabi-6-2017-q2-update/arm-none-eabi/include/c++/6.3.1/sstream **** // any later version.
  10:/home/zkmike/.local/share/renesas/e2_studio/toolchains/gcc_arm/gcc-arm-none-eabi-6-2017-q2-update/arm-none-eabi/include/c++/6.3.1/sstream **** 
  11:/home/zkmike/.local/share/renesas/e2_studio/toolchains/gcc_arm/gcc-arm-none-eabi-6-2017-q2-update/arm-none-eabi/include/c++/6.3.1/sstream **** // This library is distributed in the hope that it will be useful,
  12:/home/zkmike/.local/share/renesas/e2_studio/toolchains/gcc_arm/gcc-arm-none-eabi-6-2017-q2-update/arm-none-eabi/include/c++/6.3.1/sstream **** // but WITHOUT ANY WARRANTY; without even the implied warranty of
  13:/home/zkmike/.local/share/renesas/e2_studio/toolchains/gcc_arm/gcc-arm-none-eabi-6-2017-q2-update/arm-none-eabi/include/c++/6.3.1/sstream **** // MERCHANTABILITY or FITNESS FOR A PARTICULAR PURPOSE.  See the
  14:/home/zkmike/.local/share/renesas/e2_studio/toolchains/gcc_arm/gcc-arm-none-eabi-6-2017-q2-update/arm-none-eabi/include/c++/6.3.1/sstream **** // GNU General Public License for more details.
  15:/home/zkmike/.local/share/renesas/e2_studio/toolchains/gcc_arm/gcc-arm-none-eabi-6-2017-q2-update/arm-none-eabi/include/c++/6.3.1/sstream **** 
  16:/home/zkmike/.local/share/renesas/e2_studio/toolchains/gcc_arm/gcc-arm-none-eabi-6-2017-q2-update/arm-none-eabi/include/c++/6.3.1/sstream **** // Under Section 7 of GPL version 3, you are granted additional
  17:/home/zkmike/.local/share/renesas/e2_studio/toolchains/gcc_arm/gcc-arm-none-eabi-6-2017-q2-update/arm-none-eabi/include/c++/6.3.1/sstream **** // permissions described in the GCC Runtime Library Exception, version
  18:/home/zkmike/.local/share/renesas/e2_studio/toolchains/gcc_arm/gcc-arm-none-eabi-6-2017-q2-update/arm-none-eabi/include/c++/6.3.1/sstream **** // 3.1, as published by the Free Software Foundation.
  19:/home/zkmike/.local/share/renesas/e2_studio/toolchains/gcc_arm/gcc-arm-none-eabi-6-2017-q2-update/arm-none-eabi/include/c++/6.3.1/sstream **** 
  20:/home/zkmike/.local/share/renesas/e2_studio/toolchains/gcc_arm/gcc-arm-none-eabi-6-2017-q2-update/arm-none-eabi/include/c++/6.3.1/sstream **** // You should have received a copy of the GNU General Public License and
  21:/home/zkmike/.local/share/renesas/e2_studio/toolchains/gcc_arm/gcc-arm-none-eabi-6-2017-q2-update/arm-none-eabi/include/c++/6.3.1/sstream **** // a copy of the GCC Runtime Library Exception along with this program;
  22:/home/zkmike/.local/share/renesas/e2_studio/toolchains/gcc_arm/gcc-arm-none-eabi-6-2017-q2-update/arm-none-eabi/include/c++/6.3.1/sstream **** // see the files COPYING3 and COPYING.RUNTIME respectively.  If not, see
  23:/home/zkmike/.local/share/renesas/e2_studio/toolchains/gcc_arm/gcc-arm-none-eabi-6-2017-q2-update/arm-none-eabi/include/c++/6.3.1/sstream **** // <http://www.gnu.org/licenses/>.
  24:/home/zkmike/.local/share/renesas/e2_studio/toolchains/gcc_arm/gcc-arm-none-eabi-6-2017-q2-update/arm-none-eabi/include/c++/6.3.1/sstream **** 
  25:/home/zkmike/.local/share/renesas/e2_studio/toolchains/gcc_arm/gcc-arm-none-eabi-6-2017-q2-update/arm-none-eabi/include/c++/6.3.1/sstream **** /** @file include/sstream
  26:/home/zkmike/.local/share/renesas/e2_studio/toolchains/gcc_arm/gcc-arm-none-eabi-6-2017-q2-update/arm-none-eabi/include/c++/6.3.1/sstream ****  *  This is a Standard C++ Library header.
  27:/home/zkmike/.local/share/renesas/e2_studio/toolchains/gcc_arm/gcc-arm-none-eabi-6-2017-q2-update/arm-none-eabi/include/c++/6.3.1/sstream ****  */
  28:/home/zkmike/.local/share/renesas/e2_studio/toolchains/gcc_arm/gcc-arm-none-eabi-6-2017-q2-update/arm-none-eabi/include/c++/6.3.1/sstream **** 
  29:/home/zkmike/.local/share/renesas/e2_studio/toolchains/gcc_arm/gcc-arm-none-eabi-6-2017-q2-update/arm-none-eabi/include/c++/6.3.1/sstream **** //
  30:/home/zkmike/.local/share/renesas/e2_studio/toolchains/gcc_arm/gcc-arm-none-eabi-6-2017-q2-update/arm-none-eabi/include/c++/6.3.1/sstream **** // ISO C++ 14882: 27.7  String-based streams
  31:/home/zkmike/.local/share/renesas/e2_studio/toolchains/gcc_arm/gcc-arm-none-eabi-6-2017-q2-update/arm-none-eabi/include/c++/6.3.1/sstream **** //
  32:/home/zkmike/.local/share/renesas/e2_studio/toolchains/gcc_arm/gcc-arm-none-eabi-6-2017-q2-update/arm-none-eabi/include/c++/6.3.1/sstream **** 
  33:/home/zkmike/.local/share/renesas/e2_studio/toolchains/gcc_arm/gcc-arm-none-eabi-6-2017-q2-update/arm-none-eabi/include/c++/6.3.1/sstream **** #ifndef _GLIBCXX_SSTREAM
  34:/home/zkmike/.local/share/renesas/e2_studio/toolchains/gcc_arm/gcc-arm-none-eabi-6-2017-q2-update/arm-none-eabi/include/c++/6.3.1/sstream **** #define _GLIBCXX_SSTREAM 1
  35:/home/zkmike/.local/share/renesas/e2_studio/toolchains/gcc_arm/gcc-arm-none-eabi-6-2017-q2-update/arm-none-eabi/include/c++/6.3.1/sstream **** 
  36:/home/zkmike/.local/share/renesas/e2_studio/toolchains/gcc_arm/gcc-arm-none-eabi-6-2017-q2-update/arm-none-eabi/include/c++/6.3.1/sstream **** #pragma GCC system_header
  37:/home/zkmike/.local/share/renesas/e2_studio/toolchains/gcc_arm/gcc-arm-none-eabi-6-2017-q2-update/arm-none-eabi/include/c++/6.3.1/sstream **** 
  38:/home/zkmike/.local/share/renesas/e2_studio/toolchains/gcc_arm/gcc-arm-none-eabi-6-2017-q2-update/arm-none-eabi/include/c++/6.3.1/sstream **** #include <istream>
  39:/home/zkmike/.local/share/renesas/e2_studio/toolchains/gcc_arm/gcc-arm-none-eabi-6-2017-q2-update/arm-none-eabi/include/c++/6.3.1/sstream **** #include <ostream>
  40:/home/zkmike/.local/share/renesas/e2_studio/toolchains/gcc_arm/gcc-arm-none-eabi-6-2017-q2-update/arm-none-eabi/include/c++/6.3.1/sstream **** 
  41:/home/zkmike/.local/share/renesas/e2_studio/toolchains/gcc_arm/gcc-arm-none-eabi-6-2017-q2-update/arm-none-eabi/include/c++/6.3.1/sstream **** namespace std _GLIBCXX_VISIBILITY(default)
  42:/home/zkmike/.local/share/renesas/e2_studio/toolchains/gcc_arm/gcc-arm-none-eabi-6-2017-q2-update/arm-none-eabi/include/c++/6.3.1/sstream **** {
  43:/home/zkmike/.local/share/renesas/e2_studio/toolchains/gcc_arm/gcc-arm-none-eabi-6-2017-q2-update/arm-none-eabi/include/c++/6.3.1/sstream **** _GLIBCXX_BEGIN_NAMESPACE_VERSION
  44:/home/zkmike/.local/share/renesas/e2_studio/toolchains/gcc_arm/gcc-arm-none-eabi-6-2017-q2-update/arm-none-eabi/include/c++/6.3.1/sstream **** _GLIBCXX_BEGIN_NAMESPACE_CXX11
  45:/home/zkmike/.local/share/renesas/e2_studio/toolchains/gcc_arm/gcc-arm-none-eabi-6-2017-q2-update/arm-none-eabi/include/c++/6.3.1/sstream **** 
  46:/home/zkmike/.local/share/renesas/e2_studio/toolchains/gcc_arm/gcc-arm-none-eabi-6-2017-q2-update/arm-none-eabi/include/c++/6.3.1/sstream ****   // [27.7.1] template class basic_stringbuf
  47:/home/zkmike/.local/share/renesas/e2_studio/toolchains/gcc_arm/gcc-arm-none-eabi-6-2017-q2-update/arm-none-eabi/include/c++/6.3.1/sstream ****   /**
  48:/home/zkmike/.local/share/renesas/e2_studio/toolchains/gcc_arm/gcc-arm-none-eabi-6-2017-q2-update/arm-none-eabi/include/c++/6.3.1/sstream ****    *  @brief  The actual work of input and output (for std::string).
  49:/home/zkmike/.local/share/renesas/e2_studio/toolchains/gcc_arm/gcc-arm-none-eabi-6-2017-q2-update/arm-none-eabi/include/c++/6.3.1/sstream ****    *  @ingroup io
  50:/home/zkmike/.local/share/renesas/e2_studio/toolchains/gcc_arm/gcc-arm-none-eabi-6-2017-q2-update/arm-none-eabi/include/c++/6.3.1/sstream ****    *
  51:/home/zkmike/.local/share/renesas/e2_studio/toolchains/gcc_arm/gcc-arm-none-eabi-6-2017-q2-update/arm-none-eabi/include/c++/6.3.1/sstream ****    *  @tparam _CharT  Type of character stream.
  52:/home/zkmike/.local/share/renesas/e2_studio/toolchains/gcc_arm/gcc-arm-none-eabi-6-2017-q2-update/arm-none-eabi/include/c++/6.3.1/sstream ****    *  @tparam _Traits  Traits for character type, defaults to
  53:/home/zkmike/.local/share/renesas/e2_studio/toolchains/gcc_arm/gcc-arm-none-eabi-6-2017-q2-update/arm-none-eabi/include/c++/6.3.1/sstream ****    *                   char_traits<_CharT>.
  54:/home/zkmike/.local/share/renesas/e2_studio/toolchains/gcc_arm/gcc-arm-none-eabi-6-2017-q2-update/arm-none-eabi/include/c++/6.3.1/sstream ****    *  @tparam _Alloc  Allocator type, defaults to allocator<_CharT>.
  55:/home/zkmike/.local/share/renesas/e2_studio/toolchains/gcc_arm/gcc-arm-none-eabi-6-2017-q2-update/arm-none-eabi/include/c++/6.3.1/sstream ****    *
  56:/home/zkmike/.local/share/renesas/e2_studio/toolchains/gcc_arm/gcc-arm-none-eabi-6-2017-q2-update/arm-none-eabi/include/c++/6.3.1/sstream ****    *  This class associates either or both of its input and output sequences
  57:/home/zkmike/.local/share/renesas/e2_studio/toolchains/gcc_arm/gcc-arm-none-eabi-6-2017-q2-update/arm-none-eabi/include/c++/6.3.1/sstream ****    *  with a sequence of characters, which can be initialized from, or made
  58:/home/zkmike/.local/share/renesas/e2_studio/toolchains/gcc_arm/gcc-arm-none-eabi-6-2017-q2-update/arm-none-eabi/include/c++/6.3.1/sstream ****    *  available as, a @c std::basic_string.  (Paraphrased from [27.7.1]/1.)
  59:/home/zkmike/.local/share/renesas/e2_studio/toolchains/gcc_arm/gcc-arm-none-eabi-6-2017-q2-update/arm-none-eabi/include/c++/6.3.1/sstream ****    *
  60:/home/zkmike/.local/share/renesas/e2_studio/toolchains/gcc_arm/gcc-arm-none-eabi-6-2017-q2-update/arm-none-eabi/include/c++/6.3.1/sstream ****    *  For this class, open modes (of type @c ios_base::openmode) have
  61:/home/zkmike/.local/share/renesas/e2_studio/toolchains/gcc_arm/gcc-arm-none-eabi-6-2017-q2-update/arm-none-eabi/include/c++/6.3.1/sstream ****    *  @c in set if the input sequence can be read, and @c out set if the
  62:/home/zkmike/.local/share/renesas/e2_studio/toolchains/gcc_arm/gcc-arm-none-eabi-6-2017-q2-update/arm-none-eabi/include/c++/6.3.1/sstream ****    *  output sequence can be written.
  63:/home/zkmike/.local/share/renesas/e2_studio/toolchains/gcc_arm/gcc-arm-none-eabi-6-2017-q2-update/arm-none-eabi/include/c++/6.3.1/sstream ****   */
  64:/home/zkmike/.local/share/renesas/e2_studio/toolchains/gcc_arm/gcc-arm-none-eabi-6-2017-q2-update/arm-none-eabi/include/c++/6.3.1/sstream ****   template<typename _CharT, typename _Traits, typename _Alloc>
  65:/home/zkmike/.local/share/renesas/e2_studio/toolchains/gcc_arm/gcc-arm-none-eabi-6-2017-q2-update/arm-none-eabi/include/c++/6.3.1/sstream ****     class basic_stringbuf : public basic_streambuf<_CharT, _Traits>
 626              		.loc 7 65 0
 627              		.cfi_startproc
 628              		@ args = 0, pretend = 0, frame = 0
 629              		@ frame_needed = 0, uses_anonymous_args = 0
 630              	.LVL45:
 631 0000 10402DE9 		push	{r4, lr}
 632              		.cfi_def_cfa_offset 8
 633              		.cfi_offset 4, -8
 634              		.cfi_offset 14, -4
 635 0004 0040A0E1 		mov	r4, r0
 636              	.LBB780:
 637              		.loc 7 65 0
 638 0008 2C309FE5 		ldr	r3, .L52
 639 000c 003080E5 		str	r3, [r0]
 640              	.LVL46:
 641              	.LBB781:
 642              	.LBB782:
 643              	.LBB783:
 644              	.LBB784:
 645              	.LBB785:
 646              	.LBB786:
 136:/home/zkmike/.local/share/renesas/e2_studio/toolchains/gcc_arm/gcc-arm-none-eabi-6-2017-q2-update/arm-none-eabi/include/c++/6.3.1/bits/basic_string.h **** 
 647              		.loc 3 136 0
 648 0010 240090E5 		ldr	r0, [r0, #36]
 649              	.LVL47:
 650              	.LBE786:
 651              	.LBE785:
 652              	.LBB787:
 653              	.LBB788:
 152:/home/zkmike/.local/share/renesas/e2_studio/toolchains/gcc_arm/gcc-arm-none-eabi-6-2017-q2-update/arm-none-eabi/include/c++/6.3.1/bits/basic_string.h **** #else
 654              		.loc 3 152 0
 655 0014 2C3084E2 		add	r3, r4, #44
 656              	.LVL48:
 657              	.LBE788:
 658              	.LBE787:
 659              	.LBE784:
 660              		.loc 3 180 0
 661 0018 030050E1 		cmp	r0, r3
 662 001c 0000000A 		beq	.L50
 663              	.LVL49:
 664              	.LBB789:
 665              	.LBB790:
 666              	.LBB791:
 667              	.LBB792:
 668              		.loc 4 110 0
 669 0020 FEFFFFEB 		bl	_ZdlPv
 670              	.LVL50:
 671              	.L50:
 672              	.LBE792:
 673              	.LBE791:
 674              	.LBE790:
 675              	.LBE789:
 676              	.LBE783:
 677              	.LBE782:
 678              	.LBE781:
 679              	.LBB793:
 680              	.LBB794:
 681              		.file 8 "/home/zkmike/.local/share/renesas/e2_studio/toolchains/gcc_arm/gcc-arm-none-eabi-6-2017-q
   1:/home/zkmike/.local/share/renesas/e2_studio/toolchains/gcc_arm/gcc-arm-none-eabi-6-2017-q2-update/arm-none-eabi/include/c++/6.3.1/streambuf **** // Stream buffer classes -*- C++ -*-
   2:/home/zkmike/.local/share/renesas/e2_studio/toolchains/gcc_arm/gcc-arm-none-eabi-6-2017-q2-update/arm-none-eabi/include/c++/6.3.1/streambuf **** 
   3:/home/zkmike/.local/share/renesas/e2_studio/toolchains/gcc_arm/gcc-arm-none-eabi-6-2017-q2-update/arm-none-eabi/include/c++/6.3.1/streambuf **** // Copyright (C) 1997-2016 Free Software Foundation, Inc.
   4:/home/zkmike/.local/share/renesas/e2_studio/toolchains/gcc_arm/gcc-arm-none-eabi-6-2017-q2-update/arm-none-eabi/include/c++/6.3.1/streambuf **** //
   5:/home/zkmike/.local/share/renesas/e2_studio/toolchains/gcc_arm/gcc-arm-none-eabi-6-2017-q2-update/arm-none-eabi/include/c++/6.3.1/streambuf **** // This file is part of the GNU ISO C++ Library.  This library is free
   6:/home/zkmike/.local/share/renesas/e2_studio/toolchains/gcc_arm/gcc-arm-none-eabi-6-2017-q2-update/arm-none-eabi/include/c++/6.3.1/streambuf **** // software; you can redistribute it and/or modify it under the
   7:/home/zkmike/.local/share/renesas/e2_studio/toolchains/gcc_arm/gcc-arm-none-eabi-6-2017-q2-update/arm-none-eabi/include/c++/6.3.1/streambuf **** // terms of the GNU General Public License as published by the
   8:/home/zkmike/.local/share/renesas/e2_studio/toolchains/gcc_arm/gcc-arm-none-eabi-6-2017-q2-update/arm-none-eabi/include/c++/6.3.1/streambuf **** // Free Software Foundation; either version 3, or (at your option)
   9:/home/zkmike/.local/share/renesas/e2_studio/toolchains/gcc_arm/gcc-arm-none-eabi-6-2017-q2-update/arm-none-eabi/include/c++/6.3.1/streambuf **** // any later version.
  10:/home/zkmike/.local/share/renesas/e2_studio/toolchains/gcc_arm/gcc-arm-none-eabi-6-2017-q2-update/arm-none-eabi/include/c++/6.3.1/streambuf **** 
  11:/home/zkmike/.local/share/renesas/e2_studio/toolchains/gcc_arm/gcc-arm-none-eabi-6-2017-q2-update/arm-none-eabi/include/c++/6.3.1/streambuf **** // This library is distributed in the hope that it will be useful,
  12:/home/zkmike/.local/share/renesas/e2_studio/toolchains/gcc_arm/gcc-arm-none-eabi-6-2017-q2-update/arm-none-eabi/include/c++/6.3.1/streambuf **** // but WITHOUT ANY WARRANTY; without even the implied warranty of
  13:/home/zkmike/.local/share/renesas/e2_studio/toolchains/gcc_arm/gcc-arm-none-eabi-6-2017-q2-update/arm-none-eabi/include/c++/6.3.1/streambuf **** // MERCHANTABILITY or FITNESS FOR A PARTICULAR PURPOSE.  See the
  14:/home/zkmike/.local/share/renesas/e2_studio/toolchains/gcc_arm/gcc-arm-none-eabi-6-2017-q2-update/arm-none-eabi/include/c++/6.3.1/streambuf **** // GNU General Public License for more details.
  15:/home/zkmike/.local/share/renesas/e2_studio/toolchains/gcc_arm/gcc-arm-none-eabi-6-2017-q2-update/arm-none-eabi/include/c++/6.3.1/streambuf **** 
  16:/home/zkmike/.local/share/renesas/e2_studio/toolchains/gcc_arm/gcc-arm-none-eabi-6-2017-q2-update/arm-none-eabi/include/c++/6.3.1/streambuf **** // Under Section 7 of GPL version 3, you are granted additional
  17:/home/zkmike/.local/share/renesas/e2_studio/toolchains/gcc_arm/gcc-arm-none-eabi-6-2017-q2-update/arm-none-eabi/include/c++/6.3.1/streambuf **** // permissions described in the GCC Runtime Library Exception, version
  18:/home/zkmike/.local/share/renesas/e2_studio/toolchains/gcc_arm/gcc-arm-none-eabi-6-2017-q2-update/arm-none-eabi/include/c++/6.3.1/streambuf **** // 3.1, as published by the Free Software Foundation.
  19:/home/zkmike/.local/share/renesas/e2_studio/toolchains/gcc_arm/gcc-arm-none-eabi-6-2017-q2-update/arm-none-eabi/include/c++/6.3.1/streambuf **** 
  20:/home/zkmike/.local/share/renesas/e2_studio/toolchains/gcc_arm/gcc-arm-none-eabi-6-2017-q2-update/arm-none-eabi/include/c++/6.3.1/streambuf **** // You should have received a copy of the GNU General Public License and
  21:/home/zkmike/.local/share/renesas/e2_studio/toolchains/gcc_arm/gcc-arm-none-eabi-6-2017-q2-update/arm-none-eabi/include/c++/6.3.1/streambuf **** // a copy of the GCC Runtime Library Exception along with this program;
  22:/home/zkmike/.local/share/renesas/e2_studio/toolchains/gcc_arm/gcc-arm-none-eabi-6-2017-q2-update/arm-none-eabi/include/c++/6.3.1/streambuf **** // see the files COPYING3 and COPYING.RUNTIME respectively.  If not, see
  23:/home/zkmike/.local/share/renesas/e2_studio/toolchains/gcc_arm/gcc-arm-none-eabi-6-2017-q2-update/arm-none-eabi/include/c++/6.3.1/streambuf **** // <http://www.gnu.org/licenses/>.
  24:/home/zkmike/.local/share/renesas/e2_studio/toolchains/gcc_arm/gcc-arm-none-eabi-6-2017-q2-update/arm-none-eabi/include/c++/6.3.1/streambuf **** 
  25:/home/zkmike/.local/share/renesas/e2_studio/toolchains/gcc_arm/gcc-arm-none-eabi-6-2017-q2-update/arm-none-eabi/include/c++/6.3.1/streambuf **** /** @file include/streambuf
  26:/home/zkmike/.local/share/renesas/e2_studio/toolchains/gcc_arm/gcc-arm-none-eabi-6-2017-q2-update/arm-none-eabi/include/c++/6.3.1/streambuf ****  *  This is a Standard C++ Library header.
  27:/home/zkmike/.local/share/renesas/e2_studio/toolchains/gcc_arm/gcc-arm-none-eabi-6-2017-q2-update/arm-none-eabi/include/c++/6.3.1/streambuf ****  */
  28:/home/zkmike/.local/share/renesas/e2_studio/toolchains/gcc_arm/gcc-arm-none-eabi-6-2017-q2-update/arm-none-eabi/include/c++/6.3.1/streambuf **** 
  29:/home/zkmike/.local/share/renesas/e2_studio/toolchains/gcc_arm/gcc-arm-none-eabi-6-2017-q2-update/arm-none-eabi/include/c++/6.3.1/streambuf **** //
  30:/home/zkmike/.local/share/renesas/e2_studio/toolchains/gcc_arm/gcc-arm-none-eabi-6-2017-q2-update/arm-none-eabi/include/c++/6.3.1/streambuf **** // ISO C++ 14882: 27.5  Stream buffers
  31:/home/zkmike/.local/share/renesas/e2_studio/toolchains/gcc_arm/gcc-arm-none-eabi-6-2017-q2-update/arm-none-eabi/include/c++/6.3.1/streambuf **** //
  32:/home/zkmike/.local/share/renesas/e2_studio/toolchains/gcc_arm/gcc-arm-none-eabi-6-2017-q2-update/arm-none-eabi/include/c++/6.3.1/streambuf **** 
  33:/home/zkmike/.local/share/renesas/e2_studio/toolchains/gcc_arm/gcc-arm-none-eabi-6-2017-q2-update/arm-none-eabi/include/c++/6.3.1/streambuf **** #ifndef _GLIBXX_STREAMBUF
  34:/home/zkmike/.local/share/renesas/e2_studio/toolchains/gcc_arm/gcc-arm-none-eabi-6-2017-q2-update/arm-none-eabi/include/c++/6.3.1/streambuf **** #define _GLIBXX_STREAMBUF 1
  35:/home/zkmike/.local/share/renesas/e2_studio/toolchains/gcc_arm/gcc-arm-none-eabi-6-2017-q2-update/arm-none-eabi/include/c++/6.3.1/streambuf **** 
  36:/home/zkmike/.local/share/renesas/e2_studio/toolchains/gcc_arm/gcc-arm-none-eabi-6-2017-q2-update/arm-none-eabi/include/c++/6.3.1/streambuf **** #pragma GCC system_header
  37:/home/zkmike/.local/share/renesas/e2_studio/toolchains/gcc_arm/gcc-arm-none-eabi-6-2017-q2-update/arm-none-eabi/include/c++/6.3.1/streambuf **** 
  38:/home/zkmike/.local/share/renesas/e2_studio/toolchains/gcc_arm/gcc-arm-none-eabi-6-2017-q2-update/arm-none-eabi/include/c++/6.3.1/streambuf **** #include <bits/c++config.h>
  39:/home/zkmike/.local/share/renesas/e2_studio/toolchains/gcc_arm/gcc-arm-none-eabi-6-2017-q2-update/arm-none-eabi/include/c++/6.3.1/streambuf **** #include <iosfwd>
  40:/home/zkmike/.local/share/renesas/e2_studio/toolchains/gcc_arm/gcc-arm-none-eabi-6-2017-q2-update/arm-none-eabi/include/c++/6.3.1/streambuf **** #include <bits/localefwd.h>
  41:/home/zkmike/.local/share/renesas/e2_studio/toolchains/gcc_arm/gcc-arm-none-eabi-6-2017-q2-update/arm-none-eabi/include/c++/6.3.1/streambuf **** #include <bits/ios_base.h>
  42:/home/zkmike/.local/share/renesas/e2_studio/toolchains/gcc_arm/gcc-arm-none-eabi-6-2017-q2-update/arm-none-eabi/include/c++/6.3.1/streambuf **** #include <bits/cpp_type_traits.h>
  43:/home/zkmike/.local/share/renesas/e2_studio/toolchains/gcc_arm/gcc-arm-none-eabi-6-2017-q2-update/arm-none-eabi/include/c++/6.3.1/streambuf **** #include <ext/type_traits.h>
  44:/home/zkmike/.local/share/renesas/e2_studio/toolchains/gcc_arm/gcc-arm-none-eabi-6-2017-q2-update/arm-none-eabi/include/c++/6.3.1/streambuf **** 
  45:/home/zkmike/.local/share/renesas/e2_studio/toolchains/gcc_arm/gcc-arm-none-eabi-6-2017-q2-update/arm-none-eabi/include/c++/6.3.1/streambuf **** namespace std _GLIBCXX_VISIBILITY(default)
  46:/home/zkmike/.local/share/renesas/e2_studio/toolchains/gcc_arm/gcc-arm-none-eabi-6-2017-q2-update/arm-none-eabi/include/c++/6.3.1/streambuf **** {
  47:/home/zkmike/.local/share/renesas/e2_studio/toolchains/gcc_arm/gcc-arm-none-eabi-6-2017-q2-update/arm-none-eabi/include/c++/6.3.1/streambuf **** _GLIBCXX_BEGIN_NAMESPACE_VERSION
  48:/home/zkmike/.local/share/renesas/e2_studio/toolchains/gcc_arm/gcc-arm-none-eabi-6-2017-q2-update/arm-none-eabi/include/c++/6.3.1/streambuf **** 
  49:/home/zkmike/.local/share/renesas/e2_studio/toolchains/gcc_arm/gcc-arm-none-eabi-6-2017-q2-update/arm-none-eabi/include/c++/6.3.1/streambuf ****   template<typename _CharT, typename _Traits>
  50:/home/zkmike/.local/share/renesas/e2_studio/toolchains/gcc_arm/gcc-arm-none-eabi-6-2017-q2-update/arm-none-eabi/include/c++/6.3.1/streambuf ****     streamsize
  51:/home/zkmike/.local/share/renesas/e2_studio/toolchains/gcc_arm/gcc-arm-none-eabi-6-2017-q2-update/arm-none-eabi/include/c++/6.3.1/streambuf ****     __copy_streambufs_eof(basic_streambuf<_CharT, _Traits>*,
  52:/home/zkmike/.local/share/renesas/e2_studio/toolchains/gcc_arm/gcc-arm-none-eabi-6-2017-q2-update/arm-none-eabi/include/c++/6.3.1/streambuf **** 			  basic_streambuf<_CharT, _Traits>*, bool&);
  53:/home/zkmike/.local/share/renesas/e2_studio/toolchains/gcc_arm/gcc-arm-none-eabi-6-2017-q2-update/arm-none-eabi/include/c++/6.3.1/streambuf **** 
  54:/home/zkmike/.local/share/renesas/e2_studio/toolchains/gcc_arm/gcc-arm-none-eabi-6-2017-q2-update/arm-none-eabi/include/c++/6.3.1/streambuf ****   /**
  55:/home/zkmike/.local/share/renesas/e2_studio/toolchains/gcc_arm/gcc-arm-none-eabi-6-2017-q2-update/arm-none-eabi/include/c++/6.3.1/streambuf ****    *  @brief  The actual work of input and output (interface).
  56:/home/zkmike/.local/share/renesas/e2_studio/toolchains/gcc_arm/gcc-arm-none-eabi-6-2017-q2-update/arm-none-eabi/include/c++/6.3.1/streambuf ****    *  @ingroup io
  57:/home/zkmike/.local/share/renesas/e2_studio/toolchains/gcc_arm/gcc-arm-none-eabi-6-2017-q2-update/arm-none-eabi/include/c++/6.3.1/streambuf ****    *
  58:/home/zkmike/.local/share/renesas/e2_studio/toolchains/gcc_arm/gcc-arm-none-eabi-6-2017-q2-update/arm-none-eabi/include/c++/6.3.1/streambuf ****    *  @tparam _CharT  Type of character stream.
  59:/home/zkmike/.local/share/renesas/e2_studio/toolchains/gcc_arm/gcc-arm-none-eabi-6-2017-q2-update/arm-none-eabi/include/c++/6.3.1/streambuf ****    *  @tparam _Traits  Traits for character type, defaults to
  60:/home/zkmike/.local/share/renesas/e2_studio/toolchains/gcc_arm/gcc-arm-none-eabi-6-2017-q2-update/arm-none-eabi/include/c++/6.3.1/streambuf ****    *                   char_traits<_CharT>.
  61:/home/zkmike/.local/share/renesas/e2_studio/toolchains/gcc_arm/gcc-arm-none-eabi-6-2017-q2-update/arm-none-eabi/include/c++/6.3.1/streambuf ****    *
  62:/home/zkmike/.local/share/renesas/e2_studio/toolchains/gcc_arm/gcc-arm-none-eabi-6-2017-q2-update/arm-none-eabi/include/c++/6.3.1/streambuf ****    *  This is a base class.  Derived stream buffers each control a
  63:/home/zkmike/.local/share/renesas/e2_studio/toolchains/gcc_arm/gcc-arm-none-eabi-6-2017-q2-update/arm-none-eabi/include/c++/6.3.1/streambuf ****    *  pair of character sequences:  one for input, and one for output.
  64:/home/zkmike/.local/share/renesas/e2_studio/toolchains/gcc_arm/gcc-arm-none-eabi-6-2017-q2-update/arm-none-eabi/include/c++/6.3.1/streambuf ****    *
  65:/home/zkmike/.local/share/renesas/e2_studio/toolchains/gcc_arm/gcc-arm-none-eabi-6-2017-q2-update/arm-none-eabi/include/c++/6.3.1/streambuf ****    *  Section [27.5.1] of the standard describes the requirements and
  66:/home/zkmike/.local/share/renesas/e2_studio/toolchains/gcc_arm/gcc-arm-none-eabi-6-2017-q2-update/arm-none-eabi/include/c++/6.3.1/streambuf ****    *  behavior of stream buffer classes.  That section (three paragraphs)
  67:/home/zkmike/.local/share/renesas/e2_studio/toolchains/gcc_arm/gcc-arm-none-eabi-6-2017-q2-update/arm-none-eabi/include/c++/6.3.1/streambuf ****    *  is reproduced here, for simplicity and accuracy.
  68:/home/zkmike/.local/share/renesas/e2_studio/toolchains/gcc_arm/gcc-arm-none-eabi-6-2017-q2-update/arm-none-eabi/include/c++/6.3.1/streambuf ****    *
  69:/home/zkmike/.local/share/renesas/e2_studio/toolchains/gcc_arm/gcc-arm-none-eabi-6-2017-q2-update/arm-none-eabi/include/c++/6.3.1/streambuf ****    *  -# Stream buffers can impose various constraints on the sequences
  70:/home/zkmike/.local/share/renesas/e2_studio/toolchains/gcc_arm/gcc-arm-none-eabi-6-2017-q2-update/arm-none-eabi/include/c++/6.3.1/streambuf ****    *     they control.  Some constraints are:
  71:/home/zkmike/.local/share/renesas/e2_studio/toolchains/gcc_arm/gcc-arm-none-eabi-6-2017-q2-update/arm-none-eabi/include/c++/6.3.1/streambuf ****    *     - The controlled input sequence can be not readable.
  72:/home/zkmike/.local/share/renesas/e2_studio/toolchains/gcc_arm/gcc-arm-none-eabi-6-2017-q2-update/arm-none-eabi/include/c++/6.3.1/streambuf ****    *     - The controlled output sequence can be not writable.
  73:/home/zkmike/.local/share/renesas/e2_studio/toolchains/gcc_arm/gcc-arm-none-eabi-6-2017-q2-update/arm-none-eabi/include/c++/6.3.1/streambuf ****    *     - The controlled sequences can be associated with the contents of
  74:/home/zkmike/.local/share/renesas/e2_studio/toolchains/gcc_arm/gcc-arm-none-eabi-6-2017-q2-update/arm-none-eabi/include/c++/6.3.1/streambuf ****    *       other representations for character sequences, such as external
  75:/home/zkmike/.local/share/renesas/e2_studio/toolchains/gcc_arm/gcc-arm-none-eabi-6-2017-q2-update/arm-none-eabi/include/c++/6.3.1/streambuf ****    *       files.
  76:/home/zkmike/.local/share/renesas/e2_studio/toolchains/gcc_arm/gcc-arm-none-eabi-6-2017-q2-update/arm-none-eabi/include/c++/6.3.1/streambuf ****    *     - The controlled sequences can support operations @e directly to or
  77:/home/zkmike/.local/share/renesas/e2_studio/toolchains/gcc_arm/gcc-arm-none-eabi-6-2017-q2-update/arm-none-eabi/include/c++/6.3.1/streambuf ****    *       from associated sequences.
  78:/home/zkmike/.local/share/renesas/e2_studio/toolchains/gcc_arm/gcc-arm-none-eabi-6-2017-q2-update/arm-none-eabi/include/c++/6.3.1/streambuf ****    *     - The controlled sequences can impose limitations on how the
  79:/home/zkmike/.local/share/renesas/e2_studio/toolchains/gcc_arm/gcc-arm-none-eabi-6-2017-q2-update/arm-none-eabi/include/c++/6.3.1/streambuf ****    *       program can read characters from a sequence, write characters to
  80:/home/zkmike/.local/share/renesas/e2_studio/toolchains/gcc_arm/gcc-arm-none-eabi-6-2017-q2-update/arm-none-eabi/include/c++/6.3.1/streambuf ****    *       a sequence, put characters back into an input sequence, or alter
  81:/home/zkmike/.local/share/renesas/e2_studio/toolchains/gcc_arm/gcc-arm-none-eabi-6-2017-q2-update/arm-none-eabi/include/c++/6.3.1/streambuf ****    *       the stream position.
  82:/home/zkmike/.local/share/renesas/e2_studio/toolchains/gcc_arm/gcc-arm-none-eabi-6-2017-q2-update/arm-none-eabi/include/c++/6.3.1/streambuf ****    *     .
  83:/home/zkmike/.local/share/renesas/e2_studio/toolchains/gcc_arm/gcc-arm-none-eabi-6-2017-q2-update/arm-none-eabi/include/c++/6.3.1/streambuf ****    *  -# Each sequence is characterized by three pointers which, if non-null,
  84:/home/zkmike/.local/share/renesas/e2_studio/toolchains/gcc_arm/gcc-arm-none-eabi-6-2017-q2-update/arm-none-eabi/include/c++/6.3.1/streambuf ****    *     all point into the same @c charT array object.  The array object
  85:/home/zkmike/.local/share/renesas/e2_studio/toolchains/gcc_arm/gcc-arm-none-eabi-6-2017-q2-update/arm-none-eabi/include/c++/6.3.1/streambuf ****    *     represents, at any moment, a (sub)sequence of characters from the
  86:/home/zkmike/.local/share/renesas/e2_studio/toolchains/gcc_arm/gcc-arm-none-eabi-6-2017-q2-update/arm-none-eabi/include/c++/6.3.1/streambuf ****    *     sequence.  Operations performed on a sequence alter the values
  87:/home/zkmike/.local/share/renesas/e2_studio/toolchains/gcc_arm/gcc-arm-none-eabi-6-2017-q2-update/arm-none-eabi/include/c++/6.3.1/streambuf ****    *     stored in these pointers, perform reads and writes directly to or
  88:/home/zkmike/.local/share/renesas/e2_studio/toolchains/gcc_arm/gcc-arm-none-eabi-6-2017-q2-update/arm-none-eabi/include/c++/6.3.1/streambuf ****    *     from associated sequences, and alter <em>the stream position</em> and
  89:/home/zkmike/.local/share/renesas/e2_studio/toolchains/gcc_arm/gcc-arm-none-eabi-6-2017-q2-update/arm-none-eabi/include/c++/6.3.1/streambuf ****    *     conversion state as needed to maintain this subsequence relationship.
  90:/home/zkmike/.local/share/renesas/e2_studio/toolchains/gcc_arm/gcc-arm-none-eabi-6-2017-q2-update/arm-none-eabi/include/c++/6.3.1/streambuf ****    *     The three pointers are:
  91:/home/zkmike/.local/share/renesas/e2_studio/toolchains/gcc_arm/gcc-arm-none-eabi-6-2017-q2-update/arm-none-eabi/include/c++/6.3.1/streambuf ****    *     - the <em>beginning pointer</em>, or lowest element address in the
  92:/home/zkmike/.local/share/renesas/e2_studio/toolchains/gcc_arm/gcc-arm-none-eabi-6-2017-q2-update/arm-none-eabi/include/c++/6.3.1/streambuf ****    *       array (called @e xbeg here);
  93:/home/zkmike/.local/share/renesas/e2_studio/toolchains/gcc_arm/gcc-arm-none-eabi-6-2017-q2-update/arm-none-eabi/include/c++/6.3.1/streambuf ****    *     - the <em>next pointer</em>, or next element address that is a
  94:/home/zkmike/.local/share/renesas/e2_studio/toolchains/gcc_arm/gcc-arm-none-eabi-6-2017-q2-update/arm-none-eabi/include/c++/6.3.1/streambuf ****    *       current candidate for reading or writing (called @e xnext here);
  95:/home/zkmike/.local/share/renesas/e2_studio/toolchains/gcc_arm/gcc-arm-none-eabi-6-2017-q2-update/arm-none-eabi/include/c++/6.3.1/streambuf ****    *     - the <em>end pointer</em>, or first element address beyond the
  96:/home/zkmike/.local/share/renesas/e2_studio/toolchains/gcc_arm/gcc-arm-none-eabi-6-2017-q2-update/arm-none-eabi/include/c++/6.3.1/streambuf ****    *       end of the array (called @e xend here).
  97:/home/zkmike/.local/share/renesas/e2_studio/toolchains/gcc_arm/gcc-arm-none-eabi-6-2017-q2-update/arm-none-eabi/include/c++/6.3.1/streambuf ****    *     .
  98:/home/zkmike/.local/share/renesas/e2_studio/toolchains/gcc_arm/gcc-arm-none-eabi-6-2017-q2-update/arm-none-eabi/include/c++/6.3.1/streambuf ****    *  -# The following semantic constraints shall always apply for any set
  99:/home/zkmike/.local/share/renesas/e2_studio/toolchains/gcc_arm/gcc-arm-none-eabi-6-2017-q2-update/arm-none-eabi/include/c++/6.3.1/streambuf ****    *     of three pointers for a sequence, using the pointer names given
 100:/home/zkmike/.local/share/renesas/e2_studio/toolchains/gcc_arm/gcc-arm-none-eabi-6-2017-q2-update/arm-none-eabi/include/c++/6.3.1/streambuf ****    *     immediately above:
 101:/home/zkmike/.local/share/renesas/e2_studio/toolchains/gcc_arm/gcc-arm-none-eabi-6-2017-q2-update/arm-none-eabi/include/c++/6.3.1/streambuf ****    *     - If @e xnext is not a null pointer, then @e xbeg and @e xend shall
 102:/home/zkmike/.local/share/renesas/e2_studio/toolchains/gcc_arm/gcc-arm-none-eabi-6-2017-q2-update/arm-none-eabi/include/c++/6.3.1/streambuf ****    *       also be non-null pointers into the same @c charT array, as
 103:/home/zkmike/.local/share/renesas/e2_studio/toolchains/gcc_arm/gcc-arm-none-eabi-6-2017-q2-update/arm-none-eabi/include/c++/6.3.1/streambuf ****    *       described above; otherwise, @e xbeg and @e xend shall also be null.
 104:/home/zkmike/.local/share/renesas/e2_studio/toolchains/gcc_arm/gcc-arm-none-eabi-6-2017-q2-update/arm-none-eabi/include/c++/6.3.1/streambuf ****    *     - If @e xnext is not a null pointer and @e xnext < @e xend for an
 105:/home/zkmike/.local/share/renesas/e2_studio/toolchains/gcc_arm/gcc-arm-none-eabi-6-2017-q2-update/arm-none-eabi/include/c++/6.3.1/streambuf ****    *       output sequence, then a <em>write position</em> is available.
 106:/home/zkmike/.local/share/renesas/e2_studio/toolchains/gcc_arm/gcc-arm-none-eabi-6-2017-q2-update/arm-none-eabi/include/c++/6.3.1/streambuf ****    *       In this case, @e *xnext shall be assignable as the next element
 107:/home/zkmike/.local/share/renesas/e2_studio/toolchains/gcc_arm/gcc-arm-none-eabi-6-2017-q2-update/arm-none-eabi/include/c++/6.3.1/streambuf ****    *       to write (to put, or to store a character value, into the sequence).
 108:/home/zkmike/.local/share/renesas/e2_studio/toolchains/gcc_arm/gcc-arm-none-eabi-6-2017-q2-update/arm-none-eabi/include/c++/6.3.1/streambuf ****    *     - If @e xnext is not a null pointer and @e xbeg < @e xnext for an
 109:/home/zkmike/.local/share/renesas/e2_studio/toolchains/gcc_arm/gcc-arm-none-eabi-6-2017-q2-update/arm-none-eabi/include/c++/6.3.1/streambuf ****    *       input sequence, then a <em>putback position</em> is available.
 110:/home/zkmike/.local/share/renesas/e2_studio/toolchains/gcc_arm/gcc-arm-none-eabi-6-2017-q2-update/arm-none-eabi/include/c++/6.3.1/streambuf ****    *       In this case, @e xnext[-1] shall have a defined value and is the
 111:/home/zkmike/.local/share/renesas/e2_studio/toolchains/gcc_arm/gcc-arm-none-eabi-6-2017-q2-update/arm-none-eabi/include/c++/6.3.1/streambuf ****    *       next (preceding) element to store a character that is put back
 112:/home/zkmike/.local/share/renesas/e2_studio/toolchains/gcc_arm/gcc-arm-none-eabi-6-2017-q2-update/arm-none-eabi/include/c++/6.3.1/streambuf ****    *       into the input sequence.
 113:/home/zkmike/.local/share/renesas/e2_studio/toolchains/gcc_arm/gcc-arm-none-eabi-6-2017-q2-update/arm-none-eabi/include/c++/6.3.1/streambuf ****    *     - If @e xnext is not a null pointer and @e xnext< @e xend for an
 114:/home/zkmike/.local/share/renesas/e2_studio/toolchains/gcc_arm/gcc-arm-none-eabi-6-2017-q2-update/arm-none-eabi/include/c++/6.3.1/streambuf ****    *       input sequence, then a <em>read position</em> is available.
 115:/home/zkmike/.local/share/renesas/e2_studio/toolchains/gcc_arm/gcc-arm-none-eabi-6-2017-q2-update/arm-none-eabi/include/c++/6.3.1/streambuf ****    *       In this case, @e *xnext shall have a defined value and is the
 116:/home/zkmike/.local/share/renesas/e2_studio/toolchains/gcc_arm/gcc-arm-none-eabi-6-2017-q2-update/arm-none-eabi/include/c++/6.3.1/streambuf ****    *       next element to read (to get, or to obtain a character value,
 117:/home/zkmike/.local/share/renesas/e2_studio/toolchains/gcc_arm/gcc-arm-none-eabi-6-2017-q2-update/arm-none-eabi/include/c++/6.3.1/streambuf ****    *       from the sequence).
 118:/home/zkmike/.local/share/renesas/e2_studio/toolchains/gcc_arm/gcc-arm-none-eabi-6-2017-q2-update/arm-none-eabi/include/c++/6.3.1/streambuf ****   */
 119:/home/zkmike/.local/share/renesas/e2_studio/toolchains/gcc_arm/gcc-arm-none-eabi-6-2017-q2-update/arm-none-eabi/include/c++/6.3.1/streambuf ****   template<typename _CharT, typename _Traits>
 120:/home/zkmike/.local/share/renesas/e2_studio/toolchains/gcc_arm/gcc-arm-none-eabi-6-2017-q2-update/arm-none-eabi/include/c++/6.3.1/streambuf ****     class basic_streambuf
 121:/home/zkmike/.local/share/renesas/e2_studio/toolchains/gcc_arm/gcc-arm-none-eabi-6-2017-q2-update/arm-none-eabi/include/c++/6.3.1/streambuf ****     {
 122:/home/zkmike/.local/share/renesas/e2_studio/toolchains/gcc_arm/gcc-arm-none-eabi-6-2017-q2-update/arm-none-eabi/include/c++/6.3.1/streambuf ****     public:
 123:/home/zkmike/.local/share/renesas/e2_studio/toolchains/gcc_arm/gcc-arm-none-eabi-6-2017-q2-update/arm-none-eabi/include/c++/6.3.1/streambuf ****       //@{
 124:/home/zkmike/.local/share/renesas/e2_studio/toolchains/gcc_arm/gcc-arm-none-eabi-6-2017-q2-update/arm-none-eabi/include/c++/6.3.1/streambuf ****       /**
 125:/home/zkmike/.local/share/renesas/e2_studio/toolchains/gcc_arm/gcc-arm-none-eabi-6-2017-q2-update/arm-none-eabi/include/c++/6.3.1/streambuf ****        *  These are standard types.  They permit a standardized way of
 126:/home/zkmike/.local/share/renesas/e2_studio/toolchains/gcc_arm/gcc-arm-none-eabi-6-2017-q2-update/arm-none-eabi/include/c++/6.3.1/streambuf ****        *  referring to names of (or names dependent on) the template
 127:/home/zkmike/.local/share/renesas/e2_studio/toolchains/gcc_arm/gcc-arm-none-eabi-6-2017-q2-update/arm-none-eabi/include/c++/6.3.1/streambuf ****        *  parameters, which are specific to the implementation.
 128:/home/zkmike/.local/share/renesas/e2_studio/toolchains/gcc_arm/gcc-arm-none-eabi-6-2017-q2-update/arm-none-eabi/include/c++/6.3.1/streambuf ****       */
 129:/home/zkmike/.local/share/renesas/e2_studio/toolchains/gcc_arm/gcc-arm-none-eabi-6-2017-q2-update/arm-none-eabi/include/c++/6.3.1/streambuf ****       typedef _CharT 					char_type;
 130:/home/zkmike/.local/share/renesas/e2_studio/toolchains/gcc_arm/gcc-arm-none-eabi-6-2017-q2-update/arm-none-eabi/include/c++/6.3.1/streambuf ****       typedef _Traits 					traits_type;
 131:/home/zkmike/.local/share/renesas/e2_studio/toolchains/gcc_arm/gcc-arm-none-eabi-6-2017-q2-update/arm-none-eabi/include/c++/6.3.1/streambuf ****       typedef typename traits_type::int_type 		int_type;
 132:/home/zkmike/.local/share/renesas/e2_studio/toolchains/gcc_arm/gcc-arm-none-eabi-6-2017-q2-update/arm-none-eabi/include/c++/6.3.1/streambuf ****       typedef typename traits_type::pos_type 		pos_type;
 133:/home/zkmike/.local/share/renesas/e2_studio/toolchains/gcc_arm/gcc-arm-none-eabi-6-2017-q2-update/arm-none-eabi/include/c++/6.3.1/streambuf ****       typedef typename traits_type::off_type 		off_type;
 134:/home/zkmike/.local/share/renesas/e2_studio/toolchains/gcc_arm/gcc-arm-none-eabi-6-2017-q2-update/arm-none-eabi/include/c++/6.3.1/streambuf ****       //@}
 135:/home/zkmike/.local/share/renesas/e2_studio/toolchains/gcc_arm/gcc-arm-none-eabi-6-2017-q2-update/arm-none-eabi/include/c++/6.3.1/streambuf **** 
 136:/home/zkmike/.local/share/renesas/e2_studio/toolchains/gcc_arm/gcc-arm-none-eabi-6-2017-q2-update/arm-none-eabi/include/c++/6.3.1/streambuf ****       //@{
 137:/home/zkmike/.local/share/renesas/e2_studio/toolchains/gcc_arm/gcc-arm-none-eabi-6-2017-q2-update/arm-none-eabi/include/c++/6.3.1/streambuf ****       /// This is a non-standard type.
 138:/home/zkmike/.local/share/renesas/e2_studio/toolchains/gcc_arm/gcc-arm-none-eabi-6-2017-q2-update/arm-none-eabi/include/c++/6.3.1/streambuf ****       typedef basic_streambuf<char_type, traits_type>  	__streambuf_type;
 139:/home/zkmike/.local/share/renesas/e2_studio/toolchains/gcc_arm/gcc-arm-none-eabi-6-2017-q2-update/arm-none-eabi/include/c++/6.3.1/streambuf ****       //@}
 140:/home/zkmike/.local/share/renesas/e2_studio/toolchains/gcc_arm/gcc-arm-none-eabi-6-2017-q2-update/arm-none-eabi/include/c++/6.3.1/streambuf **** 
 141:/home/zkmike/.local/share/renesas/e2_studio/toolchains/gcc_arm/gcc-arm-none-eabi-6-2017-q2-update/arm-none-eabi/include/c++/6.3.1/streambuf ****       friend class basic_ios<char_type, traits_type>;
 142:/home/zkmike/.local/share/renesas/e2_studio/toolchains/gcc_arm/gcc-arm-none-eabi-6-2017-q2-update/arm-none-eabi/include/c++/6.3.1/streambuf ****       friend class basic_istream<char_type, traits_type>;
 143:/home/zkmike/.local/share/renesas/e2_studio/toolchains/gcc_arm/gcc-arm-none-eabi-6-2017-q2-update/arm-none-eabi/include/c++/6.3.1/streambuf ****       friend class basic_ostream<char_type, traits_type>;
 144:/home/zkmike/.local/share/renesas/e2_studio/toolchains/gcc_arm/gcc-arm-none-eabi-6-2017-q2-update/arm-none-eabi/include/c++/6.3.1/streambuf ****       friend class istreambuf_iterator<char_type, traits_type>;
 145:/home/zkmike/.local/share/renesas/e2_studio/toolchains/gcc_arm/gcc-arm-none-eabi-6-2017-q2-update/arm-none-eabi/include/c++/6.3.1/streambuf ****       friend class ostreambuf_iterator<char_type, traits_type>;
 146:/home/zkmike/.local/share/renesas/e2_studio/toolchains/gcc_arm/gcc-arm-none-eabi-6-2017-q2-update/arm-none-eabi/include/c++/6.3.1/streambuf **** 
 147:/home/zkmike/.local/share/renesas/e2_studio/toolchains/gcc_arm/gcc-arm-none-eabi-6-2017-q2-update/arm-none-eabi/include/c++/6.3.1/streambuf ****       friend streamsize
 148:/home/zkmike/.local/share/renesas/e2_studio/toolchains/gcc_arm/gcc-arm-none-eabi-6-2017-q2-update/arm-none-eabi/include/c++/6.3.1/streambuf ****       __copy_streambufs_eof<>(basic_streambuf*, basic_streambuf*, bool&);
 149:/home/zkmike/.local/share/renesas/e2_studio/toolchains/gcc_arm/gcc-arm-none-eabi-6-2017-q2-update/arm-none-eabi/include/c++/6.3.1/streambuf **** 
 150:/home/zkmike/.local/share/renesas/e2_studio/toolchains/gcc_arm/gcc-arm-none-eabi-6-2017-q2-update/arm-none-eabi/include/c++/6.3.1/streambuf ****       template<bool _IsMove, typename _CharT2>
 151:/home/zkmike/.local/share/renesas/e2_studio/toolchains/gcc_arm/gcc-arm-none-eabi-6-2017-q2-update/arm-none-eabi/include/c++/6.3.1/streambuf ****         friend typename __gnu_cxx::__enable_if<__is_char<_CharT2>::__value,
 152:/home/zkmike/.local/share/renesas/e2_studio/toolchains/gcc_arm/gcc-arm-none-eabi-6-2017-q2-update/arm-none-eabi/include/c++/6.3.1/streambuf **** 					       _CharT2*>::__type
 153:/home/zkmike/.local/share/renesas/e2_studio/toolchains/gcc_arm/gcc-arm-none-eabi-6-2017-q2-update/arm-none-eabi/include/c++/6.3.1/streambuf ****         __copy_move_a2(istreambuf_iterator<_CharT2>,
 154:/home/zkmike/.local/share/renesas/e2_studio/toolchains/gcc_arm/gcc-arm-none-eabi-6-2017-q2-update/arm-none-eabi/include/c++/6.3.1/streambuf **** 		       istreambuf_iterator<_CharT2>, _CharT2*);
 155:/home/zkmike/.local/share/renesas/e2_studio/toolchains/gcc_arm/gcc-arm-none-eabi-6-2017-q2-update/arm-none-eabi/include/c++/6.3.1/streambuf **** 
 156:/home/zkmike/.local/share/renesas/e2_studio/toolchains/gcc_arm/gcc-arm-none-eabi-6-2017-q2-update/arm-none-eabi/include/c++/6.3.1/streambuf ****       template<typename _CharT2>
 157:/home/zkmike/.local/share/renesas/e2_studio/toolchains/gcc_arm/gcc-arm-none-eabi-6-2017-q2-update/arm-none-eabi/include/c++/6.3.1/streambuf ****         friend typename __gnu_cxx::__enable_if<__is_char<_CharT2>::__value,
 158:/home/zkmike/.local/share/renesas/e2_studio/toolchains/gcc_arm/gcc-arm-none-eabi-6-2017-q2-update/arm-none-eabi/include/c++/6.3.1/streambuf **** 				  istreambuf_iterator<_CharT2> >::__type
 159:/home/zkmike/.local/share/renesas/e2_studio/toolchains/gcc_arm/gcc-arm-none-eabi-6-2017-q2-update/arm-none-eabi/include/c++/6.3.1/streambuf ****         find(istreambuf_iterator<_CharT2>, istreambuf_iterator<_CharT2>,
 160:/home/zkmike/.local/share/renesas/e2_studio/toolchains/gcc_arm/gcc-arm-none-eabi-6-2017-q2-update/arm-none-eabi/include/c++/6.3.1/streambuf **** 	     const _CharT2&);
 161:/home/zkmike/.local/share/renesas/e2_studio/toolchains/gcc_arm/gcc-arm-none-eabi-6-2017-q2-update/arm-none-eabi/include/c++/6.3.1/streambuf **** 
 162:/home/zkmike/.local/share/renesas/e2_studio/toolchains/gcc_arm/gcc-arm-none-eabi-6-2017-q2-update/arm-none-eabi/include/c++/6.3.1/streambuf ****       template<typename _CharT2, typename _Traits2>
 163:/home/zkmike/.local/share/renesas/e2_studio/toolchains/gcc_arm/gcc-arm-none-eabi-6-2017-q2-update/arm-none-eabi/include/c++/6.3.1/streambuf ****         friend basic_istream<_CharT2, _Traits2>&
 164:/home/zkmike/.local/share/renesas/e2_studio/toolchains/gcc_arm/gcc-arm-none-eabi-6-2017-q2-update/arm-none-eabi/include/c++/6.3.1/streambuf ****         operator>>(basic_istream<_CharT2, _Traits2>&, _CharT2*);
 165:/home/zkmike/.local/share/renesas/e2_studio/toolchains/gcc_arm/gcc-arm-none-eabi-6-2017-q2-update/arm-none-eabi/include/c++/6.3.1/streambuf **** 
 166:/home/zkmike/.local/share/renesas/e2_studio/toolchains/gcc_arm/gcc-arm-none-eabi-6-2017-q2-update/arm-none-eabi/include/c++/6.3.1/streambuf ****       template<typename _CharT2, typename _Traits2, typename _Alloc>
 167:/home/zkmike/.local/share/renesas/e2_studio/toolchains/gcc_arm/gcc-arm-none-eabi-6-2017-q2-update/arm-none-eabi/include/c++/6.3.1/streambuf ****         friend basic_istream<_CharT2, _Traits2>&
 168:/home/zkmike/.local/share/renesas/e2_studio/toolchains/gcc_arm/gcc-arm-none-eabi-6-2017-q2-update/arm-none-eabi/include/c++/6.3.1/streambuf ****         operator>>(basic_istream<_CharT2, _Traits2>&,
 169:/home/zkmike/.local/share/renesas/e2_studio/toolchains/gcc_arm/gcc-arm-none-eabi-6-2017-q2-update/arm-none-eabi/include/c++/6.3.1/streambuf **** 		   basic_string<_CharT2, _Traits2, _Alloc>&);
 170:/home/zkmike/.local/share/renesas/e2_studio/toolchains/gcc_arm/gcc-arm-none-eabi-6-2017-q2-update/arm-none-eabi/include/c++/6.3.1/streambuf **** 
 171:/home/zkmike/.local/share/renesas/e2_studio/toolchains/gcc_arm/gcc-arm-none-eabi-6-2017-q2-update/arm-none-eabi/include/c++/6.3.1/streambuf ****       template<typename _CharT2, typename _Traits2, typename _Alloc>
 172:/home/zkmike/.local/share/renesas/e2_studio/toolchains/gcc_arm/gcc-arm-none-eabi-6-2017-q2-update/arm-none-eabi/include/c++/6.3.1/streambuf ****         friend basic_istream<_CharT2, _Traits2>&
 173:/home/zkmike/.local/share/renesas/e2_studio/toolchains/gcc_arm/gcc-arm-none-eabi-6-2017-q2-update/arm-none-eabi/include/c++/6.3.1/streambuf ****         getline(basic_istream<_CharT2, _Traits2>&,
 174:/home/zkmike/.local/share/renesas/e2_studio/toolchains/gcc_arm/gcc-arm-none-eabi-6-2017-q2-update/arm-none-eabi/include/c++/6.3.1/streambuf **** 		basic_string<_CharT2, _Traits2, _Alloc>&, _CharT2);
 175:/home/zkmike/.local/share/renesas/e2_studio/toolchains/gcc_arm/gcc-arm-none-eabi-6-2017-q2-update/arm-none-eabi/include/c++/6.3.1/streambuf **** 
 176:/home/zkmike/.local/share/renesas/e2_studio/toolchains/gcc_arm/gcc-arm-none-eabi-6-2017-q2-update/arm-none-eabi/include/c++/6.3.1/streambuf ****     protected:
 177:/home/zkmike/.local/share/renesas/e2_studio/toolchains/gcc_arm/gcc-arm-none-eabi-6-2017-q2-update/arm-none-eabi/include/c++/6.3.1/streambuf ****       /*
 178:/home/zkmike/.local/share/renesas/e2_studio/toolchains/gcc_arm/gcc-arm-none-eabi-6-2017-q2-update/arm-none-eabi/include/c++/6.3.1/streambuf ****        *  This is based on _IO_FILE, just reordered to be more consistent,
 179:/home/zkmike/.local/share/renesas/e2_studio/toolchains/gcc_arm/gcc-arm-none-eabi-6-2017-q2-update/arm-none-eabi/include/c++/6.3.1/streambuf ****        *  and is intended to be the most minimal abstraction for an
 180:/home/zkmike/.local/share/renesas/e2_studio/toolchains/gcc_arm/gcc-arm-none-eabi-6-2017-q2-update/arm-none-eabi/include/c++/6.3.1/streambuf ****        *  internal buffer.
 181:/home/zkmike/.local/share/renesas/e2_studio/toolchains/gcc_arm/gcc-arm-none-eabi-6-2017-q2-update/arm-none-eabi/include/c++/6.3.1/streambuf ****        *  -  get == input == read
 182:/home/zkmike/.local/share/renesas/e2_studio/toolchains/gcc_arm/gcc-arm-none-eabi-6-2017-q2-update/arm-none-eabi/include/c++/6.3.1/streambuf ****        *  -  put == output == write
 183:/home/zkmike/.local/share/renesas/e2_studio/toolchains/gcc_arm/gcc-arm-none-eabi-6-2017-q2-update/arm-none-eabi/include/c++/6.3.1/streambuf ****       */
 184:/home/zkmike/.local/share/renesas/e2_studio/toolchains/gcc_arm/gcc-arm-none-eabi-6-2017-q2-update/arm-none-eabi/include/c++/6.3.1/streambuf ****       char_type* 		_M_in_beg;     ///< Start of get area.
 185:/home/zkmike/.local/share/renesas/e2_studio/toolchains/gcc_arm/gcc-arm-none-eabi-6-2017-q2-update/arm-none-eabi/include/c++/6.3.1/streambuf ****       char_type* 		_M_in_cur;     ///< Current read area.
 186:/home/zkmike/.local/share/renesas/e2_studio/toolchains/gcc_arm/gcc-arm-none-eabi-6-2017-q2-update/arm-none-eabi/include/c++/6.3.1/streambuf ****       char_type* 		_M_in_end;     ///< End of get area.
 187:/home/zkmike/.local/share/renesas/e2_studio/toolchains/gcc_arm/gcc-arm-none-eabi-6-2017-q2-update/arm-none-eabi/include/c++/6.3.1/streambuf ****       char_type* 		_M_out_beg;    ///< Start of put area.
 188:/home/zkmike/.local/share/renesas/e2_studio/toolchains/gcc_arm/gcc-arm-none-eabi-6-2017-q2-update/arm-none-eabi/include/c++/6.3.1/streambuf ****       char_type* 		_M_out_cur;    ///< Current put area.
 189:/home/zkmike/.local/share/renesas/e2_studio/toolchains/gcc_arm/gcc-arm-none-eabi-6-2017-q2-update/arm-none-eabi/include/c++/6.3.1/streambuf ****       char_type* 		_M_out_end;    ///< End of put area.
 190:/home/zkmike/.local/share/renesas/e2_studio/toolchains/gcc_arm/gcc-arm-none-eabi-6-2017-q2-update/arm-none-eabi/include/c++/6.3.1/streambuf **** 
 191:/home/zkmike/.local/share/renesas/e2_studio/toolchains/gcc_arm/gcc-arm-none-eabi-6-2017-q2-update/arm-none-eabi/include/c++/6.3.1/streambuf ****       /// Current locale setting.
 192:/home/zkmike/.local/share/renesas/e2_studio/toolchains/gcc_arm/gcc-arm-none-eabi-6-2017-q2-update/arm-none-eabi/include/c++/6.3.1/streambuf ****       locale 			_M_buf_locale;
 193:/home/zkmike/.local/share/renesas/e2_studio/toolchains/gcc_arm/gcc-arm-none-eabi-6-2017-q2-update/arm-none-eabi/include/c++/6.3.1/streambuf **** 
 194:/home/zkmike/.local/share/renesas/e2_studio/toolchains/gcc_arm/gcc-arm-none-eabi-6-2017-q2-update/arm-none-eabi/include/c++/6.3.1/streambuf ****   public:
 195:/home/zkmike/.local/share/renesas/e2_studio/toolchains/gcc_arm/gcc-arm-none-eabi-6-2017-q2-update/arm-none-eabi/include/c++/6.3.1/streambuf ****       /// Destructor deallocates no buffer space.
 196:/home/zkmike/.local/share/renesas/e2_studio/toolchains/gcc_arm/gcc-arm-none-eabi-6-2017-q2-update/arm-none-eabi/include/c++/6.3.1/streambuf ****       virtual
 197:/home/zkmike/.local/share/renesas/e2_studio/toolchains/gcc_arm/gcc-arm-none-eabi-6-2017-q2-update/arm-none-eabi/include/c++/6.3.1/streambuf ****       ~basic_streambuf()
 198:/home/zkmike/.local/share/renesas/e2_studio/toolchains/gcc_arm/gcc-arm-none-eabi-6-2017-q2-update/arm-none-eabi/include/c++/6.3.1/streambuf ****       { }
 682              		.loc 8 198 0
 683 0024 0400A0E1 		mov	r0, r4
 684 0028 10309FE5 		ldr	r3, .L52+4
 685 002c 1C3080E4 		str	r3, [r0], #28
 686 0030 FEFFFFEB 		bl	_ZNSt6localeD1Ev
 687              	.LVL51:
 688              	.LBE794:
 689              	.LBE793:
 690              	.LBE780:
 691              		.loc 7 65 0
 692 0034 0400A0E1 		mov	r0, r4
 693 0038 1080BDE8 		pop	{r4, pc}
 694              	.L53:
 695              		.align	2
 696              	.L52:
 697 003c 08000000 		.word	_ZTVNSt7__cxx1115basic_stringbufIcSt11char_traitsIcESaIcEEE+8
 698 0040 08000000 		.word	_ZTVSt15basic_streambufIcSt11char_traitsIcEE+8
 699              		.cfi_endproc
 700              	.LFE2525:
 701              		.cantunwind
 702              		.fnend
 704              		.weak	_ZNSt7__cxx1115basic_stringbufIcSt11char_traitsIcESaIcEED1Ev
 705              		.set	_ZNSt7__cxx1115basic_stringbufIcSt11char_traitsIcESaIcEED1Ev,_ZNSt7__cxx1115basic_stringbufIc
 706              		.section	.text._ZNSt7__cxx1115basic_stringbufIcSt11char_traitsIcESaIcEED0Ev,"axG",%progbits,_ZNSt7
 707              		.align	2
 708              		.weak	_ZNSt7__cxx1115basic_stringbufIcSt11char_traitsIcESaIcEED0Ev
 709              		.syntax unified
 710              		.arm
 711              		.fpu neon
 713              	_ZNSt7__cxx1115basic_stringbufIcSt11char_traitsIcESaIcEED0Ev:
 714              		.fnstart
 715              	.LFB2527:
 716              		.loc 7 65 0
 717              		.cfi_startproc
 718              		@ args = 0, pretend = 0, frame = 0
 719              		@ frame_needed = 0, uses_anonymous_args = 0
 720              	.LVL52:
 721 0000 10402DE9 		push	{r4, lr}
 722              		.cfi_def_cfa_offset 8
 723              		.cfi_offset 4, -8
 724              		.cfi_offset 14, -4
 725 0004 0040A0E1 		mov	r4, r0
 726              	.LVL53:
 727              	.LBB816:
 728              	.LBB817:
 729              		.loc 7 65 0
 730 0008 38309FE5 		ldr	r3, .L57
 731 000c 003080E5 		str	r3, [r0]
 732              	.LVL54:
 733              	.LBB818:
 734              	.LBB819:
 735              	.LBB820:
 736              	.LBB821:
 737              	.LBB822:
 738              	.LBB823:
 136:/home/zkmike/.local/share/renesas/e2_studio/toolchains/gcc_arm/gcc-arm-none-eabi-6-2017-q2-update/arm-none-eabi/include/c++/6.3.1/bits/basic_string.h **** 
 739              		.loc 3 136 0
 740 0010 240090E5 		ldr	r0, [r0, #36]
 741              	.LVL55:
 742              	.LBE823:
 743              	.LBE822:
 744              	.LBB824:
 745              	.LBB825:
 152:/home/zkmike/.local/share/renesas/e2_studio/toolchains/gcc_arm/gcc-arm-none-eabi-6-2017-q2-update/arm-none-eabi/include/c++/6.3.1/bits/basic_string.h **** #else
 746              		.loc 3 152 0
 747 0014 2C3084E2 		add	r3, r4, #44
 748              	.LVL56:
 749              	.LBE825:
 750              	.LBE824:
 751              	.LBE821:
 752              		.loc 3 180 0
 753 0018 030050E1 		cmp	r0, r3
 754 001c 0000000A 		beq	.L55
 755              	.LVL57:
 756              	.LBB826:
 757              	.LBB827:
 758              	.LBB828:
 759              	.LBB829:
 760              		.loc 4 110 0
 761 0020 FEFFFFEB 		bl	_ZdlPv
 762              	.LVL58:
 763              	.L55:
 764              	.LBE829:
 765              	.LBE828:
 766              	.LBE827:
 767              	.LBE826:
 768              	.LBE820:
 769              	.LBE819:
 770              	.LBE818:
 771              	.LBB830:
 772              	.LBB831:
 773              		.loc 8 198 0
 774 0024 0400A0E1 		mov	r0, r4
 775 0028 1C309FE5 		ldr	r3, .L57+4
 776 002c 1C3080E4 		str	r3, [r0], #28
 777 0030 FEFFFFEB 		bl	_ZNSt6localeD1Ev
 778              	.LVL59:
 779              	.LBE831:
 780              	.LBE830:
 781              	.LBE817:
 782              	.LBE816:
 783              		.loc 7 65 0
 784 0034 3C10A0E3 		mov	r1, #60
 785 0038 0400A0E1 		mov	r0, r4
 786 003c FEFFFFEB 		bl	_ZdlPvj
 787              	.LVL60:
 788 0040 0400A0E1 		mov	r0, r4
 789 0044 1080BDE8 		pop	{r4, pc}
 790              	.L58:
 791              		.align	2
 792              	.L57:
 793 0048 08000000 		.word	_ZTVNSt7__cxx1115basic_stringbufIcSt11char_traitsIcESaIcEEE+8
 794 004c 08000000 		.word	_ZTVSt15basic_streambufIcSt11char_traitsIcEE+8
 795              		.cfi_endproc
 796              	.LFE2527:
 797              		.cantunwind
 798              		.fnend
 800              		.section	.text._ZNSt7__cxx1112basic_stringIcSt11char_traitsIcESaIcEE12_M_constructIPKcEEvT_S8_St20
 801              		.align	2
 802              		.weak	_ZNSt7__cxx1112basic_stringIcSt11char_traitsIcESaIcEE12_M_constructIPKcEEvT_S8_St20forward_i
 803              		.syntax unified
 804              		.arm
 805              		.fpu neon
 807              	_ZNSt7__cxx1112basic_stringIcSt11char_traitsIcESaIcEE12_M_constructIPKcEEvT_S8_St20forward_iterator
 808              		.fnstart
 809              	.LFB2718:
 810              		.file 9 "/home/zkmike/.local/share/renesas/e2_studio/toolchains/gcc_arm/gcc-arm-none-eabi-6-2017-q
   1:/home/zkmike/.local/share/renesas/e2_studio/toolchains/gcc_arm/gcc-arm-none-eabi-6-2017-q2-update/arm-none-eabi/include/c++/6.3.1/bits/basic_string.tcc **** // Components for manipulating sequences of characters -*- C++ -*-
   2:/home/zkmike/.local/share/renesas/e2_studio/toolchains/gcc_arm/gcc-arm-none-eabi-6-2017-q2-update/arm-none-eabi/include/c++/6.3.1/bits/basic_string.tcc **** 
   3:/home/zkmike/.local/share/renesas/e2_studio/toolchains/gcc_arm/gcc-arm-none-eabi-6-2017-q2-update/arm-none-eabi/include/c++/6.3.1/bits/basic_string.tcc **** // Copyright (C) 1997-2016 Free Software Foundation, Inc.
   4:/home/zkmike/.local/share/renesas/e2_studio/toolchains/gcc_arm/gcc-arm-none-eabi-6-2017-q2-update/arm-none-eabi/include/c++/6.3.1/bits/basic_string.tcc **** //
   5:/home/zkmike/.local/share/renesas/e2_studio/toolchains/gcc_arm/gcc-arm-none-eabi-6-2017-q2-update/arm-none-eabi/include/c++/6.3.1/bits/basic_string.tcc **** // This file is part of the GNU ISO C++ Library.  This library is free
   6:/home/zkmike/.local/share/renesas/e2_studio/toolchains/gcc_arm/gcc-arm-none-eabi-6-2017-q2-update/arm-none-eabi/include/c++/6.3.1/bits/basic_string.tcc **** // software; you can redistribute it and/or modify it under the
   7:/home/zkmike/.local/share/renesas/e2_studio/toolchains/gcc_arm/gcc-arm-none-eabi-6-2017-q2-update/arm-none-eabi/include/c++/6.3.1/bits/basic_string.tcc **** // terms of the GNU General Public License as published by the
   8:/home/zkmike/.local/share/renesas/e2_studio/toolchains/gcc_arm/gcc-arm-none-eabi-6-2017-q2-update/arm-none-eabi/include/c++/6.3.1/bits/basic_string.tcc **** // Free Software Foundation; either version 3, or (at your option)
   9:/home/zkmike/.local/share/renesas/e2_studio/toolchains/gcc_arm/gcc-arm-none-eabi-6-2017-q2-update/arm-none-eabi/include/c++/6.3.1/bits/basic_string.tcc **** // any later version.
  10:/home/zkmike/.local/share/renesas/e2_studio/toolchains/gcc_arm/gcc-arm-none-eabi-6-2017-q2-update/arm-none-eabi/include/c++/6.3.1/bits/basic_string.tcc **** 
  11:/home/zkmike/.local/share/renesas/e2_studio/toolchains/gcc_arm/gcc-arm-none-eabi-6-2017-q2-update/arm-none-eabi/include/c++/6.3.1/bits/basic_string.tcc **** // This library is distributed in the hope that it will be useful,
  12:/home/zkmike/.local/share/renesas/e2_studio/toolchains/gcc_arm/gcc-arm-none-eabi-6-2017-q2-update/arm-none-eabi/include/c++/6.3.1/bits/basic_string.tcc **** // but WITHOUT ANY WARRANTY; without even the implied warranty of
  13:/home/zkmike/.local/share/renesas/e2_studio/toolchains/gcc_arm/gcc-arm-none-eabi-6-2017-q2-update/arm-none-eabi/include/c++/6.3.1/bits/basic_string.tcc **** // MERCHANTABILITY or FITNESS FOR A PARTICULAR PURPOSE.  See the
  14:/home/zkmike/.local/share/renesas/e2_studio/toolchains/gcc_arm/gcc-arm-none-eabi-6-2017-q2-update/arm-none-eabi/include/c++/6.3.1/bits/basic_string.tcc **** // GNU General Public License for more details.
  15:/home/zkmike/.local/share/renesas/e2_studio/toolchains/gcc_arm/gcc-arm-none-eabi-6-2017-q2-update/arm-none-eabi/include/c++/6.3.1/bits/basic_string.tcc **** 
  16:/home/zkmike/.local/share/renesas/e2_studio/toolchains/gcc_arm/gcc-arm-none-eabi-6-2017-q2-update/arm-none-eabi/include/c++/6.3.1/bits/basic_string.tcc **** // Under Section 7 of GPL version 3, you are granted additional
  17:/home/zkmike/.local/share/renesas/e2_studio/toolchains/gcc_arm/gcc-arm-none-eabi-6-2017-q2-update/arm-none-eabi/include/c++/6.3.1/bits/basic_string.tcc **** // permissions described in the GCC Runtime Library Exception, version
  18:/home/zkmike/.local/share/renesas/e2_studio/toolchains/gcc_arm/gcc-arm-none-eabi-6-2017-q2-update/arm-none-eabi/include/c++/6.3.1/bits/basic_string.tcc **** // 3.1, as published by the Free Software Foundation.
  19:/home/zkmike/.local/share/renesas/e2_studio/toolchains/gcc_arm/gcc-arm-none-eabi-6-2017-q2-update/arm-none-eabi/include/c++/6.3.1/bits/basic_string.tcc **** 
  20:/home/zkmike/.local/share/renesas/e2_studio/toolchains/gcc_arm/gcc-arm-none-eabi-6-2017-q2-update/arm-none-eabi/include/c++/6.3.1/bits/basic_string.tcc **** // You should have received a copy of the GNU General Public License and
  21:/home/zkmike/.local/share/renesas/e2_studio/toolchains/gcc_arm/gcc-arm-none-eabi-6-2017-q2-update/arm-none-eabi/include/c++/6.3.1/bits/basic_string.tcc **** // a copy of the GCC Runtime Library Exception along with this program;
  22:/home/zkmike/.local/share/renesas/e2_studio/toolchains/gcc_arm/gcc-arm-none-eabi-6-2017-q2-update/arm-none-eabi/include/c++/6.3.1/bits/basic_string.tcc **** // see the files COPYING3 and COPYING.RUNTIME respectively.  If not, see
  23:/home/zkmike/.local/share/renesas/e2_studio/toolchains/gcc_arm/gcc-arm-none-eabi-6-2017-q2-update/arm-none-eabi/include/c++/6.3.1/bits/basic_string.tcc **** // <http://www.gnu.org/licenses/>.
  24:/home/zkmike/.local/share/renesas/e2_studio/toolchains/gcc_arm/gcc-arm-none-eabi-6-2017-q2-update/arm-none-eabi/include/c++/6.3.1/bits/basic_string.tcc **** 
  25:/home/zkmike/.local/share/renesas/e2_studio/toolchains/gcc_arm/gcc-arm-none-eabi-6-2017-q2-update/arm-none-eabi/include/c++/6.3.1/bits/basic_string.tcc **** /** @file bits/basic_string.tcc
  26:/home/zkmike/.local/share/renesas/e2_studio/toolchains/gcc_arm/gcc-arm-none-eabi-6-2017-q2-update/arm-none-eabi/include/c++/6.3.1/bits/basic_string.tcc ****  *  This is an internal header file, included by other library headers.
  27:/home/zkmike/.local/share/renesas/e2_studio/toolchains/gcc_arm/gcc-arm-none-eabi-6-2017-q2-update/arm-none-eabi/include/c++/6.3.1/bits/basic_string.tcc ****  *  Do not attempt to use it directly. @headername{string}
  28:/home/zkmike/.local/share/renesas/e2_studio/toolchains/gcc_arm/gcc-arm-none-eabi-6-2017-q2-update/arm-none-eabi/include/c++/6.3.1/bits/basic_string.tcc ****  */
  29:/home/zkmike/.local/share/renesas/e2_studio/toolchains/gcc_arm/gcc-arm-none-eabi-6-2017-q2-update/arm-none-eabi/include/c++/6.3.1/bits/basic_string.tcc **** 
  30:/home/zkmike/.local/share/renesas/e2_studio/toolchains/gcc_arm/gcc-arm-none-eabi-6-2017-q2-update/arm-none-eabi/include/c++/6.3.1/bits/basic_string.tcc **** //
  31:/home/zkmike/.local/share/renesas/e2_studio/toolchains/gcc_arm/gcc-arm-none-eabi-6-2017-q2-update/arm-none-eabi/include/c++/6.3.1/bits/basic_string.tcc **** // ISO C++ 14882: 21  Strings library
  32:/home/zkmike/.local/share/renesas/e2_studio/toolchains/gcc_arm/gcc-arm-none-eabi-6-2017-q2-update/arm-none-eabi/include/c++/6.3.1/bits/basic_string.tcc **** //
  33:/home/zkmike/.local/share/renesas/e2_studio/toolchains/gcc_arm/gcc-arm-none-eabi-6-2017-q2-update/arm-none-eabi/include/c++/6.3.1/bits/basic_string.tcc **** 
  34:/home/zkmike/.local/share/renesas/e2_studio/toolchains/gcc_arm/gcc-arm-none-eabi-6-2017-q2-update/arm-none-eabi/include/c++/6.3.1/bits/basic_string.tcc **** // Written by Jason Merrill based upon the specification by Takanori Adachi
  35:/home/zkmike/.local/share/renesas/e2_studio/toolchains/gcc_arm/gcc-arm-none-eabi-6-2017-q2-update/arm-none-eabi/include/c++/6.3.1/bits/basic_string.tcc **** // in ANSI X3J16/94-0013R2.  Rewritten by Nathan Myers to ISO-14882.
  36:/home/zkmike/.local/share/renesas/e2_studio/toolchains/gcc_arm/gcc-arm-none-eabi-6-2017-q2-update/arm-none-eabi/include/c++/6.3.1/bits/basic_string.tcc **** // Non-reference-counted implementation written by Paolo Carlini and
  37:/home/zkmike/.local/share/renesas/e2_studio/toolchains/gcc_arm/gcc-arm-none-eabi-6-2017-q2-update/arm-none-eabi/include/c++/6.3.1/bits/basic_string.tcc **** // updated by Jonathan Wakely for ISO-14882-2011.
  38:/home/zkmike/.local/share/renesas/e2_studio/toolchains/gcc_arm/gcc-arm-none-eabi-6-2017-q2-update/arm-none-eabi/include/c++/6.3.1/bits/basic_string.tcc **** 
  39:/home/zkmike/.local/share/renesas/e2_studio/toolchains/gcc_arm/gcc-arm-none-eabi-6-2017-q2-update/arm-none-eabi/include/c++/6.3.1/bits/basic_string.tcc **** #ifndef _BASIC_STRING_TCC
  40:/home/zkmike/.local/share/renesas/e2_studio/toolchains/gcc_arm/gcc-arm-none-eabi-6-2017-q2-update/arm-none-eabi/include/c++/6.3.1/bits/basic_string.tcc **** #define _BASIC_STRING_TCC 1
  41:/home/zkmike/.local/share/renesas/e2_studio/toolchains/gcc_arm/gcc-arm-none-eabi-6-2017-q2-update/arm-none-eabi/include/c++/6.3.1/bits/basic_string.tcc **** 
  42:/home/zkmike/.local/share/renesas/e2_studio/toolchains/gcc_arm/gcc-arm-none-eabi-6-2017-q2-update/arm-none-eabi/include/c++/6.3.1/bits/basic_string.tcc **** #pragma GCC system_header
  43:/home/zkmike/.local/share/renesas/e2_studio/toolchains/gcc_arm/gcc-arm-none-eabi-6-2017-q2-update/arm-none-eabi/include/c++/6.3.1/bits/basic_string.tcc **** 
  44:/home/zkmike/.local/share/renesas/e2_studio/toolchains/gcc_arm/gcc-arm-none-eabi-6-2017-q2-update/arm-none-eabi/include/c++/6.3.1/bits/basic_string.tcc **** #include <bits/cxxabi_forced.h>
  45:/home/zkmike/.local/share/renesas/e2_studio/toolchains/gcc_arm/gcc-arm-none-eabi-6-2017-q2-update/arm-none-eabi/include/c++/6.3.1/bits/basic_string.tcc **** 
  46:/home/zkmike/.local/share/renesas/e2_studio/toolchains/gcc_arm/gcc-arm-none-eabi-6-2017-q2-update/arm-none-eabi/include/c++/6.3.1/bits/basic_string.tcc **** namespace std _GLIBCXX_VISIBILITY(default)
  47:/home/zkmike/.local/share/renesas/e2_studio/toolchains/gcc_arm/gcc-arm-none-eabi-6-2017-q2-update/arm-none-eabi/include/c++/6.3.1/bits/basic_string.tcc **** {
  48:/home/zkmike/.local/share/renesas/e2_studio/toolchains/gcc_arm/gcc-arm-none-eabi-6-2017-q2-update/arm-none-eabi/include/c++/6.3.1/bits/basic_string.tcc **** _GLIBCXX_BEGIN_NAMESPACE_VERSION
  49:/home/zkmike/.local/share/renesas/e2_studio/toolchains/gcc_arm/gcc-arm-none-eabi-6-2017-q2-update/arm-none-eabi/include/c++/6.3.1/bits/basic_string.tcc **** 
  50:/home/zkmike/.local/share/renesas/e2_studio/toolchains/gcc_arm/gcc-arm-none-eabi-6-2017-q2-update/arm-none-eabi/include/c++/6.3.1/bits/basic_string.tcc **** #if _GLIBCXX_USE_CXX11_ABI
  51:/home/zkmike/.local/share/renesas/e2_studio/toolchains/gcc_arm/gcc-arm-none-eabi-6-2017-q2-update/arm-none-eabi/include/c++/6.3.1/bits/basic_string.tcc **** 
  52:/home/zkmike/.local/share/renesas/e2_studio/toolchains/gcc_arm/gcc-arm-none-eabi-6-2017-q2-update/arm-none-eabi/include/c++/6.3.1/bits/basic_string.tcc ****   template<typename _CharT, typename _Traits, typename _Alloc>
  53:/home/zkmike/.local/share/renesas/e2_studio/toolchains/gcc_arm/gcc-arm-none-eabi-6-2017-q2-update/arm-none-eabi/include/c++/6.3.1/bits/basic_string.tcc ****     const typename basic_string<_CharT, _Traits, _Alloc>::size_type
  54:/home/zkmike/.local/share/renesas/e2_studio/toolchains/gcc_arm/gcc-arm-none-eabi-6-2017-q2-update/arm-none-eabi/include/c++/6.3.1/bits/basic_string.tcc ****     basic_string<_CharT, _Traits, _Alloc>::npos;
  55:/home/zkmike/.local/share/renesas/e2_studio/toolchains/gcc_arm/gcc-arm-none-eabi-6-2017-q2-update/arm-none-eabi/include/c++/6.3.1/bits/basic_string.tcc **** 
  56:/home/zkmike/.local/share/renesas/e2_studio/toolchains/gcc_arm/gcc-arm-none-eabi-6-2017-q2-update/arm-none-eabi/include/c++/6.3.1/bits/basic_string.tcc ****   template<typename _CharT, typename _Traits, typename _Alloc>
  57:/home/zkmike/.local/share/renesas/e2_studio/toolchains/gcc_arm/gcc-arm-none-eabi-6-2017-q2-update/arm-none-eabi/include/c++/6.3.1/bits/basic_string.tcc ****     void
  58:/home/zkmike/.local/share/renesas/e2_studio/toolchains/gcc_arm/gcc-arm-none-eabi-6-2017-q2-update/arm-none-eabi/include/c++/6.3.1/bits/basic_string.tcc ****     basic_string<_CharT, _Traits, _Alloc>::
  59:/home/zkmike/.local/share/renesas/e2_studio/toolchains/gcc_arm/gcc-arm-none-eabi-6-2017-q2-update/arm-none-eabi/include/c++/6.3.1/bits/basic_string.tcc ****     swap(basic_string& __s) _GLIBCXX_NOEXCEPT
  60:/home/zkmike/.local/share/renesas/e2_studio/toolchains/gcc_arm/gcc-arm-none-eabi-6-2017-q2-update/arm-none-eabi/include/c++/6.3.1/bits/basic_string.tcc ****     {
  61:/home/zkmike/.local/share/renesas/e2_studio/toolchains/gcc_arm/gcc-arm-none-eabi-6-2017-q2-update/arm-none-eabi/include/c++/6.3.1/bits/basic_string.tcc ****       if (this == &__s)
  62:/home/zkmike/.local/share/renesas/e2_studio/toolchains/gcc_arm/gcc-arm-none-eabi-6-2017-q2-update/arm-none-eabi/include/c++/6.3.1/bits/basic_string.tcc **** 	return;
  63:/home/zkmike/.local/share/renesas/e2_studio/toolchains/gcc_arm/gcc-arm-none-eabi-6-2017-q2-update/arm-none-eabi/include/c++/6.3.1/bits/basic_string.tcc **** 
  64:/home/zkmike/.local/share/renesas/e2_studio/toolchains/gcc_arm/gcc-arm-none-eabi-6-2017-q2-update/arm-none-eabi/include/c++/6.3.1/bits/basic_string.tcc ****       _Alloc_traits::_S_on_swap(_M_get_allocator(), __s._M_get_allocator());
  65:/home/zkmike/.local/share/renesas/e2_studio/toolchains/gcc_arm/gcc-arm-none-eabi-6-2017-q2-update/arm-none-eabi/include/c++/6.3.1/bits/basic_string.tcc **** 
  66:/home/zkmike/.local/share/renesas/e2_studio/toolchains/gcc_arm/gcc-arm-none-eabi-6-2017-q2-update/arm-none-eabi/include/c++/6.3.1/bits/basic_string.tcc ****       if (_M_is_local())
  67:/home/zkmike/.local/share/renesas/e2_studio/toolchains/gcc_arm/gcc-arm-none-eabi-6-2017-q2-update/arm-none-eabi/include/c++/6.3.1/bits/basic_string.tcc **** 	if (__s._M_is_local())
  68:/home/zkmike/.local/share/renesas/e2_studio/toolchains/gcc_arm/gcc-arm-none-eabi-6-2017-q2-update/arm-none-eabi/include/c++/6.3.1/bits/basic_string.tcc **** 	  {
  69:/home/zkmike/.local/share/renesas/e2_studio/toolchains/gcc_arm/gcc-arm-none-eabi-6-2017-q2-update/arm-none-eabi/include/c++/6.3.1/bits/basic_string.tcc **** 	    if (length() && __s.length())
  70:/home/zkmike/.local/share/renesas/e2_studio/toolchains/gcc_arm/gcc-arm-none-eabi-6-2017-q2-update/arm-none-eabi/include/c++/6.3.1/bits/basic_string.tcc **** 	      {
  71:/home/zkmike/.local/share/renesas/e2_studio/toolchains/gcc_arm/gcc-arm-none-eabi-6-2017-q2-update/arm-none-eabi/include/c++/6.3.1/bits/basic_string.tcc **** 		_CharT __tmp_data[_S_local_capacity + 1];
  72:/home/zkmike/.local/share/renesas/e2_studio/toolchains/gcc_arm/gcc-arm-none-eabi-6-2017-q2-update/arm-none-eabi/include/c++/6.3.1/bits/basic_string.tcc **** 		traits_type::copy(__tmp_data, __s._M_local_buf,
  73:/home/zkmike/.local/share/renesas/e2_studio/toolchains/gcc_arm/gcc-arm-none-eabi-6-2017-q2-update/arm-none-eabi/include/c++/6.3.1/bits/basic_string.tcc **** 				  _S_local_capacity + 1);
  74:/home/zkmike/.local/share/renesas/e2_studio/toolchains/gcc_arm/gcc-arm-none-eabi-6-2017-q2-update/arm-none-eabi/include/c++/6.3.1/bits/basic_string.tcc **** 		traits_type::copy(__s._M_local_buf, _M_local_buf,
  75:/home/zkmike/.local/share/renesas/e2_studio/toolchains/gcc_arm/gcc-arm-none-eabi-6-2017-q2-update/arm-none-eabi/include/c++/6.3.1/bits/basic_string.tcc **** 				  _S_local_capacity + 1);
  76:/home/zkmike/.local/share/renesas/e2_studio/toolchains/gcc_arm/gcc-arm-none-eabi-6-2017-q2-update/arm-none-eabi/include/c++/6.3.1/bits/basic_string.tcc **** 		traits_type::copy(_M_local_buf, __tmp_data,
  77:/home/zkmike/.local/share/renesas/e2_studio/toolchains/gcc_arm/gcc-arm-none-eabi-6-2017-q2-update/arm-none-eabi/include/c++/6.3.1/bits/basic_string.tcc **** 				  _S_local_capacity + 1);
  78:/home/zkmike/.local/share/renesas/e2_studio/toolchains/gcc_arm/gcc-arm-none-eabi-6-2017-q2-update/arm-none-eabi/include/c++/6.3.1/bits/basic_string.tcc **** 	      }
  79:/home/zkmike/.local/share/renesas/e2_studio/toolchains/gcc_arm/gcc-arm-none-eabi-6-2017-q2-update/arm-none-eabi/include/c++/6.3.1/bits/basic_string.tcc **** 	    else if (__s.length())
  80:/home/zkmike/.local/share/renesas/e2_studio/toolchains/gcc_arm/gcc-arm-none-eabi-6-2017-q2-update/arm-none-eabi/include/c++/6.3.1/bits/basic_string.tcc **** 	      {
  81:/home/zkmike/.local/share/renesas/e2_studio/toolchains/gcc_arm/gcc-arm-none-eabi-6-2017-q2-update/arm-none-eabi/include/c++/6.3.1/bits/basic_string.tcc **** 		traits_type::copy(_M_local_buf, __s._M_local_buf,
  82:/home/zkmike/.local/share/renesas/e2_studio/toolchains/gcc_arm/gcc-arm-none-eabi-6-2017-q2-update/arm-none-eabi/include/c++/6.3.1/bits/basic_string.tcc **** 				  _S_local_capacity + 1);
  83:/home/zkmike/.local/share/renesas/e2_studio/toolchains/gcc_arm/gcc-arm-none-eabi-6-2017-q2-update/arm-none-eabi/include/c++/6.3.1/bits/basic_string.tcc **** 		_M_length(__s.length());
  84:/home/zkmike/.local/share/renesas/e2_studio/toolchains/gcc_arm/gcc-arm-none-eabi-6-2017-q2-update/arm-none-eabi/include/c++/6.3.1/bits/basic_string.tcc **** 		__s._M_set_length(0);
  85:/home/zkmike/.local/share/renesas/e2_studio/toolchains/gcc_arm/gcc-arm-none-eabi-6-2017-q2-update/arm-none-eabi/include/c++/6.3.1/bits/basic_string.tcc **** 		return;
  86:/home/zkmike/.local/share/renesas/e2_studio/toolchains/gcc_arm/gcc-arm-none-eabi-6-2017-q2-update/arm-none-eabi/include/c++/6.3.1/bits/basic_string.tcc **** 	      }
  87:/home/zkmike/.local/share/renesas/e2_studio/toolchains/gcc_arm/gcc-arm-none-eabi-6-2017-q2-update/arm-none-eabi/include/c++/6.3.1/bits/basic_string.tcc **** 	    else if (length())
  88:/home/zkmike/.local/share/renesas/e2_studio/toolchains/gcc_arm/gcc-arm-none-eabi-6-2017-q2-update/arm-none-eabi/include/c++/6.3.1/bits/basic_string.tcc **** 	      {
  89:/home/zkmike/.local/share/renesas/e2_studio/toolchains/gcc_arm/gcc-arm-none-eabi-6-2017-q2-update/arm-none-eabi/include/c++/6.3.1/bits/basic_string.tcc **** 		traits_type::copy(__s._M_local_buf, _M_local_buf,
  90:/home/zkmike/.local/share/renesas/e2_studio/toolchains/gcc_arm/gcc-arm-none-eabi-6-2017-q2-update/arm-none-eabi/include/c++/6.3.1/bits/basic_string.tcc **** 				  _S_local_capacity + 1);
  91:/home/zkmike/.local/share/renesas/e2_studio/toolchains/gcc_arm/gcc-arm-none-eabi-6-2017-q2-update/arm-none-eabi/include/c++/6.3.1/bits/basic_string.tcc **** 		__s._M_length(length());
  92:/home/zkmike/.local/share/renesas/e2_studio/toolchains/gcc_arm/gcc-arm-none-eabi-6-2017-q2-update/arm-none-eabi/include/c++/6.3.1/bits/basic_string.tcc **** 		_M_set_length(0);
  93:/home/zkmike/.local/share/renesas/e2_studio/toolchains/gcc_arm/gcc-arm-none-eabi-6-2017-q2-update/arm-none-eabi/include/c++/6.3.1/bits/basic_string.tcc **** 		return;
  94:/home/zkmike/.local/share/renesas/e2_studio/toolchains/gcc_arm/gcc-arm-none-eabi-6-2017-q2-update/arm-none-eabi/include/c++/6.3.1/bits/basic_string.tcc **** 	      }
  95:/home/zkmike/.local/share/renesas/e2_studio/toolchains/gcc_arm/gcc-arm-none-eabi-6-2017-q2-update/arm-none-eabi/include/c++/6.3.1/bits/basic_string.tcc **** 	  }
  96:/home/zkmike/.local/share/renesas/e2_studio/toolchains/gcc_arm/gcc-arm-none-eabi-6-2017-q2-update/arm-none-eabi/include/c++/6.3.1/bits/basic_string.tcc **** 	else
  97:/home/zkmike/.local/share/renesas/e2_studio/toolchains/gcc_arm/gcc-arm-none-eabi-6-2017-q2-update/arm-none-eabi/include/c++/6.3.1/bits/basic_string.tcc **** 	  {
  98:/home/zkmike/.local/share/renesas/e2_studio/toolchains/gcc_arm/gcc-arm-none-eabi-6-2017-q2-update/arm-none-eabi/include/c++/6.3.1/bits/basic_string.tcc **** 	    const size_type __tmp_capacity = __s._M_allocated_capacity;
  99:/home/zkmike/.local/share/renesas/e2_studio/toolchains/gcc_arm/gcc-arm-none-eabi-6-2017-q2-update/arm-none-eabi/include/c++/6.3.1/bits/basic_string.tcc **** 	    traits_type::copy(__s._M_local_buf, _M_local_buf,
 100:/home/zkmike/.local/share/renesas/e2_studio/toolchains/gcc_arm/gcc-arm-none-eabi-6-2017-q2-update/arm-none-eabi/include/c++/6.3.1/bits/basic_string.tcc **** 			      _S_local_capacity + 1);
 101:/home/zkmike/.local/share/renesas/e2_studio/toolchains/gcc_arm/gcc-arm-none-eabi-6-2017-q2-update/arm-none-eabi/include/c++/6.3.1/bits/basic_string.tcc **** 	    _M_data(__s._M_data());
 102:/home/zkmike/.local/share/renesas/e2_studio/toolchains/gcc_arm/gcc-arm-none-eabi-6-2017-q2-update/arm-none-eabi/include/c++/6.3.1/bits/basic_string.tcc **** 	    __s._M_data(__s._M_local_buf);
 103:/home/zkmike/.local/share/renesas/e2_studio/toolchains/gcc_arm/gcc-arm-none-eabi-6-2017-q2-update/arm-none-eabi/include/c++/6.3.1/bits/basic_string.tcc **** 	    _M_capacity(__tmp_capacity);
 104:/home/zkmike/.local/share/renesas/e2_studio/toolchains/gcc_arm/gcc-arm-none-eabi-6-2017-q2-update/arm-none-eabi/include/c++/6.3.1/bits/basic_string.tcc **** 	  }
 105:/home/zkmike/.local/share/renesas/e2_studio/toolchains/gcc_arm/gcc-arm-none-eabi-6-2017-q2-update/arm-none-eabi/include/c++/6.3.1/bits/basic_string.tcc ****       else
 106:/home/zkmike/.local/share/renesas/e2_studio/toolchains/gcc_arm/gcc-arm-none-eabi-6-2017-q2-update/arm-none-eabi/include/c++/6.3.1/bits/basic_string.tcc **** 	{
 107:/home/zkmike/.local/share/renesas/e2_studio/toolchains/gcc_arm/gcc-arm-none-eabi-6-2017-q2-update/arm-none-eabi/include/c++/6.3.1/bits/basic_string.tcc **** 	  const size_type __tmp_capacity = _M_allocated_capacity;
 108:/home/zkmike/.local/share/renesas/e2_studio/toolchains/gcc_arm/gcc-arm-none-eabi-6-2017-q2-update/arm-none-eabi/include/c++/6.3.1/bits/basic_string.tcc **** 	  if (__s._M_is_local())
 109:/home/zkmike/.local/share/renesas/e2_studio/toolchains/gcc_arm/gcc-arm-none-eabi-6-2017-q2-update/arm-none-eabi/include/c++/6.3.1/bits/basic_string.tcc **** 	    {
 110:/home/zkmike/.local/share/renesas/e2_studio/toolchains/gcc_arm/gcc-arm-none-eabi-6-2017-q2-update/arm-none-eabi/include/c++/6.3.1/bits/basic_string.tcc **** 	      traits_type::copy(_M_local_buf, __s._M_local_buf,
 111:/home/zkmike/.local/share/renesas/e2_studio/toolchains/gcc_arm/gcc-arm-none-eabi-6-2017-q2-update/arm-none-eabi/include/c++/6.3.1/bits/basic_string.tcc **** 				_S_local_capacity + 1);
 112:/home/zkmike/.local/share/renesas/e2_studio/toolchains/gcc_arm/gcc-arm-none-eabi-6-2017-q2-update/arm-none-eabi/include/c++/6.3.1/bits/basic_string.tcc **** 	      __s._M_data(_M_data());
 113:/home/zkmike/.local/share/renesas/e2_studio/toolchains/gcc_arm/gcc-arm-none-eabi-6-2017-q2-update/arm-none-eabi/include/c++/6.3.1/bits/basic_string.tcc **** 	      _M_data(_M_local_buf);
 114:/home/zkmike/.local/share/renesas/e2_studio/toolchains/gcc_arm/gcc-arm-none-eabi-6-2017-q2-update/arm-none-eabi/include/c++/6.3.1/bits/basic_string.tcc **** 	    }
 115:/home/zkmike/.local/share/renesas/e2_studio/toolchains/gcc_arm/gcc-arm-none-eabi-6-2017-q2-update/arm-none-eabi/include/c++/6.3.1/bits/basic_string.tcc **** 	  else
 116:/home/zkmike/.local/share/renesas/e2_studio/toolchains/gcc_arm/gcc-arm-none-eabi-6-2017-q2-update/arm-none-eabi/include/c++/6.3.1/bits/basic_string.tcc **** 	    {
 117:/home/zkmike/.local/share/renesas/e2_studio/toolchains/gcc_arm/gcc-arm-none-eabi-6-2017-q2-update/arm-none-eabi/include/c++/6.3.1/bits/basic_string.tcc **** 	      pointer __tmp_ptr = _M_data();
 118:/home/zkmike/.local/share/renesas/e2_studio/toolchains/gcc_arm/gcc-arm-none-eabi-6-2017-q2-update/arm-none-eabi/include/c++/6.3.1/bits/basic_string.tcc **** 	      _M_data(__s._M_data());
 119:/home/zkmike/.local/share/renesas/e2_studio/toolchains/gcc_arm/gcc-arm-none-eabi-6-2017-q2-update/arm-none-eabi/include/c++/6.3.1/bits/basic_string.tcc **** 	      __s._M_data(__tmp_ptr);
 120:/home/zkmike/.local/share/renesas/e2_studio/toolchains/gcc_arm/gcc-arm-none-eabi-6-2017-q2-update/arm-none-eabi/include/c++/6.3.1/bits/basic_string.tcc **** 	      _M_capacity(__s._M_allocated_capacity);
 121:/home/zkmike/.local/share/renesas/e2_studio/toolchains/gcc_arm/gcc-arm-none-eabi-6-2017-q2-update/arm-none-eabi/include/c++/6.3.1/bits/basic_string.tcc **** 	    }
 122:/home/zkmike/.local/share/renesas/e2_studio/toolchains/gcc_arm/gcc-arm-none-eabi-6-2017-q2-update/arm-none-eabi/include/c++/6.3.1/bits/basic_string.tcc **** 	  __s._M_capacity(__tmp_capacity);
 123:/home/zkmike/.local/share/renesas/e2_studio/toolchains/gcc_arm/gcc-arm-none-eabi-6-2017-q2-update/arm-none-eabi/include/c++/6.3.1/bits/basic_string.tcc **** 	}
 124:/home/zkmike/.local/share/renesas/e2_studio/toolchains/gcc_arm/gcc-arm-none-eabi-6-2017-q2-update/arm-none-eabi/include/c++/6.3.1/bits/basic_string.tcc **** 
 125:/home/zkmike/.local/share/renesas/e2_studio/toolchains/gcc_arm/gcc-arm-none-eabi-6-2017-q2-update/arm-none-eabi/include/c++/6.3.1/bits/basic_string.tcc ****       const size_type __tmp_length = length();
 126:/home/zkmike/.local/share/renesas/e2_studio/toolchains/gcc_arm/gcc-arm-none-eabi-6-2017-q2-update/arm-none-eabi/include/c++/6.3.1/bits/basic_string.tcc ****       _M_length(__s.length());
 127:/home/zkmike/.local/share/renesas/e2_studio/toolchains/gcc_arm/gcc-arm-none-eabi-6-2017-q2-update/arm-none-eabi/include/c++/6.3.1/bits/basic_string.tcc ****       __s._M_length(__tmp_length);
 128:/home/zkmike/.local/share/renesas/e2_studio/toolchains/gcc_arm/gcc-arm-none-eabi-6-2017-q2-update/arm-none-eabi/include/c++/6.3.1/bits/basic_string.tcc ****     }
 129:/home/zkmike/.local/share/renesas/e2_studio/toolchains/gcc_arm/gcc-arm-none-eabi-6-2017-q2-update/arm-none-eabi/include/c++/6.3.1/bits/basic_string.tcc **** 
 130:/home/zkmike/.local/share/renesas/e2_studio/toolchains/gcc_arm/gcc-arm-none-eabi-6-2017-q2-update/arm-none-eabi/include/c++/6.3.1/bits/basic_string.tcc ****   template<typename _CharT, typename _Traits, typename _Alloc>
 131:/home/zkmike/.local/share/renesas/e2_studio/toolchains/gcc_arm/gcc-arm-none-eabi-6-2017-q2-update/arm-none-eabi/include/c++/6.3.1/bits/basic_string.tcc ****     typename basic_string<_CharT, _Traits, _Alloc>::pointer
 132:/home/zkmike/.local/share/renesas/e2_studio/toolchains/gcc_arm/gcc-arm-none-eabi-6-2017-q2-update/arm-none-eabi/include/c++/6.3.1/bits/basic_string.tcc ****     basic_string<_CharT, _Traits, _Alloc>::
 133:/home/zkmike/.local/share/renesas/e2_studio/toolchains/gcc_arm/gcc-arm-none-eabi-6-2017-q2-update/arm-none-eabi/include/c++/6.3.1/bits/basic_string.tcc ****     _M_create(size_type& __capacity, size_type __old_capacity)
 134:/home/zkmike/.local/share/renesas/e2_studio/toolchains/gcc_arm/gcc-arm-none-eabi-6-2017-q2-update/arm-none-eabi/include/c++/6.3.1/bits/basic_string.tcc ****     {
 135:/home/zkmike/.local/share/renesas/e2_studio/toolchains/gcc_arm/gcc-arm-none-eabi-6-2017-q2-update/arm-none-eabi/include/c++/6.3.1/bits/basic_string.tcc ****       // _GLIBCXX_RESOLVE_LIB_DEFECTS
 136:/home/zkmike/.local/share/renesas/e2_studio/toolchains/gcc_arm/gcc-arm-none-eabi-6-2017-q2-update/arm-none-eabi/include/c++/6.3.1/bits/basic_string.tcc ****       // 83.  String::npos vs. string::max_size()
 137:/home/zkmike/.local/share/renesas/e2_studio/toolchains/gcc_arm/gcc-arm-none-eabi-6-2017-q2-update/arm-none-eabi/include/c++/6.3.1/bits/basic_string.tcc ****       if (__capacity > max_size())
 138:/home/zkmike/.local/share/renesas/e2_studio/toolchains/gcc_arm/gcc-arm-none-eabi-6-2017-q2-update/arm-none-eabi/include/c++/6.3.1/bits/basic_string.tcc **** 	std::__throw_length_error(__N("basic_string::_M_create"));
 139:/home/zkmike/.local/share/renesas/e2_studio/toolchains/gcc_arm/gcc-arm-none-eabi-6-2017-q2-update/arm-none-eabi/include/c++/6.3.1/bits/basic_string.tcc **** 
 140:/home/zkmike/.local/share/renesas/e2_studio/toolchains/gcc_arm/gcc-arm-none-eabi-6-2017-q2-update/arm-none-eabi/include/c++/6.3.1/bits/basic_string.tcc ****       // The below implements an exponential growth policy, necessary to
 141:/home/zkmike/.local/share/renesas/e2_studio/toolchains/gcc_arm/gcc-arm-none-eabi-6-2017-q2-update/arm-none-eabi/include/c++/6.3.1/bits/basic_string.tcc ****       // meet amortized linear time requirements of the library: see
 142:/home/zkmike/.local/share/renesas/e2_studio/toolchains/gcc_arm/gcc-arm-none-eabi-6-2017-q2-update/arm-none-eabi/include/c++/6.3.1/bits/basic_string.tcc ****       // http://gcc.gnu.org/ml/libstdc++/2001-07/msg00085.html.
 143:/home/zkmike/.local/share/renesas/e2_studio/toolchains/gcc_arm/gcc-arm-none-eabi-6-2017-q2-update/arm-none-eabi/include/c++/6.3.1/bits/basic_string.tcc ****       if (__capacity > __old_capacity && __capacity < 2 * __old_capacity)
 144:/home/zkmike/.local/share/renesas/e2_studio/toolchains/gcc_arm/gcc-arm-none-eabi-6-2017-q2-update/arm-none-eabi/include/c++/6.3.1/bits/basic_string.tcc **** 	{
 145:/home/zkmike/.local/share/renesas/e2_studio/toolchains/gcc_arm/gcc-arm-none-eabi-6-2017-q2-update/arm-none-eabi/include/c++/6.3.1/bits/basic_string.tcc **** 	  __capacity = 2 * __old_capacity;
 146:/home/zkmike/.local/share/renesas/e2_studio/toolchains/gcc_arm/gcc-arm-none-eabi-6-2017-q2-update/arm-none-eabi/include/c++/6.3.1/bits/basic_string.tcc **** 	  // Never allocate a string bigger than max_size.
 147:/home/zkmike/.local/share/renesas/e2_studio/toolchains/gcc_arm/gcc-arm-none-eabi-6-2017-q2-update/arm-none-eabi/include/c++/6.3.1/bits/basic_string.tcc **** 	  if (__capacity > max_size())
 148:/home/zkmike/.local/share/renesas/e2_studio/toolchains/gcc_arm/gcc-arm-none-eabi-6-2017-q2-update/arm-none-eabi/include/c++/6.3.1/bits/basic_string.tcc **** 	    __capacity = max_size();
 149:/home/zkmike/.local/share/renesas/e2_studio/toolchains/gcc_arm/gcc-arm-none-eabi-6-2017-q2-update/arm-none-eabi/include/c++/6.3.1/bits/basic_string.tcc **** 	}
 150:/home/zkmike/.local/share/renesas/e2_studio/toolchains/gcc_arm/gcc-arm-none-eabi-6-2017-q2-update/arm-none-eabi/include/c++/6.3.1/bits/basic_string.tcc **** 
 151:/home/zkmike/.local/share/renesas/e2_studio/toolchains/gcc_arm/gcc-arm-none-eabi-6-2017-q2-update/arm-none-eabi/include/c++/6.3.1/bits/basic_string.tcc ****       // NB: Need an array of char_type[__capacity], plus a terminating
 152:/home/zkmike/.local/share/renesas/e2_studio/toolchains/gcc_arm/gcc-arm-none-eabi-6-2017-q2-update/arm-none-eabi/include/c++/6.3.1/bits/basic_string.tcc ****       // null char_type() element.
 153:/home/zkmike/.local/share/renesas/e2_studio/toolchains/gcc_arm/gcc-arm-none-eabi-6-2017-q2-update/arm-none-eabi/include/c++/6.3.1/bits/basic_string.tcc ****       return _Alloc_traits::allocate(_M_get_allocator(), __capacity + 1);
 154:/home/zkmike/.local/share/renesas/e2_studio/toolchains/gcc_arm/gcc-arm-none-eabi-6-2017-q2-update/arm-none-eabi/include/c++/6.3.1/bits/basic_string.tcc ****     }
 155:/home/zkmike/.local/share/renesas/e2_studio/toolchains/gcc_arm/gcc-arm-none-eabi-6-2017-q2-update/arm-none-eabi/include/c++/6.3.1/bits/basic_string.tcc **** 
 156:/home/zkmike/.local/share/renesas/e2_studio/toolchains/gcc_arm/gcc-arm-none-eabi-6-2017-q2-update/arm-none-eabi/include/c++/6.3.1/bits/basic_string.tcc ****   // NB: This is the special case for Input Iterators, used in
 157:/home/zkmike/.local/share/renesas/e2_studio/toolchains/gcc_arm/gcc-arm-none-eabi-6-2017-q2-update/arm-none-eabi/include/c++/6.3.1/bits/basic_string.tcc ****   // istreambuf_iterators, etc.
 158:/home/zkmike/.local/share/renesas/e2_studio/toolchains/gcc_arm/gcc-arm-none-eabi-6-2017-q2-update/arm-none-eabi/include/c++/6.3.1/bits/basic_string.tcc ****   // Input Iterators have a cost structure very different from
 159:/home/zkmike/.local/share/renesas/e2_studio/toolchains/gcc_arm/gcc-arm-none-eabi-6-2017-q2-update/arm-none-eabi/include/c++/6.3.1/bits/basic_string.tcc ****   // pointers, calling for a different coding style.
 160:/home/zkmike/.local/share/renesas/e2_studio/toolchains/gcc_arm/gcc-arm-none-eabi-6-2017-q2-update/arm-none-eabi/include/c++/6.3.1/bits/basic_string.tcc ****   template<typename _CharT, typename _Traits, typename _Alloc>
 161:/home/zkmike/.local/share/renesas/e2_studio/toolchains/gcc_arm/gcc-arm-none-eabi-6-2017-q2-update/arm-none-eabi/include/c++/6.3.1/bits/basic_string.tcc ****     template<typename _InIterator>
 162:/home/zkmike/.local/share/renesas/e2_studio/toolchains/gcc_arm/gcc-arm-none-eabi-6-2017-q2-update/arm-none-eabi/include/c++/6.3.1/bits/basic_string.tcc ****       void
 163:/home/zkmike/.local/share/renesas/e2_studio/toolchains/gcc_arm/gcc-arm-none-eabi-6-2017-q2-update/arm-none-eabi/include/c++/6.3.1/bits/basic_string.tcc ****       basic_string<_CharT, _Traits, _Alloc>::
 164:/home/zkmike/.local/share/renesas/e2_studio/toolchains/gcc_arm/gcc-arm-none-eabi-6-2017-q2-update/arm-none-eabi/include/c++/6.3.1/bits/basic_string.tcc ****       _M_construct(_InIterator __beg, _InIterator __end,
 165:/home/zkmike/.local/share/renesas/e2_studio/toolchains/gcc_arm/gcc-arm-none-eabi-6-2017-q2-update/arm-none-eabi/include/c++/6.3.1/bits/basic_string.tcc **** 		   std::input_iterator_tag)
 166:/home/zkmike/.local/share/renesas/e2_studio/toolchains/gcc_arm/gcc-arm-none-eabi-6-2017-q2-update/arm-none-eabi/include/c++/6.3.1/bits/basic_string.tcc ****       {
 167:/home/zkmike/.local/share/renesas/e2_studio/toolchains/gcc_arm/gcc-arm-none-eabi-6-2017-q2-update/arm-none-eabi/include/c++/6.3.1/bits/basic_string.tcc **** 	size_type __len = 0;
 168:/home/zkmike/.local/share/renesas/e2_studio/toolchains/gcc_arm/gcc-arm-none-eabi-6-2017-q2-update/arm-none-eabi/include/c++/6.3.1/bits/basic_string.tcc **** 	size_type __capacity = size_type(_S_local_capacity);
 169:/home/zkmike/.local/share/renesas/e2_studio/toolchains/gcc_arm/gcc-arm-none-eabi-6-2017-q2-update/arm-none-eabi/include/c++/6.3.1/bits/basic_string.tcc **** 
 170:/home/zkmike/.local/share/renesas/e2_studio/toolchains/gcc_arm/gcc-arm-none-eabi-6-2017-q2-update/arm-none-eabi/include/c++/6.3.1/bits/basic_string.tcc **** 	while (__beg != __end && __len < __capacity)
 171:/home/zkmike/.local/share/renesas/e2_studio/toolchains/gcc_arm/gcc-arm-none-eabi-6-2017-q2-update/arm-none-eabi/include/c++/6.3.1/bits/basic_string.tcc **** 	  {
 172:/home/zkmike/.local/share/renesas/e2_studio/toolchains/gcc_arm/gcc-arm-none-eabi-6-2017-q2-update/arm-none-eabi/include/c++/6.3.1/bits/basic_string.tcc **** 	    _M_data()[__len++] = *__beg;
 173:/home/zkmike/.local/share/renesas/e2_studio/toolchains/gcc_arm/gcc-arm-none-eabi-6-2017-q2-update/arm-none-eabi/include/c++/6.3.1/bits/basic_string.tcc **** 	    ++__beg;
 174:/home/zkmike/.local/share/renesas/e2_studio/toolchains/gcc_arm/gcc-arm-none-eabi-6-2017-q2-update/arm-none-eabi/include/c++/6.3.1/bits/basic_string.tcc **** 	  }
 175:/home/zkmike/.local/share/renesas/e2_studio/toolchains/gcc_arm/gcc-arm-none-eabi-6-2017-q2-update/arm-none-eabi/include/c++/6.3.1/bits/basic_string.tcc **** 
 176:/home/zkmike/.local/share/renesas/e2_studio/toolchains/gcc_arm/gcc-arm-none-eabi-6-2017-q2-update/arm-none-eabi/include/c++/6.3.1/bits/basic_string.tcc **** 	__try
 177:/home/zkmike/.local/share/renesas/e2_studio/toolchains/gcc_arm/gcc-arm-none-eabi-6-2017-q2-update/arm-none-eabi/include/c++/6.3.1/bits/basic_string.tcc **** 	  {
 178:/home/zkmike/.local/share/renesas/e2_studio/toolchains/gcc_arm/gcc-arm-none-eabi-6-2017-q2-update/arm-none-eabi/include/c++/6.3.1/bits/basic_string.tcc **** 	    while (__beg != __end)
 179:/home/zkmike/.local/share/renesas/e2_studio/toolchains/gcc_arm/gcc-arm-none-eabi-6-2017-q2-update/arm-none-eabi/include/c++/6.3.1/bits/basic_string.tcc **** 	      {
 180:/home/zkmike/.local/share/renesas/e2_studio/toolchains/gcc_arm/gcc-arm-none-eabi-6-2017-q2-update/arm-none-eabi/include/c++/6.3.1/bits/basic_string.tcc **** 		if (__len == __capacity)
 181:/home/zkmike/.local/share/renesas/e2_studio/toolchains/gcc_arm/gcc-arm-none-eabi-6-2017-q2-update/arm-none-eabi/include/c++/6.3.1/bits/basic_string.tcc **** 		  {
 182:/home/zkmike/.local/share/renesas/e2_studio/toolchains/gcc_arm/gcc-arm-none-eabi-6-2017-q2-update/arm-none-eabi/include/c++/6.3.1/bits/basic_string.tcc **** 		    // Allocate more space.
 183:/home/zkmike/.local/share/renesas/e2_studio/toolchains/gcc_arm/gcc-arm-none-eabi-6-2017-q2-update/arm-none-eabi/include/c++/6.3.1/bits/basic_string.tcc **** 		    __capacity = __len + 1;
 184:/home/zkmike/.local/share/renesas/e2_studio/toolchains/gcc_arm/gcc-arm-none-eabi-6-2017-q2-update/arm-none-eabi/include/c++/6.3.1/bits/basic_string.tcc **** 		    pointer __another = _M_create(__capacity, __len);
 185:/home/zkmike/.local/share/renesas/e2_studio/toolchains/gcc_arm/gcc-arm-none-eabi-6-2017-q2-update/arm-none-eabi/include/c++/6.3.1/bits/basic_string.tcc **** 		    this->_S_copy(__another, _M_data(), __len);
 186:/home/zkmike/.local/share/renesas/e2_studio/toolchains/gcc_arm/gcc-arm-none-eabi-6-2017-q2-update/arm-none-eabi/include/c++/6.3.1/bits/basic_string.tcc **** 		    _M_dispose();
 187:/home/zkmike/.local/share/renesas/e2_studio/toolchains/gcc_arm/gcc-arm-none-eabi-6-2017-q2-update/arm-none-eabi/include/c++/6.3.1/bits/basic_string.tcc **** 		    _M_data(__another);
 188:/home/zkmike/.local/share/renesas/e2_studio/toolchains/gcc_arm/gcc-arm-none-eabi-6-2017-q2-update/arm-none-eabi/include/c++/6.3.1/bits/basic_string.tcc **** 		    _M_capacity(__capacity);
 189:/home/zkmike/.local/share/renesas/e2_studio/toolchains/gcc_arm/gcc-arm-none-eabi-6-2017-q2-update/arm-none-eabi/include/c++/6.3.1/bits/basic_string.tcc **** 		  }
 190:/home/zkmike/.local/share/renesas/e2_studio/toolchains/gcc_arm/gcc-arm-none-eabi-6-2017-q2-update/arm-none-eabi/include/c++/6.3.1/bits/basic_string.tcc **** 		_M_data()[__len++] = *__beg;
 191:/home/zkmike/.local/share/renesas/e2_studio/toolchains/gcc_arm/gcc-arm-none-eabi-6-2017-q2-update/arm-none-eabi/include/c++/6.3.1/bits/basic_string.tcc **** 		++__beg;
 192:/home/zkmike/.local/share/renesas/e2_studio/toolchains/gcc_arm/gcc-arm-none-eabi-6-2017-q2-update/arm-none-eabi/include/c++/6.3.1/bits/basic_string.tcc **** 	      }
 193:/home/zkmike/.local/share/renesas/e2_studio/toolchains/gcc_arm/gcc-arm-none-eabi-6-2017-q2-update/arm-none-eabi/include/c++/6.3.1/bits/basic_string.tcc **** 	  }
 194:/home/zkmike/.local/share/renesas/e2_studio/toolchains/gcc_arm/gcc-arm-none-eabi-6-2017-q2-update/arm-none-eabi/include/c++/6.3.1/bits/basic_string.tcc **** 	__catch(...)
 195:/home/zkmike/.local/share/renesas/e2_studio/toolchains/gcc_arm/gcc-arm-none-eabi-6-2017-q2-update/arm-none-eabi/include/c++/6.3.1/bits/basic_string.tcc **** 	  {
 196:/home/zkmike/.local/share/renesas/e2_studio/toolchains/gcc_arm/gcc-arm-none-eabi-6-2017-q2-update/arm-none-eabi/include/c++/6.3.1/bits/basic_string.tcc **** 	    _M_dispose();
 197:/home/zkmike/.local/share/renesas/e2_studio/toolchains/gcc_arm/gcc-arm-none-eabi-6-2017-q2-update/arm-none-eabi/include/c++/6.3.1/bits/basic_string.tcc **** 	    __throw_exception_again;
 198:/home/zkmike/.local/share/renesas/e2_studio/toolchains/gcc_arm/gcc-arm-none-eabi-6-2017-q2-update/arm-none-eabi/include/c++/6.3.1/bits/basic_string.tcc **** 	  }
 199:/home/zkmike/.local/share/renesas/e2_studio/toolchains/gcc_arm/gcc-arm-none-eabi-6-2017-q2-update/arm-none-eabi/include/c++/6.3.1/bits/basic_string.tcc **** 
 200:/home/zkmike/.local/share/renesas/e2_studio/toolchains/gcc_arm/gcc-arm-none-eabi-6-2017-q2-update/arm-none-eabi/include/c++/6.3.1/bits/basic_string.tcc **** 	_M_set_length(__len);
 201:/home/zkmike/.local/share/renesas/e2_studio/toolchains/gcc_arm/gcc-arm-none-eabi-6-2017-q2-update/arm-none-eabi/include/c++/6.3.1/bits/basic_string.tcc ****       }
 202:/home/zkmike/.local/share/renesas/e2_studio/toolchains/gcc_arm/gcc-arm-none-eabi-6-2017-q2-update/arm-none-eabi/include/c++/6.3.1/bits/basic_string.tcc **** 
 203:/home/zkmike/.local/share/renesas/e2_studio/toolchains/gcc_arm/gcc-arm-none-eabi-6-2017-q2-update/arm-none-eabi/include/c++/6.3.1/bits/basic_string.tcc ****   template<typename _CharT, typename _Traits, typename _Alloc>
 204:/home/zkmike/.local/share/renesas/e2_studio/toolchains/gcc_arm/gcc-arm-none-eabi-6-2017-q2-update/arm-none-eabi/include/c++/6.3.1/bits/basic_string.tcc ****     template<typename _InIterator>
 205:/home/zkmike/.local/share/renesas/e2_studio/toolchains/gcc_arm/gcc-arm-none-eabi-6-2017-q2-update/arm-none-eabi/include/c++/6.3.1/bits/basic_string.tcc ****       void
 206:/home/zkmike/.local/share/renesas/e2_studio/toolchains/gcc_arm/gcc-arm-none-eabi-6-2017-q2-update/arm-none-eabi/include/c++/6.3.1/bits/basic_string.tcc ****       basic_string<_CharT, _Traits, _Alloc>::
 811              		.loc 9 206 0
 812              		.cfi_startproc
 813              		@ args = 0, pretend = 0, frame = 8
 814              		@ frame_needed = 0, uses_anonymous_args = 0
 815              	.LVL61:
 816 0000 70402DE9 		push	{r4, r5, r6, lr}
 817              		.save {r4, r5, r6, lr}
 818              		.cfi_def_cfa_offset 16
 819              		.cfi_offset 4, -16
 820              		.cfi_offset 5, -12
 821              		.cfi_offset 6, -8
 822              		.cfi_offset 14, -4
 823              		.pad #8
 824 0004 08D04DE2 		sub	sp, sp, #8
 825              		.cfi_def_cfa_offset 24
 826 0008 0050A0E1 		mov	r5, r0
 207:/home/zkmike/.local/share/renesas/e2_studio/toolchains/gcc_arm/gcc-arm-none-eabi-6-2017-q2-update/arm-none-eabi/include/c++/6.3.1/bits/basic_string.tcc ****       _M_construct(_InIterator __beg, _InIterator __end,
 208:/home/zkmike/.local/share/renesas/e2_studio/toolchains/gcc_arm/gcc-arm-none-eabi-6-2017-q2-update/arm-none-eabi/include/c++/6.3.1/bits/basic_string.tcc **** 		   std::forward_iterator_tag)
 209:/home/zkmike/.local/share/renesas/e2_studio/toolchains/gcc_arm/gcc-arm-none-eabi-6-2017-q2-update/arm-none-eabi/include/c++/6.3.1/bits/basic_string.tcc ****       {
 210:/home/zkmike/.local/share/renesas/e2_studio/toolchains/gcc_arm/gcc-arm-none-eabi-6-2017-q2-update/arm-none-eabi/include/c++/6.3.1/bits/basic_string.tcc **** 	// NB: Not required, but considered best practice.
 211:/home/zkmike/.local/share/renesas/e2_studio/toolchains/gcc_arm/gcc-arm-none-eabi-6-2017-q2-update/arm-none-eabi/include/c++/6.3.1/bits/basic_string.tcc **** 	if (__gnu_cxx::__is_null_pointer(__beg) && __beg != __end)
 827              		.loc 9 211 0
 828 000c 006051E2 		subs	r6, r1, #0
 829 0010 1200000A 		beq	.L68
 830 0014 0030A0E3 		mov	r3, #0
 831              	.L60:
 832              		.loc 9 211 0 is_stmt 0 discriminator 6
 833 0018 000053E3 		cmp	r3, #0
 834 001c 1400001A 		bne	.L69
 835              	.LVL62:
 836              	.LBB832:
 837              	.LBB833:
 838              	.LBB834:
 839              		.file 10 "/home/zkmike/.local/share/renesas/e2_studio/toolchains/gcc_arm/gcc-arm-none-eabi-6-2017-
   1:/home/zkmike/.local/share/renesas/e2_studio/toolchains/gcc_arm/gcc-arm-none-eabi-6-2017-q2-update/arm-none-eabi/include/c++/6.3.1/bits/stl_iterator_base_funcs.h **** // Functions used by iterators -*- C++ -*-
   2:/home/zkmike/.local/share/renesas/e2_studio/toolchains/gcc_arm/gcc-arm-none-eabi-6-2017-q2-update/arm-none-eabi/include/c++/6.3.1/bits/stl_iterator_base_funcs.h **** 
   3:/home/zkmike/.local/share/renesas/e2_studio/toolchains/gcc_arm/gcc-arm-none-eabi-6-2017-q2-update/arm-none-eabi/include/c++/6.3.1/bits/stl_iterator_base_funcs.h **** // Copyright (C) 2001-2016 Free Software Foundation, Inc.
   4:/home/zkmike/.local/share/renesas/e2_studio/toolchains/gcc_arm/gcc-arm-none-eabi-6-2017-q2-update/arm-none-eabi/include/c++/6.3.1/bits/stl_iterator_base_funcs.h **** //
   5:/home/zkmike/.local/share/renesas/e2_studio/toolchains/gcc_arm/gcc-arm-none-eabi-6-2017-q2-update/arm-none-eabi/include/c++/6.3.1/bits/stl_iterator_base_funcs.h **** // This file is part of the GNU ISO C++ Library.  This library is free
   6:/home/zkmike/.local/share/renesas/e2_studio/toolchains/gcc_arm/gcc-arm-none-eabi-6-2017-q2-update/arm-none-eabi/include/c++/6.3.1/bits/stl_iterator_base_funcs.h **** // software; you can redistribute it and/or modify it under the
   7:/home/zkmike/.local/share/renesas/e2_studio/toolchains/gcc_arm/gcc-arm-none-eabi-6-2017-q2-update/arm-none-eabi/include/c++/6.3.1/bits/stl_iterator_base_funcs.h **** // terms of the GNU General Public License as published by the
   8:/home/zkmike/.local/share/renesas/e2_studio/toolchains/gcc_arm/gcc-arm-none-eabi-6-2017-q2-update/arm-none-eabi/include/c++/6.3.1/bits/stl_iterator_base_funcs.h **** // Free Software Foundation; either version 3, or (at your option)
   9:/home/zkmike/.local/share/renesas/e2_studio/toolchains/gcc_arm/gcc-arm-none-eabi-6-2017-q2-update/arm-none-eabi/include/c++/6.3.1/bits/stl_iterator_base_funcs.h **** // any later version.
  10:/home/zkmike/.local/share/renesas/e2_studio/toolchains/gcc_arm/gcc-arm-none-eabi-6-2017-q2-update/arm-none-eabi/include/c++/6.3.1/bits/stl_iterator_base_funcs.h **** 
  11:/home/zkmike/.local/share/renesas/e2_studio/toolchains/gcc_arm/gcc-arm-none-eabi-6-2017-q2-update/arm-none-eabi/include/c++/6.3.1/bits/stl_iterator_base_funcs.h **** // This library is distributed in the hope that it will be useful,
  12:/home/zkmike/.local/share/renesas/e2_studio/toolchains/gcc_arm/gcc-arm-none-eabi-6-2017-q2-update/arm-none-eabi/include/c++/6.3.1/bits/stl_iterator_base_funcs.h **** // but WITHOUT ANY WARRANTY; without even the implied warranty of
  13:/home/zkmike/.local/share/renesas/e2_studio/toolchains/gcc_arm/gcc-arm-none-eabi-6-2017-q2-update/arm-none-eabi/include/c++/6.3.1/bits/stl_iterator_base_funcs.h **** // MERCHANTABILITY or FITNESS FOR A PARTICULAR PURPOSE.  See the
  14:/home/zkmike/.local/share/renesas/e2_studio/toolchains/gcc_arm/gcc-arm-none-eabi-6-2017-q2-update/arm-none-eabi/include/c++/6.3.1/bits/stl_iterator_base_funcs.h **** // GNU General Public License for more details.
  15:/home/zkmike/.local/share/renesas/e2_studio/toolchains/gcc_arm/gcc-arm-none-eabi-6-2017-q2-update/arm-none-eabi/include/c++/6.3.1/bits/stl_iterator_base_funcs.h **** 
  16:/home/zkmike/.local/share/renesas/e2_studio/toolchains/gcc_arm/gcc-arm-none-eabi-6-2017-q2-update/arm-none-eabi/include/c++/6.3.1/bits/stl_iterator_base_funcs.h **** // Under Section 7 of GPL version 3, you are granted additional
  17:/home/zkmike/.local/share/renesas/e2_studio/toolchains/gcc_arm/gcc-arm-none-eabi-6-2017-q2-update/arm-none-eabi/include/c++/6.3.1/bits/stl_iterator_base_funcs.h **** // permissions described in the GCC Runtime Library Exception, version
  18:/home/zkmike/.local/share/renesas/e2_studio/toolchains/gcc_arm/gcc-arm-none-eabi-6-2017-q2-update/arm-none-eabi/include/c++/6.3.1/bits/stl_iterator_base_funcs.h **** // 3.1, as published by the Free Software Foundation.
  19:/home/zkmike/.local/share/renesas/e2_studio/toolchains/gcc_arm/gcc-arm-none-eabi-6-2017-q2-update/arm-none-eabi/include/c++/6.3.1/bits/stl_iterator_base_funcs.h **** 
  20:/home/zkmike/.local/share/renesas/e2_studio/toolchains/gcc_arm/gcc-arm-none-eabi-6-2017-q2-update/arm-none-eabi/include/c++/6.3.1/bits/stl_iterator_base_funcs.h **** // You should have received a copy of the GNU General Public License and
  21:/home/zkmike/.local/share/renesas/e2_studio/toolchains/gcc_arm/gcc-arm-none-eabi-6-2017-q2-update/arm-none-eabi/include/c++/6.3.1/bits/stl_iterator_base_funcs.h **** // a copy of the GCC Runtime Library Exception along with this program;
  22:/home/zkmike/.local/share/renesas/e2_studio/toolchains/gcc_arm/gcc-arm-none-eabi-6-2017-q2-update/arm-none-eabi/include/c++/6.3.1/bits/stl_iterator_base_funcs.h **** // see the files COPYING3 and COPYING.RUNTIME respectively.  If not, see
  23:/home/zkmike/.local/share/renesas/e2_studio/toolchains/gcc_arm/gcc-arm-none-eabi-6-2017-q2-update/arm-none-eabi/include/c++/6.3.1/bits/stl_iterator_base_funcs.h **** // <http://www.gnu.org/licenses/>.
  24:/home/zkmike/.local/share/renesas/e2_studio/toolchains/gcc_arm/gcc-arm-none-eabi-6-2017-q2-update/arm-none-eabi/include/c++/6.3.1/bits/stl_iterator_base_funcs.h **** 
  25:/home/zkmike/.local/share/renesas/e2_studio/toolchains/gcc_arm/gcc-arm-none-eabi-6-2017-q2-update/arm-none-eabi/include/c++/6.3.1/bits/stl_iterator_base_funcs.h **** /*
  26:/home/zkmike/.local/share/renesas/e2_studio/toolchains/gcc_arm/gcc-arm-none-eabi-6-2017-q2-update/arm-none-eabi/include/c++/6.3.1/bits/stl_iterator_base_funcs.h ****  *
  27:/home/zkmike/.local/share/renesas/e2_studio/toolchains/gcc_arm/gcc-arm-none-eabi-6-2017-q2-update/arm-none-eabi/include/c++/6.3.1/bits/stl_iterator_base_funcs.h ****  * Copyright (c) 1994
  28:/home/zkmike/.local/share/renesas/e2_studio/toolchains/gcc_arm/gcc-arm-none-eabi-6-2017-q2-update/arm-none-eabi/include/c++/6.3.1/bits/stl_iterator_base_funcs.h ****  * Hewlett-Packard Company
  29:/home/zkmike/.local/share/renesas/e2_studio/toolchains/gcc_arm/gcc-arm-none-eabi-6-2017-q2-update/arm-none-eabi/include/c++/6.3.1/bits/stl_iterator_base_funcs.h ****  *
  30:/home/zkmike/.local/share/renesas/e2_studio/toolchains/gcc_arm/gcc-arm-none-eabi-6-2017-q2-update/arm-none-eabi/include/c++/6.3.1/bits/stl_iterator_base_funcs.h ****  * Permission to use, copy, modify, distribute and sell this software
  31:/home/zkmike/.local/share/renesas/e2_studio/toolchains/gcc_arm/gcc-arm-none-eabi-6-2017-q2-update/arm-none-eabi/include/c++/6.3.1/bits/stl_iterator_base_funcs.h ****  * and its documentation for any purpose is hereby granted without fee,
  32:/home/zkmike/.local/share/renesas/e2_studio/toolchains/gcc_arm/gcc-arm-none-eabi-6-2017-q2-update/arm-none-eabi/include/c++/6.3.1/bits/stl_iterator_base_funcs.h ****  * provided that the above copyright notice appear in all copies and
  33:/home/zkmike/.local/share/renesas/e2_studio/toolchains/gcc_arm/gcc-arm-none-eabi-6-2017-q2-update/arm-none-eabi/include/c++/6.3.1/bits/stl_iterator_base_funcs.h ****  * that both that copyright notice and this permission notice appear
  34:/home/zkmike/.local/share/renesas/e2_studio/toolchains/gcc_arm/gcc-arm-none-eabi-6-2017-q2-update/arm-none-eabi/include/c++/6.3.1/bits/stl_iterator_base_funcs.h ****  * in supporting documentation.  Hewlett-Packard Company makes no
  35:/home/zkmike/.local/share/renesas/e2_studio/toolchains/gcc_arm/gcc-arm-none-eabi-6-2017-q2-update/arm-none-eabi/include/c++/6.3.1/bits/stl_iterator_base_funcs.h ****  * representations about the suitability of this software for any
  36:/home/zkmike/.local/share/renesas/e2_studio/toolchains/gcc_arm/gcc-arm-none-eabi-6-2017-q2-update/arm-none-eabi/include/c++/6.3.1/bits/stl_iterator_base_funcs.h ****  * purpose.  It is provided "as is" without express or implied warranty.
  37:/home/zkmike/.local/share/renesas/e2_studio/toolchains/gcc_arm/gcc-arm-none-eabi-6-2017-q2-update/arm-none-eabi/include/c++/6.3.1/bits/stl_iterator_base_funcs.h ****  *
  38:/home/zkmike/.local/share/renesas/e2_studio/toolchains/gcc_arm/gcc-arm-none-eabi-6-2017-q2-update/arm-none-eabi/include/c++/6.3.1/bits/stl_iterator_base_funcs.h ****  *
  39:/home/zkmike/.local/share/renesas/e2_studio/toolchains/gcc_arm/gcc-arm-none-eabi-6-2017-q2-update/arm-none-eabi/include/c++/6.3.1/bits/stl_iterator_base_funcs.h ****  * Copyright (c) 1996-1998
  40:/home/zkmike/.local/share/renesas/e2_studio/toolchains/gcc_arm/gcc-arm-none-eabi-6-2017-q2-update/arm-none-eabi/include/c++/6.3.1/bits/stl_iterator_base_funcs.h ****  * Silicon Graphics Computer Systems, Inc.
  41:/home/zkmike/.local/share/renesas/e2_studio/toolchains/gcc_arm/gcc-arm-none-eabi-6-2017-q2-update/arm-none-eabi/include/c++/6.3.1/bits/stl_iterator_base_funcs.h ****  *
  42:/home/zkmike/.local/share/renesas/e2_studio/toolchains/gcc_arm/gcc-arm-none-eabi-6-2017-q2-update/arm-none-eabi/include/c++/6.3.1/bits/stl_iterator_base_funcs.h ****  * Permission to use, copy, modify, distribute and sell this software
  43:/home/zkmike/.local/share/renesas/e2_studio/toolchains/gcc_arm/gcc-arm-none-eabi-6-2017-q2-update/arm-none-eabi/include/c++/6.3.1/bits/stl_iterator_base_funcs.h ****  * and its documentation for any purpose is hereby granted without fee,
  44:/home/zkmike/.local/share/renesas/e2_studio/toolchains/gcc_arm/gcc-arm-none-eabi-6-2017-q2-update/arm-none-eabi/include/c++/6.3.1/bits/stl_iterator_base_funcs.h ****  * provided that the above copyright notice appear in all copies and
  45:/home/zkmike/.local/share/renesas/e2_studio/toolchains/gcc_arm/gcc-arm-none-eabi-6-2017-q2-update/arm-none-eabi/include/c++/6.3.1/bits/stl_iterator_base_funcs.h ****  * that both that copyright notice and this permission notice appear
  46:/home/zkmike/.local/share/renesas/e2_studio/toolchains/gcc_arm/gcc-arm-none-eabi-6-2017-q2-update/arm-none-eabi/include/c++/6.3.1/bits/stl_iterator_base_funcs.h ****  * in supporting documentation.  Silicon Graphics makes no
  47:/home/zkmike/.local/share/renesas/e2_studio/toolchains/gcc_arm/gcc-arm-none-eabi-6-2017-q2-update/arm-none-eabi/include/c++/6.3.1/bits/stl_iterator_base_funcs.h ****  * representations about the suitability of this software for any
  48:/home/zkmike/.local/share/renesas/e2_studio/toolchains/gcc_arm/gcc-arm-none-eabi-6-2017-q2-update/arm-none-eabi/include/c++/6.3.1/bits/stl_iterator_base_funcs.h ****  * purpose.  It is provided "as is" without express or implied warranty.
  49:/home/zkmike/.local/share/renesas/e2_studio/toolchains/gcc_arm/gcc-arm-none-eabi-6-2017-q2-update/arm-none-eabi/include/c++/6.3.1/bits/stl_iterator_base_funcs.h ****  */
  50:/home/zkmike/.local/share/renesas/e2_studio/toolchains/gcc_arm/gcc-arm-none-eabi-6-2017-q2-update/arm-none-eabi/include/c++/6.3.1/bits/stl_iterator_base_funcs.h **** 
  51:/home/zkmike/.local/share/renesas/e2_studio/toolchains/gcc_arm/gcc-arm-none-eabi-6-2017-q2-update/arm-none-eabi/include/c++/6.3.1/bits/stl_iterator_base_funcs.h **** /** @file bits/stl_iterator_base_funcs.h
  52:/home/zkmike/.local/share/renesas/e2_studio/toolchains/gcc_arm/gcc-arm-none-eabi-6-2017-q2-update/arm-none-eabi/include/c++/6.3.1/bits/stl_iterator_base_funcs.h ****  *  This is an internal header file, included by other library headers.
  53:/home/zkmike/.local/share/renesas/e2_studio/toolchains/gcc_arm/gcc-arm-none-eabi-6-2017-q2-update/arm-none-eabi/include/c++/6.3.1/bits/stl_iterator_base_funcs.h ****  *  Do not attempt to use it directly. @headername{iterator}
  54:/home/zkmike/.local/share/renesas/e2_studio/toolchains/gcc_arm/gcc-arm-none-eabi-6-2017-q2-update/arm-none-eabi/include/c++/6.3.1/bits/stl_iterator_base_funcs.h ****  *
  55:/home/zkmike/.local/share/renesas/e2_studio/toolchains/gcc_arm/gcc-arm-none-eabi-6-2017-q2-update/arm-none-eabi/include/c++/6.3.1/bits/stl_iterator_base_funcs.h ****  *  This file contains all of the general iterator-related utility
  56:/home/zkmike/.local/share/renesas/e2_studio/toolchains/gcc_arm/gcc-arm-none-eabi-6-2017-q2-update/arm-none-eabi/include/c++/6.3.1/bits/stl_iterator_base_funcs.h ****  *  functions, such as distance() and advance().
  57:/home/zkmike/.local/share/renesas/e2_studio/toolchains/gcc_arm/gcc-arm-none-eabi-6-2017-q2-update/arm-none-eabi/include/c++/6.3.1/bits/stl_iterator_base_funcs.h ****  */
  58:/home/zkmike/.local/share/renesas/e2_studio/toolchains/gcc_arm/gcc-arm-none-eabi-6-2017-q2-update/arm-none-eabi/include/c++/6.3.1/bits/stl_iterator_base_funcs.h **** 
  59:/home/zkmike/.local/share/renesas/e2_studio/toolchains/gcc_arm/gcc-arm-none-eabi-6-2017-q2-update/arm-none-eabi/include/c++/6.3.1/bits/stl_iterator_base_funcs.h **** #ifndef _STL_ITERATOR_BASE_FUNCS_H
  60:/home/zkmike/.local/share/renesas/e2_studio/toolchains/gcc_arm/gcc-arm-none-eabi-6-2017-q2-update/arm-none-eabi/include/c++/6.3.1/bits/stl_iterator_base_funcs.h **** #define _STL_ITERATOR_BASE_FUNCS_H 1
  61:/home/zkmike/.local/share/renesas/e2_studio/toolchains/gcc_arm/gcc-arm-none-eabi-6-2017-q2-update/arm-none-eabi/include/c++/6.3.1/bits/stl_iterator_base_funcs.h **** 
  62:/home/zkmike/.local/share/renesas/e2_studio/toolchains/gcc_arm/gcc-arm-none-eabi-6-2017-q2-update/arm-none-eabi/include/c++/6.3.1/bits/stl_iterator_base_funcs.h **** #pragma GCC system_header
  63:/home/zkmike/.local/share/renesas/e2_studio/toolchains/gcc_arm/gcc-arm-none-eabi-6-2017-q2-update/arm-none-eabi/include/c++/6.3.1/bits/stl_iterator_base_funcs.h **** 
  64:/home/zkmike/.local/share/renesas/e2_studio/toolchains/gcc_arm/gcc-arm-none-eabi-6-2017-q2-update/arm-none-eabi/include/c++/6.3.1/bits/stl_iterator_base_funcs.h **** #include <bits/concept_check.h>
  65:/home/zkmike/.local/share/renesas/e2_studio/toolchains/gcc_arm/gcc-arm-none-eabi-6-2017-q2-update/arm-none-eabi/include/c++/6.3.1/bits/stl_iterator_base_funcs.h **** #include <debug/assertions.h>
  66:/home/zkmike/.local/share/renesas/e2_studio/toolchains/gcc_arm/gcc-arm-none-eabi-6-2017-q2-update/arm-none-eabi/include/c++/6.3.1/bits/stl_iterator_base_funcs.h **** 
  67:/home/zkmike/.local/share/renesas/e2_studio/toolchains/gcc_arm/gcc-arm-none-eabi-6-2017-q2-update/arm-none-eabi/include/c++/6.3.1/bits/stl_iterator_base_funcs.h **** namespace std _GLIBCXX_VISIBILITY(default)
  68:/home/zkmike/.local/share/renesas/e2_studio/toolchains/gcc_arm/gcc-arm-none-eabi-6-2017-q2-update/arm-none-eabi/include/c++/6.3.1/bits/stl_iterator_base_funcs.h **** {
  69:/home/zkmike/.local/share/renesas/e2_studio/toolchains/gcc_arm/gcc-arm-none-eabi-6-2017-q2-update/arm-none-eabi/include/c++/6.3.1/bits/stl_iterator_base_funcs.h **** _GLIBCXX_BEGIN_NAMESPACE_CONTAINER
  70:/home/zkmike/.local/share/renesas/e2_studio/toolchains/gcc_arm/gcc-arm-none-eabi-6-2017-q2-update/arm-none-eabi/include/c++/6.3.1/bits/stl_iterator_base_funcs.h ****   // Forward declaration for the overloads of __distance.
  71:/home/zkmike/.local/share/renesas/e2_studio/toolchains/gcc_arm/gcc-arm-none-eabi-6-2017-q2-update/arm-none-eabi/include/c++/6.3.1/bits/stl_iterator_base_funcs.h ****   template <typename> struct _List_iterator;
  72:/home/zkmike/.local/share/renesas/e2_studio/toolchains/gcc_arm/gcc-arm-none-eabi-6-2017-q2-update/arm-none-eabi/include/c++/6.3.1/bits/stl_iterator_base_funcs.h ****   template <typename> struct _List_const_iterator;
  73:/home/zkmike/.local/share/renesas/e2_studio/toolchains/gcc_arm/gcc-arm-none-eabi-6-2017-q2-update/arm-none-eabi/include/c++/6.3.1/bits/stl_iterator_base_funcs.h **** _GLIBCXX_END_NAMESPACE_CONTAINER
  74:/home/zkmike/.local/share/renesas/e2_studio/toolchains/gcc_arm/gcc-arm-none-eabi-6-2017-q2-update/arm-none-eabi/include/c++/6.3.1/bits/stl_iterator_base_funcs.h **** 
  75:/home/zkmike/.local/share/renesas/e2_studio/toolchains/gcc_arm/gcc-arm-none-eabi-6-2017-q2-update/arm-none-eabi/include/c++/6.3.1/bits/stl_iterator_base_funcs.h **** _GLIBCXX_BEGIN_NAMESPACE_VERSION
  76:/home/zkmike/.local/share/renesas/e2_studio/toolchains/gcc_arm/gcc-arm-none-eabi-6-2017-q2-update/arm-none-eabi/include/c++/6.3.1/bits/stl_iterator_base_funcs.h **** 
  77:/home/zkmike/.local/share/renesas/e2_studio/toolchains/gcc_arm/gcc-arm-none-eabi-6-2017-q2-update/arm-none-eabi/include/c++/6.3.1/bits/stl_iterator_base_funcs.h ****   template<typename _InputIterator>
  78:/home/zkmike/.local/share/renesas/e2_studio/toolchains/gcc_arm/gcc-arm-none-eabi-6-2017-q2-update/arm-none-eabi/include/c++/6.3.1/bits/stl_iterator_base_funcs.h ****     inline typename iterator_traits<_InputIterator>::difference_type
  79:/home/zkmike/.local/share/renesas/e2_studio/toolchains/gcc_arm/gcc-arm-none-eabi-6-2017-q2-update/arm-none-eabi/include/c++/6.3.1/bits/stl_iterator_base_funcs.h ****     __distance(_InputIterator __first, _InputIterator __last,
  80:/home/zkmike/.local/share/renesas/e2_studio/toolchains/gcc_arm/gcc-arm-none-eabi-6-2017-q2-update/arm-none-eabi/include/c++/6.3.1/bits/stl_iterator_base_funcs.h ****                input_iterator_tag)
  81:/home/zkmike/.local/share/renesas/e2_studio/toolchains/gcc_arm/gcc-arm-none-eabi-6-2017-q2-update/arm-none-eabi/include/c++/6.3.1/bits/stl_iterator_base_funcs.h ****     {
  82:/home/zkmike/.local/share/renesas/e2_studio/toolchains/gcc_arm/gcc-arm-none-eabi-6-2017-q2-update/arm-none-eabi/include/c++/6.3.1/bits/stl_iterator_base_funcs.h ****       // concept requirements
  83:/home/zkmike/.local/share/renesas/e2_studio/toolchains/gcc_arm/gcc-arm-none-eabi-6-2017-q2-update/arm-none-eabi/include/c++/6.3.1/bits/stl_iterator_base_funcs.h ****       __glibcxx_function_requires(_InputIteratorConcept<_InputIterator>)
  84:/home/zkmike/.local/share/renesas/e2_studio/toolchains/gcc_arm/gcc-arm-none-eabi-6-2017-q2-update/arm-none-eabi/include/c++/6.3.1/bits/stl_iterator_base_funcs.h **** 
  85:/home/zkmike/.local/share/renesas/e2_studio/toolchains/gcc_arm/gcc-arm-none-eabi-6-2017-q2-update/arm-none-eabi/include/c++/6.3.1/bits/stl_iterator_base_funcs.h ****       typename iterator_traits<_InputIterator>::difference_type __n = 0;
  86:/home/zkmike/.local/share/renesas/e2_studio/toolchains/gcc_arm/gcc-arm-none-eabi-6-2017-q2-update/arm-none-eabi/include/c++/6.3.1/bits/stl_iterator_base_funcs.h ****       while (__first != __last)
  87:/home/zkmike/.local/share/renesas/e2_studio/toolchains/gcc_arm/gcc-arm-none-eabi-6-2017-q2-update/arm-none-eabi/include/c++/6.3.1/bits/stl_iterator_base_funcs.h **** 	{
  88:/home/zkmike/.local/share/renesas/e2_studio/toolchains/gcc_arm/gcc-arm-none-eabi-6-2017-q2-update/arm-none-eabi/include/c++/6.3.1/bits/stl_iterator_base_funcs.h **** 	  ++__first;
  89:/home/zkmike/.local/share/renesas/e2_studio/toolchains/gcc_arm/gcc-arm-none-eabi-6-2017-q2-update/arm-none-eabi/include/c++/6.3.1/bits/stl_iterator_base_funcs.h **** 	  ++__n;
  90:/home/zkmike/.local/share/renesas/e2_studio/toolchains/gcc_arm/gcc-arm-none-eabi-6-2017-q2-update/arm-none-eabi/include/c++/6.3.1/bits/stl_iterator_base_funcs.h **** 	}
  91:/home/zkmike/.local/share/renesas/e2_studio/toolchains/gcc_arm/gcc-arm-none-eabi-6-2017-q2-update/arm-none-eabi/include/c++/6.3.1/bits/stl_iterator_base_funcs.h ****       return __n;
  92:/home/zkmike/.local/share/renesas/e2_studio/toolchains/gcc_arm/gcc-arm-none-eabi-6-2017-q2-update/arm-none-eabi/include/c++/6.3.1/bits/stl_iterator_base_funcs.h ****     }
  93:/home/zkmike/.local/share/renesas/e2_studio/toolchains/gcc_arm/gcc-arm-none-eabi-6-2017-q2-update/arm-none-eabi/include/c++/6.3.1/bits/stl_iterator_base_funcs.h **** 
  94:/home/zkmike/.local/share/renesas/e2_studio/toolchains/gcc_arm/gcc-arm-none-eabi-6-2017-q2-update/arm-none-eabi/include/c++/6.3.1/bits/stl_iterator_base_funcs.h ****   template<typename _RandomAccessIterator>
  95:/home/zkmike/.local/share/renesas/e2_studio/toolchains/gcc_arm/gcc-arm-none-eabi-6-2017-q2-update/arm-none-eabi/include/c++/6.3.1/bits/stl_iterator_base_funcs.h ****     inline typename iterator_traits<_RandomAccessIterator>::difference_type
  96:/home/zkmike/.local/share/renesas/e2_studio/toolchains/gcc_arm/gcc-arm-none-eabi-6-2017-q2-update/arm-none-eabi/include/c++/6.3.1/bits/stl_iterator_base_funcs.h ****     __distance(_RandomAccessIterator __first, _RandomAccessIterator __last,
  97:/home/zkmike/.local/share/renesas/e2_studio/toolchains/gcc_arm/gcc-arm-none-eabi-6-2017-q2-update/arm-none-eabi/include/c++/6.3.1/bits/stl_iterator_base_funcs.h ****                random_access_iterator_tag)
  98:/home/zkmike/.local/share/renesas/e2_studio/toolchains/gcc_arm/gcc-arm-none-eabi-6-2017-q2-update/arm-none-eabi/include/c++/6.3.1/bits/stl_iterator_base_funcs.h ****     {
  99:/home/zkmike/.local/share/renesas/e2_studio/toolchains/gcc_arm/gcc-arm-none-eabi-6-2017-q2-update/arm-none-eabi/include/c++/6.3.1/bits/stl_iterator_base_funcs.h ****       // concept requirements
 100:/home/zkmike/.local/share/renesas/e2_studio/toolchains/gcc_arm/gcc-arm-none-eabi-6-2017-q2-update/arm-none-eabi/include/c++/6.3.1/bits/stl_iterator_base_funcs.h ****       __glibcxx_function_requires(_RandomAccessIteratorConcept<
 101:/home/zkmike/.local/share/renesas/e2_studio/toolchains/gcc_arm/gcc-arm-none-eabi-6-2017-q2-update/arm-none-eabi/include/c++/6.3.1/bits/stl_iterator_base_funcs.h **** 				  _RandomAccessIterator>)
 102:/home/zkmike/.local/share/renesas/e2_studio/toolchains/gcc_arm/gcc-arm-none-eabi-6-2017-q2-update/arm-none-eabi/include/c++/6.3.1/bits/stl_iterator_base_funcs.h ****       return __last - __first;
 840              		.loc 10 102 0 is_stmt 1
 841 0020 064042E0 		sub	r4, r2, r6
 842              	.LVL63:
 843              	.LBE834:
 844              	.LBE833:
 845              	.LBE832:
 212:/home/zkmike/.local/share/renesas/e2_studio/toolchains/gcc_arm/gcc-arm-none-eabi-6-2017-q2-update/arm-none-eabi/include/c++/6.3.1/bits/basic_string.tcc **** 	  std::__throw_logic_error(__N("basic_string::"
 213:/home/zkmike/.local/share/renesas/e2_studio/toolchains/gcc_arm/gcc-arm-none-eabi-6-2017-q2-update/arm-none-eabi/include/c++/6.3.1/bits/basic_string.tcc **** 				       "_M_construct null not valid"));
 214:/home/zkmike/.local/share/renesas/e2_studio/toolchains/gcc_arm/gcc-arm-none-eabi-6-2017-q2-update/arm-none-eabi/include/c++/6.3.1/bits/basic_string.tcc **** 
 215:/home/zkmike/.local/share/renesas/e2_studio/toolchains/gcc_arm/gcc-arm-none-eabi-6-2017-q2-update/arm-none-eabi/include/c++/6.3.1/bits/basic_string.tcc **** 	size_type __dnew = static_cast<size_type>(std::distance(__beg, __end));
 846              		.loc 9 215 0
 847 0024 04408DE5 		str	r4, [sp, #4]
 216:/home/zkmike/.local/share/renesas/e2_studio/toolchains/gcc_arm/gcc-arm-none-eabi-6-2017-q2-update/arm-none-eabi/include/c++/6.3.1/bits/basic_string.tcc **** 
 217:/home/zkmike/.local/share/renesas/e2_studio/toolchains/gcc_arm/gcc-arm-none-eabi-6-2017-q2-update/arm-none-eabi/include/c++/6.3.1/bits/basic_string.tcc **** 	if (__dnew > size_type(_S_local_capacity))
 848              		.loc 9 217 0
 849 0028 0F0054E3 		cmp	r4, #15
 850 002c 1300008A 		bhi	.L70
 851              	.LVL64:
 852              	.L62:
 853              	.LBB835:
 854              	.LBB836:
 136:/home/zkmike/.local/share/renesas/e2_studio/toolchains/gcc_arm/gcc-arm-none-eabi-6-2017-q2-update/arm-none-eabi/include/c++/6.3.1/bits/basic_string.h **** 
 855              		.loc 3 136 0
 856 0030 000095E5 		ldr	r0, [r5]
 857              	.LVL65:
 858              	.LBE836:
 859              	.LBE835:
 860              	.LBB837:
 861              	.LBB838:
 862              	.LBB839:
 181:/home/zkmike/.local/share/renesas/e2_studio/toolchains/gcc_arm/gcc-arm-none-eabi-6-2017-q2-update/arm-none-eabi/include/c++/6.3.1/bits/basic_string.h **** 	  _M_destroy(_M_allocated_capacity);
 182:/home/zkmike/.local/share/renesas/e2_studio/toolchains/gcc_arm/gcc-arm-none-eabi-6-2017-q2-update/arm-none-eabi/include/c++/6.3.1/bits/basic_string.h ****       }
 183:/home/zkmike/.local/share/renesas/e2_studio/toolchains/gcc_arm/gcc-arm-none-eabi-6-2017-q2-update/arm-none-eabi/include/c++/6.3.1/bits/basic_string.h **** 
 184:/home/zkmike/.local/share/renesas/e2_studio/toolchains/gcc_arm/gcc-arm-none-eabi-6-2017-q2-update/arm-none-eabi/include/c++/6.3.1/bits/basic_string.h ****       void
 185:/home/zkmike/.local/share/renesas/e2_studio/toolchains/gcc_arm/gcc-arm-none-eabi-6-2017-q2-update/arm-none-eabi/include/c++/6.3.1/bits/basic_string.h ****       _M_destroy(size_type __size) throw()
 186:/home/zkmike/.local/share/renesas/e2_studio/toolchains/gcc_arm/gcc-arm-none-eabi-6-2017-q2-update/arm-none-eabi/include/c++/6.3.1/bits/basic_string.h ****       { _Alloc_traits::deallocate(_M_get_allocator(), _M_data(), __size + 1); }
 187:/home/zkmike/.local/share/renesas/e2_studio/toolchains/gcc_arm/gcc-arm-none-eabi-6-2017-q2-update/arm-none-eabi/include/c++/6.3.1/bits/basic_string.h **** 
 188:/home/zkmike/.local/share/renesas/e2_studio/toolchains/gcc_arm/gcc-arm-none-eabi-6-2017-q2-update/arm-none-eabi/include/c++/6.3.1/bits/basic_string.h ****       // _M_construct_aux is used to implement the 21.3.1 para 15 which
 189:/home/zkmike/.local/share/renesas/e2_studio/toolchains/gcc_arm/gcc-arm-none-eabi-6-2017-q2-update/arm-none-eabi/include/c++/6.3.1/bits/basic_string.h ****       // requires special behaviour if _InIterator is an integral type
 190:/home/zkmike/.local/share/renesas/e2_studio/toolchains/gcc_arm/gcc-arm-none-eabi-6-2017-q2-update/arm-none-eabi/include/c++/6.3.1/bits/basic_string.h ****       template<typename _InIterator>
 191:/home/zkmike/.local/share/renesas/e2_studio/toolchains/gcc_arm/gcc-arm-none-eabi-6-2017-q2-update/arm-none-eabi/include/c++/6.3.1/bits/basic_string.h ****         void
 192:/home/zkmike/.local/share/renesas/e2_studio/toolchains/gcc_arm/gcc-arm-none-eabi-6-2017-q2-update/arm-none-eabi/include/c++/6.3.1/bits/basic_string.h ****         _M_construct_aux(_InIterator __beg, _InIterator __end,
 193:/home/zkmike/.local/share/renesas/e2_studio/toolchains/gcc_arm/gcc-arm-none-eabi-6-2017-q2-update/arm-none-eabi/include/c++/6.3.1/bits/basic_string.h **** 			 std::__false_type)
 194:/home/zkmike/.local/share/renesas/e2_studio/toolchains/gcc_arm/gcc-arm-none-eabi-6-2017-q2-update/arm-none-eabi/include/c++/6.3.1/bits/basic_string.h **** 	{
 195:/home/zkmike/.local/share/renesas/e2_studio/toolchains/gcc_arm/gcc-arm-none-eabi-6-2017-q2-update/arm-none-eabi/include/c++/6.3.1/bits/basic_string.h ****           typedef typename iterator_traits<_InIterator>::iterator_category _Tag;
 196:/home/zkmike/.local/share/renesas/e2_studio/toolchains/gcc_arm/gcc-arm-none-eabi-6-2017-q2-update/arm-none-eabi/include/c++/6.3.1/bits/basic_string.h ****           _M_construct(__beg, __end, _Tag());
 197:/home/zkmike/.local/share/renesas/e2_studio/toolchains/gcc_arm/gcc-arm-none-eabi-6-2017-q2-update/arm-none-eabi/include/c++/6.3.1/bits/basic_string.h **** 	}
 198:/home/zkmike/.local/share/renesas/e2_studio/toolchains/gcc_arm/gcc-arm-none-eabi-6-2017-q2-update/arm-none-eabi/include/c++/6.3.1/bits/basic_string.h **** 
 199:/home/zkmike/.local/share/renesas/e2_studio/toolchains/gcc_arm/gcc-arm-none-eabi-6-2017-q2-update/arm-none-eabi/include/c++/6.3.1/bits/basic_string.h ****       // _GLIBCXX_RESOLVE_LIB_DEFECTS
 200:/home/zkmike/.local/share/renesas/e2_studio/toolchains/gcc_arm/gcc-arm-none-eabi-6-2017-q2-update/arm-none-eabi/include/c++/6.3.1/bits/basic_string.h ****       // 438. Ambiguity in the "do the right thing" clause
 201:/home/zkmike/.local/share/renesas/e2_studio/toolchains/gcc_arm/gcc-arm-none-eabi-6-2017-q2-update/arm-none-eabi/include/c++/6.3.1/bits/basic_string.h ****       template<typename _Integer>
 202:/home/zkmike/.local/share/renesas/e2_studio/toolchains/gcc_arm/gcc-arm-none-eabi-6-2017-q2-update/arm-none-eabi/include/c++/6.3.1/bits/basic_string.h ****         void
 203:/home/zkmike/.local/share/renesas/e2_studio/toolchains/gcc_arm/gcc-arm-none-eabi-6-2017-q2-update/arm-none-eabi/include/c++/6.3.1/bits/basic_string.h ****         _M_construct_aux(_Integer __beg, _Integer __end, std::__true_type)
 204:/home/zkmike/.local/share/renesas/e2_studio/toolchains/gcc_arm/gcc-arm-none-eabi-6-2017-q2-update/arm-none-eabi/include/c++/6.3.1/bits/basic_string.h **** 	{ _M_construct_aux_2(static_cast<size_type>(__beg), __end); }
 205:/home/zkmike/.local/share/renesas/e2_studio/toolchains/gcc_arm/gcc-arm-none-eabi-6-2017-q2-update/arm-none-eabi/include/c++/6.3.1/bits/basic_string.h **** 
 206:/home/zkmike/.local/share/renesas/e2_studio/toolchains/gcc_arm/gcc-arm-none-eabi-6-2017-q2-update/arm-none-eabi/include/c++/6.3.1/bits/basic_string.h ****       void
 207:/home/zkmike/.local/share/renesas/e2_studio/toolchains/gcc_arm/gcc-arm-none-eabi-6-2017-q2-update/arm-none-eabi/include/c++/6.3.1/bits/basic_string.h ****       _M_construct_aux_2(size_type __req, _CharT __c)
 208:/home/zkmike/.local/share/renesas/e2_studio/toolchains/gcc_arm/gcc-arm-none-eabi-6-2017-q2-update/arm-none-eabi/include/c++/6.3.1/bits/basic_string.h ****       { _M_construct(__req, __c); }
 209:/home/zkmike/.local/share/renesas/e2_studio/toolchains/gcc_arm/gcc-arm-none-eabi-6-2017-q2-update/arm-none-eabi/include/c++/6.3.1/bits/basic_string.h **** 
 210:/home/zkmike/.local/share/renesas/e2_studio/toolchains/gcc_arm/gcc-arm-none-eabi-6-2017-q2-update/arm-none-eabi/include/c++/6.3.1/bits/basic_string.h ****       template<typename _InIterator>
 211:/home/zkmike/.local/share/renesas/e2_studio/toolchains/gcc_arm/gcc-arm-none-eabi-6-2017-q2-update/arm-none-eabi/include/c++/6.3.1/bits/basic_string.h ****         void
 212:/home/zkmike/.local/share/renesas/e2_studio/toolchains/gcc_arm/gcc-arm-none-eabi-6-2017-q2-update/arm-none-eabi/include/c++/6.3.1/bits/basic_string.h ****         _M_construct(_InIterator __beg, _InIterator __end)
 213:/home/zkmike/.local/share/renesas/e2_studio/toolchains/gcc_arm/gcc-arm-none-eabi-6-2017-q2-update/arm-none-eabi/include/c++/6.3.1/bits/basic_string.h **** 	{
 214:/home/zkmike/.local/share/renesas/e2_studio/toolchains/gcc_arm/gcc-arm-none-eabi-6-2017-q2-update/arm-none-eabi/include/c++/6.3.1/bits/basic_string.h **** 	  typedef typename std::__is_integer<_InIterator>::__type _Integral;
 215:/home/zkmike/.local/share/renesas/e2_studio/toolchains/gcc_arm/gcc-arm-none-eabi-6-2017-q2-update/arm-none-eabi/include/c++/6.3.1/bits/basic_string.h **** 	  _M_construct_aux(__beg, __end, _Integral());
 216:/home/zkmike/.local/share/renesas/e2_studio/toolchains/gcc_arm/gcc-arm-none-eabi-6-2017-q2-update/arm-none-eabi/include/c++/6.3.1/bits/basic_string.h ****         }
 217:/home/zkmike/.local/share/renesas/e2_studio/toolchains/gcc_arm/gcc-arm-none-eabi-6-2017-q2-update/arm-none-eabi/include/c++/6.3.1/bits/basic_string.h **** 
 218:/home/zkmike/.local/share/renesas/e2_studio/toolchains/gcc_arm/gcc-arm-none-eabi-6-2017-q2-update/arm-none-eabi/include/c++/6.3.1/bits/basic_string.h ****       // For Input Iterators, used in istreambuf_iterators, etc.
 219:/home/zkmike/.local/share/renesas/e2_studio/toolchains/gcc_arm/gcc-arm-none-eabi-6-2017-q2-update/arm-none-eabi/include/c++/6.3.1/bits/basic_string.h ****       template<typename _InIterator>
 220:/home/zkmike/.local/share/renesas/e2_studio/toolchains/gcc_arm/gcc-arm-none-eabi-6-2017-q2-update/arm-none-eabi/include/c++/6.3.1/bits/basic_string.h ****         void
 221:/home/zkmike/.local/share/renesas/e2_studio/toolchains/gcc_arm/gcc-arm-none-eabi-6-2017-q2-update/arm-none-eabi/include/c++/6.3.1/bits/basic_string.h ****         _M_construct(_InIterator __beg, _InIterator __end,
 222:/home/zkmike/.local/share/renesas/e2_studio/toolchains/gcc_arm/gcc-arm-none-eabi-6-2017-q2-update/arm-none-eabi/include/c++/6.3.1/bits/basic_string.h **** 		     std::input_iterator_tag);
 223:/home/zkmike/.local/share/renesas/e2_studio/toolchains/gcc_arm/gcc-arm-none-eabi-6-2017-q2-update/arm-none-eabi/include/c++/6.3.1/bits/basic_string.h **** 
 224:/home/zkmike/.local/share/renesas/e2_studio/toolchains/gcc_arm/gcc-arm-none-eabi-6-2017-q2-update/arm-none-eabi/include/c++/6.3.1/bits/basic_string.h ****       // For forward_iterators up to random_access_iterators, used for
 225:/home/zkmike/.local/share/renesas/e2_studio/toolchains/gcc_arm/gcc-arm-none-eabi-6-2017-q2-update/arm-none-eabi/include/c++/6.3.1/bits/basic_string.h ****       // string::iterator, _CharT*, etc.
 226:/home/zkmike/.local/share/renesas/e2_studio/toolchains/gcc_arm/gcc-arm-none-eabi-6-2017-q2-update/arm-none-eabi/include/c++/6.3.1/bits/basic_string.h ****       template<typename _FwdIterator>
 227:/home/zkmike/.local/share/renesas/e2_studio/toolchains/gcc_arm/gcc-arm-none-eabi-6-2017-q2-update/arm-none-eabi/include/c++/6.3.1/bits/basic_string.h ****         void
 228:/home/zkmike/.local/share/renesas/e2_studio/toolchains/gcc_arm/gcc-arm-none-eabi-6-2017-q2-update/arm-none-eabi/include/c++/6.3.1/bits/basic_string.h ****         _M_construct(_FwdIterator __beg, _FwdIterator __end,
 229:/home/zkmike/.local/share/renesas/e2_studio/toolchains/gcc_arm/gcc-arm-none-eabi-6-2017-q2-update/arm-none-eabi/include/c++/6.3.1/bits/basic_string.h **** 		     std::forward_iterator_tag);
 230:/home/zkmike/.local/share/renesas/e2_studio/toolchains/gcc_arm/gcc-arm-none-eabi-6-2017-q2-update/arm-none-eabi/include/c++/6.3.1/bits/basic_string.h **** 
 231:/home/zkmike/.local/share/renesas/e2_studio/toolchains/gcc_arm/gcc-arm-none-eabi-6-2017-q2-update/arm-none-eabi/include/c++/6.3.1/bits/basic_string.h ****       void
 232:/home/zkmike/.local/share/renesas/e2_studio/toolchains/gcc_arm/gcc-arm-none-eabi-6-2017-q2-update/arm-none-eabi/include/c++/6.3.1/bits/basic_string.h ****       _M_construct(size_type __req, _CharT __c);
 233:/home/zkmike/.local/share/renesas/e2_studio/toolchains/gcc_arm/gcc-arm-none-eabi-6-2017-q2-update/arm-none-eabi/include/c++/6.3.1/bits/basic_string.h **** 
 234:/home/zkmike/.local/share/renesas/e2_studio/toolchains/gcc_arm/gcc-arm-none-eabi-6-2017-q2-update/arm-none-eabi/include/c++/6.3.1/bits/basic_string.h ****       allocator_type&
 235:/home/zkmike/.local/share/renesas/e2_studio/toolchains/gcc_arm/gcc-arm-none-eabi-6-2017-q2-update/arm-none-eabi/include/c++/6.3.1/bits/basic_string.h ****       _M_get_allocator()
 236:/home/zkmike/.local/share/renesas/e2_studio/toolchains/gcc_arm/gcc-arm-none-eabi-6-2017-q2-update/arm-none-eabi/include/c++/6.3.1/bits/basic_string.h ****       { return _M_dataplus; }
 237:/home/zkmike/.local/share/renesas/e2_studio/toolchains/gcc_arm/gcc-arm-none-eabi-6-2017-q2-update/arm-none-eabi/include/c++/6.3.1/bits/basic_string.h **** 
 238:/home/zkmike/.local/share/renesas/e2_studio/toolchains/gcc_arm/gcc-arm-none-eabi-6-2017-q2-update/arm-none-eabi/include/c++/6.3.1/bits/basic_string.h ****       const allocator_type&
 239:/home/zkmike/.local/share/renesas/e2_studio/toolchains/gcc_arm/gcc-arm-none-eabi-6-2017-q2-update/arm-none-eabi/include/c++/6.3.1/bits/basic_string.h ****       _M_get_allocator() const
 240:/home/zkmike/.local/share/renesas/e2_studio/toolchains/gcc_arm/gcc-arm-none-eabi-6-2017-q2-update/arm-none-eabi/include/c++/6.3.1/bits/basic_string.h ****       { return _M_dataplus; }
 241:/home/zkmike/.local/share/renesas/e2_studio/toolchains/gcc_arm/gcc-arm-none-eabi-6-2017-q2-update/arm-none-eabi/include/c++/6.3.1/bits/basic_string.h **** 
 242:/home/zkmike/.local/share/renesas/e2_studio/toolchains/gcc_arm/gcc-arm-none-eabi-6-2017-q2-update/arm-none-eabi/include/c++/6.3.1/bits/basic_string.h ****     private:
 243:/home/zkmike/.local/share/renesas/e2_studio/toolchains/gcc_arm/gcc-arm-none-eabi-6-2017-q2-update/arm-none-eabi/include/c++/6.3.1/bits/basic_string.h **** 
 244:/home/zkmike/.local/share/renesas/e2_studio/toolchains/gcc_arm/gcc-arm-none-eabi-6-2017-q2-update/arm-none-eabi/include/c++/6.3.1/bits/basic_string.h **** #ifdef _GLIBCXX_DISAMBIGUATE_REPLACE_INST
 245:/home/zkmike/.local/share/renesas/e2_studio/toolchains/gcc_arm/gcc-arm-none-eabi-6-2017-q2-update/arm-none-eabi/include/c++/6.3.1/bits/basic_string.h ****       // The explicit instantiations in misc-inst.cc require this due to
 246:/home/zkmike/.local/share/renesas/e2_studio/toolchains/gcc_arm/gcc-arm-none-eabi-6-2017-q2-update/arm-none-eabi/include/c++/6.3.1/bits/basic_string.h ****       // https://gcc.gnu.org/bugzilla/show_bug.cgi?id=64063
 247:/home/zkmike/.local/share/renesas/e2_studio/toolchains/gcc_arm/gcc-arm-none-eabi-6-2017-q2-update/arm-none-eabi/include/c++/6.3.1/bits/basic_string.h ****       template<typename _Tp, bool _Requires =
 248:/home/zkmike/.local/share/renesas/e2_studio/toolchains/gcc_arm/gcc-arm-none-eabi-6-2017-q2-update/arm-none-eabi/include/c++/6.3.1/bits/basic_string.h **** 	       !__are_same<_Tp, _CharT*>::__value
 249:/home/zkmike/.local/share/renesas/e2_studio/toolchains/gcc_arm/gcc-arm-none-eabi-6-2017-q2-update/arm-none-eabi/include/c++/6.3.1/bits/basic_string.h **** 	       && !__are_same<_Tp, const _CharT*>::__value
 250:/home/zkmike/.local/share/renesas/e2_studio/toolchains/gcc_arm/gcc-arm-none-eabi-6-2017-q2-update/arm-none-eabi/include/c++/6.3.1/bits/basic_string.h **** 	       && !__are_same<_Tp, iterator>::__value
 251:/home/zkmike/.local/share/renesas/e2_studio/toolchains/gcc_arm/gcc-arm-none-eabi-6-2017-q2-update/arm-none-eabi/include/c++/6.3.1/bits/basic_string.h **** 	       && !__are_same<_Tp, const_iterator>::__value>
 252:/home/zkmike/.local/share/renesas/e2_studio/toolchains/gcc_arm/gcc-arm-none-eabi-6-2017-q2-update/arm-none-eabi/include/c++/6.3.1/bits/basic_string.h **** 	struct __enable_if_not_native_iterator
 253:/home/zkmike/.local/share/renesas/e2_studio/toolchains/gcc_arm/gcc-arm-none-eabi-6-2017-q2-update/arm-none-eabi/include/c++/6.3.1/bits/basic_string.h **** 	{ typedef basic_string& __type; };
 254:/home/zkmike/.local/share/renesas/e2_studio/toolchains/gcc_arm/gcc-arm-none-eabi-6-2017-q2-update/arm-none-eabi/include/c++/6.3.1/bits/basic_string.h ****       template<typename _Tp>
 255:/home/zkmike/.local/share/renesas/e2_studio/toolchains/gcc_arm/gcc-arm-none-eabi-6-2017-q2-update/arm-none-eabi/include/c++/6.3.1/bits/basic_string.h **** 	struct __enable_if_not_native_iterator<_Tp, false> { };
 256:/home/zkmike/.local/share/renesas/e2_studio/toolchains/gcc_arm/gcc-arm-none-eabi-6-2017-q2-update/arm-none-eabi/include/c++/6.3.1/bits/basic_string.h **** #endif
 257:/home/zkmike/.local/share/renesas/e2_studio/toolchains/gcc_arm/gcc-arm-none-eabi-6-2017-q2-update/arm-none-eabi/include/c++/6.3.1/bits/basic_string.h **** 
 258:/home/zkmike/.local/share/renesas/e2_studio/toolchains/gcc_arm/gcc-arm-none-eabi-6-2017-q2-update/arm-none-eabi/include/c++/6.3.1/bits/basic_string.h ****       size_type
 259:/home/zkmike/.local/share/renesas/e2_studio/toolchains/gcc_arm/gcc-arm-none-eabi-6-2017-q2-update/arm-none-eabi/include/c++/6.3.1/bits/basic_string.h ****       _M_check(size_type __pos, const char* __s) const
 260:/home/zkmike/.local/share/renesas/e2_studio/toolchains/gcc_arm/gcc-arm-none-eabi-6-2017-q2-update/arm-none-eabi/include/c++/6.3.1/bits/basic_string.h ****       {
 261:/home/zkmike/.local/share/renesas/e2_studio/toolchains/gcc_arm/gcc-arm-none-eabi-6-2017-q2-update/arm-none-eabi/include/c++/6.3.1/bits/basic_string.h **** 	if (__pos > this->size())
 262:/home/zkmike/.local/share/renesas/e2_studio/toolchains/gcc_arm/gcc-arm-none-eabi-6-2017-q2-update/arm-none-eabi/include/c++/6.3.1/bits/basic_string.h **** 	  __throw_out_of_range_fmt(__N("%s: __pos (which is %zu) > "
 263:/home/zkmike/.local/share/renesas/e2_studio/toolchains/gcc_arm/gcc-arm-none-eabi-6-2017-q2-update/arm-none-eabi/include/c++/6.3.1/bits/basic_string.h **** 				       "this->size() (which is %zu)"),
 264:/home/zkmike/.local/share/renesas/e2_studio/toolchains/gcc_arm/gcc-arm-none-eabi-6-2017-q2-update/arm-none-eabi/include/c++/6.3.1/bits/basic_string.h **** 				   __s, __pos, this->size());
 265:/home/zkmike/.local/share/renesas/e2_studio/toolchains/gcc_arm/gcc-arm-none-eabi-6-2017-q2-update/arm-none-eabi/include/c++/6.3.1/bits/basic_string.h **** 	return __pos;
 266:/home/zkmike/.local/share/renesas/e2_studio/toolchains/gcc_arm/gcc-arm-none-eabi-6-2017-q2-update/arm-none-eabi/include/c++/6.3.1/bits/basic_string.h ****       }
 267:/home/zkmike/.local/share/renesas/e2_studio/toolchains/gcc_arm/gcc-arm-none-eabi-6-2017-q2-update/arm-none-eabi/include/c++/6.3.1/bits/basic_string.h **** 
 268:/home/zkmike/.local/share/renesas/e2_studio/toolchains/gcc_arm/gcc-arm-none-eabi-6-2017-q2-update/arm-none-eabi/include/c++/6.3.1/bits/basic_string.h ****       void
 269:/home/zkmike/.local/share/renesas/e2_studio/toolchains/gcc_arm/gcc-arm-none-eabi-6-2017-q2-update/arm-none-eabi/include/c++/6.3.1/bits/basic_string.h ****       _M_check_length(size_type __n1, size_type __n2, const char* __s) const
 270:/home/zkmike/.local/share/renesas/e2_studio/toolchains/gcc_arm/gcc-arm-none-eabi-6-2017-q2-update/arm-none-eabi/include/c++/6.3.1/bits/basic_string.h ****       {
 271:/home/zkmike/.local/share/renesas/e2_studio/toolchains/gcc_arm/gcc-arm-none-eabi-6-2017-q2-update/arm-none-eabi/include/c++/6.3.1/bits/basic_string.h **** 	if (this->max_size() - (this->size() - __n1) < __n2)
 272:/home/zkmike/.local/share/renesas/e2_studio/toolchains/gcc_arm/gcc-arm-none-eabi-6-2017-q2-update/arm-none-eabi/include/c++/6.3.1/bits/basic_string.h **** 	  __throw_length_error(__N(__s));
 273:/home/zkmike/.local/share/renesas/e2_studio/toolchains/gcc_arm/gcc-arm-none-eabi-6-2017-q2-update/arm-none-eabi/include/c++/6.3.1/bits/basic_string.h ****       }
 274:/home/zkmike/.local/share/renesas/e2_studio/toolchains/gcc_arm/gcc-arm-none-eabi-6-2017-q2-update/arm-none-eabi/include/c++/6.3.1/bits/basic_string.h **** 
 275:/home/zkmike/.local/share/renesas/e2_studio/toolchains/gcc_arm/gcc-arm-none-eabi-6-2017-q2-update/arm-none-eabi/include/c++/6.3.1/bits/basic_string.h **** 
 276:/home/zkmike/.local/share/renesas/e2_studio/toolchains/gcc_arm/gcc-arm-none-eabi-6-2017-q2-update/arm-none-eabi/include/c++/6.3.1/bits/basic_string.h ****       // NB: _M_limit doesn't check for a bad __pos value.
 277:/home/zkmike/.local/share/renesas/e2_studio/toolchains/gcc_arm/gcc-arm-none-eabi-6-2017-q2-update/arm-none-eabi/include/c++/6.3.1/bits/basic_string.h ****       size_type
 278:/home/zkmike/.local/share/renesas/e2_studio/toolchains/gcc_arm/gcc-arm-none-eabi-6-2017-q2-update/arm-none-eabi/include/c++/6.3.1/bits/basic_string.h ****       _M_limit(size_type __pos, size_type __off) const _GLIBCXX_NOEXCEPT
 279:/home/zkmike/.local/share/renesas/e2_studio/toolchains/gcc_arm/gcc-arm-none-eabi-6-2017-q2-update/arm-none-eabi/include/c++/6.3.1/bits/basic_string.h ****       {
 280:/home/zkmike/.local/share/renesas/e2_studio/toolchains/gcc_arm/gcc-arm-none-eabi-6-2017-q2-update/arm-none-eabi/include/c++/6.3.1/bits/basic_string.h **** 	const bool __testoff =  __off < this->size() - __pos;
 281:/home/zkmike/.local/share/renesas/e2_studio/toolchains/gcc_arm/gcc-arm-none-eabi-6-2017-q2-update/arm-none-eabi/include/c++/6.3.1/bits/basic_string.h **** 	return __testoff ? __off : this->size() - __pos;
 282:/home/zkmike/.local/share/renesas/e2_studio/toolchains/gcc_arm/gcc-arm-none-eabi-6-2017-q2-update/arm-none-eabi/include/c++/6.3.1/bits/basic_string.h ****       }
 283:/home/zkmike/.local/share/renesas/e2_studio/toolchains/gcc_arm/gcc-arm-none-eabi-6-2017-q2-update/arm-none-eabi/include/c++/6.3.1/bits/basic_string.h **** 
 284:/home/zkmike/.local/share/renesas/e2_studio/toolchains/gcc_arm/gcc-arm-none-eabi-6-2017-q2-update/arm-none-eabi/include/c++/6.3.1/bits/basic_string.h ****       // True if _Rep and source do not overlap.
 285:/home/zkmike/.local/share/renesas/e2_studio/toolchains/gcc_arm/gcc-arm-none-eabi-6-2017-q2-update/arm-none-eabi/include/c++/6.3.1/bits/basic_string.h ****       bool
 286:/home/zkmike/.local/share/renesas/e2_studio/toolchains/gcc_arm/gcc-arm-none-eabi-6-2017-q2-update/arm-none-eabi/include/c++/6.3.1/bits/basic_string.h ****       _M_disjunct(const _CharT* __s) const _GLIBCXX_NOEXCEPT
 287:/home/zkmike/.local/share/renesas/e2_studio/toolchains/gcc_arm/gcc-arm-none-eabi-6-2017-q2-update/arm-none-eabi/include/c++/6.3.1/bits/basic_string.h ****       {
 288:/home/zkmike/.local/share/renesas/e2_studio/toolchains/gcc_arm/gcc-arm-none-eabi-6-2017-q2-update/arm-none-eabi/include/c++/6.3.1/bits/basic_string.h **** 	return (less<const _CharT*>()(__s, _M_data())
 289:/home/zkmike/.local/share/renesas/e2_studio/toolchains/gcc_arm/gcc-arm-none-eabi-6-2017-q2-update/arm-none-eabi/include/c++/6.3.1/bits/basic_string.h **** 		|| less<const _CharT*>()(_M_data() + this->size(), __s));
 290:/home/zkmike/.local/share/renesas/e2_studio/toolchains/gcc_arm/gcc-arm-none-eabi-6-2017-q2-update/arm-none-eabi/include/c++/6.3.1/bits/basic_string.h ****       }
 291:/home/zkmike/.local/share/renesas/e2_studio/toolchains/gcc_arm/gcc-arm-none-eabi-6-2017-q2-update/arm-none-eabi/include/c++/6.3.1/bits/basic_string.h **** 
 292:/home/zkmike/.local/share/renesas/e2_studio/toolchains/gcc_arm/gcc-arm-none-eabi-6-2017-q2-update/arm-none-eabi/include/c++/6.3.1/bits/basic_string.h ****       // When __n = 1 way faster than the general multichar
 293:/home/zkmike/.local/share/renesas/e2_studio/toolchains/gcc_arm/gcc-arm-none-eabi-6-2017-q2-update/arm-none-eabi/include/c++/6.3.1/bits/basic_string.h ****       // traits_type::copy/move/assign.
 294:/home/zkmike/.local/share/renesas/e2_studio/toolchains/gcc_arm/gcc-arm-none-eabi-6-2017-q2-update/arm-none-eabi/include/c++/6.3.1/bits/basic_string.h ****       static void
 295:/home/zkmike/.local/share/renesas/e2_studio/toolchains/gcc_arm/gcc-arm-none-eabi-6-2017-q2-update/arm-none-eabi/include/c++/6.3.1/bits/basic_string.h ****       _S_copy(_CharT* __d, const _CharT* __s, size_type __n)
 296:/home/zkmike/.local/share/renesas/e2_studio/toolchains/gcc_arm/gcc-arm-none-eabi-6-2017-q2-update/arm-none-eabi/include/c++/6.3.1/bits/basic_string.h ****       {
 297:/home/zkmike/.local/share/renesas/e2_studio/toolchains/gcc_arm/gcc-arm-none-eabi-6-2017-q2-update/arm-none-eabi/include/c++/6.3.1/bits/basic_string.h **** 	if (__n == 1)
 863              		.loc 3 297 0
 864 0034 010054E3 		cmp	r4, #1
 865 0038 1800000A 		beq	.L71
 866              	.LVL66:
 867              	.LBB840:
 868              	.LBB841:
 869              		.file 11 "/home/zkmike/.local/share/renesas/e2_studio/toolchains/gcc_arm/gcc-arm-none-eabi-6-2017-
   1:/home/zkmike/.local/share/renesas/e2_studio/toolchains/gcc_arm/gcc-arm-none-eabi-6-2017-q2-update/arm-none-eabi/include/c++/6.3.1/bits/char_traits.h **** // Character Traits for use by standard string and iostream -*- C++ -*-
   2:/home/zkmike/.local/share/renesas/e2_studio/toolchains/gcc_arm/gcc-arm-none-eabi-6-2017-q2-update/arm-none-eabi/include/c++/6.3.1/bits/char_traits.h **** 
   3:/home/zkmike/.local/share/renesas/e2_studio/toolchains/gcc_arm/gcc-arm-none-eabi-6-2017-q2-update/arm-none-eabi/include/c++/6.3.1/bits/char_traits.h **** // Copyright (C) 1997-2016 Free Software Foundation, Inc.
   4:/home/zkmike/.local/share/renesas/e2_studio/toolchains/gcc_arm/gcc-arm-none-eabi-6-2017-q2-update/arm-none-eabi/include/c++/6.3.1/bits/char_traits.h **** //
   5:/home/zkmike/.local/share/renesas/e2_studio/toolchains/gcc_arm/gcc-arm-none-eabi-6-2017-q2-update/arm-none-eabi/include/c++/6.3.1/bits/char_traits.h **** // This file is part of the GNU ISO C++ Library.  This library is free
   6:/home/zkmike/.local/share/renesas/e2_studio/toolchains/gcc_arm/gcc-arm-none-eabi-6-2017-q2-update/arm-none-eabi/include/c++/6.3.1/bits/char_traits.h **** // software; you can redistribute it and/or modify it under the
   7:/home/zkmike/.local/share/renesas/e2_studio/toolchains/gcc_arm/gcc-arm-none-eabi-6-2017-q2-update/arm-none-eabi/include/c++/6.3.1/bits/char_traits.h **** // terms of the GNU General Public License as published by the
   8:/home/zkmike/.local/share/renesas/e2_studio/toolchains/gcc_arm/gcc-arm-none-eabi-6-2017-q2-update/arm-none-eabi/include/c++/6.3.1/bits/char_traits.h **** // Free Software Foundation; either version 3, or (at your option)
   9:/home/zkmike/.local/share/renesas/e2_studio/toolchains/gcc_arm/gcc-arm-none-eabi-6-2017-q2-update/arm-none-eabi/include/c++/6.3.1/bits/char_traits.h **** // any later version.
  10:/home/zkmike/.local/share/renesas/e2_studio/toolchains/gcc_arm/gcc-arm-none-eabi-6-2017-q2-update/arm-none-eabi/include/c++/6.3.1/bits/char_traits.h **** 
  11:/home/zkmike/.local/share/renesas/e2_studio/toolchains/gcc_arm/gcc-arm-none-eabi-6-2017-q2-update/arm-none-eabi/include/c++/6.3.1/bits/char_traits.h **** // This library is distributed in the hope that it will be useful,
  12:/home/zkmike/.local/share/renesas/e2_studio/toolchains/gcc_arm/gcc-arm-none-eabi-6-2017-q2-update/arm-none-eabi/include/c++/6.3.1/bits/char_traits.h **** // but WITHOUT ANY WARRANTY; without even the implied warranty of
  13:/home/zkmike/.local/share/renesas/e2_studio/toolchains/gcc_arm/gcc-arm-none-eabi-6-2017-q2-update/arm-none-eabi/include/c++/6.3.1/bits/char_traits.h **** // MERCHANTABILITY or FITNESS FOR A PARTICULAR PURPOSE.  See the
  14:/home/zkmike/.local/share/renesas/e2_studio/toolchains/gcc_arm/gcc-arm-none-eabi-6-2017-q2-update/arm-none-eabi/include/c++/6.3.1/bits/char_traits.h **** // GNU General Public License for more details.
  15:/home/zkmike/.local/share/renesas/e2_studio/toolchains/gcc_arm/gcc-arm-none-eabi-6-2017-q2-update/arm-none-eabi/include/c++/6.3.1/bits/char_traits.h **** 
  16:/home/zkmike/.local/share/renesas/e2_studio/toolchains/gcc_arm/gcc-arm-none-eabi-6-2017-q2-update/arm-none-eabi/include/c++/6.3.1/bits/char_traits.h **** // Under Section 7 of GPL version 3, you are granted additional
  17:/home/zkmike/.local/share/renesas/e2_studio/toolchains/gcc_arm/gcc-arm-none-eabi-6-2017-q2-update/arm-none-eabi/include/c++/6.3.1/bits/char_traits.h **** // permissions described in the GCC Runtime Library Exception, version
  18:/home/zkmike/.local/share/renesas/e2_studio/toolchains/gcc_arm/gcc-arm-none-eabi-6-2017-q2-update/arm-none-eabi/include/c++/6.3.1/bits/char_traits.h **** // 3.1, as published by the Free Software Foundation.
  19:/home/zkmike/.local/share/renesas/e2_studio/toolchains/gcc_arm/gcc-arm-none-eabi-6-2017-q2-update/arm-none-eabi/include/c++/6.3.1/bits/char_traits.h **** 
  20:/home/zkmike/.local/share/renesas/e2_studio/toolchains/gcc_arm/gcc-arm-none-eabi-6-2017-q2-update/arm-none-eabi/include/c++/6.3.1/bits/char_traits.h **** // You should have received a copy of the GNU General Public License and
  21:/home/zkmike/.local/share/renesas/e2_studio/toolchains/gcc_arm/gcc-arm-none-eabi-6-2017-q2-update/arm-none-eabi/include/c++/6.3.1/bits/char_traits.h **** // a copy of the GCC Runtime Library Exception along with this program;
  22:/home/zkmike/.local/share/renesas/e2_studio/toolchains/gcc_arm/gcc-arm-none-eabi-6-2017-q2-update/arm-none-eabi/include/c++/6.3.1/bits/char_traits.h **** // see the files COPYING3 and COPYING.RUNTIME respectively.  If not, see
  23:/home/zkmike/.local/share/renesas/e2_studio/toolchains/gcc_arm/gcc-arm-none-eabi-6-2017-q2-update/arm-none-eabi/include/c++/6.3.1/bits/char_traits.h **** // <http://www.gnu.org/licenses/>.
  24:/home/zkmike/.local/share/renesas/e2_studio/toolchains/gcc_arm/gcc-arm-none-eabi-6-2017-q2-update/arm-none-eabi/include/c++/6.3.1/bits/char_traits.h **** 
  25:/home/zkmike/.local/share/renesas/e2_studio/toolchains/gcc_arm/gcc-arm-none-eabi-6-2017-q2-update/arm-none-eabi/include/c++/6.3.1/bits/char_traits.h **** /** @file bits/char_traits.h
  26:/home/zkmike/.local/share/renesas/e2_studio/toolchains/gcc_arm/gcc-arm-none-eabi-6-2017-q2-update/arm-none-eabi/include/c++/6.3.1/bits/char_traits.h ****  *  This is an internal header file, included by other library headers.
  27:/home/zkmike/.local/share/renesas/e2_studio/toolchains/gcc_arm/gcc-arm-none-eabi-6-2017-q2-update/arm-none-eabi/include/c++/6.3.1/bits/char_traits.h ****  *  Do not attempt to use it directly. @headername{string}
  28:/home/zkmike/.local/share/renesas/e2_studio/toolchains/gcc_arm/gcc-arm-none-eabi-6-2017-q2-update/arm-none-eabi/include/c++/6.3.1/bits/char_traits.h ****  */
  29:/home/zkmike/.local/share/renesas/e2_studio/toolchains/gcc_arm/gcc-arm-none-eabi-6-2017-q2-update/arm-none-eabi/include/c++/6.3.1/bits/char_traits.h **** 
  30:/home/zkmike/.local/share/renesas/e2_studio/toolchains/gcc_arm/gcc-arm-none-eabi-6-2017-q2-update/arm-none-eabi/include/c++/6.3.1/bits/char_traits.h **** //
  31:/home/zkmike/.local/share/renesas/e2_studio/toolchains/gcc_arm/gcc-arm-none-eabi-6-2017-q2-update/arm-none-eabi/include/c++/6.3.1/bits/char_traits.h **** // ISO C++ 14882: 21  Strings library
  32:/home/zkmike/.local/share/renesas/e2_studio/toolchains/gcc_arm/gcc-arm-none-eabi-6-2017-q2-update/arm-none-eabi/include/c++/6.3.1/bits/char_traits.h **** //
  33:/home/zkmike/.local/share/renesas/e2_studio/toolchains/gcc_arm/gcc-arm-none-eabi-6-2017-q2-update/arm-none-eabi/include/c++/6.3.1/bits/char_traits.h **** 
  34:/home/zkmike/.local/share/renesas/e2_studio/toolchains/gcc_arm/gcc-arm-none-eabi-6-2017-q2-update/arm-none-eabi/include/c++/6.3.1/bits/char_traits.h **** #ifndef _CHAR_TRAITS_H
  35:/home/zkmike/.local/share/renesas/e2_studio/toolchains/gcc_arm/gcc-arm-none-eabi-6-2017-q2-update/arm-none-eabi/include/c++/6.3.1/bits/char_traits.h **** #define _CHAR_TRAITS_H 1
  36:/home/zkmike/.local/share/renesas/e2_studio/toolchains/gcc_arm/gcc-arm-none-eabi-6-2017-q2-update/arm-none-eabi/include/c++/6.3.1/bits/char_traits.h **** 
  37:/home/zkmike/.local/share/renesas/e2_studio/toolchains/gcc_arm/gcc-arm-none-eabi-6-2017-q2-update/arm-none-eabi/include/c++/6.3.1/bits/char_traits.h **** #pragma GCC system_header
  38:/home/zkmike/.local/share/renesas/e2_studio/toolchains/gcc_arm/gcc-arm-none-eabi-6-2017-q2-update/arm-none-eabi/include/c++/6.3.1/bits/char_traits.h **** 
  39:/home/zkmike/.local/share/renesas/e2_studio/toolchains/gcc_arm/gcc-arm-none-eabi-6-2017-q2-update/arm-none-eabi/include/c++/6.3.1/bits/char_traits.h **** #include <bits/stl_algobase.h>  // std::copy, std::fill_n
  40:/home/zkmike/.local/share/renesas/e2_studio/toolchains/gcc_arm/gcc-arm-none-eabi-6-2017-q2-update/arm-none-eabi/include/c++/6.3.1/bits/char_traits.h **** #include <bits/postypes.h>      // For streampos
  41:/home/zkmike/.local/share/renesas/e2_studio/toolchains/gcc_arm/gcc-arm-none-eabi-6-2017-q2-update/arm-none-eabi/include/c++/6.3.1/bits/char_traits.h **** #include <cwchar>               // For WEOF, wmemmove, wmemset, etc.
  42:/home/zkmike/.local/share/renesas/e2_studio/toolchains/gcc_arm/gcc-arm-none-eabi-6-2017-q2-update/arm-none-eabi/include/c++/6.3.1/bits/char_traits.h **** 
  43:/home/zkmike/.local/share/renesas/e2_studio/toolchains/gcc_arm/gcc-arm-none-eabi-6-2017-q2-update/arm-none-eabi/include/c++/6.3.1/bits/char_traits.h **** namespace __gnu_cxx _GLIBCXX_VISIBILITY(default)
  44:/home/zkmike/.local/share/renesas/e2_studio/toolchains/gcc_arm/gcc-arm-none-eabi-6-2017-q2-update/arm-none-eabi/include/c++/6.3.1/bits/char_traits.h **** {
  45:/home/zkmike/.local/share/renesas/e2_studio/toolchains/gcc_arm/gcc-arm-none-eabi-6-2017-q2-update/arm-none-eabi/include/c++/6.3.1/bits/char_traits.h **** _GLIBCXX_BEGIN_NAMESPACE_VERSION
  46:/home/zkmike/.local/share/renesas/e2_studio/toolchains/gcc_arm/gcc-arm-none-eabi-6-2017-q2-update/arm-none-eabi/include/c++/6.3.1/bits/char_traits.h **** 
  47:/home/zkmike/.local/share/renesas/e2_studio/toolchains/gcc_arm/gcc-arm-none-eabi-6-2017-q2-update/arm-none-eabi/include/c++/6.3.1/bits/char_traits.h ****   /**
  48:/home/zkmike/.local/share/renesas/e2_studio/toolchains/gcc_arm/gcc-arm-none-eabi-6-2017-q2-update/arm-none-eabi/include/c++/6.3.1/bits/char_traits.h ****    *  @brief  Mapping from character type to associated types.
  49:/home/zkmike/.local/share/renesas/e2_studio/toolchains/gcc_arm/gcc-arm-none-eabi-6-2017-q2-update/arm-none-eabi/include/c++/6.3.1/bits/char_traits.h ****    *
  50:/home/zkmike/.local/share/renesas/e2_studio/toolchains/gcc_arm/gcc-arm-none-eabi-6-2017-q2-update/arm-none-eabi/include/c++/6.3.1/bits/char_traits.h ****    *  @note This is an implementation class for the generic version
  51:/home/zkmike/.local/share/renesas/e2_studio/toolchains/gcc_arm/gcc-arm-none-eabi-6-2017-q2-update/arm-none-eabi/include/c++/6.3.1/bits/char_traits.h ****    *  of char_traits.  It defines int_type, off_type, pos_type, and
  52:/home/zkmike/.local/share/renesas/e2_studio/toolchains/gcc_arm/gcc-arm-none-eabi-6-2017-q2-update/arm-none-eabi/include/c++/6.3.1/bits/char_traits.h ****    *  state_type.  By default these are unsigned long, streamoff,
  53:/home/zkmike/.local/share/renesas/e2_studio/toolchains/gcc_arm/gcc-arm-none-eabi-6-2017-q2-update/arm-none-eabi/include/c++/6.3.1/bits/char_traits.h ****    *  streampos, and mbstate_t.  Users who need a different set of
  54:/home/zkmike/.local/share/renesas/e2_studio/toolchains/gcc_arm/gcc-arm-none-eabi-6-2017-q2-update/arm-none-eabi/include/c++/6.3.1/bits/char_traits.h ****    *  types, but who don't need to change the definitions of any function
  55:/home/zkmike/.local/share/renesas/e2_studio/toolchains/gcc_arm/gcc-arm-none-eabi-6-2017-q2-update/arm-none-eabi/include/c++/6.3.1/bits/char_traits.h ****    *  defined in char_traits, can specialize __gnu_cxx::_Char_types
  56:/home/zkmike/.local/share/renesas/e2_studio/toolchains/gcc_arm/gcc-arm-none-eabi-6-2017-q2-update/arm-none-eabi/include/c++/6.3.1/bits/char_traits.h ****    *  while leaving __gnu_cxx::char_traits alone. */
  57:/home/zkmike/.local/share/renesas/e2_studio/toolchains/gcc_arm/gcc-arm-none-eabi-6-2017-q2-update/arm-none-eabi/include/c++/6.3.1/bits/char_traits.h ****   template<typename _CharT>
  58:/home/zkmike/.local/share/renesas/e2_studio/toolchains/gcc_arm/gcc-arm-none-eabi-6-2017-q2-update/arm-none-eabi/include/c++/6.3.1/bits/char_traits.h ****     struct _Char_types
  59:/home/zkmike/.local/share/renesas/e2_studio/toolchains/gcc_arm/gcc-arm-none-eabi-6-2017-q2-update/arm-none-eabi/include/c++/6.3.1/bits/char_traits.h ****     {
  60:/home/zkmike/.local/share/renesas/e2_studio/toolchains/gcc_arm/gcc-arm-none-eabi-6-2017-q2-update/arm-none-eabi/include/c++/6.3.1/bits/char_traits.h ****       typedef unsigned long   int_type;
  61:/home/zkmike/.local/share/renesas/e2_studio/toolchains/gcc_arm/gcc-arm-none-eabi-6-2017-q2-update/arm-none-eabi/include/c++/6.3.1/bits/char_traits.h ****       typedef std::streampos  pos_type;
  62:/home/zkmike/.local/share/renesas/e2_studio/toolchains/gcc_arm/gcc-arm-none-eabi-6-2017-q2-update/arm-none-eabi/include/c++/6.3.1/bits/char_traits.h ****       typedef std::streamoff  off_type;
  63:/home/zkmike/.local/share/renesas/e2_studio/toolchains/gcc_arm/gcc-arm-none-eabi-6-2017-q2-update/arm-none-eabi/include/c++/6.3.1/bits/char_traits.h ****       typedef std::mbstate_t  state_type;
  64:/home/zkmike/.local/share/renesas/e2_studio/toolchains/gcc_arm/gcc-arm-none-eabi-6-2017-q2-update/arm-none-eabi/include/c++/6.3.1/bits/char_traits.h ****     };
  65:/home/zkmike/.local/share/renesas/e2_studio/toolchains/gcc_arm/gcc-arm-none-eabi-6-2017-q2-update/arm-none-eabi/include/c++/6.3.1/bits/char_traits.h **** 
  66:/home/zkmike/.local/share/renesas/e2_studio/toolchains/gcc_arm/gcc-arm-none-eabi-6-2017-q2-update/arm-none-eabi/include/c++/6.3.1/bits/char_traits.h **** 
  67:/home/zkmike/.local/share/renesas/e2_studio/toolchains/gcc_arm/gcc-arm-none-eabi-6-2017-q2-update/arm-none-eabi/include/c++/6.3.1/bits/char_traits.h ****   /**
  68:/home/zkmike/.local/share/renesas/e2_studio/toolchains/gcc_arm/gcc-arm-none-eabi-6-2017-q2-update/arm-none-eabi/include/c++/6.3.1/bits/char_traits.h ****    *  @brief  Base class used to implement std::char_traits.
  69:/home/zkmike/.local/share/renesas/e2_studio/toolchains/gcc_arm/gcc-arm-none-eabi-6-2017-q2-update/arm-none-eabi/include/c++/6.3.1/bits/char_traits.h ****    *
  70:/home/zkmike/.local/share/renesas/e2_studio/toolchains/gcc_arm/gcc-arm-none-eabi-6-2017-q2-update/arm-none-eabi/include/c++/6.3.1/bits/char_traits.h ****    *  @note For any given actual character type, this definition is
  71:/home/zkmike/.local/share/renesas/e2_studio/toolchains/gcc_arm/gcc-arm-none-eabi-6-2017-q2-update/arm-none-eabi/include/c++/6.3.1/bits/char_traits.h ****    *  probably wrong.  (Most of the member functions are likely to be
  72:/home/zkmike/.local/share/renesas/e2_studio/toolchains/gcc_arm/gcc-arm-none-eabi-6-2017-q2-update/arm-none-eabi/include/c++/6.3.1/bits/char_traits.h ****    *  right, but the int_type and state_type typedefs, and the eof()
  73:/home/zkmike/.local/share/renesas/e2_studio/toolchains/gcc_arm/gcc-arm-none-eabi-6-2017-q2-update/arm-none-eabi/include/c++/6.3.1/bits/char_traits.h ****    *  member function, are likely to be wrong.)  The reason this class
  74:/home/zkmike/.local/share/renesas/e2_studio/toolchains/gcc_arm/gcc-arm-none-eabi-6-2017-q2-update/arm-none-eabi/include/c++/6.3.1/bits/char_traits.h ****    *  exists is so users can specialize it.  Classes in namespace std
  75:/home/zkmike/.local/share/renesas/e2_studio/toolchains/gcc_arm/gcc-arm-none-eabi-6-2017-q2-update/arm-none-eabi/include/c++/6.3.1/bits/char_traits.h ****    *  may not be specialized for fundamental types, but classes in
  76:/home/zkmike/.local/share/renesas/e2_studio/toolchains/gcc_arm/gcc-arm-none-eabi-6-2017-q2-update/arm-none-eabi/include/c++/6.3.1/bits/char_traits.h ****    *  namespace __gnu_cxx may be.
  77:/home/zkmike/.local/share/renesas/e2_studio/toolchains/gcc_arm/gcc-arm-none-eabi-6-2017-q2-update/arm-none-eabi/include/c++/6.3.1/bits/char_traits.h ****    *
  78:/home/zkmike/.local/share/renesas/e2_studio/toolchains/gcc_arm/gcc-arm-none-eabi-6-2017-q2-update/arm-none-eabi/include/c++/6.3.1/bits/char_traits.h ****    *  See https://gcc.gnu.org/onlinedocs/libstdc++/manual/strings.html#strings.string.character_typ
  79:/home/zkmike/.local/share/renesas/e2_studio/toolchains/gcc_arm/gcc-arm-none-eabi-6-2017-q2-update/arm-none-eabi/include/c++/6.3.1/bits/char_traits.h ****    *  for advice on how to make use of this class for @a unusual character
  80:/home/zkmike/.local/share/renesas/e2_studio/toolchains/gcc_arm/gcc-arm-none-eabi-6-2017-q2-update/arm-none-eabi/include/c++/6.3.1/bits/char_traits.h ****    *  types. Also, check out include/ext/pod_char_traits.h.  
  81:/home/zkmike/.local/share/renesas/e2_studio/toolchains/gcc_arm/gcc-arm-none-eabi-6-2017-q2-update/arm-none-eabi/include/c++/6.3.1/bits/char_traits.h ****    */
  82:/home/zkmike/.local/share/renesas/e2_studio/toolchains/gcc_arm/gcc-arm-none-eabi-6-2017-q2-update/arm-none-eabi/include/c++/6.3.1/bits/char_traits.h ****   template<typename _CharT>
  83:/home/zkmike/.local/share/renesas/e2_studio/toolchains/gcc_arm/gcc-arm-none-eabi-6-2017-q2-update/arm-none-eabi/include/c++/6.3.1/bits/char_traits.h ****     struct char_traits
  84:/home/zkmike/.local/share/renesas/e2_studio/toolchains/gcc_arm/gcc-arm-none-eabi-6-2017-q2-update/arm-none-eabi/include/c++/6.3.1/bits/char_traits.h ****     {
  85:/home/zkmike/.local/share/renesas/e2_studio/toolchains/gcc_arm/gcc-arm-none-eabi-6-2017-q2-update/arm-none-eabi/include/c++/6.3.1/bits/char_traits.h ****       typedef _CharT                                    char_type;
  86:/home/zkmike/.local/share/renesas/e2_studio/toolchains/gcc_arm/gcc-arm-none-eabi-6-2017-q2-update/arm-none-eabi/include/c++/6.3.1/bits/char_traits.h ****       typedef typename _Char_types<_CharT>::int_type    int_type;
  87:/home/zkmike/.local/share/renesas/e2_studio/toolchains/gcc_arm/gcc-arm-none-eabi-6-2017-q2-update/arm-none-eabi/include/c++/6.3.1/bits/char_traits.h ****       typedef typename _Char_types<_CharT>::pos_type    pos_type;
  88:/home/zkmike/.local/share/renesas/e2_studio/toolchains/gcc_arm/gcc-arm-none-eabi-6-2017-q2-update/arm-none-eabi/include/c++/6.3.1/bits/char_traits.h ****       typedef typename _Char_types<_CharT>::off_type    off_type;
  89:/home/zkmike/.local/share/renesas/e2_studio/toolchains/gcc_arm/gcc-arm-none-eabi-6-2017-q2-update/arm-none-eabi/include/c++/6.3.1/bits/char_traits.h ****       typedef typename _Char_types<_CharT>::state_type  state_type;
  90:/home/zkmike/.local/share/renesas/e2_studio/toolchains/gcc_arm/gcc-arm-none-eabi-6-2017-q2-update/arm-none-eabi/include/c++/6.3.1/bits/char_traits.h **** 
  91:/home/zkmike/.local/share/renesas/e2_studio/toolchains/gcc_arm/gcc-arm-none-eabi-6-2017-q2-update/arm-none-eabi/include/c++/6.3.1/bits/char_traits.h ****       static void
  92:/home/zkmike/.local/share/renesas/e2_studio/toolchains/gcc_arm/gcc-arm-none-eabi-6-2017-q2-update/arm-none-eabi/include/c++/6.3.1/bits/char_traits.h ****       assign(char_type& __c1, const char_type& __c2)
  93:/home/zkmike/.local/share/renesas/e2_studio/toolchains/gcc_arm/gcc-arm-none-eabi-6-2017-q2-update/arm-none-eabi/include/c++/6.3.1/bits/char_traits.h ****       { __c1 = __c2; }
  94:/home/zkmike/.local/share/renesas/e2_studio/toolchains/gcc_arm/gcc-arm-none-eabi-6-2017-q2-update/arm-none-eabi/include/c++/6.3.1/bits/char_traits.h **** 
  95:/home/zkmike/.local/share/renesas/e2_studio/toolchains/gcc_arm/gcc-arm-none-eabi-6-2017-q2-update/arm-none-eabi/include/c++/6.3.1/bits/char_traits.h ****       static _GLIBCXX_CONSTEXPR bool
  96:/home/zkmike/.local/share/renesas/e2_studio/toolchains/gcc_arm/gcc-arm-none-eabi-6-2017-q2-update/arm-none-eabi/include/c++/6.3.1/bits/char_traits.h ****       eq(const char_type& __c1, const char_type& __c2)
  97:/home/zkmike/.local/share/renesas/e2_studio/toolchains/gcc_arm/gcc-arm-none-eabi-6-2017-q2-update/arm-none-eabi/include/c++/6.3.1/bits/char_traits.h ****       { return __c1 == __c2; }
  98:/home/zkmike/.local/share/renesas/e2_studio/toolchains/gcc_arm/gcc-arm-none-eabi-6-2017-q2-update/arm-none-eabi/include/c++/6.3.1/bits/char_traits.h **** 
  99:/home/zkmike/.local/share/renesas/e2_studio/toolchains/gcc_arm/gcc-arm-none-eabi-6-2017-q2-update/arm-none-eabi/include/c++/6.3.1/bits/char_traits.h ****       static _GLIBCXX_CONSTEXPR bool
 100:/home/zkmike/.local/share/renesas/e2_studio/toolchains/gcc_arm/gcc-arm-none-eabi-6-2017-q2-update/arm-none-eabi/include/c++/6.3.1/bits/char_traits.h ****       lt(const char_type& __c1, const char_type& __c2)
 101:/home/zkmike/.local/share/renesas/e2_studio/toolchains/gcc_arm/gcc-arm-none-eabi-6-2017-q2-update/arm-none-eabi/include/c++/6.3.1/bits/char_traits.h ****       { return __c1 < __c2; }
 102:/home/zkmike/.local/share/renesas/e2_studio/toolchains/gcc_arm/gcc-arm-none-eabi-6-2017-q2-update/arm-none-eabi/include/c++/6.3.1/bits/char_traits.h **** 
 103:/home/zkmike/.local/share/renesas/e2_studio/toolchains/gcc_arm/gcc-arm-none-eabi-6-2017-q2-update/arm-none-eabi/include/c++/6.3.1/bits/char_traits.h ****       static int
 104:/home/zkmike/.local/share/renesas/e2_studio/toolchains/gcc_arm/gcc-arm-none-eabi-6-2017-q2-update/arm-none-eabi/include/c++/6.3.1/bits/char_traits.h ****       compare(const char_type* __s1, const char_type* __s2, std::size_t __n);
 105:/home/zkmike/.local/share/renesas/e2_studio/toolchains/gcc_arm/gcc-arm-none-eabi-6-2017-q2-update/arm-none-eabi/include/c++/6.3.1/bits/char_traits.h **** 
 106:/home/zkmike/.local/share/renesas/e2_studio/toolchains/gcc_arm/gcc-arm-none-eabi-6-2017-q2-update/arm-none-eabi/include/c++/6.3.1/bits/char_traits.h ****       static std::size_t
 107:/home/zkmike/.local/share/renesas/e2_studio/toolchains/gcc_arm/gcc-arm-none-eabi-6-2017-q2-update/arm-none-eabi/include/c++/6.3.1/bits/char_traits.h ****       length(const char_type* __s);
 108:/home/zkmike/.local/share/renesas/e2_studio/toolchains/gcc_arm/gcc-arm-none-eabi-6-2017-q2-update/arm-none-eabi/include/c++/6.3.1/bits/char_traits.h **** 
 109:/home/zkmike/.local/share/renesas/e2_studio/toolchains/gcc_arm/gcc-arm-none-eabi-6-2017-q2-update/arm-none-eabi/include/c++/6.3.1/bits/char_traits.h ****       static const char_type*
 110:/home/zkmike/.local/share/renesas/e2_studio/toolchains/gcc_arm/gcc-arm-none-eabi-6-2017-q2-update/arm-none-eabi/include/c++/6.3.1/bits/char_traits.h ****       find(const char_type* __s, std::size_t __n, const char_type& __a);
 111:/home/zkmike/.local/share/renesas/e2_studio/toolchains/gcc_arm/gcc-arm-none-eabi-6-2017-q2-update/arm-none-eabi/include/c++/6.3.1/bits/char_traits.h **** 
 112:/home/zkmike/.local/share/renesas/e2_studio/toolchains/gcc_arm/gcc-arm-none-eabi-6-2017-q2-update/arm-none-eabi/include/c++/6.3.1/bits/char_traits.h ****       static char_type*
 113:/home/zkmike/.local/share/renesas/e2_studio/toolchains/gcc_arm/gcc-arm-none-eabi-6-2017-q2-update/arm-none-eabi/include/c++/6.3.1/bits/char_traits.h ****       move(char_type* __s1, const char_type* __s2, std::size_t __n);
 114:/home/zkmike/.local/share/renesas/e2_studio/toolchains/gcc_arm/gcc-arm-none-eabi-6-2017-q2-update/arm-none-eabi/include/c++/6.3.1/bits/char_traits.h **** 
 115:/home/zkmike/.local/share/renesas/e2_studio/toolchains/gcc_arm/gcc-arm-none-eabi-6-2017-q2-update/arm-none-eabi/include/c++/6.3.1/bits/char_traits.h ****       static char_type*
 116:/home/zkmike/.local/share/renesas/e2_studio/toolchains/gcc_arm/gcc-arm-none-eabi-6-2017-q2-update/arm-none-eabi/include/c++/6.3.1/bits/char_traits.h ****       copy(char_type* __s1, const char_type* __s2, std::size_t __n);
 117:/home/zkmike/.local/share/renesas/e2_studio/toolchains/gcc_arm/gcc-arm-none-eabi-6-2017-q2-update/arm-none-eabi/include/c++/6.3.1/bits/char_traits.h **** 
 118:/home/zkmike/.local/share/renesas/e2_studio/toolchains/gcc_arm/gcc-arm-none-eabi-6-2017-q2-update/arm-none-eabi/include/c++/6.3.1/bits/char_traits.h ****       static char_type*
 119:/home/zkmike/.local/share/renesas/e2_studio/toolchains/gcc_arm/gcc-arm-none-eabi-6-2017-q2-update/arm-none-eabi/include/c++/6.3.1/bits/char_traits.h ****       assign(char_type* __s, std::size_t __n, char_type __a);
 120:/home/zkmike/.local/share/renesas/e2_studio/toolchains/gcc_arm/gcc-arm-none-eabi-6-2017-q2-update/arm-none-eabi/include/c++/6.3.1/bits/char_traits.h **** 
 121:/home/zkmike/.local/share/renesas/e2_studio/toolchains/gcc_arm/gcc-arm-none-eabi-6-2017-q2-update/arm-none-eabi/include/c++/6.3.1/bits/char_traits.h ****       static _GLIBCXX_CONSTEXPR char_type
 122:/home/zkmike/.local/share/renesas/e2_studio/toolchains/gcc_arm/gcc-arm-none-eabi-6-2017-q2-update/arm-none-eabi/include/c++/6.3.1/bits/char_traits.h ****       to_char_type(const int_type& __c)
 123:/home/zkmike/.local/share/renesas/e2_studio/toolchains/gcc_arm/gcc-arm-none-eabi-6-2017-q2-update/arm-none-eabi/include/c++/6.3.1/bits/char_traits.h ****       { return static_cast<char_type>(__c); }
 124:/home/zkmike/.local/share/renesas/e2_studio/toolchains/gcc_arm/gcc-arm-none-eabi-6-2017-q2-update/arm-none-eabi/include/c++/6.3.1/bits/char_traits.h **** 
 125:/home/zkmike/.local/share/renesas/e2_studio/toolchains/gcc_arm/gcc-arm-none-eabi-6-2017-q2-update/arm-none-eabi/include/c++/6.3.1/bits/char_traits.h ****       static _GLIBCXX_CONSTEXPR int_type
 126:/home/zkmike/.local/share/renesas/e2_studio/toolchains/gcc_arm/gcc-arm-none-eabi-6-2017-q2-update/arm-none-eabi/include/c++/6.3.1/bits/char_traits.h ****       to_int_type(const char_type& __c)
 127:/home/zkmike/.local/share/renesas/e2_studio/toolchains/gcc_arm/gcc-arm-none-eabi-6-2017-q2-update/arm-none-eabi/include/c++/6.3.1/bits/char_traits.h ****       { return static_cast<int_type>(__c); }
 128:/home/zkmike/.local/share/renesas/e2_studio/toolchains/gcc_arm/gcc-arm-none-eabi-6-2017-q2-update/arm-none-eabi/include/c++/6.3.1/bits/char_traits.h **** 
 129:/home/zkmike/.local/share/renesas/e2_studio/toolchains/gcc_arm/gcc-arm-none-eabi-6-2017-q2-update/arm-none-eabi/include/c++/6.3.1/bits/char_traits.h ****       static _GLIBCXX_CONSTEXPR bool
 130:/home/zkmike/.local/share/renesas/e2_studio/toolchains/gcc_arm/gcc-arm-none-eabi-6-2017-q2-update/arm-none-eabi/include/c++/6.3.1/bits/char_traits.h ****       eq_int_type(const int_type& __c1, const int_type& __c2)
 131:/home/zkmike/.local/share/renesas/e2_studio/toolchains/gcc_arm/gcc-arm-none-eabi-6-2017-q2-update/arm-none-eabi/include/c++/6.3.1/bits/char_traits.h ****       { return __c1 == __c2; }
 132:/home/zkmike/.local/share/renesas/e2_studio/toolchains/gcc_arm/gcc-arm-none-eabi-6-2017-q2-update/arm-none-eabi/include/c++/6.3.1/bits/char_traits.h **** 
 133:/home/zkmike/.local/share/renesas/e2_studio/toolchains/gcc_arm/gcc-arm-none-eabi-6-2017-q2-update/arm-none-eabi/include/c++/6.3.1/bits/char_traits.h ****       static _GLIBCXX_CONSTEXPR int_type
 134:/home/zkmike/.local/share/renesas/e2_studio/toolchains/gcc_arm/gcc-arm-none-eabi-6-2017-q2-update/arm-none-eabi/include/c++/6.3.1/bits/char_traits.h ****       eof()
 135:/home/zkmike/.local/share/renesas/e2_studio/toolchains/gcc_arm/gcc-arm-none-eabi-6-2017-q2-update/arm-none-eabi/include/c++/6.3.1/bits/char_traits.h ****       { return static_cast<int_type>(_GLIBCXX_STDIO_EOF); }
 136:/home/zkmike/.local/share/renesas/e2_studio/toolchains/gcc_arm/gcc-arm-none-eabi-6-2017-q2-update/arm-none-eabi/include/c++/6.3.1/bits/char_traits.h **** 
 137:/home/zkmike/.local/share/renesas/e2_studio/toolchains/gcc_arm/gcc-arm-none-eabi-6-2017-q2-update/arm-none-eabi/include/c++/6.3.1/bits/char_traits.h ****       static _GLIBCXX_CONSTEXPR int_type
 138:/home/zkmike/.local/share/renesas/e2_studio/toolchains/gcc_arm/gcc-arm-none-eabi-6-2017-q2-update/arm-none-eabi/include/c++/6.3.1/bits/char_traits.h ****       not_eof(const int_type& __c)
 139:/home/zkmike/.local/share/renesas/e2_studio/toolchains/gcc_arm/gcc-arm-none-eabi-6-2017-q2-update/arm-none-eabi/include/c++/6.3.1/bits/char_traits.h ****       { return !eq_int_type(__c, eof()) ? __c : to_int_type(char_type()); }
 140:/home/zkmike/.local/share/renesas/e2_studio/toolchains/gcc_arm/gcc-arm-none-eabi-6-2017-q2-update/arm-none-eabi/include/c++/6.3.1/bits/char_traits.h ****     };
 141:/home/zkmike/.local/share/renesas/e2_studio/toolchains/gcc_arm/gcc-arm-none-eabi-6-2017-q2-update/arm-none-eabi/include/c++/6.3.1/bits/char_traits.h **** 
 142:/home/zkmike/.local/share/renesas/e2_studio/toolchains/gcc_arm/gcc-arm-none-eabi-6-2017-q2-update/arm-none-eabi/include/c++/6.3.1/bits/char_traits.h ****   template<typename _CharT>
 143:/home/zkmike/.local/share/renesas/e2_studio/toolchains/gcc_arm/gcc-arm-none-eabi-6-2017-q2-update/arm-none-eabi/include/c++/6.3.1/bits/char_traits.h ****     int
 144:/home/zkmike/.local/share/renesas/e2_studio/toolchains/gcc_arm/gcc-arm-none-eabi-6-2017-q2-update/arm-none-eabi/include/c++/6.3.1/bits/char_traits.h ****     char_traits<_CharT>::
 145:/home/zkmike/.local/share/renesas/e2_studio/toolchains/gcc_arm/gcc-arm-none-eabi-6-2017-q2-update/arm-none-eabi/include/c++/6.3.1/bits/char_traits.h ****     compare(const char_type* __s1, const char_type* __s2, std::size_t __n)
 146:/home/zkmike/.local/share/renesas/e2_studio/toolchains/gcc_arm/gcc-arm-none-eabi-6-2017-q2-update/arm-none-eabi/include/c++/6.3.1/bits/char_traits.h ****     {
 147:/home/zkmike/.local/share/renesas/e2_studio/toolchains/gcc_arm/gcc-arm-none-eabi-6-2017-q2-update/arm-none-eabi/include/c++/6.3.1/bits/char_traits.h ****       for (std::size_t __i = 0; __i < __n; ++__i)
 148:/home/zkmike/.local/share/renesas/e2_studio/toolchains/gcc_arm/gcc-arm-none-eabi-6-2017-q2-update/arm-none-eabi/include/c++/6.3.1/bits/char_traits.h **** 	if (lt(__s1[__i], __s2[__i]))
 149:/home/zkmike/.local/share/renesas/e2_studio/toolchains/gcc_arm/gcc-arm-none-eabi-6-2017-q2-update/arm-none-eabi/include/c++/6.3.1/bits/char_traits.h **** 	  return -1;
 150:/home/zkmike/.local/share/renesas/e2_studio/toolchains/gcc_arm/gcc-arm-none-eabi-6-2017-q2-update/arm-none-eabi/include/c++/6.3.1/bits/char_traits.h **** 	else if (lt(__s2[__i], __s1[__i]))
 151:/home/zkmike/.local/share/renesas/e2_studio/toolchains/gcc_arm/gcc-arm-none-eabi-6-2017-q2-update/arm-none-eabi/include/c++/6.3.1/bits/char_traits.h **** 	  return 1;
 152:/home/zkmike/.local/share/renesas/e2_studio/toolchains/gcc_arm/gcc-arm-none-eabi-6-2017-q2-update/arm-none-eabi/include/c++/6.3.1/bits/char_traits.h ****       return 0;
 153:/home/zkmike/.local/share/renesas/e2_studio/toolchains/gcc_arm/gcc-arm-none-eabi-6-2017-q2-update/arm-none-eabi/include/c++/6.3.1/bits/char_traits.h ****     }
 154:/home/zkmike/.local/share/renesas/e2_studio/toolchains/gcc_arm/gcc-arm-none-eabi-6-2017-q2-update/arm-none-eabi/include/c++/6.3.1/bits/char_traits.h **** 
 155:/home/zkmike/.local/share/renesas/e2_studio/toolchains/gcc_arm/gcc-arm-none-eabi-6-2017-q2-update/arm-none-eabi/include/c++/6.3.1/bits/char_traits.h ****   template<typename _CharT>
 156:/home/zkmike/.local/share/renesas/e2_studio/toolchains/gcc_arm/gcc-arm-none-eabi-6-2017-q2-update/arm-none-eabi/include/c++/6.3.1/bits/char_traits.h ****     std::size_t
 157:/home/zkmike/.local/share/renesas/e2_studio/toolchains/gcc_arm/gcc-arm-none-eabi-6-2017-q2-update/arm-none-eabi/include/c++/6.3.1/bits/char_traits.h ****     char_traits<_CharT>::
 158:/home/zkmike/.local/share/renesas/e2_studio/toolchains/gcc_arm/gcc-arm-none-eabi-6-2017-q2-update/arm-none-eabi/include/c++/6.3.1/bits/char_traits.h ****     length(const char_type* __p)
 159:/home/zkmike/.local/share/renesas/e2_studio/toolchains/gcc_arm/gcc-arm-none-eabi-6-2017-q2-update/arm-none-eabi/include/c++/6.3.1/bits/char_traits.h ****     {
 160:/home/zkmike/.local/share/renesas/e2_studio/toolchains/gcc_arm/gcc-arm-none-eabi-6-2017-q2-update/arm-none-eabi/include/c++/6.3.1/bits/char_traits.h ****       std::size_t __i = 0;
 161:/home/zkmike/.local/share/renesas/e2_studio/toolchains/gcc_arm/gcc-arm-none-eabi-6-2017-q2-update/arm-none-eabi/include/c++/6.3.1/bits/char_traits.h ****       while (!eq(__p[__i], char_type()))
 162:/home/zkmike/.local/share/renesas/e2_studio/toolchains/gcc_arm/gcc-arm-none-eabi-6-2017-q2-update/arm-none-eabi/include/c++/6.3.1/bits/char_traits.h ****         ++__i;
 163:/home/zkmike/.local/share/renesas/e2_studio/toolchains/gcc_arm/gcc-arm-none-eabi-6-2017-q2-update/arm-none-eabi/include/c++/6.3.1/bits/char_traits.h ****       return __i;
 164:/home/zkmike/.local/share/renesas/e2_studio/toolchains/gcc_arm/gcc-arm-none-eabi-6-2017-q2-update/arm-none-eabi/include/c++/6.3.1/bits/char_traits.h ****     }
 165:/home/zkmike/.local/share/renesas/e2_studio/toolchains/gcc_arm/gcc-arm-none-eabi-6-2017-q2-update/arm-none-eabi/include/c++/6.3.1/bits/char_traits.h **** 
 166:/home/zkmike/.local/share/renesas/e2_studio/toolchains/gcc_arm/gcc-arm-none-eabi-6-2017-q2-update/arm-none-eabi/include/c++/6.3.1/bits/char_traits.h ****   template<typename _CharT>
 167:/home/zkmike/.local/share/renesas/e2_studio/toolchains/gcc_arm/gcc-arm-none-eabi-6-2017-q2-update/arm-none-eabi/include/c++/6.3.1/bits/char_traits.h ****     const typename char_traits<_CharT>::char_type*
 168:/home/zkmike/.local/share/renesas/e2_studio/toolchains/gcc_arm/gcc-arm-none-eabi-6-2017-q2-update/arm-none-eabi/include/c++/6.3.1/bits/char_traits.h ****     char_traits<_CharT>::
 169:/home/zkmike/.local/share/renesas/e2_studio/toolchains/gcc_arm/gcc-arm-none-eabi-6-2017-q2-update/arm-none-eabi/include/c++/6.3.1/bits/char_traits.h ****     find(const char_type* __s, std::size_t __n, const char_type& __a)
 170:/home/zkmike/.local/share/renesas/e2_studio/toolchains/gcc_arm/gcc-arm-none-eabi-6-2017-q2-update/arm-none-eabi/include/c++/6.3.1/bits/char_traits.h ****     {
 171:/home/zkmike/.local/share/renesas/e2_studio/toolchains/gcc_arm/gcc-arm-none-eabi-6-2017-q2-update/arm-none-eabi/include/c++/6.3.1/bits/char_traits.h ****       for (std::size_t __i = 0; __i < __n; ++__i)
 172:/home/zkmike/.local/share/renesas/e2_studio/toolchains/gcc_arm/gcc-arm-none-eabi-6-2017-q2-update/arm-none-eabi/include/c++/6.3.1/bits/char_traits.h ****         if (eq(__s[__i], __a))
 173:/home/zkmike/.local/share/renesas/e2_studio/toolchains/gcc_arm/gcc-arm-none-eabi-6-2017-q2-update/arm-none-eabi/include/c++/6.3.1/bits/char_traits.h ****           return __s + __i;
 174:/home/zkmike/.local/share/renesas/e2_studio/toolchains/gcc_arm/gcc-arm-none-eabi-6-2017-q2-update/arm-none-eabi/include/c++/6.3.1/bits/char_traits.h ****       return 0;
 175:/home/zkmike/.local/share/renesas/e2_studio/toolchains/gcc_arm/gcc-arm-none-eabi-6-2017-q2-update/arm-none-eabi/include/c++/6.3.1/bits/char_traits.h ****     }
 176:/home/zkmike/.local/share/renesas/e2_studio/toolchains/gcc_arm/gcc-arm-none-eabi-6-2017-q2-update/arm-none-eabi/include/c++/6.3.1/bits/char_traits.h **** 
 177:/home/zkmike/.local/share/renesas/e2_studio/toolchains/gcc_arm/gcc-arm-none-eabi-6-2017-q2-update/arm-none-eabi/include/c++/6.3.1/bits/char_traits.h ****   template<typename _CharT>
 178:/home/zkmike/.local/share/renesas/e2_studio/toolchains/gcc_arm/gcc-arm-none-eabi-6-2017-q2-update/arm-none-eabi/include/c++/6.3.1/bits/char_traits.h ****     typename char_traits<_CharT>::char_type*
 179:/home/zkmike/.local/share/renesas/e2_studio/toolchains/gcc_arm/gcc-arm-none-eabi-6-2017-q2-update/arm-none-eabi/include/c++/6.3.1/bits/char_traits.h ****     char_traits<_CharT>::
 180:/home/zkmike/.local/share/renesas/e2_studio/toolchains/gcc_arm/gcc-arm-none-eabi-6-2017-q2-update/arm-none-eabi/include/c++/6.3.1/bits/char_traits.h ****     move(char_type* __s1, const char_type* __s2, std::size_t __n)
 181:/home/zkmike/.local/share/renesas/e2_studio/toolchains/gcc_arm/gcc-arm-none-eabi-6-2017-q2-update/arm-none-eabi/include/c++/6.3.1/bits/char_traits.h ****     {
 182:/home/zkmike/.local/share/renesas/e2_studio/toolchains/gcc_arm/gcc-arm-none-eabi-6-2017-q2-update/arm-none-eabi/include/c++/6.3.1/bits/char_traits.h ****       return static_cast<_CharT*>(__builtin_memmove(__s1, __s2,
 183:/home/zkmike/.local/share/renesas/e2_studio/toolchains/gcc_arm/gcc-arm-none-eabi-6-2017-q2-update/arm-none-eabi/include/c++/6.3.1/bits/char_traits.h **** 						    __n * sizeof(char_type)));
 184:/home/zkmike/.local/share/renesas/e2_studio/toolchains/gcc_arm/gcc-arm-none-eabi-6-2017-q2-update/arm-none-eabi/include/c++/6.3.1/bits/char_traits.h ****     }
 185:/home/zkmike/.local/share/renesas/e2_studio/toolchains/gcc_arm/gcc-arm-none-eabi-6-2017-q2-update/arm-none-eabi/include/c++/6.3.1/bits/char_traits.h **** 
 186:/home/zkmike/.local/share/renesas/e2_studio/toolchains/gcc_arm/gcc-arm-none-eabi-6-2017-q2-update/arm-none-eabi/include/c++/6.3.1/bits/char_traits.h ****   template<typename _CharT>
 187:/home/zkmike/.local/share/renesas/e2_studio/toolchains/gcc_arm/gcc-arm-none-eabi-6-2017-q2-update/arm-none-eabi/include/c++/6.3.1/bits/char_traits.h ****     typename char_traits<_CharT>::char_type*
 188:/home/zkmike/.local/share/renesas/e2_studio/toolchains/gcc_arm/gcc-arm-none-eabi-6-2017-q2-update/arm-none-eabi/include/c++/6.3.1/bits/char_traits.h ****     char_traits<_CharT>::
 189:/home/zkmike/.local/share/renesas/e2_studio/toolchains/gcc_arm/gcc-arm-none-eabi-6-2017-q2-update/arm-none-eabi/include/c++/6.3.1/bits/char_traits.h ****     copy(char_type* __s1, const char_type* __s2, std::size_t __n)
 190:/home/zkmike/.local/share/renesas/e2_studio/toolchains/gcc_arm/gcc-arm-none-eabi-6-2017-q2-update/arm-none-eabi/include/c++/6.3.1/bits/char_traits.h ****     {
 191:/home/zkmike/.local/share/renesas/e2_studio/toolchains/gcc_arm/gcc-arm-none-eabi-6-2017-q2-update/arm-none-eabi/include/c++/6.3.1/bits/char_traits.h ****       // NB: Inline std::copy so no recursive dependencies.
 192:/home/zkmike/.local/share/renesas/e2_studio/toolchains/gcc_arm/gcc-arm-none-eabi-6-2017-q2-update/arm-none-eabi/include/c++/6.3.1/bits/char_traits.h ****       std::copy(__s2, __s2 + __n, __s1);
 193:/home/zkmike/.local/share/renesas/e2_studio/toolchains/gcc_arm/gcc-arm-none-eabi-6-2017-q2-update/arm-none-eabi/include/c++/6.3.1/bits/char_traits.h ****       return __s1;
 194:/home/zkmike/.local/share/renesas/e2_studio/toolchains/gcc_arm/gcc-arm-none-eabi-6-2017-q2-update/arm-none-eabi/include/c++/6.3.1/bits/char_traits.h ****     }
 195:/home/zkmike/.local/share/renesas/e2_studio/toolchains/gcc_arm/gcc-arm-none-eabi-6-2017-q2-update/arm-none-eabi/include/c++/6.3.1/bits/char_traits.h **** 
 196:/home/zkmike/.local/share/renesas/e2_studio/toolchains/gcc_arm/gcc-arm-none-eabi-6-2017-q2-update/arm-none-eabi/include/c++/6.3.1/bits/char_traits.h ****   template<typename _CharT>
 197:/home/zkmike/.local/share/renesas/e2_studio/toolchains/gcc_arm/gcc-arm-none-eabi-6-2017-q2-update/arm-none-eabi/include/c++/6.3.1/bits/char_traits.h ****     typename char_traits<_CharT>::char_type*
 198:/home/zkmike/.local/share/renesas/e2_studio/toolchains/gcc_arm/gcc-arm-none-eabi-6-2017-q2-update/arm-none-eabi/include/c++/6.3.1/bits/char_traits.h ****     char_traits<_CharT>::
 199:/home/zkmike/.local/share/renesas/e2_studio/toolchains/gcc_arm/gcc-arm-none-eabi-6-2017-q2-update/arm-none-eabi/include/c++/6.3.1/bits/char_traits.h ****     assign(char_type* __s, std::size_t __n, char_type __a)
 200:/home/zkmike/.local/share/renesas/e2_studio/toolchains/gcc_arm/gcc-arm-none-eabi-6-2017-q2-update/arm-none-eabi/include/c++/6.3.1/bits/char_traits.h ****     {
 201:/home/zkmike/.local/share/renesas/e2_studio/toolchains/gcc_arm/gcc-arm-none-eabi-6-2017-q2-update/arm-none-eabi/include/c++/6.3.1/bits/char_traits.h ****       // NB: Inline std::fill_n so no recursive dependencies.
 202:/home/zkmike/.local/share/renesas/e2_studio/toolchains/gcc_arm/gcc-arm-none-eabi-6-2017-q2-update/arm-none-eabi/include/c++/6.3.1/bits/char_traits.h ****       std::fill_n(__s, __n, __a);
 203:/home/zkmike/.local/share/renesas/e2_studio/toolchains/gcc_arm/gcc-arm-none-eabi-6-2017-q2-update/arm-none-eabi/include/c++/6.3.1/bits/char_traits.h ****       return __s;
 204:/home/zkmike/.local/share/renesas/e2_studio/toolchains/gcc_arm/gcc-arm-none-eabi-6-2017-q2-update/arm-none-eabi/include/c++/6.3.1/bits/char_traits.h ****     }
 205:/home/zkmike/.local/share/renesas/e2_studio/toolchains/gcc_arm/gcc-arm-none-eabi-6-2017-q2-update/arm-none-eabi/include/c++/6.3.1/bits/char_traits.h **** 
 206:/home/zkmike/.local/share/renesas/e2_studio/toolchains/gcc_arm/gcc-arm-none-eabi-6-2017-q2-update/arm-none-eabi/include/c++/6.3.1/bits/char_traits.h **** _GLIBCXX_END_NAMESPACE_VERSION
 207:/home/zkmike/.local/share/renesas/e2_studio/toolchains/gcc_arm/gcc-arm-none-eabi-6-2017-q2-update/arm-none-eabi/include/c++/6.3.1/bits/char_traits.h **** } // namespace
 208:/home/zkmike/.local/share/renesas/e2_studio/toolchains/gcc_arm/gcc-arm-none-eabi-6-2017-q2-update/arm-none-eabi/include/c++/6.3.1/bits/char_traits.h **** 
 209:/home/zkmike/.local/share/renesas/e2_studio/toolchains/gcc_arm/gcc-arm-none-eabi-6-2017-q2-update/arm-none-eabi/include/c++/6.3.1/bits/char_traits.h **** namespace std _GLIBCXX_VISIBILITY(default)
 210:/home/zkmike/.local/share/renesas/e2_studio/toolchains/gcc_arm/gcc-arm-none-eabi-6-2017-q2-update/arm-none-eabi/include/c++/6.3.1/bits/char_traits.h **** {
 211:/home/zkmike/.local/share/renesas/e2_studio/toolchains/gcc_arm/gcc-arm-none-eabi-6-2017-q2-update/arm-none-eabi/include/c++/6.3.1/bits/char_traits.h **** _GLIBCXX_BEGIN_NAMESPACE_VERSION
 212:/home/zkmike/.local/share/renesas/e2_studio/toolchains/gcc_arm/gcc-arm-none-eabi-6-2017-q2-update/arm-none-eabi/include/c++/6.3.1/bits/char_traits.h **** 
 213:/home/zkmike/.local/share/renesas/e2_studio/toolchains/gcc_arm/gcc-arm-none-eabi-6-2017-q2-update/arm-none-eabi/include/c++/6.3.1/bits/char_traits.h ****   // 21.1
 214:/home/zkmike/.local/share/renesas/e2_studio/toolchains/gcc_arm/gcc-arm-none-eabi-6-2017-q2-update/arm-none-eabi/include/c++/6.3.1/bits/char_traits.h ****   /**
 215:/home/zkmike/.local/share/renesas/e2_studio/toolchains/gcc_arm/gcc-arm-none-eabi-6-2017-q2-update/arm-none-eabi/include/c++/6.3.1/bits/char_traits.h ****    *  @brief  Basis for explicit traits specializations.
 216:/home/zkmike/.local/share/renesas/e2_studio/toolchains/gcc_arm/gcc-arm-none-eabi-6-2017-q2-update/arm-none-eabi/include/c++/6.3.1/bits/char_traits.h ****    *
 217:/home/zkmike/.local/share/renesas/e2_studio/toolchains/gcc_arm/gcc-arm-none-eabi-6-2017-q2-update/arm-none-eabi/include/c++/6.3.1/bits/char_traits.h ****    *  @note  For any given actual character type, this definition is
 218:/home/zkmike/.local/share/renesas/e2_studio/toolchains/gcc_arm/gcc-arm-none-eabi-6-2017-q2-update/arm-none-eabi/include/c++/6.3.1/bits/char_traits.h ****    *  probably wrong.  Since this is just a thin wrapper around
 219:/home/zkmike/.local/share/renesas/e2_studio/toolchains/gcc_arm/gcc-arm-none-eabi-6-2017-q2-update/arm-none-eabi/include/c++/6.3.1/bits/char_traits.h ****    *  __gnu_cxx::char_traits, it is possible to achieve a more
 220:/home/zkmike/.local/share/renesas/e2_studio/toolchains/gcc_arm/gcc-arm-none-eabi-6-2017-q2-update/arm-none-eabi/include/c++/6.3.1/bits/char_traits.h ****    *  appropriate definition by specializing __gnu_cxx::char_traits.
 221:/home/zkmike/.local/share/renesas/e2_studio/toolchains/gcc_arm/gcc-arm-none-eabi-6-2017-q2-update/arm-none-eabi/include/c++/6.3.1/bits/char_traits.h ****    *
 222:/home/zkmike/.local/share/renesas/e2_studio/toolchains/gcc_arm/gcc-arm-none-eabi-6-2017-q2-update/arm-none-eabi/include/c++/6.3.1/bits/char_traits.h ****    *  See https://gcc.gnu.org/onlinedocs/libstdc++/manual/strings.html#strings.string.character_typ
 223:/home/zkmike/.local/share/renesas/e2_studio/toolchains/gcc_arm/gcc-arm-none-eabi-6-2017-q2-update/arm-none-eabi/include/c++/6.3.1/bits/char_traits.h ****    *  for advice on how to make use of this class for @a unusual character
 224:/home/zkmike/.local/share/renesas/e2_studio/toolchains/gcc_arm/gcc-arm-none-eabi-6-2017-q2-update/arm-none-eabi/include/c++/6.3.1/bits/char_traits.h ****    *  types. Also, check out include/ext/pod_char_traits.h.
 225:/home/zkmike/.local/share/renesas/e2_studio/toolchains/gcc_arm/gcc-arm-none-eabi-6-2017-q2-update/arm-none-eabi/include/c++/6.3.1/bits/char_traits.h ****   */
 226:/home/zkmike/.local/share/renesas/e2_studio/toolchains/gcc_arm/gcc-arm-none-eabi-6-2017-q2-update/arm-none-eabi/include/c++/6.3.1/bits/char_traits.h ****   template<class _CharT>
 227:/home/zkmike/.local/share/renesas/e2_studio/toolchains/gcc_arm/gcc-arm-none-eabi-6-2017-q2-update/arm-none-eabi/include/c++/6.3.1/bits/char_traits.h ****     struct char_traits : public __gnu_cxx::char_traits<_CharT>
 228:/home/zkmike/.local/share/renesas/e2_studio/toolchains/gcc_arm/gcc-arm-none-eabi-6-2017-q2-update/arm-none-eabi/include/c++/6.3.1/bits/char_traits.h ****     { };
 229:/home/zkmike/.local/share/renesas/e2_studio/toolchains/gcc_arm/gcc-arm-none-eabi-6-2017-q2-update/arm-none-eabi/include/c++/6.3.1/bits/char_traits.h **** 
 230:/home/zkmike/.local/share/renesas/e2_studio/toolchains/gcc_arm/gcc-arm-none-eabi-6-2017-q2-update/arm-none-eabi/include/c++/6.3.1/bits/char_traits.h **** 
 231:/home/zkmike/.local/share/renesas/e2_studio/toolchains/gcc_arm/gcc-arm-none-eabi-6-2017-q2-update/arm-none-eabi/include/c++/6.3.1/bits/char_traits.h ****   /// 21.1.3.1  char_traits specializations
 232:/home/zkmike/.local/share/renesas/e2_studio/toolchains/gcc_arm/gcc-arm-none-eabi-6-2017-q2-update/arm-none-eabi/include/c++/6.3.1/bits/char_traits.h ****   template<>
 233:/home/zkmike/.local/share/renesas/e2_studio/toolchains/gcc_arm/gcc-arm-none-eabi-6-2017-q2-update/arm-none-eabi/include/c++/6.3.1/bits/char_traits.h ****     struct char_traits<char>
 234:/home/zkmike/.local/share/renesas/e2_studio/toolchains/gcc_arm/gcc-arm-none-eabi-6-2017-q2-update/arm-none-eabi/include/c++/6.3.1/bits/char_traits.h ****     {
 235:/home/zkmike/.local/share/renesas/e2_studio/toolchains/gcc_arm/gcc-arm-none-eabi-6-2017-q2-update/arm-none-eabi/include/c++/6.3.1/bits/char_traits.h ****       typedef char              char_type;
 236:/home/zkmike/.local/share/renesas/e2_studio/toolchains/gcc_arm/gcc-arm-none-eabi-6-2017-q2-update/arm-none-eabi/include/c++/6.3.1/bits/char_traits.h ****       typedef int               int_type;
 237:/home/zkmike/.local/share/renesas/e2_studio/toolchains/gcc_arm/gcc-arm-none-eabi-6-2017-q2-update/arm-none-eabi/include/c++/6.3.1/bits/char_traits.h ****       typedef streampos         pos_type;
 238:/home/zkmike/.local/share/renesas/e2_studio/toolchains/gcc_arm/gcc-arm-none-eabi-6-2017-q2-update/arm-none-eabi/include/c++/6.3.1/bits/char_traits.h ****       typedef streamoff         off_type;
 239:/home/zkmike/.local/share/renesas/e2_studio/toolchains/gcc_arm/gcc-arm-none-eabi-6-2017-q2-update/arm-none-eabi/include/c++/6.3.1/bits/char_traits.h ****       typedef mbstate_t         state_type;
 240:/home/zkmike/.local/share/renesas/e2_studio/toolchains/gcc_arm/gcc-arm-none-eabi-6-2017-q2-update/arm-none-eabi/include/c++/6.3.1/bits/char_traits.h **** 
 241:/home/zkmike/.local/share/renesas/e2_studio/toolchains/gcc_arm/gcc-arm-none-eabi-6-2017-q2-update/arm-none-eabi/include/c++/6.3.1/bits/char_traits.h ****       static void
 242:/home/zkmike/.local/share/renesas/e2_studio/toolchains/gcc_arm/gcc-arm-none-eabi-6-2017-q2-update/arm-none-eabi/include/c++/6.3.1/bits/char_traits.h ****       assign(char_type& __c1, const char_type& __c2) _GLIBCXX_NOEXCEPT
 243:/home/zkmike/.local/share/renesas/e2_studio/toolchains/gcc_arm/gcc-arm-none-eabi-6-2017-q2-update/arm-none-eabi/include/c++/6.3.1/bits/char_traits.h ****       { __c1 = __c2; }
 244:/home/zkmike/.local/share/renesas/e2_studio/toolchains/gcc_arm/gcc-arm-none-eabi-6-2017-q2-update/arm-none-eabi/include/c++/6.3.1/bits/char_traits.h **** 
 245:/home/zkmike/.local/share/renesas/e2_studio/toolchains/gcc_arm/gcc-arm-none-eabi-6-2017-q2-update/arm-none-eabi/include/c++/6.3.1/bits/char_traits.h ****       static _GLIBCXX_CONSTEXPR bool
 246:/home/zkmike/.local/share/renesas/e2_studio/toolchains/gcc_arm/gcc-arm-none-eabi-6-2017-q2-update/arm-none-eabi/include/c++/6.3.1/bits/char_traits.h ****       eq(const char_type& __c1, const char_type& __c2) _GLIBCXX_NOEXCEPT
 247:/home/zkmike/.local/share/renesas/e2_studio/toolchains/gcc_arm/gcc-arm-none-eabi-6-2017-q2-update/arm-none-eabi/include/c++/6.3.1/bits/char_traits.h ****       { return __c1 == __c2; }
 248:/home/zkmike/.local/share/renesas/e2_studio/toolchains/gcc_arm/gcc-arm-none-eabi-6-2017-q2-update/arm-none-eabi/include/c++/6.3.1/bits/char_traits.h **** 
 249:/home/zkmike/.local/share/renesas/e2_studio/toolchains/gcc_arm/gcc-arm-none-eabi-6-2017-q2-update/arm-none-eabi/include/c++/6.3.1/bits/char_traits.h ****       static _GLIBCXX_CONSTEXPR bool
 250:/home/zkmike/.local/share/renesas/e2_studio/toolchains/gcc_arm/gcc-arm-none-eabi-6-2017-q2-update/arm-none-eabi/include/c++/6.3.1/bits/char_traits.h ****       lt(const char_type& __c1, const char_type& __c2) _GLIBCXX_NOEXCEPT
 251:/home/zkmike/.local/share/renesas/e2_studio/toolchains/gcc_arm/gcc-arm-none-eabi-6-2017-q2-update/arm-none-eabi/include/c++/6.3.1/bits/char_traits.h ****       {
 252:/home/zkmike/.local/share/renesas/e2_studio/toolchains/gcc_arm/gcc-arm-none-eabi-6-2017-q2-update/arm-none-eabi/include/c++/6.3.1/bits/char_traits.h **** 	// LWG 467.
 253:/home/zkmike/.local/share/renesas/e2_studio/toolchains/gcc_arm/gcc-arm-none-eabi-6-2017-q2-update/arm-none-eabi/include/c++/6.3.1/bits/char_traits.h **** 	return (static_cast<unsigned char>(__c1)
 254:/home/zkmike/.local/share/renesas/e2_studio/toolchains/gcc_arm/gcc-arm-none-eabi-6-2017-q2-update/arm-none-eabi/include/c++/6.3.1/bits/char_traits.h **** 		< static_cast<unsigned char>(__c2));
 255:/home/zkmike/.local/share/renesas/e2_studio/toolchains/gcc_arm/gcc-arm-none-eabi-6-2017-q2-update/arm-none-eabi/include/c++/6.3.1/bits/char_traits.h ****       }
 256:/home/zkmike/.local/share/renesas/e2_studio/toolchains/gcc_arm/gcc-arm-none-eabi-6-2017-q2-update/arm-none-eabi/include/c++/6.3.1/bits/char_traits.h **** 
 257:/home/zkmike/.local/share/renesas/e2_studio/toolchains/gcc_arm/gcc-arm-none-eabi-6-2017-q2-update/arm-none-eabi/include/c++/6.3.1/bits/char_traits.h ****       static int
 258:/home/zkmike/.local/share/renesas/e2_studio/toolchains/gcc_arm/gcc-arm-none-eabi-6-2017-q2-update/arm-none-eabi/include/c++/6.3.1/bits/char_traits.h ****       compare(const char_type* __s1, const char_type* __s2, size_t __n)
 259:/home/zkmike/.local/share/renesas/e2_studio/toolchains/gcc_arm/gcc-arm-none-eabi-6-2017-q2-update/arm-none-eabi/include/c++/6.3.1/bits/char_traits.h ****       {
 260:/home/zkmike/.local/share/renesas/e2_studio/toolchains/gcc_arm/gcc-arm-none-eabi-6-2017-q2-update/arm-none-eabi/include/c++/6.3.1/bits/char_traits.h **** 	if (__n == 0)
 261:/home/zkmike/.local/share/renesas/e2_studio/toolchains/gcc_arm/gcc-arm-none-eabi-6-2017-q2-update/arm-none-eabi/include/c++/6.3.1/bits/char_traits.h **** 	  return 0;
 262:/home/zkmike/.local/share/renesas/e2_studio/toolchains/gcc_arm/gcc-arm-none-eabi-6-2017-q2-update/arm-none-eabi/include/c++/6.3.1/bits/char_traits.h **** 	return __builtin_memcmp(__s1, __s2, __n);
 263:/home/zkmike/.local/share/renesas/e2_studio/toolchains/gcc_arm/gcc-arm-none-eabi-6-2017-q2-update/arm-none-eabi/include/c++/6.3.1/bits/char_traits.h ****       }
 264:/home/zkmike/.local/share/renesas/e2_studio/toolchains/gcc_arm/gcc-arm-none-eabi-6-2017-q2-update/arm-none-eabi/include/c++/6.3.1/bits/char_traits.h **** 
 265:/home/zkmike/.local/share/renesas/e2_studio/toolchains/gcc_arm/gcc-arm-none-eabi-6-2017-q2-update/arm-none-eabi/include/c++/6.3.1/bits/char_traits.h ****       static size_t
 266:/home/zkmike/.local/share/renesas/e2_studio/toolchains/gcc_arm/gcc-arm-none-eabi-6-2017-q2-update/arm-none-eabi/include/c++/6.3.1/bits/char_traits.h ****       length(const char_type* __s)
 267:/home/zkmike/.local/share/renesas/e2_studio/toolchains/gcc_arm/gcc-arm-none-eabi-6-2017-q2-update/arm-none-eabi/include/c++/6.3.1/bits/char_traits.h ****       { return __builtin_strlen(__s); }
 268:/home/zkmike/.local/share/renesas/e2_studio/toolchains/gcc_arm/gcc-arm-none-eabi-6-2017-q2-update/arm-none-eabi/include/c++/6.3.1/bits/char_traits.h **** 
 269:/home/zkmike/.local/share/renesas/e2_studio/toolchains/gcc_arm/gcc-arm-none-eabi-6-2017-q2-update/arm-none-eabi/include/c++/6.3.1/bits/char_traits.h ****       static const char_type*
 270:/home/zkmike/.local/share/renesas/e2_studio/toolchains/gcc_arm/gcc-arm-none-eabi-6-2017-q2-update/arm-none-eabi/include/c++/6.3.1/bits/char_traits.h ****       find(const char_type* __s, size_t __n, const char_type& __a)
 271:/home/zkmike/.local/share/renesas/e2_studio/toolchains/gcc_arm/gcc-arm-none-eabi-6-2017-q2-update/arm-none-eabi/include/c++/6.3.1/bits/char_traits.h ****       {
 272:/home/zkmike/.local/share/renesas/e2_studio/toolchains/gcc_arm/gcc-arm-none-eabi-6-2017-q2-update/arm-none-eabi/include/c++/6.3.1/bits/char_traits.h **** 	if (__n == 0)
 273:/home/zkmike/.local/share/renesas/e2_studio/toolchains/gcc_arm/gcc-arm-none-eabi-6-2017-q2-update/arm-none-eabi/include/c++/6.3.1/bits/char_traits.h **** 	  return 0;
 274:/home/zkmike/.local/share/renesas/e2_studio/toolchains/gcc_arm/gcc-arm-none-eabi-6-2017-q2-update/arm-none-eabi/include/c++/6.3.1/bits/char_traits.h **** 	return static_cast<const char_type*>(__builtin_memchr(__s, __a, __n));
 275:/home/zkmike/.local/share/renesas/e2_studio/toolchains/gcc_arm/gcc-arm-none-eabi-6-2017-q2-update/arm-none-eabi/include/c++/6.3.1/bits/char_traits.h ****       }
 276:/home/zkmike/.local/share/renesas/e2_studio/toolchains/gcc_arm/gcc-arm-none-eabi-6-2017-q2-update/arm-none-eabi/include/c++/6.3.1/bits/char_traits.h **** 
 277:/home/zkmike/.local/share/renesas/e2_studio/toolchains/gcc_arm/gcc-arm-none-eabi-6-2017-q2-update/arm-none-eabi/include/c++/6.3.1/bits/char_traits.h ****       static char_type*
 278:/home/zkmike/.local/share/renesas/e2_studio/toolchains/gcc_arm/gcc-arm-none-eabi-6-2017-q2-update/arm-none-eabi/include/c++/6.3.1/bits/char_traits.h ****       move(char_type* __s1, const char_type* __s2, size_t __n)
 279:/home/zkmike/.local/share/renesas/e2_studio/toolchains/gcc_arm/gcc-arm-none-eabi-6-2017-q2-update/arm-none-eabi/include/c++/6.3.1/bits/char_traits.h ****       {
 280:/home/zkmike/.local/share/renesas/e2_studio/toolchains/gcc_arm/gcc-arm-none-eabi-6-2017-q2-update/arm-none-eabi/include/c++/6.3.1/bits/char_traits.h **** 	if (__n == 0)
 281:/home/zkmike/.local/share/renesas/e2_studio/toolchains/gcc_arm/gcc-arm-none-eabi-6-2017-q2-update/arm-none-eabi/include/c++/6.3.1/bits/char_traits.h **** 	  return __s1;
 282:/home/zkmike/.local/share/renesas/e2_studio/toolchains/gcc_arm/gcc-arm-none-eabi-6-2017-q2-update/arm-none-eabi/include/c++/6.3.1/bits/char_traits.h **** 	return static_cast<char_type*>(__builtin_memmove(__s1, __s2, __n));
 283:/home/zkmike/.local/share/renesas/e2_studio/toolchains/gcc_arm/gcc-arm-none-eabi-6-2017-q2-update/arm-none-eabi/include/c++/6.3.1/bits/char_traits.h ****       }
 284:/home/zkmike/.local/share/renesas/e2_studio/toolchains/gcc_arm/gcc-arm-none-eabi-6-2017-q2-update/arm-none-eabi/include/c++/6.3.1/bits/char_traits.h **** 
 285:/home/zkmike/.local/share/renesas/e2_studio/toolchains/gcc_arm/gcc-arm-none-eabi-6-2017-q2-update/arm-none-eabi/include/c++/6.3.1/bits/char_traits.h ****       static char_type*
 286:/home/zkmike/.local/share/renesas/e2_studio/toolchains/gcc_arm/gcc-arm-none-eabi-6-2017-q2-update/arm-none-eabi/include/c++/6.3.1/bits/char_traits.h ****       copy(char_type* __s1, const char_type* __s2, size_t __n)
 287:/home/zkmike/.local/share/renesas/e2_studio/toolchains/gcc_arm/gcc-arm-none-eabi-6-2017-q2-update/arm-none-eabi/include/c++/6.3.1/bits/char_traits.h ****       {
 288:/home/zkmike/.local/share/renesas/e2_studio/toolchains/gcc_arm/gcc-arm-none-eabi-6-2017-q2-update/arm-none-eabi/include/c++/6.3.1/bits/char_traits.h **** 	if (__n == 0)
 870              		.loc 11 288 0
 871 003c 000054E3 		cmp	r4, #0
 872 0040 1900001A 		bne	.L72
 873              	.LVL67:
 874              	.L64:
 875              	.LBE841:
 876              	.LBE840:
 877              	.LBE839:
 878              	.LBE838:
 879              	.LBE837:
 218:/home/zkmike/.local/share/renesas/e2_studio/toolchains/gcc_arm/gcc-arm-none-eabi-6-2017-q2-update/arm-none-eabi/include/c++/6.3.1/bits/basic_string.tcc **** 	  {
 219:/home/zkmike/.local/share/renesas/e2_studio/toolchains/gcc_arm/gcc-arm-none-eabi-6-2017-q2-update/arm-none-eabi/include/c++/6.3.1/bits/basic_string.tcc **** 	    _M_data(_M_create(__dnew, size_type(0)));
 220:/home/zkmike/.local/share/renesas/e2_studio/toolchains/gcc_arm/gcc-arm-none-eabi-6-2017-q2-update/arm-none-eabi/include/c++/6.3.1/bits/basic_string.tcc **** 	    _M_capacity(__dnew);
 221:/home/zkmike/.local/share/renesas/e2_studio/toolchains/gcc_arm/gcc-arm-none-eabi-6-2017-q2-update/arm-none-eabi/include/c++/6.3.1/bits/basic_string.tcc **** 	  }
 222:/home/zkmike/.local/share/renesas/e2_studio/toolchains/gcc_arm/gcc-arm-none-eabi-6-2017-q2-update/arm-none-eabi/include/c++/6.3.1/bits/basic_string.tcc **** 
 223:/home/zkmike/.local/share/renesas/e2_studio/toolchains/gcc_arm/gcc-arm-none-eabi-6-2017-q2-update/arm-none-eabi/include/c++/6.3.1/bits/basic_string.tcc **** 	// Check for out_of_range and length_error exceptions.
 224:/home/zkmike/.local/share/renesas/e2_studio/toolchains/gcc_arm/gcc-arm-none-eabi-6-2017-q2-update/arm-none-eabi/include/c++/6.3.1/bits/basic_string.tcc **** 	__try
 225:/home/zkmike/.local/share/renesas/e2_studio/toolchains/gcc_arm/gcc-arm-none-eabi-6-2017-q2-update/arm-none-eabi/include/c++/6.3.1/bits/basic_string.tcc **** 	  { this->_S_copy_chars(_M_data(), __beg, __end); }
 226:/home/zkmike/.local/share/renesas/e2_studio/toolchains/gcc_arm/gcc-arm-none-eabi-6-2017-q2-update/arm-none-eabi/include/c++/6.3.1/bits/basic_string.tcc **** 	__catch(...)
 227:/home/zkmike/.local/share/renesas/e2_studio/toolchains/gcc_arm/gcc-arm-none-eabi-6-2017-q2-update/arm-none-eabi/include/c++/6.3.1/bits/basic_string.tcc **** 	  {
 228:/home/zkmike/.local/share/renesas/e2_studio/toolchains/gcc_arm/gcc-arm-none-eabi-6-2017-q2-update/arm-none-eabi/include/c++/6.3.1/bits/basic_string.tcc **** 	    _M_dispose();
 229:/home/zkmike/.local/share/renesas/e2_studio/toolchains/gcc_arm/gcc-arm-none-eabi-6-2017-q2-update/arm-none-eabi/include/c++/6.3.1/bits/basic_string.tcc **** 	    __throw_exception_again;
 230:/home/zkmike/.local/share/renesas/e2_studio/toolchains/gcc_arm/gcc-arm-none-eabi-6-2017-q2-update/arm-none-eabi/include/c++/6.3.1/bits/basic_string.tcc **** 	  }
 231:/home/zkmike/.local/share/renesas/e2_studio/toolchains/gcc_arm/gcc-arm-none-eabi-6-2017-q2-update/arm-none-eabi/include/c++/6.3.1/bits/basic_string.tcc **** 
 232:/home/zkmike/.local/share/renesas/e2_studio/toolchains/gcc_arm/gcc-arm-none-eabi-6-2017-q2-update/arm-none-eabi/include/c++/6.3.1/bits/basic_string.tcc **** 	_M_set_length(__dnew);
 880              		.loc 9 232 0
 881 0044 04309DE5 		ldr	r3, [sp, #4]
 882              	.LVL68:
 883              	.LBB848:
 884              	.LBB849:
 885              	.LBB850:
 886              	.LBB851:
 132:/home/zkmike/.local/share/renesas/e2_studio/toolchains/gcc_arm/gcc-arm-none-eabi-6-2017-q2-update/arm-none-eabi/include/c++/6.3.1/bits/basic_string.h **** 
 887              		.loc 3 132 0
 888 0048 043085E5 		str	r3, [r5, #4]
 889              	.LVL69:
 890              	.LBE851:
 891              	.LBE850:
 892              	.LBB852:
 893              	.LBB853:
 136:/home/zkmike/.local/share/renesas/e2_studio/toolchains/gcc_arm/gcc-arm-none-eabi-6-2017-q2-update/arm-none-eabi/include/c++/6.3.1/bits/basic_string.h **** 
 894              		.loc 3 136 0
 895 004c 002095E5 		ldr	r2, [r5]
 896              	.LVL70:
 897              	.LBE853:
 898              	.LBE852:
 899              	.LBB854:
 900              	.LBB855:
 243:/home/zkmike/.local/share/renesas/e2_studio/toolchains/gcc_arm/gcc-arm-none-eabi-6-2017-q2-update/arm-none-eabi/include/c++/6.3.1/bits/char_traits.h **** 
 901              		.loc 11 243 0
 902 0050 0010A0E3 		mov	r1, #0
 903 0054 0310C2E7 		strb	r1, [r2, r3]
 904              	.LVL71:
 905              	.LBE855:
 906              	.LBE854:
 907              	.LBE849:
 908              	.LBE848:
 233:/home/zkmike/.local/share/renesas/e2_studio/toolchains/gcc_arm/gcc-arm-none-eabi-6-2017-q2-update/arm-none-eabi/include/c++/6.3.1/bits/basic_string.tcc ****       }
 909              		.loc 9 233 0
 910 0058 08D08DE2 		add	sp, sp, #8
 911              		.cfi_remember_state
 912              		.cfi_def_cfa_offset 16
 913              		@ sp needed
 914 005c 7080BDE8 		pop	{r4, r5, r6, pc}
 915              	.LVL72:
 916              	.L68:
 917              		.cfi_restore_state
 211:/home/zkmike/.local/share/renesas/e2_studio/toolchains/gcc_arm/gcc-arm-none-eabi-6-2017-q2-update/arm-none-eabi/include/c++/6.3.1/bits/basic_string.tcc **** 	  std::__throw_logic_error(__N("basic_string::"
 918              		.loc 9 211 0 discriminator 1
 919 0060 020056E1 		cmp	r6, r2
 211:/home/zkmike/.local/share/renesas/e2_studio/toolchains/gcc_arm/gcc-arm-none-eabi-6-2017-q2-update/arm-none-eabi/include/c++/6.3.1/bits/basic_string.tcc **** 	  std::__throw_logic_error(__N("basic_string::"
 920              		.loc 9 211 0 is_stmt 0
 921 0064 0130A013 		movne	r3, #1
 922 0068 EAFFFF1A 		bne	.L60
 923              	.L73:
 924 006c 0030A0E3 		mov	r3, #0
 925 0070 E8FFFFEA 		b	.L60
 926              	.L69:
 212:/home/zkmike/.local/share/renesas/e2_studio/toolchains/gcc_arm/gcc-arm-none-eabi-6-2017-q2-update/arm-none-eabi/include/c++/6.3.1/bits/basic_string.tcc **** 				       "_M_construct null not valid"));
 927              		.loc 9 212 0 is_stmt 1
 928 0074 000000E3 		movw	r0, #:lower16:.LC1
 929              	.LVL73:
 930 0078 000040E3 		movt	r0, #:upper16:.LC1
 931 007c FEFFFFEB 		bl	_ZSt19__throw_logic_errorPKc
 932              	.LVL74:
 933              	.L70:
 219:/home/zkmike/.local/share/renesas/e2_studio/toolchains/gcc_arm/gcc-arm-none-eabi-6-2017-q2-update/arm-none-eabi/include/c++/6.3.1/bits/basic_string.tcc **** 	    _M_capacity(__dnew);
 934              		.loc 9 219 0
 935 0080 0020A0E3 		mov	r2, #0
 936              	.LVL75:
 937 0084 04108DE2 		add	r1, sp, #4
 938              	.LVL76:
 939 0088 0500A0E1 		mov	r0, r5
 940              	.LVL77:
 941 008c FEFFFFEB 		bl	_ZNSt7__cxx1112basic_stringIcSt11char_traitsIcESaIcEE9_M_createERjj
 942              	.LVL78:
 943              	.LBB856:
 944              	.LBB857:
 128:/home/zkmike/.local/share/renesas/e2_studio/toolchains/gcc_arm/gcc-arm-none-eabi-6-2017-q2-update/arm-none-eabi/include/c++/6.3.1/bits/basic_string.h **** 
 945              		.loc 3 128 0
 946 0090 000085E5 		str	r0, [r5]
 947              	.LVL79:
 948              	.LBE857:
 949              	.LBE856:
 220:/home/zkmike/.local/share/renesas/e2_studio/toolchains/gcc_arm/gcc-arm-none-eabi-6-2017-q2-update/arm-none-eabi/include/c++/6.3.1/bits/basic_string.tcc **** 	  }
 950              		.loc 9 220 0
 951 0094 04309DE5 		ldr	r3, [sp, #4]
 952              	.LVL80:
 953              	.LBB858:
 954              	.LBB859:
 160:/home/zkmike/.local/share/renesas/e2_studio/toolchains/gcc_arm/gcc-arm-none-eabi-6-2017-q2-update/arm-none-eabi/include/c++/6.3.1/bits/basic_string.h **** 
 955              		.loc 3 160 0
 956 0098 083085E5 		str	r3, [r5, #8]
 957 009c E3FFFFEA 		b	.L62
 958              	.LVL81:
 959              	.L71:
 960              	.LBE859:
 961              	.LBE858:
 962              	.LBB860:
 963              	.LBB847:
 964              	.LBB846:
 965              	.LBB843:
 966              	.LBB844:
 243:/home/zkmike/.local/share/renesas/e2_studio/toolchains/gcc_arm/gcc-arm-none-eabi-6-2017-q2-update/arm-none-eabi/include/c++/6.3.1/bits/char_traits.h **** 
 967              		.loc 11 243 0
 968 00a0 0030D6E5 		ldrb	r3, [r6]	@ zero_extendqisi2
 969 00a4 0030C0E5 		strb	r3, [r0]
 970 00a8 E5FFFFEA 		b	.L64
 971              	.LVL82:
 972              	.L72:
 973              	.LBE844:
 974              	.LBE843:
 975              	.LBB845:
 976              	.LBB842:
 289:/home/zkmike/.local/share/renesas/e2_studio/toolchains/gcc_arm/gcc-arm-none-eabi-6-2017-q2-update/arm-none-eabi/include/c++/6.3.1/bits/char_traits.h **** 	  return __s1;
 290:/home/zkmike/.local/share/renesas/e2_studio/toolchains/gcc_arm/gcc-arm-none-eabi-6-2017-q2-update/arm-none-eabi/include/c++/6.3.1/bits/char_traits.h **** 	return static_cast<char_type*>(__builtin_memcpy(__s1, __s2, __n));
 977              		.loc 11 290 0
 978 00ac 0420A0E1 		mov	r2, r4
 979 00b0 0610A0E1 		mov	r1, r6
 980 00b4 FEFFFFEB 		bl	memcpy
 981              	.LVL83:
 982 00b8 E1FFFFEA 		b	.L64
 983              	.LBE842:
 984              	.LBE845:
 985              	.LBE846:
 986              	.LBE847:
 987              	.LBE860:
 988              		.cfi_endproc
 989              	.LFE2718:
 990              		.fnend
 992              		.section	.text._ZN5zxing6qrcode4ModeC2EiiiiPKc,"ax",%progbits
 993              		.align	2
 994              		.global	_ZN5zxing6qrcode4ModeC2EiiiiPKc
 995              		.syntax unified
 996              		.arm
 997              		.fpu neon
 999              	_ZN5zxing6qrcode4ModeC2EiiiiPKc:
 1000              		.fnstart
 1001              	.LFB2302:
  46:../src/zxing_lib/zxing/qrcode/decoder/Mode.cpp ****   characterCountBitsForVersions0To9_(cbv0_9), characterCountBitsForVersions10To26_(cbv10_26),
 1002              		.loc 6 46 0
 1003              		.cfi_startproc
 1004              		@ args = 8, pretend = 0, frame = 0
 1005              		@ frame_needed = 0, uses_anonymous_args = 0
 1006              	.LVL84:
 1007 0000 70402DE9 		push	{r4, r5, r6, lr}
 1008              		.save {r4, r5, r6, lr}
 1009              		.cfi_def_cfa_offset 16
 1010              		.cfi_offset 4, -16
 1011              		.cfi_offset 5, -12
 1012              		.cfi_offset 6, -8
 1013              		.cfi_offset 14, -4
 1014 0004 0040A0E1 		mov	r4, r0
 1015 0008 14509DE5 		ldr	r5, [sp, #20]
 1016              	.LBB887:
  48:../src/zxing_lib/zxing/qrcode/decoder/Mode.cpp **** }
 1017              		.loc 6 48 0
 1018 000c 001080E5 		str	r1, [r0]
 1019 0010 042080E5 		str	r2, [r0, #4]
 1020 0014 083080E5 		str	r3, [r0, #8]
 1021 0018 0C6080E2 		add	r6, r0, #12
 1022              	.LVL85:
 1023              	.LBB888:
 1024              	.LBB889:
 1025              	.LBB890:
 1026              	.LBB891:
 142:/home/zkmike/.local/share/renesas/e2_studio/toolchains/gcc_arm/gcc-arm-none-eabi-6-2017-q2-update/arm-none-eabi/include/c++/6.3.1/bits/basic_string.h **** #else
 1027              		.loc 3 142 0
 1028 001c 143080E2 		add	r3, r0, #20
 1029              	.LVL86:
 1030              	.LBE891:
 1031              	.LBE890:
 1032              	.LBB892:
 1033              	.LBB893:
 110:/home/zkmike/.local/share/renesas/e2_studio/toolchains/gcc_arm/gcc-arm-none-eabi-6-2017-q2-update/arm-none-eabi/include/c++/6.3.1/bits/basic_string.h **** 
 1034              		.loc 3 110 0
 1035 0020 0C3080E5 		str	r3, [r0, #12]
 1036              	.LVL87:
 1037              	.LBE893:
 1038              	.LBE892:
 298:/home/zkmike/.local/share/renesas/e2_studio/toolchains/gcc_arm/gcc-arm-none-eabi-6-2017-q2-update/arm-none-eabi/include/c++/6.3.1/bits/basic_string.h **** 	  traits_type::assign(*__d, *__s);
 299:/home/zkmike/.local/share/renesas/e2_studio/toolchains/gcc_arm/gcc-arm-none-eabi-6-2017-q2-update/arm-none-eabi/include/c++/6.3.1/bits/basic_string.h **** 	else
 300:/home/zkmike/.local/share/renesas/e2_studio/toolchains/gcc_arm/gcc-arm-none-eabi-6-2017-q2-update/arm-none-eabi/include/c++/6.3.1/bits/basic_string.h **** 	  traits_type::copy(__d, __s, __n);
 301:/home/zkmike/.local/share/renesas/e2_studio/toolchains/gcc_arm/gcc-arm-none-eabi-6-2017-q2-update/arm-none-eabi/include/c++/6.3.1/bits/basic_string.h ****       }
 302:/home/zkmike/.local/share/renesas/e2_studio/toolchains/gcc_arm/gcc-arm-none-eabi-6-2017-q2-update/arm-none-eabi/include/c++/6.3.1/bits/basic_string.h **** 
 303:/home/zkmike/.local/share/renesas/e2_studio/toolchains/gcc_arm/gcc-arm-none-eabi-6-2017-q2-update/arm-none-eabi/include/c++/6.3.1/bits/basic_string.h ****       static void
 304:/home/zkmike/.local/share/renesas/e2_studio/toolchains/gcc_arm/gcc-arm-none-eabi-6-2017-q2-update/arm-none-eabi/include/c++/6.3.1/bits/basic_string.h ****       _S_move(_CharT* __d, const _CharT* __s, size_type __n)
 305:/home/zkmike/.local/share/renesas/e2_studio/toolchains/gcc_arm/gcc-arm-none-eabi-6-2017-q2-update/arm-none-eabi/include/c++/6.3.1/bits/basic_string.h ****       {
 306:/home/zkmike/.local/share/renesas/e2_studio/toolchains/gcc_arm/gcc-arm-none-eabi-6-2017-q2-update/arm-none-eabi/include/c++/6.3.1/bits/basic_string.h **** 	if (__n == 1)
 307:/home/zkmike/.local/share/renesas/e2_studio/toolchains/gcc_arm/gcc-arm-none-eabi-6-2017-q2-update/arm-none-eabi/include/c++/6.3.1/bits/basic_string.h **** 	  traits_type::assign(*__d, *__s);
 308:/home/zkmike/.local/share/renesas/e2_studio/toolchains/gcc_arm/gcc-arm-none-eabi-6-2017-q2-update/arm-none-eabi/include/c++/6.3.1/bits/basic_string.h **** 	else
 309:/home/zkmike/.local/share/renesas/e2_studio/toolchains/gcc_arm/gcc-arm-none-eabi-6-2017-q2-update/arm-none-eabi/include/c++/6.3.1/bits/basic_string.h **** 	  traits_type::move(__d, __s, __n);
 310:/home/zkmike/.local/share/renesas/e2_studio/toolchains/gcc_arm/gcc-arm-none-eabi-6-2017-q2-update/arm-none-eabi/include/c++/6.3.1/bits/basic_string.h ****       }
 311:/home/zkmike/.local/share/renesas/e2_studio/toolchains/gcc_arm/gcc-arm-none-eabi-6-2017-q2-update/arm-none-eabi/include/c++/6.3.1/bits/basic_string.h **** 
 312:/home/zkmike/.local/share/renesas/e2_studio/toolchains/gcc_arm/gcc-arm-none-eabi-6-2017-q2-update/arm-none-eabi/include/c++/6.3.1/bits/basic_string.h ****       static void
 313:/home/zkmike/.local/share/renesas/e2_studio/toolchains/gcc_arm/gcc-arm-none-eabi-6-2017-q2-update/arm-none-eabi/include/c++/6.3.1/bits/basic_string.h ****       _S_assign(_CharT* __d, size_type __n, _CharT __c)
 314:/home/zkmike/.local/share/renesas/e2_studio/toolchains/gcc_arm/gcc-arm-none-eabi-6-2017-q2-update/arm-none-eabi/include/c++/6.3.1/bits/basic_string.h ****       {
 315:/home/zkmike/.local/share/renesas/e2_studio/toolchains/gcc_arm/gcc-arm-none-eabi-6-2017-q2-update/arm-none-eabi/include/c++/6.3.1/bits/basic_string.h **** 	if (__n == 1)
 316:/home/zkmike/.local/share/renesas/e2_studio/toolchains/gcc_arm/gcc-arm-none-eabi-6-2017-q2-update/arm-none-eabi/include/c++/6.3.1/bits/basic_string.h **** 	  traits_type::assign(*__d, __c);
 317:/home/zkmike/.local/share/renesas/e2_studio/toolchains/gcc_arm/gcc-arm-none-eabi-6-2017-q2-update/arm-none-eabi/include/c++/6.3.1/bits/basic_string.h **** 	else
 318:/home/zkmike/.local/share/renesas/e2_studio/toolchains/gcc_arm/gcc-arm-none-eabi-6-2017-q2-update/arm-none-eabi/include/c++/6.3.1/bits/basic_string.h **** 	  traits_type::assign(__d, __n, __c);
 319:/home/zkmike/.local/share/renesas/e2_studio/toolchains/gcc_arm/gcc-arm-none-eabi-6-2017-q2-update/arm-none-eabi/include/c++/6.3.1/bits/basic_string.h ****       }
 320:/home/zkmike/.local/share/renesas/e2_studio/toolchains/gcc_arm/gcc-arm-none-eabi-6-2017-q2-update/arm-none-eabi/include/c++/6.3.1/bits/basic_string.h **** 
 321:/home/zkmike/.local/share/renesas/e2_studio/toolchains/gcc_arm/gcc-arm-none-eabi-6-2017-q2-update/arm-none-eabi/include/c++/6.3.1/bits/basic_string.h ****       // _S_copy_chars is a separate template to permit specialization
 322:/home/zkmike/.local/share/renesas/e2_studio/toolchains/gcc_arm/gcc-arm-none-eabi-6-2017-q2-update/arm-none-eabi/include/c++/6.3.1/bits/basic_string.h ****       // to optimize for the common case of pointers as iterators.
 323:/home/zkmike/.local/share/renesas/e2_studio/toolchains/gcc_arm/gcc-arm-none-eabi-6-2017-q2-update/arm-none-eabi/include/c++/6.3.1/bits/basic_string.h ****       template<class _Iterator>
 324:/home/zkmike/.local/share/renesas/e2_studio/toolchains/gcc_arm/gcc-arm-none-eabi-6-2017-q2-update/arm-none-eabi/include/c++/6.3.1/bits/basic_string.h ****         static void
 325:/home/zkmike/.local/share/renesas/e2_studio/toolchains/gcc_arm/gcc-arm-none-eabi-6-2017-q2-update/arm-none-eabi/include/c++/6.3.1/bits/basic_string.h ****         _S_copy_chars(_CharT* __p, _Iterator __k1, _Iterator __k2)
 326:/home/zkmike/.local/share/renesas/e2_studio/toolchains/gcc_arm/gcc-arm-none-eabi-6-2017-q2-update/arm-none-eabi/include/c++/6.3.1/bits/basic_string.h ****         {
 327:/home/zkmike/.local/share/renesas/e2_studio/toolchains/gcc_arm/gcc-arm-none-eabi-6-2017-q2-update/arm-none-eabi/include/c++/6.3.1/bits/basic_string.h **** 	  for (; __k1 != __k2; ++__k1, (void)++__p)
 328:/home/zkmike/.local/share/renesas/e2_studio/toolchains/gcc_arm/gcc-arm-none-eabi-6-2017-q2-update/arm-none-eabi/include/c++/6.3.1/bits/basic_string.h **** 	    traits_type::assign(*__p, *__k1); // These types are off.
 329:/home/zkmike/.local/share/renesas/e2_studio/toolchains/gcc_arm/gcc-arm-none-eabi-6-2017-q2-update/arm-none-eabi/include/c++/6.3.1/bits/basic_string.h **** 	}
 330:/home/zkmike/.local/share/renesas/e2_studio/toolchains/gcc_arm/gcc-arm-none-eabi-6-2017-q2-update/arm-none-eabi/include/c++/6.3.1/bits/basic_string.h **** 
 331:/home/zkmike/.local/share/renesas/e2_studio/toolchains/gcc_arm/gcc-arm-none-eabi-6-2017-q2-update/arm-none-eabi/include/c++/6.3.1/bits/basic_string.h ****       static void
 332:/home/zkmike/.local/share/renesas/e2_studio/toolchains/gcc_arm/gcc-arm-none-eabi-6-2017-q2-update/arm-none-eabi/include/c++/6.3.1/bits/basic_string.h ****       _S_copy_chars(_CharT* __p, iterator __k1, iterator __k2) _GLIBCXX_NOEXCEPT
 333:/home/zkmike/.local/share/renesas/e2_studio/toolchains/gcc_arm/gcc-arm-none-eabi-6-2017-q2-update/arm-none-eabi/include/c++/6.3.1/bits/basic_string.h ****       { _S_copy_chars(__p, __k1.base(), __k2.base()); }
 334:/home/zkmike/.local/share/renesas/e2_studio/toolchains/gcc_arm/gcc-arm-none-eabi-6-2017-q2-update/arm-none-eabi/include/c++/6.3.1/bits/basic_string.h **** 
 335:/home/zkmike/.local/share/renesas/e2_studio/toolchains/gcc_arm/gcc-arm-none-eabi-6-2017-q2-update/arm-none-eabi/include/c++/6.3.1/bits/basic_string.h ****       static void
 336:/home/zkmike/.local/share/renesas/e2_studio/toolchains/gcc_arm/gcc-arm-none-eabi-6-2017-q2-update/arm-none-eabi/include/c++/6.3.1/bits/basic_string.h ****       _S_copy_chars(_CharT* __p, const_iterator __k1, const_iterator __k2)
 337:/home/zkmike/.local/share/renesas/e2_studio/toolchains/gcc_arm/gcc-arm-none-eabi-6-2017-q2-update/arm-none-eabi/include/c++/6.3.1/bits/basic_string.h ****       _GLIBCXX_NOEXCEPT
 338:/home/zkmike/.local/share/renesas/e2_studio/toolchains/gcc_arm/gcc-arm-none-eabi-6-2017-q2-update/arm-none-eabi/include/c++/6.3.1/bits/basic_string.h ****       { _S_copy_chars(__p, __k1.base(), __k2.base()); }
 339:/home/zkmike/.local/share/renesas/e2_studio/toolchains/gcc_arm/gcc-arm-none-eabi-6-2017-q2-update/arm-none-eabi/include/c++/6.3.1/bits/basic_string.h **** 
 340:/home/zkmike/.local/share/renesas/e2_studio/toolchains/gcc_arm/gcc-arm-none-eabi-6-2017-q2-update/arm-none-eabi/include/c++/6.3.1/bits/basic_string.h ****       static void
 341:/home/zkmike/.local/share/renesas/e2_studio/toolchains/gcc_arm/gcc-arm-none-eabi-6-2017-q2-update/arm-none-eabi/include/c++/6.3.1/bits/basic_string.h ****       _S_copy_chars(_CharT* __p, _CharT* __k1, _CharT* __k2) _GLIBCXX_NOEXCEPT
 342:/home/zkmike/.local/share/renesas/e2_studio/toolchains/gcc_arm/gcc-arm-none-eabi-6-2017-q2-update/arm-none-eabi/include/c++/6.3.1/bits/basic_string.h ****       { _S_copy(__p, __k1, __k2 - __k1); }
 343:/home/zkmike/.local/share/renesas/e2_studio/toolchains/gcc_arm/gcc-arm-none-eabi-6-2017-q2-update/arm-none-eabi/include/c++/6.3.1/bits/basic_string.h **** 
 344:/home/zkmike/.local/share/renesas/e2_studio/toolchains/gcc_arm/gcc-arm-none-eabi-6-2017-q2-update/arm-none-eabi/include/c++/6.3.1/bits/basic_string.h ****       static void
 345:/home/zkmike/.local/share/renesas/e2_studio/toolchains/gcc_arm/gcc-arm-none-eabi-6-2017-q2-update/arm-none-eabi/include/c++/6.3.1/bits/basic_string.h ****       _S_copy_chars(_CharT* __p, const _CharT* __k1, const _CharT* __k2)
 346:/home/zkmike/.local/share/renesas/e2_studio/toolchains/gcc_arm/gcc-arm-none-eabi-6-2017-q2-update/arm-none-eabi/include/c++/6.3.1/bits/basic_string.h ****       _GLIBCXX_NOEXCEPT
 347:/home/zkmike/.local/share/renesas/e2_studio/toolchains/gcc_arm/gcc-arm-none-eabi-6-2017-q2-update/arm-none-eabi/include/c++/6.3.1/bits/basic_string.h ****       { _S_copy(__p, __k1, __k2 - __k1); }
 348:/home/zkmike/.local/share/renesas/e2_studio/toolchains/gcc_arm/gcc-arm-none-eabi-6-2017-q2-update/arm-none-eabi/include/c++/6.3.1/bits/basic_string.h **** 
 349:/home/zkmike/.local/share/renesas/e2_studio/toolchains/gcc_arm/gcc-arm-none-eabi-6-2017-q2-update/arm-none-eabi/include/c++/6.3.1/bits/basic_string.h ****       static int
 350:/home/zkmike/.local/share/renesas/e2_studio/toolchains/gcc_arm/gcc-arm-none-eabi-6-2017-q2-update/arm-none-eabi/include/c++/6.3.1/bits/basic_string.h ****       _S_compare(size_type __n1, size_type __n2) _GLIBCXX_NOEXCEPT
 351:/home/zkmike/.local/share/renesas/e2_studio/toolchains/gcc_arm/gcc-arm-none-eabi-6-2017-q2-update/arm-none-eabi/include/c++/6.3.1/bits/basic_string.h ****       {
 352:/home/zkmike/.local/share/renesas/e2_studio/toolchains/gcc_arm/gcc-arm-none-eabi-6-2017-q2-update/arm-none-eabi/include/c++/6.3.1/bits/basic_string.h **** 	const difference_type __d = difference_type(__n1 - __n2);
 353:/home/zkmike/.local/share/renesas/e2_studio/toolchains/gcc_arm/gcc-arm-none-eabi-6-2017-q2-update/arm-none-eabi/include/c++/6.3.1/bits/basic_string.h **** 
 354:/home/zkmike/.local/share/renesas/e2_studio/toolchains/gcc_arm/gcc-arm-none-eabi-6-2017-q2-update/arm-none-eabi/include/c++/6.3.1/bits/basic_string.h **** 	if (__d > __gnu_cxx::__numeric_traits<int>::__max)
 355:/home/zkmike/.local/share/renesas/e2_studio/toolchains/gcc_arm/gcc-arm-none-eabi-6-2017-q2-update/arm-none-eabi/include/c++/6.3.1/bits/basic_string.h **** 	  return __gnu_cxx::__numeric_traits<int>::__max;
 356:/home/zkmike/.local/share/renesas/e2_studio/toolchains/gcc_arm/gcc-arm-none-eabi-6-2017-q2-update/arm-none-eabi/include/c++/6.3.1/bits/basic_string.h **** 	else if (__d < __gnu_cxx::__numeric_traits<int>::__min)
 357:/home/zkmike/.local/share/renesas/e2_studio/toolchains/gcc_arm/gcc-arm-none-eabi-6-2017-q2-update/arm-none-eabi/include/c++/6.3.1/bits/basic_string.h **** 	  return __gnu_cxx::__numeric_traits<int>::__min;
 358:/home/zkmike/.local/share/renesas/e2_studio/toolchains/gcc_arm/gcc-arm-none-eabi-6-2017-q2-update/arm-none-eabi/include/c++/6.3.1/bits/basic_string.h **** 	else
 359:/home/zkmike/.local/share/renesas/e2_studio/toolchains/gcc_arm/gcc-arm-none-eabi-6-2017-q2-update/arm-none-eabi/include/c++/6.3.1/bits/basic_string.h **** 	  return int(__d);
 360:/home/zkmike/.local/share/renesas/e2_studio/toolchains/gcc_arm/gcc-arm-none-eabi-6-2017-q2-update/arm-none-eabi/include/c++/6.3.1/bits/basic_string.h ****       }
 361:/home/zkmike/.local/share/renesas/e2_studio/toolchains/gcc_arm/gcc-arm-none-eabi-6-2017-q2-update/arm-none-eabi/include/c++/6.3.1/bits/basic_string.h **** 
 362:/home/zkmike/.local/share/renesas/e2_studio/toolchains/gcc_arm/gcc-arm-none-eabi-6-2017-q2-update/arm-none-eabi/include/c++/6.3.1/bits/basic_string.h ****       void
 363:/home/zkmike/.local/share/renesas/e2_studio/toolchains/gcc_arm/gcc-arm-none-eabi-6-2017-q2-update/arm-none-eabi/include/c++/6.3.1/bits/basic_string.h ****       _M_assign(const basic_string& __rcs);
 364:/home/zkmike/.local/share/renesas/e2_studio/toolchains/gcc_arm/gcc-arm-none-eabi-6-2017-q2-update/arm-none-eabi/include/c++/6.3.1/bits/basic_string.h **** 
 365:/home/zkmike/.local/share/renesas/e2_studio/toolchains/gcc_arm/gcc-arm-none-eabi-6-2017-q2-update/arm-none-eabi/include/c++/6.3.1/bits/basic_string.h ****       void
 366:/home/zkmike/.local/share/renesas/e2_studio/toolchains/gcc_arm/gcc-arm-none-eabi-6-2017-q2-update/arm-none-eabi/include/c++/6.3.1/bits/basic_string.h ****       _M_mutate(size_type __pos, size_type __len1, const _CharT* __s,
 367:/home/zkmike/.local/share/renesas/e2_studio/toolchains/gcc_arm/gcc-arm-none-eabi-6-2017-q2-update/arm-none-eabi/include/c++/6.3.1/bits/basic_string.h **** 		size_type __len2);
 368:/home/zkmike/.local/share/renesas/e2_studio/toolchains/gcc_arm/gcc-arm-none-eabi-6-2017-q2-update/arm-none-eabi/include/c++/6.3.1/bits/basic_string.h **** 
 369:/home/zkmike/.local/share/renesas/e2_studio/toolchains/gcc_arm/gcc-arm-none-eabi-6-2017-q2-update/arm-none-eabi/include/c++/6.3.1/bits/basic_string.h ****       void
 370:/home/zkmike/.local/share/renesas/e2_studio/toolchains/gcc_arm/gcc-arm-none-eabi-6-2017-q2-update/arm-none-eabi/include/c++/6.3.1/bits/basic_string.h ****       _M_erase(size_type __pos, size_type __n);
 371:/home/zkmike/.local/share/renesas/e2_studio/toolchains/gcc_arm/gcc-arm-none-eabi-6-2017-q2-update/arm-none-eabi/include/c++/6.3.1/bits/basic_string.h **** 
 372:/home/zkmike/.local/share/renesas/e2_studio/toolchains/gcc_arm/gcc-arm-none-eabi-6-2017-q2-update/arm-none-eabi/include/c++/6.3.1/bits/basic_string.h ****     public:
 373:/home/zkmike/.local/share/renesas/e2_studio/toolchains/gcc_arm/gcc-arm-none-eabi-6-2017-q2-update/arm-none-eabi/include/c++/6.3.1/bits/basic_string.h ****       // Construct/copy/destroy:
 374:/home/zkmike/.local/share/renesas/e2_studio/toolchains/gcc_arm/gcc-arm-none-eabi-6-2017-q2-update/arm-none-eabi/include/c++/6.3.1/bits/basic_string.h ****       // NB: We overload ctors in some cases instead of using default
 375:/home/zkmike/.local/share/renesas/e2_studio/toolchains/gcc_arm/gcc-arm-none-eabi-6-2017-q2-update/arm-none-eabi/include/c++/6.3.1/bits/basic_string.h ****       // arguments, per 17.4.4.4 para. 2 item 2.
 376:/home/zkmike/.local/share/renesas/e2_studio/toolchains/gcc_arm/gcc-arm-none-eabi-6-2017-q2-update/arm-none-eabi/include/c++/6.3.1/bits/basic_string.h **** 
 377:/home/zkmike/.local/share/renesas/e2_studio/toolchains/gcc_arm/gcc-arm-none-eabi-6-2017-q2-update/arm-none-eabi/include/c++/6.3.1/bits/basic_string.h ****       /**
 378:/home/zkmike/.local/share/renesas/e2_studio/toolchains/gcc_arm/gcc-arm-none-eabi-6-2017-q2-update/arm-none-eabi/include/c++/6.3.1/bits/basic_string.h ****        *  @brief  Default constructor creates an empty string.
 379:/home/zkmike/.local/share/renesas/e2_studio/toolchains/gcc_arm/gcc-arm-none-eabi-6-2017-q2-update/arm-none-eabi/include/c++/6.3.1/bits/basic_string.h ****        */
 380:/home/zkmike/.local/share/renesas/e2_studio/toolchains/gcc_arm/gcc-arm-none-eabi-6-2017-q2-update/arm-none-eabi/include/c++/6.3.1/bits/basic_string.h ****       basic_string()
 381:/home/zkmike/.local/share/renesas/e2_studio/toolchains/gcc_arm/gcc-arm-none-eabi-6-2017-q2-update/arm-none-eabi/include/c++/6.3.1/bits/basic_string.h ****       _GLIBCXX_NOEXCEPT_IF(is_nothrow_default_constructible<_Alloc>::value)
 382:/home/zkmike/.local/share/renesas/e2_studio/toolchains/gcc_arm/gcc-arm-none-eabi-6-2017-q2-update/arm-none-eabi/include/c++/6.3.1/bits/basic_string.h ****       : _M_dataplus(_M_local_data())
 383:/home/zkmike/.local/share/renesas/e2_studio/toolchains/gcc_arm/gcc-arm-none-eabi-6-2017-q2-update/arm-none-eabi/include/c++/6.3.1/bits/basic_string.h ****       { _M_set_length(0); }
 384:/home/zkmike/.local/share/renesas/e2_studio/toolchains/gcc_arm/gcc-arm-none-eabi-6-2017-q2-update/arm-none-eabi/include/c++/6.3.1/bits/basic_string.h **** 
 385:/home/zkmike/.local/share/renesas/e2_studio/toolchains/gcc_arm/gcc-arm-none-eabi-6-2017-q2-update/arm-none-eabi/include/c++/6.3.1/bits/basic_string.h ****       /**
 386:/home/zkmike/.local/share/renesas/e2_studio/toolchains/gcc_arm/gcc-arm-none-eabi-6-2017-q2-update/arm-none-eabi/include/c++/6.3.1/bits/basic_string.h ****        *  @brief  Construct an empty string using allocator @a a.
 387:/home/zkmike/.local/share/renesas/e2_studio/toolchains/gcc_arm/gcc-arm-none-eabi-6-2017-q2-update/arm-none-eabi/include/c++/6.3.1/bits/basic_string.h ****        */
 388:/home/zkmike/.local/share/renesas/e2_studio/toolchains/gcc_arm/gcc-arm-none-eabi-6-2017-q2-update/arm-none-eabi/include/c++/6.3.1/bits/basic_string.h ****       explicit
 389:/home/zkmike/.local/share/renesas/e2_studio/toolchains/gcc_arm/gcc-arm-none-eabi-6-2017-q2-update/arm-none-eabi/include/c++/6.3.1/bits/basic_string.h ****       basic_string(const _Alloc& __a) _GLIBCXX_NOEXCEPT
 390:/home/zkmike/.local/share/renesas/e2_studio/toolchains/gcc_arm/gcc-arm-none-eabi-6-2017-q2-update/arm-none-eabi/include/c++/6.3.1/bits/basic_string.h ****       : _M_dataplus(_M_local_data(), __a)
 391:/home/zkmike/.local/share/renesas/e2_studio/toolchains/gcc_arm/gcc-arm-none-eabi-6-2017-q2-update/arm-none-eabi/include/c++/6.3.1/bits/basic_string.h ****       { _M_set_length(0); }
 392:/home/zkmike/.local/share/renesas/e2_studio/toolchains/gcc_arm/gcc-arm-none-eabi-6-2017-q2-update/arm-none-eabi/include/c++/6.3.1/bits/basic_string.h **** 
 393:/home/zkmike/.local/share/renesas/e2_studio/toolchains/gcc_arm/gcc-arm-none-eabi-6-2017-q2-update/arm-none-eabi/include/c++/6.3.1/bits/basic_string.h ****       /**
 394:/home/zkmike/.local/share/renesas/e2_studio/toolchains/gcc_arm/gcc-arm-none-eabi-6-2017-q2-update/arm-none-eabi/include/c++/6.3.1/bits/basic_string.h ****        *  @brief  Construct string with copy of value of @a __str.
 395:/home/zkmike/.local/share/renesas/e2_studio/toolchains/gcc_arm/gcc-arm-none-eabi-6-2017-q2-update/arm-none-eabi/include/c++/6.3.1/bits/basic_string.h ****        *  @param  __str  Source string.
 396:/home/zkmike/.local/share/renesas/e2_studio/toolchains/gcc_arm/gcc-arm-none-eabi-6-2017-q2-update/arm-none-eabi/include/c++/6.3.1/bits/basic_string.h ****        */
 397:/home/zkmike/.local/share/renesas/e2_studio/toolchains/gcc_arm/gcc-arm-none-eabi-6-2017-q2-update/arm-none-eabi/include/c++/6.3.1/bits/basic_string.h ****       basic_string(const basic_string& __str)
 398:/home/zkmike/.local/share/renesas/e2_studio/toolchains/gcc_arm/gcc-arm-none-eabi-6-2017-q2-update/arm-none-eabi/include/c++/6.3.1/bits/basic_string.h ****       : _M_dataplus(_M_local_data(),
 399:/home/zkmike/.local/share/renesas/e2_studio/toolchains/gcc_arm/gcc-arm-none-eabi-6-2017-q2-update/arm-none-eabi/include/c++/6.3.1/bits/basic_string.h **** 		    _Alloc_traits::_S_select_on_copy(__str._M_get_allocator()))
 400:/home/zkmike/.local/share/renesas/e2_studio/toolchains/gcc_arm/gcc-arm-none-eabi-6-2017-q2-update/arm-none-eabi/include/c++/6.3.1/bits/basic_string.h ****       { _M_construct(__str._M_data(), __str._M_data() + __str.length()); }
 401:/home/zkmike/.local/share/renesas/e2_studio/toolchains/gcc_arm/gcc-arm-none-eabi-6-2017-q2-update/arm-none-eabi/include/c++/6.3.1/bits/basic_string.h **** 
 402:/home/zkmike/.local/share/renesas/e2_studio/toolchains/gcc_arm/gcc-arm-none-eabi-6-2017-q2-update/arm-none-eabi/include/c++/6.3.1/bits/basic_string.h ****       /**
 403:/home/zkmike/.local/share/renesas/e2_studio/toolchains/gcc_arm/gcc-arm-none-eabi-6-2017-q2-update/arm-none-eabi/include/c++/6.3.1/bits/basic_string.h ****        *  @brief  Construct string as copy of a substring.
 404:/home/zkmike/.local/share/renesas/e2_studio/toolchains/gcc_arm/gcc-arm-none-eabi-6-2017-q2-update/arm-none-eabi/include/c++/6.3.1/bits/basic_string.h ****        *  @param  __str  Source string.
 405:/home/zkmike/.local/share/renesas/e2_studio/toolchains/gcc_arm/gcc-arm-none-eabi-6-2017-q2-update/arm-none-eabi/include/c++/6.3.1/bits/basic_string.h ****        *  @param  __pos  Index of first character to copy from.
 406:/home/zkmike/.local/share/renesas/e2_studio/toolchains/gcc_arm/gcc-arm-none-eabi-6-2017-q2-update/arm-none-eabi/include/c++/6.3.1/bits/basic_string.h ****        *  @param  __n  Number of characters to copy (default remainder).
 407:/home/zkmike/.local/share/renesas/e2_studio/toolchains/gcc_arm/gcc-arm-none-eabi-6-2017-q2-update/arm-none-eabi/include/c++/6.3.1/bits/basic_string.h ****        */
 408:/home/zkmike/.local/share/renesas/e2_studio/toolchains/gcc_arm/gcc-arm-none-eabi-6-2017-q2-update/arm-none-eabi/include/c++/6.3.1/bits/basic_string.h ****       // _GLIBCXX_RESOLVE_LIB_DEFECTS
 409:/home/zkmike/.local/share/renesas/e2_studio/toolchains/gcc_arm/gcc-arm-none-eabi-6-2017-q2-update/arm-none-eabi/include/c++/6.3.1/bits/basic_string.h ****       // 2402. [this constructor] shouldn't use Allocator()
 410:/home/zkmike/.local/share/renesas/e2_studio/toolchains/gcc_arm/gcc-arm-none-eabi-6-2017-q2-update/arm-none-eabi/include/c++/6.3.1/bits/basic_string.h ****       basic_string(const basic_string& __str, size_type __pos,
 411:/home/zkmike/.local/share/renesas/e2_studio/toolchains/gcc_arm/gcc-arm-none-eabi-6-2017-q2-update/arm-none-eabi/include/c++/6.3.1/bits/basic_string.h **** 		   size_type __n = npos)
 412:/home/zkmike/.local/share/renesas/e2_studio/toolchains/gcc_arm/gcc-arm-none-eabi-6-2017-q2-update/arm-none-eabi/include/c++/6.3.1/bits/basic_string.h ****       : _M_dataplus(_M_local_data())
 413:/home/zkmike/.local/share/renesas/e2_studio/toolchains/gcc_arm/gcc-arm-none-eabi-6-2017-q2-update/arm-none-eabi/include/c++/6.3.1/bits/basic_string.h ****       {
 414:/home/zkmike/.local/share/renesas/e2_studio/toolchains/gcc_arm/gcc-arm-none-eabi-6-2017-q2-update/arm-none-eabi/include/c++/6.3.1/bits/basic_string.h **** 	const _CharT* __start = __str._M_data()
 415:/home/zkmike/.local/share/renesas/e2_studio/toolchains/gcc_arm/gcc-arm-none-eabi-6-2017-q2-update/arm-none-eabi/include/c++/6.3.1/bits/basic_string.h **** 	  + __str._M_check(__pos, "basic_string::basic_string");
 416:/home/zkmike/.local/share/renesas/e2_studio/toolchains/gcc_arm/gcc-arm-none-eabi-6-2017-q2-update/arm-none-eabi/include/c++/6.3.1/bits/basic_string.h **** 	_M_construct(__start, __start + __str._M_limit(__pos, __n));
 417:/home/zkmike/.local/share/renesas/e2_studio/toolchains/gcc_arm/gcc-arm-none-eabi-6-2017-q2-update/arm-none-eabi/include/c++/6.3.1/bits/basic_string.h ****       }
 418:/home/zkmike/.local/share/renesas/e2_studio/toolchains/gcc_arm/gcc-arm-none-eabi-6-2017-q2-update/arm-none-eabi/include/c++/6.3.1/bits/basic_string.h **** 
 419:/home/zkmike/.local/share/renesas/e2_studio/toolchains/gcc_arm/gcc-arm-none-eabi-6-2017-q2-update/arm-none-eabi/include/c++/6.3.1/bits/basic_string.h ****       /**
 420:/home/zkmike/.local/share/renesas/e2_studio/toolchains/gcc_arm/gcc-arm-none-eabi-6-2017-q2-update/arm-none-eabi/include/c++/6.3.1/bits/basic_string.h ****        *  @brief  Construct string as copy of a substring.
 421:/home/zkmike/.local/share/renesas/e2_studio/toolchains/gcc_arm/gcc-arm-none-eabi-6-2017-q2-update/arm-none-eabi/include/c++/6.3.1/bits/basic_string.h ****        *  @param  __str  Source string.
 422:/home/zkmike/.local/share/renesas/e2_studio/toolchains/gcc_arm/gcc-arm-none-eabi-6-2017-q2-update/arm-none-eabi/include/c++/6.3.1/bits/basic_string.h ****        *  @param  __pos  Index of first character to copy from.
 423:/home/zkmike/.local/share/renesas/e2_studio/toolchains/gcc_arm/gcc-arm-none-eabi-6-2017-q2-update/arm-none-eabi/include/c++/6.3.1/bits/basic_string.h ****        *  @param  __n  Number of characters to copy (default remainder).
 424:/home/zkmike/.local/share/renesas/e2_studio/toolchains/gcc_arm/gcc-arm-none-eabi-6-2017-q2-update/arm-none-eabi/include/c++/6.3.1/bits/basic_string.h ****        *  @param  __a  Allocator to use.
 425:/home/zkmike/.local/share/renesas/e2_studio/toolchains/gcc_arm/gcc-arm-none-eabi-6-2017-q2-update/arm-none-eabi/include/c++/6.3.1/bits/basic_string.h ****        */
 426:/home/zkmike/.local/share/renesas/e2_studio/toolchains/gcc_arm/gcc-arm-none-eabi-6-2017-q2-update/arm-none-eabi/include/c++/6.3.1/bits/basic_string.h ****       basic_string(const basic_string& __str, size_type __pos,
 427:/home/zkmike/.local/share/renesas/e2_studio/toolchains/gcc_arm/gcc-arm-none-eabi-6-2017-q2-update/arm-none-eabi/include/c++/6.3.1/bits/basic_string.h **** 		   size_type __n, const _Alloc& __a)
 428:/home/zkmike/.local/share/renesas/e2_studio/toolchains/gcc_arm/gcc-arm-none-eabi-6-2017-q2-update/arm-none-eabi/include/c++/6.3.1/bits/basic_string.h ****       : _M_dataplus(_M_local_data(), __a)
 429:/home/zkmike/.local/share/renesas/e2_studio/toolchains/gcc_arm/gcc-arm-none-eabi-6-2017-q2-update/arm-none-eabi/include/c++/6.3.1/bits/basic_string.h ****       {
 430:/home/zkmike/.local/share/renesas/e2_studio/toolchains/gcc_arm/gcc-arm-none-eabi-6-2017-q2-update/arm-none-eabi/include/c++/6.3.1/bits/basic_string.h **** 	const _CharT* __start
 431:/home/zkmike/.local/share/renesas/e2_studio/toolchains/gcc_arm/gcc-arm-none-eabi-6-2017-q2-update/arm-none-eabi/include/c++/6.3.1/bits/basic_string.h **** 	  = __str._M_data() + __str._M_check(__pos, "string::string");
 432:/home/zkmike/.local/share/renesas/e2_studio/toolchains/gcc_arm/gcc-arm-none-eabi-6-2017-q2-update/arm-none-eabi/include/c++/6.3.1/bits/basic_string.h **** 	_M_construct(__start, __start + __str._M_limit(__pos, __n));
 433:/home/zkmike/.local/share/renesas/e2_studio/toolchains/gcc_arm/gcc-arm-none-eabi-6-2017-q2-update/arm-none-eabi/include/c++/6.3.1/bits/basic_string.h ****       }
 434:/home/zkmike/.local/share/renesas/e2_studio/toolchains/gcc_arm/gcc-arm-none-eabi-6-2017-q2-update/arm-none-eabi/include/c++/6.3.1/bits/basic_string.h **** 
 435:/home/zkmike/.local/share/renesas/e2_studio/toolchains/gcc_arm/gcc-arm-none-eabi-6-2017-q2-update/arm-none-eabi/include/c++/6.3.1/bits/basic_string.h ****       /**
 436:/home/zkmike/.local/share/renesas/e2_studio/toolchains/gcc_arm/gcc-arm-none-eabi-6-2017-q2-update/arm-none-eabi/include/c++/6.3.1/bits/basic_string.h ****        *  @brief  Construct string initialized by a character %array.
 437:/home/zkmike/.local/share/renesas/e2_studio/toolchains/gcc_arm/gcc-arm-none-eabi-6-2017-q2-update/arm-none-eabi/include/c++/6.3.1/bits/basic_string.h ****        *  @param  __s  Source character %array.
 438:/home/zkmike/.local/share/renesas/e2_studio/toolchains/gcc_arm/gcc-arm-none-eabi-6-2017-q2-update/arm-none-eabi/include/c++/6.3.1/bits/basic_string.h ****        *  @param  __n  Number of characters to copy.
 439:/home/zkmike/.local/share/renesas/e2_studio/toolchains/gcc_arm/gcc-arm-none-eabi-6-2017-q2-update/arm-none-eabi/include/c++/6.3.1/bits/basic_string.h ****        *  @param  __a  Allocator to use (default is default allocator).
 440:/home/zkmike/.local/share/renesas/e2_studio/toolchains/gcc_arm/gcc-arm-none-eabi-6-2017-q2-update/arm-none-eabi/include/c++/6.3.1/bits/basic_string.h ****        *
 441:/home/zkmike/.local/share/renesas/e2_studio/toolchains/gcc_arm/gcc-arm-none-eabi-6-2017-q2-update/arm-none-eabi/include/c++/6.3.1/bits/basic_string.h ****        *  NB: @a __s must have at least @a __n characters, &apos;\\0&apos;
 442:/home/zkmike/.local/share/renesas/e2_studio/toolchains/gcc_arm/gcc-arm-none-eabi-6-2017-q2-update/arm-none-eabi/include/c++/6.3.1/bits/basic_string.h ****        *  has no special meaning.
 443:/home/zkmike/.local/share/renesas/e2_studio/toolchains/gcc_arm/gcc-arm-none-eabi-6-2017-q2-update/arm-none-eabi/include/c++/6.3.1/bits/basic_string.h ****        */
 444:/home/zkmike/.local/share/renesas/e2_studio/toolchains/gcc_arm/gcc-arm-none-eabi-6-2017-q2-update/arm-none-eabi/include/c++/6.3.1/bits/basic_string.h ****       basic_string(const _CharT* __s, size_type __n,
 445:/home/zkmike/.local/share/renesas/e2_studio/toolchains/gcc_arm/gcc-arm-none-eabi-6-2017-q2-update/arm-none-eabi/include/c++/6.3.1/bits/basic_string.h **** 		   const _Alloc& __a = _Alloc())
 446:/home/zkmike/.local/share/renesas/e2_studio/toolchains/gcc_arm/gcc-arm-none-eabi-6-2017-q2-update/arm-none-eabi/include/c++/6.3.1/bits/basic_string.h ****       : _M_dataplus(_M_local_data(), __a)
 447:/home/zkmike/.local/share/renesas/e2_studio/toolchains/gcc_arm/gcc-arm-none-eabi-6-2017-q2-update/arm-none-eabi/include/c++/6.3.1/bits/basic_string.h ****       { _M_construct(__s, __s + __n); }
 448:/home/zkmike/.local/share/renesas/e2_studio/toolchains/gcc_arm/gcc-arm-none-eabi-6-2017-q2-update/arm-none-eabi/include/c++/6.3.1/bits/basic_string.h **** 
 449:/home/zkmike/.local/share/renesas/e2_studio/toolchains/gcc_arm/gcc-arm-none-eabi-6-2017-q2-update/arm-none-eabi/include/c++/6.3.1/bits/basic_string.h ****       /**
 450:/home/zkmike/.local/share/renesas/e2_studio/toolchains/gcc_arm/gcc-arm-none-eabi-6-2017-q2-update/arm-none-eabi/include/c++/6.3.1/bits/basic_string.h ****        *  @brief  Construct string as copy of a C string.
 451:/home/zkmike/.local/share/renesas/e2_studio/toolchains/gcc_arm/gcc-arm-none-eabi-6-2017-q2-update/arm-none-eabi/include/c++/6.3.1/bits/basic_string.h ****        *  @param  __s  Source C string.
 452:/home/zkmike/.local/share/renesas/e2_studio/toolchains/gcc_arm/gcc-arm-none-eabi-6-2017-q2-update/arm-none-eabi/include/c++/6.3.1/bits/basic_string.h ****        *  @param  __a  Allocator to use (default is default allocator).
 453:/home/zkmike/.local/share/renesas/e2_studio/toolchains/gcc_arm/gcc-arm-none-eabi-6-2017-q2-update/arm-none-eabi/include/c++/6.3.1/bits/basic_string.h ****        */
 454:/home/zkmike/.local/share/renesas/e2_studio/toolchains/gcc_arm/gcc-arm-none-eabi-6-2017-q2-update/arm-none-eabi/include/c++/6.3.1/bits/basic_string.h ****       basic_string(const _CharT* __s, const _Alloc& __a = _Alloc())
 455:/home/zkmike/.local/share/renesas/e2_studio/toolchains/gcc_arm/gcc-arm-none-eabi-6-2017-q2-update/arm-none-eabi/include/c++/6.3.1/bits/basic_string.h ****       : _M_dataplus(_M_local_data(), __a)
 456:/home/zkmike/.local/share/renesas/e2_studio/toolchains/gcc_arm/gcc-arm-none-eabi-6-2017-q2-update/arm-none-eabi/include/c++/6.3.1/bits/basic_string.h ****       { _M_construct(__s, __s ? __s + traits_type::length(__s) : __s+npos); }
 1039              		.loc 3 456 0
 1040 0024 000055E3 		cmp	r5, #0
 1041 0028 0800000A 		beq	.L75
 1042              	.LVL88:
 1043              	.LBB894:
 1044              	.LBB895:
 267:/home/zkmike/.local/share/renesas/e2_studio/toolchains/gcc_arm/gcc-arm-none-eabi-6-2017-q2-update/arm-none-eabi/include/c++/6.3.1/bits/char_traits.h **** 
 1045              		.loc 11 267 0
 1046 002c 0500A0E1 		mov	r0, r5
 1047              	.LVL89:
 1048 0030 FEFFFFEB 		bl	strlen
 1049              	.LVL90:
 1050              	.LBE895:
 1051              	.LBE894:
 1052              		.loc 3 456 0
 1053 0034 002085E0 		add	r2, r5, r0
 1054              	.L76:
 1055              	.LVL91:
 1056              	.LBB896:
 1057              	.LBB897:
 1058              	.LBB898:
 1059              	.LBB899:
 196:/home/zkmike/.local/share/renesas/e2_studio/toolchains/gcc_arm/gcc-arm-none-eabi-6-2017-q2-update/arm-none-eabi/include/c++/6.3.1/bits/basic_string.h **** 	}
 1060              		.loc 3 196 0
 1061 0038 0030A0E3 		mov	r3, #0
 1062 003c 0510A0E1 		mov	r1, r5
 1063 0040 0600A0E1 		mov	r0, r6
 1064 0044 FEFFFFEB 		bl	_ZNSt7__cxx1112basic_stringIcSt11char_traitsIcESaIcEE12_M_constructIPKcEEvT_S8_St20forward_iter
 1065              	.LVL92:
 1066              	.LBE899:
 1067              	.LBE898:
 1068              	.LBE897:
 1069              	.LBE896:
 1070              	.LBE889:
 1071              	.LBE888:
 1072              	.LBE887:
  49:../src/zxing_lib/zxing/qrcode/decoder/Mode.cpp **** 
 1073              		.loc 6 49 0
 1074 0048 0400A0E1 		mov	r0, r4
 1075 004c 7080BDE8 		pop	{r4, r5, r6, pc}
 1076              	.LVL93:
 1077              	.L75:
 1078              	.LBB902:
 1079              	.LBB901:
 1080              	.LBB900:
 1081              		.loc 3 456 0
 1082 0050 012045E2 		sub	r2, r5, #1
 1083              	.LVL94:
 1084 0054 F7FFFFEA 		b	.L76
 1085              	.LBE900:
 1086              	.LBE901:
 1087              	.LBE902:
 1088              		.cfi_endproc
 1089              	.LFE2302:
 1090              		.fnend
 1092              		.global	_ZN5zxing6qrcode4ModeC1EiiiiPKc
 1093              		.set	_ZN5zxing6qrcode4ModeC1EiiiiPKc,_ZN5zxing6qrcode4ModeC2EiiiiPKc
 1094              		.section	.text._Z41__static_initialization_and_destruction_0ii,"ax",%progbits
 1095              		.align	2
 1096              		.syntax unified
 1097              		.arm
 1098              		.fpu neon
 1100              	_Z41__static_initialization_and_destruction_0ii:
 1101              		.fnstart
 1102              	.LFB2815:
 1103              		.loc 6 90 0
 1104              		.cfi_startproc
 1105              		@ args = 0, pretend = 0, frame = 0
 1106              		@ frame_needed = 0, uses_anonymous_args = 0
 1107              	.LVL95:
 1108 0000 010050E3 		cmp	r0, #1
 1109 0004 1EFF2F11 		bxne	lr
 1110              		.loc 6 90 0 is_stmt 0 discriminator 1
 1111 0008 FF3F0FE3 		movw	r3, #65535
 1112 000c 030051E1 		cmp	r1, r3
 1113 0010 1EFF2F11 		bxne	lr
 1114              		.loc 6 90 0
 1115 0014 F0412DE9 		push	{r4, r5, r6, r7, r8, lr}
 1116              		.cfi_def_cfa_offset 24
 1117              		.cfi_offset 4, -24
 1118              		.cfi_offset 5, -20
 1119              		.cfi_offset 6, -16
 1120              		.cfi_offset 7, -12
 1121              		.cfi_offset 8, -8
 1122              		.cfi_offset 14, -4
 1123 0018 08D04DE2 		sub	sp, sp, #8
 1124              		.cfi_def_cfa_offset 32
 1125              		.file 12 "/home/zkmike/.local/share/renesas/e2_studio/toolchains/gcc_arm/gcc-arm-none-eabi-6-2017-
   1:/home/zkmike/.local/share/renesas/e2_studio/toolchains/gcc_arm/gcc-arm-none-eabi-6-2017-q2-update/arm-none-eabi/include/c++/6.3.1/iostream **** // Standard iostream objects -*- C++ -*-
   2:/home/zkmike/.local/share/renesas/e2_studio/toolchains/gcc_arm/gcc-arm-none-eabi-6-2017-q2-update/arm-none-eabi/include/c++/6.3.1/iostream **** 
   3:/home/zkmike/.local/share/renesas/e2_studio/toolchains/gcc_arm/gcc-arm-none-eabi-6-2017-q2-update/arm-none-eabi/include/c++/6.3.1/iostream **** // Copyright (C) 1997-2016 Free Software Foundation, Inc.
   4:/home/zkmike/.local/share/renesas/e2_studio/toolchains/gcc_arm/gcc-arm-none-eabi-6-2017-q2-update/arm-none-eabi/include/c++/6.3.1/iostream **** //
   5:/home/zkmike/.local/share/renesas/e2_studio/toolchains/gcc_arm/gcc-arm-none-eabi-6-2017-q2-update/arm-none-eabi/include/c++/6.3.1/iostream **** // This file is part of the GNU ISO C++ Library.  This library is free
   6:/home/zkmike/.local/share/renesas/e2_studio/toolchains/gcc_arm/gcc-arm-none-eabi-6-2017-q2-update/arm-none-eabi/include/c++/6.3.1/iostream **** // software; you can redistribute it and/or modify it under the
   7:/home/zkmike/.local/share/renesas/e2_studio/toolchains/gcc_arm/gcc-arm-none-eabi-6-2017-q2-update/arm-none-eabi/include/c++/6.3.1/iostream **** // terms of the GNU General Public License as published by the
   8:/home/zkmike/.local/share/renesas/e2_studio/toolchains/gcc_arm/gcc-arm-none-eabi-6-2017-q2-update/arm-none-eabi/include/c++/6.3.1/iostream **** // Free Software Foundation; either version 3, or (at your option)
   9:/home/zkmike/.local/share/renesas/e2_studio/toolchains/gcc_arm/gcc-arm-none-eabi-6-2017-q2-update/arm-none-eabi/include/c++/6.3.1/iostream **** // any later version.
  10:/home/zkmike/.local/share/renesas/e2_studio/toolchains/gcc_arm/gcc-arm-none-eabi-6-2017-q2-update/arm-none-eabi/include/c++/6.3.1/iostream **** 
  11:/home/zkmike/.local/share/renesas/e2_studio/toolchains/gcc_arm/gcc-arm-none-eabi-6-2017-q2-update/arm-none-eabi/include/c++/6.3.1/iostream **** // This library is distributed in the hope that it will be useful,
  12:/home/zkmike/.local/share/renesas/e2_studio/toolchains/gcc_arm/gcc-arm-none-eabi-6-2017-q2-update/arm-none-eabi/include/c++/6.3.1/iostream **** // but WITHOUT ANY WARRANTY; without even the implied warranty of
  13:/home/zkmike/.local/share/renesas/e2_studio/toolchains/gcc_arm/gcc-arm-none-eabi-6-2017-q2-update/arm-none-eabi/include/c++/6.3.1/iostream **** // MERCHANTABILITY or FITNESS FOR A PARTICULAR PURPOSE.  See the
  14:/home/zkmike/.local/share/renesas/e2_studio/toolchains/gcc_arm/gcc-arm-none-eabi-6-2017-q2-update/arm-none-eabi/include/c++/6.3.1/iostream **** // GNU General Public License for more details.
  15:/home/zkmike/.local/share/renesas/e2_studio/toolchains/gcc_arm/gcc-arm-none-eabi-6-2017-q2-update/arm-none-eabi/include/c++/6.3.1/iostream **** 
  16:/home/zkmike/.local/share/renesas/e2_studio/toolchains/gcc_arm/gcc-arm-none-eabi-6-2017-q2-update/arm-none-eabi/include/c++/6.3.1/iostream **** // Under Section 7 of GPL version 3, you are granted additional
  17:/home/zkmike/.local/share/renesas/e2_studio/toolchains/gcc_arm/gcc-arm-none-eabi-6-2017-q2-update/arm-none-eabi/include/c++/6.3.1/iostream **** // permissions described in the GCC Runtime Library Exception, version
  18:/home/zkmike/.local/share/renesas/e2_studio/toolchains/gcc_arm/gcc-arm-none-eabi-6-2017-q2-update/arm-none-eabi/include/c++/6.3.1/iostream **** // 3.1, as published by the Free Software Foundation.
  19:/home/zkmike/.local/share/renesas/e2_studio/toolchains/gcc_arm/gcc-arm-none-eabi-6-2017-q2-update/arm-none-eabi/include/c++/6.3.1/iostream **** 
  20:/home/zkmike/.local/share/renesas/e2_studio/toolchains/gcc_arm/gcc-arm-none-eabi-6-2017-q2-update/arm-none-eabi/include/c++/6.3.1/iostream **** // You should have received a copy of the GNU General Public License and
  21:/home/zkmike/.local/share/renesas/e2_studio/toolchains/gcc_arm/gcc-arm-none-eabi-6-2017-q2-update/arm-none-eabi/include/c++/6.3.1/iostream **** // a copy of the GCC Runtime Library Exception along with this program;
  22:/home/zkmike/.local/share/renesas/e2_studio/toolchains/gcc_arm/gcc-arm-none-eabi-6-2017-q2-update/arm-none-eabi/include/c++/6.3.1/iostream **** // see the files COPYING3 and COPYING.RUNTIME respectively.  If not, see
  23:/home/zkmike/.local/share/renesas/e2_studio/toolchains/gcc_arm/gcc-arm-none-eabi-6-2017-q2-update/arm-none-eabi/include/c++/6.3.1/iostream **** // <http://www.gnu.org/licenses/>.
  24:/home/zkmike/.local/share/renesas/e2_studio/toolchains/gcc_arm/gcc-arm-none-eabi-6-2017-q2-update/arm-none-eabi/include/c++/6.3.1/iostream **** 
  25:/home/zkmike/.local/share/renesas/e2_studio/toolchains/gcc_arm/gcc-arm-none-eabi-6-2017-q2-update/arm-none-eabi/include/c++/6.3.1/iostream **** /** @file include/iostream
  26:/home/zkmike/.local/share/renesas/e2_studio/toolchains/gcc_arm/gcc-arm-none-eabi-6-2017-q2-update/arm-none-eabi/include/c++/6.3.1/iostream ****  *  This is a Standard C++ Library header.
  27:/home/zkmike/.local/share/renesas/e2_studio/toolchains/gcc_arm/gcc-arm-none-eabi-6-2017-q2-update/arm-none-eabi/include/c++/6.3.1/iostream ****  */
  28:/home/zkmike/.local/share/renesas/e2_studio/toolchains/gcc_arm/gcc-arm-none-eabi-6-2017-q2-update/arm-none-eabi/include/c++/6.3.1/iostream **** 
  29:/home/zkmike/.local/share/renesas/e2_studio/toolchains/gcc_arm/gcc-arm-none-eabi-6-2017-q2-update/arm-none-eabi/include/c++/6.3.1/iostream **** //
  30:/home/zkmike/.local/share/renesas/e2_studio/toolchains/gcc_arm/gcc-arm-none-eabi-6-2017-q2-update/arm-none-eabi/include/c++/6.3.1/iostream **** // ISO C++ 14882: 27.3  Standard iostream objects
  31:/home/zkmike/.local/share/renesas/e2_studio/toolchains/gcc_arm/gcc-arm-none-eabi-6-2017-q2-update/arm-none-eabi/include/c++/6.3.1/iostream **** //
  32:/home/zkmike/.local/share/renesas/e2_studio/toolchains/gcc_arm/gcc-arm-none-eabi-6-2017-q2-update/arm-none-eabi/include/c++/6.3.1/iostream **** 
  33:/home/zkmike/.local/share/renesas/e2_studio/toolchains/gcc_arm/gcc-arm-none-eabi-6-2017-q2-update/arm-none-eabi/include/c++/6.3.1/iostream **** #ifndef _GLIBCXX_IOSTREAM
  34:/home/zkmike/.local/share/renesas/e2_studio/toolchains/gcc_arm/gcc-arm-none-eabi-6-2017-q2-update/arm-none-eabi/include/c++/6.3.1/iostream **** #define _GLIBCXX_IOSTREAM 1
  35:/home/zkmike/.local/share/renesas/e2_studio/toolchains/gcc_arm/gcc-arm-none-eabi-6-2017-q2-update/arm-none-eabi/include/c++/6.3.1/iostream **** 
  36:/home/zkmike/.local/share/renesas/e2_studio/toolchains/gcc_arm/gcc-arm-none-eabi-6-2017-q2-update/arm-none-eabi/include/c++/6.3.1/iostream **** #pragma GCC system_header
  37:/home/zkmike/.local/share/renesas/e2_studio/toolchains/gcc_arm/gcc-arm-none-eabi-6-2017-q2-update/arm-none-eabi/include/c++/6.3.1/iostream **** 
  38:/home/zkmike/.local/share/renesas/e2_studio/toolchains/gcc_arm/gcc-arm-none-eabi-6-2017-q2-update/arm-none-eabi/include/c++/6.3.1/iostream **** #include <bits/c++config.h>
  39:/home/zkmike/.local/share/renesas/e2_studio/toolchains/gcc_arm/gcc-arm-none-eabi-6-2017-q2-update/arm-none-eabi/include/c++/6.3.1/iostream **** #include <ostream>
  40:/home/zkmike/.local/share/renesas/e2_studio/toolchains/gcc_arm/gcc-arm-none-eabi-6-2017-q2-update/arm-none-eabi/include/c++/6.3.1/iostream **** #include <istream>
  41:/home/zkmike/.local/share/renesas/e2_studio/toolchains/gcc_arm/gcc-arm-none-eabi-6-2017-q2-update/arm-none-eabi/include/c++/6.3.1/iostream **** 
  42:/home/zkmike/.local/share/renesas/e2_studio/toolchains/gcc_arm/gcc-arm-none-eabi-6-2017-q2-update/arm-none-eabi/include/c++/6.3.1/iostream **** namespace std _GLIBCXX_VISIBILITY(default)
  43:/home/zkmike/.local/share/renesas/e2_studio/toolchains/gcc_arm/gcc-arm-none-eabi-6-2017-q2-update/arm-none-eabi/include/c++/6.3.1/iostream **** {
  44:/home/zkmike/.local/share/renesas/e2_studio/toolchains/gcc_arm/gcc-arm-none-eabi-6-2017-q2-update/arm-none-eabi/include/c++/6.3.1/iostream **** _GLIBCXX_BEGIN_NAMESPACE_VERSION
  45:/home/zkmike/.local/share/renesas/e2_studio/toolchains/gcc_arm/gcc-arm-none-eabi-6-2017-q2-update/arm-none-eabi/include/c++/6.3.1/iostream **** 
  46:/home/zkmike/.local/share/renesas/e2_studio/toolchains/gcc_arm/gcc-arm-none-eabi-6-2017-q2-update/arm-none-eabi/include/c++/6.3.1/iostream ****   /**
  47:/home/zkmike/.local/share/renesas/e2_studio/toolchains/gcc_arm/gcc-arm-none-eabi-6-2017-q2-update/arm-none-eabi/include/c++/6.3.1/iostream ****    *  @name Standard Stream Objects
  48:/home/zkmike/.local/share/renesas/e2_studio/toolchains/gcc_arm/gcc-arm-none-eabi-6-2017-q2-update/arm-none-eabi/include/c++/6.3.1/iostream ****    *
  49:/home/zkmike/.local/share/renesas/e2_studio/toolchains/gcc_arm/gcc-arm-none-eabi-6-2017-q2-update/arm-none-eabi/include/c++/6.3.1/iostream ****    *  The &lt;iostream&gt; header declares the eight <em>standard stream
  50:/home/zkmike/.local/share/renesas/e2_studio/toolchains/gcc_arm/gcc-arm-none-eabi-6-2017-q2-update/arm-none-eabi/include/c++/6.3.1/iostream ****    *  objects</em>.  For other declarations, see
  51:/home/zkmike/.local/share/renesas/e2_studio/toolchains/gcc_arm/gcc-arm-none-eabi-6-2017-q2-update/arm-none-eabi/include/c++/6.3.1/iostream ****    *  http://gcc.gnu.org/onlinedocs/libstdc++/manual/io.html
  52:/home/zkmike/.local/share/renesas/e2_studio/toolchains/gcc_arm/gcc-arm-none-eabi-6-2017-q2-update/arm-none-eabi/include/c++/6.3.1/iostream ****    *  and the @link iosfwd I/O forward declarations @endlink
  53:/home/zkmike/.local/share/renesas/e2_studio/toolchains/gcc_arm/gcc-arm-none-eabi-6-2017-q2-update/arm-none-eabi/include/c++/6.3.1/iostream ****    *
  54:/home/zkmike/.local/share/renesas/e2_studio/toolchains/gcc_arm/gcc-arm-none-eabi-6-2017-q2-update/arm-none-eabi/include/c++/6.3.1/iostream ****    *  They are required by default to cooperate with the global C
  55:/home/zkmike/.local/share/renesas/e2_studio/toolchains/gcc_arm/gcc-arm-none-eabi-6-2017-q2-update/arm-none-eabi/include/c++/6.3.1/iostream ****    *  library's @c FILE streams, and to be available during program
  56:/home/zkmike/.local/share/renesas/e2_studio/toolchains/gcc_arm/gcc-arm-none-eabi-6-2017-q2-update/arm-none-eabi/include/c++/6.3.1/iostream ****    *  startup and termination. For more information, see the section of the
  57:/home/zkmike/.local/share/renesas/e2_studio/toolchains/gcc_arm/gcc-arm-none-eabi-6-2017-q2-update/arm-none-eabi/include/c++/6.3.1/iostream ****    *  manual linked to above.
  58:/home/zkmike/.local/share/renesas/e2_studio/toolchains/gcc_arm/gcc-arm-none-eabi-6-2017-q2-update/arm-none-eabi/include/c++/6.3.1/iostream ****   */
  59:/home/zkmike/.local/share/renesas/e2_studio/toolchains/gcc_arm/gcc-arm-none-eabi-6-2017-q2-update/arm-none-eabi/include/c++/6.3.1/iostream ****   //@{
  60:/home/zkmike/.local/share/renesas/e2_studio/toolchains/gcc_arm/gcc-arm-none-eabi-6-2017-q2-update/arm-none-eabi/include/c++/6.3.1/iostream ****   extern istream cin;		/// Linked to standard input
  61:/home/zkmike/.local/share/renesas/e2_studio/toolchains/gcc_arm/gcc-arm-none-eabi-6-2017-q2-update/arm-none-eabi/include/c++/6.3.1/iostream ****   extern ostream cout;		/// Linked to standard output
  62:/home/zkmike/.local/share/renesas/e2_studio/toolchains/gcc_arm/gcc-arm-none-eabi-6-2017-q2-update/arm-none-eabi/include/c++/6.3.1/iostream ****   extern ostream cerr;		/// Linked to standard error (unbuffered)
  63:/home/zkmike/.local/share/renesas/e2_studio/toolchains/gcc_arm/gcc-arm-none-eabi-6-2017-q2-update/arm-none-eabi/include/c++/6.3.1/iostream ****   extern ostream clog;		/// Linked to standard error (buffered)
  64:/home/zkmike/.local/share/renesas/e2_studio/toolchains/gcc_arm/gcc-arm-none-eabi-6-2017-q2-update/arm-none-eabi/include/c++/6.3.1/iostream **** 
  65:/home/zkmike/.local/share/renesas/e2_studio/toolchains/gcc_arm/gcc-arm-none-eabi-6-2017-q2-update/arm-none-eabi/include/c++/6.3.1/iostream **** #ifdef _GLIBCXX_USE_WCHAR_T
  66:/home/zkmike/.local/share/renesas/e2_studio/toolchains/gcc_arm/gcc-arm-none-eabi-6-2017-q2-update/arm-none-eabi/include/c++/6.3.1/iostream ****   extern wistream wcin;		/// Linked to standard input
  67:/home/zkmike/.local/share/renesas/e2_studio/toolchains/gcc_arm/gcc-arm-none-eabi-6-2017-q2-update/arm-none-eabi/include/c++/6.3.1/iostream ****   extern wostream wcout;	/// Linked to standard output
  68:/home/zkmike/.local/share/renesas/e2_studio/toolchains/gcc_arm/gcc-arm-none-eabi-6-2017-q2-update/arm-none-eabi/include/c++/6.3.1/iostream ****   extern wostream wcerr;	/// Linked to standard error (unbuffered)
  69:/home/zkmike/.local/share/renesas/e2_studio/toolchains/gcc_arm/gcc-arm-none-eabi-6-2017-q2-update/arm-none-eabi/include/c++/6.3.1/iostream ****   extern wostream wclog;	/// Linked to standard error (buffered)
  70:/home/zkmike/.local/share/renesas/e2_studio/toolchains/gcc_arm/gcc-arm-none-eabi-6-2017-q2-update/arm-none-eabi/include/c++/6.3.1/iostream **** #endif
  71:/home/zkmike/.local/share/renesas/e2_studio/toolchains/gcc_arm/gcc-arm-none-eabi-6-2017-q2-update/arm-none-eabi/include/c++/6.3.1/iostream ****   //@}
  72:/home/zkmike/.local/share/renesas/e2_studio/toolchains/gcc_arm/gcc-arm-none-eabi-6-2017-q2-update/arm-none-eabi/include/c++/6.3.1/iostream **** 
  73:/home/zkmike/.local/share/renesas/e2_studio/toolchains/gcc_arm/gcc-arm-none-eabi-6-2017-q2-update/arm-none-eabi/include/c++/6.3.1/iostream ****   // For construction of filebuffers for cout, cin, cerr, clog et. al.
  74:/home/zkmike/.local/share/renesas/e2_studio/toolchains/gcc_arm/gcc-arm-none-eabi-6-2017-q2-update/arm-none-eabi/include/c++/6.3.1/iostream ****   static ios_base::Init __ioinit;
 1126              		.loc 12 74 0 is_stmt 1
 1127 001c 004000E3 		movw	r4, #:lower16:.LANCHOR0
 1128 0020 004040E3 		movt	r4, #:upper16:.LANCHOR0
 1129 0024 0400A0E1 		mov	r0, r4
 1130              	.LVL96:
 1131 0028 FEFFFFEB 		bl	_ZNSt8ios_base4InitC1Ev
 1132              	.LVL97:
 1133 002c 005000E3 		movw	r5, #:lower16:__dso_handle
 1134 0030 005040E3 		movt	r5, #:upper16:__dso_handle
 1135 0034 0520A0E1 		mov	r2, r5
 1136 0038 001000E3 		movw	r1, #:lower16:_ZNSt8ios_base4InitD1Ev
 1137 003c 001040E3 		movt	r1, #:upper16:_ZNSt8ios_base4InitD1Ev
 1138 0040 0400A0E1 		mov	r0, r4
 1139 0044 FEFFFFEB 		bl	__aeabi_atexit
 1140              	.LVL98:
  35:../src/zxing_lib/zxing/qrcode/decoder/Mode.cpp **** Mode Mode::NUMERIC(10, 12, 14, 0x01, "NUMERIC");
 1141              		.loc 6 35 0
 1142 0048 007000E3 		movw	r7, #:lower16:.LANCHOR1
 1143 004c 007040E3 		movt	r7, #:upper16:.LANCHOR1
 1144 0050 003000E3 		movw	r3, #:lower16:.LC2
 1145 0054 003040E3 		movt	r3, #:upper16:.LC2
 1146 0058 04308DE5 		str	r3, [sp, #4]
 1147 005c 0040A0E3 		mov	r4, #0
 1148 0060 00408DE5 		str	r4, [sp]
 1149 0064 0430A0E1 		mov	r3, r4
 1150 0068 0420A0E1 		mov	r2, r4
 1151 006c 0410A0E1 		mov	r1, r4
 1152 0070 0700A0E1 		mov	r0, r7
 1153 0074 FEFFFFEB 		bl	_ZN5zxing6qrcode4ModeC1EiiiiPKc
 1154              	.LVL99:
 1155 0078 006000E3 		movw	r6, #:lower16:_ZN5zxing6qrcode4ModeD1Ev
 1156 007c 006040E3 		movt	r6, #:upper16:_ZN5zxing6qrcode4ModeD1Ev
 1157 0080 0520A0E1 		mov	r2, r5
 1158 0084 0610A0E1 		mov	r1, r6
 1159 0088 0700A0E1 		mov	r0, r7
 1160 008c FEFFFFEB 		bl	__aeabi_atexit
 1161              	.LVL100:
  36:../src/zxing_lib/zxing/qrcode/decoder/Mode.cpp **** Mode Mode::ALPHANUMERIC(9, 11, 13, 0x02, "ALPHANUMERIC");
 1162              		.loc 6 36 0
 1163 0090 007000E3 		movw	r7, #:lower16:.LANCHOR2
 1164 0094 007040E3 		movt	r7, #:upper16:.LANCHOR2
 1165 0098 003000E3 		movw	r3, #:lower16:.LC3
 1166 009c 003040E3 		movt	r3, #:upper16:.LC3
 1167 00a0 04308DE5 		str	r3, [sp, #4]
 1168 00a4 0130A0E3 		mov	r3, #1
 1169 00a8 00308DE5 		str	r3, [sp]
 1170 00ac 0E30A0E3 		mov	r3, #14
 1171 00b0 0C20A0E3 		mov	r2, #12
 1172 00b4 0A10A0E3 		mov	r1, #10
 1173 00b8 0700A0E1 		mov	r0, r7
 1174 00bc FEFFFFEB 		bl	_ZN5zxing6qrcode4ModeC1EiiiiPKc
 1175              	.LVL101:
 1176 00c0 0520A0E1 		mov	r2, r5
 1177 00c4 0610A0E1 		mov	r1, r6
 1178 00c8 0700A0E1 		mov	r0, r7
 1179 00cc FEFFFFEB 		bl	__aeabi_atexit
 1180              	.LVL102:
  37:../src/zxing_lib/zxing/qrcode/decoder/Mode.cpp **** Mode Mode::STRUCTURED_APPEND(0, 0, 0, 0x03, "STRUCTURED_APPEND");
 1181              		.loc 6 37 0
 1182 00d0 007000E3 		movw	r7, #:lower16:.LANCHOR3
 1183 00d4 007040E3 		movt	r7, #:upper16:.LANCHOR3
 1184 00d8 003000E3 		movw	r3, #:lower16:.LC4
 1185 00dc 003040E3 		movt	r3, #:upper16:.LC4
 1186 00e0 04308DE5 		str	r3, [sp, #4]
 1187 00e4 0230A0E3 		mov	r3, #2
 1188 00e8 00308DE5 		str	r3, [sp]
 1189 00ec 0D30A0E3 		mov	r3, #13
 1190 00f0 0B20A0E3 		mov	r2, #11
 1191 00f4 0910A0E3 		mov	r1, #9
 1192 00f8 0700A0E1 		mov	r0, r7
 1193 00fc FEFFFFEB 		bl	_ZN5zxing6qrcode4ModeC1EiiiiPKc
 1194              	.LVL103:
 1195 0100 0520A0E1 		mov	r2, r5
 1196 0104 0610A0E1 		mov	r1, r6
 1197 0108 0700A0E1 		mov	r0, r7
 1198 010c FEFFFFEB 		bl	__aeabi_atexit
 1199              	.LVL104:
  38:../src/zxing_lib/zxing/qrcode/decoder/Mode.cpp **** Mode Mode::BYTE(8, 16, 16, 0x04, "BYTE");
 1200              		.loc 6 38 0
 1201 0110 007000E3 		movw	r7, #:lower16:.LANCHOR4
 1202 0114 007040E3 		movt	r7, #:upper16:.LANCHOR4
 1203 0118 003000E3 		movw	r3, #:lower16:.LC5
 1204 011c 003040E3 		movt	r3, #:upper16:.LC5
 1205 0120 04308DE5 		str	r3, [sp, #4]
 1206 0124 0330A0E3 		mov	r3, #3
 1207 0128 00308DE5 		str	r3, [sp]
 1208 012c 0430A0E1 		mov	r3, r4
 1209 0130 0420A0E1 		mov	r2, r4
 1210 0134 0410A0E1 		mov	r1, r4
 1211 0138 0700A0E1 		mov	r0, r7
 1212 013c FEFFFFEB 		bl	_ZN5zxing6qrcode4ModeC1EiiiiPKc
 1213              	.LVL105:
 1214 0140 0520A0E1 		mov	r2, r5
 1215 0144 0610A0E1 		mov	r1, r6
 1216 0148 0700A0E1 		mov	r0, r7
 1217 014c FEFFFFEB 		bl	__aeabi_atexit
 1218              	.LVL106:
  39:../src/zxing_lib/zxing/qrcode/decoder/Mode.cpp **** Mode Mode::ECI(0, 0, 0, 0x07, "ECI");
 1219              		.loc 6 39 0
 1220 0150 007000E3 		movw	r7, #:lower16:.LANCHOR5
 1221 0154 007040E3 		movt	r7, #:upper16:.LANCHOR5
 1222 0158 003000E3 		movw	r3, #:lower16:.LC6
 1223 015c 003040E3 		movt	r3, #:upper16:.LC6
 1224 0160 04308DE5 		str	r3, [sp, #4]
 1225 0164 0430A0E3 		mov	r3, #4
 1226 0168 00308DE5 		str	r3, [sp]
 1227 016c 1030A0E3 		mov	r3, #16
 1228 0170 0320A0E1 		mov	r2, r3
 1229 0174 0810A0E3 		mov	r1, #8
 1230 0178 0700A0E1 		mov	r0, r7
 1231 017c FEFFFFEB 		bl	_ZN5zxing6qrcode4ModeC1EiiiiPKc
 1232              	.LVL107:
 1233 0180 0520A0E1 		mov	r2, r5
 1234 0184 0610A0E1 		mov	r1, r6
 1235 0188 0700A0E1 		mov	r0, r7
 1236 018c FEFFFFEB 		bl	__aeabi_atexit
 1237              	.LVL108:
  40:../src/zxing_lib/zxing/qrcode/decoder/Mode.cpp **** Mode Mode::KANJI(8, 10, 12, 0x08, "KANJI");
 1238              		.loc 6 40 0
 1239 0190 007000E3 		movw	r7, #:lower16:.LANCHOR6
 1240 0194 007040E3 		movt	r7, #:upper16:.LANCHOR6
 1241 0198 003000E3 		movw	r3, #:lower16:.LC7
 1242 019c 003040E3 		movt	r3, #:upper16:.LC7
 1243 01a0 04308DE5 		str	r3, [sp, #4]
 1244 01a4 0730A0E3 		mov	r3, #7
 1245 01a8 00308DE5 		str	r3, [sp]
 1246 01ac 0430A0E1 		mov	r3, r4
 1247 01b0 0420A0E1 		mov	r2, r4
 1248 01b4 0410A0E1 		mov	r1, r4
 1249 01b8 0700A0E1 		mov	r0, r7
 1250 01bc FEFFFFEB 		bl	_ZN5zxing6qrcode4ModeC1EiiiiPKc
 1251              	.LVL109:
 1252 01c0 0520A0E1 		mov	r2, r5
 1253 01c4 0610A0E1 		mov	r1, r6
 1254 01c8 0700A0E1 		mov	r0, r7
 1255 01cc FEFFFFEB 		bl	__aeabi_atexit
 1256              	.LVL110:
  41:../src/zxing_lib/zxing/qrcode/decoder/Mode.cpp **** Mode Mode::FNC1_FIRST_POSITION(0, 0, 0, 0x05, "FNC1_FIRST_POSITION");
 1257              		.loc 6 41 0
 1258 01d0 007000E3 		movw	r7, #:lower16:.LANCHOR7
 1259 01d4 007040E3 		movt	r7, #:upper16:.LANCHOR7
 1260 01d8 003000E3 		movw	r3, #:lower16:.LC8
 1261 01dc 003040E3 		movt	r3, #:upper16:.LC8
 1262 01e0 04308DE5 		str	r3, [sp, #4]
 1263 01e4 0880A0E3 		mov	r8, #8
 1264 01e8 00808DE5 		str	r8, [sp]
 1265 01ec 0C30A0E3 		mov	r3, #12
 1266 01f0 0A20A0E3 		mov	r2, #10
 1267 01f4 0810A0E1 		mov	r1, r8
 1268 01f8 0700A0E1 		mov	r0, r7
 1269 01fc FEFFFFEB 		bl	_ZN5zxing6qrcode4ModeC1EiiiiPKc
 1270              	.LVL111:
 1271 0200 0520A0E1 		mov	r2, r5
 1272 0204 0610A0E1 		mov	r1, r6
 1273 0208 0700A0E1 		mov	r0, r7
 1274 020c FEFFFFEB 		bl	__aeabi_atexit
 1275              	.LVL112:
  42:../src/zxing_lib/zxing/qrcode/decoder/Mode.cpp **** Mode Mode::FNC1_SECOND_POSITION(0, 0, 0, 0x09, "FNC1_SECOND_POSITION");
 1276              		.loc 6 42 0
 1277 0210 007000E3 		movw	r7, #:lower16:.LANCHOR8
 1278 0214 007040E3 		movt	r7, #:upper16:.LANCHOR8
 1279 0218 003000E3 		movw	r3, #:lower16:.LC9
 1280 021c 003040E3 		movt	r3, #:upper16:.LC9
 1281 0220 04308DE5 		str	r3, [sp, #4]
 1282 0224 0530A0E3 		mov	r3, #5
 1283 0228 00308DE5 		str	r3, [sp]
 1284 022c 0430A0E1 		mov	r3, r4
 1285 0230 0420A0E1 		mov	r2, r4
 1286 0234 0410A0E1 		mov	r1, r4
 1287 0238 0700A0E1 		mov	r0, r7
 1288 023c FEFFFFEB 		bl	_ZN5zxing6qrcode4ModeC1EiiiiPKc
 1289              	.LVL113:
 1290 0240 0520A0E1 		mov	r2, r5
 1291 0244 0610A0E1 		mov	r1, r6
 1292 0248 0700A0E1 		mov	r0, r7
 1293 024c FEFFFFEB 		bl	__aeabi_atexit
 1294              	.LVL114:
  43:../src/zxing_lib/zxing/qrcode/decoder/Mode.cpp **** Mode Mode::HANZI(8, 10, 12, 0x0D, "HANZI");
 1295              		.loc 6 43 0
 1296 0250 007000E3 		movw	r7, #:lower16:.LANCHOR9
 1297 0254 007040E3 		movt	r7, #:upper16:.LANCHOR9
 1298 0258 003000E3 		movw	r3, #:lower16:.LC10
 1299 025c 003040E3 		movt	r3, #:upper16:.LC10
 1300 0260 04308DE5 		str	r3, [sp, #4]
 1301 0264 0930A0E3 		mov	r3, #9
 1302 0268 00308DE5 		str	r3, [sp]
 1303 026c 0430A0E1 		mov	r3, r4
 1304 0270 0420A0E1 		mov	r2, r4
 1305 0274 0410A0E1 		mov	r1, r4
 1306 0278 0700A0E1 		mov	r0, r7
 1307 027c FEFFFFEB 		bl	_ZN5zxing6qrcode4ModeC1EiiiiPKc
 1308              	.LVL115:
 1309 0280 0520A0E1 		mov	r2, r5
 1310 0284 0610A0E1 		mov	r1, r6
 1311 0288 0700A0E1 		mov	r0, r7
 1312 028c FEFFFFEB 		bl	__aeabi_atexit
 1313              	.LVL116:
  44:../src/zxing_lib/zxing/qrcode/decoder/Mode.cpp **** 
 1314              		.loc 6 44 0
 1315 0290 004000E3 		movw	r4, #:lower16:.LANCHOR10
 1316 0294 004040E3 		movt	r4, #:upper16:.LANCHOR10
 1317 0298 003000E3 		movw	r3, #:lower16:.LC11
 1318 029c 003040E3 		movt	r3, #:upper16:.LC11
 1319 02a0 04308DE5 		str	r3, [sp, #4]
 1320 02a4 0D30A0E3 		mov	r3, #13
 1321 02a8 00308DE5 		str	r3, [sp]
 1322 02ac 0C30A0E3 		mov	r3, #12
 1323 02b0 0A20A0E3 		mov	r2, #10
 1324 02b4 0810A0E1 		mov	r1, r8
 1325 02b8 0400A0E1 		mov	r0, r4
 1326 02bc FEFFFFEB 		bl	_ZN5zxing6qrcode4ModeC1EiiiiPKc
 1327              	.LVL117:
 1328 02c0 0520A0E1 		mov	r2, r5
 1329 02c4 0610A0E1 		mov	r1, r6
 1330 02c8 0400A0E1 		mov	r0, r4
 1331 02cc FEFFFFEB 		bl	__aeabi_atexit
 1332              	.LVL118:
 1333              		.loc 6 90 0
 1334 02d0 08D08DE2 		add	sp, sp, #8
 1335              		.cfi_def_cfa_offset 24
 1336              		@ sp needed
 1337 02d4 F081BDE8 		pop	{r4, r5, r6, r7, r8, pc}
 1338              		.cfi_endproc
 1339              	.LFE2815:
 1340              		.cantunwind
 1341              		.fnend
 1343              		.section	.text._ZNSt7__cxx1112basic_stringIcSt11char_traitsIcESaIcEE12_M_constructIPcEEvT_S7_St20f
 1344              		.align	2
 1345              		.weak	_ZNSt7__cxx1112basic_stringIcSt11char_traitsIcESaIcEE12_M_constructIPcEEvT_S7_St20forward_it
 1346              		.syntax unified
 1347              		.arm
 1348              		.fpu neon
 1350              	_ZNSt7__cxx1112basic_stringIcSt11char_traitsIcESaIcEE12_M_constructIPcEEvT_S7_St20forward_iterator_
 1351              		.fnstart
 1352              	.LFB2744:
 206:/home/zkmike/.local/share/renesas/e2_studio/toolchains/gcc_arm/gcc-arm-none-eabi-6-2017-q2-update/arm-none-eabi/include/c++/6.3.1/bits/basic_string.tcc ****       _M_construct(_InIterator __beg, _InIterator __end,
 1353              		.loc 9 206 0
 1354              		.cfi_startproc
 1355              		@ args = 0, pretend = 0, frame = 8
 1356              		@ frame_needed = 0, uses_anonymous_args = 0
 1357              	.LVL119:
 1358 0000 70402DE9 		push	{r4, r5, r6, lr}
 1359              		.save {r4, r5, r6, lr}
 1360              		.cfi_def_cfa_offset 16
 1361              		.cfi_offset 4, -16
 1362              		.cfi_offset 5, -12
 1363              		.cfi_offset 6, -8
 1364              		.cfi_offset 14, -4
 1365              		.pad #8
 1366 0004 08D04DE2 		sub	sp, sp, #8
 1367              		.cfi_def_cfa_offset 24
 1368 0008 0050A0E1 		mov	r5, r0
 211:/home/zkmike/.local/share/renesas/e2_studio/toolchains/gcc_arm/gcc-arm-none-eabi-6-2017-q2-update/arm-none-eabi/include/c++/6.3.1/bits/basic_string.tcc **** 	  std::__throw_logic_error(__N("basic_string::"
 1369              		.loc 9 211 0
 1370 000c 006051E2 		subs	r6, r1, #0
 1371 0010 1200000A 		beq	.L93
 1372 0014 0030A0E3 		mov	r3, #0
 1373              	.L85:
 211:/home/zkmike/.local/share/renesas/e2_studio/toolchains/gcc_arm/gcc-arm-none-eabi-6-2017-q2-update/arm-none-eabi/include/c++/6.3.1/bits/basic_string.tcc **** 	  std::__throw_logic_error(__N("basic_string::"
 1374              		.loc 9 211 0 is_stmt 0 discriminator 6
 1375 0018 000053E3 		cmp	r3, #0
 1376 001c 1400001A 		bne	.L94
 1377              	.LVL120:
 1378              	.LBB903:
 1379              	.LBB904:
 1380              	.LBB905:
 1381              		.loc 10 102 0 is_stmt 1
 1382 0020 064042E0 		sub	r4, r2, r6
 1383              	.LVL121:
 1384              	.LBE905:
 1385              	.LBE904:
 1386              	.LBE903:
 215:/home/zkmike/.local/share/renesas/e2_studio/toolchains/gcc_arm/gcc-arm-none-eabi-6-2017-q2-update/arm-none-eabi/include/c++/6.3.1/bits/basic_string.tcc **** 
 1387              		.loc 9 215 0
 1388 0024 04408DE5 		str	r4, [sp, #4]
 217:/home/zkmike/.local/share/renesas/e2_studio/toolchains/gcc_arm/gcc-arm-none-eabi-6-2017-q2-update/arm-none-eabi/include/c++/6.3.1/bits/basic_string.tcc **** 	  {
 1389              		.loc 9 217 0
 1390 0028 0F0054E3 		cmp	r4, #15
 1391 002c 1300008A 		bhi	.L95
 1392              	.LVL122:
 1393              	.L87:
 1394              	.LBB906:
 1395              	.LBB907:
 136:/home/zkmike/.local/share/renesas/e2_studio/toolchains/gcc_arm/gcc-arm-none-eabi-6-2017-q2-update/arm-none-eabi/include/c++/6.3.1/bits/basic_string.h **** 
 1396              		.loc 3 136 0
 1397 0030 000095E5 		ldr	r0, [r5]
 1398              	.LVL123:
 1399              	.LBE907:
 1400              	.LBE906:
 1401              	.LBB908:
 1402              	.LBB909:
 1403              	.LBB910:
 297:/home/zkmike/.local/share/renesas/e2_studio/toolchains/gcc_arm/gcc-arm-none-eabi-6-2017-q2-update/arm-none-eabi/include/c++/6.3.1/bits/basic_string.h **** 	  traits_type::assign(*__d, *__s);
 1404              		.loc 3 297 0
 1405 0034 010054E3 		cmp	r4, #1
 1406 0038 1800000A 		beq	.L96
 1407              	.LVL124:
 1408              	.LBB911:
 1409              	.LBB912:
 288:/home/zkmike/.local/share/renesas/e2_studio/toolchains/gcc_arm/gcc-arm-none-eabi-6-2017-q2-update/arm-none-eabi/include/c++/6.3.1/bits/char_traits.h **** 	  return __s1;
 1410              		.loc 11 288 0
 1411 003c 000054E3 		cmp	r4, #0
 1412 0040 1900001A 		bne	.L97
 1413              	.LVL125:
 1414              	.L89:
 1415              	.LBE912:
 1416              	.LBE911:
 1417              	.LBE910:
 1418              	.LBE909:
 1419              	.LBE908:
 232:/home/zkmike/.local/share/renesas/e2_studio/toolchains/gcc_arm/gcc-arm-none-eabi-6-2017-q2-update/arm-none-eabi/include/c++/6.3.1/bits/basic_string.tcc ****       }
 1420              		.loc 9 232 0
 1421 0044 04309DE5 		ldr	r3, [sp, #4]
 1422              	.LVL126:
 1423              	.LBB919:
 1424              	.LBB920:
 1425              	.LBB921:
 1426              	.LBB922:
 132:/home/zkmike/.local/share/renesas/e2_studio/toolchains/gcc_arm/gcc-arm-none-eabi-6-2017-q2-update/arm-none-eabi/include/c++/6.3.1/bits/basic_string.h **** 
 1427              		.loc 3 132 0
 1428 0048 043085E5 		str	r3, [r5, #4]
 1429              	.LVL127:
 1430              	.LBE922:
 1431              	.LBE921:
 1432              	.LBB923:
 1433              	.LBB924:
 136:/home/zkmike/.local/share/renesas/e2_studio/toolchains/gcc_arm/gcc-arm-none-eabi-6-2017-q2-update/arm-none-eabi/include/c++/6.3.1/bits/basic_string.h **** 
 1434              		.loc 3 136 0
 1435 004c 002095E5 		ldr	r2, [r5]
 1436              	.LVL128:
 1437              	.LBE924:
 1438              	.LBE923:
 1439              	.LBB925:
 1440              	.LBB926:
 243:/home/zkmike/.local/share/renesas/e2_studio/toolchains/gcc_arm/gcc-arm-none-eabi-6-2017-q2-update/arm-none-eabi/include/c++/6.3.1/bits/char_traits.h **** 
 1441              		.loc 11 243 0
 1442 0050 0010A0E3 		mov	r1, #0
 1443 0054 0310C2E7 		strb	r1, [r2, r3]
 1444              	.LVL129:
 1445              	.LBE926:
 1446              	.LBE925:
 1447              	.LBE920:
 1448              	.LBE919:
 1449              		.loc 9 233 0
 1450 0058 08D08DE2 		add	sp, sp, #8
 1451              		.cfi_remember_state
 1452              		.cfi_def_cfa_offset 16
 1453              		@ sp needed
 1454 005c 7080BDE8 		pop	{r4, r5, r6, pc}
 1455              	.LVL130:
 1456              	.L93:
 1457              		.cfi_restore_state
 211:/home/zkmike/.local/share/renesas/e2_studio/toolchains/gcc_arm/gcc-arm-none-eabi-6-2017-q2-update/arm-none-eabi/include/c++/6.3.1/bits/basic_string.tcc **** 	  std::__throw_logic_error(__N("basic_string::"
 1458              		.loc 9 211 0 discriminator 1
 1459 0060 020056E1 		cmp	r6, r2
 211:/home/zkmike/.local/share/renesas/e2_studio/toolchains/gcc_arm/gcc-arm-none-eabi-6-2017-q2-update/arm-none-eabi/include/c++/6.3.1/bits/basic_string.tcc **** 	  std::__throw_logic_error(__N("basic_string::"
 1460              		.loc 9 211 0 is_stmt 0
 1461 0064 0130A013 		movne	r3, #1
 1462 0068 EAFFFF1A 		bne	.L85
 1463              	.L98:
 1464 006c 0030A0E3 		mov	r3, #0
 1465 0070 E8FFFFEA 		b	.L85
 1466              	.L94:
 212:/home/zkmike/.local/share/renesas/e2_studio/toolchains/gcc_arm/gcc-arm-none-eabi-6-2017-q2-update/arm-none-eabi/include/c++/6.3.1/bits/basic_string.tcc **** 				       "_M_construct null not valid"));
 1467              		.loc 9 212 0 is_stmt 1
 1468 0074 000000E3 		movw	r0, #:lower16:.LC1
 1469              	.LVL131:
 1470 0078 000040E3 		movt	r0, #:upper16:.LC1
 1471 007c FEFFFFEB 		bl	_ZSt19__throw_logic_errorPKc
 1472              	.LVL132:
 1473              	.L95:
 219:/home/zkmike/.local/share/renesas/e2_studio/toolchains/gcc_arm/gcc-arm-none-eabi-6-2017-q2-update/arm-none-eabi/include/c++/6.3.1/bits/basic_string.tcc **** 	    _M_capacity(__dnew);
 1474              		.loc 9 219 0
 1475 0080 0020A0E3 		mov	r2, #0
 1476              	.LVL133:
 1477 0084 04108DE2 		add	r1, sp, #4
 1478              	.LVL134:
 1479 0088 0500A0E1 		mov	r0, r5
 1480              	.LVL135:
 1481 008c FEFFFFEB 		bl	_ZNSt7__cxx1112basic_stringIcSt11char_traitsIcESaIcEE9_M_createERjj
 1482              	.LVL136:
 1483              	.LBB927:
 1484              	.LBB928:
 128:/home/zkmike/.local/share/renesas/e2_studio/toolchains/gcc_arm/gcc-arm-none-eabi-6-2017-q2-update/arm-none-eabi/include/c++/6.3.1/bits/basic_string.h **** 
 1485              		.loc 3 128 0
 1486 0090 000085E5 		str	r0, [r5]
 1487              	.LVL137:
 1488              	.LBE928:
 1489              	.LBE927:
 220:/home/zkmike/.local/share/renesas/e2_studio/toolchains/gcc_arm/gcc-arm-none-eabi-6-2017-q2-update/arm-none-eabi/include/c++/6.3.1/bits/basic_string.tcc **** 	  }
 1490              		.loc 9 220 0
 1491 0094 04309DE5 		ldr	r3, [sp, #4]
 1492              	.LVL138:
 1493              	.LBB929:
 1494              	.LBB930:
 160:/home/zkmike/.local/share/renesas/e2_studio/toolchains/gcc_arm/gcc-arm-none-eabi-6-2017-q2-update/arm-none-eabi/include/c++/6.3.1/bits/basic_string.h **** 
 1495              		.loc 3 160 0
 1496 0098 083085E5 		str	r3, [r5, #8]
 1497 009c E3FFFFEA 		b	.L87
 1498              	.LVL139:
 1499              	.L96:
 1500              	.LBE930:
 1501              	.LBE929:
 1502              	.LBB931:
 1503              	.LBB918:
 1504              	.LBB917:
 1505              	.LBB914:
 1506              	.LBB915:
 243:/home/zkmike/.local/share/renesas/e2_studio/toolchains/gcc_arm/gcc-arm-none-eabi-6-2017-q2-update/arm-none-eabi/include/c++/6.3.1/bits/char_traits.h **** 
 1507              		.loc 11 243 0
 1508 00a0 0030D6E5 		ldrb	r3, [r6]	@ zero_extendqisi2
 1509 00a4 0030C0E5 		strb	r3, [r0]
 1510 00a8 E5FFFFEA 		b	.L89
 1511              	.LVL140:
 1512              	.L97:
 1513              	.LBE915:
 1514              	.LBE914:
 1515              	.LBB916:
 1516              	.LBB913:
 1517              		.loc 11 290 0
 1518 00ac 0420A0E1 		mov	r2, r4
 1519 00b0 0610A0E1 		mov	r1, r6
 1520 00b4 FEFFFFEB 		bl	memcpy
 1521              	.LVL141:
 1522 00b8 E1FFFFEA 		b	.L89
 1523              	.LBE913:
 1524              	.LBE916:
 1525              	.LBE917:
 1526              	.LBE918:
 1527              	.LBE931:
 1528              		.cfi_endproc
 1529              	.LFE2744:
 1530              		.fnend
 1532              		.section	.text._ZN5zxing6qrcode4Mode7forBitsEi,"ax",%progbits
 1533              		.align	2
 1534              		.global	_ZN5zxing6qrcode4Mode7forBitsEi
 1535              		.syntax unified
 1536              		.arm
 1537              		.fpu neon
 1539              	_ZN5zxing6qrcode4Mode7forBitsEi:
 1540              		.fnstart
 1541              	.LFB2304:
  51:../src/zxing_lib/zxing/qrcode/decoder/Mode.cpp ****   switch (bits) {
 1542              		.loc 6 51 0
 1543              		.cfi_startproc
 1544              		.cfi_personality 0,__gxx_personality_v0
 1545              		.cfi_lsda 0,.LLSDA2304
 1546              		@ args = 0, pretend = 0, frame = 272
 1547              		@ frame_needed = 0, uses_anonymous_args = 0
 1548              	.LVL142:
 1549              	.LBB1197:
  52:../src/zxing_lib/zxing/qrcode/decoder/Mode.cpp ****   case 0x0:
 1550              		.loc 6 52 0
 1551 0000 0D0050E3 		cmp	r0, #13
 1552 0004 00F19F97 		ldrls	pc, [pc, r0, asl #2]
 1553 0008 250000EA 		b	.L100
 1554              	.L102:
 1555 000c 10040000 		.word	.L101
 1556 0010 1C040000 		.word	.L135
 1557 0014 44000000 		.word	.L104
 1558 0018 50000000 		.word	.L105
 1559 001c 5C000000 		.word	.L106
 1560 0020 68000000 		.word	.L107
 1561 0024 A4000000 		.word	.L100
 1562 0028 74000000 		.word	.L108
 1563 002c 80000000 		.word	.L109
 1564 0030 8C000000 		.word	.L110
 1565 0034 A4000000 		.word	.L100
 1566 0038 A4000000 		.word	.L100
 1567 003c A4000000 		.word	.L100
 1568 0040 98000000 		.word	.L111
 1569              	.L104:
 1570              	.LBB1198:
  58:../src/zxing_lib/zxing/qrcode/decoder/Mode.cpp ****   case 0x3:
 1571              		.loc 6 58 0
 1572 0044 000000E3 		movw	r0, #:lower16:.LANCHOR3
 1573              	.LVL143:
 1574 0048 000040E3 		movt	r0, #:upper16:.LANCHOR3
 1575 004c F40000EA 		b	.L99
 1576              	.LVL144:
 1577              	.L105:
  60:../src/zxing_lib/zxing/qrcode/decoder/Mode.cpp ****   case 0x4:
 1578              		.loc 6 60 0
 1579 0050 000000E3 		movw	r0, #:lower16:.LANCHOR4
 1580              	.LVL145:
 1581 0054 000040E3 		movt	r0, #:upper16:.LANCHOR4
 1582 0058 F10000EA 		b	.L99
 1583              	.LVL146:
 1584              	.L106:
  62:../src/zxing_lib/zxing/qrcode/decoder/Mode.cpp ****   case 0x5:
 1585              		.loc 6 62 0
 1586 005c 000000E3 		movw	r0, #:lower16:.LANCHOR5
 1587              	.LVL147:
 1588 0060 000040E3 		movt	r0, #:upper16:.LANCHOR5
 1589 0064 EE0000EA 		b	.L99
 1590              	.LVL148:
 1591              	.L107:
  64:../src/zxing_lib/zxing/qrcode/decoder/Mode.cpp ****   case 0x7:
 1592              		.loc 6 64 0
 1593 0068 000000E3 		movw	r0, #:lower16:.LANCHOR8
 1594              	.LVL149:
 1595 006c 000040E3 		movt	r0, #:upper16:.LANCHOR8
 1596 0070 EB0000EA 		b	.L99
 1597              	.LVL150:
 1598              	.L108:
  66:../src/zxing_lib/zxing/qrcode/decoder/Mode.cpp ****   case 0x8:
 1599              		.loc 6 66 0
 1600 0074 000000E3 		movw	r0, #:lower16:.LANCHOR6
 1601              	.LVL151:
 1602 0078 000040E3 		movt	r0, #:upper16:.LANCHOR6
 1603 007c E80000EA 		b	.L99
 1604              	.LVL152:
 1605              	.L109:
  68:../src/zxing_lib/zxing/qrcode/decoder/Mode.cpp ****   case 0x9:
 1606              		.loc 6 68 0
 1607 0080 000000E3 		movw	r0, #:lower16:.LANCHOR7
 1608              	.LVL153:
 1609 0084 000040E3 		movt	r0, #:upper16:.LANCHOR7
 1610 0088 E50000EA 		b	.L99
 1611              	.LVL154:
 1612              	.L110:
  70:../src/zxing_lib/zxing/qrcode/decoder/Mode.cpp ****   case 0xD:
 1613              		.loc 6 70 0
 1614 008c 000000E3 		movw	r0, #:lower16:.LANCHOR9
 1615              	.LVL155:
 1616 0090 000040E3 		movt	r0, #:upper16:.LANCHOR9
 1617 0094 E20000EA 		b	.L99
 1618              	.LVL156:
 1619              	.L111:
  73:../src/zxing_lib/zxing/qrcode/decoder/Mode.cpp ****   default:
 1620              		.loc 6 73 0
 1621 0098 000000E3 		movw	r0, #:lower16:.LANCHOR10
 1622              	.LVL157:
 1623 009c 000040E3 		movt	r0, #:upper16:.LANCHOR10
 1624 00a0 DF0000EA 		b	.L99
 1625              	.LVL158:
 1626              	.L100:
 1627              	.LBE1198:
 1628              	.LBE1197:
  51:../src/zxing_lib/zxing/qrcode/decoder/Mode.cpp ****   switch (bits) {
 1629              		.loc 6 51 0
 1630 00a4 F0432DE9 		push	{r4, r5, r6, r7, r8, r9, lr}
 1631              		.save {r4, r5, r6, r7, r8, r9, lr}
 1632              		.cfi_def_cfa_offset 28
 1633              		.cfi_offset 4, -28
 1634              		.cfi_offset 5, -24
 1635              		.cfi_offset 6, -20
 1636              		.cfi_offset 7, -16
 1637              		.cfi_offset 8, -12
 1638              		.cfi_offset 9, -8
 1639              		.cfi_offset 14, -4
 1640              		.pad #276
 1641 00a8 45DF4DE2 		sub	sp, sp, #276
 1642              		.cfi_def_cfa_offset 304
 1643 00ac 0040A0E1 		mov	r4, r0
 1644              	.LVL159:
 1645              	.LBB1400:
 1646              	.LBB1399:
 1647              	.LBB1199:
 1648              	.LBB1200:
 1649              	.LBB1201:
 1650              	.LBB1202:
 1651              	.LBB1203:
 1652              	.LBB1204:
 1653              	.LBB1205:
 1654              		.file 13 "/home/zkmike/.local/share/renesas/e2_studio/toolchains/gcc_arm/gcc-arm-none-eabi-6-2017-
   1:/home/zkmike/.local/share/renesas/e2_studio/toolchains/gcc_arm/gcc-arm-none-eabi-6-2017-q2-update/arm-none-eabi/include/c++/6.3.1/bits/basic_ios.h **** // Iostreams base classes -*- C++ -*-
   2:/home/zkmike/.local/share/renesas/e2_studio/toolchains/gcc_arm/gcc-arm-none-eabi-6-2017-q2-update/arm-none-eabi/include/c++/6.3.1/bits/basic_ios.h **** 
   3:/home/zkmike/.local/share/renesas/e2_studio/toolchains/gcc_arm/gcc-arm-none-eabi-6-2017-q2-update/arm-none-eabi/include/c++/6.3.1/bits/basic_ios.h **** // Copyright (C) 1997-2016 Free Software Foundation, Inc.
   4:/home/zkmike/.local/share/renesas/e2_studio/toolchains/gcc_arm/gcc-arm-none-eabi-6-2017-q2-update/arm-none-eabi/include/c++/6.3.1/bits/basic_ios.h **** //
   5:/home/zkmike/.local/share/renesas/e2_studio/toolchains/gcc_arm/gcc-arm-none-eabi-6-2017-q2-update/arm-none-eabi/include/c++/6.3.1/bits/basic_ios.h **** // This file is part of the GNU ISO C++ Library.  This library is free
   6:/home/zkmike/.local/share/renesas/e2_studio/toolchains/gcc_arm/gcc-arm-none-eabi-6-2017-q2-update/arm-none-eabi/include/c++/6.3.1/bits/basic_ios.h **** // software; you can redistribute it and/or modify it under the
   7:/home/zkmike/.local/share/renesas/e2_studio/toolchains/gcc_arm/gcc-arm-none-eabi-6-2017-q2-update/arm-none-eabi/include/c++/6.3.1/bits/basic_ios.h **** // terms of the GNU General Public License as published by the
   8:/home/zkmike/.local/share/renesas/e2_studio/toolchains/gcc_arm/gcc-arm-none-eabi-6-2017-q2-update/arm-none-eabi/include/c++/6.3.1/bits/basic_ios.h **** // Free Software Foundation; either version 3, or (at your option)
   9:/home/zkmike/.local/share/renesas/e2_studio/toolchains/gcc_arm/gcc-arm-none-eabi-6-2017-q2-update/arm-none-eabi/include/c++/6.3.1/bits/basic_ios.h **** // any later version.
  10:/home/zkmike/.local/share/renesas/e2_studio/toolchains/gcc_arm/gcc-arm-none-eabi-6-2017-q2-update/arm-none-eabi/include/c++/6.3.1/bits/basic_ios.h **** 
  11:/home/zkmike/.local/share/renesas/e2_studio/toolchains/gcc_arm/gcc-arm-none-eabi-6-2017-q2-update/arm-none-eabi/include/c++/6.3.1/bits/basic_ios.h **** // This library is distributed in the hope that it will be useful,
  12:/home/zkmike/.local/share/renesas/e2_studio/toolchains/gcc_arm/gcc-arm-none-eabi-6-2017-q2-update/arm-none-eabi/include/c++/6.3.1/bits/basic_ios.h **** // but WITHOUT ANY WARRANTY; without even the implied warranty of
  13:/home/zkmike/.local/share/renesas/e2_studio/toolchains/gcc_arm/gcc-arm-none-eabi-6-2017-q2-update/arm-none-eabi/include/c++/6.3.1/bits/basic_ios.h **** // MERCHANTABILITY or FITNESS FOR A PARTICULAR PURPOSE.  See the
  14:/home/zkmike/.local/share/renesas/e2_studio/toolchains/gcc_arm/gcc-arm-none-eabi-6-2017-q2-update/arm-none-eabi/include/c++/6.3.1/bits/basic_ios.h **** // GNU General Public License for more details.
  15:/home/zkmike/.local/share/renesas/e2_studio/toolchains/gcc_arm/gcc-arm-none-eabi-6-2017-q2-update/arm-none-eabi/include/c++/6.3.1/bits/basic_ios.h **** 
  16:/home/zkmike/.local/share/renesas/e2_studio/toolchains/gcc_arm/gcc-arm-none-eabi-6-2017-q2-update/arm-none-eabi/include/c++/6.3.1/bits/basic_ios.h **** // Under Section 7 of GPL version 3, you are granted additional
  17:/home/zkmike/.local/share/renesas/e2_studio/toolchains/gcc_arm/gcc-arm-none-eabi-6-2017-q2-update/arm-none-eabi/include/c++/6.3.1/bits/basic_ios.h **** // permissions described in the GCC Runtime Library Exception, version
  18:/home/zkmike/.local/share/renesas/e2_studio/toolchains/gcc_arm/gcc-arm-none-eabi-6-2017-q2-update/arm-none-eabi/include/c++/6.3.1/bits/basic_ios.h **** // 3.1, as published by the Free Software Foundation.
  19:/home/zkmike/.local/share/renesas/e2_studio/toolchains/gcc_arm/gcc-arm-none-eabi-6-2017-q2-update/arm-none-eabi/include/c++/6.3.1/bits/basic_ios.h **** 
  20:/home/zkmike/.local/share/renesas/e2_studio/toolchains/gcc_arm/gcc-arm-none-eabi-6-2017-q2-update/arm-none-eabi/include/c++/6.3.1/bits/basic_ios.h **** // You should have received a copy of the GNU General Public License and
  21:/home/zkmike/.local/share/renesas/e2_studio/toolchains/gcc_arm/gcc-arm-none-eabi-6-2017-q2-update/arm-none-eabi/include/c++/6.3.1/bits/basic_ios.h **** // a copy of the GCC Runtime Library Exception along with this program;
  22:/home/zkmike/.local/share/renesas/e2_studio/toolchains/gcc_arm/gcc-arm-none-eabi-6-2017-q2-update/arm-none-eabi/include/c++/6.3.1/bits/basic_ios.h **** // see the files COPYING3 and COPYING.RUNTIME respectively.  If not, see
  23:/home/zkmike/.local/share/renesas/e2_studio/toolchains/gcc_arm/gcc-arm-none-eabi-6-2017-q2-update/arm-none-eabi/include/c++/6.3.1/bits/basic_ios.h **** // <http://www.gnu.org/licenses/>.
  24:/home/zkmike/.local/share/renesas/e2_studio/toolchains/gcc_arm/gcc-arm-none-eabi-6-2017-q2-update/arm-none-eabi/include/c++/6.3.1/bits/basic_ios.h **** 
  25:/home/zkmike/.local/share/renesas/e2_studio/toolchains/gcc_arm/gcc-arm-none-eabi-6-2017-q2-update/arm-none-eabi/include/c++/6.3.1/bits/basic_ios.h **** /** @file bits/basic_ios.h
  26:/home/zkmike/.local/share/renesas/e2_studio/toolchains/gcc_arm/gcc-arm-none-eabi-6-2017-q2-update/arm-none-eabi/include/c++/6.3.1/bits/basic_ios.h ****  *  This is an internal header file, included by other library headers.
  27:/home/zkmike/.local/share/renesas/e2_studio/toolchains/gcc_arm/gcc-arm-none-eabi-6-2017-q2-update/arm-none-eabi/include/c++/6.3.1/bits/basic_ios.h ****  *  Do not attempt to use it directly. @headername{ios}
  28:/home/zkmike/.local/share/renesas/e2_studio/toolchains/gcc_arm/gcc-arm-none-eabi-6-2017-q2-update/arm-none-eabi/include/c++/6.3.1/bits/basic_ios.h ****  */
  29:/home/zkmike/.local/share/renesas/e2_studio/toolchains/gcc_arm/gcc-arm-none-eabi-6-2017-q2-update/arm-none-eabi/include/c++/6.3.1/bits/basic_ios.h **** 
  30:/home/zkmike/.local/share/renesas/e2_studio/toolchains/gcc_arm/gcc-arm-none-eabi-6-2017-q2-update/arm-none-eabi/include/c++/6.3.1/bits/basic_ios.h **** #ifndef _BASIC_IOS_H
  31:/home/zkmike/.local/share/renesas/e2_studio/toolchains/gcc_arm/gcc-arm-none-eabi-6-2017-q2-update/arm-none-eabi/include/c++/6.3.1/bits/basic_ios.h **** #define _BASIC_IOS_H 1
  32:/home/zkmike/.local/share/renesas/e2_studio/toolchains/gcc_arm/gcc-arm-none-eabi-6-2017-q2-update/arm-none-eabi/include/c++/6.3.1/bits/basic_ios.h **** 
  33:/home/zkmike/.local/share/renesas/e2_studio/toolchains/gcc_arm/gcc-arm-none-eabi-6-2017-q2-update/arm-none-eabi/include/c++/6.3.1/bits/basic_ios.h **** #pragma GCC system_header
  34:/home/zkmike/.local/share/renesas/e2_studio/toolchains/gcc_arm/gcc-arm-none-eabi-6-2017-q2-update/arm-none-eabi/include/c++/6.3.1/bits/basic_ios.h **** 
  35:/home/zkmike/.local/share/renesas/e2_studio/toolchains/gcc_arm/gcc-arm-none-eabi-6-2017-q2-update/arm-none-eabi/include/c++/6.3.1/bits/basic_ios.h **** #include <bits/localefwd.h>
  36:/home/zkmike/.local/share/renesas/e2_studio/toolchains/gcc_arm/gcc-arm-none-eabi-6-2017-q2-update/arm-none-eabi/include/c++/6.3.1/bits/basic_ios.h **** #include <bits/locale_classes.h>
  37:/home/zkmike/.local/share/renesas/e2_studio/toolchains/gcc_arm/gcc-arm-none-eabi-6-2017-q2-update/arm-none-eabi/include/c++/6.3.1/bits/basic_ios.h **** #include <bits/locale_facets.h>
  38:/home/zkmike/.local/share/renesas/e2_studio/toolchains/gcc_arm/gcc-arm-none-eabi-6-2017-q2-update/arm-none-eabi/include/c++/6.3.1/bits/basic_ios.h **** #include <bits/streambuf_iterator.h>
  39:/home/zkmike/.local/share/renesas/e2_studio/toolchains/gcc_arm/gcc-arm-none-eabi-6-2017-q2-update/arm-none-eabi/include/c++/6.3.1/bits/basic_ios.h **** #include <bits/move.h>
  40:/home/zkmike/.local/share/renesas/e2_studio/toolchains/gcc_arm/gcc-arm-none-eabi-6-2017-q2-update/arm-none-eabi/include/c++/6.3.1/bits/basic_ios.h **** 
  41:/home/zkmike/.local/share/renesas/e2_studio/toolchains/gcc_arm/gcc-arm-none-eabi-6-2017-q2-update/arm-none-eabi/include/c++/6.3.1/bits/basic_ios.h **** namespace std _GLIBCXX_VISIBILITY(default)
  42:/home/zkmike/.local/share/renesas/e2_studio/toolchains/gcc_arm/gcc-arm-none-eabi-6-2017-q2-update/arm-none-eabi/include/c++/6.3.1/bits/basic_ios.h **** {
  43:/home/zkmike/.local/share/renesas/e2_studio/toolchains/gcc_arm/gcc-arm-none-eabi-6-2017-q2-update/arm-none-eabi/include/c++/6.3.1/bits/basic_ios.h **** _GLIBCXX_BEGIN_NAMESPACE_VERSION
  44:/home/zkmike/.local/share/renesas/e2_studio/toolchains/gcc_arm/gcc-arm-none-eabi-6-2017-q2-update/arm-none-eabi/include/c++/6.3.1/bits/basic_ios.h **** 
  45:/home/zkmike/.local/share/renesas/e2_studio/toolchains/gcc_arm/gcc-arm-none-eabi-6-2017-q2-update/arm-none-eabi/include/c++/6.3.1/bits/basic_ios.h ****   template<typename _Facet>
  46:/home/zkmike/.local/share/renesas/e2_studio/toolchains/gcc_arm/gcc-arm-none-eabi-6-2017-q2-update/arm-none-eabi/include/c++/6.3.1/bits/basic_ios.h ****     inline const _Facet&
  47:/home/zkmike/.local/share/renesas/e2_studio/toolchains/gcc_arm/gcc-arm-none-eabi-6-2017-q2-update/arm-none-eabi/include/c++/6.3.1/bits/basic_ios.h ****     __check_facet(const _Facet* __f)
  48:/home/zkmike/.local/share/renesas/e2_studio/toolchains/gcc_arm/gcc-arm-none-eabi-6-2017-q2-update/arm-none-eabi/include/c++/6.3.1/bits/basic_ios.h ****     {
  49:/home/zkmike/.local/share/renesas/e2_studio/toolchains/gcc_arm/gcc-arm-none-eabi-6-2017-q2-update/arm-none-eabi/include/c++/6.3.1/bits/basic_ios.h ****       if (!__f)
  50:/home/zkmike/.local/share/renesas/e2_studio/toolchains/gcc_arm/gcc-arm-none-eabi-6-2017-q2-update/arm-none-eabi/include/c++/6.3.1/bits/basic_ios.h **** 	__throw_bad_cast();
  51:/home/zkmike/.local/share/renesas/e2_studio/toolchains/gcc_arm/gcc-arm-none-eabi-6-2017-q2-update/arm-none-eabi/include/c++/6.3.1/bits/basic_ios.h ****       return *__f;
  52:/home/zkmike/.local/share/renesas/e2_studio/toolchains/gcc_arm/gcc-arm-none-eabi-6-2017-q2-update/arm-none-eabi/include/c++/6.3.1/bits/basic_ios.h ****     }
  53:/home/zkmike/.local/share/renesas/e2_studio/toolchains/gcc_arm/gcc-arm-none-eabi-6-2017-q2-update/arm-none-eabi/include/c++/6.3.1/bits/basic_ios.h **** 
  54:/home/zkmike/.local/share/renesas/e2_studio/toolchains/gcc_arm/gcc-arm-none-eabi-6-2017-q2-update/arm-none-eabi/include/c++/6.3.1/bits/basic_ios.h ****   /**
  55:/home/zkmike/.local/share/renesas/e2_studio/toolchains/gcc_arm/gcc-arm-none-eabi-6-2017-q2-update/arm-none-eabi/include/c++/6.3.1/bits/basic_ios.h ****    *  @brief Template class basic_ios, virtual base class for all
  56:/home/zkmike/.local/share/renesas/e2_studio/toolchains/gcc_arm/gcc-arm-none-eabi-6-2017-q2-update/arm-none-eabi/include/c++/6.3.1/bits/basic_ios.h ****    *  stream classes. 
  57:/home/zkmike/.local/share/renesas/e2_studio/toolchains/gcc_arm/gcc-arm-none-eabi-6-2017-q2-update/arm-none-eabi/include/c++/6.3.1/bits/basic_ios.h ****    *  @ingroup io
  58:/home/zkmike/.local/share/renesas/e2_studio/toolchains/gcc_arm/gcc-arm-none-eabi-6-2017-q2-update/arm-none-eabi/include/c++/6.3.1/bits/basic_ios.h ****    *
  59:/home/zkmike/.local/share/renesas/e2_studio/toolchains/gcc_arm/gcc-arm-none-eabi-6-2017-q2-update/arm-none-eabi/include/c++/6.3.1/bits/basic_ios.h ****    *  @tparam _CharT  Type of character stream.
  60:/home/zkmike/.local/share/renesas/e2_studio/toolchains/gcc_arm/gcc-arm-none-eabi-6-2017-q2-update/arm-none-eabi/include/c++/6.3.1/bits/basic_ios.h ****    *  @tparam _Traits  Traits for character type, defaults to
  61:/home/zkmike/.local/share/renesas/e2_studio/toolchains/gcc_arm/gcc-arm-none-eabi-6-2017-q2-update/arm-none-eabi/include/c++/6.3.1/bits/basic_ios.h ****    *                   char_traits<_CharT>.
  62:/home/zkmike/.local/share/renesas/e2_studio/toolchains/gcc_arm/gcc-arm-none-eabi-6-2017-q2-update/arm-none-eabi/include/c++/6.3.1/bits/basic_ios.h ****    *
  63:/home/zkmike/.local/share/renesas/e2_studio/toolchains/gcc_arm/gcc-arm-none-eabi-6-2017-q2-update/arm-none-eabi/include/c++/6.3.1/bits/basic_ios.h ****    *  Most of the member functions called dispatched on stream objects
  64:/home/zkmike/.local/share/renesas/e2_studio/toolchains/gcc_arm/gcc-arm-none-eabi-6-2017-q2-update/arm-none-eabi/include/c++/6.3.1/bits/basic_ios.h ****    *  (e.g., @c std::cout.foo(bar);) are consolidated in this class.
  65:/home/zkmike/.local/share/renesas/e2_studio/toolchains/gcc_arm/gcc-arm-none-eabi-6-2017-q2-update/arm-none-eabi/include/c++/6.3.1/bits/basic_ios.h ****   */
  66:/home/zkmike/.local/share/renesas/e2_studio/toolchains/gcc_arm/gcc-arm-none-eabi-6-2017-q2-update/arm-none-eabi/include/c++/6.3.1/bits/basic_ios.h ****   template<typename _CharT, typename _Traits>
  67:/home/zkmike/.local/share/renesas/e2_studio/toolchains/gcc_arm/gcc-arm-none-eabi-6-2017-q2-update/arm-none-eabi/include/c++/6.3.1/bits/basic_ios.h ****     class basic_ios : public ios_base
  68:/home/zkmike/.local/share/renesas/e2_studio/toolchains/gcc_arm/gcc-arm-none-eabi-6-2017-q2-update/arm-none-eabi/include/c++/6.3.1/bits/basic_ios.h ****     {
  69:/home/zkmike/.local/share/renesas/e2_studio/toolchains/gcc_arm/gcc-arm-none-eabi-6-2017-q2-update/arm-none-eabi/include/c++/6.3.1/bits/basic_ios.h ****     public:
  70:/home/zkmike/.local/share/renesas/e2_studio/toolchains/gcc_arm/gcc-arm-none-eabi-6-2017-q2-update/arm-none-eabi/include/c++/6.3.1/bits/basic_ios.h ****       //@{
  71:/home/zkmike/.local/share/renesas/e2_studio/toolchains/gcc_arm/gcc-arm-none-eabi-6-2017-q2-update/arm-none-eabi/include/c++/6.3.1/bits/basic_ios.h ****       /**
  72:/home/zkmike/.local/share/renesas/e2_studio/toolchains/gcc_arm/gcc-arm-none-eabi-6-2017-q2-update/arm-none-eabi/include/c++/6.3.1/bits/basic_ios.h ****        *  These are standard types.  They permit a standardized way of
  73:/home/zkmike/.local/share/renesas/e2_studio/toolchains/gcc_arm/gcc-arm-none-eabi-6-2017-q2-update/arm-none-eabi/include/c++/6.3.1/bits/basic_ios.h ****        *  referring to names of (or names dependent on) the template
  74:/home/zkmike/.local/share/renesas/e2_studio/toolchains/gcc_arm/gcc-arm-none-eabi-6-2017-q2-update/arm-none-eabi/include/c++/6.3.1/bits/basic_ios.h ****        *  parameters, which are specific to the implementation.
  75:/home/zkmike/.local/share/renesas/e2_studio/toolchains/gcc_arm/gcc-arm-none-eabi-6-2017-q2-update/arm-none-eabi/include/c++/6.3.1/bits/basic_ios.h ****       */
  76:/home/zkmike/.local/share/renesas/e2_studio/toolchains/gcc_arm/gcc-arm-none-eabi-6-2017-q2-update/arm-none-eabi/include/c++/6.3.1/bits/basic_ios.h ****       typedef _CharT                                 char_type;
  77:/home/zkmike/.local/share/renesas/e2_studio/toolchains/gcc_arm/gcc-arm-none-eabi-6-2017-q2-update/arm-none-eabi/include/c++/6.3.1/bits/basic_ios.h ****       typedef typename _Traits::int_type             int_type;
  78:/home/zkmike/.local/share/renesas/e2_studio/toolchains/gcc_arm/gcc-arm-none-eabi-6-2017-q2-update/arm-none-eabi/include/c++/6.3.1/bits/basic_ios.h ****       typedef typename _Traits::pos_type             pos_type;
  79:/home/zkmike/.local/share/renesas/e2_studio/toolchains/gcc_arm/gcc-arm-none-eabi-6-2017-q2-update/arm-none-eabi/include/c++/6.3.1/bits/basic_ios.h ****       typedef typename _Traits::off_type             off_type;
  80:/home/zkmike/.local/share/renesas/e2_studio/toolchains/gcc_arm/gcc-arm-none-eabi-6-2017-q2-update/arm-none-eabi/include/c++/6.3.1/bits/basic_ios.h ****       typedef _Traits                                traits_type;
  81:/home/zkmike/.local/share/renesas/e2_studio/toolchains/gcc_arm/gcc-arm-none-eabi-6-2017-q2-update/arm-none-eabi/include/c++/6.3.1/bits/basic_ios.h ****       //@}
  82:/home/zkmike/.local/share/renesas/e2_studio/toolchains/gcc_arm/gcc-arm-none-eabi-6-2017-q2-update/arm-none-eabi/include/c++/6.3.1/bits/basic_ios.h **** 
  83:/home/zkmike/.local/share/renesas/e2_studio/toolchains/gcc_arm/gcc-arm-none-eabi-6-2017-q2-update/arm-none-eabi/include/c++/6.3.1/bits/basic_ios.h ****       //@{
  84:/home/zkmike/.local/share/renesas/e2_studio/toolchains/gcc_arm/gcc-arm-none-eabi-6-2017-q2-update/arm-none-eabi/include/c++/6.3.1/bits/basic_ios.h ****       /**
  85:/home/zkmike/.local/share/renesas/e2_studio/toolchains/gcc_arm/gcc-arm-none-eabi-6-2017-q2-update/arm-none-eabi/include/c++/6.3.1/bits/basic_ios.h ****        *  These are non-standard types.
  86:/home/zkmike/.local/share/renesas/e2_studio/toolchains/gcc_arm/gcc-arm-none-eabi-6-2017-q2-update/arm-none-eabi/include/c++/6.3.1/bits/basic_ios.h ****       */
  87:/home/zkmike/.local/share/renesas/e2_studio/toolchains/gcc_arm/gcc-arm-none-eabi-6-2017-q2-update/arm-none-eabi/include/c++/6.3.1/bits/basic_ios.h ****       typedef ctype<_CharT>                          __ctype_type;
  88:/home/zkmike/.local/share/renesas/e2_studio/toolchains/gcc_arm/gcc-arm-none-eabi-6-2017-q2-update/arm-none-eabi/include/c++/6.3.1/bits/basic_ios.h ****       typedef num_put<_CharT, ostreambuf_iterator<_CharT, _Traits> >
  89:/home/zkmike/.local/share/renesas/e2_studio/toolchains/gcc_arm/gcc-arm-none-eabi-6-2017-q2-update/arm-none-eabi/include/c++/6.3.1/bits/basic_ios.h **** 						     __num_put_type;
  90:/home/zkmike/.local/share/renesas/e2_studio/toolchains/gcc_arm/gcc-arm-none-eabi-6-2017-q2-update/arm-none-eabi/include/c++/6.3.1/bits/basic_ios.h ****       typedef num_get<_CharT, istreambuf_iterator<_CharT, _Traits> >
  91:/home/zkmike/.local/share/renesas/e2_studio/toolchains/gcc_arm/gcc-arm-none-eabi-6-2017-q2-update/arm-none-eabi/include/c++/6.3.1/bits/basic_ios.h **** 						     __num_get_type;
  92:/home/zkmike/.local/share/renesas/e2_studio/toolchains/gcc_arm/gcc-arm-none-eabi-6-2017-q2-update/arm-none-eabi/include/c++/6.3.1/bits/basic_ios.h ****       //@}
  93:/home/zkmike/.local/share/renesas/e2_studio/toolchains/gcc_arm/gcc-arm-none-eabi-6-2017-q2-update/arm-none-eabi/include/c++/6.3.1/bits/basic_ios.h **** 
  94:/home/zkmike/.local/share/renesas/e2_studio/toolchains/gcc_arm/gcc-arm-none-eabi-6-2017-q2-update/arm-none-eabi/include/c++/6.3.1/bits/basic_ios.h ****       // Data members:
  95:/home/zkmike/.local/share/renesas/e2_studio/toolchains/gcc_arm/gcc-arm-none-eabi-6-2017-q2-update/arm-none-eabi/include/c++/6.3.1/bits/basic_ios.h ****     protected:
  96:/home/zkmike/.local/share/renesas/e2_studio/toolchains/gcc_arm/gcc-arm-none-eabi-6-2017-q2-update/arm-none-eabi/include/c++/6.3.1/bits/basic_ios.h ****       basic_ostream<_CharT, _Traits>*                _M_tie;
  97:/home/zkmike/.local/share/renesas/e2_studio/toolchains/gcc_arm/gcc-arm-none-eabi-6-2017-q2-update/arm-none-eabi/include/c++/6.3.1/bits/basic_ios.h ****       mutable char_type                              _M_fill;
  98:/home/zkmike/.local/share/renesas/e2_studio/toolchains/gcc_arm/gcc-arm-none-eabi-6-2017-q2-update/arm-none-eabi/include/c++/6.3.1/bits/basic_ios.h ****       mutable bool                                   _M_fill_init;
  99:/home/zkmike/.local/share/renesas/e2_studio/toolchains/gcc_arm/gcc-arm-none-eabi-6-2017-q2-update/arm-none-eabi/include/c++/6.3.1/bits/basic_ios.h ****       basic_streambuf<_CharT, _Traits>*              _M_streambuf;
 100:/home/zkmike/.local/share/renesas/e2_studio/toolchains/gcc_arm/gcc-arm-none-eabi-6-2017-q2-update/arm-none-eabi/include/c++/6.3.1/bits/basic_ios.h **** 
 101:/home/zkmike/.local/share/renesas/e2_studio/toolchains/gcc_arm/gcc-arm-none-eabi-6-2017-q2-update/arm-none-eabi/include/c++/6.3.1/bits/basic_ios.h ****       // Cached use_facet<ctype>, which is based on the current locale info.
 102:/home/zkmike/.local/share/renesas/e2_studio/toolchains/gcc_arm/gcc-arm-none-eabi-6-2017-q2-update/arm-none-eabi/include/c++/6.3.1/bits/basic_ios.h ****       const __ctype_type*                            _M_ctype;
 103:/home/zkmike/.local/share/renesas/e2_studio/toolchains/gcc_arm/gcc-arm-none-eabi-6-2017-q2-update/arm-none-eabi/include/c++/6.3.1/bits/basic_ios.h ****       // For ostream.
 104:/home/zkmike/.local/share/renesas/e2_studio/toolchains/gcc_arm/gcc-arm-none-eabi-6-2017-q2-update/arm-none-eabi/include/c++/6.3.1/bits/basic_ios.h ****       const __num_put_type*                          _M_num_put;
 105:/home/zkmike/.local/share/renesas/e2_studio/toolchains/gcc_arm/gcc-arm-none-eabi-6-2017-q2-update/arm-none-eabi/include/c++/6.3.1/bits/basic_ios.h ****       // For istream.
 106:/home/zkmike/.local/share/renesas/e2_studio/toolchains/gcc_arm/gcc-arm-none-eabi-6-2017-q2-update/arm-none-eabi/include/c++/6.3.1/bits/basic_ios.h ****       const __num_get_type*                          _M_num_get;
 107:/home/zkmike/.local/share/renesas/e2_studio/toolchains/gcc_arm/gcc-arm-none-eabi-6-2017-q2-update/arm-none-eabi/include/c++/6.3.1/bits/basic_ios.h **** 
 108:/home/zkmike/.local/share/renesas/e2_studio/toolchains/gcc_arm/gcc-arm-none-eabi-6-2017-q2-update/arm-none-eabi/include/c++/6.3.1/bits/basic_ios.h ****     public:
 109:/home/zkmike/.local/share/renesas/e2_studio/toolchains/gcc_arm/gcc-arm-none-eabi-6-2017-q2-update/arm-none-eabi/include/c++/6.3.1/bits/basic_ios.h ****       //@{
 110:/home/zkmike/.local/share/renesas/e2_studio/toolchains/gcc_arm/gcc-arm-none-eabi-6-2017-q2-update/arm-none-eabi/include/c++/6.3.1/bits/basic_ios.h ****       /**
 111:/home/zkmike/.local/share/renesas/e2_studio/toolchains/gcc_arm/gcc-arm-none-eabi-6-2017-q2-update/arm-none-eabi/include/c++/6.3.1/bits/basic_ios.h ****        *  @brief  The quick-and-easy status check.
 112:/home/zkmike/.local/share/renesas/e2_studio/toolchains/gcc_arm/gcc-arm-none-eabi-6-2017-q2-update/arm-none-eabi/include/c++/6.3.1/bits/basic_ios.h ****        *
 113:/home/zkmike/.local/share/renesas/e2_studio/toolchains/gcc_arm/gcc-arm-none-eabi-6-2017-q2-update/arm-none-eabi/include/c++/6.3.1/bits/basic_ios.h ****        *  This allows you to write constructs such as
 114:/home/zkmike/.local/share/renesas/e2_studio/toolchains/gcc_arm/gcc-arm-none-eabi-6-2017-q2-update/arm-none-eabi/include/c++/6.3.1/bits/basic_ios.h ****        *  <code>if (!a_stream) ...</code> and <code>while (a_stream) ...</code>
 115:/home/zkmike/.local/share/renesas/e2_studio/toolchains/gcc_arm/gcc-arm-none-eabi-6-2017-q2-update/arm-none-eabi/include/c++/6.3.1/bits/basic_ios.h ****       */
 116:/home/zkmike/.local/share/renesas/e2_studio/toolchains/gcc_arm/gcc-arm-none-eabi-6-2017-q2-update/arm-none-eabi/include/c++/6.3.1/bits/basic_ios.h **** #if __cplusplus >= 201103L
 117:/home/zkmike/.local/share/renesas/e2_studio/toolchains/gcc_arm/gcc-arm-none-eabi-6-2017-q2-update/arm-none-eabi/include/c++/6.3.1/bits/basic_ios.h ****       explicit operator bool() const
 118:/home/zkmike/.local/share/renesas/e2_studio/toolchains/gcc_arm/gcc-arm-none-eabi-6-2017-q2-update/arm-none-eabi/include/c++/6.3.1/bits/basic_ios.h ****       { return !this->fail(); }
 119:/home/zkmike/.local/share/renesas/e2_studio/toolchains/gcc_arm/gcc-arm-none-eabi-6-2017-q2-update/arm-none-eabi/include/c++/6.3.1/bits/basic_ios.h **** #else
 120:/home/zkmike/.local/share/renesas/e2_studio/toolchains/gcc_arm/gcc-arm-none-eabi-6-2017-q2-update/arm-none-eabi/include/c++/6.3.1/bits/basic_ios.h ****       operator void*() const
 121:/home/zkmike/.local/share/renesas/e2_studio/toolchains/gcc_arm/gcc-arm-none-eabi-6-2017-q2-update/arm-none-eabi/include/c++/6.3.1/bits/basic_ios.h ****       { return this->fail() ? 0 : const_cast<basic_ios*>(this); }
 122:/home/zkmike/.local/share/renesas/e2_studio/toolchains/gcc_arm/gcc-arm-none-eabi-6-2017-q2-update/arm-none-eabi/include/c++/6.3.1/bits/basic_ios.h **** #endif
 123:/home/zkmike/.local/share/renesas/e2_studio/toolchains/gcc_arm/gcc-arm-none-eabi-6-2017-q2-update/arm-none-eabi/include/c++/6.3.1/bits/basic_ios.h **** 
 124:/home/zkmike/.local/share/renesas/e2_studio/toolchains/gcc_arm/gcc-arm-none-eabi-6-2017-q2-update/arm-none-eabi/include/c++/6.3.1/bits/basic_ios.h ****       bool
 125:/home/zkmike/.local/share/renesas/e2_studio/toolchains/gcc_arm/gcc-arm-none-eabi-6-2017-q2-update/arm-none-eabi/include/c++/6.3.1/bits/basic_ios.h ****       operator!() const
 126:/home/zkmike/.local/share/renesas/e2_studio/toolchains/gcc_arm/gcc-arm-none-eabi-6-2017-q2-update/arm-none-eabi/include/c++/6.3.1/bits/basic_ios.h ****       { return this->fail(); }
 127:/home/zkmike/.local/share/renesas/e2_studio/toolchains/gcc_arm/gcc-arm-none-eabi-6-2017-q2-update/arm-none-eabi/include/c++/6.3.1/bits/basic_ios.h ****       //@}
 128:/home/zkmike/.local/share/renesas/e2_studio/toolchains/gcc_arm/gcc-arm-none-eabi-6-2017-q2-update/arm-none-eabi/include/c++/6.3.1/bits/basic_ios.h **** 
 129:/home/zkmike/.local/share/renesas/e2_studio/toolchains/gcc_arm/gcc-arm-none-eabi-6-2017-q2-update/arm-none-eabi/include/c++/6.3.1/bits/basic_ios.h ****       /**
 130:/home/zkmike/.local/share/renesas/e2_studio/toolchains/gcc_arm/gcc-arm-none-eabi-6-2017-q2-update/arm-none-eabi/include/c++/6.3.1/bits/basic_ios.h ****        *  @brief  Returns the error state of the stream buffer.
 131:/home/zkmike/.local/share/renesas/e2_studio/toolchains/gcc_arm/gcc-arm-none-eabi-6-2017-q2-update/arm-none-eabi/include/c++/6.3.1/bits/basic_ios.h ****        *  @return  A bit pattern (well, isn't everything?)
 132:/home/zkmike/.local/share/renesas/e2_studio/toolchains/gcc_arm/gcc-arm-none-eabi-6-2017-q2-update/arm-none-eabi/include/c++/6.3.1/bits/basic_ios.h ****        *
 133:/home/zkmike/.local/share/renesas/e2_studio/toolchains/gcc_arm/gcc-arm-none-eabi-6-2017-q2-update/arm-none-eabi/include/c++/6.3.1/bits/basic_ios.h ****        *  See std::ios_base::iostate for the possible bit values.  Most
 134:/home/zkmike/.local/share/renesas/e2_studio/toolchains/gcc_arm/gcc-arm-none-eabi-6-2017-q2-update/arm-none-eabi/include/c++/6.3.1/bits/basic_ios.h ****        *  users will call one of the interpreting wrappers, e.g., good().
 135:/home/zkmike/.local/share/renesas/e2_studio/toolchains/gcc_arm/gcc-arm-none-eabi-6-2017-q2-update/arm-none-eabi/include/c++/6.3.1/bits/basic_ios.h ****       */
 136:/home/zkmike/.local/share/renesas/e2_studio/toolchains/gcc_arm/gcc-arm-none-eabi-6-2017-q2-update/arm-none-eabi/include/c++/6.3.1/bits/basic_ios.h ****       iostate
 137:/home/zkmike/.local/share/renesas/e2_studio/toolchains/gcc_arm/gcc-arm-none-eabi-6-2017-q2-update/arm-none-eabi/include/c++/6.3.1/bits/basic_ios.h ****       rdstate() const
 138:/home/zkmike/.local/share/renesas/e2_studio/toolchains/gcc_arm/gcc-arm-none-eabi-6-2017-q2-update/arm-none-eabi/include/c++/6.3.1/bits/basic_ios.h ****       { return _M_streambuf_state; }
 139:/home/zkmike/.local/share/renesas/e2_studio/toolchains/gcc_arm/gcc-arm-none-eabi-6-2017-q2-update/arm-none-eabi/include/c++/6.3.1/bits/basic_ios.h **** 
 140:/home/zkmike/.local/share/renesas/e2_studio/toolchains/gcc_arm/gcc-arm-none-eabi-6-2017-q2-update/arm-none-eabi/include/c++/6.3.1/bits/basic_ios.h ****       /**
 141:/home/zkmike/.local/share/renesas/e2_studio/toolchains/gcc_arm/gcc-arm-none-eabi-6-2017-q2-update/arm-none-eabi/include/c++/6.3.1/bits/basic_ios.h ****        *  @brief  [Re]sets the error state.
 142:/home/zkmike/.local/share/renesas/e2_studio/toolchains/gcc_arm/gcc-arm-none-eabi-6-2017-q2-update/arm-none-eabi/include/c++/6.3.1/bits/basic_ios.h ****        *  @param  __state  The new state flag(s) to set.
 143:/home/zkmike/.local/share/renesas/e2_studio/toolchains/gcc_arm/gcc-arm-none-eabi-6-2017-q2-update/arm-none-eabi/include/c++/6.3.1/bits/basic_ios.h ****        *
 144:/home/zkmike/.local/share/renesas/e2_studio/toolchains/gcc_arm/gcc-arm-none-eabi-6-2017-q2-update/arm-none-eabi/include/c++/6.3.1/bits/basic_ios.h ****        *  See std::ios_base::iostate for the possible bit values.  Most
 145:/home/zkmike/.local/share/renesas/e2_studio/toolchains/gcc_arm/gcc-arm-none-eabi-6-2017-q2-update/arm-none-eabi/include/c++/6.3.1/bits/basic_ios.h ****        *  users will not need to pass an argument.
 146:/home/zkmike/.local/share/renesas/e2_studio/toolchains/gcc_arm/gcc-arm-none-eabi-6-2017-q2-update/arm-none-eabi/include/c++/6.3.1/bits/basic_ios.h ****       */
 147:/home/zkmike/.local/share/renesas/e2_studio/toolchains/gcc_arm/gcc-arm-none-eabi-6-2017-q2-update/arm-none-eabi/include/c++/6.3.1/bits/basic_ios.h ****       void
 148:/home/zkmike/.local/share/renesas/e2_studio/toolchains/gcc_arm/gcc-arm-none-eabi-6-2017-q2-update/arm-none-eabi/include/c++/6.3.1/bits/basic_ios.h ****       clear(iostate __state = goodbit);
 149:/home/zkmike/.local/share/renesas/e2_studio/toolchains/gcc_arm/gcc-arm-none-eabi-6-2017-q2-update/arm-none-eabi/include/c++/6.3.1/bits/basic_ios.h **** 
 150:/home/zkmike/.local/share/renesas/e2_studio/toolchains/gcc_arm/gcc-arm-none-eabi-6-2017-q2-update/arm-none-eabi/include/c++/6.3.1/bits/basic_ios.h ****       /**
 151:/home/zkmike/.local/share/renesas/e2_studio/toolchains/gcc_arm/gcc-arm-none-eabi-6-2017-q2-update/arm-none-eabi/include/c++/6.3.1/bits/basic_ios.h ****        *  @brief  Sets additional flags in the error state.
 152:/home/zkmike/.local/share/renesas/e2_studio/toolchains/gcc_arm/gcc-arm-none-eabi-6-2017-q2-update/arm-none-eabi/include/c++/6.3.1/bits/basic_ios.h ****        *  @param  __state  The additional state flag(s) to set.
 153:/home/zkmike/.local/share/renesas/e2_studio/toolchains/gcc_arm/gcc-arm-none-eabi-6-2017-q2-update/arm-none-eabi/include/c++/6.3.1/bits/basic_ios.h ****        *
 154:/home/zkmike/.local/share/renesas/e2_studio/toolchains/gcc_arm/gcc-arm-none-eabi-6-2017-q2-update/arm-none-eabi/include/c++/6.3.1/bits/basic_ios.h ****        *  See std::ios_base::iostate for the possible bit values.
 155:/home/zkmike/.local/share/renesas/e2_studio/toolchains/gcc_arm/gcc-arm-none-eabi-6-2017-q2-update/arm-none-eabi/include/c++/6.3.1/bits/basic_ios.h ****       */
 156:/home/zkmike/.local/share/renesas/e2_studio/toolchains/gcc_arm/gcc-arm-none-eabi-6-2017-q2-update/arm-none-eabi/include/c++/6.3.1/bits/basic_ios.h ****       void
 157:/home/zkmike/.local/share/renesas/e2_studio/toolchains/gcc_arm/gcc-arm-none-eabi-6-2017-q2-update/arm-none-eabi/include/c++/6.3.1/bits/basic_ios.h ****       setstate(iostate __state)
 158:/home/zkmike/.local/share/renesas/e2_studio/toolchains/gcc_arm/gcc-arm-none-eabi-6-2017-q2-update/arm-none-eabi/include/c++/6.3.1/bits/basic_ios.h ****       { this->clear(this->rdstate() | __state); }
 159:/home/zkmike/.local/share/renesas/e2_studio/toolchains/gcc_arm/gcc-arm-none-eabi-6-2017-q2-update/arm-none-eabi/include/c++/6.3.1/bits/basic_ios.h **** 
 160:/home/zkmike/.local/share/renesas/e2_studio/toolchains/gcc_arm/gcc-arm-none-eabi-6-2017-q2-update/arm-none-eabi/include/c++/6.3.1/bits/basic_ios.h ****       // Flip the internal state on for the proper state bits, then re
 161:/home/zkmike/.local/share/renesas/e2_studio/toolchains/gcc_arm/gcc-arm-none-eabi-6-2017-q2-update/arm-none-eabi/include/c++/6.3.1/bits/basic_ios.h ****       // throws the propagated exception if bit also set in
 162:/home/zkmike/.local/share/renesas/e2_studio/toolchains/gcc_arm/gcc-arm-none-eabi-6-2017-q2-update/arm-none-eabi/include/c++/6.3.1/bits/basic_ios.h ****       // exceptions().
 163:/home/zkmike/.local/share/renesas/e2_studio/toolchains/gcc_arm/gcc-arm-none-eabi-6-2017-q2-update/arm-none-eabi/include/c++/6.3.1/bits/basic_ios.h ****       void
 164:/home/zkmike/.local/share/renesas/e2_studio/toolchains/gcc_arm/gcc-arm-none-eabi-6-2017-q2-update/arm-none-eabi/include/c++/6.3.1/bits/basic_ios.h ****       _M_setstate(iostate __state)
 165:/home/zkmike/.local/share/renesas/e2_studio/toolchains/gcc_arm/gcc-arm-none-eabi-6-2017-q2-update/arm-none-eabi/include/c++/6.3.1/bits/basic_ios.h ****       {
 166:/home/zkmike/.local/share/renesas/e2_studio/toolchains/gcc_arm/gcc-arm-none-eabi-6-2017-q2-update/arm-none-eabi/include/c++/6.3.1/bits/basic_ios.h **** 	// 27.6.1.2.1 Common requirements.
 167:/home/zkmike/.local/share/renesas/e2_studio/toolchains/gcc_arm/gcc-arm-none-eabi-6-2017-q2-update/arm-none-eabi/include/c++/6.3.1/bits/basic_ios.h **** 	// Turn this on without causing an ios::failure to be thrown.
 168:/home/zkmike/.local/share/renesas/e2_studio/toolchains/gcc_arm/gcc-arm-none-eabi-6-2017-q2-update/arm-none-eabi/include/c++/6.3.1/bits/basic_ios.h **** 	_M_streambuf_state |= __state;
 169:/home/zkmike/.local/share/renesas/e2_studio/toolchains/gcc_arm/gcc-arm-none-eabi-6-2017-q2-update/arm-none-eabi/include/c++/6.3.1/bits/basic_ios.h **** 	if (this->exceptions() & __state)
 170:/home/zkmike/.local/share/renesas/e2_studio/toolchains/gcc_arm/gcc-arm-none-eabi-6-2017-q2-update/arm-none-eabi/include/c++/6.3.1/bits/basic_ios.h **** 	  __throw_exception_again;
 171:/home/zkmike/.local/share/renesas/e2_studio/toolchains/gcc_arm/gcc-arm-none-eabi-6-2017-q2-update/arm-none-eabi/include/c++/6.3.1/bits/basic_ios.h ****       }
 172:/home/zkmike/.local/share/renesas/e2_studio/toolchains/gcc_arm/gcc-arm-none-eabi-6-2017-q2-update/arm-none-eabi/include/c++/6.3.1/bits/basic_ios.h **** 
 173:/home/zkmike/.local/share/renesas/e2_studio/toolchains/gcc_arm/gcc-arm-none-eabi-6-2017-q2-update/arm-none-eabi/include/c++/6.3.1/bits/basic_ios.h ****       /**
 174:/home/zkmike/.local/share/renesas/e2_studio/toolchains/gcc_arm/gcc-arm-none-eabi-6-2017-q2-update/arm-none-eabi/include/c++/6.3.1/bits/basic_ios.h ****        *  @brief  Fast error checking.
 175:/home/zkmike/.local/share/renesas/e2_studio/toolchains/gcc_arm/gcc-arm-none-eabi-6-2017-q2-update/arm-none-eabi/include/c++/6.3.1/bits/basic_ios.h ****        *  @return  True if no error flags are set.
 176:/home/zkmike/.local/share/renesas/e2_studio/toolchains/gcc_arm/gcc-arm-none-eabi-6-2017-q2-update/arm-none-eabi/include/c++/6.3.1/bits/basic_ios.h ****        *
 177:/home/zkmike/.local/share/renesas/e2_studio/toolchains/gcc_arm/gcc-arm-none-eabi-6-2017-q2-update/arm-none-eabi/include/c++/6.3.1/bits/basic_ios.h ****        *  A wrapper around rdstate.
 178:/home/zkmike/.local/share/renesas/e2_studio/toolchains/gcc_arm/gcc-arm-none-eabi-6-2017-q2-update/arm-none-eabi/include/c++/6.3.1/bits/basic_ios.h ****       */
 179:/home/zkmike/.local/share/renesas/e2_studio/toolchains/gcc_arm/gcc-arm-none-eabi-6-2017-q2-update/arm-none-eabi/include/c++/6.3.1/bits/basic_ios.h ****       bool
 180:/home/zkmike/.local/share/renesas/e2_studio/toolchains/gcc_arm/gcc-arm-none-eabi-6-2017-q2-update/arm-none-eabi/include/c++/6.3.1/bits/basic_ios.h ****       good() const
 181:/home/zkmike/.local/share/renesas/e2_studio/toolchains/gcc_arm/gcc-arm-none-eabi-6-2017-q2-update/arm-none-eabi/include/c++/6.3.1/bits/basic_ios.h ****       { return this->rdstate() == 0; }
 182:/home/zkmike/.local/share/renesas/e2_studio/toolchains/gcc_arm/gcc-arm-none-eabi-6-2017-q2-update/arm-none-eabi/include/c++/6.3.1/bits/basic_ios.h **** 
 183:/home/zkmike/.local/share/renesas/e2_studio/toolchains/gcc_arm/gcc-arm-none-eabi-6-2017-q2-update/arm-none-eabi/include/c++/6.3.1/bits/basic_ios.h ****       /**
 184:/home/zkmike/.local/share/renesas/e2_studio/toolchains/gcc_arm/gcc-arm-none-eabi-6-2017-q2-update/arm-none-eabi/include/c++/6.3.1/bits/basic_ios.h ****        *  @brief  Fast error checking.
 185:/home/zkmike/.local/share/renesas/e2_studio/toolchains/gcc_arm/gcc-arm-none-eabi-6-2017-q2-update/arm-none-eabi/include/c++/6.3.1/bits/basic_ios.h ****        *  @return  True if the eofbit is set.
 186:/home/zkmike/.local/share/renesas/e2_studio/toolchains/gcc_arm/gcc-arm-none-eabi-6-2017-q2-update/arm-none-eabi/include/c++/6.3.1/bits/basic_ios.h ****        *
 187:/home/zkmike/.local/share/renesas/e2_studio/toolchains/gcc_arm/gcc-arm-none-eabi-6-2017-q2-update/arm-none-eabi/include/c++/6.3.1/bits/basic_ios.h ****        *  Note that other iostate flags may also be set.
 188:/home/zkmike/.local/share/renesas/e2_studio/toolchains/gcc_arm/gcc-arm-none-eabi-6-2017-q2-update/arm-none-eabi/include/c++/6.3.1/bits/basic_ios.h ****       */
 189:/home/zkmike/.local/share/renesas/e2_studio/toolchains/gcc_arm/gcc-arm-none-eabi-6-2017-q2-update/arm-none-eabi/include/c++/6.3.1/bits/basic_ios.h ****       bool
 190:/home/zkmike/.local/share/renesas/e2_studio/toolchains/gcc_arm/gcc-arm-none-eabi-6-2017-q2-update/arm-none-eabi/include/c++/6.3.1/bits/basic_ios.h ****       eof() const
 191:/home/zkmike/.local/share/renesas/e2_studio/toolchains/gcc_arm/gcc-arm-none-eabi-6-2017-q2-update/arm-none-eabi/include/c++/6.3.1/bits/basic_ios.h ****       { return (this->rdstate() & eofbit) != 0; }
 192:/home/zkmike/.local/share/renesas/e2_studio/toolchains/gcc_arm/gcc-arm-none-eabi-6-2017-q2-update/arm-none-eabi/include/c++/6.3.1/bits/basic_ios.h **** 
 193:/home/zkmike/.local/share/renesas/e2_studio/toolchains/gcc_arm/gcc-arm-none-eabi-6-2017-q2-update/arm-none-eabi/include/c++/6.3.1/bits/basic_ios.h ****       /**
 194:/home/zkmike/.local/share/renesas/e2_studio/toolchains/gcc_arm/gcc-arm-none-eabi-6-2017-q2-update/arm-none-eabi/include/c++/6.3.1/bits/basic_ios.h ****        *  @brief  Fast error checking.
 195:/home/zkmike/.local/share/renesas/e2_studio/toolchains/gcc_arm/gcc-arm-none-eabi-6-2017-q2-update/arm-none-eabi/include/c++/6.3.1/bits/basic_ios.h ****        *  @return  True if either the badbit or the failbit is set.
 196:/home/zkmike/.local/share/renesas/e2_studio/toolchains/gcc_arm/gcc-arm-none-eabi-6-2017-q2-update/arm-none-eabi/include/c++/6.3.1/bits/basic_ios.h ****        *
 197:/home/zkmike/.local/share/renesas/e2_studio/toolchains/gcc_arm/gcc-arm-none-eabi-6-2017-q2-update/arm-none-eabi/include/c++/6.3.1/bits/basic_ios.h ****        *  Checking the badbit in fail() is historical practice.
 198:/home/zkmike/.local/share/renesas/e2_studio/toolchains/gcc_arm/gcc-arm-none-eabi-6-2017-q2-update/arm-none-eabi/include/c++/6.3.1/bits/basic_ios.h ****        *  Note that other iostate flags may also be set.
 199:/home/zkmike/.local/share/renesas/e2_studio/toolchains/gcc_arm/gcc-arm-none-eabi-6-2017-q2-update/arm-none-eabi/include/c++/6.3.1/bits/basic_ios.h ****       */
 200:/home/zkmike/.local/share/renesas/e2_studio/toolchains/gcc_arm/gcc-arm-none-eabi-6-2017-q2-update/arm-none-eabi/include/c++/6.3.1/bits/basic_ios.h ****       bool
 201:/home/zkmike/.local/share/renesas/e2_studio/toolchains/gcc_arm/gcc-arm-none-eabi-6-2017-q2-update/arm-none-eabi/include/c++/6.3.1/bits/basic_ios.h ****       fail() const
 202:/home/zkmike/.local/share/renesas/e2_studio/toolchains/gcc_arm/gcc-arm-none-eabi-6-2017-q2-update/arm-none-eabi/include/c++/6.3.1/bits/basic_ios.h ****       { return (this->rdstate() & (badbit | failbit)) != 0; }
 203:/home/zkmike/.local/share/renesas/e2_studio/toolchains/gcc_arm/gcc-arm-none-eabi-6-2017-q2-update/arm-none-eabi/include/c++/6.3.1/bits/basic_ios.h **** 
 204:/home/zkmike/.local/share/renesas/e2_studio/toolchains/gcc_arm/gcc-arm-none-eabi-6-2017-q2-update/arm-none-eabi/include/c++/6.3.1/bits/basic_ios.h ****       /**
 205:/home/zkmike/.local/share/renesas/e2_studio/toolchains/gcc_arm/gcc-arm-none-eabi-6-2017-q2-update/arm-none-eabi/include/c++/6.3.1/bits/basic_ios.h ****        *  @brief  Fast error checking.
 206:/home/zkmike/.local/share/renesas/e2_studio/toolchains/gcc_arm/gcc-arm-none-eabi-6-2017-q2-update/arm-none-eabi/include/c++/6.3.1/bits/basic_ios.h ****        *  @return  True if the badbit is set.
 207:/home/zkmike/.local/share/renesas/e2_studio/toolchains/gcc_arm/gcc-arm-none-eabi-6-2017-q2-update/arm-none-eabi/include/c++/6.3.1/bits/basic_ios.h ****        *
 208:/home/zkmike/.local/share/renesas/e2_studio/toolchains/gcc_arm/gcc-arm-none-eabi-6-2017-q2-update/arm-none-eabi/include/c++/6.3.1/bits/basic_ios.h ****        *  Note that other iostate flags may also be set.
 209:/home/zkmike/.local/share/renesas/e2_studio/toolchains/gcc_arm/gcc-arm-none-eabi-6-2017-q2-update/arm-none-eabi/include/c++/6.3.1/bits/basic_ios.h ****       */
 210:/home/zkmike/.local/share/renesas/e2_studio/toolchains/gcc_arm/gcc-arm-none-eabi-6-2017-q2-update/arm-none-eabi/include/c++/6.3.1/bits/basic_ios.h ****       bool
 211:/home/zkmike/.local/share/renesas/e2_studio/toolchains/gcc_arm/gcc-arm-none-eabi-6-2017-q2-update/arm-none-eabi/include/c++/6.3.1/bits/basic_ios.h ****       bad() const
 212:/home/zkmike/.local/share/renesas/e2_studio/toolchains/gcc_arm/gcc-arm-none-eabi-6-2017-q2-update/arm-none-eabi/include/c++/6.3.1/bits/basic_ios.h ****       { return (this->rdstate() & badbit) != 0; }
 213:/home/zkmike/.local/share/renesas/e2_studio/toolchains/gcc_arm/gcc-arm-none-eabi-6-2017-q2-update/arm-none-eabi/include/c++/6.3.1/bits/basic_ios.h **** 
 214:/home/zkmike/.local/share/renesas/e2_studio/toolchains/gcc_arm/gcc-arm-none-eabi-6-2017-q2-update/arm-none-eabi/include/c++/6.3.1/bits/basic_ios.h ****       /**
 215:/home/zkmike/.local/share/renesas/e2_studio/toolchains/gcc_arm/gcc-arm-none-eabi-6-2017-q2-update/arm-none-eabi/include/c++/6.3.1/bits/basic_ios.h ****        *  @brief  Throwing exceptions on errors.
 216:/home/zkmike/.local/share/renesas/e2_studio/toolchains/gcc_arm/gcc-arm-none-eabi-6-2017-q2-update/arm-none-eabi/include/c++/6.3.1/bits/basic_ios.h ****        *  @return  The current exceptions mask.
 217:/home/zkmike/.local/share/renesas/e2_studio/toolchains/gcc_arm/gcc-arm-none-eabi-6-2017-q2-update/arm-none-eabi/include/c++/6.3.1/bits/basic_ios.h ****        *
 218:/home/zkmike/.local/share/renesas/e2_studio/toolchains/gcc_arm/gcc-arm-none-eabi-6-2017-q2-update/arm-none-eabi/include/c++/6.3.1/bits/basic_ios.h ****        *  This changes nothing in the stream.  See the one-argument version
 219:/home/zkmike/.local/share/renesas/e2_studio/toolchains/gcc_arm/gcc-arm-none-eabi-6-2017-q2-update/arm-none-eabi/include/c++/6.3.1/bits/basic_ios.h ****        *  of exceptions(iostate) for the meaning of the return value.
 220:/home/zkmike/.local/share/renesas/e2_studio/toolchains/gcc_arm/gcc-arm-none-eabi-6-2017-q2-update/arm-none-eabi/include/c++/6.3.1/bits/basic_ios.h ****       */
 221:/home/zkmike/.local/share/renesas/e2_studio/toolchains/gcc_arm/gcc-arm-none-eabi-6-2017-q2-update/arm-none-eabi/include/c++/6.3.1/bits/basic_ios.h ****       iostate
 222:/home/zkmike/.local/share/renesas/e2_studio/toolchains/gcc_arm/gcc-arm-none-eabi-6-2017-q2-update/arm-none-eabi/include/c++/6.3.1/bits/basic_ios.h ****       exceptions() const
 223:/home/zkmike/.local/share/renesas/e2_studio/toolchains/gcc_arm/gcc-arm-none-eabi-6-2017-q2-update/arm-none-eabi/include/c++/6.3.1/bits/basic_ios.h ****       { return _M_exception; }
 224:/home/zkmike/.local/share/renesas/e2_studio/toolchains/gcc_arm/gcc-arm-none-eabi-6-2017-q2-update/arm-none-eabi/include/c++/6.3.1/bits/basic_ios.h **** 
 225:/home/zkmike/.local/share/renesas/e2_studio/toolchains/gcc_arm/gcc-arm-none-eabi-6-2017-q2-update/arm-none-eabi/include/c++/6.3.1/bits/basic_ios.h ****       /**
 226:/home/zkmike/.local/share/renesas/e2_studio/toolchains/gcc_arm/gcc-arm-none-eabi-6-2017-q2-update/arm-none-eabi/include/c++/6.3.1/bits/basic_ios.h ****        *  @brief  Throwing exceptions on errors.
 227:/home/zkmike/.local/share/renesas/e2_studio/toolchains/gcc_arm/gcc-arm-none-eabi-6-2017-q2-update/arm-none-eabi/include/c++/6.3.1/bits/basic_ios.h ****        *  @param  __except  The new exceptions mask.
 228:/home/zkmike/.local/share/renesas/e2_studio/toolchains/gcc_arm/gcc-arm-none-eabi-6-2017-q2-update/arm-none-eabi/include/c++/6.3.1/bits/basic_ios.h ****        *
 229:/home/zkmike/.local/share/renesas/e2_studio/toolchains/gcc_arm/gcc-arm-none-eabi-6-2017-q2-update/arm-none-eabi/include/c++/6.3.1/bits/basic_ios.h ****        *  By default, error flags are set silently.  You can set an
 230:/home/zkmike/.local/share/renesas/e2_studio/toolchains/gcc_arm/gcc-arm-none-eabi-6-2017-q2-update/arm-none-eabi/include/c++/6.3.1/bits/basic_ios.h ****        *  exceptions mask for each stream; if a bit in the mask becomes set
 231:/home/zkmike/.local/share/renesas/e2_studio/toolchains/gcc_arm/gcc-arm-none-eabi-6-2017-q2-update/arm-none-eabi/include/c++/6.3.1/bits/basic_ios.h ****        *  in the error flags, then an exception of type
 232:/home/zkmike/.local/share/renesas/e2_studio/toolchains/gcc_arm/gcc-arm-none-eabi-6-2017-q2-update/arm-none-eabi/include/c++/6.3.1/bits/basic_ios.h ****        *  std::ios_base::failure is thrown.
 233:/home/zkmike/.local/share/renesas/e2_studio/toolchains/gcc_arm/gcc-arm-none-eabi-6-2017-q2-update/arm-none-eabi/include/c++/6.3.1/bits/basic_ios.h ****        *
 234:/home/zkmike/.local/share/renesas/e2_studio/toolchains/gcc_arm/gcc-arm-none-eabi-6-2017-q2-update/arm-none-eabi/include/c++/6.3.1/bits/basic_ios.h ****        *  If the error flag is already set when the exceptions mask is
 235:/home/zkmike/.local/share/renesas/e2_studio/toolchains/gcc_arm/gcc-arm-none-eabi-6-2017-q2-update/arm-none-eabi/include/c++/6.3.1/bits/basic_ios.h ****        *  added, the exception is immediately thrown.  Try running the
 236:/home/zkmike/.local/share/renesas/e2_studio/toolchains/gcc_arm/gcc-arm-none-eabi-6-2017-q2-update/arm-none-eabi/include/c++/6.3.1/bits/basic_ios.h ****        *  following under GCC 3.1 or later:
 237:/home/zkmike/.local/share/renesas/e2_studio/toolchains/gcc_arm/gcc-arm-none-eabi-6-2017-q2-update/arm-none-eabi/include/c++/6.3.1/bits/basic_ios.h ****        *  @code
 238:/home/zkmike/.local/share/renesas/e2_studio/toolchains/gcc_arm/gcc-arm-none-eabi-6-2017-q2-update/arm-none-eabi/include/c++/6.3.1/bits/basic_ios.h ****        *  #include <iostream>
 239:/home/zkmike/.local/share/renesas/e2_studio/toolchains/gcc_arm/gcc-arm-none-eabi-6-2017-q2-update/arm-none-eabi/include/c++/6.3.1/bits/basic_ios.h ****        *  #include <fstream>
 240:/home/zkmike/.local/share/renesas/e2_studio/toolchains/gcc_arm/gcc-arm-none-eabi-6-2017-q2-update/arm-none-eabi/include/c++/6.3.1/bits/basic_ios.h ****        *  #include <exception>
 241:/home/zkmike/.local/share/renesas/e2_studio/toolchains/gcc_arm/gcc-arm-none-eabi-6-2017-q2-update/arm-none-eabi/include/c++/6.3.1/bits/basic_ios.h ****        *
 242:/home/zkmike/.local/share/renesas/e2_studio/toolchains/gcc_arm/gcc-arm-none-eabi-6-2017-q2-update/arm-none-eabi/include/c++/6.3.1/bits/basic_ios.h ****        *  int main()
 243:/home/zkmike/.local/share/renesas/e2_studio/toolchains/gcc_arm/gcc-arm-none-eabi-6-2017-q2-update/arm-none-eabi/include/c++/6.3.1/bits/basic_ios.h ****        *  {
 244:/home/zkmike/.local/share/renesas/e2_studio/toolchains/gcc_arm/gcc-arm-none-eabi-6-2017-q2-update/arm-none-eabi/include/c++/6.3.1/bits/basic_ios.h ****        *      std::set_terminate (__gnu_cxx::__verbose_terminate_handler);
 245:/home/zkmike/.local/share/renesas/e2_studio/toolchains/gcc_arm/gcc-arm-none-eabi-6-2017-q2-update/arm-none-eabi/include/c++/6.3.1/bits/basic_ios.h ****        *
 246:/home/zkmike/.local/share/renesas/e2_studio/toolchains/gcc_arm/gcc-arm-none-eabi-6-2017-q2-update/arm-none-eabi/include/c++/6.3.1/bits/basic_ios.h ****        *      std::ifstream f ("/etc/motd");
 247:/home/zkmike/.local/share/renesas/e2_studio/toolchains/gcc_arm/gcc-arm-none-eabi-6-2017-q2-update/arm-none-eabi/include/c++/6.3.1/bits/basic_ios.h ****        *
 248:/home/zkmike/.local/share/renesas/e2_studio/toolchains/gcc_arm/gcc-arm-none-eabi-6-2017-q2-update/arm-none-eabi/include/c++/6.3.1/bits/basic_ios.h ****        *      std::cerr << "Setting badbit\n";
 249:/home/zkmike/.local/share/renesas/e2_studio/toolchains/gcc_arm/gcc-arm-none-eabi-6-2017-q2-update/arm-none-eabi/include/c++/6.3.1/bits/basic_ios.h ****        *      f.setstate (std::ios_base::badbit);
 250:/home/zkmike/.local/share/renesas/e2_studio/toolchains/gcc_arm/gcc-arm-none-eabi-6-2017-q2-update/arm-none-eabi/include/c++/6.3.1/bits/basic_ios.h ****        *
 251:/home/zkmike/.local/share/renesas/e2_studio/toolchains/gcc_arm/gcc-arm-none-eabi-6-2017-q2-update/arm-none-eabi/include/c++/6.3.1/bits/basic_ios.h ****        *      std::cerr << "Setting exception mask\n";
 252:/home/zkmike/.local/share/renesas/e2_studio/toolchains/gcc_arm/gcc-arm-none-eabi-6-2017-q2-update/arm-none-eabi/include/c++/6.3.1/bits/basic_ios.h ****        *      f.exceptions (std::ios_base::badbit);
 253:/home/zkmike/.local/share/renesas/e2_studio/toolchains/gcc_arm/gcc-arm-none-eabi-6-2017-q2-update/arm-none-eabi/include/c++/6.3.1/bits/basic_ios.h ****        *  }
 254:/home/zkmike/.local/share/renesas/e2_studio/toolchains/gcc_arm/gcc-arm-none-eabi-6-2017-q2-update/arm-none-eabi/include/c++/6.3.1/bits/basic_ios.h ****        *  @endcode
 255:/home/zkmike/.local/share/renesas/e2_studio/toolchains/gcc_arm/gcc-arm-none-eabi-6-2017-q2-update/arm-none-eabi/include/c++/6.3.1/bits/basic_ios.h ****       */
 256:/home/zkmike/.local/share/renesas/e2_studio/toolchains/gcc_arm/gcc-arm-none-eabi-6-2017-q2-update/arm-none-eabi/include/c++/6.3.1/bits/basic_ios.h ****       void
 257:/home/zkmike/.local/share/renesas/e2_studio/toolchains/gcc_arm/gcc-arm-none-eabi-6-2017-q2-update/arm-none-eabi/include/c++/6.3.1/bits/basic_ios.h ****       exceptions(iostate __except)
 258:/home/zkmike/.local/share/renesas/e2_studio/toolchains/gcc_arm/gcc-arm-none-eabi-6-2017-q2-update/arm-none-eabi/include/c++/6.3.1/bits/basic_ios.h ****       {
 259:/home/zkmike/.local/share/renesas/e2_studio/toolchains/gcc_arm/gcc-arm-none-eabi-6-2017-q2-update/arm-none-eabi/include/c++/6.3.1/bits/basic_ios.h ****         _M_exception = __except;
 260:/home/zkmike/.local/share/renesas/e2_studio/toolchains/gcc_arm/gcc-arm-none-eabi-6-2017-q2-update/arm-none-eabi/include/c++/6.3.1/bits/basic_ios.h ****         this->clear(_M_streambuf_state);
 261:/home/zkmike/.local/share/renesas/e2_studio/toolchains/gcc_arm/gcc-arm-none-eabi-6-2017-q2-update/arm-none-eabi/include/c++/6.3.1/bits/basic_ios.h ****       }
 262:/home/zkmike/.local/share/renesas/e2_studio/toolchains/gcc_arm/gcc-arm-none-eabi-6-2017-q2-update/arm-none-eabi/include/c++/6.3.1/bits/basic_ios.h **** 
 263:/home/zkmike/.local/share/renesas/e2_studio/toolchains/gcc_arm/gcc-arm-none-eabi-6-2017-q2-update/arm-none-eabi/include/c++/6.3.1/bits/basic_ios.h ****       // Constructor/destructor:
 264:/home/zkmike/.local/share/renesas/e2_studio/toolchains/gcc_arm/gcc-arm-none-eabi-6-2017-q2-update/arm-none-eabi/include/c++/6.3.1/bits/basic_ios.h ****       /**
 265:/home/zkmike/.local/share/renesas/e2_studio/toolchains/gcc_arm/gcc-arm-none-eabi-6-2017-q2-update/arm-none-eabi/include/c++/6.3.1/bits/basic_ios.h ****        *  @brief  Constructor performs initialization.
 266:/home/zkmike/.local/share/renesas/e2_studio/toolchains/gcc_arm/gcc-arm-none-eabi-6-2017-q2-update/arm-none-eabi/include/c++/6.3.1/bits/basic_ios.h ****        *
 267:/home/zkmike/.local/share/renesas/e2_studio/toolchains/gcc_arm/gcc-arm-none-eabi-6-2017-q2-update/arm-none-eabi/include/c++/6.3.1/bits/basic_ios.h ****        *  The parameter is passed by derived streams.
 268:/home/zkmike/.local/share/renesas/e2_studio/toolchains/gcc_arm/gcc-arm-none-eabi-6-2017-q2-update/arm-none-eabi/include/c++/6.3.1/bits/basic_ios.h ****       */
 269:/home/zkmike/.local/share/renesas/e2_studio/toolchains/gcc_arm/gcc-arm-none-eabi-6-2017-q2-update/arm-none-eabi/include/c++/6.3.1/bits/basic_ios.h ****       explicit
 270:/home/zkmike/.local/share/renesas/e2_studio/toolchains/gcc_arm/gcc-arm-none-eabi-6-2017-q2-update/arm-none-eabi/include/c++/6.3.1/bits/basic_ios.h ****       basic_ios(basic_streambuf<_CharT, _Traits>* __sb)
 271:/home/zkmike/.local/share/renesas/e2_studio/toolchains/gcc_arm/gcc-arm-none-eabi-6-2017-q2-update/arm-none-eabi/include/c++/6.3.1/bits/basic_ios.h ****       : ios_base(), _M_tie(0), _M_fill(), _M_fill_init(false), _M_streambuf(0),
 272:/home/zkmike/.local/share/renesas/e2_studio/toolchains/gcc_arm/gcc-arm-none-eabi-6-2017-q2-update/arm-none-eabi/include/c++/6.3.1/bits/basic_ios.h **** 	_M_ctype(0), _M_num_put(0), _M_num_get(0)
 273:/home/zkmike/.local/share/renesas/e2_studio/toolchains/gcc_arm/gcc-arm-none-eabi-6-2017-q2-update/arm-none-eabi/include/c++/6.3.1/bits/basic_ios.h ****       { this->init(__sb); }
 274:/home/zkmike/.local/share/renesas/e2_studio/toolchains/gcc_arm/gcc-arm-none-eabi-6-2017-q2-update/arm-none-eabi/include/c++/6.3.1/bits/basic_ios.h **** 
 275:/home/zkmike/.local/share/renesas/e2_studio/toolchains/gcc_arm/gcc-arm-none-eabi-6-2017-q2-update/arm-none-eabi/include/c++/6.3.1/bits/basic_ios.h ****       /**
 276:/home/zkmike/.local/share/renesas/e2_studio/toolchains/gcc_arm/gcc-arm-none-eabi-6-2017-q2-update/arm-none-eabi/include/c++/6.3.1/bits/basic_ios.h ****        *  @brief  Empty.
 277:/home/zkmike/.local/share/renesas/e2_studio/toolchains/gcc_arm/gcc-arm-none-eabi-6-2017-q2-update/arm-none-eabi/include/c++/6.3.1/bits/basic_ios.h ****        *
 278:/home/zkmike/.local/share/renesas/e2_studio/toolchains/gcc_arm/gcc-arm-none-eabi-6-2017-q2-update/arm-none-eabi/include/c++/6.3.1/bits/basic_ios.h ****        *  The destructor does nothing.  More specifically, it does not
 279:/home/zkmike/.local/share/renesas/e2_studio/toolchains/gcc_arm/gcc-arm-none-eabi-6-2017-q2-update/arm-none-eabi/include/c++/6.3.1/bits/basic_ios.h ****        *  destroy the streambuf held by rdbuf().
 280:/home/zkmike/.local/share/renesas/e2_studio/toolchains/gcc_arm/gcc-arm-none-eabi-6-2017-q2-update/arm-none-eabi/include/c++/6.3.1/bits/basic_ios.h ****       */
 281:/home/zkmike/.local/share/renesas/e2_studio/toolchains/gcc_arm/gcc-arm-none-eabi-6-2017-q2-update/arm-none-eabi/include/c++/6.3.1/bits/basic_ios.h ****       virtual
 282:/home/zkmike/.local/share/renesas/e2_studio/toolchains/gcc_arm/gcc-arm-none-eabi-6-2017-q2-update/arm-none-eabi/include/c++/6.3.1/bits/basic_ios.h ****       ~basic_ios() { }
 283:/home/zkmike/.local/share/renesas/e2_studio/toolchains/gcc_arm/gcc-arm-none-eabi-6-2017-q2-update/arm-none-eabi/include/c++/6.3.1/bits/basic_ios.h **** 
 284:/home/zkmike/.local/share/renesas/e2_studio/toolchains/gcc_arm/gcc-arm-none-eabi-6-2017-q2-update/arm-none-eabi/include/c++/6.3.1/bits/basic_ios.h ****       // Members:
 285:/home/zkmike/.local/share/renesas/e2_studio/toolchains/gcc_arm/gcc-arm-none-eabi-6-2017-q2-update/arm-none-eabi/include/c++/6.3.1/bits/basic_ios.h ****       /**
 286:/home/zkmike/.local/share/renesas/e2_studio/toolchains/gcc_arm/gcc-arm-none-eabi-6-2017-q2-update/arm-none-eabi/include/c++/6.3.1/bits/basic_ios.h ****        *  @brief  Fetches the current @e tied stream.
 287:/home/zkmike/.local/share/renesas/e2_studio/toolchains/gcc_arm/gcc-arm-none-eabi-6-2017-q2-update/arm-none-eabi/include/c++/6.3.1/bits/basic_ios.h ****        *  @return  A pointer to the tied stream, or NULL if the stream is
 288:/home/zkmike/.local/share/renesas/e2_studio/toolchains/gcc_arm/gcc-arm-none-eabi-6-2017-q2-update/arm-none-eabi/include/c++/6.3.1/bits/basic_ios.h ****        *           not tied.
 289:/home/zkmike/.local/share/renesas/e2_studio/toolchains/gcc_arm/gcc-arm-none-eabi-6-2017-q2-update/arm-none-eabi/include/c++/6.3.1/bits/basic_ios.h ****        *
 290:/home/zkmike/.local/share/renesas/e2_studio/toolchains/gcc_arm/gcc-arm-none-eabi-6-2017-q2-update/arm-none-eabi/include/c++/6.3.1/bits/basic_ios.h ****        *  A stream may be @e tied (or synchronized) to a second output
 291:/home/zkmike/.local/share/renesas/e2_studio/toolchains/gcc_arm/gcc-arm-none-eabi-6-2017-q2-update/arm-none-eabi/include/c++/6.3.1/bits/basic_ios.h ****        *  stream.  When this stream performs any I/O, the tied stream is
 292:/home/zkmike/.local/share/renesas/e2_studio/toolchains/gcc_arm/gcc-arm-none-eabi-6-2017-q2-update/arm-none-eabi/include/c++/6.3.1/bits/basic_ios.h ****        *  first flushed.  For example, @c std::cin is tied to @c std::cout.
 293:/home/zkmike/.local/share/renesas/e2_studio/toolchains/gcc_arm/gcc-arm-none-eabi-6-2017-q2-update/arm-none-eabi/include/c++/6.3.1/bits/basic_ios.h ****       */
 294:/home/zkmike/.local/share/renesas/e2_studio/toolchains/gcc_arm/gcc-arm-none-eabi-6-2017-q2-update/arm-none-eabi/include/c++/6.3.1/bits/basic_ios.h ****       basic_ostream<_CharT, _Traits>*
 295:/home/zkmike/.local/share/renesas/e2_studio/toolchains/gcc_arm/gcc-arm-none-eabi-6-2017-q2-update/arm-none-eabi/include/c++/6.3.1/bits/basic_ios.h ****       tie() const
 296:/home/zkmike/.local/share/renesas/e2_studio/toolchains/gcc_arm/gcc-arm-none-eabi-6-2017-q2-update/arm-none-eabi/include/c++/6.3.1/bits/basic_ios.h ****       { return _M_tie; }
 297:/home/zkmike/.local/share/renesas/e2_studio/toolchains/gcc_arm/gcc-arm-none-eabi-6-2017-q2-update/arm-none-eabi/include/c++/6.3.1/bits/basic_ios.h **** 
 298:/home/zkmike/.local/share/renesas/e2_studio/toolchains/gcc_arm/gcc-arm-none-eabi-6-2017-q2-update/arm-none-eabi/include/c++/6.3.1/bits/basic_ios.h ****       /**
 299:/home/zkmike/.local/share/renesas/e2_studio/toolchains/gcc_arm/gcc-arm-none-eabi-6-2017-q2-update/arm-none-eabi/include/c++/6.3.1/bits/basic_ios.h ****        *  @brief  Ties this stream to an output stream.
 300:/home/zkmike/.local/share/renesas/e2_studio/toolchains/gcc_arm/gcc-arm-none-eabi-6-2017-q2-update/arm-none-eabi/include/c++/6.3.1/bits/basic_ios.h ****        *  @param  __tiestr  The output stream.
 301:/home/zkmike/.local/share/renesas/e2_studio/toolchains/gcc_arm/gcc-arm-none-eabi-6-2017-q2-update/arm-none-eabi/include/c++/6.3.1/bits/basic_ios.h ****        *  @return  The previously tied output stream, or NULL if the stream
 302:/home/zkmike/.local/share/renesas/e2_studio/toolchains/gcc_arm/gcc-arm-none-eabi-6-2017-q2-update/arm-none-eabi/include/c++/6.3.1/bits/basic_ios.h ****        *           was not tied.
 303:/home/zkmike/.local/share/renesas/e2_studio/toolchains/gcc_arm/gcc-arm-none-eabi-6-2017-q2-update/arm-none-eabi/include/c++/6.3.1/bits/basic_ios.h ****        *
 304:/home/zkmike/.local/share/renesas/e2_studio/toolchains/gcc_arm/gcc-arm-none-eabi-6-2017-q2-update/arm-none-eabi/include/c++/6.3.1/bits/basic_ios.h ****        *  This sets up a new tie; see tie() for more.
 305:/home/zkmike/.local/share/renesas/e2_studio/toolchains/gcc_arm/gcc-arm-none-eabi-6-2017-q2-update/arm-none-eabi/include/c++/6.3.1/bits/basic_ios.h ****       */
 306:/home/zkmike/.local/share/renesas/e2_studio/toolchains/gcc_arm/gcc-arm-none-eabi-6-2017-q2-update/arm-none-eabi/include/c++/6.3.1/bits/basic_ios.h ****       basic_ostream<_CharT, _Traits>*
 307:/home/zkmike/.local/share/renesas/e2_studio/toolchains/gcc_arm/gcc-arm-none-eabi-6-2017-q2-update/arm-none-eabi/include/c++/6.3.1/bits/basic_ios.h ****       tie(basic_ostream<_CharT, _Traits>* __tiestr)
 308:/home/zkmike/.local/share/renesas/e2_studio/toolchains/gcc_arm/gcc-arm-none-eabi-6-2017-q2-update/arm-none-eabi/include/c++/6.3.1/bits/basic_ios.h ****       {
 309:/home/zkmike/.local/share/renesas/e2_studio/toolchains/gcc_arm/gcc-arm-none-eabi-6-2017-q2-update/arm-none-eabi/include/c++/6.3.1/bits/basic_ios.h ****         basic_ostream<_CharT, _Traits>* __old = _M_tie;
 310:/home/zkmike/.local/share/renesas/e2_studio/toolchains/gcc_arm/gcc-arm-none-eabi-6-2017-q2-update/arm-none-eabi/include/c++/6.3.1/bits/basic_ios.h ****         _M_tie = __tiestr;
 311:/home/zkmike/.local/share/renesas/e2_studio/toolchains/gcc_arm/gcc-arm-none-eabi-6-2017-q2-update/arm-none-eabi/include/c++/6.3.1/bits/basic_ios.h ****         return __old;
 312:/home/zkmike/.local/share/renesas/e2_studio/toolchains/gcc_arm/gcc-arm-none-eabi-6-2017-q2-update/arm-none-eabi/include/c++/6.3.1/bits/basic_ios.h ****       }
 313:/home/zkmike/.local/share/renesas/e2_studio/toolchains/gcc_arm/gcc-arm-none-eabi-6-2017-q2-update/arm-none-eabi/include/c++/6.3.1/bits/basic_ios.h **** 
 314:/home/zkmike/.local/share/renesas/e2_studio/toolchains/gcc_arm/gcc-arm-none-eabi-6-2017-q2-update/arm-none-eabi/include/c++/6.3.1/bits/basic_ios.h ****       /**
 315:/home/zkmike/.local/share/renesas/e2_studio/toolchains/gcc_arm/gcc-arm-none-eabi-6-2017-q2-update/arm-none-eabi/include/c++/6.3.1/bits/basic_ios.h ****        *  @brief  Accessing the underlying buffer.
 316:/home/zkmike/.local/share/renesas/e2_studio/toolchains/gcc_arm/gcc-arm-none-eabi-6-2017-q2-update/arm-none-eabi/include/c++/6.3.1/bits/basic_ios.h ****        *  @return  The current stream buffer.
 317:/home/zkmike/.local/share/renesas/e2_studio/toolchains/gcc_arm/gcc-arm-none-eabi-6-2017-q2-update/arm-none-eabi/include/c++/6.3.1/bits/basic_ios.h ****        *
 318:/home/zkmike/.local/share/renesas/e2_studio/toolchains/gcc_arm/gcc-arm-none-eabi-6-2017-q2-update/arm-none-eabi/include/c++/6.3.1/bits/basic_ios.h ****        *  This does not change the state of the stream.
 319:/home/zkmike/.local/share/renesas/e2_studio/toolchains/gcc_arm/gcc-arm-none-eabi-6-2017-q2-update/arm-none-eabi/include/c++/6.3.1/bits/basic_ios.h ****       */
 320:/home/zkmike/.local/share/renesas/e2_studio/toolchains/gcc_arm/gcc-arm-none-eabi-6-2017-q2-update/arm-none-eabi/include/c++/6.3.1/bits/basic_ios.h ****       basic_streambuf<_CharT, _Traits>*
 321:/home/zkmike/.local/share/renesas/e2_studio/toolchains/gcc_arm/gcc-arm-none-eabi-6-2017-q2-update/arm-none-eabi/include/c++/6.3.1/bits/basic_ios.h ****       rdbuf() const
 322:/home/zkmike/.local/share/renesas/e2_studio/toolchains/gcc_arm/gcc-arm-none-eabi-6-2017-q2-update/arm-none-eabi/include/c++/6.3.1/bits/basic_ios.h ****       { return _M_streambuf; }
 323:/home/zkmike/.local/share/renesas/e2_studio/toolchains/gcc_arm/gcc-arm-none-eabi-6-2017-q2-update/arm-none-eabi/include/c++/6.3.1/bits/basic_ios.h **** 
 324:/home/zkmike/.local/share/renesas/e2_studio/toolchains/gcc_arm/gcc-arm-none-eabi-6-2017-q2-update/arm-none-eabi/include/c++/6.3.1/bits/basic_ios.h ****       /**
 325:/home/zkmike/.local/share/renesas/e2_studio/toolchains/gcc_arm/gcc-arm-none-eabi-6-2017-q2-update/arm-none-eabi/include/c++/6.3.1/bits/basic_ios.h ****        *  @brief  Changing the underlying buffer.
 326:/home/zkmike/.local/share/renesas/e2_studio/toolchains/gcc_arm/gcc-arm-none-eabi-6-2017-q2-update/arm-none-eabi/include/c++/6.3.1/bits/basic_ios.h ****        *  @param  __sb  The new stream buffer.
 327:/home/zkmike/.local/share/renesas/e2_studio/toolchains/gcc_arm/gcc-arm-none-eabi-6-2017-q2-update/arm-none-eabi/include/c++/6.3.1/bits/basic_ios.h ****        *  @return  The previous stream buffer.
 328:/home/zkmike/.local/share/renesas/e2_studio/toolchains/gcc_arm/gcc-arm-none-eabi-6-2017-q2-update/arm-none-eabi/include/c++/6.3.1/bits/basic_ios.h ****        *
 329:/home/zkmike/.local/share/renesas/e2_studio/toolchains/gcc_arm/gcc-arm-none-eabi-6-2017-q2-update/arm-none-eabi/include/c++/6.3.1/bits/basic_ios.h ****        *  Associates a new buffer with the current stream, and clears the
 330:/home/zkmike/.local/share/renesas/e2_studio/toolchains/gcc_arm/gcc-arm-none-eabi-6-2017-q2-update/arm-none-eabi/include/c++/6.3.1/bits/basic_ios.h ****        *  error state.
 331:/home/zkmike/.local/share/renesas/e2_studio/toolchains/gcc_arm/gcc-arm-none-eabi-6-2017-q2-update/arm-none-eabi/include/c++/6.3.1/bits/basic_ios.h ****        *
 332:/home/zkmike/.local/share/renesas/e2_studio/toolchains/gcc_arm/gcc-arm-none-eabi-6-2017-q2-update/arm-none-eabi/include/c++/6.3.1/bits/basic_ios.h ****        *  Due to historical accidents which the LWG refuses to correct, the
 333:/home/zkmike/.local/share/renesas/e2_studio/toolchains/gcc_arm/gcc-arm-none-eabi-6-2017-q2-update/arm-none-eabi/include/c++/6.3.1/bits/basic_ios.h ****        *  I/O library suffers from a design error:  this function is hidden
 334:/home/zkmike/.local/share/renesas/e2_studio/toolchains/gcc_arm/gcc-arm-none-eabi-6-2017-q2-update/arm-none-eabi/include/c++/6.3.1/bits/basic_ios.h ****        *  in derived classes by overrides of the zero-argument @c rdbuf(),
 335:/home/zkmike/.local/share/renesas/e2_studio/toolchains/gcc_arm/gcc-arm-none-eabi-6-2017-q2-update/arm-none-eabi/include/c++/6.3.1/bits/basic_ios.h ****        *  which is non-virtual for hysterical raisins.  As a result, you
 336:/home/zkmike/.local/share/renesas/e2_studio/toolchains/gcc_arm/gcc-arm-none-eabi-6-2017-q2-update/arm-none-eabi/include/c++/6.3.1/bits/basic_ios.h ****        *  must use explicit qualifications to access this function via any
 337:/home/zkmike/.local/share/renesas/e2_studio/toolchains/gcc_arm/gcc-arm-none-eabi-6-2017-q2-update/arm-none-eabi/include/c++/6.3.1/bits/basic_ios.h ****        *  derived class.  For example:
 338:/home/zkmike/.local/share/renesas/e2_studio/toolchains/gcc_arm/gcc-arm-none-eabi-6-2017-q2-update/arm-none-eabi/include/c++/6.3.1/bits/basic_ios.h ****        *
 339:/home/zkmike/.local/share/renesas/e2_studio/toolchains/gcc_arm/gcc-arm-none-eabi-6-2017-q2-update/arm-none-eabi/include/c++/6.3.1/bits/basic_ios.h ****        *  @code
 340:/home/zkmike/.local/share/renesas/e2_studio/toolchains/gcc_arm/gcc-arm-none-eabi-6-2017-q2-update/arm-none-eabi/include/c++/6.3.1/bits/basic_ios.h ****        *  std::fstream     foo;         // or some other derived type
 341:/home/zkmike/.local/share/renesas/e2_studio/toolchains/gcc_arm/gcc-arm-none-eabi-6-2017-q2-update/arm-none-eabi/include/c++/6.3.1/bits/basic_ios.h ****        *  std::streambuf*  p = .....;
 342:/home/zkmike/.local/share/renesas/e2_studio/toolchains/gcc_arm/gcc-arm-none-eabi-6-2017-q2-update/arm-none-eabi/include/c++/6.3.1/bits/basic_ios.h ****        *
 343:/home/zkmike/.local/share/renesas/e2_studio/toolchains/gcc_arm/gcc-arm-none-eabi-6-2017-q2-update/arm-none-eabi/include/c++/6.3.1/bits/basic_ios.h ****        *  foo.ios::rdbuf(p);            // ios == basic_ios<char>
 344:/home/zkmike/.local/share/renesas/e2_studio/toolchains/gcc_arm/gcc-arm-none-eabi-6-2017-q2-update/arm-none-eabi/include/c++/6.3.1/bits/basic_ios.h ****        *  @endcode
 345:/home/zkmike/.local/share/renesas/e2_studio/toolchains/gcc_arm/gcc-arm-none-eabi-6-2017-q2-update/arm-none-eabi/include/c++/6.3.1/bits/basic_ios.h ****       */
 346:/home/zkmike/.local/share/renesas/e2_studio/toolchains/gcc_arm/gcc-arm-none-eabi-6-2017-q2-update/arm-none-eabi/include/c++/6.3.1/bits/basic_ios.h ****       basic_streambuf<_CharT, _Traits>*
 347:/home/zkmike/.local/share/renesas/e2_studio/toolchains/gcc_arm/gcc-arm-none-eabi-6-2017-q2-update/arm-none-eabi/include/c++/6.3.1/bits/basic_ios.h ****       rdbuf(basic_streambuf<_CharT, _Traits>* __sb);
 348:/home/zkmike/.local/share/renesas/e2_studio/toolchains/gcc_arm/gcc-arm-none-eabi-6-2017-q2-update/arm-none-eabi/include/c++/6.3.1/bits/basic_ios.h **** 
 349:/home/zkmike/.local/share/renesas/e2_studio/toolchains/gcc_arm/gcc-arm-none-eabi-6-2017-q2-update/arm-none-eabi/include/c++/6.3.1/bits/basic_ios.h ****       /**
 350:/home/zkmike/.local/share/renesas/e2_studio/toolchains/gcc_arm/gcc-arm-none-eabi-6-2017-q2-update/arm-none-eabi/include/c++/6.3.1/bits/basic_ios.h ****        *  @brief  Copies fields of __rhs into this.
 351:/home/zkmike/.local/share/renesas/e2_studio/toolchains/gcc_arm/gcc-arm-none-eabi-6-2017-q2-update/arm-none-eabi/include/c++/6.3.1/bits/basic_ios.h ****        *  @param  __rhs  The source values for the copies.
 352:/home/zkmike/.local/share/renesas/e2_studio/toolchains/gcc_arm/gcc-arm-none-eabi-6-2017-q2-update/arm-none-eabi/include/c++/6.3.1/bits/basic_ios.h ****        *  @return  Reference to this object.
 353:/home/zkmike/.local/share/renesas/e2_studio/toolchains/gcc_arm/gcc-arm-none-eabi-6-2017-q2-update/arm-none-eabi/include/c++/6.3.1/bits/basic_ios.h ****        *
 354:/home/zkmike/.local/share/renesas/e2_studio/toolchains/gcc_arm/gcc-arm-none-eabi-6-2017-q2-update/arm-none-eabi/include/c++/6.3.1/bits/basic_ios.h ****        *  All fields of __rhs are copied into this object except that rdbuf()
 355:/home/zkmike/.local/share/renesas/e2_studio/toolchains/gcc_arm/gcc-arm-none-eabi-6-2017-q2-update/arm-none-eabi/include/c++/6.3.1/bits/basic_ios.h ****        *  and rdstate() remain unchanged.  All values in the pword and iword
 356:/home/zkmike/.local/share/renesas/e2_studio/toolchains/gcc_arm/gcc-arm-none-eabi-6-2017-q2-update/arm-none-eabi/include/c++/6.3.1/bits/basic_ios.h ****        *  arrays are copied.  Before copying, each callback is invoked with
 357:/home/zkmike/.local/share/renesas/e2_studio/toolchains/gcc_arm/gcc-arm-none-eabi-6-2017-q2-update/arm-none-eabi/include/c++/6.3.1/bits/basic_ios.h ****        *  erase_event.  After copying, each (new) callback is invoked with
 358:/home/zkmike/.local/share/renesas/e2_studio/toolchains/gcc_arm/gcc-arm-none-eabi-6-2017-q2-update/arm-none-eabi/include/c++/6.3.1/bits/basic_ios.h ****        *  copyfmt_event.  The final step is to copy exceptions().
 359:/home/zkmike/.local/share/renesas/e2_studio/toolchains/gcc_arm/gcc-arm-none-eabi-6-2017-q2-update/arm-none-eabi/include/c++/6.3.1/bits/basic_ios.h ****       */
 360:/home/zkmike/.local/share/renesas/e2_studio/toolchains/gcc_arm/gcc-arm-none-eabi-6-2017-q2-update/arm-none-eabi/include/c++/6.3.1/bits/basic_ios.h ****       basic_ios&
 361:/home/zkmike/.local/share/renesas/e2_studio/toolchains/gcc_arm/gcc-arm-none-eabi-6-2017-q2-update/arm-none-eabi/include/c++/6.3.1/bits/basic_ios.h ****       copyfmt(const basic_ios& __rhs);
 362:/home/zkmike/.local/share/renesas/e2_studio/toolchains/gcc_arm/gcc-arm-none-eabi-6-2017-q2-update/arm-none-eabi/include/c++/6.3.1/bits/basic_ios.h **** 
 363:/home/zkmike/.local/share/renesas/e2_studio/toolchains/gcc_arm/gcc-arm-none-eabi-6-2017-q2-update/arm-none-eabi/include/c++/6.3.1/bits/basic_ios.h ****       /**
 364:/home/zkmike/.local/share/renesas/e2_studio/toolchains/gcc_arm/gcc-arm-none-eabi-6-2017-q2-update/arm-none-eabi/include/c++/6.3.1/bits/basic_ios.h ****        *  @brief  Retrieves the @a empty character.
 365:/home/zkmike/.local/share/renesas/e2_studio/toolchains/gcc_arm/gcc-arm-none-eabi-6-2017-q2-update/arm-none-eabi/include/c++/6.3.1/bits/basic_ios.h ****        *  @return  The current fill character.
 366:/home/zkmike/.local/share/renesas/e2_studio/toolchains/gcc_arm/gcc-arm-none-eabi-6-2017-q2-update/arm-none-eabi/include/c++/6.3.1/bits/basic_ios.h ****        *
 367:/home/zkmike/.local/share/renesas/e2_studio/toolchains/gcc_arm/gcc-arm-none-eabi-6-2017-q2-update/arm-none-eabi/include/c++/6.3.1/bits/basic_ios.h ****        *  It defaults to a space (' ') in the current locale.
 368:/home/zkmike/.local/share/renesas/e2_studio/toolchains/gcc_arm/gcc-arm-none-eabi-6-2017-q2-update/arm-none-eabi/include/c++/6.3.1/bits/basic_ios.h ****       */
 369:/home/zkmike/.local/share/renesas/e2_studio/toolchains/gcc_arm/gcc-arm-none-eabi-6-2017-q2-update/arm-none-eabi/include/c++/6.3.1/bits/basic_ios.h ****       char_type
 370:/home/zkmike/.local/share/renesas/e2_studio/toolchains/gcc_arm/gcc-arm-none-eabi-6-2017-q2-update/arm-none-eabi/include/c++/6.3.1/bits/basic_ios.h ****       fill() const
 371:/home/zkmike/.local/share/renesas/e2_studio/toolchains/gcc_arm/gcc-arm-none-eabi-6-2017-q2-update/arm-none-eabi/include/c++/6.3.1/bits/basic_ios.h ****       {
 372:/home/zkmike/.local/share/renesas/e2_studio/toolchains/gcc_arm/gcc-arm-none-eabi-6-2017-q2-update/arm-none-eabi/include/c++/6.3.1/bits/basic_ios.h **** 	if (!_M_fill_init)
 373:/home/zkmike/.local/share/renesas/e2_studio/toolchains/gcc_arm/gcc-arm-none-eabi-6-2017-q2-update/arm-none-eabi/include/c++/6.3.1/bits/basic_ios.h **** 	  {
 374:/home/zkmike/.local/share/renesas/e2_studio/toolchains/gcc_arm/gcc-arm-none-eabi-6-2017-q2-update/arm-none-eabi/include/c++/6.3.1/bits/basic_ios.h **** 	    _M_fill = this->widen(' ');
 375:/home/zkmike/.local/share/renesas/e2_studio/toolchains/gcc_arm/gcc-arm-none-eabi-6-2017-q2-update/arm-none-eabi/include/c++/6.3.1/bits/basic_ios.h **** 	    _M_fill_init = true;
 376:/home/zkmike/.local/share/renesas/e2_studio/toolchains/gcc_arm/gcc-arm-none-eabi-6-2017-q2-update/arm-none-eabi/include/c++/6.3.1/bits/basic_ios.h **** 	  }
 377:/home/zkmike/.local/share/renesas/e2_studio/toolchains/gcc_arm/gcc-arm-none-eabi-6-2017-q2-update/arm-none-eabi/include/c++/6.3.1/bits/basic_ios.h **** 	return _M_fill;
 378:/home/zkmike/.local/share/renesas/e2_studio/toolchains/gcc_arm/gcc-arm-none-eabi-6-2017-q2-update/arm-none-eabi/include/c++/6.3.1/bits/basic_ios.h ****       }
 379:/home/zkmike/.local/share/renesas/e2_studio/toolchains/gcc_arm/gcc-arm-none-eabi-6-2017-q2-update/arm-none-eabi/include/c++/6.3.1/bits/basic_ios.h **** 
 380:/home/zkmike/.local/share/renesas/e2_studio/toolchains/gcc_arm/gcc-arm-none-eabi-6-2017-q2-update/arm-none-eabi/include/c++/6.3.1/bits/basic_ios.h ****       /**
 381:/home/zkmike/.local/share/renesas/e2_studio/toolchains/gcc_arm/gcc-arm-none-eabi-6-2017-q2-update/arm-none-eabi/include/c++/6.3.1/bits/basic_ios.h ****        *  @brief  Sets a new @a empty character.
 382:/home/zkmike/.local/share/renesas/e2_studio/toolchains/gcc_arm/gcc-arm-none-eabi-6-2017-q2-update/arm-none-eabi/include/c++/6.3.1/bits/basic_ios.h ****        *  @param  __ch  The new character.
 383:/home/zkmike/.local/share/renesas/e2_studio/toolchains/gcc_arm/gcc-arm-none-eabi-6-2017-q2-update/arm-none-eabi/include/c++/6.3.1/bits/basic_ios.h ****        *  @return  The previous fill character.
 384:/home/zkmike/.local/share/renesas/e2_studio/toolchains/gcc_arm/gcc-arm-none-eabi-6-2017-q2-update/arm-none-eabi/include/c++/6.3.1/bits/basic_ios.h ****        *
 385:/home/zkmike/.local/share/renesas/e2_studio/toolchains/gcc_arm/gcc-arm-none-eabi-6-2017-q2-update/arm-none-eabi/include/c++/6.3.1/bits/basic_ios.h ****        *  The fill character is used to fill out space when P+ characters
 386:/home/zkmike/.local/share/renesas/e2_studio/toolchains/gcc_arm/gcc-arm-none-eabi-6-2017-q2-update/arm-none-eabi/include/c++/6.3.1/bits/basic_ios.h ****        *  have been requested (e.g., via setw), Q characters are actually
 387:/home/zkmike/.local/share/renesas/e2_studio/toolchains/gcc_arm/gcc-arm-none-eabi-6-2017-q2-update/arm-none-eabi/include/c++/6.3.1/bits/basic_ios.h ****        *  used, and Q<P.  It defaults to a space (' ') in the current locale.
 388:/home/zkmike/.local/share/renesas/e2_studio/toolchains/gcc_arm/gcc-arm-none-eabi-6-2017-q2-update/arm-none-eabi/include/c++/6.3.1/bits/basic_ios.h ****       */
 389:/home/zkmike/.local/share/renesas/e2_studio/toolchains/gcc_arm/gcc-arm-none-eabi-6-2017-q2-update/arm-none-eabi/include/c++/6.3.1/bits/basic_ios.h ****       char_type
 390:/home/zkmike/.local/share/renesas/e2_studio/toolchains/gcc_arm/gcc-arm-none-eabi-6-2017-q2-update/arm-none-eabi/include/c++/6.3.1/bits/basic_ios.h ****       fill(char_type __ch)
 391:/home/zkmike/.local/share/renesas/e2_studio/toolchains/gcc_arm/gcc-arm-none-eabi-6-2017-q2-update/arm-none-eabi/include/c++/6.3.1/bits/basic_ios.h ****       {
 392:/home/zkmike/.local/share/renesas/e2_studio/toolchains/gcc_arm/gcc-arm-none-eabi-6-2017-q2-update/arm-none-eabi/include/c++/6.3.1/bits/basic_ios.h **** 	char_type __old = this->fill();
 393:/home/zkmike/.local/share/renesas/e2_studio/toolchains/gcc_arm/gcc-arm-none-eabi-6-2017-q2-update/arm-none-eabi/include/c++/6.3.1/bits/basic_ios.h **** 	_M_fill = __ch;
 394:/home/zkmike/.local/share/renesas/e2_studio/toolchains/gcc_arm/gcc-arm-none-eabi-6-2017-q2-update/arm-none-eabi/include/c++/6.3.1/bits/basic_ios.h **** 	return __old;
 395:/home/zkmike/.local/share/renesas/e2_studio/toolchains/gcc_arm/gcc-arm-none-eabi-6-2017-q2-update/arm-none-eabi/include/c++/6.3.1/bits/basic_ios.h ****       }
 396:/home/zkmike/.local/share/renesas/e2_studio/toolchains/gcc_arm/gcc-arm-none-eabi-6-2017-q2-update/arm-none-eabi/include/c++/6.3.1/bits/basic_ios.h **** 
 397:/home/zkmike/.local/share/renesas/e2_studio/toolchains/gcc_arm/gcc-arm-none-eabi-6-2017-q2-update/arm-none-eabi/include/c++/6.3.1/bits/basic_ios.h ****       // Locales:
 398:/home/zkmike/.local/share/renesas/e2_studio/toolchains/gcc_arm/gcc-arm-none-eabi-6-2017-q2-update/arm-none-eabi/include/c++/6.3.1/bits/basic_ios.h ****       /**
 399:/home/zkmike/.local/share/renesas/e2_studio/toolchains/gcc_arm/gcc-arm-none-eabi-6-2017-q2-update/arm-none-eabi/include/c++/6.3.1/bits/basic_ios.h ****        *  @brief  Moves to a new locale.
 400:/home/zkmike/.local/share/renesas/e2_studio/toolchains/gcc_arm/gcc-arm-none-eabi-6-2017-q2-update/arm-none-eabi/include/c++/6.3.1/bits/basic_ios.h ****        *  @param  __loc  The new locale.
 401:/home/zkmike/.local/share/renesas/e2_studio/toolchains/gcc_arm/gcc-arm-none-eabi-6-2017-q2-update/arm-none-eabi/include/c++/6.3.1/bits/basic_ios.h ****        *  @return  The previous locale.
 402:/home/zkmike/.local/share/renesas/e2_studio/toolchains/gcc_arm/gcc-arm-none-eabi-6-2017-q2-update/arm-none-eabi/include/c++/6.3.1/bits/basic_ios.h ****        *
 403:/home/zkmike/.local/share/renesas/e2_studio/toolchains/gcc_arm/gcc-arm-none-eabi-6-2017-q2-update/arm-none-eabi/include/c++/6.3.1/bits/basic_ios.h ****        *  Calls @c ios_base::imbue(loc), and if a stream buffer is associated
 404:/home/zkmike/.local/share/renesas/e2_studio/toolchains/gcc_arm/gcc-arm-none-eabi-6-2017-q2-update/arm-none-eabi/include/c++/6.3.1/bits/basic_ios.h ****        *  with this stream, calls that buffer's @c pubimbue(loc).
 405:/home/zkmike/.local/share/renesas/e2_studio/toolchains/gcc_arm/gcc-arm-none-eabi-6-2017-q2-update/arm-none-eabi/include/c++/6.3.1/bits/basic_ios.h ****        *
 406:/home/zkmike/.local/share/renesas/e2_studio/toolchains/gcc_arm/gcc-arm-none-eabi-6-2017-q2-update/arm-none-eabi/include/c++/6.3.1/bits/basic_ios.h ****        *  Additional l10n notes are at
 407:/home/zkmike/.local/share/renesas/e2_studio/toolchains/gcc_arm/gcc-arm-none-eabi-6-2017-q2-update/arm-none-eabi/include/c++/6.3.1/bits/basic_ios.h ****        *  http://gcc.gnu.org/onlinedocs/libstdc++/manual/localization.html
 408:/home/zkmike/.local/share/renesas/e2_studio/toolchains/gcc_arm/gcc-arm-none-eabi-6-2017-q2-update/arm-none-eabi/include/c++/6.3.1/bits/basic_ios.h ****       */
 409:/home/zkmike/.local/share/renesas/e2_studio/toolchains/gcc_arm/gcc-arm-none-eabi-6-2017-q2-update/arm-none-eabi/include/c++/6.3.1/bits/basic_ios.h ****       locale
 410:/home/zkmike/.local/share/renesas/e2_studio/toolchains/gcc_arm/gcc-arm-none-eabi-6-2017-q2-update/arm-none-eabi/include/c++/6.3.1/bits/basic_ios.h ****       imbue(const locale& __loc);
 411:/home/zkmike/.local/share/renesas/e2_studio/toolchains/gcc_arm/gcc-arm-none-eabi-6-2017-q2-update/arm-none-eabi/include/c++/6.3.1/bits/basic_ios.h **** 
 412:/home/zkmike/.local/share/renesas/e2_studio/toolchains/gcc_arm/gcc-arm-none-eabi-6-2017-q2-update/arm-none-eabi/include/c++/6.3.1/bits/basic_ios.h ****       /**
 413:/home/zkmike/.local/share/renesas/e2_studio/toolchains/gcc_arm/gcc-arm-none-eabi-6-2017-q2-update/arm-none-eabi/include/c++/6.3.1/bits/basic_ios.h ****        *  @brief  Squeezes characters.
 414:/home/zkmike/.local/share/renesas/e2_studio/toolchains/gcc_arm/gcc-arm-none-eabi-6-2017-q2-update/arm-none-eabi/include/c++/6.3.1/bits/basic_ios.h ****        *  @param  __c  The character to narrow.
 415:/home/zkmike/.local/share/renesas/e2_studio/toolchains/gcc_arm/gcc-arm-none-eabi-6-2017-q2-update/arm-none-eabi/include/c++/6.3.1/bits/basic_ios.h ****        *  @param  __dfault  The character to narrow.
 416:/home/zkmike/.local/share/renesas/e2_studio/toolchains/gcc_arm/gcc-arm-none-eabi-6-2017-q2-update/arm-none-eabi/include/c++/6.3.1/bits/basic_ios.h ****        *  @return  The narrowed character.
 417:/home/zkmike/.local/share/renesas/e2_studio/toolchains/gcc_arm/gcc-arm-none-eabi-6-2017-q2-update/arm-none-eabi/include/c++/6.3.1/bits/basic_ios.h ****        *
 418:/home/zkmike/.local/share/renesas/e2_studio/toolchains/gcc_arm/gcc-arm-none-eabi-6-2017-q2-update/arm-none-eabi/include/c++/6.3.1/bits/basic_ios.h ****        *  Maps a character of @c char_type to a character of @c char,
 419:/home/zkmike/.local/share/renesas/e2_studio/toolchains/gcc_arm/gcc-arm-none-eabi-6-2017-q2-update/arm-none-eabi/include/c++/6.3.1/bits/basic_ios.h ****        *  if possible.
 420:/home/zkmike/.local/share/renesas/e2_studio/toolchains/gcc_arm/gcc-arm-none-eabi-6-2017-q2-update/arm-none-eabi/include/c++/6.3.1/bits/basic_ios.h ****        *
 421:/home/zkmike/.local/share/renesas/e2_studio/toolchains/gcc_arm/gcc-arm-none-eabi-6-2017-q2-update/arm-none-eabi/include/c++/6.3.1/bits/basic_ios.h ****        *  Returns the result of
 422:/home/zkmike/.local/share/renesas/e2_studio/toolchains/gcc_arm/gcc-arm-none-eabi-6-2017-q2-update/arm-none-eabi/include/c++/6.3.1/bits/basic_ios.h ****        *  @code
 423:/home/zkmike/.local/share/renesas/e2_studio/toolchains/gcc_arm/gcc-arm-none-eabi-6-2017-q2-update/arm-none-eabi/include/c++/6.3.1/bits/basic_ios.h ****        *    std::use_facet<ctype<char_type> >(getloc()).narrow(c,dfault)
 424:/home/zkmike/.local/share/renesas/e2_studio/toolchains/gcc_arm/gcc-arm-none-eabi-6-2017-q2-update/arm-none-eabi/include/c++/6.3.1/bits/basic_ios.h ****        *  @endcode
 425:/home/zkmike/.local/share/renesas/e2_studio/toolchains/gcc_arm/gcc-arm-none-eabi-6-2017-q2-update/arm-none-eabi/include/c++/6.3.1/bits/basic_ios.h ****        *
 426:/home/zkmike/.local/share/renesas/e2_studio/toolchains/gcc_arm/gcc-arm-none-eabi-6-2017-q2-update/arm-none-eabi/include/c++/6.3.1/bits/basic_ios.h ****        *  Additional l10n notes are at
 427:/home/zkmike/.local/share/renesas/e2_studio/toolchains/gcc_arm/gcc-arm-none-eabi-6-2017-q2-update/arm-none-eabi/include/c++/6.3.1/bits/basic_ios.h ****        *  http://gcc.gnu.org/onlinedocs/libstdc++/manual/localization.html
 428:/home/zkmike/.local/share/renesas/e2_studio/toolchains/gcc_arm/gcc-arm-none-eabi-6-2017-q2-update/arm-none-eabi/include/c++/6.3.1/bits/basic_ios.h ****       */
 429:/home/zkmike/.local/share/renesas/e2_studio/toolchains/gcc_arm/gcc-arm-none-eabi-6-2017-q2-update/arm-none-eabi/include/c++/6.3.1/bits/basic_ios.h ****       char
 430:/home/zkmike/.local/share/renesas/e2_studio/toolchains/gcc_arm/gcc-arm-none-eabi-6-2017-q2-update/arm-none-eabi/include/c++/6.3.1/bits/basic_ios.h ****       narrow(char_type __c, char __dfault) const
 431:/home/zkmike/.local/share/renesas/e2_studio/toolchains/gcc_arm/gcc-arm-none-eabi-6-2017-q2-update/arm-none-eabi/include/c++/6.3.1/bits/basic_ios.h ****       { return __check_facet(_M_ctype).narrow(__c, __dfault); }
 432:/home/zkmike/.local/share/renesas/e2_studio/toolchains/gcc_arm/gcc-arm-none-eabi-6-2017-q2-update/arm-none-eabi/include/c++/6.3.1/bits/basic_ios.h **** 
 433:/home/zkmike/.local/share/renesas/e2_studio/toolchains/gcc_arm/gcc-arm-none-eabi-6-2017-q2-update/arm-none-eabi/include/c++/6.3.1/bits/basic_ios.h ****       /**
 434:/home/zkmike/.local/share/renesas/e2_studio/toolchains/gcc_arm/gcc-arm-none-eabi-6-2017-q2-update/arm-none-eabi/include/c++/6.3.1/bits/basic_ios.h ****        *  @brief  Widens characters.
 435:/home/zkmike/.local/share/renesas/e2_studio/toolchains/gcc_arm/gcc-arm-none-eabi-6-2017-q2-update/arm-none-eabi/include/c++/6.3.1/bits/basic_ios.h ****        *  @param  __c  The character to widen.
 436:/home/zkmike/.local/share/renesas/e2_studio/toolchains/gcc_arm/gcc-arm-none-eabi-6-2017-q2-update/arm-none-eabi/include/c++/6.3.1/bits/basic_ios.h ****        *  @return  The widened character.
 437:/home/zkmike/.local/share/renesas/e2_studio/toolchains/gcc_arm/gcc-arm-none-eabi-6-2017-q2-update/arm-none-eabi/include/c++/6.3.1/bits/basic_ios.h ****        *
 438:/home/zkmike/.local/share/renesas/e2_studio/toolchains/gcc_arm/gcc-arm-none-eabi-6-2017-q2-update/arm-none-eabi/include/c++/6.3.1/bits/basic_ios.h ****        *  Maps a character of @c char to a character of @c char_type.
 439:/home/zkmike/.local/share/renesas/e2_studio/toolchains/gcc_arm/gcc-arm-none-eabi-6-2017-q2-update/arm-none-eabi/include/c++/6.3.1/bits/basic_ios.h ****        *
 440:/home/zkmike/.local/share/renesas/e2_studio/toolchains/gcc_arm/gcc-arm-none-eabi-6-2017-q2-update/arm-none-eabi/include/c++/6.3.1/bits/basic_ios.h ****        *  Returns the result of
 441:/home/zkmike/.local/share/renesas/e2_studio/toolchains/gcc_arm/gcc-arm-none-eabi-6-2017-q2-update/arm-none-eabi/include/c++/6.3.1/bits/basic_ios.h ****        *  @code
 442:/home/zkmike/.local/share/renesas/e2_studio/toolchains/gcc_arm/gcc-arm-none-eabi-6-2017-q2-update/arm-none-eabi/include/c++/6.3.1/bits/basic_ios.h ****        *    std::use_facet<ctype<char_type> >(getloc()).widen(c)
 443:/home/zkmike/.local/share/renesas/e2_studio/toolchains/gcc_arm/gcc-arm-none-eabi-6-2017-q2-update/arm-none-eabi/include/c++/6.3.1/bits/basic_ios.h ****        *  @endcode
 444:/home/zkmike/.local/share/renesas/e2_studio/toolchains/gcc_arm/gcc-arm-none-eabi-6-2017-q2-update/arm-none-eabi/include/c++/6.3.1/bits/basic_ios.h ****        *
 445:/home/zkmike/.local/share/renesas/e2_studio/toolchains/gcc_arm/gcc-arm-none-eabi-6-2017-q2-update/arm-none-eabi/include/c++/6.3.1/bits/basic_ios.h ****        *  Additional l10n notes are at
 446:/home/zkmike/.local/share/renesas/e2_studio/toolchains/gcc_arm/gcc-arm-none-eabi-6-2017-q2-update/arm-none-eabi/include/c++/6.3.1/bits/basic_ios.h ****        *  http://gcc.gnu.org/onlinedocs/libstdc++/manual/localization.html
 447:/home/zkmike/.local/share/renesas/e2_studio/toolchains/gcc_arm/gcc-arm-none-eabi-6-2017-q2-update/arm-none-eabi/include/c++/6.3.1/bits/basic_ios.h ****       */
 448:/home/zkmike/.local/share/renesas/e2_studio/toolchains/gcc_arm/gcc-arm-none-eabi-6-2017-q2-update/arm-none-eabi/include/c++/6.3.1/bits/basic_ios.h ****       char_type
 449:/home/zkmike/.local/share/renesas/e2_studio/toolchains/gcc_arm/gcc-arm-none-eabi-6-2017-q2-update/arm-none-eabi/include/c++/6.3.1/bits/basic_ios.h ****       widen(char __c) const
 450:/home/zkmike/.local/share/renesas/e2_studio/toolchains/gcc_arm/gcc-arm-none-eabi-6-2017-q2-update/arm-none-eabi/include/c++/6.3.1/bits/basic_ios.h ****       { return __check_facet(_M_ctype).widen(__c); }
 451:/home/zkmike/.local/share/renesas/e2_studio/toolchains/gcc_arm/gcc-arm-none-eabi-6-2017-q2-update/arm-none-eabi/include/c++/6.3.1/bits/basic_ios.h **** 
 452:/home/zkmike/.local/share/renesas/e2_studio/toolchains/gcc_arm/gcc-arm-none-eabi-6-2017-q2-update/arm-none-eabi/include/c++/6.3.1/bits/basic_ios.h ****     protected:
 453:/home/zkmike/.local/share/renesas/e2_studio/toolchains/gcc_arm/gcc-arm-none-eabi-6-2017-q2-update/arm-none-eabi/include/c++/6.3.1/bits/basic_ios.h ****       // 27.4.5.1  basic_ios constructors
 454:/home/zkmike/.local/share/renesas/e2_studio/toolchains/gcc_arm/gcc-arm-none-eabi-6-2017-q2-update/arm-none-eabi/include/c++/6.3.1/bits/basic_ios.h ****       /**
 455:/home/zkmike/.local/share/renesas/e2_studio/toolchains/gcc_arm/gcc-arm-none-eabi-6-2017-q2-update/arm-none-eabi/include/c++/6.3.1/bits/basic_ios.h ****        *  @brief  Empty.
 456:/home/zkmike/.local/share/renesas/e2_studio/toolchains/gcc_arm/gcc-arm-none-eabi-6-2017-q2-update/arm-none-eabi/include/c++/6.3.1/bits/basic_ios.h ****        *
 457:/home/zkmike/.local/share/renesas/e2_studio/toolchains/gcc_arm/gcc-arm-none-eabi-6-2017-q2-update/arm-none-eabi/include/c++/6.3.1/bits/basic_ios.h ****        *  The default constructor does nothing and is not normally
 458:/home/zkmike/.local/share/renesas/e2_studio/toolchains/gcc_arm/gcc-arm-none-eabi-6-2017-q2-update/arm-none-eabi/include/c++/6.3.1/bits/basic_ios.h ****        *  accessible to users.
 459:/home/zkmike/.local/share/renesas/e2_studio/toolchains/gcc_arm/gcc-arm-none-eabi-6-2017-q2-update/arm-none-eabi/include/c++/6.3.1/bits/basic_ios.h ****       */
 460:/home/zkmike/.local/share/renesas/e2_studio/toolchains/gcc_arm/gcc-arm-none-eabi-6-2017-q2-update/arm-none-eabi/include/c++/6.3.1/bits/basic_ios.h ****       basic_ios()
 461:/home/zkmike/.local/share/renesas/e2_studio/toolchains/gcc_arm/gcc-arm-none-eabi-6-2017-q2-update/arm-none-eabi/include/c++/6.3.1/bits/basic_ios.h ****       : ios_base(), _M_tie(0), _M_fill(char_type()), _M_fill_init(false), 
 462:/home/zkmike/.local/share/renesas/e2_studio/toolchains/gcc_arm/gcc-arm-none-eabi-6-2017-q2-update/arm-none-eabi/include/c++/6.3.1/bits/basic_ios.h **** 	_M_streambuf(0), _M_ctype(0), _M_num_put(0), _M_num_get(0)
 1655              		.loc 13 462 0
 1656 00b0 40008DE2 		add	r0, sp, #64
 1657              	.LVL160:
 1658 00b4 FEFFFFEB 		bl	_ZNSt8ios_baseC2Ev
 1659              	.LVL161:
 1660 00b8 68339FE5 		ldr	r3, .L148
 1661 00bc 40308DE5 		str	r3, [sp, #64]
 1662 00c0 0010A0E3 		mov	r1, #0
 1663 00c4 B0108DE5 		str	r1, [sp, #176]
 1664 00c8 B410CDE5 		strb	r1, [sp, #180]
 1665 00cc B510CDE5 		strb	r1, [sp, #181]
 1666 00d0 B8108DE5 		str	r1, [sp, #184]
 1667 00d4 BC108DE5 		str	r1, [sp, #188]
 1668 00d8 C0108DE5 		str	r1, [sp, #192]
 1669 00dc C4108DE5 		str	r1, [sp, #196]
 1670              	.LVL162:
 1671              	.LBE1205:
 1672              	.LBE1204:
 1673              	.LBE1203:
 1674              	.LBB1206:
 1675              	.LBB1207:
 1676              		.file 14 "/home/zkmike/.local/share/renesas/e2_studio/toolchains/gcc_arm/gcc-arm-none-eabi-6-2017-
   1:/home/zkmike/.local/share/renesas/e2_studio/toolchains/gcc_arm/gcc-arm-none-eabi-6-2017-q2-update/arm-none-eabi/include/c++/6.3.1/ostream **** // Output streams -*- C++ -*-
   2:/home/zkmike/.local/share/renesas/e2_studio/toolchains/gcc_arm/gcc-arm-none-eabi-6-2017-q2-update/arm-none-eabi/include/c++/6.3.1/ostream **** 
   3:/home/zkmike/.local/share/renesas/e2_studio/toolchains/gcc_arm/gcc-arm-none-eabi-6-2017-q2-update/arm-none-eabi/include/c++/6.3.1/ostream **** // Copyright (C) 1997-2016 Free Software Foundation, Inc.
   4:/home/zkmike/.local/share/renesas/e2_studio/toolchains/gcc_arm/gcc-arm-none-eabi-6-2017-q2-update/arm-none-eabi/include/c++/6.3.1/ostream **** //
   5:/home/zkmike/.local/share/renesas/e2_studio/toolchains/gcc_arm/gcc-arm-none-eabi-6-2017-q2-update/arm-none-eabi/include/c++/6.3.1/ostream **** // This file is part of the GNU ISO C++ Library.  This library is free
   6:/home/zkmike/.local/share/renesas/e2_studio/toolchains/gcc_arm/gcc-arm-none-eabi-6-2017-q2-update/arm-none-eabi/include/c++/6.3.1/ostream **** // software; you can redistribute it and/or modify it under the
   7:/home/zkmike/.local/share/renesas/e2_studio/toolchains/gcc_arm/gcc-arm-none-eabi-6-2017-q2-update/arm-none-eabi/include/c++/6.3.1/ostream **** // terms of the GNU General Public License as published by the
   8:/home/zkmike/.local/share/renesas/e2_studio/toolchains/gcc_arm/gcc-arm-none-eabi-6-2017-q2-update/arm-none-eabi/include/c++/6.3.1/ostream **** // Free Software Foundation; either version 3, or (at your option)
   9:/home/zkmike/.local/share/renesas/e2_studio/toolchains/gcc_arm/gcc-arm-none-eabi-6-2017-q2-update/arm-none-eabi/include/c++/6.3.1/ostream **** // any later version.
  10:/home/zkmike/.local/share/renesas/e2_studio/toolchains/gcc_arm/gcc-arm-none-eabi-6-2017-q2-update/arm-none-eabi/include/c++/6.3.1/ostream **** 
  11:/home/zkmike/.local/share/renesas/e2_studio/toolchains/gcc_arm/gcc-arm-none-eabi-6-2017-q2-update/arm-none-eabi/include/c++/6.3.1/ostream **** // This library is distributed in the hope that it will be useful,
  12:/home/zkmike/.local/share/renesas/e2_studio/toolchains/gcc_arm/gcc-arm-none-eabi-6-2017-q2-update/arm-none-eabi/include/c++/6.3.1/ostream **** // but WITHOUT ANY WARRANTY; without even the implied warranty of
  13:/home/zkmike/.local/share/renesas/e2_studio/toolchains/gcc_arm/gcc-arm-none-eabi-6-2017-q2-update/arm-none-eabi/include/c++/6.3.1/ostream **** // MERCHANTABILITY or FITNESS FOR A PARTICULAR PURPOSE.  See the
  14:/home/zkmike/.local/share/renesas/e2_studio/toolchains/gcc_arm/gcc-arm-none-eabi-6-2017-q2-update/arm-none-eabi/include/c++/6.3.1/ostream **** // GNU General Public License for more details.
  15:/home/zkmike/.local/share/renesas/e2_studio/toolchains/gcc_arm/gcc-arm-none-eabi-6-2017-q2-update/arm-none-eabi/include/c++/6.3.1/ostream **** 
  16:/home/zkmike/.local/share/renesas/e2_studio/toolchains/gcc_arm/gcc-arm-none-eabi-6-2017-q2-update/arm-none-eabi/include/c++/6.3.1/ostream **** // Under Section 7 of GPL version 3, you are granted additional
  17:/home/zkmike/.local/share/renesas/e2_studio/toolchains/gcc_arm/gcc-arm-none-eabi-6-2017-q2-update/arm-none-eabi/include/c++/6.3.1/ostream **** // permissions described in the GCC Runtime Library Exception, version
  18:/home/zkmike/.local/share/renesas/e2_studio/toolchains/gcc_arm/gcc-arm-none-eabi-6-2017-q2-update/arm-none-eabi/include/c++/6.3.1/ostream **** // 3.1, as published by the Free Software Foundation.
  19:/home/zkmike/.local/share/renesas/e2_studio/toolchains/gcc_arm/gcc-arm-none-eabi-6-2017-q2-update/arm-none-eabi/include/c++/6.3.1/ostream **** 
  20:/home/zkmike/.local/share/renesas/e2_studio/toolchains/gcc_arm/gcc-arm-none-eabi-6-2017-q2-update/arm-none-eabi/include/c++/6.3.1/ostream **** // You should have received a copy of the GNU General Public License and
  21:/home/zkmike/.local/share/renesas/e2_studio/toolchains/gcc_arm/gcc-arm-none-eabi-6-2017-q2-update/arm-none-eabi/include/c++/6.3.1/ostream **** // a copy of the GCC Runtime Library Exception along with this program;
  22:/home/zkmike/.local/share/renesas/e2_studio/toolchains/gcc_arm/gcc-arm-none-eabi-6-2017-q2-update/arm-none-eabi/include/c++/6.3.1/ostream **** // see the files COPYING3 and COPYING.RUNTIME respectively.  If not, see
  23:/home/zkmike/.local/share/renesas/e2_studio/toolchains/gcc_arm/gcc-arm-none-eabi-6-2017-q2-update/arm-none-eabi/include/c++/6.3.1/ostream **** // <http://www.gnu.org/licenses/>.
  24:/home/zkmike/.local/share/renesas/e2_studio/toolchains/gcc_arm/gcc-arm-none-eabi-6-2017-q2-update/arm-none-eabi/include/c++/6.3.1/ostream **** 
  25:/home/zkmike/.local/share/renesas/e2_studio/toolchains/gcc_arm/gcc-arm-none-eabi-6-2017-q2-update/arm-none-eabi/include/c++/6.3.1/ostream **** /** @file include/ostream
  26:/home/zkmike/.local/share/renesas/e2_studio/toolchains/gcc_arm/gcc-arm-none-eabi-6-2017-q2-update/arm-none-eabi/include/c++/6.3.1/ostream ****  *  This is a Standard C++ Library header.
  27:/home/zkmike/.local/share/renesas/e2_studio/toolchains/gcc_arm/gcc-arm-none-eabi-6-2017-q2-update/arm-none-eabi/include/c++/6.3.1/ostream ****  */
  28:/home/zkmike/.local/share/renesas/e2_studio/toolchains/gcc_arm/gcc-arm-none-eabi-6-2017-q2-update/arm-none-eabi/include/c++/6.3.1/ostream **** 
  29:/home/zkmike/.local/share/renesas/e2_studio/toolchains/gcc_arm/gcc-arm-none-eabi-6-2017-q2-update/arm-none-eabi/include/c++/6.3.1/ostream **** //
  30:/home/zkmike/.local/share/renesas/e2_studio/toolchains/gcc_arm/gcc-arm-none-eabi-6-2017-q2-update/arm-none-eabi/include/c++/6.3.1/ostream **** // ISO C++ 14882: 27.6.2  Output streams
  31:/home/zkmike/.local/share/renesas/e2_studio/toolchains/gcc_arm/gcc-arm-none-eabi-6-2017-q2-update/arm-none-eabi/include/c++/6.3.1/ostream **** //
  32:/home/zkmike/.local/share/renesas/e2_studio/toolchains/gcc_arm/gcc-arm-none-eabi-6-2017-q2-update/arm-none-eabi/include/c++/6.3.1/ostream **** 
  33:/home/zkmike/.local/share/renesas/e2_studio/toolchains/gcc_arm/gcc-arm-none-eabi-6-2017-q2-update/arm-none-eabi/include/c++/6.3.1/ostream **** #ifndef _GLIBCXX_OSTREAM
  34:/home/zkmike/.local/share/renesas/e2_studio/toolchains/gcc_arm/gcc-arm-none-eabi-6-2017-q2-update/arm-none-eabi/include/c++/6.3.1/ostream **** #define _GLIBCXX_OSTREAM 1
  35:/home/zkmike/.local/share/renesas/e2_studio/toolchains/gcc_arm/gcc-arm-none-eabi-6-2017-q2-update/arm-none-eabi/include/c++/6.3.1/ostream **** 
  36:/home/zkmike/.local/share/renesas/e2_studio/toolchains/gcc_arm/gcc-arm-none-eabi-6-2017-q2-update/arm-none-eabi/include/c++/6.3.1/ostream **** #pragma GCC system_header
  37:/home/zkmike/.local/share/renesas/e2_studio/toolchains/gcc_arm/gcc-arm-none-eabi-6-2017-q2-update/arm-none-eabi/include/c++/6.3.1/ostream **** 
  38:/home/zkmike/.local/share/renesas/e2_studio/toolchains/gcc_arm/gcc-arm-none-eabi-6-2017-q2-update/arm-none-eabi/include/c++/6.3.1/ostream **** #include <ios>
  39:/home/zkmike/.local/share/renesas/e2_studio/toolchains/gcc_arm/gcc-arm-none-eabi-6-2017-q2-update/arm-none-eabi/include/c++/6.3.1/ostream **** #include <bits/ostream_insert.h>
  40:/home/zkmike/.local/share/renesas/e2_studio/toolchains/gcc_arm/gcc-arm-none-eabi-6-2017-q2-update/arm-none-eabi/include/c++/6.3.1/ostream **** 
  41:/home/zkmike/.local/share/renesas/e2_studio/toolchains/gcc_arm/gcc-arm-none-eabi-6-2017-q2-update/arm-none-eabi/include/c++/6.3.1/ostream **** namespace std _GLIBCXX_VISIBILITY(default)
  42:/home/zkmike/.local/share/renesas/e2_studio/toolchains/gcc_arm/gcc-arm-none-eabi-6-2017-q2-update/arm-none-eabi/include/c++/6.3.1/ostream **** {
  43:/home/zkmike/.local/share/renesas/e2_studio/toolchains/gcc_arm/gcc-arm-none-eabi-6-2017-q2-update/arm-none-eabi/include/c++/6.3.1/ostream **** _GLIBCXX_BEGIN_NAMESPACE_VERSION
  44:/home/zkmike/.local/share/renesas/e2_studio/toolchains/gcc_arm/gcc-arm-none-eabi-6-2017-q2-update/arm-none-eabi/include/c++/6.3.1/ostream **** 
  45:/home/zkmike/.local/share/renesas/e2_studio/toolchains/gcc_arm/gcc-arm-none-eabi-6-2017-q2-update/arm-none-eabi/include/c++/6.3.1/ostream ****   /**
  46:/home/zkmike/.local/share/renesas/e2_studio/toolchains/gcc_arm/gcc-arm-none-eabi-6-2017-q2-update/arm-none-eabi/include/c++/6.3.1/ostream ****    *  @brief  Template class basic_ostream.
  47:/home/zkmike/.local/share/renesas/e2_studio/toolchains/gcc_arm/gcc-arm-none-eabi-6-2017-q2-update/arm-none-eabi/include/c++/6.3.1/ostream ****    *  @ingroup io
  48:/home/zkmike/.local/share/renesas/e2_studio/toolchains/gcc_arm/gcc-arm-none-eabi-6-2017-q2-update/arm-none-eabi/include/c++/6.3.1/ostream ****    *
  49:/home/zkmike/.local/share/renesas/e2_studio/toolchains/gcc_arm/gcc-arm-none-eabi-6-2017-q2-update/arm-none-eabi/include/c++/6.3.1/ostream ****    *  @tparam _CharT  Type of character stream.
  50:/home/zkmike/.local/share/renesas/e2_studio/toolchains/gcc_arm/gcc-arm-none-eabi-6-2017-q2-update/arm-none-eabi/include/c++/6.3.1/ostream ****    *  @tparam _Traits  Traits for character type, defaults to
  51:/home/zkmike/.local/share/renesas/e2_studio/toolchains/gcc_arm/gcc-arm-none-eabi-6-2017-q2-update/arm-none-eabi/include/c++/6.3.1/ostream ****    *                   char_traits<_CharT>.
  52:/home/zkmike/.local/share/renesas/e2_studio/toolchains/gcc_arm/gcc-arm-none-eabi-6-2017-q2-update/arm-none-eabi/include/c++/6.3.1/ostream ****    *
  53:/home/zkmike/.local/share/renesas/e2_studio/toolchains/gcc_arm/gcc-arm-none-eabi-6-2017-q2-update/arm-none-eabi/include/c++/6.3.1/ostream ****    *  This is the base class for all output streams.  It provides text
  54:/home/zkmike/.local/share/renesas/e2_studio/toolchains/gcc_arm/gcc-arm-none-eabi-6-2017-q2-update/arm-none-eabi/include/c++/6.3.1/ostream ****    *  formatting of all builtin types, and communicates with any class
  55:/home/zkmike/.local/share/renesas/e2_studio/toolchains/gcc_arm/gcc-arm-none-eabi-6-2017-q2-update/arm-none-eabi/include/c++/6.3.1/ostream ****    *  derived from basic_streambuf to do the actual output.
  56:/home/zkmike/.local/share/renesas/e2_studio/toolchains/gcc_arm/gcc-arm-none-eabi-6-2017-q2-update/arm-none-eabi/include/c++/6.3.1/ostream ****   */
  57:/home/zkmike/.local/share/renesas/e2_studio/toolchains/gcc_arm/gcc-arm-none-eabi-6-2017-q2-update/arm-none-eabi/include/c++/6.3.1/ostream ****   template<typename _CharT, typename _Traits>
  58:/home/zkmike/.local/share/renesas/e2_studio/toolchains/gcc_arm/gcc-arm-none-eabi-6-2017-q2-update/arm-none-eabi/include/c++/6.3.1/ostream ****     class basic_ostream : virtual public basic_ios<_CharT, _Traits>
  59:/home/zkmike/.local/share/renesas/e2_studio/toolchains/gcc_arm/gcc-arm-none-eabi-6-2017-q2-update/arm-none-eabi/include/c++/6.3.1/ostream ****     {
  60:/home/zkmike/.local/share/renesas/e2_studio/toolchains/gcc_arm/gcc-arm-none-eabi-6-2017-q2-update/arm-none-eabi/include/c++/6.3.1/ostream ****     public:
  61:/home/zkmike/.local/share/renesas/e2_studio/toolchains/gcc_arm/gcc-arm-none-eabi-6-2017-q2-update/arm-none-eabi/include/c++/6.3.1/ostream ****       // Types (inherited from basic_ios):
  62:/home/zkmike/.local/share/renesas/e2_studio/toolchains/gcc_arm/gcc-arm-none-eabi-6-2017-q2-update/arm-none-eabi/include/c++/6.3.1/ostream ****       typedef _CharT			 		char_type;
  63:/home/zkmike/.local/share/renesas/e2_studio/toolchains/gcc_arm/gcc-arm-none-eabi-6-2017-q2-update/arm-none-eabi/include/c++/6.3.1/ostream ****       typedef typename _Traits::int_type 		int_type;
  64:/home/zkmike/.local/share/renesas/e2_studio/toolchains/gcc_arm/gcc-arm-none-eabi-6-2017-q2-update/arm-none-eabi/include/c++/6.3.1/ostream ****       typedef typename _Traits::pos_type 		pos_type;
  65:/home/zkmike/.local/share/renesas/e2_studio/toolchains/gcc_arm/gcc-arm-none-eabi-6-2017-q2-update/arm-none-eabi/include/c++/6.3.1/ostream ****       typedef typename _Traits::off_type 		off_type;
  66:/home/zkmike/.local/share/renesas/e2_studio/toolchains/gcc_arm/gcc-arm-none-eabi-6-2017-q2-update/arm-none-eabi/include/c++/6.3.1/ostream ****       typedef _Traits			 		traits_type;
  67:/home/zkmike/.local/share/renesas/e2_studio/toolchains/gcc_arm/gcc-arm-none-eabi-6-2017-q2-update/arm-none-eabi/include/c++/6.3.1/ostream **** 
  68:/home/zkmike/.local/share/renesas/e2_studio/toolchains/gcc_arm/gcc-arm-none-eabi-6-2017-q2-update/arm-none-eabi/include/c++/6.3.1/ostream ****       // Non-standard Types:
  69:/home/zkmike/.local/share/renesas/e2_studio/toolchains/gcc_arm/gcc-arm-none-eabi-6-2017-q2-update/arm-none-eabi/include/c++/6.3.1/ostream ****       typedef basic_streambuf<_CharT, _Traits> 		__streambuf_type;
  70:/home/zkmike/.local/share/renesas/e2_studio/toolchains/gcc_arm/gcc-arm-none-eabi-6-2017-q2-update/arm-none-eabi/include/c++/6.3.1/ostream ****       typedef basic_ios<_CharT, _Traits>		__ios_type;
  71:/home/zkmike/.local/share/renesas/e2_studio/toolchains/gcc_arm/gcc-arm-none-eabi-6-2017-q2-update/arm-none-eabi/include/c++/6.3.1/ostream ****       typedef basic_ostream<_CharT, _Traits>		__ostream_type;
  72:/home/zkmike/.local/share/renesas/e2_studio/toolchains/gcc_arm/gcc-arm-none-eabi-6-2017-q2-update/arm-none-eabi/include/c++/6.3.1/ostream ****       typedef num_put<_CharT, ostreambuf_iterator<_CharT, _Traits> >
  73:/home/zkmike/.local/share/renesas/e2_studio/toolchains/gcc_arm/gcc-arm-none-eabi-6-2017-q2-update/arm-none-eabi/include/c++/6.3.1/ostream ****       							__num_put_type;
  74:/home/zkmike/.local/share/renesas/e2_studio/toolchains/gcc_arm/gcc-arm-none-eabi-6-2017-q2-update/arm-none-eabi/include/c++/6.3.1/ostream ****       typedef ctype<_CharT>	      			__ctype_type;
  75:/home/zkmike/.local/share/renesas/e2_studio/toolchains/gcc_arm/gcc-arm-none-eabi-6-2017-q2-update/arm-none-eabi/include/c++/6.3.1/ostream **** 
  76:/home/zkmike/.local/share/renesas/e2_studio/toolchains/gcc_arm/gcc-arm-none-eabi-6-2017-q2-update/arm-none-eabi/include/c++/6.3.1/ostream ****       /**
  77:/home/zkmike/.local/share/renesas/e2_studio/toolchains/gcc_arm/gcc-arm-none-eabi-6-2017-q2-update/arm-none-eabi/include/c++/6.3.1/ostream ****        *  @brief  Base constructor.
  78:/home/zkmike/.local/share/renesas/e2_studio/toolchains/gcc_arm/gcc-arm-none-eabi-6-2017-q2-update/arm-none-eabi/include/c++/6.3.1/ostream ****        *
  79:/home/zkmike/.local/share/renesas/e2_studio/toolchains/gcc_arm/gcc-arm-none-eabi-6-2017-q2-update/arm-none-eabi/include/c++/6.3.1/ostream ****        *  This ctor is almost never called by the user directly, rather from
  80:/home/zkmike/.local/share/renesas/e2_studio/toolchains/gcc_arm/gcc-arm-none-eabi-6-2017-q2-update/arm-none-eabi/include/c++/6.3.1/ostream ****        *  derived classes' initialization lists, which pass a pointer to
  81:/home/zkmike/.local/share/renesas/e2_studio/toolchains/gcc_arm/gcc-arm-none-eabi-6-2017-q2-update/arm-none-eabi/include/c++/6.3.1/ostream ****        *  their own stream buffer.
  82:/home/zkmike/.local/share/renesas/e2_studio/toolchains/gcc_arm/gcc-arm-none-eabi-6-2017-q2-update/arm-none-eabi/include/c++/6.3.1/ostream ****       */
  83:/home/zkmike/.local/share/renesas/e2_studio/toolchains/gcc_arm/gcc-arm-none-eabi-6-2017-q2-update/arm-none-eabi/include/c++/6.3.1/ostream ****       explicit
  84:/home/zkmike/.local/share/renesas/e2_studio/toolchains/gcc_arm/gcc-arm-none-eabi-6-2017-q2-update/arm-none-eabi/include/c++/6.3.1/ostream ****       basic_ostream(__streambuf_type* __sb)
  85:/home/zkmike/.local/share/renesas/e2_studio/toolchains/gcc_arm/gcc-arm-none-eabi-6-2017-q2-update/arm-none-eabi/include/c++/6.3.1/ostream ****       { this->init(__sb); }
  86:/home/zkmike/.local/share/renesas/e2_studio/toolchains/gcc_arm/gcc-arm-none-eabi-6-2017-q2-update/arm-none-eabi/include/c++/6.3.1/ostream **** 
  87:/home/zkmike/.local/share/renesas/e2_studio/toolchains/gcc_arm/gcc-arm-none-eabi-6-2017-q2-update/arm-none-eabi/include/c++/6.3.1/ostream ****       /**
  88:/home/zkmike/.local/share/renesas/e2_studio/toolchains/gcc_arm/gcc-arm-none-eabi-6-2017-q2-update/arm-none-eabi/include/c++/6.3.1/ostream ****        *  @brief  Base destructor.
  89:/home/zkmike/.local/share/renesas/e2_studio/toolchains/gcc_arm/gcc-arm-none-eabi-6-2017-q2-update/arm-none-eabi/include/c++/6.3.1/ostream ****        *
  90:/home/zkmike/.local/share/renesas/e2_studio/toolchains/gcc_arm/gcc-arm-none-eabi-6-2017-q2-update/arm-none-eabi/include/c++/6.3.1/ostream ****        *  This does very little apart from providing a virtual base dtor.
  91:/home/zkmike/.local/share/renesas/e2_studio/toolchains/gcc_arm/gcc-arm-none-eabi-6-2017-q2-update/arm-none-eabi/include/c++/6.3.1/ostream ****       */
  92:/home/zkmike/.local/share/renesas/e2_studio/toolchains/gcc_arm/gcc-arm-none-eabi-6-2017-q2-update/arm-none-eabi/include/c++/6.3.1/ostream ****       virtual
  93:/home/zkmike/.local/share/renesas/e2_studio/toolchains/gcc_arm/gcc-arm-none-eabi-6-2017-q2-update/arm-none-eabi/include/c++/6.3.1/ostream ****       ~basic_ostream() { }
  94:/home/zkmike/.local/share/renesas/e2_studio/toolchains/gcc_arm/gcc-arm-none-eabi-6-2017-q2-update/arm-none-eabi/include/c++/6.3.1/ostream **** 
  95:/home/zkmike/.local/share/renesas/e2_studio/toolchains/gcc_arm/gcc-arm-none-eabi-6-2017-q2-update/arm-none-eabi/include/c++/6.3.1/ostream ****       /// Safe prefix/suffix operations.
  96:/home/zkmike/.local/share/renesas/e2_studio/toolchains/gcc_arm/gcc-arm-none-eabi-6-2017-q2-update/arm-none-eabi/include/c++/6.3.1/ostream ****       class sentry;
  97:/home/zkmike/.local/share/renesas/e2_studio/toolchains/gcc_arm/gcc-arm-none-eabi-6-2017-q2-update/arm-none-eabi/include/c++/6.3.1/ostream ****       friend class sentry;
  98:/home/zkmike/.local/share/renesas/e2_studio/toolchains/gcc_arm/gcc-arm-none-eabi-6-2017-q2-update/arm-none-eabi/include/c++/6.3.1/ostream **** 
  99:/home/zkmike/.local/share/renesas/e2_studio/toolchains/gcc_arm/gcc-arm-none-eabi-6-2017-q2-update/arm-none-eabi/include/c++/6.3.1/ostream ****       //@{
 100:/home/zkmike/.local/share/renesas/e2_studio/toolchains/gcc_arm/gcc-arm-none-eabi-6-2017-q2-update/arm-none-eabi/include/c++/6.3.1/ostream ****       /**
 101:/home/zkmike/.local/share/renesas/e2_studio/toolchains/gcc_arm/gcc-arm-none-eabi-6-2017-q2-update/arm-none-eabi/include/c++/6.3.1/ostream ****        *  @brief  Interface for manipulators.
 102:/home/zkmike/.local/share/renesas/e2_studio/toolchains/gcc_arm/gcc-arm-none-eabi-6-2017-q2-update/arm-none-eabi/include/c++/6.3.1/ostream ****        *
 103:/home/zkmike/.local/share/renesas/e2_studio/toolchains/gcc_arm/gcc-arm-none-eabi-6-2017-q2-update/arm-none-eabi/include/c++/6.3.1/ostream ****        *  Manipulators such as @c std::endl and @c std::hex use these
 104:/home/zkmike/.local/share/renesas/e2_studio/toolchains/gcc_arm/gcc-arm-none-eabi-6-2017-q2-update/arm-none-eabi/include/c++/6.3.1/ostream ****        *  functions in constructs like "std::cout << std::endl".  For more
 105:/home/zkmike/.local/share/renesas/e2_studio/toolchains/gcc_arm/gcc-arm-none-eabi-6-2017-q2-update/arm-none-eabi/include/c++/6.3.1/ostream ****        *  information, see the iomanip header.
 106:/home/zkmike/.local/share/renesas/e2_studio/toolchains/gcc_arm/gcc-arm-none-eabi-6-2017-q2-update/arm-none-eabi/include/c++/6.3.1/ostream ****       */
 107:/home/zkmike/.local/share/renesas/e2_studio/toolchains/gcc_arm/gcc-arm-none-eabi-6-2017-q2-update/arm-none-eabi/include/c++/6.3.1/ostream ****       __ostream_type&
 108:/home/zkmike/.local/share/renesas/e2_studio/toolchains/gcc_arm/gcc-arm-none-eabi-6-2017-q2-update/arm-none-eabi/include/c++/6.3.1/ostream ****       operator<<(__ostream_type& (*__pf)(__ostream_type&))
 109:/home/zkmike/.local/share/renesas/e2_studio/toolchains/gcc_arm/gcc-arm-none-eabi-6-2017-q2-update/arm-none-eabi/include/c++/6.3.1/ostream ****       {
 110:/home/zkmike/.local/share/renesas/e2_studio/toolchains/gcc_arm/gcc-arm-none-eabi-6-2017-q2-update/arm-none-eabi/include/c++/6.3.1/ostream **** 	// _GLIBCXX_RESOLVE_LIB_DEFECTS
 111:/home/zkmike/.local/share/renesas/e2_studio/toolchains/gcc_arm/gcc-arm-none-eabi-6-2017-q2-update/arm-none-eabi/include/c++/6.3.1/ostream **** 	// DR 60. What is a formatted input function?
 112:/home/zkmike/.local/share/renesas/e2_studio/toolchains/gcc_arm/gcc-arm-none-eabi-6-2017-q2-update/arm-none-eabi/include/c++/6.3.1/ostream **** 	// The inserters for manipulators are *not* formatted output functions.
 113:/home/zkmike/.local/share/renesas/e2_studio/toolchains/gcc_arm/gcc-arm-none-eabi-6-2017-q2-update/arm-none-eabi/include/c++/6.3.1/ostream **** 	return __pf(*this);
 114:/home/zkmike/.local/share/renesas/e2_studio/toolchains/gcc_arm/gcc-arm-none-eabi-6-2017-q2-update/arm-none-eabi/include/c++/6.3.1/ostream ****       }
 115:/home/zkmike/.local/share/renesas/e2_studio/toolchains/gcc_arm/gcc-arm-none-eabi-6-2017-q2-update/arm-none-eabi/include/c++/6.3.1/ostream **** 
 116:/home/zkmike/.local/share/renesas/e2_studio/toolchains/gcc_arm/gcc-arm-none-eabi-6-2017-q2-update/arm-none-eabi/include/c++/6.3.1/ostream ****       __ostream_type&
 117:/home/zkmike/.local/share/renesas/e2_studio/toolchains/gcc_arm/gcc-arm-none-eabi-6-2017-q2-update/arm-none-eabi/include/c++/6.3.1/ostream ****       operator<<(__ios_type& (*__pf)(__ios_type&))
 118:/home/zkmike/.local/share/renesas/e2_studio/toolchains/gcc_arm/gcc-arm-none-eabi-6-2017-q2-update/arm-none-eabi/include/c++/6.3.1/ostream ****       {
 119:/home/zkmike/.local/share/renesas/e2_studio/toolchains/gcc_arm/gcc-arm-none-eabi-6-2017-q2-update/arm-none-eabi/include/c++/6.3.1/ostream **** 	// _GLIBCXX_RESOLVE_LIB_DEFECTS
 120:/home/zkmike/.local/share/renesas/e2_studio/toolchains/gcc_arm/gcc-arm-none-eabi-6-2017-q2-update/arm-none-eabi/include/c++/6.3.1/ostream **** 	// DR 60. What is a formatted input function?
 121:/home/zkmike/.local/share/renesas/e2_studio/toolchains/gcc_arm/gcc-arm-none-eabi-6-2017-q2-update/arm-none-eabi/include/c++/6.3.1/ostream **** 	// The inserters for manipulators are *not* formatted output functions.
 122:/home/zkmike/.local/share/renesas/e2_studio/toolchains/gcc_arm/gcc-arm-none-eabi-6-2017-q2-update/arm-none-eabi/include/c++/6.3.1/ostream **** 	__pf(*this);
 123:/home/zkmike/.local/share/renesas/e2_studio/toolchains/gcc_arm/gcc-arm-none-eabi-6-2017-q2-update/arm-none-eabi/include/c++/6.3.1/ostream **** 	return *this;
 124:/home/zkmike/.local/share/renesas/e2_studio/toolchains/gcc_arm/gcc-arm-none-eabi-6-2017-q2-update/arm-none-eabi/include/c++/6.3.1/ostream ****       }
 125:/home/zkmike/.local/share/renesas/e2_studio/toolchains/gcc_arm/gcc-arm-none-eabi-6-2017-q2-update/arm-none-eabi/include/c++/6.3.1/ostream **** 
 126:/home/zkmike/.local/share/renesas/e2_studio/toolchains/gcc_arm/gcc-arm-none-eabi-6-2017-q2-update/arm-none-eabi/include/c++/6.3.1/ostream ****       __ostream_type&
 127:/home/zkmike/.local/share/renesas/e2_studio/toolchains/gcc_arm/gcc-arm-none-eabi-6-2017-q2-update/arm-none-eabi/include/c++/6.3.1/ostream ****       operator<<(ios_base& (*__pf) (ios_base&))
 128:/home/zkmike/.local/share/renesas/e2_studio/toolchains/gcc_arm/gcc-arm-none-eabi-6-2017-q2-update/arm-none-eabi/include/c++/6.3.1/ostream ****       {
 129:/home/zkmike/.local/share/renesas/e2_studio/toolchains/gcc_arm/gcc-arm-none-eabi-6-2017-q2-update/arm-none-eabi/include/c++/6.3.1/ostream **** 	// _GLIBCXX_RESOLVE_LIB_DEFECTS
 130:/home/zkmike/.local/share/renesas/e2_studio/toolchains/gcc_arm/gcc-arm-none-eabi-6-2017-q2-update/arm-none-eabi/include/c++/6.3.1/ostream **** 	// DR 60. What is a formatted input function?
 131:/home/zkmike/.local/share/renesas/e2_studio/toolchains/gcc_arm/gcc-arm-none-eabi-6-2017-q2-update/arm-none-eabi/include/c++/6.3.1/ostream **** 	// The inserters for manipulators are *not* formatted output functions.
 132:/home/zkmike/.local/share/renesas/e2_studio/toolchains/gcc_arm/gcc-arm-none-eabi-6-2017-q2-update/arm-none-eabi/include/c++/6.3.1/ostream **** 	__pf(*this);
 133:/home/zkmike/.local/share/renesas/e2_studio/toolchains/gcc_arm/gcc-arm-none-eabi-6-2017-q2-update/arm-none-eabi/include/c++/6.3.1/ostream **** 	return *this;
 134:/home/zkmike/.local/share/renesas/e2_studio/toolchains/gcc_arm/gcc-arm-none-eabi-6-2017-q2-update/arm-none-eabi/include/c++/6.3.1/ostream ****       }
 135:/home/zkmike/.local/share/renesas/e2_studio/toolchains/gcc_arm/gcc-arm-none-eabi-6-2017-q2-update/arm-none-eabi/include/c++/6.3.1/ostream ****       //@}
 136:/home/zkmike/.local/share/renesas/e2_studio/toolchains/gcc_arm/gcc-arm-none-eabi-6-2017-q2-update/arm-none-eabi/include/c++/6.3.1/ostream **** 
 137:/home/zkmike/.local/share/renesas/e2_studio/toolchains/gcc_arm/gcc-arm-none-eabi-6-2017-q2-update/arm-none-eabi/include/c++/6.3.1/ostream ****       //@{
 138:/home/zkmike/.local/share/renesas/e2_studio/toolchains/gcc_arm/gcc-arm-none-eabi-6-2017-q2-update/arm-none-eabi/include/c++/6.3.1/ostream ****       /**
 139:/home/zkmike/.local/share/renesas/e2_studio/toolchains/gcc_arm/gcc-arm-none-eabi-6-2017-q2-update/arm-none-eabi/include/c++/6.3.1/ostream ****        *  @name Inserters
 140:/home/zkmike/.local/share/renesas/e2_studio/toolchains/gcc_arm/gcc-arm-none-eabi-6-2017-q2-update/arm-none-eabi/include/c++/6.3.1/ostream ****        *
 141:/home/zkmike/.local/share/renesas/e2_studio/toolchains/gcc_arm/gcc-arm-none-eabi-6-2017-q2-update/arm-none-eabi/include/c++/6.3.1/ostream ****        *  All the @c operator<< functions (aka <em>formatted output
 142:/home/zkmike/.local/share/renesas/e2_studio/toolchains/gcc_arm/gcc-arm-none-eabi-6-2017-q2-update/arm-none-eabi/include/c++/6.3.1/ostream ****        *  functions</em>) have some common behavior.  Each starts by
 143:/home/zkmike/.local/share/renesas/e2_studio/toolchains/gcc_arm/gcc-arm-none-eabi-6-2017-q2-update/arm-none-eabi/include/c++/6.3.1/ostream ****        *  constructing a temporary object of type std::basic_ostream::sentry.
 144:/home/zkmike/.local/share/renesas/e2_studio/toolchains/gcc_arm/gcc-arm-none-eabi-6-2017-q2-update/arm-none-eabi/include/c++/6.3.1/ostream ****        *  This can have several effects, concluding with the setting of a
 145:/home/zkmike/.local/share/renesas/e2_studio/toolchains/gcc_arm/gcc-arm-none-eabi-6-2017-q2-update/arm-none-eabi/include/c++/6.3.1/ostream ****        *  status flag; see the sentry documentation for more.
 146:/home/zkmike/.local/share/renesas/e2_studio/toolchains/gcc_arm/gcc-arm-none-eabi-6-2017-q2-update/arm-none-eabi/include/c++/6.3.1/ostream ****        *
 147:/home/zkmike/.local/share/renesas/e2_studio/toolchains/gcc_arm/gcc-arm-none-eabi-6-2017-q2-update/arm-none-eabi/include/c++/6.3.1/ostream ****        *  If the sentry status is good, the function tries to generate
 148:/home/zkmike/.local/share/renesas/e2_studio/toolchains/gcc_arm/gcc-arm-none-eabi-6-2017-q2-update/arm-none-eabi/include/c++/6.3.1/ostream ****        *  whatever data is appropriate for the type of the argument.
 149:/home/zkmike/.local/share/renesas/e2_studio/toolchains/gcc_arm/gcc-arm-none-eabi-6-2017-q2-update/arm-none-eabi/include/c++/6.3.1/ostream ****        *
 150:/home/zkmike/.local/share/renesas/e2_studio/toolchains/gcc_arm/gcc-arm-none-eabi-6-2017-q2-update/arm-none-eabi/include/c++/6.3.1/ostream ****        *  If an exception is thrown during insertion, ios_base::badbit
 151:/home/zkmike/.local/share/renesas/e2_studio/toolchains/gcc_arm/gcc-arm-none-eabi-6-2017-q2-update/arm-none-eabi/include/c++/6.3.1/ostream ****        *  will be turned on in the stream's error state without causing an
 152:/home/zkmike/.local/share/renesas/e2_studio/toolchains/gcc_arm/gcc-arm-none-eabi-6-2017-q2-update/arm-none-eabi/include/c++/6.3.1/ostream ****        *  ios_base::failure to be thrown.  The original exception will then
 153:/home/zkmike/.local/share/renesas/e2_studio/toolchains/gcc_arm/gcc-arm-none-eabi-6-2017-q2-update/arm-none-eabi/include/c++/6.3.1/ostream ****        *  be rethrown.
 154:/home/zkmike/.local/share/renesas/e2_studio/toolchains/gcc_arm/gcc-arm-none-eabi-6-2017-q2-update/arm-none-eabi/include/c++/6.3.1/ostream ****       */
 155:/home/zkmike/.local/share/renesas/e2_studio/toolchains/gcc_arm/gcc-arm-none-eabi-6-2017-q2-update/arm-none-eabi/include/c++/6.3.1/ostream **** 
 156:/home/zkmike/.local/share/renesas/e2_studio/toolchains/gcc_arm/gcc-arm-none-eabi-6-2017-q2-update/arm-none-eabi/include/c++/6.3.1/ostream ****       //@{
 157:/home/zkmike/.local/share/renesas/e2_studio/toolchains/gcc_arm/gcc-arm-none-eabi-6-2017-q2-update/arm-none-eabi/include/c++/6.3.1/ostream ****       /**
 158:/home/zkmike/.local/share/renesas/e2_studio/toolchains/gcc_arm/gcc-arm-none-eabi-6-2017-q2-update/arm-none-eabi/include/c++/6.3.1/ostream ****        *  @brief Integer arithmetic inserters
 159:/home/zkmike/.local/share/renesas/e2_studio/toolchains/gcc_arm/gcc-arm-none-eabi-6-2017-q2-update/arm-none-eabi/include/c++/6.3.1/ostream ****        *  @param  __n A variable of builtin integral type.
 160:/home/zkmike/.local/share/renesas/e2_studio/toolchains/gcc_arm/gcc-arm-none-eabi-6-2017-q2-update/arm-none-eabi/include/c++/6.3.1/ostream ****        *  @return  @c *this if successful
 161:/home/zkmike/.local/share/renesas/e2_studio/toolchains/gcc_arm/gcc-arm-none-eabi-6-2017-q2-update/arm-none-eabi/include/c++/6.3.1/ostream ****        *
 162:/home/zkmike/.local/share/renesas/e2_studio/toolchains/gcc_arm/gcc-arm-none-eabi-6-2017-q2-update/arm-none-eabi/include/c++/6.3.1/ostream ****        *  These functions use the stream's current locale (specifically, the
 163:/home/zkmike/.local/share/renesas/e2_studio/toolchains/gcc_arm/gcc-arm-none-eabi-6-2017-q2-update/arm-none-eabi/include/c++/6.3.1/ostream ****        *  @c num_get facet) to perform numeric formatting.
 164:/home/zkmike/.local/share/renesas/e2_studio/toolchains/gcc_arm/gcc-arm-none-eabi-6-2017-q2-update/arm-none-eabi/include/c++/6.3.1/ostream ****       */
 165:/home/zkmike/.local/share/renesas/e2_studio/toolchains/gcc_arm/gcc-arm-none-eabi-6-2017-q2-update/arm-none-eabi/include/c++/6.3.1/ostream ****       __ostream_type&
 166:/home/zkmike/.local/share/renesas/e2_studio/toolchains/gcc_arm/gcc-arm-none-eabi-6-2017-q2-update/arm-none-eabi/include/c++/6.3.1/ostream ****       operator<<(long __n)
 167:/home/zkmike/.local/share/renesas/e2_studio/toolchains/gcc_arm/gcc-arm-none-eabi-6-2017-q2-update/arm-none-eabi/include/c++/6.3.1/ostream ****       { return _M_insert(__n); }
 168:/home/zkmike/.local/share/renesas/e2_studio/toolchains/gcc_arm/gcc-arm-none-eabi-6-2017-q2-update/arm-none-eabi/include/c++/6.3.1/ostream **** 
 169:/home/zkmike/.local/share/renesas/e2_studio/toolchains/gcc_arm/gcc-arm-none-eabi-6-2017-q2-update/arm-none-eabi/include/c++/6.3.1/ostream ****       __ostream_type&
 170:/home/zkmike/.local/share/renesas/e2_studio/toolchains/gcc_arm/gcc-arm-none-eabi-6-2017-q2-update/arm-none-eabi/include/c++/6.3.1/ostream ****       operator<<(unsigned long __n)
 171:/home/zkmike/.local/share/renesas/e2_studio/toolchains/gcc_arm/gcc-arm-none-eabi-6-2017-q2-update/arm-none-eabi/include/c++/6.3.1/ostream ****       { return _M_insert(__n); }
 172:/home/zkmike/.local/share/renesas/e2_studio/toolchains/gcc_arm/gcc-arm-none-eabi-6-2017-q2-update/arm-none-eabi/include/c++/6.3.1/ostream **** 
 173:/home/zkmike/.local/share/renesas/e2_studio/toolchains/gcc_arm/gcc-arm-none-eabi-6-2017-q2-update/arm-none-eabi/include/c++/6.3.1/ostream ****       __ostream_type&
 174:/home/zkmike/.local/share/renesas/e2_studio/toolchains/gcc_arm/gcc-arm-none-eabi-6-2017-q2-update/arm-none-eabi/include/c++/6.3.1/ostream ****       operator<<(bool __n)
 175:/home/zkmike/.local/share/renesas/e2_studio/toolchains/gcc_arm/gcc-arm-none-eabi-6-2017-q2-update/arm-none-eabi/include/c++/6.3.1/ostream ****       { return _M_insert(__n); }
 176:/home/zkmike/.local/share/renesas/e2_studio/toolchains/gcc_arm/gcc-arm-none-eabi-6-2017-q2-update/arm-none-eabi/include/c++/6.3.1/ostream **** 
 177:/home/zkmike/.local/share/renesas/e2_studio/toolchains/gcc_arm/gcc-arm-none-eabi-6-2017-q2-update/arm-none-eabi/include/c++/6.3.1/ostream ****       __ostream_type&
 178:/home/zkmike/.local/share/renesas/e2_studio/toolchains/gcc_arm/gcc-arm-none-eabi-6-2017-q2-update/arm-none-eabi/include/c++/6.3.1/ostream ****       operator<<(short __n);
 179:/home/zkmike/.local/share/renesas/e2_studio/toolchains/gcc_arm/gcc-arm-none-eabi-6-2017-q2-update/arm-none-eabi/include/c++/6.3.1/ostream **** 
 180:/home/zkmike/.local/share/renesas/e2_studio/toolchains/gcc_arm/gcc-arm-none-eabi-6-2017-q2-update/arm-none-eabi/include/c++/6.3.1/ostream ****       __ostream_type&
 181:/home/zkmike/.local/share/renesas/e2_studio/toolchains/gcc_arm/gcc-arm-none-eabi-6-2017-q2-update/arm-none-eabi/include/c++/6.3.1/ostream ****       operator<<(unsigned short __n)
 182:/home/zkmike/.local/share/renesas/e2_studio/toolchains/gcc_arm/gcc-arm-none-eabi-6-2017-q2-update/arm-none-eabi/include/c++/6.3.1/ostream ****       {
 183:/home/zkmike/.local/share/renesas/e2_studio/toolchains/gcc_arm/gcc-arm-none-eabi-6-2017-q2-update/arm-none-eabi/include/c++/6.3.1/ostream **** 	// _GLIBCXX_RESOLVE_LIB_DEFECTS
 184:/home/zkmike/.local/share/renesas/e2_studio/toolchains/gcc_arm/gcc-arm-none-eabi-6-2017-q2-update/arm-none-eabi/include/c++/6.3.1/ostream **** 	// 117. basic_ostream uses nonexistent num_put member functions.
 185:/home/zkmike/.local/share/renesas/e2_studio/toolchains/gcc_arm/gcc-arm-none-eabi-6-2017-q2-update/arm-none-eabi/include/c++/6.3.1/ostream **** 	return _M_insert(static_cast<unsigned long>(__n));
 186:/home/zkmike/.local/share/renesas/e2_studio/toolchains/gcc_arm/gcc-arm-none-eabi-6-2017-q2-update/arm-none-eabi/include/c++/6.3.1/ostream ****       }
 187:/home/zkmike/.local/share/renesas/e2_studio/toolchains/gcc_arm/gcc-arm-none-eabi-6-2017-q2-update/arm-none-eabi/include/c++/6.3.1/ostream **** 
 188:/home/zkmike/.local/share/renesas/e2_studio/toolchains/gcc_arm/gcc-arm-none-eabi-6-2017-q2-update/arm-none-eabi/include/c++/6.3.1/ostream ****       __ostream_type&
 189:/home/zkmike/.local/share/renesas/e2_studio/toolchains/gcc_arm/gcc-arm-none-eabi-6-2017-q2-update/arm-none-eabi/include/c++/6.3.1/ostream ****       operator<<(int __n);
 190:/home/zkmike/.local/share/renesas/e2_studio/toolchains/gcc_arm/gcc-arm-none-eabi-6-2017-q2-update/arm-none-eabi/include/c++/6.3.1/ostream **** 
 191:/home/zkmike/.local/share/renesas/e2_studio/toolchains/gcc_arm/gcc-arm-none-eabi-6-2017-q2-update/arm-none-eabi/include/c++/6.3.1/ostream ****       __ostream_type&
 192:/home/zkmike/.local/share/renesas/e2_studio/toolchains/gcc_arm/gcc-arm-none-eabi-6-2017-q2-update/arm-none-eabi/include/c++/6.3.1/ostream ****       operator<<(unsigned int __n)
 193:/home/zkmike/.local/share/renesas/e2_studio/toolchains/gcc_arm/gcc-arm-none-eabi-6-2017-q2-update/arm-none-eabi/include/c++/6.3.1/ostream ****       {
 194:/home/zkmike/.local/share/renesas/e2_studio/toolchains/gcc_arm/gcc-arm-none-eabi-6-2017-q2-update/arm-none-eabi/include/c++/6.3.1/ostream **** 	// _GLIBCXX_RESOLVE_LIB_DEFECTS
 195:/home/zkmike/.local/share/renesas/e2_studio/toolchains/gcc_arm/gcc-arm-none-eabi-6-2017-q2-update/arm-none-eabi/include/c++/6.3.1/ostream **** 	// 117. basic_ostream uses nonexistent num_put member functions.
 196:/home/zkmike/.local/share/renesas/e2_studio/toolchains/gcc_arm/gcc-arm-none-eabi-6-2017-q2-update/arm-none-eabi/include/c++/6.3.1/ostream **** 	return _M_insert(static_cast<unsigned long>(__n));
 197:/home/zkmike/.local/share/renesas/e2_studio/toolchains/gcc_arm/gcc-arm-none-eabi-6-2017-q2-update/arm-none-eabi/include/c++/6.3.1/ostream ****       }
 198:/home/zkmike/.local/share/renesas/e2_studio/toolchains/gcc_arm/gcc-arm-none-eabi-6-2017-q2-update/arm-none-eabi/include/c++/6.3.1/ostream **** 
 199:/home/zkmike/.local/share/renesas/e2_studio/toolchains/gcc_arm/gcc-arm-none-eabi-6-2017-q2-update/arm-none-eabi/include/c++/6.3.1/ostream **** #ifdef _GLIBCXX_USE_LONG_LONG
 200:/home/zkmike/.local/share/renesas/e2_studio/toolchains/gcc_arm/gcc-arm-none-eabi-6-2017-q2-update/arm-none-eabi/include/c++/6.3.1/ostream ****       __ostream_type&
 201:/home/zkmike/.local/share/renesas/e2_studio/toolchains/gcc_arm/gcc-arm-none-eabi-6-2017-q2-update/arm-none-eabi/include/c++/6.3.1/ostream ****       operator<<(long long __n)
 202:/home/zkmike/.local/share/renesas/e2_studio/toolchains/gcc_arm/gcc-arm-none-eabi-6-2017-q2-update/arm-none-eabi/include/c++/6.3.1/ostream ****       { return _M_insert(__n); }
 203:/home/zkmike/.local/share/renesas/e2_studio/toolchains/gcc_arm/gcc-arm-none-eabi-6-2017-q2-update/arm-none-eabi/include/c++/6.3.1/ostream **** 
 204:/home/zkmike/.local/share/renesas/e2_studio/toolchains/gcc_arm/gcc-arm-none-eabi-6-2017-q2-update/arm-none-eabi/include/c++/6.3.1/ostream ****       __ostream_type&
 205:/home/zkmike/.local/share/renesas/e2_studio/toolchains/gcc_arm/gcc-arm-none-eabi-6-2017-q2-update/arm-none-eabi/include/c++/6.3.1/ostream ****       operator<<(unsigned long long __n)
 206:/home/zkmike/.local/share/renesas/e2_studio/toolchains/gcc_arm/gcc-arm-none-eabi-6-2017-q2-update/arm-none-eabi/include/c++/6.3.1/ostream ****       { return _M_insert(__n); }
 207:/home/zkmike/.local/share/renesas/e2_studio/toolchains/gcc_arm/gcc-arm-none-eabi-6-2017-q2-update/arm-none-eabi/include/c++/6.3.1/ostream **** #endif
 208:/home/zkmike/.local/share/renesas/e2_studio/toolchains/gcc_arm/gcc-arm-none-eabi-6-2017-q2-update/arm-none-eabi/include/c++/6.3.1/ostream ****       //@}
 209:/home/zkmike/.local/share/renesas/e2_studio/toolchains/gcc_arm/gcc-arm-none-eabi-6-2017-q2-update/arm-none-eabi/include/c++/6.3.1/ostream **** 
 210:/home/zkmike/.local/share/renesas/e2_studio/toolchains/gcc_arm/gcc-arm-none-eabi-6-2017-q2-update/arm-none-eabi/include/c++/6.3.1/ostream ****       //@{
 211:/home/zkmike/.local/share/renesas/e2_studio/toolchains/gcc_arm/gcc-arm-none-eabi-6-2017-q2-update/arm-none-eabi/include/c++/6.3.1/ostream ****       /**
 212:/home/zkmike/.local/share/renesas/e2_studio/toolchains/gcc_arm/gcc-arm-none-eabi-6-2017-q2-update/arm-none-eabi/include/c++/6.3.1/ostream ****        *  @brief  Floating point arithmetic inserters
 213:/home/zkmike/.local/share/renesas/e2_studio/toolchains/gcc_arm/gcc-arm-none-eabi-6-2017-q2-update/arm-none-eabi/include/c++/6.3.1/ostream ****        *  @param  __f A variable of builtin floating point type.
 214:/home/zkmike/.local/share/renesas/e2_studio/toolchains/gcc_arm/gcc-arm-none-eabi-6-2017-q2-update/arm-none-eabi/include/c++/6.3.1/ostream ****        *  @return  @c *this if successful
 215:/home/zkmike/.local/share/renesas/e2_studio/toolchains/gcc_arm/gcc-arm-none-eabi-6-2017-q2-update/arm-none-eabi/include/c++/6.3.1/ostream ****        *
 216:/home/zkmike/.local/share/renesas/e2_studio/toolchains/gcc_arm/gcc-arm-none-eabi-6-2017-q2-update/arm-none-eabi/include/c++/6.3.1/ostream ****        *  These functions use the stream's current locale (specifically, the
 217:/home/zkmike/.local/share/renesas/e2_studio/toolchains/gcc_arm/gcc-arm-none-eabi-6-2017-q2-update/arm-none-eabi/include/c++/6.3.1/ostream ****        *  @c num_get facet) to perform numeric formatting.
 218:/home/zkmike/.local/share/renesas/e2_studio/toolchains/gcc_arm/gcc-arm-none-eabi-6-2017-q2-update/arm-none-eabi/include/c++/6.3.1/ostream ****       */
 219:/home/zkmike/.local/share/renesas/e2_studio/toolchains/gcc_arm/gcc-arm-none-eabi-6-2017-q2-update/arm-none-eabi/include/c++/6.3.1/ostream ****       __ostream_type&
 220:/home/zkmike/.local/share/renesas/e2_studio/toolchains/gcc_arm/gcc-arm-none-eabi-6-2017-q2-update/arm-none-eabi/include/c++/6.3.1/ostream ****       operator<<(double __f)
 221:/home/zkmike/.local/share/renesas/e2_studio/toolchains/gcc_arm/gcc-arm-none-eabi-6-2017-q2-update/arm-none-eabi/include/c++/6.3.1/ostream ****       { return _M_insert(__f); }
 222:/home/zkmike/.local/share/renesas/e2_studio/toolchains/gcc_arm/gcc-arm-none-eabi-6-2017-q2-update/arm-none-eabi/include/c++/6.3.1/ostream **** 
 223:/home/zkmike/.local/share/renesas/e2_studio/toolchains/gcc_arm/gcc-arm-none-eabi-6-2017-q2-update/arm-none-eabi/include/c++/6.3.1/ostream ****       __ostream_type&
 224:/home/zkmike/.local/share/renesas/e2_studio/toolchains/gcc_arm/gcc-arm-none-eabi-6-2017-q2-update/arm-none-eabi/include/c++/6.3.1/ostream ****       operator<<(float __f)
 225:/home/zkmike/.local/share/renesas/e2_studio/toolchains/gcc_arm/gcc-arm-none-eabi-6-2017-q2-update/arm-none-eabi/include/c++/6.3.1/ostream ****       {
 226:/home/zkmike/.local/share/renesas/e2_studio/toolchains/gcc_arm/gcc-arm-none-eabi-6-2017-q2-update/arm-none-eabi/include/c++/6.3.1/ostream **** 	// _GLIBCXX_RESOLVE_LIB_DEFECTS
 227:/home/zkmike/.local/share/renesas/e2_studio/toolchains/gcc_arm/gcc-arm-none-eabi-6-2017-q2-update/arm-none-eabi/include/c++/6.3.1/ostream **** 	// 117. basic_ostream uses nonexistent num_put member functions.
 228:/home/zkmike/.local/share/renesas/e2_studio/toolchains/gcc_arm/gcc-arm-none-eabi-6-2017-q2-update/arm-none-eabi/include/c++/6.3.1/ostream **** 	return _M_insert(static_cast<double>(__f));
 229:/home/zkmike/.local/share/renesas/e2_studio/toolchains/gcc_arm/gcc-arm-none-eabi-6-2017-q2-update/arm-none-eabi/include/c++/6.3.1/ostream ****       }
 230:/home/zkmike/.local/share/renesas/e2_studio/toolchains/gcc_arm/gcc-arm-none-eabi-6-2017-q2-update/arm-none-eabi/include/c++/6.3.1/ostream **** 
 231:/home/zkmike/.local/share/renesas/e2_studio/toolchains/gcc_arm/gcc-arm-none-eabi-6-2017-q2-update/arm-none-eabi/include/c++/6.3.1/ostream ****       __ostream_type&
 232:/home/zkmike/.local/share/renesas/e2_studio/toolchains/gcc_arm/gcc-arm-none-eabi-6-2017-q2-update/arm-none-eabi/include/c++/6.3.1/ostream ****       operator<<(long double __f)
 233:/home/zkmike/.local/share/renesas/e2_studio/toolchains/gcc_arm/gcc-arm-none-eabi-6-2017-q2-update/arm-none-eabi/include/c++/6.3.1/ostream ****       { return _M_insert(__f); }
 234:/home/zkmike/.local/share/renesas/e2_studio/toolchains/gcc_arm/gcc-arm-none-eabi-6-2017-q2-update/arm-none-eabi/include/c++/6.3.1/ostream ****       //@}
 235:/home/zkmike/.local/share/renesas/e2_studio/toolchains/gcc_arm/gcc-arm-none-eabi-6-2017-q2-update/arm-none-eabi/include/c++/6.3.1/ostream **** 
 236:/home/zkmike/.local/share/renesas/e2_studio/toolchains/gcc_arm/gcc-arm-none-eabi-6-2017-q2-update/arm-none-eabi/include/c++/6.3.1/ostream ****       /**
 237:/home/zkmike/.local/share/renesas/e2_studio/toolchains/gcc_arm/gcc-arm-none-eabi-6-2017-q2-update/arm-none-eabi/include/c++/6.3.1/ostream ****        *  @brief  Pointer arithmetic inserters
 238:/home/zkmike/.local/share/renesas/e2_studio/toolchains/gcc_arm/gcc-arm-none-eabi-6-2017-q2-update/arm-none-eabi/include/c++/6.3.1/ostream ****        *  @param  __p A variable of pointer type.
 239:/home/zkmike/.local/share/renesas/e2_studio/toolchains/gcc_arm/gcc-arm-none-eabi-6-2017-q2-update/arm-none-eabi/include/c++/6.3.1/ostream ****        *  @return  @c *this if successful
 240:/home/zkmike/.local/share/renesas/e2_studio/toolchains/gcc_arm/gcc-arm-none-eabi-6-2017-q2-update/arm-none-eabi/include/c++/6.3.1/ostream ****        *
 241:/home/zkmike/.local/share/renesas/e2_studio/toolchains/gcc_arm/gcc-arm-none-eabi-6-2017-q2-update/arm-none-eabi/include/c++/6.3.1/ostream ****        *  These functions use the stream's current locale (specifically, the
 242:/home/zkmike/.local/share/renesas/e2_studio/toolchains/gcc_arm/gcc-arm-none-eabi-6-2017-q2-update/arm-none-eabi/include/c++/6.3.1/ostream ****        *  @c num_get facet) to perform numeric formatting.
 243:/home/zkmike/.local/share/renesas/e2_studio/toolchains/gcc_arm/gcc-arm-none-eabi-6-2017-q2-update/arm-none-eabi/include/c++/6.3.1/ostream ****       */
 244:/home/zkmike/.local/share/renesas/e2_studio/toolchains/gcc_arm/gcc-arm-none-eabi-6-2017-q2-update/arm-none-eabi/include/c++/6.3.1/ostream ****       __ostream_type&
 245:/home/zkmike/.local/share/renesas/e2_studio/toolchains/gcc_arm/gcc-arm-none-eabi-6-2017-q2-update/arm-none-eabi/include/c++/6.3.1/ostream ****       operator<<(const void* __p)
 246:/home/zkmike/.local/share/renesas/e2_studio/toolchains/gcc_arm/gcc-arm-none-eabi-6-2017-q2-update/arm-none-eabi/include/c++/6.3.1/ostream ****       { return _M_insert(__p); }
 247:/home/zkmike/.local/share/renesas/e2_studio/toolchains/gcc_arm/gcc-arm-none-eabi-6-2017-q2-update/arm-none-eabi/include/c++/6.3.1/ostream **** 
 248:/home/zkmike/.local/share/renesas/e2_studio/toolchains/gcc_arm/gcc-arm-none-eabi-6-2017-q2-update/arm-none-eabi/include/c++/6.3.1/ostream ****       /**
 249:/home/zkmike/.local/share/renesas/e2_studio/toolchains/gcc_arm/gcc-arm-none-eabi-6-2017-q2-update/arm-none-eabi/include/c++/6.3.1/ostream ****        *  @brief  Extracting from another streambuf.
 250:/home/zkmike/.local/share/renesas/e2_studio/toolchains/gcc_arm/gcc-arm-none-eabi-6-2017-q2-update/arm-none-eabi/include/c++/6.3.1/ostream ****        *  @param  __sb  A pointer to a streambuf
 251:/home/zkmike/.local/share/renesas/e2_studio/toolchains/gcc_arm/gcc-arm-none-eabi-6-2017-q2-update/arm-none-eabi/include/c++/6.3.1/ostream ****        *
 252:/home/zkmike/.local/share/renesas/e2_studio/toolchains/gcc_arm/gcc-arm-none-eabi-6-2017-q2-update/arm-none-eabi/include/c++/6.3.1/ostream ****        *  This function behaves like one of the basic arithmetic extractors,
 253:/home/zkmike/.local/share/renesas/e2_studio/toolchains/gcc_arm/gcc-arm-none-eabi-6-2017-q2-update/arm-none-eabi/include/c++/6.3.1/ostream ****        *  in that it also constructs a sentry object and has the same error
 254:/home/zkmike/.local/share/renesas/e2_studio/toolchains/gcc_arm/gcc-arm-none-eabi-6-2017-q2-update/arm-none-eabi/include/c++/6.3.1/ostream ****        *  handling behavior.
 255:/home/zkmike/.local/share/renesas/e2_studio/toolchains/gcc_arm/gcc-arm-none-eabi-6-2017-q2-update/arm-none-eabi/include/c++/6.3.1/ostream ****        *
 256:/home/zkmike/.local/share/renesas/e2_studio/toolchains/gcc_arm/gcc-arm-none-eabi-6-2017-q2-update/arm-none-eabi/include/c++/6.3.1/ostream ****        *  If @p __sb is NULL, the stream will set failbit in its error state.
 257:/home/zkmike/.local/share/renesas/e2_studio/toolchains/gcc_arm/gcc-arm-none-eabi-6-2017-q2-update/arm-none-eabi/include/c++/6.3.1/ostream ****        *
 258:/home/zkmike/.local/share/renesas/e2_studio/toolchains/gcc_arm/gcc-arm-none-eabi-6-2017-q2-update/arm-none-eabi/include/c++/6.3.1/ostream ****        *  Characters are extracted from @p __sb and inserted into @c *this
 259:/home/zkmike/.local/share/renesas/e2_studio/toolchains/gcc_arm/gcc-arm-none-eabi-6-2017-q2-update/arm-none-eabi/include/c++/6.3.1/ostream ****        *  until one of the following occurs:
 260:/home/zkmike/.local/share/renesas/e2_studio/toolchains/gcc_arm/gcc-arm-none-eabi-6-2017-q2-update/arm-none-eabi/include/c++/6.3.1/ostream ****        *
 261:/home/zkmike/.local/share/renesas/e2_studio/toolchains/gcc_arm/gcc-arm-none-eabi-6-2017-q2-update/arm-none-eabi/include/c++/6.3.1/ostream ****        *  - the input stream reaches end-of-file,
 262:/home/zkmike/.local/share/renesas/e2_studio/toolchains/gcc_arm/gcc-arm-none-eabi-6-2017-q2-update/arm-none-eabi/include/c++/6.3.1/ostream ****        *  - insertion into the output sequence fails (in this case, the
 263:/home/zkmike/.local/share/renesas/e2_studio/toolchains/gcc_arm/gcc-arm-none-eabi-6-2017-q2-update/arm-none-eabi/include/c++/6.3.1/ostream ****        *    character that would have been inserted is not extracted), or
 264:/home/zkmike/.local/share/renesas/e2_studio/toolchains/gcc_arm/gcc-arm-none-eabi-6-2017-q2-update/arm-none-eabi/include/c++/6.3.1/ostream ****        *  - an exception occurs while getting a character from @p __sb, which
 265:/home/zkmike/.local/share/renesas/e2_studio/toolchains/gcc_arm/gcc-arm-none-eabi-6-2017-q2-update/arm-none-eabi/include/c++/6.3.1/ostream ****        *    sets failbit in the error state
 266:/home/zkmike/.local/share/renesas/e2_studio/toolchains/gcc_arm/gcc-arm-none-eabi-6-2017-q2-update/arm-none-eabi/include/c++/6.3.1/ostream ****        *
 267:/home/zkmike/.local/share/renesas/e2_studio/toolchains/gcc_arm/gcc-arm-none-eabi-6-2017-q2-update/arm-none-eabi/include/c++/6.3.1/ostream ****        *  If the function inserts no characters, failbit is set.
 268:/home/zkmike/.local/share/renesas/e2_studio/toolchains/gcc_arm/gcc-arm-none-eabi-6-2017-q2-update/arm-none-eabi/include/c++/6.3.1/ostream ****       */
 269:/home/zkmike/.local/share/renesas/e2_studio/toolchains/gcc_arm/gcc-arm-none-eabi-6-2017-q2-update/arm-none-eabi/include/c++/6.3.1/ostream ****       __ostream_type&
 270:/home/zkmike/.local/share/renesas/e2_studio/toolchains/gcc_arm/gcc-arm-none-eabi-6-2017-q2-update/arm-none-eabi/include/c++/6.3.1/ostream ****       operator<<(__streambuf_type* __sb);
 271:/home/zkmike/.local/share/renesas/e2_studio/toolchains/gcc_arm/gcc-arm-none-eabi-6-2017-q2-update/arm-none-eabi/include/c++/6.3.1/ostream ****       //@}
 272:/home/zkmike/.local/share/renesas/e2_studio/toolchains/gcc_arm/gcc-arm-none-eabi-6-2017-q2-update/arm-none-eabi/include/c++/6.3.1/ostream **** 
 273:/home/zkmike/.local/share/renesas/e2_studio/toolchains/gcc_arm/gcc-arm-none-eabi-6-2017-q2-update/arm-none-eabi/include/c++/6.3.1/ostream ****       //@{
 274:/home/zkmike/.local/share/renesas/e2_studio/toolchains/gcc_arm/gcc-arm-none-eabi-6-2017-q2-update/arm-none-eabi/include/c++/6.3.1/ostream ****       /**
 275:/home/zkmike/.local/share/renesas/e2_studio/toolchains/gcc_arm/gcc-arm-none-eabi-6-2017-q2-update/arm-none-eabi/include/c++/6.3.1/ostream ****        *  @name Unformatted Output Functions
 276:/home/zkmike/.local/share/renesas/e2_studio/toolchains/gcc_arm/gcc-arm-none-eabi-6-2017-q2-update/arm-none-eabi/include/c++/6.3.1/ostream ****        *
 277:/home/zkmike/.local/share/renesas/e2_studio/toolchains/gcc_arm/gcc-arm-none-eabi-6-2017-q2-update/arm-none-eabi/include/c++/6.3.1/ostream ****        *  All the unformatted output functions have some common behavior.
 278:/home/zkmike/.local/share/renesas/e2_studio/toolchains/gcc_arm/gcc-arm-none-eabi-6-2017-q2-update/arm-none-eabi/include/c++/6.3.1/ostream ****        *  Each starts by constructing a temporary object of type
 279:/home/zkmike/.local/share/renesas/e2_studio/toolchains/gcc_arm/gcc-arm-none-eabi-6-2017-q2-update/arm-none-eabi/include/c++/6.3.1/ostream ****        *  std::basic_ostream::sentry.  This has several effects, concluding
 280:/home/zkmike/.local/share/renesas/e2_studio/toolchains/gcc_arm/gcc-arm-none-eabi-6-2017-q2-update/arm-none-eabi/include/c++/6.3.1/ostream ****        *  with the setting of a status flag; see the sentry documentation
 281:/home/zkmike/.local/share/renesas/e2_studio/toolchains/gcc_arm/gcc-arm-none-eabi-6-2017-q2-update/arm-none-eabi/include/c++/6.3.1/ostream ****        *  for more.
 282:/home/zkmike/.local/share/renesas/e2_studio/toolchains/gcc_arm/gcc-arm-none-eabi-6-2017-q2-update/arm-none-eabi/include/c++/6.3.1/ostream ****        *
 283:/home/zkmike/.local/share/renesas/e2_studio/toolchains/gcc_arm/gcc-arm-none-eabi-6-2017-q2-update/arm-none-eabi/include/c++/6.3.1/ostream ****        *  If the sentry status is good, the function tries to generate
 284:/home/zkmike/.local/share/renesas/e2_studio/toolchains/gcc_arm/gcc-arm-none-eabi-6-2017-q2-update/arm-none-eabi/include/c++/6.3.1/ostream ****        *  whatever data is appropriate for the type of the argument.
 285:/home/zkmike/.local/share/renesas/e2_studio/toolchains/gcc_arm/gcc-arm-none-eabi-6-2017-q2-update/arm-none-eabi/include/c++/6.3.1/ostream ****        *
 286:/home/zkmike/.local/share/renesas/e2_studio/toolchains/gcc_arm/gcc-arm-none-eabi-6-2017-q2-update/arm-none-eabi/include/c++/6.3.1/ostream ****        *  If an exception is thrown during insertion, ios_base::badbit
 287:/home/zkmike/.local/share/renesas/e2_studio/toolchains/gcc_arm/gcc-arm-none-eabi-6-2017-q2-update/arm-none-eabi/include/c++/6.3.1/ostream ****        *  will be turned on in the stream's error state.  If badbit is on in
 288:/home/zkmike/.local/share/renesas/e2_studio/toolchains/gcc_arm/gcc-arm-none-eabi-6-2017-q2-update/arm-none-eabi/include/c++/6.3.1/ostream ****        *  the stream's exceptions mask, the exception will be rethrown
 289:/home/zkmike/.local/share/renesas/e2_studio/toolchains/gcc_arm/gcc-arm-none-eabi-6-2017-q2-update/arm-none-eabi/include/c++/6.3.1/ostream ****        *  without completing its actions.
 290:/home/zkmike/.local/share/renesas/e2_studio/toolchains/gcc_arm/gcc-arm-none-eabi-6-2017-q2-update/arm-none-eabi/include/c++/6.3.1/ostream ****       */
 291:/home/zkmike/.local/share/renesas/e2_studio/toolchains/gcc_arm/gcc-arm-none-eabi-6-2017-q2-update/arm-none-eabi/include/c++/6.3.1/ostream **** 
 292:/home/zkmike/.local/share/renesas/e2_studio/toolchains/gcc_arm/gcc-arm-none-eabi-6-2017-q2-update/arm-none-eabi/include/c++/6.3.1/ostream ****       /**
 293:/home/zkmike/.local/share/renesas/e2_studio/toolchains/gcc_arm/gcc-arm-none-eabi-6-2017-q2-update/arm-none-eabi/include/c++/6.3.1/ostream ****        *  @brief  Simple insertion.
 294:/home/zkmike/.local/share/renesas/e2_studio/toolchains/gcc_arm/gcc-arm-none-eabi-6-2017-q2-update/arm-none-eabi/include/c++/6.3.1/ostream ****        *  @param  __c  The character to insert.
 295:/home/zkmike/.local/share/renesas/e2_studio/toolchains/gcc_arm/gcc-arm-none-eabi-6-2017-q2-update/arm-none-eabi/include/c++/6.3.1/ostream ****        *  @return  *this
 296:/home/zkmike/.local/share/renesas/e2_studio/toolchains/gcc_arm/gcc-arm-none-eabi-6-2017-q2-update/arm-none-eabi/include/c++/6.3.1/ostream ****        *
 297:/home/zkmike/.local/share/renesas/e2_studio/toolchains/gcc_arm/gcc-arm-none-eabi-6-2017-q2-update/arm-none-eabi/include/c++/6.3.1/ostream ****        *  Tries to insert @p __c.
 298:/home/zkmike/.local/share/renesas/e2_studio/toolchains/gcc_arm/gcc-arm-none-eabi-6-2017-q2-update/arm-none-eabi/include/c++/6.3.1/ostream ****        *
 299:/home/zkmike/.local/share/renesas/e2_studio/toolchains/gcc_arm/gcc-arm-none-eabi-6-2017-q2-update/arm-none-eabi/include/c++/6.3.1/ostream ****        *  @note  This function is not overloaded on signed char and
 300:/home/zkmike/.local/share/renesas/e2_studio/toolchains/gcc_arm/gcc-arm-none-eabi-6-2017-q2-update/arm-none-eabi/include/c++/6.3.1/ostream ****        *         unsigned char.
 301:/home/zkmike/.local/share/renesas/e2_studio/toolchains/gcc_arm/gcc-arm-none-eabi-6-2017-q2-update/arm-none-eabi/include/c++/6.3.1/ostream ****       */
 302:/home/zkmike/.local/share/renesas/e2_studio/toolchains/gcc_arm/gcc-arm-none-eabi-6-2017-q2-update/arm-none-eabi/include/c++/6.3.1/ostream ****       __ostream_type&
 303:/home/zkmike/.local/share/renesas/e2_studio/toolchains/gcc_arm/gcc-arm-none-eabi-6-2017-q2-update/arm-none-eabi/include/c++/6.3.1/ostream ****       put(char_type __c);
 304:/home/zkmike/.local/share/renesas/e2_studio/toolchains/gcc_arm/gcc-arm-none-eabi-6-2017-q2-update/arm-none-eabi/include/c++/6.3.1/ostream **** 
 305:/home/zkmike/.local/share/renesas/e2_studio/toolchains/gcc_arm/gcc-arm-none-eabi-6-2017-q2-update/arm-none-eabi/include/c++/6.3.1/ostream ****       /**
 306:/home/zkmike/.local/share/renesas/e2_studio/toolchains/gcc_arm/gcc-arm-none-eabi-6-2017-q2-update/arm-none-eabi/include/c++/6.3.1/ostream ****        *  @brief  Core write functionality, without sentry.
 307:/home/zkmike/.local/share/renesas/e2_studio/toolchains/gcc_arm/gcc-arm-none-eabi-6-2017-q2-update/arm-none-eabi/include/c++/6.3.1/ostream ****        *  @param  __s  The array to insert.
 308:/home/zkmike/.local/share/renesas/e2_studio/toolchains/gcc_arm/gcc-arm-none-eabi-6-2017-q2-update/arm-none-eabi/include/c++/6.3.1/ostream ****        *  @param  __n  Maximum number of characters to insert.
 309:/home/zkmike/.local/share/renesas/e2_studio/toolchains/gcc_arm/gcc-arm-none-eabi-6-2017-q2-update/arm-none-eabi/include/c++/6.3.1/ostream ****       */
 310:/home/zkmike/.local/share/renesas/e2_studio/toolchains/gcc_arm/gcc-arm-none-eabi-6-2017-q2-update/arm-none-eabi/include/c++/6.3.1/ostream ****       void
 311:/home/zkmike/.local/share/renesas/e2_studio/toolchains/gcc_arm/gcc-arm-none-eabi-6-2017-q2-update/arm-none-eabi/include/c++/6.3.1/ostream ****       _M_write(const char_type* __s, streamsize __n)
 312:/home/zkmike/.local/share/renesas/e2_studio/toolchains/gcc_arm/gcc-arm-none-eabi-6-2017-q2-update/arm-none-eabi/include/c++/6.3.1/ostream ****       {
 313:/home/zkmike/.local/share/renesas/e2_studio/toolchains/gcc_arm/gcc-arm-none-eabi-6-2017-q2-update/arm-none-eabi/include/c++/6.3.1/ostream **** 	const streamsize __put = this->rdbuf()->sputn(__s, __n);
 314:/home/zkmike/.local/share/renesas/e2_studio/toolchains/gcc_arm/gcc-arm-none-eabi-6-2017-q2-update/arm-none-eabi/include/c++/6.3.1/ostream **** 	if (__put != __n)
 315:/home/zkmike/.local/share/renesas/e2_studio/toolchains/gcc_arm/gcc-arm-none-eabi-6-2017-q2-update/arm-none-eabi/include/c++/6.3.1/ostream **** 	  this->setstate(ios_base::badbit);
 316:/home/zkmike/.local/share/renesas/e2_studio/toolchains/gcc_arm/gcc-arm-none-eabi-6-2017-q2-update/arm-none-eabi/include/c++/6.3.1/ostream ****       }
 317:/home/zkmike/.local/share/renesas/e2_studio/toolchains/gcc_arm/gcc-arm-none-eabi-6-2017-q2-update/arm-none-eabi/include/c++/6.3.1/ostream **** 
 318:/home/zkmike/.local/share/renesas/e2_studio/toolchains/gcc_arm/gcc-arm-none-eabi-6-2017-q2-update/arm-none-eabi/include/c++/6.3.1/ostream ****       /**
 319:/home/zkmike/.local/share/renesas/e2_studio/toolchains/gcc_arm/gcc-arm-none-eabi-6-2017-q2-update/arm-none-eabi/include/c++/6.3.1/ostream ****        *  @brief  Character string insertion.
 320:/home/zkmike/.local/share/renesas/e2_studio/toolchains/gcc_arm/gcc-arm-none-eabi-6-2017-q2-update/arm-none-eabi/include/c++/6.3.1/ostream ****        *  @param  __s  The array to insert.
 321:/home/zkmike/.local/share/renesas/e2_studio/toolchains/gcc_arm/gcc-arm-none-eabi-6-2017-q2-update/arm-none-eabi/include/c++/6.3.1/ostream ****        *  @param  __n  Maximum number of characters to insert.
 322:/home/zkmike/.local/share/renesas/e2_studio/toolchains/gcc_arm/gcc-arm-none-eabi-6-2017-q2-update/arm-none-eabi/include/c++/6.3.1/ostream ****        *  @return  *this
 323:/home/zkmike/.local/share/renesas/e2_studio/toolchains/gcc_arm/gcc-arm-none-eabi-6-2017-q2-update/arm-none-eabi/include/c++/6.3.1/ostream ****        *
 324:/home/zkmike/.local/share/renesas/e2_studio/toolchains/gcc_arm/gcc-arm-none-eabi-6-2017-q2-update/arm-none-eabi/include/c++/6.3.1/ostream ****        *  Characters are copied from @p __s and inserted into the stream until
 325:/home/zkmike/.local/share/renesas/e2_studio/toolchains/gcc_arm/gcc-arm-none-eabi-6-2017-q2-update/arm-none-eabi/include/c++/6.3.1/ostream ****        *  one of the following happens:
 326:/home/zkmike/.local/share/renesas/e2_studio/toolchains/gcc_arm/gcc-arm-none-eabi-6-2017-q2-update/arm-none-eabi/include/c++/6.3.1/ostream ****        *
 327:/home/zkmike/.local/share/renesas/e2_studio/toolchains/gcc_arm/gcc-arm-none-eabi-6-2017-q2-update/arm-none-eabi/include/c++/6.3.1/ostream ****        *  - @p __n characters are inserted
 328:/home/zkmike/.local/share/renesas/e2_studio/toolchains/gcc_arm/gcc-arm-none-eabi-6-2017-q2-update/arm-none-eabi/include/c++/6.3.1/ostream ****        *  - inserting into the output sequence fails (in this case, badbit
 329:/home/zkmike/.local/share/renesas/e2_studio/toolchains/gcc_arm/gcc-arm-none-eabi-6-2017-q2-update/arm-none-eabi/include/c++/6.3.1/ostream ****        *    will be set in the stream's error state)
 330:/home/zkmike/.local/share/renesas/e2_studio/toolchains/gcc_arm/gcc-arm-none-eabi-6-2017-q2-update/arm-none-eabi/include/c++/6.3.1/ostream ****        *
 331:/home/zkmike/.local/share/renesas/e2_studio/toolchains/gcc_arm/gcc-arm-none-eabi-6-2017-q2-update/arm-none-eabi/include/c++/6.3.1/ostream ****        *  @note  This function is not overloaded on signed char and
 332:/home/zkmike/.local/share/renesas/e2_studio/toolchains/gcc_arm/gcc-arm-none-eabi-6-2017-q2-update/arm-none-eabi/include/c++/6.3.1/ostream ****        *         unsigned char.
 333:/home/zkmike/.local/share/renesas/e2_studio/toolchains/gcc_arm/gcc-arm-none-eabi-6-2017-q2-update/arm-none-eabi/include/c++/6.3.1/ostream ****       */
 334:/home/zkmike/.local/share/renesas/e2_studio/toolchains/gcc_arm/gcc-arm-none-eabi-6-2017-q2-update/arm-none-eabi/include/c++/6.3.1/ostream ****       __ostream_type&
 335:/home/zkmike/.local/share/renesas/e2_studio/toolchains/gcc_arm/gcc-arm-none-eabi-6-2017-q2-update/arm-none-eabi/include/c++/6.3.1/ostream ****       write(const char_type* __s, streamsize __n);
 336:/home/zkmike/.local/share/renesas/e2_studio/toolchains/gcc_arm/gcc-arm-none-eabi-6-2017-q2-update/arm-none-eabi/include/c++/6.3.1/ostream ****       //@}
 337:/home/zkmike/.local/share/renesas/e2_studio/toolchains/gcc_arm/gcc-arm-none-eabi-6-2017-q2-update/arm-none-eabi/include/c++/6.3.1/ostream **** 
 338:/home/zkmike/.local/share/renesas/e2_studio/toolchains/gcc_arm/gcc-arm-none-eabi-6-2017-q2-update/arm-none-eabi/include/c++/6.3.1/ostream ****       /**
 339:/home/zkmike/.local/share/renesas/e2_studio/toolchains/gcc_arm/gcc-arm-none-eabi-6-2017-q2-update/arm-none-eabi/include/c++/6.3.1/ostream ****        *  @brief  Synchronizing the stream buffer.
 340:/home/zkmike/.local/share/renesas/e2_studio/toolchains/gcc_arm/gcc-arm-none-eabi-6-2017-q2-update/arm-none-eabi/include/c++/6.3.1/ostream ****        *  @return  *this
 341:/home/zkmike/.local/share/renesas/e2_studio/toolchains/gcc_arm/gcc-arm-none-eabi-6-2017-q2-update/arm-none-eabi/include/c++/6.3.1/ostream ****        *
 342:/home/zkmike/.local/share/renesas/e2_studio/toolchains/gcc_arm/gcc-arm-none-eabi-6-2017-q2-update/arm-none-eabi/include/c++/6.3.1/ostream ****        *  If @c rdbuf() is a null pointer, changes nothing.
 343:/home/zkmike/.local/share/renesas/e2_studio/toolchains/gcc_arm/gcc-arm-none-eabi-6-2017-q2-update/arm-none-eabi/include/c++/6.3.1/ostream ****        *
 344:/home/zkmike/.local/share/renesas/e2_studio/toolchains/gcc_arm/gcc-arm-none-eabi-6-2017-q2-update/arm-none-eabi/include/c++/6.3.1/ostream ****        *  Otherwise, calls @c rdbuf()->pubsync(), and if that returns -1,
 345:/home/zkmike/.local/share/renesas/e2_studio/toolchains/gcc_arm/gcc-arm-none-eabi-6-2017-q2-update/arm-none-eabi/include/c++/6.3.1/ostream ****        *  sets badbit.
 346:/home/zkmike/.local/share/renesas/e2_studio/toolchains/gcc_arm/gcc-arm-none-eabi-6-2017-q2-update/arm-none-eabi/include/c++/6.3.1/ostream ****       */
 347:/home/zkmike/.local/share/renesas/e2_studio/toolchains/gcc_arm/gcc-arm-none-eabi-6-2017-q2-update/arm-none-eabi/include/c++/6.3.1/ostream ****       __ostream_type&
 348:/home/zkmike/.local/share/renesas/e2_studio/toolchains/gcc_arm/gcc-arm-none-eabi-6-2017-q2-update/arm-none-eabi/include/c++/6.3.1/ostream ****       flush();
 349:/home/zkmike/.local/share/renesas/e2_studio/toolchains/gcc_arm/gcc-arm-none-eabi-6-2017-q2-update/arm-none-eabi/include/c++/6.3.1/ostream **** 
 350:/home/zkmike/.local/share/renesas/e2_studio/toolchains/gcc_arm/gcc-arm-none-eabi-6-2017-q2-update/arm-none-eabi/include/c++/6.3.1/ostream ****       /**
 351:/home/zkmike/.local/share/renesas/e2_studio/toolchains/gcc_arm/gcc-arm-none-eabi-6-2017-q2-update/arm-none-eabi/include/c++/6.3.1/ostream ****        *  @brief  Getting the current write position.
 352:/home/zkmike/.local/share/renesas/e2_studio/toolchains/gcc_arm/gcc-arm-none-eabi-6-2017-q2-update/arm-none-eabi/include/c++/6.3.1/ostream ****        *  @return  A file position object.
 353:/home/zkmike/.local/share/renesas/e2_studio/toolchains/gcc_arm/gcc-arm-none-eabi-6-2017-q2-update/arm-none-eabi/include/c++/6.3.1/ostream ****        *
 354:/home/zkmike/.local/share/renesas/e2_studio/toolchains/gcc_arm/gcc-arm-none-eabi-6-2017-q2-update/arm-none-eabi/include/c++/6.3.1/ostream ****        *  If @c fail() is not false, returns @c pos_type(-1) to indicate
 355:/home/zkmike/.local/share/renesas/e2_studio/toolchains/gcc_arm/gcc-arm-none-eabi-6-2017-q2-update/arm-none-eabi/include/c++/6.3.1/ostream ****        *  failure.  Otherwise returns @c rdbuf()->pubseekoff(0,cur,out).
 356:/home/zkmike/.local/share/renesas/e2_studio/toolchains/gcc_arm/gcc-arm-none-eabi-6-2017-q2-update/arm-none-eabi/include/c++/6.3.1/ostream ****       */
 357:/home/zkmike/.local/share/renesas/e2_studio/toolchains/gcc_arm/gcc-arm-none-eabi-6-2017-q2-update/arm-none-eabi/include/c++/6.3.1/ostream ****       pos_type
 358:/home/zkmike/.local/share/renesas/e2_studio/toolchains/gcc_arm/gcc-arm-none-eabi-6-2017-q2-update/arm-none-eabi/include/c++/6.3.1/ostream ****       tellp();
 359:/home/zkmike/.local/share/renesas/e2_studio/toolchains/gcc_arm/gcc-arm-none-eabi-6-2017-q2-update/arm-none-eabi/include/c++/6.3.1/ostream **** 
 360:/home/zkmike/.local/share/renesas/e2_studio/toolchains/gcc_arm/gcc-arm-none-eabi-6-2017-q2-update/arm-none-eabi/include/c++/6.3.1/ostream ****       /**
 361:/home/zkmike/.local/share/renesas/e2_studio/toolchains/gcc_arm/gcc-arm-none-eabi-6-2017-q2-update/arm-none-eabi/include/c++/6.3.1/ostream ****        *  @brief  Changing the current write position.
 362:/home/zkmike/.local/share/renesas/e2_studio/toolchains/gcc_arm/gcc-arm-none-eabi-6-2017-q2-update/arm-none-eabi/include/c++/6.3.1/ostream ****        *  @param  __pos  A file position object.
 363:/home/zkmike/.local/share/renesas/e2_studio/toolchains/gcc_arm/gcc-arm-none-eabi-6-2017-q2-update/arm-none-eabi/include/c++/6.3.1/ostream ****        *  @return  *this
 364:/home/zkmike/.local/share/renesas/e2_studio/toolchains/gcc_arm/gcc-arm-none-eabi-6-2017-q2-update/arm-none-eabi/include/c++/6.3.1/ostream ****        *
 365:/home/zkmike/.local/share/renesas/e2_studio/toolchains/gcc_arm/gcc-arm-none-eabi-6-2017-q2-update/arm-none-eabi/include/c++/6.3.1/ostream ****        *  If @c fail() is not true, calls @c rdbuf()->pubseekpos(pos).  If
 366:/home/zkmike/.local/share/renesas/e2_studio/toolchains/gcc_arm/gcc-arm-none-eabi-6-2017-q2-update/arm-none-eabi/include/c++/6.3.1/ostream ****        *  that function fails, sets failbit.
 367:/home/zkmike/.local/share/renesas/e2_studio/toolchains/gcc_arm/gcc-arm-none-eabi-6-2017-q2-update/arm-none-eabi/include/c++/6.3.1/ostream ****       */
 368:/home/zkmike/.local/share/renesas/e2_studio/toolchains/gcc_arm/gcc-arm-none-eabi-6-2017-q2-update/arm-none-eabi/include/c++/6.3.1/ostream ****       __ostream_type&
 369:/home/zkmike/.local/share/renesas/e2_studio/toolchains/gcc_arm/gcc-arm-none-eabi-6-2017-q2-update/arm-none-eabi/include/c++/6.3.1/ostream ****       seekp(pos_type);
 370:/home/zkmike/.local/share/renesas/e2_studio/toolchains/gcc_arm/gcc-arm-none-eabi-6-2017-q2-update/arm-none-eabi/include/c++/6.3.1/ostream **** 
 371:/home/zkmike/.local/share/renesas/e2_studio/toolchains/gcc_arm/gcc-arm-none-eabi-6-2017-q2-update/arm-none-eabi/include/c++/6.3.1/ostream ****       /**
 372:/home/zkmike/.local/share/renesas/e2_studio/toolchains/gcc_arm/gcc-arm-none-eabi-6-2017-q2-update/arm-none-eabi/include/c++/6.3.1/ostream ****        *  @brief  Changing the current write position.
 373:/home/zkmike/.local/share/renesas/e2_studio/toolchains/gcc_arm/gcc-arm-none-eabi-6-2017-q2-update/arm-none-eabi/include/c++/6.3.1/ostream ****        *  @param  __off  A file offset object.
 374:/home/zkmike/.local/share/renesas/e2_studio/toolchains/gcc_arm/gcc-arm-none-eabi-6-2017-q2-update/arm-none-eabi/include/c++/6.3.1/ostream ****        *  @param  __dir  The direction in which to seek.
 375:/home/zkmike/.local/share/renesas/e2_studio/toolchains/gcc_arm/gcc-arm-none-eabi-6-2017-q2-update/arm-none-eabi/include/c++/6.3.1/ostream ****        *  @return  *this
 376:/home/zkmike/.local/share/renesas/e2_studio/toolchains/gcc_arm/gcc-arm-none-eabi-6-2017-q2-update/arm-none-eabi/include/c++/6.3.1/ostream ****        *
 377:/home/zkmike/.local/share/renesas/e2_studio/toolchains/gcc_arm/gcc-arm-none-eabi-6-2017-q2-update/arm-none-eabi/include/c++/6.3.1/ostream ****        *  If @c fail() is not true, calls @c rdbuf()->pubseekoff(off,dir).
 378:/home/zkmike/.local/share/renesas/e2_studio/toolchains/gcc_arm/gcc-arm-none-eabi-6-2017-q2-update/arm-none-eabi/include/c++/6.3.1/ostream ****        *  If that function fails, sets failbit.
 379:/home/zkmike/.local/share/renesas/e2_studio/toolchains/gcc_arm/gcc-arm-none-eabi-6-2017-q2-update/arm-none-eabi/include/c++/6.3.1/ostream ****       */
 380:/home/zkmike/.local/share/renesas/e2_studio/toolchains/gcc_arm/gcc-arm-none-eabi-6-2017-q2-update/arm-none-eabi/include/c++/6.3.1/ostream ****        __ostream_type&
 381:/home/zkmike/.local/share/renesas/e2_studio/toolchains/gcc_arm/gcc-arm-none-eabi-6-2017-q2-update/arm-none-eabi/include/c++/6.3.1/ostream ****       seekp(off_type, ios_base::seekdir);
 382:/home/zkmike/.local/share/renesas/e2_studio/toolchains/gcc_arm/gcc-arm-none-eabi-6-2017-q2-update/arm-none-eabi/include/c++/6.3.1/ostream **** 
 383:/home/zkmike/.local/share/renesas/e2_studio/toolchains/gcc_arm/gcc-arm-none-eabi-6-2017-q2-update/arm-none-eabi/include/c++/6.3.1/ostream ****     protected:
 384:/home/zkmike/.local/share/renesas/e2_studio/toolchains/gcc_arm/gcc-arm-none-eabi-6-2017-q2-update/arm-none-eabi/include/c++/6.3.1/ostream ****       basic_ostream()
 385:/home/zkmike/.local/share/renesas/e2_studio/toolchains/gcc_arm/gcc-arm-none-eabi-6-2017-q2-update/arm-none-eabi/include/c++/6.3.1/ostream ****       { this->init(0); }
 1677              		.loc 14 385 0
 1678 00e0 003000E3 		movw	r3, #:lower16:_ZTTNSt7__cxx1119basic_ostringstreamIcSt11char_traitsIcESaIcEEE
 1679 00e4 003040E3 		movt	r3, #:upper16:_ZTTNSt7__cxx1119basic_ostringstreamIcSt11char_traitsIcESaIcEEE
 1680 00e8 048093E5 		ldr	r8, [r3, #4]
 1681 00ec 00808DE5 		str	r8, [sp]
 1682 00f0 089093E5 		ldr	r9, [r3, #8]
 1683 00f4 0C3018E5 		ldr	r3, [r8, #-12]
 1684 00f8 112E8DE2 		add	r2, sp, #272
 1685 00fc 033082E0 		add	r3, r2, r3
 1686 0100 109103E5 		str	r9, [r3, #-272]
 1687 0104 00309DE5 		ldr	r3, [sp]
 1688 0108 0C0013E5 		ldr	r0, [r3, #-12]
 1689 010c 00008DE0 		add	r0, sp, r0
 1690              	.LEHB8:
 1691 0110 FEFFFFEB 		bl	_ZNSt9basic_iosIcSt11char_traitsIcEE4initEPSt15basic_streambufIcS1_E
 1692              	.LVL163:
 1693              	.LEHE8:
 1694              	.LBE1207:
 1695              	.LBE1206:
  66:/home/zkmike/.local/share/renesas/e2_studio/toolchains/gcc_arm/gcc-arm-none-eabi-6-2017-q2-update/arm-none-eabi/include/c++/6.3.1/sstream ****     {
  67:/home/zkmike/.local/share/renesas/e2_studio/toolchains/gcc_arm/gcc-arm-none-eabi-6-2017-q2-update/arm-none-eabi/include/c++/6.3.1/sstream ****       struct __xfer_bufptrs;
  68:/home/zkmike/.local/share/renesas/e2_studio/toolchains/gcc_arm/gcc-arm-none-eabi-6-2017-q2-update/arm-none-eabi/include/c++/6.3.1/sstream ****     public:
  69:/home/zkmike/.local/share/renesas/e2_studio/toolchains/gcc_arm/gcc-arm-none-eabi-6-2017-q2-update/arm-none-eabi/include/c++/6.3.1/sstream ****       // Types:
  70:/home/zkmike/.local/share/renesas/e2_studio/toolchains/gcc_arm/gcc-arm-none-eabi-6-2017-q2-update/arm-none-eabi/include/c++/6.3.1/sstream ****       typedef _CharT 					char_type;
  71:/home/zkmike/.local/share/renesas/e2_studio/toolchains/gcc_arm/gcc-arm-none-eabi-6-2017-q2-update/arm-none-eabi/include/c++/6.3.1/sstream ****       typedef _Traits 					traits_type;
  72:/home/zkmike/.local/share/renesas/e2_studio/toolchains/gcc_arm/gcc-arm-none-eabi-6-2017-q2-update/arm-none-eabi/include/c++/6.3.1/sstream ****       // _GLIBCXX_RESOLVE_LIB_DEFECTS
  73:/home/zkmike/.local/share/renesas/e2_studio/toolchains/gcc_arm/gcc-arm-none-eabi-6-2017-q2-update/arm-none-eabi/include/c++/6.3.1/sstream ****       // 251. basic_stringbuf missing allocator_type
  74:/home/zkmike/.local/share/renesas/e2_studio/toolchains/gcc_arm/gcc-arm-none-eabi-6-2017-q2-update/arm-none-eabi/include/c++/6.3.1/sstream ****       typedef _Alloc				       	allocator_type;
  75:/home/zkmike/.local/share/renesas/e2_studio/toolchains/gcc_arm/gcc-arm-none-eabi-6-2017-q2-update/arm-none-eabi/include/c++/6.3.1/sstream ****       typedef typename traits_type::int_type 		int_type;
  76:/home/zkmike/.local/share/renesas/e2_studio/toolchains/gcc_arm/gcc-arm-none-eabi-6-2017-q2-update/arm-none-eabi/include/c++/6.3.1/sstream ****       typedef typename traits_type::pos_type 		pos_type;
  77:/home/zkmike/.local/share/renesas/e2_studio/toolchains/gcc_arm/gcc-arm-none-eabi-6-2017-q2-update/arm-none-eabi/include/c++/6.3.1/sstream ****       typedef typename traits_type::off_type 		off_type;
  78:/home/zkmike/.local/share/renesas/e2_studio/toolchains/gcc_arm/gcc-arm-none-eabi-6-2017-q2-update/arm-none-eabi/include/c++/6.3.1/sstream **** 
  79:/home/zkmike/.local/share/renesas/e2_studio/toolchains/gcc_arm/gcc-arm-none-eabi-6-2017-q2-update/arm-none-eabi/include/c++/6.3.1/sstream ****       typedef basic_streambuf<char_type, traits_type>  	__streambuf_type;
  80:/home/zkmike/.local/share/renesas/e2_studio/toolchains/gcc_arm/gcc-arm-none-eabi-6-2017-q2-update/arm-none-eabi/include/c++/6.3.1/sstream ****       typedef basic_string<char_type, _Traits, _Alloc> 	__string_type;
  81:/home/zkmike/.local/share/renesas/e2_studio/toolchains/gcc_arm/gcc-arm-none-eabi-6-2017-q2-update/arm-none-eabi/include/c++/6.3.1/sstream ****       typedef typename __string_type::size_type		__size_type;
  82:/home/zkmike/.local/share/renesas/e2_studio/toolchains/gcc_arm/gcc-arm-none-eabi-6-2017-q2-update/arm-none-eabi/include/c++/6.3.1/sstream **** 
  83:/home/zkmike/.local/share/renesas/e2_studio/toolchains/gcc_arm/gcc-arm-none-eabi-6-2017-q2-update/arm-none-eabi/include/c++/6.3.1/sstream ****     protected:
  84:/home/zkmike/.local/share/renesas/e2_studio/toolchains/gcc_arm/gcc-arm-none-eabi-6-2017-q2-update/arm-none-eabi/include/c++/6.3.1/sstream ****       /// Place to stash in || out || in | out settings for current stringbuf.
  85:/home/zkmike/.local/share/renesas/e2_studio/toolchains/gcc_arm/gcc-arm-none-eabi-6-2017-q2-update/arm-none-eabi/include/c++/6.3.1/sstream ****       ios_base::openmode 	_M_mode;
  86:/home/zkmike/.local/share/renesas/e2_studio/toolchains/gcc_arm/gcc-arm-none-eabi-6-2017-q2-update/arm-none-eabi/include/c++/6.3.1/sstream **** 
  87:/home/zkmike/.local/share/renesas/e2_studio/toolchains/gcc_arm/gcc-arm-none-eabi-6-2017-q2-update/arm-none-eabi/include/c++/6.3.1/sstream ****       // Data Members:
  88:/home/zkmike/.local/share/renesas/e2_studio/toolchains/gcc_arm/gcc-arm-none-eabi-6-2017-q2-update/arm-none-eabi/include/c++/6.3.1/sstream ****       __string_type 		_M_string;
  89:/home/zkmike/.local/share/renesas/e2_studio/toolchains/gcc_arm/gcc-arm-none-eabi-6-2017-q2-update/arm-none-eabi/include/c++/6.3.1/sstream **** 
  90:/home/zkmike/.local/share/renesas/e2_studio/toolchains/gcc_arm/gcc-arm-none-eabi-6-2017-q2-update/arm-none-eabi/include/c++/6.3.1/sstream ****     public:
  91:/home/zkmike/.local/share/renesas/e2_studio/toolchains/gcc_arm/gcc-arm-none-eabi-6-2017-q2-update/arm-none-eabi/include/c++/6.3.1/sstream ****       // Constructors:
  92:/home/zkmike/.local/share/renesas/e2_studio/toolchains/gcc_arm/gcc-arm-none-eabi-6-2017-q2-update/arm-none-eabi/include/c++/6.3.1/sstream ****       /**
  93:/home/zkmike/.local/share/renesas/e2_studio/toolchains/gcc_arm/gcc-arm-none-eabi-6-2017-q2-update/arm-none-eabi/include/c++/6.3.1/sstream ****        *  @brief  Starts with an empty string buffer.
  94:/home/zkmike/.local/share/renesas/e2_studio/toolchains/gcc_arm/gcc-arm-none-eabi-6-2017-q2-update/arm-none-eabi/include/c++/6.3.1/sstream ****        *  @param  __mode  Whether the buffer can read, or write, or both.
  95:/home/zkmike/.local/share/renesas/e2_studio/toolchains/gcc_arm/gcc-arm-none-eabi-6-2017-q2-update/arm-none-eabi/include/c++/6.3.1/sstream ****        *
  96:/home/zkmike/.local/share/renesas/e2_studio/toolchains/gcc_arm/gcc-arm-none-eabi-6-2017-q2-update/arm-none-eabi/include/c++/6.3.1/sstream ****        *  The default constructor initializes the parent class using its
  97:/home/zkmike/.local/share/renesas/e2_studio/toolchains/gcc_arm/gcc-arm-none-eabi-6-2017-q2-update/arm-none-eabi/include/c++/6.3.1/sstream ****        *  own default ctor.
  98:/home/zkmike/.local/share/renesas/e2_studio/toolchains/gcc_arm/gcc-arm-none-eabi-6-2017-q2-update/arm-none-eabi/include/c++/6.3.1/sstream ****       */
  99:/home/zkmike/.local/share/renesas/e2_studio/toolchains/gcc_arm/gcc-arm-none-eabi-6-2017-q2-update/arm-none-eabi/include/c++/6.3.1/sstream ****       explicit
 100:/home/zkmike/.local/share/renesas/e2_studio/toolchains/gcc_arm/gcc-arm-none-eabi-6-2017-q2-update/arm-none-eabi/include/c++/6.3.1/sstream ****       basic_stringbuf(ios_base::openmode __mode = ios_base::in | ios_base::out)
 101:/home/zkmike/.local/share/renesas/e2_studio/toolchains/gcc_arm/gcc-arm-none-eabi-6-2017-q2-update/arm-none-eabi/include/c++/6.3.1/sstream ****       : __streambuf_type(), _M_mode(__mode), _M_string()
 102:/home/zkmike/.local/share/renesas/e2_studio/toolchains/gcc_arm/gcc-arm-none-eabi-6-2017-q2-update/arm-none-eabi/include/c++/6.3.1/sstream ****       { }
 103:/home/zkmike/.local/share/renesas/e2_studio/toolchains/gcc_arm/gcc-arm-none-eabi-6-2017-q2-update/arm-none-eabi/include/c++/6.3.1/sstream **** 
 104:/home/zkmike/.local/share/renesas/e2_studio/toolchains/gcc_arm/gcc-arm-none-eabi-6-2017-q2-update/arm-none-eabi/include/c++/6.3.1/sstream ****       /**
 105:/home/zkmike/.local/share/renesas/e2_studio/toolchains/gcc_arm/gcc-arm-none-eabi-6-2017-q2-update/arm-none-eabi/include/c++/6.3.1/sstream ****        *  @brief  Starts with an existing string buffer.
 106:/home/zkmike/.local/share/renesas/e2_studio/toolchains/gcc_arm/gcc-arm-none-eabi-6-2017-q2-update/arm-none-eabi/include/c++/6.3.1/sstream ****        *  @param  __str  A string to copy as a starting buffer.
 107:/home/zkmike/.local/share/renesas/e2_studio/toolchains/gcc_arm/gcc-arm-none-eabi-6-2017-q2-update/arm-none-eabi/include/c++/6.3.1/sstream ****        *  @param  __mode  Whether the buffer can read, or write, or both.
 108:/home/zkmike/.local/share/renesas/e2_studio/toolchains/gcc_arm/gcc-arm-none-eabi-6-2017-q2-update/arm-none-eabi/include/c++/6.3.1/sstream ****        *
 109:/home/zkmike/.local/share/renesas/e2_studio/toolchains/gcc_arm/gcc-arm-none-eabi-6-2017-q2-update/arm-none-eabi/include/c++/6.3.1/sstream ****        *  This constructor initializes the parent class using its
 110:/home/zkmike/.local/share/renesas/e2_studio/toolchains/gcc_arm/gcc-arm-none-eabi-6-2017-q2-update/arm-none-eabi/include/c++/6.3.1/sstream ****        *  own default ctor.
 111:/home/zkmike/.local/share/renesas/e2_studio/toolchains/gcc_arm/gcc-arm-none-eabi-6-2017-q2-update/arm-none-eabi/include/c++/6.3.1/sstream ****       */
 112:/home/zkmike/.local/share/renesas/e2_studio/toolchains/gcc_arm/gcc-arm-none-eabi-6-2017-q2-update/arm-none-eabi/include/c++/6.3.1/sstream ****       explicit
 113:/home/zkmike/.local/share/renesas/e2_studio/toolchains/gcc_arm/gcc-arm-none-eabi-6-2017-q2-update/arm-none-eabi/include/c++/6.3.1/sstream ****       basic_stringbuf(const __string_type& __str,
 114:/home/zkmike/.local/share/renesas/e2_studio/toolchains/gcc_arm/gcc-arm-none-eabi-6-2017-q2-update/arm-none-eabi/include/c++/6.3.1/sstream **** 		      ios_base::openmode __mode = ios_base::in | ios_base::out)
 115:/home/zkmike/.local/share/renesas/e2_studio/toolchains/gcc_arm/gcc-arm-none-eabi-6-2017-q2-update/arm-none-eabi/include/c++/6.3.1/sstream ****       : __streambuf_type(), _M_mode(), _M_string(__str.data(), __str.size())
 116:/home/zkmike/.local/share/renesas/e2_studio/toolchains/gcc_arm/gcc-arm-none-eabi-6-2017-q2-update/arm-none-eabi/include/c++/6.3.1/sstream ****       { _M_stringbuf_init(__mode); }
 117:/home/zkmike/.local/share/renesas/e2_studio/toolchains/gcc_arm/gcc-arm-none-eabi-6-2017-q2-update/arm-none-eabi/include/c++/6.3.1/sstream **** 
 118:/home/zkmike/.local/share/renesas/e2_studio/toolchains/gcc_arm/gcc-arm-none-eabi-6-2017-q2-update/arm-none-eabi/include/c++/6.3.1/sstream **** #if __cplusplus >= 201103L
 119:/home/zkmike/.local/share/renesas/e2_studio/toolchains/gcc_arm/gcc-arm-none-eabi-6-2017-q2-update/arm-none-eabi/include/c++/6.3.1/sstream ****       basic_stringbuf(const basic_stringbuf&) = delete;
 120:/home/zkmike/.local/share/renesas/e2_studio/toolchains/gcc_arm/gcc-arm-none-eabi-6-2017-q2-update/arm-none-eabi/include/c++/6.3.1/sstream **** 
 121:/home/zkmike/.local/share/renesas/e2_studio/toolchains/gcc_arm/gcc-arm-none-eabi-6-2017-q2-update/arm-none-eabi/include/c++/6.3.1/sstream ****       basic_stringbuf(basic_stringbuf&& __rhs)
 122:/home/zkmike/.local/share/renesas/e2_studio/toolchains/gcc_arm/gcc-arm-none-eabi-6-2017-q2-update/arm-none-eabi/include/c++/6.3.1/sstream ****       : basic_stringbuf(std::move(__rhs), __xfer_bufptrs(__rhs, this))
 123:/home/zkmike/.local/share/renesas/e2_studio/toolchains/gcc_arm/gcc-arm-none-eabi-6-2017-q2-update/arm-none-eabi/include/c++/6.3.1/sstream ****       { __rhs._M_sync(const_cast<char_type*>(__rhs._M_string.data()), 0, 0); }
 124:/home/zkmike/.local/share/renesas/e2_studio/toolchains/gcc_arm/gcc-arm-none-eabi-6-2017-q2-update/arm-none-eabi/include/c++/6.3.1/sstream **** 
 125:/home/zkmike/.local/share/renesas/e2_studio/toolchains/gcc_arm/gcc-arm-none-eabi-6-2017-q2-update/arm-none-eabi/include/c++/6.3.1/sstream ****       // 27.8.2.2 Assign and swap:
 126:/home/zkmike/.local/share/renesas/e2_studio/toolchains/gcc_arm/gcc-arm-none-eabi-6-2017-q2-update/arm-none-eabi/include/c++/6.3.1/sstream **** 
 127:/home/zkmike/.local/share/renesas/e2_studio/toolchains/gcc_arm/gcc-arm-none-eabi-6-2017-q2-update/arm-none-eabi/include/c++/6.3.1/sstream ****       basic_stringbuf&
 128:/home/zkmike/.local/share/renesas/e2_studio/toolchains/gcc_arm/gcc-arm-none-eabi-6-2017-q2-update/arm-none-eabi/include/c++/6.3.1/sstream ****       operator=(const basic_stringbuf&) = delete;
 129:/home/zkmike/.local/share/renesas/e2_studio/toolchains/gcc_arm/gcc-arm-none-eabi-6-2017-q2-update/arm-none-eabi/include/c++/6.3.1/sstream **** 
 130:/home/zkmike/.local/share/renesas/e2_studio/toolchains/gcc_arm/gcc-arm-none-eabi-6-2017-q2-update/arm-none-eabi/include/c++/6.3.1/sstream ****       basic_stringbuf&
 131:/home/zkmike/.local/share/renesas/e2_studio/toolchains/gcc_arm/gcc-arm-none-eabi-6-2017-q2-update/arm-none-eabi/include/c++/6.3.1/sstream ****       operator=(basic_stringbuf&& __rhs)
 132:/home/zkmike/.local/share/renesas/e2_studio/toolchains/gcc_arm/gcc-arm-none-eabi-6-2017-q2-update/arm-none-eabi/include/c++/6.3.1/sstream ****       {
 133:/home/zkmike/.local/share/renesas/e2_studio/toolchains/gcc_arm/gcc-arm-none-eabi-6-2017-q2-update/arm-none-eabi/include/c++/6.3.1/sstream **** 	__xfer_bufptrs __st{__rhs, this};
 134:/home/zkmike/.local/share/renesas/e2_studio/toolchains/gcc_arm/gcc-arm-none-eabi-6-2017-q2-update/arm-none-eabi/include/c++/6.3.1/sstream **** 	const __streambuf_type& __base = __rhs;
 135:/home/zkmike/.local/share/renesas/e2_studio/toolchains/gcc_arm/gcc-arm-none-eabi-6-2017-q2-update/arm-none-eabi/include/c++/6.3.1/sstream **** 	__streambuf_type::operator=(__base);
 136:/home/zkmike/.local/share/renesas/e2_studio/toolchains/gcc_arm/gcc-arm-none-eabi-6-2017-q2-update/arm-none-eabi/include/c++/6.3.1/sstream **** 	this->pubimbue(__rhs.getloc());
 137:/home/zkmike/.local/share/renesas/e2_studio/toolchains/gcc_arm/gcc-arm-none-eabi-6-2017-q2-update/arm-none-eabi/include/c++/6.3.1/sstream **** 	_M_mode = __rhs._M_mode;
 138:/home/zkmike/.local/share/renesas/e2_studio/toolchains/gcc_arm/gcc-arm-none-eabi-6-2017-q2-update/arm-none-eabi/include/c++/6.3.1/sstream **** 	_M_string = std::move(__rhs._M_string);
 139:/home/zkmike/.local/share/renesas/e2_studio/toolchains/gcc_arm/gcc-arm-none-eabi-6-2017-q2-update/arm-none-eabi/include/c++/6.3.1/sstream **** 	__rhs._M_sync(const_cast<char_type*>(__rhs._M_string.data()), 0, 0);
 140:/home/zkmike/.local/share/renesas/e2_studio/toolchains/gcc_arm/gcc-arm-none-eabi-6-2017-q2-update/arm-none-eabi/include/c++/6.3.1/sstream **** 	return *this;
 141:/home/zkmike/.local/share/renesas/e2_studio/toolchains/gcc_arm/gcc-arm-none-eabi-6-2017-q2-update/arm-none-eabi/include/c++/6.3.1/sstream ****       }
 142:/home/zkmike/.local/share/renesas/e2_studio/toolchains/gcc_arm/gcc-arm-none-eabi-6-2017-q2-update/arm-none-eabi/include/c++/6.3.1/sstream **** 
 143:/home/zkmike/.local/share/renesas/e2_studio/toolchains/gcc_arm/gcc-arm-none-eabi-6-2017-q2-update/arm-none-eabi/include/c++/6.3.1/sstream ****       void
 144:/home/zkmike/.local/share/renesas/e2_studio/toolchains/gcc_arm/gcc-arm-none-eabi-6-2017-q2-update/arm-none-eabi/include/c++/6.3.1/sstream ****       swap(basic_stringbuf& __rhs)
 145:/home/zkmike/.local/share/renesas/e2_studio/toolchains/gcc_arm/gcc-arm-none-eabi-6-2017-q2-update/arm-none-eabi/include/c++/6.3.1/sstream ****       {
 146:/home/zkmike/.local/share/renesas/e2_studio/toolchains/gcc_arm/gcc-arm-none-eabi-6-2017-q2-update/arm-none-eabi/include/c++/6.3.1/sstream **** 	__xfer_bufptrs __l_st{*this, std::__addressof(__rhs)};
 147:/home/zkmike/.local/share/renesas/e2_studio/toolchains/gcc_arm/gcc-arm-none-eabi-6-2017-q2-update/arm-none-eabi/include/c++/6.3.1/sstream **** 	__xfer_bufptrs __r_st{__rhs, this};
 148:/home/zkmike/.local/share/renesas/e2_studio/toolchains/gcc_arm/gcc-arm-none-eabi-6-2017-q2-update/arm-none-eabi/include/c++/6.3.1/sstream **** 	__streambuf_type& __base = __rhs;
 149:/home/zkmike/.local/share/renesas/e2_studio/toolchains/gcc_arm/gcc-arm-none-eabi-6-2017-q2-update/arm-none-eabi/include/c++/6.3.1/sstream **** 	__streambuf_type::swap(__base);
 150:/home/zkmike/.local/share/renesas/e2_studio/toolchains/gcc_arm/gcc-arm-none-eabi-6-2017-q2-update/arm-none-eabi/include/c++/6.3.1/sstream **** 	__rhs.pubimbue(this->pubimbue(__rhs.getloc()));
 151:/home/zkmike/.local/share/renesas/e2_studio/toolchains/gcc_arm/gcc-arm-none-eabi-6-2017-q2-update/arm-none-eabi/include/c++/6.3.1/sstream **** 	std::swap(_M_mode, __rhs._M_mode);
 152:/home/zkmike/.local/share/renesas/e2_studio/toolchains/gcc_arm/gcc-arm-none-eabi-6-2017-q2-update/arm-none-eabi/include/c++/6.3.1/sstream **** 	std::swap(_M_string, __rhs._M_string);
 153:/home/zkmike/.local/share/renesas/e2_studio/toolchains/gcc_arm/gcc-arm-none-eabi-6-2017-q2-update/arm-none-eabi/include/c++/6.3.1/sstream ****       }
 154:/home/zkmike/.local/share/renesas/e2_studio/toolchains/gcc_arm/gcc-arm-none-eabi-6-2017-q2-update/arm-none-eabi/include/c++/6.3.1/sstream **** #endif
 155:/home/zkmike/.local/share/renesas/e2_studio/toolchains/gcc_arm/gcc-arm-none-eabi-6-2017-q2-update/arm-none-eabi/include/c++/6.3.1/sstream **** 
 156:/home/zkmike/.local/share/renesas/e2_studio/toolchains/gcc_arm/gcc-arm-none-eabi-6-2017-q2-update/arm-none-eabi/include/c++/6.3.1/sstream ****       // Get and set:
 157:/home/zkmike/.local/share/renesas/e2_studio/toolchains/gcc_arm/gcc-arm-none-eabi-6-2017-q2-update/arm-none-eabi/include/c++/6.3.1/sstream ****       /**
 158:/home/zkmike/.local/share/renesas/e2_studio/toolchains/gcc_arm/gcc-arm-none-eabi-6-2017-q2-update/arm-none-eabi/include/c++/6.3.1/sstream ****        *  @brief  Copying out the string buffer.
 159:/home/zkmike/.local/share/renesas/e2_studio/toolchains/gcc_arm/gcc-arm-none-eabi-6-2017-q2-update/arm-none-eabi/include/c++/6.3.1/sstream ****        *  @return  A copy of one of the underlying sequences.
 160:/home/zkmike/.local/share/renesas/e2_studio/toolchains/gcc_arm/gcc-arm-none-eabi-6-2017-q2-update/arm-none-eabi/include/c++/6.3.1/sstream ****        *
 161:/home/zkmike/.local/share/renesas/e2_studio/toolchains/gcc_arm/gcc-arm-none-eabi-6-2017-q2-update/arm-none-eabi/include/c++/6.3.1/sstream ****        *  <em>If the buffer is only created in input mode, the underlying
 162:/home/zkmike/.local/share/renesas/e2_studio/toolchains/gcc_arm/gcc-arm-none-eabi-6-2017-q2-update/arm-none-eabi/include/c++/6.3.1/sstream ****        *  character sequence is equal to the input sequence; otherwise, it
 163:/home/zkmike/.local/share/renesas/e2_studio/toolchains/gcc_arm/gcc-arm-none-eabi-6-2017-q2-update/arm-none-eabi/include/c++/6.3.1/sstream ****        *  is equal to the output sequence.</em> [27.7.1.2]/1
 164:/home/zkmike/.local/share/renesas/e2_studio/toolchains/gcc_arm/gcc-arm-none-eabi-6-2017-q2-update/arm-none-eabi/include/c++/6.3.1/sstream ****       */
 165:/home/zkmike/.local/share/renesas/e2_studio/toolchains/gcc_arm/gcc-arm-none-eabi-6-2017-q2-update/arm-none-eabi/include/c++/6.3.1/sstream ****       __string_type
 166:/home/zkmike/.local/share/renesas/e2_studio/toolchains/gcc_arm/gcc-arm-none-eabi-6-2017-q2-update/arm-none-eabi/include/c++/6.3.1/sstream ****       str() const
 167:/home/zkmike/.local/share/renesas/e2_studio/toolchains/gcc_arm/gcc-arm-none-eabi-6-2017-q2-update/arm-none-eabi/include/c++/6.3.1/sstream ****       {
 168:/home/zkmike/.local/share/renesas/e2_studio/toolchains/gcc_arm/gcc-arm-none-eabi-6-2017-q2-update/arm-none-eabi/include/c++/6.3.1/sstream **** 	__string_type __ret;
 169:/home/zkmike/.local/share/renesas/e2_studio/toolchains/gcc_arm/gcc-arm-none-eabi-6-2017-q2-update/arm-none-eabi/include/c++/6.3.1/sstream **** 	if (this->pptr())
 170:/home/zkmike/.local/share/renesas/e2_studio/toolchains/gcc_arm/gcc-arm-none-eabi-6-2017-q2-update/arm-none-eabi/include/c++/6.3.1/sstream **** 	  {
 171:/home/zkmike/.local/share/renesas/e2_studio/toolchains/gcc_arm/gcc-arm-none-eabi-6-2017-q2-update/arm-none-eabi/include/c++/6.3.1/sstream **** 	    // The current egptr() may not be the actual string end.
 172:/home/zkmike/.local/share/renesas/e2_studio/toolchains/gcc_arm/gcc-arm-none-eabi-6-2017-q2-update/arm-none-eabi/include/c++/6.3.1/sstream **** 	    if (this->pptr() > this->egptr())
 173:/home/zkmike/.local/share/renesas/e2_studio/toolchains/gcc_arm/gcc-arm-none-eabi-6-2017-q2-update/arm-none-eabi/include/c++/6.3.1/sstream **** 	      __ret = __string_type(this->pbase(), this->pptr());
 174:/home/zkmike/.local/share/renesas/e2_studio/toolchains/gcc_arm/gcc-arm-none-eabi-6-2017-q2-update/arm-none-eabi/include/c++/6.3.1/sstream **** 	    else
 175:/home/zkmike/.local/share/renesas/e2_studio/toolchains/gcc_arm/gcc-arm-none-eabi-6-2017-q2-update/arm-none-eabi/include/c++/6.3.1/sstream ****  	      __ret = __string_type(this->pbase(), this->egptr());
 176:/home/zkmike/.local/share/renesas/e2_studio/toolchains/gcc_arm/gcc-arm-none-eabi-6-2017-q2-update/arm-none-eabi/include/c++/6.3.1/sstream **** 	  }
 177:/home/zkmike/.local/share/renesas/e2_studio/toolchains/gcc_arm/gcc-arm-none-eabi-6-2017-q2-update/arm-none-eabi/include/c++/6.3.1/sstream **** 	else
 178:/home/zkmike/.local/share/renesas/e2_studio/toolchains/gcc_arm/gcc-arm-none-eabi-6-2017-q2-update/arm-none-eabi/include/c++/6.3.1/sstream **** 	  __ret = _M_string;
 179:/home/zkmike/.local/share/renesas/e2_studio/toolchains/gcc_arm/gcc-arm-none-eabi-6-2017-q2-update/arm-none-eabi/include/c++/6.3.1/sstream **** 	return __ret;
 180:/home/zkmike/.local/share/renesas/e2_studio/toolchains/gcc_arm/gcc-arm-none-eabi-6-2017-q2-update/arm-none-eabi/include/c++/6.3.1/sstream ****       }
 181:/home/zkmike/.local/share/renesas/e2_studio/toolchains/gcc_arm/gcc-arm-none-eabi-6-2017-q2-update/arm-none-eabi/include/c++/6.3.1/sstream **** 
 182:/home/zkmike/.local/share/renesas/e2_studio/toolchains/gcc_arm/gcc-arm-none-eabi-6-2017-q2-update/arm-none-eabi/include/c++/6.3.1/sstream ****       /**
 183:/home/zkmike/.local/share/renesas/e2_studio/toolchains/gcc_arm/gcc-arm-none-eabi-6-2017-q2-update/arm-none-eabi/include/c++/6.3.1/sstream ****        *  @brief  Setting a new buffer.
 184:/home/zkmike/.local/share/renesas/e2_studio/toolchains/gcc_arm/gcc-arm-none-eabi-6-2017-q2-update/arm-none-eabi/include/c++/6.3.1/sstream ****        *  @param  __s  The string to use as a new sequence.
 185:/home/zkmike/.local/share/renesas/e2_studio/toolchains/gcc_arm/gcc-arm-none-eabi-6-2017-q2-update/arm-none-eabi/include/c++/6.3.1/sstream ****        *
 186:/home/zkmike/.local/share/renesas/e2_studio/toolchains/gcc_arm/gcc-arm-none-eabi-6-2017-q2-update/arm-none-eabi/include/c++/6.3.1/sstream ****        *  Deallocates any previous stored sequence, then copies @a s to
 187:/home/zkmike/.local/share/renesas/e2_studio/toolchains/gcc_arm/gcc-arm-none-eabi-6-2017-q2-update/arm-none-eabi/include/c++/6.3.1/sstream ****        *  use as a new one.
 188:/home/zkmike/.local/share/renesas/e2_studio/toolchains/gcc_arm/gcc-arm-none-eabi-6-2017-q2-update/arm-none-eabi/include/c++/6.3.1/sstream ****       */
 189:/home/zkmike/.local/share/renesas/e2_studio/toolchains/gcc_arm/gcc-arm-none-eabi-6-2017-q2-update/arm-none-eabi/include/c++/6.3.1/sstream ****       void
 190:/home/zkmike/.local/share/renesas/e2_studio/toolchains/gcc_arm/gcc-arm-none-eabi-6-2017-q2-update/arm-none-eabi/include/c++/6.3.1/sstream ****       str(const __string_type& __s)
 191:/home/zkmike/.local/share/renesas/e2_studio/toolchains/gcc_arm/gcc-arm-none-eabi-6-2017-q2-update/arm-none-eabi/include/c++/6.3.1/sstream ****       {
 192:/home/zkmike/.local/share/renesas/e2_studio/toolchains/gcc_arm/gcc-arm-none-eabi-6-2017-q2-update/arm-none-eabi/include/c++/6.3.1/sstream **** 	// Cannot use _M_string = __s, since v3 strings are COW
 193:/home/zkmike/.local/share/renesas/e2_studio/toolchains/gcc_arm/gcc-arm-none-eabi-6-2017-q2-update/arm-none-eabi/include/c++/6.3.1/sstream **** 	// (not always true now but assign() always works).
 194:/home/zkmike/.local/share/renesas/e2_studio/toolchains/gcc_arm/gcc-arm-none-eabi-6-2017-q2-update/arm-none-eabi/include/c++/6.3.1/sstream **** 	_M_string.assign(__s.data(), __s.size());
 195:/home/zkmike/.local/share/renesas/e2_studio/toolchains/gcc_arm/gcc-arm-none-eabi-6-2017-q2-update/arm-none-eabi/include/c++/6.3.1/sstream **** 	_M_stringbuf_init(_M_mode);
 196:/home/zkmike/.local/share/renesas/e2_studio/toolchains/gcc_arm/gcc-arm-none-eabi-6-2017-q2-update/arm-none-eabi/include/c++/6.3.1/sstream ****       }
 197:/home/zkmike/.local/share/renesas/e2_studio/toolchains/gcc_arm/gcc-arm-none-eabi-6-2017-q2-update/arm-none-eabi/include/c++/6.3.1/sstream **** 
 198:/home/zkmike/.local/share/renesas/e2_studio/toolchains/gcc_arm/gcc-arm-none-eabi-6-2017-q2-update/arm-none-eabi/include/c++/6.3.1/sstream ****     protected:
 199:/home/zkmike/.local/share/renesas/e2_studio/toolchains/gcc_arm/gcc-arm-none-eabi-6-2017-q2-update/arm-none-eabi/include/c++/6.3.1/sstream ****       // Common initialization code goes here.
 200:/home/zkmike/.local/share/renesas/e2_studio/toolchains/gcc_arm/gcc-arm-none-eabi-6-2017-q2-update/arm-none-eabi/include/c++/6.3.1/sstream ****       void
 201:/home/zkmike/.local/share/renesas/e2_studio/toolchains/gcc_arm/gcc-arm-none-eabi-6-2017-q2-update/arm-none-eabi/include/c++/6.3.1/sstream ****       _M_stringbuf_init(ios_base::openmode __mode)
 202:/home/zkmike/.local/share/renesas/e2_studio/toolchains/gcc_arm/gcc-arm-none-eabi-6-2017-q2-update/arm-none-eabi/include/c++/6.3.1/sstream ****       {
 203:/home/zkmike/.local/share/renesas/e2_studio/toolchains/gcc_arm/gcc-arm-none-eabi-6-2017-q2-update/arm-none-eabi/include/c++/6.3.1/sstream **** 	_M_mode = __mode;
 204:/home/zkmike/.local/share/renesas/e2_studio/toolchains/gcc_arm/gcc-arm-none-eabi-6-2017-q2-update/arm-none-eabi/include/c++/6.3.1/sstream **** 	__size_type __len = 0;
 205:/home/zkmike/.local/share/renesas/e2_studio/toolchains/gcc_arm/gcc-arm-none-eabi-6-2017-q2-update/arm-none-eabi/include/c++/6.3.1/sstream **** 	if (_M_mode & (ios_base::ate | ios_base::app))
 206:/home/zkmike/.local/share/renesas/e2_studio/toolchains/gcc_arm/gcc-arm-none-eabi-6-2017-q2-update/arm-none-eabi/include/c++/6.3.1/sstream **** 	  __len = _M_string.size();
 207:/home/zkmike/.local/share/renesas/e2_studio/toolchains/gcc_arm/gcc-arm-none-eabi-6-2017-q2-update/arm-none-eabi/include/c++/6.3.1/sstream **** 	_M_sync(const_cast<char_type*>(_M_string.data()), 0, __len);
 208:/home/zkmike/.local/share/renesas/e2_studio/toolchains/gcc_arm/gcc-arm-none-eabi-6-2017-q2-update/arm-none-eabi/include/c++/6.3.1/sstream ****       }
 209:/home/zkmike/.local/share/renesas/e2_studio/toolchains/gcc_arm/gcc-arm-none-eabi-6-2017-q2-update/arm-none-eabi/include/c++/6.3.1/sstream **** 
 210:/home/zkmike/.local/share/renesas/e2_studio/toolchains/gcc_arm/gcc-arm-none-eabi-6-2017-q2-update/arm-none-eabi/include/c++/6.3.1/sstream ****       virtual streamsize
 211:/home/zkmike/.local/share/renesas/e2_studio/toolchains/gcc_arm/gcc-arm-none-eabi-6-2017-q2-update/arm-none-eabi/include/c++/6.3.1/sstream ****       showmanyc()
 212:/home/zkmike/.local/share/renesas/e2_studio/toolchains/gcc_arm/gcc-arm-none-eabi-6-2017-q2-update/arm-none-eabi/include/c++/6.3.1/sstream ****       { 
 213:/home/zkmike/.local/share/renesas/e2_studio/toolchains/gcc_arm/gcc-arm-none-eabi-6-2017-q2-update/arm-none-eabi/include/c++/6.3.1/sstream **** 	streamsize __ret = -1;
 214:/home/zkmike/.local/share/renesas/e2_studio/toolchains/gcc_arm/gcc-arm-none-eabi-6-2017-q2-update/arm-none-eabi/include/c++/6.3.1/sstream **** 	if (_M_mode & ios_base::in)
 215:/home/zkmike/.local/share/renesas/e2_studio/toolchains/gcc_arm/gcc-arm-none-eabi-6-2017-q2-update/arm-none-eabi/include/c++/6.3.1/sstream **** 	  {
 216:/home/zkmike/.local/share/renesas/e2_studio/toolchains/gcc_arm/gcc-arm-none-eabi-6-2017-q2-update/arm-none-eabi/include/c++/6.3.1/sstream **** 	    _M_update_egptr();
 217:/home/zkmike/.local/share/renesas/e2_studio/toolchains/gcc_arm/gcc-arm-none-eabi-6-2017-q2-update/arm-none-eabi/include/c++/6.3.1/sstream **** 	    __ret = this->egptr() - this->gptr();
 218:/home/zkmike/.local/share/renesas/e2_studio/toolchains/gcc_arm/gcc-arm-none-eabi-6-2017-q2-update/arm-none-eabi/include/c++/6.3.1/sstream **** 	  }
 219:/home/zkmike/.local/share/renesas/e2_studio/toolchains/gcc_arm/gcc-arm-none-eabi-6-2017-q2-update/arm-none-eabi/include/c++/6.3.1/sstream **** 	return __ret;
 220:/home/zkmike/.local/share/renesas/e2_studio/toolchains/gcc_arm/gcc-arm-none-eabi-6-2017-q2-update/arm-none-eabi/include/c++/6.3.1/sstream ****       }
 221:/home/zkmike/.local/share/renesas/e2_studio/toolchains/gcc_arm/gcc-arm-none-eabi-6-2017-q2-update/arm-none-eabi/include/c++/6.3.1/sstream **** 
 222:/home/zkmike/.local/share/renesas/e2_studio/toolchains/gcc_arm/gcc-arm-none-eabi-6-2017-q2-update/arm-none-eabi/include/c++/6.3.1/sstream ****       virtual int_type
 223:/home/zkmike/.local/share/renesas/e2_studio/toolchains/gcc_arm/gcc-arm-none-eabi-6-2017-q2-update/arm-none-eabi/include/c++/6.3.1/sstream ****       underflow();
 224:/home/zkmike/.local/share/renesas/e2_studio/toolchains/gcc_arm/gcc-arm-none-eabi-6-2017-q2-update/arm-none-eabi/include/c++/6.3.1/sstream **** 
 225:/home/zkmike/.local/share/renesas/e2_studio/toolchains/gcc_arm/gcc-arm-none-eabi-6-2017-q2-update/arm-none-eabi/include/c++/6.3.1/sstream ****       virtual int_type
 226:/home/zkmike/.local/share/renesas/e2_studio/toolchains/gcc_arm/gcc-arm-none-eabi-6-2017-q2-update/arm-none-eabi/include/c++/6.3.1/sstream ****       pbackfail(int_type __c = traits_type::eof());
 227:/home/zkmike/.local/share/renesas/e2_studio/toolchains/gcc_arm/gcc-arm-none-eabi-6-2017-q2-update/arm-none-eabi/include/c++/6.3.1/sstream **** 
 228:/home/zkmike/.local/share/renesas/e2_studio/toolchains/gcc_arm/gcc-arm-none-eabi-6-2017-q2-update/arm-none-eabi/include/c++/6.3.1/sstream ****       virtual int_type
 229:/home/zkmike/.local/share/renesas/e2_studio/toolchains/gcc_arm/gcc-arm-none-eabi-6-2017-q2-update/arm-none-eabi/include/c++/6.3.1/sstream ****       overflow(int_type __c = traits_type::eof());
 230:/home/zkmike/.local/share/renesas/e2_studio/toolchains/gcc_arm/gcc-arm-none-eabi-6-2017-q2-update/arm-none-eabi/include/c++/6.3.1/sstream **** 
 231:/home/zkmike/.local/share/renesas/e2_studio/toolchains/gcc_arm/gcc-arm-none-eabi-6-2017-q2-update/arm-none-eabi/include/c++/6.3.1/sstream ****       /**
 232:/home/zkmike/.local/share/renesas/e2_studio/toolchains/gcc_arm/gcc-arm-none-eabi-6-2017-q2-update/arm-none-eabi/include/c++/6.3.1/sstream ****        *  @brief  Manipulates the buffer.
 233:/home/zkmike/.local/share/renesas/e2_studio/toolchains/gcc_arm/gcc-arm-none-eabi-6-2017-q2-update/arm-none-eabi/include/c++/6.3.1/sstream ****        *  @param  __s  Pointer to a buffer area.
 234:/home/zkmike/.local/share/renesas/e2_studio/toolchains/gcc_arm/gcc-arm-none-eabi-6-2017-q2-update/arm-none-eabi/include/c++/6.3.1/sstream ****        *  @param  __n  Size of @a __s.
 235:/home/zkmike/.local/share/renesas/e2_studio/toolchains/gcc_arm/gcc-arm-none-eabi-6-2017-q2-update/arm-none-eabi/include/c++/6.3.1/sstream ****        *  @return  @c this
 236:/home/zkmike/.local/share/renesas/e2_studio/toolchains/gcc_arm/gcc-arm-none-eabi-6-2017-q2-update/arm-none-eabi/include/c++/6.3.1/sstream ****        *
 237:/home/zkmike/.local/share/renesas/e2_studio/toolchains/gcc_arm/gcc-arm-none-eabi-6-2017-q2-update/arm-none-eabi/include/c++/6.3.1/sstream ****        *  If no buffer has already been created, and both @a __s and @a __n are
 238:/home/zkmike/.local/share/renesas/e2_studio/toolchains/gcc_arm/gcc-arm-none-eabi-6-2017-q2-update/arm-none-eabi/include/c++/6.3.1/sstream ****        *  non-zero, then @c __s is used as a buffer; see
 239:/home/zkmike/.local/share/renesas/e2_studio/toolchains/gcc_arm/gcc-arm-none-eabi-6-2017-q2-update/arm-none-eabi/include/c++/6.3.1/sstream ****        *  https://gcc.gnu.org/onlinedocs/libstdc++/manual/streambufs.html#io.streambuf.buffering
 240:/home/zkmike/.local/share/renesas/e2_studio/toolchains/gcc_arm/gcc-arm-none-eabi-6-2017-q2-update/arm-none-eabi/include/c++/6.3.1/sstream ****        *  for more.
 241:/home/zkmike/.local/share/renesas/e2_studio/toolchains/gcc_arm/gcc-arm-none-eabi-6-2017-q2-update/arm-none-eabi/include/c++/6.3.1/sstream ****       */
 242:/home/zkmike/.local/share/renesas/e2_studio/toolchains/gcc_arm/gcc-arm-none-eabi-6-2017-q2-update/arm-none-eabi/include/c++/6.3.1/sstream ****       virtual __streambuf_type*
 243:/home/zkmike/.local/share/renesas/e2_studio/toolchains/gcc_arm/gcc-arm-none-eabi-6-2017-q2-update/arm-none-eabi/include/c++/6.3.1/sstream ****       setbuf(char_type* __s, streamsize __n)
 244:/home/zkmike/.local/share/renesas/e2_studio/toolchains/gcc_arm/gcc-arm-none-eabi-6-2017-q2-update/arm-none-eabi/include/c++/6.3.1/sstream ****       {
 245:/home/zkmike/.local/share/renesas/e2_studio/toolchains/gcc_arm/gcc-arm-none-eabi-6-2017-q2-update/arm-none-eabi/include/c++/6.3.1/sstream **** 	if (__s && __n >= 0)
 246:/home/zkmike/.local/share/renesas/e2_studio/toolchains/gcc_arm/gcc-arm-none-eabi-6-2017-q2-update/arm-none-eabi/include/c++/6.3.1/sstream **** 	  {
 247:/home/zkmike/.local/share/renesas/e2_studio/toolchains/gcc_arm/gcc-arm-none-eabi-6-2017-q2-update/arm-none-eabi/include/c++/6.3.1/sstream **** 	    // This is implementation-defined behavior, and assumes
 248:/home/zkmike/.local/share/renesas/e2_studio/toolchains/gcc_arm/gcc-arm-none-eabi-6-2017-q2-update/arm-none-eabi/include/c++/6.3.1/sstream **** 	    // that an external char_type array of length __n exists
 249:/home/zkmike/.local/share/renesas/e2_studio/toolchains/gcc_arm/gcc-arm-none-eabi-6-2017-q2-update/arm-none-eabi/include/c++/6.3.1/sstream **** 	    // and has been pre-allocated. If this is not the case,
 250:/home/zkmike/.local/share/renesas/e2_studio/toolchains/gcc_arm/gcc-arm-none-eabi-6-2017-q2-update/arm-none-eabi/include/c++/6.3.1/sstream **** 	    // things will quickly blow up.
 251:/home/zkmike/.local/share/renesas/e2_studio/toolchains/gcc_arm/gcc-arm-none-eabi-6-2017-q2-update/arm-none-eabi/include/c++/6.3.1/sstream **** 	    
 252:/home/zkmike/.local/share/renesas/e2_studio/toolchains/gcc_arm/gcc-arm-none-eabi-6-2017-q2-update/arm-none-eabi/include/c++/6.3.1/sstream **** 	    // Step 1: Destroy the current internal array.
 253:/home/zkmike/.local/share/renesas/e2_studio/toolchains/gcc_arm/gcc-arm-none-eabi-6-2017-q2-update/arm-none-eabi/include/c++/6.3.1/sstream **** 	    _M_string.clear();
 254:/home/zkmike/.local/share/renesas/e2_studio/toolchains/gcc_arm/gcc-arm-none-eabi-6-2017-q2-update/arm-none-eabi/include/c++/6.3.1/sstream **** 	    
 255:/home/zkmike/.local/share/renesas/e2_studio/toolchains/gcc_arm/gcc-arm-none-eabi-6-2017-q2-update/arm-none-eabi/include/c++/6.3.1/sstream **** 	    // Step 2: Use the external array.
 256:/home/zkmike/.local/share/renesas/e2_studio/toolchains/gcc_arm/gcc-arm-none-eabi-6-2017-q2-update/arm-none-eabi/include/c++/6.3.1/sstream **** 	    _M_sync(__s, __n, 0);
 257:/home/zkmike/.local/share/renesas/e2_studio/toolchains/gcc_arm/gcc-arm-none-eabi-6-2017-q2-update/arm-none-eabi/include/c++/6.3.1/sstream **** 	  }
 258:/home/zkmike/.local/share/renesas/e2_studio/toolchains/gcc_arm/gcc-arm-none-eabi-6-2017-q2-update/arm-none-eabi/include/c++/6.3.1/sstream **** 	return this;
 259:/home/zkmike/.local/share/renesas/e2_studio/toolchains/gcc_arm/gcc-arm-none-eabi-6-2017-q2-update/arm-none-eabi/include/c++/6.3.1/sstream ****       }
 260:/home/zkmike/.local/share/renesas/e2_studio/toolchains/gcc_arm/gcc-arm-none-eabi-6-2017-q2-update/arm-none-eabi/include/c++/6.3.1/sstream **** 
 261:/home/zkmike/.local/share/renesas/e2_studio/toolchains/gcc_arm/gcc-arm-none-eabi-6-2017-q2-update/arm-none-eabi/include/c++/6.3.1/sstream ****       virtual pos_type
 262:/home/zkmike/.local/share/renesas/e2_studio/toolchains/gcc_arm/gcc-arm-none-eabi-6-2017-q2-update/arm-none-eabi/include/c++/6.3.1/sstream ****       seekoff(off_type __off, ios_base::seekdir __way,
 263:/home/zkmike/.local/share/renesas/e2_studio/toolchains/gcc_arm/gcc-arm-none-eabi-6-2017-q2-update/arm-none-eabi/include/c++/6.3.1/sstream **** 	      ios_base::openmode __mode = ios_base::in | ios_base::out);
 264:/home/zkmike/.local/share/renesas/e2_studio/toolchains/gcc_arm/gcc-arm-none-eabi-6-2017-q2-update/arm-none-eabi/include/c++/6.3.1/sstream **** 
 265:/home/zkmike/.local/share/renesas/e2_studio/toolchains/gcc_arm/gcc-arm-none-eabi-6-2017-q2-update/arm-none-eabi/include/c++/6.3.1/sstream ****       virtual pos_type
 266:/home/zkmike/.local/share/renesas/e2_studio/toolchains/gcc_arm/gcc-arm-none-eabi-6-2017-q2-update/arm-none-eabi/include/c++/6.3.1/sstream ****       seekpos(pos_type __sp,
 267:/home/zkmike/.local/share/renesas/e2_studio/toolchains/gcc_arm/gcc-arm-none-eabi-6-2017-q2-update/arm-none-eabi/include/c++/6.3.1/sstream **** 	      ios_base::openmode __mode = ios_base::in | ios_base::out);
 268:/home/zkmike/.local/share/renesas/e2_studio/toolchains/gcc_arm/gcc-arm-none-eabi-6-2017-q2-update/arm-none-eabi/include/c++/6.3.1/sstream **** 
 269:/home/zkmike/.local/share/renesas/e2_studio/toolchains/gcc_arm/gcc-arm-none-eabi-6-2017-q2-update/arm-none-eabi/include/c++/6.3.1/sstream ****       // Internal function for correctly updating the internal buffer
 270:/home/zkmike/.local/share/renesas/e2_studio/toolchains/gcc_arm/gcc-arm-none-eabi-6-2017-q2-update/arm-none-eabi/include/c++/6.3.1/sstream ****       // for a particular _M_string, due to initialization or re-sizing
 271:/home/zkmike/.local/share/renesas/e2_studio/toolchains/gcc_arm/gcc-arm-none-eabi-6-2017-q2-update/arm-none-eabi/include/c++/6.3.1/sstream ****       // of an existing _M_string.
 272:/home/zkmike/.local/share/renesas/e2_studio/toolchains/gcc_arm/gcc-arm-none-eabi-6-2017-q2-update/arm-none-eabi/include/c++/6.3.1/sstream ****       void
 273:/home/zkmike/.local/share/renesas/e2_studio/toolchains/gcc_arm/gcc-arm-none-eabi-6-2017-q2-update/arm-none-eabi/include/c++/6.3.1/sstream ****       _M_sync(char_type* __base, __size_type __i, __size_type __o);
 274:/home/zkmike/.local/share/renesas/e2_studio/toolchains/gcc_arm/gcc-arm-none-eabi-6-2017-q2-update/arm-none-eabi/include/c++/6.3.1/sstream **** 
 275:/home/zkmike/.local/share/renesas/e2_studio/toolchains/gcc_arm/gcc-arm-none-eabi-6-2017-q2-update/arm-none-eabi/include/c++/6.3.1/sstream ****       // Internal function for correctly updating egptr() to the actual
 276:/home/zkmike/.local/share/renesas/e2_studio/toolchains/gcc_arm/gcc-arm-none-eabi-6-2017-q2-update/arm-none-eabi/include/c++/6.3.1/sstream ****       // string end.
 277:/home/zkmike/.local/share/renesas/e2_studio/toolchains/gcc_arm/gcc-arm-none-eabi-6-2017-q2-update/arm-none-eabi/include/c++/6.3.1/sstream ****       void
 278:/home/zkmike/.local/share/renesas/e2_studio/toolchains/gcc_arm/gcc-arm-none-eabi-6-2017-q2-update/arm-none-eabi/include/c++/6.3.1/sstream ****       _M_update_egptr()
 279:/home/zkmike/.local/share/renesas/e2_studio/toolchains/gcc_arm/gcc-arm-none-eabi-6-2017-q2-update/arm-none-eabi/include/c++/6.3.1/sstream ****       {
 280:/home/zkmike/.local/share/renesas/e2_studio/toolchains/gcc_arm/gcc-arm-none-eabi-6-2017-q2-update/arm-none-eabi/include/c++/6.3.1/sstream **** 	const bool __testin = _M_mode & ios_base::in;
 281:/home/zkmike/.local/share/renesas/e2_studio/toolchains/gcc_arm/gcc-arm-none-eabi-6-2017-q2-update/arm-none-eabi/include/c++/6.3.1/sstream **** 	if (this->pptr() && this->pptr() > this->egptr())
 282:/home/zkmike/.local/share/renesas/e2_studio/toolchains/gcc_arm/gcc-arm-none-eabi-6-2017-q2-update/arm-none-eabi/include/c++/6.3.1/sstream **** 	  {
 283:/home/zkmike/.local/share/renesas/e2_studio/toolchains/gcc_arm/gcc-arm-none-eabi-6-2017-q2-update/arm-none-eabi/include/c++/6.3.1/sstream **** 	    if (__testin)
 284:/home/zkmike/.local/share/renesas/e2_studio/toolchains/gcc_arm/gcc-arm-none-eabi-6-2017-q2-update/arm-none-eabi/include/c++/6.3.1/sstream **** 	      this->setg(this->eback(), this->gptr(), this->pptr());
 285:/home/zkmike/.local/share/renesas/e2_studio/toolchains/gcc_arm/gcc-arm-none-eabi-6-2017-q2-update/arm-none-eabi/include/c++/6.3.1/sstream **** 	    else
 286:/home/zkmike/.local/share/renesas/e2_studio/toolchains/gcc_arm/gcc-arm-none-eabi-6-2017-q2-update/arm-none-eabi/include/c++/6.3.1/sstream **** 	      this->setg(this->pptr(), this->pptr(), this->pptr());
 287:/home/zkmike/.local/share/renesas/e2_studio/toolchains/gcc_arm/gcc-arm-none-eabi-6-2017-q2-update/arm-none-eabi/include/c++/6.3.1/sstream **** 	  }
 288:/home/zkmike/.local/share/renesas/e2_studio/toolchains/gcc_arm/gcc-arm-none-eabi-6-2017-q2-update/arm-none-eabi/include/c++/6.3.1/sstream ****       }
 289:/home/zkmike/.local/share/renesas/e2_studio/toolchains/gcc_arm/gcc-arm-none-eabi-6-2017-q2-update/arm-none-eabi/include/c++/6.3.1/sstream **** 
 290:/home/zkmike/.local/share/renesas/e2_studio/toolchains/gcc_arm/gcc-arm-none-eabi-6-2017-q2-update/arm-none-eabi/include/c++/6.3.1/sstream ****       // Works around the issue with pbump, part of the protected
 291:/home/zkmike/.local/share/renesas/e2_studio/toolchains/gcc_arm/gcc-arm-none-eabi-6-2017-q2-update/arm-none-eabi/include/c++/6.3.1/sstream ****       // interface of basic_streambuf, taking just an int.
 292:/home/zkmike/.local/share/renesas/e2_studio/toolchains/gcc_arm/gcc-arm-none-eabi-6-2017-q2-update/arm-none-eabi/include/c++/6.3.1/sstream ****       void
 293:/home/zkmike/.local/share/renesas/e2_studio/toolchains/gcc_arm/gcc-arm-none-eabi-6-2017-q2-update/arm-none-eabi/include/c++/6.3.1/sstream ****       _M_pbump(char_type* __pbeg, char_type* __pend, off_type __off);
 294:/home/zkmike/.local/share/renesas/e2_studio/toolchains/gcc_arm/gcc-arm-none-eabi-6-2017-q2-update/arm-none-eabi/include/c++/6.3.1/sstream **** 
 295:/home/zkmike/.local/share/renesas/e2_studio/toolchains/gcc_arm/gcc-arm-none-eabi-6-2017-q2-update/arm-none-eabi/include/c++/6.3.1/sstream ****     private:
 296:/home/zkmike/.local/share/renesas/e2_studio/toolchains/gcc_arm/gcc-arm-none-eabi-6-2017-q2-update/arm-none-eabi/include/c++/6.3.1/sstream **** #if __cplusplus >= 201103L
 297:/home/zkmike/.local/share/renesas/e2_studio/toolchains/gcc_arm/gcc-arm-none-eabi-6-2017-q2-update/arm-none-eabi/include/c++/6.3.1/sstream **** #if _GLIBCXX_USE_CXX11_ABI
 298:/home/zkmike/.local/share/renesas/e2_studio/toolchains/gcc_arm/gcc-arm-none-eabi-6-2017-q2-update/arm-none-eabi/include/c++/6.3.1/sstream ****       // This type captures the state of the gptr / pptr pointers as offsets
 299:/home/zkmike/.local/share/renesas/e2_studio/toolchains/gcc_arm/gcc-arm-none-eabi-6-2017-q2-update/arm-none-eabi/include/c++/6.3.1/sstream ****       // so they can be restored in another object after moving the string.
 300:/home/zkmike/.local/share/renesas/e2_studio/toolchains/gcc_arm/gcc-arm-none-eabi-6-2017-q2-update/arm-none-eabi/include/c++/6.3.1/sstream ****       struct __xfer_bufptrs
 301:/home/zkmike/.local/share/renesas/e2_studio/toolchains/gcc_arm/gcc-arm-none-eabi-6-2017-q2-update/arm-none-eabi/include/c++/6.3.1/sstream ****       {
 302:/home/zkmike/.local/share/renesas/e2_studio/toolchains/gcc_arm/gcc-arm-none-eabi-6-2017-q2-update/arm-none-eabi/include/c++/6.3.1/sstream **** 	__xfer_bufptrs(const basic_stringbuf& __from, basic_stringbuf* __to)
 303:/home/zkmike/.local/share/renesas/e2_studio/toolchains/gcc_arm/gcc-arm-none-eabi-6-2017-q2-update/arm-none-eabi/include/c++/6.3.1/sstream **** 	: _M_to{__to}, _M_goff{-1, -1, -1}, _M_poff{-1, -1, -1}
 304:/home/zkmike/.local/share/renesas/e2_studio/toolchains/gcc_arm/gcc-arm-none-eabi-6-2017-q2-update/arm-none-eabi/include/c++/6.3.1/sstream **** 	{
 305:/home/zkmike/.local/share/renesas/e2_studio/toolchains/gcc_arm/gcc-arm-none-eabi-6-2017-q2-update/arm-none-eabi/include/c++/6.3.1/sstream **** 	  const _CharT* __str = __from._M_string.data();
 306:/home/zkmike/.local/share/renesas/e2_studio/toolchains/gcc_arm/gcc-arm-none-eabi-6-2017-q2-update/arm-none-eabi/include/c++/6.3.1/sstream **** 	  if (__from.eback())
 307:/home/zkmike/.local/share/renesas/e2_studio/toolchains/gcc_arm/gcc-arm-none-eabi-6-2017-q2-update/arm-none-eabi/include/c++/6.3.1/sstream **** 	    {
 308:/home/zkmike/.local/share/renesas/e2_studio/toolchains/gcc_arm/gcc-arm-none-eabi-6-2017-q2-update/arm-none-eabi/include/c++/6.3.1/sstream **** 	    _M_goff[0] = __from.eback() - __str;
 309:/home/zkmike/.local/share/renesas/e2_studio/toolchains/gcc_arm/gcc-arm-none-eabi-6-2017-q2-update/arm-none-eabi/include/c++/6.3.1/sstream **** 	    _M_goff[1] = __from.gptr() - __str;
 310:/home/zkmike/.local/share/renesas/e2_studio/toolchains/gcc_arm/gcc-arm-none-eabi-6-2017-q2-update/arm-none-eabi/include/c++/6.3.1/sstream **** 	    _M_goff[2] = __from.egptr() - __str;
 311:/home/zkmike/.local/share/renesas/e2_studio/toolchains/gcc_arm/gcc-arm-none-eabi-6-2017-q2-update/arm-none-eabi/include/c++/6.3.1/sstream **** 	    }
 312:/home/zkmike/.local/share/renesas/e2_studio/toolchains/gcc_arm/gcc-arm-none-eabi-6-2017-q2-update/arm-none-eabi/include/c++/6.3.1/sstream **** 	  if (__from.pbase())
 313:/home/zkmike/.local/share/renesas/e2_studio/toolchains/gcc_arm/gcc-arm-none-eabi-6-2017-q2-update/arm-none-eabi/include/c++/6.3.1/sstream **** 	    {
 314:/home/zkmike/.local/share/renesas/e2_studio/toolchains/gcc_arm/gcc-arm-none-eabi-6-2017-q2-update/arm-none-eabi/include/c++/6.3.1/sstream **** 	      _M_poff[0] = __from.pbase() - __str;
 315:/home/zkmike/.local/share/renesas/e2_studio/toolchains/gcc_arm/gcc-arm-none-eabi-6-2017-q2-update/arm-none-eabi/include/c++/6.3.1/sstream **** 	      _M_poff[1] = __from.pptr() - __from.pbase();
 316:/home/zkmike/.local/share/renesas/e2_studio/toolchains/gcc_arm/gcc-arm-none-eabi-6-2017-q2-update/arm-none-eabi/include/c++/6.3.1/sstream **** 	      _M_poff[2] = __from.epptr() - __str;
 317:/home/zkmike/.local/share/renesas/e2_studio/toolchains/gcc_arm/gcc-arm-none-eabi-6-2017-q2-update/arm-none-eabi/include/c++/6.3.1/sstream **** 	    }
 318:/home/zkmike/.local/share/renesas/e2_studio/toolchains/gcc_arm/gcc-arm-none-eabi-6-2017-q2-update/arm-none-eabi/include/c++/6.3.1/sstream **** 	}
 319:/home/zkmike/.local/share/renesas/e2_studio/toolchains/gcc_arm/gcc-arm-none-eabi-6-2017-q2-update/arm-none-eabi/include/c++/6.3.1/sstream **** 
 320:/home/zkmike/.local/share/renesas/e2_studio/toolchains/gcc_arm/gcc-arm-none-eabi-6-2017-q2-update/arm-none-eabi/include/c++/6.3.1/sstream **** 	~__xfer_bufptrs()
 321:/home/zkmike/.local/share/renesas/e2_studio/toolchains/gcc_arm/gcc-arm-none-eabi-6-2017-q2-update/arm-none-eabi/include/c++/6.3.1/sstream **** 	{
 322:/home/zkmike/.local/share/renesas/e2_studio/toolchains/gcc_arm/gcc-arm-none-eabi-6-2017-q2-update/arm-none-eabi/include/c++/6.3.1/sstream **** 	  char_type* __str = const_cast<char_type*>(_M_to->_M_string.data());
 323:/home/zkmike/.local/share/renesas/e2_studio/toolchains/gcc_arm/gcc-arm-none-eabi-6-2017-q2-update/arm-none-eabi/include/c++/6.3.1/sstream **** 	  if (_M_goff[0] != -1)
 324:/home/zkmike/.local/share/renesas/e2_studio/toolchains/gcc_arm/gcc-arm-none-eabi-6-2017-q2-update/arm-none-eabi/include/c++/6.3.1/sstream **** 	    _M_to->setg(__str+_M_goff[0], __str+_M_goff[1], __str+_M_goff[2]);
 325:/home/zkmike/.local/share/renesas/e2_studio/toolchains/gcc_arm/gcc-arm-none-eabi-6-2017-q2-update/arm-none-eabi/include/c++/6.3.1/sstream **** 	  if (_M_poff[0] != -1)
 326:/home/zkmike/.local/share/renesas/e2_studio/toolchains/gcc_arm/gcc-arm-none-eabi-6-2017-q2-update/arm-none-eabi/include/c++/6.3.1/sstream **** 	    _M_to->_M_pbump(__str+_M_poff[0], __str+_M_poff[2], _M_poff[1]);
 327:/home/zkmike/.local/share/renesas/e2_studio/toolchains/gcc_arm/gcc-arm-none-eabi-6-2017-q2-update/arm-none-eabi/include/c++/6.3.1/sstream **** 	}
 328:/home/zkmike/.local/share/renesas/e2_studio/toolchains/gcc_arm/gcc-arm-none-eabi-6-2017-q2-update/arm-none-eabi/include/c++/6.3.1/sstream **** 
 329:/home/zkmike/.local/share/renesas/e2_studio/toolchains/gcc_arm/gcc-arm-none-eabi-6-2017-q2-update/arm-none-eabi/include/c++/6.3.1/sstream **** 	basic_stringbuf* _M_to;
 330:/home/zkmike/.local/share/renesas/e2_studio/toolchains/gcc_arm/gcc-arm-none-eabi-6-2017-q2-update/arm-none-eabi/include/c++/6.3.1/sstream **** 	off_type _M_goff[3];
 331:/home/zkmike/.local/share/renesas/e2_studio/toolchains/gcc_arm/gcc-arm-none-eabi-6-2017-q2-update/arm-none-eabi/include/c++/6.3.1/sstream **** 	off_type _M_poff[3];
 332:/home/zkmike/.local/share/renesas/e2_studio/toolchains/gcc_arm/gcc-arm-none-eabi-6-2017-q2-update/arm-none-eabi/include/c++/6.3.1/sstream ****       };
 333:/home/zkmike/.local/share/renesas/e2_studio/toolchains/gcc_arm/gcc-arm-none-eabi-6-2017-q2-update/arm-none-eabi/include/c++/6.3.1/sstream **** #else
 334:/home/zkmike/.local/share/renesas/e2_studio/toolchains/gcc_arm/gcc-arm-none-eabi-6-2017-q2-update/arm-none-eabi/include/c++/6.3.1/sstream ****       // This type does nothing when using Copy-On-Write strings.
 335:/home/zkmike/.local/share/renesas/e2_studio/toolchains/gcc_arm/gcc-arm-none-eabi-6-2017-q2-update/arm-none-eabi/include/c++/6.3.1/sstream ****       struct __xfer_bufptrs
 336:/home/zkmike/.local/share/renesas/e2_studio/toolchains/gcc_arm/gcc-arm-none-eabi-6-2017-q2-update/arm-none-eabi/include/c++/6.3.1/sstream ****       {
 337:/home/zkmike/.local/share/renesas/e2_studio/toolchains/gcc_arm/gcc-arm-none-eabi-6-2017-q2-update/arm-none-eabi/include/c++/6.3.1/sstream **** 	__xfer_bufptrs(const basic_stringbuf&, basic_stringbuf*) { }
 338:/home/zkmike/.local/share/renesas/e2_studio/toolchains/gcc_arm/gcc-arm-none-eabi-6-2017-q2-update/arm-none-eabi/include/c++/6.3.1/sstream ****       };
 339:/home/zkmike/.local/share/renesas/e2_studio/toolchains/gcc_arm/gcc-arm-none-eabi-6-2017-q2-update/arm-none-eabi/include/c++/6.3.1/sstream **** #endif
 340:/home/zkmike/.local/share/renesas/e2_studio/toolchains/gcc_arm/gcc-arm-none-eabi-6-2017-q2-update/arm-none-eabi/include/c++/6.3.1/sstream **** 
 341:/home/zkmike/.local/share/renesas/e2_studio/toolchains/gcc_arm/gcc-arm-none-eabi-6-2017-q2-update/arm-none-eabi/include/c++/6.3.1/sstream ****       // The move constructor initializes an __xfer_bufptrs temporary then
 342:/home/zkmike/.local/share/renesas/e2_studio/toolchains/gcc_arm/gcc-arm-none-eabi-6-2017-q2-update/arm-none-eabi/include/c++/6.3.1/sstream ****       // delegates to this constructor to performs moves during its lifetime.
 343:/home/zkmike/.local/share/renesas/e2_studio/toolchains/gcc_arm/gcc-arm-none-eabi-6-2017-q2-update/arm-none-eabi/include/c++/6.3.1/sstream ****       basic_stringbuf(basic_stringbuf&& __rhs, __xfer_bufptrs&&)
 344:/home/zkmike/.local/share/renesas/e2_studio/toolchains/gcc_arm/gcc-arm-none-eabi-6-2017-q2-update/arm-none-eabi/include/c++/6.3.1/sstream ****       : __streambuf_type(static_cast<const __streambuf_type&>(__rhs)),
 345:/home/zkmike/.local/share/renesas/e2_studio/toolchains/gcc_arm/gcc-arm-none-eabi-6-2017-q2-update/arm-none-eabi/include/c++/6.3.1/sstream ****       _M_mode(__rhs._M_mode), _M_string(std::move(__rhs._M_string))
 346:/home/zkmike/.local/share/renesas/e2_studio/toolchains/gcc_arm/gcc-arm-none-eabi-6-2017-q2-update/arm-none-eabi/include/c++/6.3.1/sstream ****       { }
 347:/home/zkmike/.local/share/renesas/e2_studio/toolchains/gcc_arm/gcc-arm-none-eabi-6-2017-q2-update/arm-none-eabi/include/c++/6.3.1/sstream **** #endif
 348:/home/zkmike/.local/share/renesas/e2_studio/toolchains/gcc_arm/gcc-arm-none-eabi-6-2017-q2-update/arm-none-eabi/include/c++/6.3.1/sstream ****     };
 349:/home/zkmike/.local/share/renesas/e2_studio/toolchains/gcc_arm/gcc-arm-none-eabi-6-2017-q2-update/arm-none-eabi/include/c++/6.3.1/sstream **** 
 350:/home/zkmike/.local/share/renesas/e2_studio/toolchains/gcc_arm/gcc-arm-none-eabi-6-2017-q2-update/arm-none-eabi/include/c++/6.3.1/sstream **** 
 351:/home/zkmike/.local/share/renesas/e2_studio/toolchains/gcc_arm/gcc-arm-none-eabi-6-2017-q2-update/arm-none-eabi/include/c++/6.3.1/sstream ****   // [27.7.2] Template class basic_istringstream
 352:/home/zkmike/.local/share/renesas/e2_studio/toolchains/gcc_arm/gcc-arm-none-eabi-6-2017-q2-update/arm-none-eabi/include/c++/6.3.1/sstream ****   /**
 353:/home/zkmike/.local/share/renesas/e2_studio/toolchains/gcc_arm/gcc-arm-none-eabi-6-2017-q2-update/arm-none-eabi/include/c++/6.3.1/sstream ****    *  @brief  Controlling input for std::string.
 354:/home/zkmike/.local/share/renesas/e2_studio/toolchains/gcc_arm/gcc-arm-none-eabi-6-2017-q2-update/arm-none-eabi/include/c++/6.3.1/sstream ****    *  @ingroup io
 355:/home/zkmike/.local/share/renesas/e2_studio/toolchains/gcc_arm/gcc-arm-none-eabi-6-2017-q2-update/arm-none-eabi/include/c++/6.3.1/sstream ****    *
 356:/home/zkmike/.local/share/renesas/e2_studio/toolchains/gcc_arm/gcc-arm-none-eabi-6-2017-q2-update/arm-none-eabi/include/c++/6.3.1/sstream ****    *  @tparam _CharT  Type of character stream.
 357:/home/zkmike/.local/share/renesas/e2_studio/toolchains/gcc_arm/gcc-arm-none-eabi-6-2017-q2-update/arm-none-eabi/include/c++/6.3.1/sstream ****    *  @tparam _Traits  Traits for character type, defaults to
 358:/home/zkmike/.local/share/renesas/e2_studio/toolchains/gcc_arm/gcc-arm-none-eabi-6-2017-q2-update/arm-none-eabi/include/c++/6.3.1/sstream ****    *                   char_traits<_CharT>.
 359:/home/zkmike/.local/share/renesas/e2_studio/toolchains/gcc_arm/gcc-arm-none-eabi-6-2017-q2-update/arm-none-eabi/include/c++/6.3.1/sstream ****    *  @tparam _Alloc  Allocator type, defaults to allocator<_CharT>.
 360:/home/zkmike/.local/share/renesas/e2_studio/toolchains/gcc_arm/gcc-arm-none-eabi-6-2017-q2-update/arm-none-eabi/include/c++/6.3.1/sstream ****    *
 361:/home/zkmike/.local/share/renesas/e2_studio/toolchains/gcc_arm/gcc-arm-none-eabi-6-2017-q2-update/arm-none-eabi/include/c++/6.3.1/sstream ****    *  This class supports reading from objects of type std::basic_string,
 362:/home/zkmike/.local/share/renesas/e2_studio/toolchains/gcc_arm/gcc-arm-none-eabi-6-2017-q2-update/arm-none-eabi/include/c++/6.3.1/sstream ****    *  using the inherited functions from std::basic_istream.  To control
 363:/home/zkmike/.local/share/renesas/e2_studio/toolchains/gcc_arm/gcc-arm-none-eabi-6-2017-q2-update/arm-none-eabi/include/c++/6.3.1/sstream ****    *  the associated sequence, an instance of std::basic_stringbuf is used,
 364:/home/zkmike/.local/share/renesas/e2_studio/toolchains/gcc_arm/gcc-arm-none-eabi-6-2017-q2-update/arm-none-eabi/include/c++/6.3.1/sstream ****    *  which this page refers to as @c sb.
 365:/home/zkmike/.local/share/renesas/e2_studio/toolchains/gcc_arm/gcc-arm-none-eabi-6-2017-q2-update/arm-none-eabi/include/c++/6.3.1/sstream ****   */
 366:/home/zkmike/.local/share/renesas/e2_studio/toolchains/gcc_arm/gcc-arm-none-eabi-6-2017-q2-update/arm-none-eabi/include/c++/6.3.1/sstream ****   template<typename _CharT, typename _Traits, typename _Alloc>
 367:/home/zkmike/.local/share/renesas/e2_studio/toolchains/gcc_arm/gcc-arm-none-eabi-6-2017-q2-update/arm-none-eabi/include/c++/6.3.1/sstream ****     class basic_istringstream : public basic_istream<_CharT, _Traits>
 368:/home/zkmike/.local/share/renesas/e2_studio/toolchains/gcc_arm/gcc-arm-none-eabi-6-2017-q2-update/arm-none-eabi/include/c++/6.3.1/sstream ****     {
 369:/home/zkmike/.local/share/renesas/e2_studio/toolchains/gcc_arm/gcc-arm-none-eabi-6-2017-q2-update/arm-none-eabi/include/c++/6.3.1/sstream ****     public:
 370:/home/zkmike/.local/share/renesas/e2_studio/toolchains/gcc_arm/gcc-arm-none-eabi-6-2017-q2-update/arm-none-eabi/include/c++/6.3.1/sstream ****       // Types:
 371:/home/zkmike/.local/share/renesas/e2_studio/toolchains/gcc_arm/gcc-arm-none-eabi-6-2017-q2-update/arm-none-eabi/include/c++/6.3.1/sstream ****       typedef _CharT 					char_type;
 372:/home/zkmike/.local/share/renesas/e2_studio/toolchains/gcc_arm/gcc-arm-none-eabi-6-2017-q2-update/arm-none-eabi/include/c++/6.3.1/sstream ****       typedef _Traits 					traits_type;
 373:/home/zkmike/.local/share/renesas/e2_studio/toolchains/gcc_arm/gcc-arm-none-eabi-6-2017-q2-update/arm-none-eabi/include/c++/6.3.1/sstream ****       // _GLIBCXX_RESOLVE_LIB_DEFECTS
 374:/home/zkmike/.local/share/renesas/e2_studio/toolchains/gcc_arm/gcc-arm-none-eabi-6-2017-q2-update/arm-none-eabi/include/c++/6.3.1/sstream ****       // 251. basic_stringbuf missing allocator_type
 375:/home/zkmike/.local/share/renesas/e2_studio/toolchains/gcc_arm/gcc-arm-none-eabi-6-2017-q2-update/arm-none-eabi/include/c++/6.3.1/sstream ****       typedef _Alloc				       	allocator_type;
 376:/home/zkmike/.local/share/renesas/e2_studio/toolchains/gcc_arm/gcc-arm-none-eabi-6-2017-q2-update/arm-none-eabi/include/c++/6.3.1/sstream ****       typedef typename traits_type::int_type 		int_type;
 377:/home/zkmike/.local/share/renesas/e2_studio/toolchains/gcc_arm/gcc-arm-none-eabi-6-2017-q2-update/arm-none-eabi/include/c++/6.3.1/sstream ****       typedef typename traits_type::pos_type 		pos_type;
 378:/home/zkmike/.local/share/renesas/e2_studio/toolchains/gcc_arm/gcc-arm-none-eabi-6-2017-q2-update/arm-none-eabi/include/c++/6.3.1/sstream ****       typedef typename traits_type::off_type 		off_type;
 379:/home/zkmike/.local/share/renesas/e2_studio/toolchains/gcc_arm/gcc-arm-none-eabi-6-2017-q2-update/arm-none-eabi/include/c++/6.3.1/sstream **** 
 380:/home/zkmike/.local/share/renesas/e2_studio/toolchains/gcc_arm/gcc-arm-none-eabi-6-2017-q2-update/arm-none-eabi/include/c++/6.3.1/sstream ****       // Non-standard types:
 381:/home/zkmike/.local/share/renesas/e2_studio/toolchains/gcc_arm/gcc-arm-none-eabi-6-2017-q2-update/arm-none-eabi/include/c++/6.3.1/sstream ****       typedef basic_string<_CharT, _Traits, _Alloc> 	__string_type;
 382:/home/zkmike/.local/share/renesas/e2_studio/toolchains/gcc_arm/gcc-arm-none-eabi-6-2017-q2-update/arm-none-eabi/include/c++/6.3.1/sstream ****       typedef basic_stringbuf<_CharT, _Traits, _Alloc> 	__stringbuf_type;
 383:/home/zkmike/.local/share/renesas/e2_studio/toolchains/gcc_arm/gcc-arm-none-eabi-6-2017-q2-update/arm-none-eabi/include/c++/6.3.1/sstream ****       typedef basic_istream<char_type, traits_type>	__istream_type;
 384:/home/zkmike/.local/share/renesas/e2_studio/toolchains/gcc_arm/gcc-arm-none-eabi-6-2017-q2-update/arm-none-eabi/include/c++/6.3.1/sstream **** 
 385:/home/zkmike/.local/share/renesas/e2_studio/toolchains/gcc_arm/gcc-arm-none-eabi-6-2017-q2-update/arm-none-eabi/include/c++/6.3.1/sstream ****     private:
 386:/home/zkmike/.local/share/renesas/e2_studio/toolchains/gcc_arm/gcc-arm-none-eabi-6-2017-q2-update/arm-none-eabi/include/c++/6.3.1/sstream ****       __stringbuf_type	_M_stringbuf;
 387:/home/zkmike/.local/share/renesas/e2_studio/toolchains/gcc_arm/gcc-arm-none-eabi-6-2017-q2-update/arm-none-eabi/include/c++/6.3.1/sstream **** 
 388:/home/zkmike/.local/share/renesas/e2_studio/toolchains/gcc_arm/gcc-arm-none-eabi-6-2017-q2-update/arm-none-eabi/include/c++/6.3.1/sstream ****     public:
 389:/home/zkmike/.local/share/renesas/e2_studio/toolchains/gcc_arm/gcc-arm-none-eabi-6-2017-q2-update/arm-none-eabi/include/c++/6.3.1/sstream ****       // Constructors:
 390:/home/zkmike/.local/share/renesas/e2_studio/toolchains/gcc_arm/gcc-arm-none-eabi-6-2017-q2-update/arm-none-eabi/include/c++/6.3.1/sstream ****       /**
 391:/home/zkmike/.local/share/renesas/e2_studio/toolchains/gcc_arm/gcc-arm-none-eabi-6-2017-q2-update/arm-none-eabi/include/c++/6.3.1/sstream ****        *  @brief  Default constructor starts with an empty string buffer.
 392:/home/zkmike/.local/share/renesas/e2_studio/toolchains/gcc_arm/gcc-arm-none-eabi-6-2017-q2-update/arm-none-eabi/include/c++/6.3.1/sstream ****        *  @param  __mode  Whether the buffer can read, or write, or both.
 393:/home/zkmike/.local/share/renesas/e2_studio/toolchains/gcc_arm/gcc-arm-none-eabi-6-2017-q2-update/arm-none-eabi/include/c++/6.3.1/sstream ****        *
 394:/home/zkmike/.local/share/renesas/e2_studio/toolchains/gcc_arm/gcc-arm-none-eabi-6-2017-q2-update/arm-none-eabi/include/c++/6.3.1/sstream ****        *  @c ios_base::in is automatically included in @a __mode.
 395:/home/zkmike/.local/share/renesas/e2_studio/toolchains/gcc_arm/gcc-arm-none-eabi-6-2017-q2-update/arm-none-eabi/include/c++/6.3.1/sstream ****        *
 396:/home/zkmike/.local/share/renesas/e2_studio/toolchains/gcc_arm/gcc-arm-none-eabi-6-2017-q2-update/arm-none-eabi/include/c++/6.3.1/sstream ****        *  Initializes @c sb using @c __mode|in, and passes @c &sb to the base
 397:/home/zkmike/.local/share/renesas/e2_studio/toolchains/gcc_arm/gcc-arm-none-eabi-6-2017-q2-update/arm-none-eabi/include/c++/6.3.1/sstream ****        *  class initializer.  Does not allocate any buffer.
 398:/home/zkmike/.local/share/renesas/e2_studio/toolchains/gcc_arm/gcc-arm-none-eabi-6-2017-q2-update/arm-none-eabi/include/c++/6.3.1/sstream ****        *
 399:/home/zkmike/.local/share/renesas/e2_studio/toolchains/gcc_arm/gcc-arm-none-eabi-6-2017-q2-update/arm-none-eabi/include/c++/6.3.1/sstream ****        *  That's a lie.  We initialize the base class with NULL, because the
 400:/home/zkmike/.local/share/renesas/e2_studio/toolchains/gcc_arm/gcc-arm-none-eabi-6-2017-q2-update/arm-none-eabi/include/c++/6.3.1/sstream ****        *  string class does its own memory management.
 401:/home/zkmike/.local/share/renesas/e2_studio/toolchains/gcc_arm/gcc-arm-none-eabi-6-2017-q2-update/arm-none-eabi/include/c++/6.3.1/sstream ****       */
 402:/home/zkmike/.local/share/renesas/e2_studio/toolchains/gcc_arm/gcc-arm-none-eabi-6-2017-q2-update/arm-none-eabi/include/c++/6.3.1/sstream ****       explicit
 403:/home/zkmike/.local/share/renesas/e2_studio/toolchains/gcc_arm/gcc-arm-none-eabi-6-2017-q2-update/arm-none-eabi/include/c++/6.3.1/sstream ****       basic_istringstream(ios_base::openmode __mode = ios_base::in)
 404:/home/zkmike/.local/share/renesas/e2_studio/toolchains/gcc_arm/gcc-arm-none-eabi-6-2017-q2-update/arm-none-eabi/include/c++/6.3.1/sstream ****       : __istream_type(), _M_stringbuf(__mode | ios_base::in)
 405:/home/zkmike/.local/share/renesas/e2_studio/toolchains/gcc_arm/gcc-arm-none-eabi-6-2017-q2-update/arm-none-eabi/include/c++/6.3.1/sstream ****       { this->init(&_M_stringbuf); }
 406:/home/zkmike/.local/share/renesas/e2_studio/toolchains/gcc_arm/gcc-arm-none-eabi-6-2017-q2-update/arm-none-eabi/include/c++/6.3.1/sstream **** 
 407:/home/zkmike/.local/share/renesas/e2_studio/toolchains/gcc_arm/gcc-arm-none-eabi-6-2017-q2-update/arm-none-eabi/include/c++/6.3.1/sstream ****       /**
 408:/home/zkmike/.local/share/renesas/e2_studio/toolchains/gcc_arm/gcc-arm-none-eabi-6-2017-q2-update/arm-none-eabi/include/c++/6.3.1/sstream ****        *  @brief  Starts with an existing string buffer.
 409:/home/zkmike/.local/share/renesas/e2_studio/toolchains/gcc_arm/gcc-arm-none-eabi-6-2017-q2-update/arm-none-eabi/include/c++/6.3.1/sstream ****        *  @param  __str  A string to copy as a starting buffer.
 410:/home/zkmike/.local/share/renesas/e2_studio/toolchains/gcc_arm/gcc-arm-none-eabi-6-2017-q2-update/arm-none-eabi/include/c++/6.3.1/sstream ****        *  @param  __mode  Whether the buffer can read, or write, or both.
 411:/home/zkmike/.local/share/renesas/e2_studio/toolchains/gcc_arm/gcc-arm-none-eabi-6-2017-q2-update/arm-none-eabi/include/c++/6.3.1/sstream ****        *
 412:/home/zkmike/.local/share/renesas/e2_studio/toolchains/gcc_arm/gcc-arm-none-eabi-6-2017-q2-update/arm-none-eabi/include/c++/6.3.1/sstream ****        *  @c ios_base::in is automatically included in @a mode.
 413:/home/zkmike/.local/share/renesas/e2_studio/toolchains/gcc_arm/gcc-arm-none-eabi-6-2017-q2-update/arm-none-eabi/include/c++/6.3.1/sstream ****        *
 414:/home/zkmike/.local/share/renesas/e2_studio/toolchains/gcc_arm/gcc-arm-none-eabi-6-2017-q2-update/arm-none-eabi/include/c++/6.3.1/sstream ****        *  Initializes @c sb using @a str and @c mode|in, and passes @c &sb
 415:/home/zkmike/.local/share/renesas/e2_studio/toolchains/gcc_arm/gcc-arm-none-eabi-6-2017-q2-update/arm-none-eabi/include/c++/6.3.1/sstream ****        *  to the base class initializer.
 416:/home/zkmike/.local/share/renesas/e2_studio/toolchains/gcc_arm/gcc-arm-none-eabi-6-2017-q2-update/arm-none-eabi/include/c++/6.3.1/sstream ****        *
 417:/home/zkmike/.local/share/renesas/e2_studio/toolchains/gcc_arm/gcc-arm-none-eabi-6-2017-q2-update/arm-none-eabi/include/c++/6.3.1/sstream ****        *  That's a lie.  We initialize the base class with NULL, because the
 418:/home/zkmike/.local/share/renesas/e2_studio/toolchains/gcc_arm/gcc-arm-none-eabi-6-2017-q2-update/arm-none-eabi/include/c++/6.3.1/sstream ****        *  string class does its own memory management.
 419:/home/zkmike/.local/share/renesas/e2_studio/toolchains/gcc_arm/gcc-arm-none-eabi-6-2017-q2-update/arm-none-eabi/include/c++/6.3.1/sstream ****       */
 420:/home/zkmike/.local/share/renesas/e2_studio/toolchains/gcc_arm/gcc-arm-none-eabi-6-2017-q2-update/arm-none-eabi/include/c++/6.3.1/sstream ****       explicit
 421:/home/zkmike/.local/share/renesas/e2_studio/toolchains/gcc_arm/gcc-arm-none-eabi-6-2017-q2-update/arm-none-eabi/include/c++/6.3.1/sstream ****       basic_istringstream(const __string_type& __str,
 422:/home/zkmike/.local/share/renesas/e2_studio/toolchains/gcc_arm/gcc-arm-none-eabi-6-2017-q2-update/arm-none-eabi/include/c++/6.3.1/sstream **** 			  ios_base::openmode __mode = ios_base::in)
 423:/home/zkmike/.local/share/renesas/e2_studio/toolchains/gcc_arm/gcc-arm-none-eabi-6-2017-q2-update/arm-none-eabi/include/c++/6.3.1/sstream ****       : __istream_type(), _M_stringbuf(__str, __mode | ios_base::in)
 424:/home/zkmike/.local/share/renesas/e2_studio/toolchains/gcc_arm/gcc-arm-none-eabi-6-2017-q2-update/arm-none-eabi/include/c++/6.3.1/sstream ****       { this->init(&_M_stringbuf); }
 425:/home/zkmike/.local/share/renesas/e2_studio/toolchains/gcc_arm/gcc-arm-none-eabi-6-2017-q2-update/arm-none-eabi/include/c++/6.3.1/sstream **** 
 426:/home/zkmike/.local/share/renesas/e2_studio/toolchains/gcc_arm/gcc-arm-none-eabi-6-2017-q2-update/arm-none-eabi/include/c++/6.3.1/sstream ****       /**
 427:/home/zkmike/.local/share/renesas/e2_studio/toolchains/gcc_arm/gcc-arm-none-eabi-6-2017-q2-update/arm-none-eabi/include/c++/6.3.1/sstream ****        *  @brief  The destructor does nothing.
 428:/home/zkmike/.local/share/renesas/e2_studio/toolchains/gcc_arm/gcc-arm-none-eabi-6-2017-q2-update/arm-none-eabi/include/c++/6.3.1/sstream ****        *
 429:/home/zkmike/.local/share/renesas/e2_studio/toolchains/gcc_arm/gcc-arm-none-eabi-6-2017-q2-update/arm-none-eabi/include/c++/6.3.1/sstream ****        *  The buffer is deallocated by the stringbuf object, not the
 430:/home/zkmike/.local/share/renesas/e2_studio/toolchains/gcc_arm/gcc-arm-none-eabi-6-2017-q2-update/arm-none-eabi/include/c++/6.3.1/sstream ****        *  formatting stream.
 431:/home/zkmike/.local/share/renesas/e2_studio/toolchains/gcc_arm/gcc-arm-none-eabi-6-2017-q2-update/arm-none-eabi/include/c++/6.3.1/sstream ****       */
 432:/home/zkmike/.local/share/renesas/e2_studio/toolchains/gcc_arm/gcc-arm-none-eabi-6-2017-q2-update/arm-none-eabi/include/c++/6.3.1/sstream ****       ~basic_istringstream()
 433:/home/zkmike/.local/share/renesas/e2_studio/toolchains/gcc_arm/gcc-arm-none-eabi-6-2017-q2-update/arm-none-eabi/include/c++/6.3.1/sstream ****       { }
 434:/home/zkmike/.local/share/renesas/e2_studio/toolchains/gcc_arm/gcc-arm-none-eabi-6-2017-q2-update/arm-none-eabi/include/c++/6.3.1/sstream **** 
 435:/home/zkmike/.local/share/renesas/e2_studio/toolchains/gcc_arm/gcc-arm-none-eabi-6-2017-q2-update/arm-none-eabi/include/c++/6.3.1/sstream **** #if __cplusplus >= 201103L
 436:/home/zkmike/.local/share/renesas/e2_studio/toolchains/gcc_arm/gcc-arm-none-eabi-6-2017-q2-update/arm-none-eabi/include/c++/6.3.1/sstream ****       basic_istringstream(const basic_istringstream&) = delete;
 437:/home/zkmike/.local/share/renesas/e2_studio/toolchains/gcc_arm/gcc-arm-none-eabi-6-2017-q2-update/arm-none-eabi/include/c++/6.3.1/sstream **** 
 438:/home/zkmike/.local/share/renesas/e2_studio/toolchains/gcc_arm/gcc-arm-none-eabi-6-2017-q2-update/arm-none-eabi/include/c++/6.3.1/sstream ****       basic_istringstream(basic_istringstream&& __rhs)
 439:/home/zkmike/.local/share/renesas/e2_studio/toolchains/gcc_arm/gcc-arm-none-eabi-6-2017-q2-update/arm-none-eabi/include/c++/6.3.1/sstream ****       : __istream_type(std::move(__rhs)),
 440:/home/zkmike/.local/share/renesas/e2_studio/toolchains/gcc_arm/gcc-arm-none-eabi-6-2017-q2-update/arm-none-eabi/include/c++/6.3.1/sstream ****       _M_stringbuf(std::move(__rhs._M_stringbuf))
 441:/home/zkmike/.local/share/renesas/e2_studio/toolchains/gcc_arm/gcc-arm-none-eabi-6-2017-q2-update/arm-none-eabi/include/c++/6.3.1/sstream ****       { __istream_type::set_rdbuf(&_M_stringbuf); }
 442:/home/zkmike/.local/share/renesas/e2_studio/toolchains/gcc_arm/gcc-arm-none-eabi-6-2017-q2-update/arm-none-eabi/include/c++/6.3.1/sstream **** 
 443:/home/zkmike/.local/share/renesas/e2_studio/toolchains/gcc_arm/gcc-arm-none-eabi-6-2017-q2-update/arm-none-eabi/include/c++/6.3.1/sstream ****       // 27.8.3.2 Assign and swap:
 444:/home/zkmike/.local/share/renesas/e2_studio/toolchains/gcc_arm/gcc-arm-none-eabi-6-2017-q2-update/arm-none-eabi/include/c++/6.3.1/sstream **** 
 445:/home/zkmike/.local/share/renesas/e2_studio/toolchains/gcc_arm/gcc-arm-none-eabi-6-2017-q2-update/arm-none-eabi/include/c++/6.3.1/sstream ****       basic_istringstream&
 446:/home/zkmike/.local/share/renesas/e2_studio/toolchains/gcc_arm/gcc-arm-none-eabi-6-2017-q2-update/arm-none-eabi/include/c++/6.3.1/sstream ****       operator=(const basic_istringstream&) = delete;
 447:/home/zkmike/.local/share/renesas/e2_studio/toolchains/gcc_arm/gcc-arm-none-eabi-6-2017-q2-update/arm-none-eabi/include/c++/6.3.1/sstream **** 
 448:/home/zkmike/.local/share/renesas/e2_studio/toolchains/gcc_arm/gcc-arm-none-eabi-6-2017-q2-update/arm-none-eabi/include/c++/6.3.1/sstream ****       basic_istringstream&
 449:/home/zkmike/.local/share/renesas/e2_studio/toolchains/gcc_arm/gcc-arm-none-eabi-6-2017-q2-update/arm-none-eabi/include/c++/6.3.1/sstream ****       operator=(basic_istringstream&& __rhs)
 450:/home/zkmike/.local/share/renesas/e2_studio/toolchains/gcc_arm/gcc-arm-none-eabi-6-2017-q2-update/arm-none-eabi/include/c++/6.3.1/sstream ****       {
 451:/home/zkmike/.local/share/renesas/e2_studio/toolchains/gcc_arm/gcc-arm-none-eabi-6-2017-q2-update/arm-none-eabi/include/c++/6.3.1/sstream **** 	__istream_type::operator=(std::move(__rhs));
 452:/home/zkmike/.local/share/renesas/e2_studio/toolchains/gcc_arm/gcc-arm-none-eabi-6-2017-q2-update/arm-none-eabi/include/c++/6.3.1/sstream **** 	_M_stringbuf = std::move(__rhs._M_stringbuf);
 453:/home/zkmike/.local/share/renesas/e2_studio/toolchains/gcc_arm/gcc-arm-none-eabi-6-2017-q2-update/arm-none-eabi/include/c++/6.3.1/sstream **** 	return *this;
 454:/home/zkmike/.local/share/renesas/e2_studio/toolchains/gcc_arm/gcc-arm-none-eabi-6-2017-q2-update/arm-none-eabi/include/c++/6.3.1/sstream ****       }
 455:/home/zkmike/.local/share/renesas/e2_studio/toolchains/gcc_arm/gcc-arm-none-eabi-6-2017-q2-update/arm-none-eabi/include/c++/6.3.1/sstream **** 
 456:/home/zkmike/.local/share/renesas/e2_studio/toolchains/gcc_arm/gcc-arm-none-eabi-6-2017-q2-update/arm-none-eabi/include/c++/6.3.1/sstream ****       void
 457:/home/zkmike/.local/share/renesas/e2_studio/toolchains/gcc_arm/gcc-arm-none-eabi-6-2017-q2-update/arm-none-eabi/include/c++/6.3.1/sstream ****       swap(basic_istringstream& __rhs)
 458:/home/zkmike/.local/share/renesas/e2_studio/toolchains/gcc_arm/gcc-arm-none-eabi-6-2017-q2-update/arm-none-eabi/include/c++/6.3.1/sstream ****       {
 459:/home/zkmike/.local/share/renesas/e2_studio/toolchains/gcc_arm/gcc-arm-none-eabi-6-2017-q2-update/arm-none-eabi/include/c++/6.3.1/sstream **** 	__istream_type::swap(__rhs);
 460:/home/zkmike/.local/share/renesas/e2_studio/toolchains/gcc_arm/gcc-arm-none-eabi-6-2017-q2-update/arm-none-eabi/include/c++/6.3.1/sstream **** 	_M_stringbuf.swap(__rhs._M_stringbuf);
 461:/home/zkmike/.local/share/renesas/e2_studio/toolchains/gcc_arm/gcc-arm-none-eabi-6-2017-q2-update/arm-none-eabi/include/c++/6.3.1/sstream ****       }
 462:/home/zkmike/.local/share/renesas/e2_studio/toolchains/gcc_arm/gcc-arm-none-eabi-6-2017-q2-update/arm-none-eabi/include/c++/6.3.1/sstream **** #endif
 463:/home/zkmike/.local/share/renesas/e2_studio/toolchains/gcc_arm/gcc-arm-none-eabi-6-2017-q2-update/arm-none-eabi/include/c++/6.3.1/sstream **** 
 464:/home/zkmike/.local/share/renesas/e2_studio/toolchains/gcc_arm/gcc-arm-none-eabi-6-2017-q2-update/arm-none-eabi/include/c++/6.3.1/sstream ****       // Members:
 465:/home/zkmike/.local/share/renesas/e2_studio/toolchains/gcc_arm/gcc-arm-none-eabi-6-2017-q2-update/arm-none-eabi/include/c++/6.3.1/sstream ****       /**
 466:/home/zkmike/.local/share/renesas/e2_studio/toolchains/gcc_arm/gcc-arm-none-eabi-6-2017-q2-update/arm-none-eabi/include/c++/6.3.1/sstream ****        *  @brief  Accessing the underlying buffer.
 467:/home/zkmike/.local/share/renesas/e2_studio/toolchains/gcc_arm/gcc-arm-none-eabi-6-2017-q2-update/arm-none-eabi/include/c++/6.3.1/sstream ****        *  @return  The current basic_stringbuf buffer.
 468:/home/zkmike/.local/share/renesas/e2_studio/toolchains/gcc_arm/gcc-arm-none-eabi-6-2017-q2-update/arm-none-eabi/include/c++/6.3.1/sstream ****        *
 469:/home/zkmike/.local/share/renesas/e2_studio/toolchains/gcc_arm/gcc-arm-none-eabi-6-2017-q2-update/arm-none-eabi/include/c++/6.3.1/sstream ****        *  This hides both signatures of std::basic_ios::rdbuf().
 470:/home/zkmike/.local/share/renesas/e2_studio/toolchains/gcc_arm/gcc-arm-none-eabi-6-2017-q2-update/arm-none-eabi/include/c++/6.3.1/sstream ****       */
 471:/home/zkmike/.local/share/renesas/e2_studio/toolchains/gcc_arm/gcc-arm-none-eabi-6-2017-q2-update/arm-none-eabi/include/c++/6.3.1/sstream ****       __stringbuf_type*
 472:/home/zkmike/.local/share/renesas/e2_studio/toolchains/gcc_arm/gcc-arm-none-eabi-6-2017-q2-update/arm-none-eabi/include/c++/6.3.1/sstream ****       rdbuf() const
 473:/home/zkmike/.local/share/renesas/e2_studio/toolchains/gcc_arm/gcc-arm-none-eabi-6-2017-q2-update/arm-none-eabi/include/c++/6.3.1/sstream ****       { return const_cast<__stringbuf_type*>(&_M_stringbuf); }
 474:/home/zkmike/.local/share/renesas/e2_studio/toolchains/gcc_arm/gcc-arm-none-eabi-6-2017-q2-update/arm-none-eabi/include/c++/6.3.1/sstream **** 
 475:/home/zkmike/.local/share/renesas/e2_studio/toolchains/gcc_arm/gcc-arm-none-eabi-6-2017-q2-update/arm-none-eabi/include/c++/6.3.1/sstream ****       /**
 476:/home/zkmike/.local/share/renesas/e2_studio/toolchains/gcc_arm/gcc-arm-none-eabi-6-2017-q2-update/arm-none-eabi/include/c++/6.3.1/sstream ****        *  @brief  Copying out the string buffer.
 477:/home/zkmike/.local/share/renesas/e2_studio/toolchains/gcc_arm/gcc-arm-none-eabi-6-2017-q2-update/arm-none-eabi/include/c++/6.3.1/sstream ****        *  @return  @c rdbuf()->str()
 478:/home/zkmike/.local/share/renesas/e2_studio/toolchains/gcc_arm/gcc-arm-none-eabi-6-2017-q2-update/arm-none-eabi/include/c++/6.3.1/sstream ****       */
 479:/home/zkmike/.local/share/renesas/e2_studio/toolchains/gcc_arm/gcc-arm-none-eabi-6-2017-q2-update/arm-none-eabi/include/c++/6.3.1/sstream ****       __string_type
 480:/home/zkmike/.local/share/renesas/e2_studio/toolchains/gcc_arm/gcc-arm-none-eabi-6-2017-q2-update/arm-none-eabi/include/c++/6.3.1/sstream ****       str() const
 481:/home/zkmike/.local/share/renesas/e2_studio/toolchains/gcc_arm/gcc-arm-none-eabi-6-2017-q2-update/arm-none-eabi/include/c++/6.3.1/sstream ****       { return _M_stringbuf.str(); }
 482:/home/zkmike/.local/share/renesas/e2_studio/toolchains/gcc_arm/gcc-arm-none-eabi-6-2017-q2-update/arm-none-eabi/include/c++/6.3.1/sstream **** 
 483:/home/zkmike/.local/share/renesas/e2_studio/toolchains/gcc_arm/gcc-arm-none-eabi-6-2017-q2-update/arm-none-eabi/include/c++/6.3.1/sstream ****       /**
 484:/home/zkmike/.local/share/renesas/e2_studio/toolchains/gcc_arm/gcc-arm-none-eabi-6-2017-q2-update/arm-none-eabi/include/c++/6.3.1/sstream ****        *  @brief  Setting a new buffer.
 485:/home/zkmike/.local/share/renesas/e2_studio/toolchains/gcc_arm/gcc-arm-none-eabi-6-2017-q2-update/arm-none-eabi/include/c++/6.3.1/sstream ****        *  @param  __s  The string to use as a new sequence.
 486:/home/zkmike/.local/share/renesas/e2_studio/toolchains/gcc_arm/gcc-arm-none-eabi-6-2017-q2-update/arm-none-eabi/include/c++/6.3.1/sstream ****        *
 487:/home/zkmike/.local/share/renesas/e2_studio/toolchains/gcc_arm/gcc-arm-none-eabi-6-2017-q2-update/arm-none-eabi/include/c++/6.3.1/sstream ****        *  Calls @c rdbuf()->str(s).
 488:/home/zkmike/.local/share/renesas/e2_studio/toolchains/gcc_arm/gcc-arm-none-eabi-6-2017-q2-update/arm-none-eabi/include/c++/6.3.1/sstream ****       */
 489:/home/zkmike/.local/share/renesas/e2_studio/toolchains/gcc_arm/gcc-arm-none-eabi-6-2017-q2-update/arm-none-eabi/include/c++/6.3.1/sstream ****       void
 490:/home/zkmike/.local/share/renesas/e2_studio/toolchains/gcc_arm/gcc-arm-none-eabi-6-2017-q2-update/arm-none-eabi/include/c++/6.3.1/sstream ****       str(const __string_type& __s)
 491:/home/zkmike/.local/share/renesas/e2_studio/toolchains/gcc_arm/gcc-arm-none-eabi-6-2017-q2-update/arm-none-eabi/include/c++/6.3.1/sstream ****       { _M_stringbuf.str(__s); }
 492:/home/zkmike/.local/share/renesas/e2_studio/toolchains/gcc_arm/gcc-arm-none-eabi-6-2017-q2-update/arm-none-eabi/include/c++/6.3.1/sstream ****     };
 493:/home/zkmike/.local/share/renesas/e2_studio/toolchains/gcc_arm/gcc-arm-none-eabi-6-2017-q2-update/arm-none-eabi/include/c++/6.3.1/sstream **** 
 494:/home/zkmike/.local/share/renesas/e2_studio/toolchains/gcc_arm/gcc-arm-none-eabi-6-2017-q2-update/arm-none-eabi/include/c++/6.3.1/sstream **** 
 495:/home/zkmike/.local/share/renesas/e2_studio/toolchains/gcc_arm/gcc-arm-none-eabi-6-2017-q2-update/arm-none-eabi/include/c++/6.3.1/sstream ****   // [27.7.3] Template class basic_ostringstream
 496:/home/zkmike/.local/share/renesas/e2_studio/toolchains/gcc_arm/gcc-arm-none-eabi-6-2017-q2-update/arm-none-eabi/include/c++/6.3.1/sstream ****   /**
 497:/home/zkmike/.local/share/renesas/e2_studio/toolchains/gcc_arm/gcc-arm-none-eabi-6-2017-q2-update/arm-none-eabi/include/c++/6.3.1/sstream ****    *  @brief  Controlling output for std::string.
 498:/home/zkmike/.local/share/renesas/e2_studio/toolchains/gcc_arm/gcc-arm-none-eabi-6-2017-q2-update/arm-none-eabi/include/c++/6.3.1/sstream ****    *  @ingroup io
 499:/home/zkmike/.local/share/renesas/e2_studio/toolchains/gcc_arm/gcc-arm-none-eabi-6-2017-q2-update/arm-none-eabi/include/c++/6.3.1/sstream ****    *
 500:/home/zkmike/.local/share/renesas/e2_studio/toolchains/gcc_arm/gcc-arm-none-eabi-6-2017-q2-update/arm-none-eabi/include/c++/6.3.1/sstream ****    *  @tparam _CharT  Type of character stream.
 501:/home/zkmike/.local/share/renesas/e2_studio/toolchains/gcc_arm/gcc-arm-none-eabi-6-2017-q2-update/arm-none-eabi/include/c++/6.3.1/sstream ****    *  @tparam _Traits  Traits for character type, defaults to
 502:/home/zkmike/.local/share/renesas/e2_studio/toolchains/gcc_arm/gcc-arm-none-eabi-6-2017-q2-update/arm-none-eabi/include/c++/6.3.1/sstream ****    *                   char_traits<_CharT>.
 503:/home/zkmike/.local/share/renesas/e2_studio/toolchains/gcc_arm/gcc-arm-none-eabi-6-2017-q2-update/arm-none-eabi/include/c++/6.3.1/sstream ****    *  @tparam _Alloc  Allocator type, defaults to allocator<_CharT>.
 504:/home/zkmike/.local/share/renesas/e2_studio/toolchains/gcc_arm/gcc-arm-none-eabi-6-2017-q2-update/arm-none-eabi/include/c++/6.3.1/sstream ****    *
 505:/home/zkmike/.local/share/renesas/e2_studio/toolchains/gcc_arm/gcc-arm-none-eabi-6-2017-q2-update/arm-none-eabi/include/c++/6.3.1/sstream ****    *  This class supports writing to objects of type std::basic_string,
 506:/home/zkmike/.local/share/renesas/e2_studio/toolchains/gcc_arm/gcc-arm-none-eabi-6-2017-q2-update/arm-none-eabi/include/c++/6.3.1/sstream ****    *  using the inherited functions from std::basic_ostream.  To control
 507:/home/zkmike/.local/share/renesas/e2_studio/toolchains/gcc_arm/gcc-arm-none-eabi-6-2017-q2-update/arm-none-eabi/include/c++/6.3.1/sstream ****    *  the associated sequence, an instance of std::basic_stringbuf is used,
 508:/home/zkmike/.local/share/renesas/e2_studio/toolchains/gcc_arm/gcc-arm-none-eabi-6-2017-q2-update/arm-none-eabi/include/c++/6.3.1/sstream ****    *  which this page refers to as @c sb.
 509:/home/zkmike/.local/share/renesas/e2_studio/toolchains/gcc_arm/gcc-arm-none-eabi-6-2017-q2-update/arm-none-eabi/include/c++/6.3.1/sstream ****   */
 510:/home/zkmike/.local/share/renesas/e2_studio/toolchains/gcc_arm/gcc-arm-none-eabi-6-2017-q2-update/arm-none-eabi/include/c++/6.3.1/sstream ****   template <typename _CharT, typename _Traits, typename _Alloc>
 511:/home/zkmike/.local/share/renesas/e2_studio/toolchains/gcc_arm/gcc-arm-none-eabi-6-2017-q2-update/arm-none-eabi/include/c++/6.3.1/sstream ****     class basic_ostringstream : public basic_ostream<_CharT, _Traits>
 512:/home/zkmike/.local/share/renesas/e2_studio/toolchains/gcc_arm/gcc-arm-none-eabi-6-2017-q2-update/arm-none-eabi/include/c++/6.3.1/sstream ****     {
 513:/home/zkmike/.local/share/renesas/e2_studio/toolchains/gcc_arm/gcc-arm-none-eabi-6-2017-q2-update/arm-none-eabi/include/c++/6.3.1/sstream ****     public:
 514:/home/zkmike/.local/share/renesas/e2_studio/toolchains/gcc_arm/gcc-arm-none-eabi-6-2017-q2-update/arm-none-eabi/include/c++/6.3.1/sstream ****       // Types:
 515:/home/zkmike/.local/share/renesas/e2_studio/toolchains/gcc_arm/gcc-arm-none-eabi-6-2017-q2-update/arm-none-eabi/include/c++/6.3.1/sstream ****       typedef _CharT 					char_type;
 516:/home/zkmike/.local/share/renesas/e2_studio/toolchains/gcc_arm/gcc-arm-none-eabi-6-2017-q2-update/arm-none-eabi/include/c++/6.3.1/sstream ****       typedef _Traits 					traits_type;
 517:/home/zkmike/.local/share/renesas/e2_studio/toolchains/gcc_arm/gcc-arm-none-eabi-6-2017-q2-update/arm-none-eabi/include/c++/6.3.1/sstream ****       // _GLIBCXX_RESOLVE_LIB_DEFECTS
 518:/home/zkmike/.local/share/renesas/e2_studio/toolchains/gcc_arm/gcc-arm-none-eabi-6-2017-q2-update/arm-none-eabi/include/c++/6.3.1/sstream ****       // 251. basic_stringbuf missing allocator_type
 519:/home/zkmike/.local/share/renesas/e2_studio/toolchains/gcc_arm/gcc-arm-none-eabi-6-2017-q2-update/arm-none-eabi/include/c++/6.3.1/sstream ****       typedef _Alloc				       	allocator_type;
 520:/home/zkmike/.local/share/renesas/e2_studio/toolchains/gcc_arm/gcc-arm-none-eabi-6-2017-q2-update/arm-none-eabi/include/c++/6.3.1/sstream ****       typedef typename traits_type::int_type 		int_type;
 521:/home/zkmike/.local/share/renesas/e2_studio/toolchains/gcc_arm/gcc-arm-none-eabi-6-2017-q2-update/arm-none-eabi/include/c++/6.3.1/sstream ****       typedef typename traits_type::pos_type 		pos_type;
 522:/home/zkmike/.local/share/renesas/e2_studio/toolchains/gcc_arm/gcc-arm-none-eabi-6-2017-q2-update/arm-none-eabi/include/c++/6.3.1/sstream ****       typedef typename traits_type::off_type 		off_type;
 523:/home/zkmike/.local/share/renesas/e2_studio/toolchains/gcc_arm/gcc-arm-none-eabi-6-2017-q2-update/arm-none-eabi/include/c++/6.3.1/sstream **** 
 524:/home/zkmike/.local/share/renesas/e2_studio/toolchains/gcc_arm/gcc-arm-none-eabi-6-2017-q2-update/arm-none-eabi/include/c++/6.3.1/sstream ****       // Non-standard types:
 525:/home/zkmike/.local/share/renesas/e2_studio/toolchains/gcc_arm/gcc-arm-none-eabi-6-2017-q2-update/arm-none-eabi/include/c++/6.3.1/sstream ****       typedef basic_string<_CharT, _Traits, _Alloc> 	__string_type;
 526:/home/zkmike/.local/share/renesas/e2_studio/toolchains/gcc_arm/gcc-arm-none-eabi-6-2017-q2-update/arm-none-eabi/include/c++/6.3.1/sstream ****       typedef basic_stringbuf<_CharT, _Traits, _Alloc> 	__stringbuf_type;
 527:/home/zkmike/.local/share/renesas/e2_studio/toolchains/gcc_arm/gcc-arm-none-eabi-6-2017-q2-update/arm-none-eabi/include/c++/6.3.1/sstream ****       typedef basic_ostream<char_type, traits_type>	__ostream_type;
 528:/home/zkmike/.local/share/renesas/e2_studio/toolchains/gcc_arm/gcc-arm-none-eabi-6-2017-q2-update/arm-none-eabi/include/c++/6.3.1/sstream **** 
 529:/home/zkmike/.local/share/renesas/e2_studio/toolchains/gcc_arm/gcc-arm-none-eabi-6-2017-q2-update/arm-none-eabi/include/c++/6.3.1/sstream ****     private:
 530:/home/zkmike/.local/share/renesas/e2_studio/toolchains/gcc_arm/gcc-arm-none-eabi-6-2017-q2-update/arm-none-eabi/include/c++/6.3.1/sstream ****       __stringbuf_type	_M_stringbuf;
 531:/home/zkmike/.local/share/renesas/e2_studio/toolchains/gcc_arm/gcc-arm-none-eabi-6-2017-q2-update/arm-none-eabi/include/c++/6.3.1/sstream **** 
 532:/home/zkmike/.local/share/renesas/e2_studio/toolchains/gcc_arm/gcc-arm-none-eabi-6-2017-q2-update/arm-none-eabi/include/c++/6.3.1/sstream ****     public:
 533:/home/zkmike/.local/share/renesas/e2_studio/toolchains/gcc_arm/gcc-arm-none-eabi-6-2017-q2-update/arm-none-eabi/include/c++/6.3.1/sstream ****       // Constructors/destructor:
 534:/home/zkmike/.local/share/renesas/e2_studio/toolchains/gcc_arm/gcc-arm-none-eabi-6-2017-q2-update/arm-none-eabi/include/c++/6.3.1/sstream ****       /**
 535:/home/zkmike/.local/share/renesas/e2_studio/toolchains/gcc_arm/gcc-arm-none-eabi-6-2017-q2-update/arm-none-eabi/include/c++/6.3.1/sstream ****        *  @brief  Default constructor starts with an empty string buffer.
 536:/home/zkmike/.local/share/renesas/e2_studio/toolchains/gcc_arm/gcc-arm-none-eabi-6-2017-q2-update/arm-none-eabi/include/c++/6.3.1/sstream ****        *  @param  __mode  Whether the buffer can read, or write, or both.
 537:/home/zkmike/.local/share/renesas/e2_studio/toolchains/gcc_arm/gcc-arm-none-eabi-6-2017-q2-update/arm-none-eabi/include/c++/6.3.1/sstream ****        *
 538:/home/zkmike/.local/share/renesas/e2_studio/toolchains/gcc_arm/gcc-arm-none-eabi-6-2017-q2-update/arm-none-eabi/include/c++/6.3.1/sstream ****        *  @c ios_base::out is automatically included in @a mode.
 539:/home/zkmike/.local/share/renesas/e2_studio/toolchains/gcc_arm/gcc-arm-none-eabi-6-2017-q2-update/arm-none-eabi/include/c++/6.3.1/sstream ****        *
 540:/home/zkmike/.local/share/renesas/e2_studio/toolchains/gcc_arm/gcc-arm-none-eabi-6-2017-q2-update/arm-none-eabi/include/c++/6.3.1/sstream ****        *  Initializes @c sb using @c mode|out, and passes @c &sb to the base
 541:/home/zkmike/.local/share/renesas/e2_studio/toolchains/gcc_arm/gcc-arm-none-eabi-6-2017-q2-update/arm-none-eabi/include/c++/6.3.1/sstream ****        *  class initializer.  Does not allocate any buffer.
 542:/home/zkmike/.local/share/renesas/e2_studio/toolchains/gcc_arm/gcc-arm-none-eabi-6-2017-q2-update/arm-none-eabi/include/c++/6.3.1/sstream ****        *
 543:/home/zkmike/.local/share/renesas/e2_studio/toolchains/gcc_arm/gcc-arm-none-eabi-6-2017-q2-update/arm-none-eabi/include/c++/6.3.1/sstream ****        *  That's a lie.  We initialize the base class with NULL, because the
 544:/home/zkmike/.local/share/renesas/e2_studio/toolchains/gcc_arm/gcc-arm-none-eabi-6-2017-q2-update/arm-none-eabi/include/c++/6.3.1/sstream ****        *  string class does its own memory management.
 545:/home/zkmike/.local/share/renesas/e2_studio/toolchains/gcc_arm/gcc-arm-none-eabi-6-2017-q2-update/arm-none-eabi/include/c++/6.3.1/sstream ****       */
 546:/home/zkmike/.local/share/renesas/e2_studio/toolchains/gcc_arm/gcc-arm-none-eabi-6-2017-q2-update/arm-none-eabi/include/c++/6.3.1/sstream ****       explicit
 547:/home/zkmike/.local/share/renesas/e2_studio/toolchains/gcc_arm/gcc-arm-none-eabi-6-2017-q2-update/arm-none-eabi/include/c++/6.3.1/sstream ****       basic_ostringstream(ios_base::openmode __mode = ios_base::out)
 548:/home/zkmike/.local/share/renesas/e2_studio/toolchains/gcc_arm/gcc-arm-none-eabi-6-2017-q2-update/arm-none-eabi/include/c++/6.3.1/sstream ****       : __ostream_type(), _M_stringbuf(__mode | ios_base::out)
 1696              		.loc 7 548 0
 1697 0114 10339FE5 		ldr	r3, .L148+4
 1698 0118 00308DE5 		str	r3, [sp]
 1699 011c 143083E2 		add	r3, r3, #20
 1700 0120 40308DE5 		str	r3, [sp, #64]
 1701              	.LVL164:
 1702              	.LBB1208:
 1703              	.LBB1209:
 1704              	.LBB1210:
 1705              	.LBB1211:
 1706              	.LBB1212:
 1707              	.LBB1213:
 199:/home/zkmike/.local/share/renesas/e2_studio/toolchains/gcc_arm/gcc-arm-none-eabi-6-2017-q2-update/arm-none-eabi/include/c++/6.3.1/streambuf **** 
 200:/home/zkmike/.local/share/renesas/e2_studio/toolchains/gcc_arm/gcc-arm-none-eabi-6-2017-q2-update/arm-none-eabi/include/c++/6.3.1/streambuf ****       // [27.5.2.2.1] locales
 201:/home/zkmike/.local/share/renesas/e2_studio/toolchains/gcc_arm/gcc-arm-none-eabi-6-2017-q2-update/arm-none-eabi/include/c++/6.3.1/streambuf ****       /**
 202:/home/zkmike/.local/share/renesas/e2_studio/toolchains/gcc_arm/gcc-arm-none-eabi-6-2017-q2-update/arm-none-eabi/include/c++/6.3.1/streambuf ****        *  @brief  Entry point for imbue().
 203:/home/zkmike/.local/share/renesas/e2_studio/toolchains/gcc_arm/gcc-arm-none-eabi-6-2017-q2-update/arm-none-eabi/include/c++/6.3.1/streambuf ****        *  @param  __loc  The new locale.
 204:/home/zkmike/.local/share/renesas/e2_studio/toolchains/gcc_arm/gcc-arm-none-eabi-6-2017-q2-update/arm-none-eabi/include/c++/6.3.1/streambuf ****        *  @return  The previous locale.
 205:/home/zkmike/.local/share/renesas/e2_studio/toolchains/gcc_arm/gcc-arm-none-eabi-6-2017-q2-update/arm-none-eabi/include/c++/6.3.1/streambuf ****        *
 206:/home/zkmike/.local/share/renesas/e2_studio/toolchains/gcc_arm/gcc-arm-none-eabi-6-2017-q2-update/arm-none-eabi/include/c++/6.3.1/streambuf ****        *  Calls the derived imbue(__loc).
 207:/home/zkmike/.local/share/renesas/e2_studio/toolchains/gcc_arm/gcc-arm-none-eabi-6-2017-q2-update/arm-none-eabi/include/c++/6.3.1/streambuf ****       */
 208:/home/zkmike/.local/share/renesas/e2_studio/toolchains/gcc_arm/gcc-arm-none-eabi-6-2017-q2-update/arm-none-eabi/include/c++/6.3.1/streambuf ****       locale
 209:/home/zkmike/.local/share/renesas/e2_studio/toolchains/gcc_arm/gcc-arm-none-eabi-6-2017-q2-update/arm-none-eabi/include/c++/6.3.1/streambuf ****       pubimbue(const locale& __loc)
 210:/home/zkmike/.local/share/renesas/e2_studio/toolchains/gcc_arm/gcc-arm-none-eabi-6-2017-q2-update/arm-none-eabi/include/c++/6.3.1/streambuf ****       {
 211:/home/zkmike/.local/share/renesas/e2_studio/toolchains/gcc_arm/gcc-arm-none-eabi-6-2017-q2-update/arm-none-eabi/include/c++/6.3.1/streambuf **** 	locale __tmp(this->getloc());
 212:/home/zkmike/.local/share/renesas/e2_studio/toolchains/gcc_arm/gcc-arm-none-eabi-6-2017-q2-update/arm-none-eabi/include/c++/6.3.1/streambuf **** 	this->imbue(__loc);
 213:/home/zkmike/.local/share/renesas/e2_studio/toolchains/gcc_arm/gcc-arm-none-eabi-6-2017-q2-update/arm-none-eabi/include/c++/6.3.1/streambuf **** 	_M_buf_locale = __loc;
 214:/home/zkmike/.local/share/renesas/e2_studio/toolchains/gcc_arm/gcc-arm-none-eabi-6-2017-q2-update/arm-none-eabi/include/c++/6.3.1/streambuf **** 	return __tmp;
 215:/home/zkmike/.local/share/renesas/e2_studio/toolchains/gcc_arm/gcc-arm-none-eabi-6-2017-q2-update/arm-none-eabi/include/c++/6.3.1/streambuf ****       }
 216:/home/zkmike/.local/share/renesas/e2_studio/toolchains/gcc_arm/gcc-arm-none-eabi-6-2017-q2-update/arm-none-eabi/include/c++/6.3.1/streambuf **** 
 217:/home/zkmike/.local/share/renesas/e2_studio/toolchains/gcc_arm/gcc-arm-none-eabi-6-2017-q2-update/arm-none-eabi/include/c++/6.3.1/streambuf ****       /**
 218:/home/zkmike/.local/share/renesas/e2_studio/toolchains/gcc_arm/gcc-arm-none-eabi-6-2017-q2-update/arm-none-eabi/include/c++/6.3.1/streambuf ****        *  @brief  Locale access.
 219:/home/zkmike/.local/share/renesas/e2_studio/toolchains/gcc_arm/gcc-arm-none-eabi-6-2017-q2-update/arm-none-eabi/include/c++/6.3.1/streambuf ****        *  @return  The current locale in effect.
 220:/home/zkmike/.local/share/renesas/e2_studio/toolchains/gcc_arm/gcc-arm-none-eabi-6-2017-q2-update/arm-none-eabi/include/c++/6.3.1/streambuf ****        *
 221:/home/zkmike/.local/share/renesas/e2_studio/toolchains/gcc_arm/gcc-arm-none-eabi-6-2017-q2-update/arm-none-eabi/include/c++/6.3.1/streambuf ****        *  If pubimbue(loc) has been called, then the most recent @c loc
 222:/home/zkmike/.local/share/renesas/e2_studio/toolchains/gcc_arm/gcc-arm-none-eabi-6-2017-q2-update/arm-none-eabi/include/c++/6.3.1/streambuf ****        *  is returned.  Otherwise the global locale in effect at the time
 223:/home/zkmike/.local/share/renesas/e2_studio/toolchains/gcc_arm/gcc-arm-none-eabi-6-2017-q2-update/arm-none-eabi/include/c++/6.3.1/streambuf ****        *  of construction is returned.
 224:/home/zkmike/.local/share/renesas/e2_studio/toolchains/gcc_arm/gcc-arm-none-eabi-6-2017-q2-update/arm-none-eabi/include/c++/6.3.1/streambuf ****       */
 225:/home/zkmike/.local/share/renesas/e2_studio/toolchains/gcc_arm/gcc-arm-none-eabi-6-2017-q2-update/arm-none-eabi/include/c++/6.3.1/streambuf ****       locale
 226:/home/zkmike/.local/share/renesas/e2_studio/toolchains/gcc_arm/gcc-arm-none-eabi-6-2017-q2-update/arm-none-eabi/include/c++/6.3.1/streambuf ****       getloc() const
 227:/home/zkmike/.local/share/renesas/e2_studio/toolchains/gcc_arm/gcc-arm-none-eabi-6-2017-q2-update/arm-none-eabi/include/c++/6.3.1/streambuf ****       { return _M_buf_locale; }
 228:/home/zkmike/.local/share/renesas/e2_studio/toolchains/gcc_arm/gcc-arm-none-eabi-6-2017-q2-update/arm-none-eabi/include/c++/6.3.1/streambuf **** 
 229:/home/zkmike/.local/share/renesas/e2_studio/toolchains/gcc_arm/gcc-arm-none-eabi-6-2017-q2-update/arm-none-eabi/include/c++/6.3.1/streambuf ****       // [27.5.2.2.2] buffer management and positioning
 230:/home/zkmike/.local/share/renesas/e2_studio/toolchains/gcc_arm/gcc-arm-none-eabi-6-2017-q2-update/arm-none-eabi/include/c++/6.3.1/streambuf ****       //@{
 231:/home/zkmike/.local/share/renesas/e2_studio/toolchains/gcc_arm/gcc-arm-none-eabi-6-2017-q2-update/arm-none-eabi/include/c++/6.3.1/streambuf ****       /**
 232:/home/zkmike/.local/share/renesas/e2_studio/toolchains/gcc_arm/gcc-arm-none-eabi-6-2017-q2-update/arm-none-eabi/include/c++/6.3.1/streambuf ****        *  @brief  Entry points for derived buffer functions.
 233:/home/zkmike/.local/share/renesas/e2_studio/toolchains/gcc_arm/gcc-arm-none-eabi-6-2017-q2-update/arm-none-eabi/include/c++/6.3.1/streambuf ****        *
 234:/home/zkmike/.local/share/renesas/e2_studio/toolchains/gcc_arm/gcc-arm-none-eabi-6-2017-q2-update/arm-none-eabi/include/c++/6.3.1/streambuf ****        *  The public versions of @c pubfoo dispatch to the protected
 235:/home/zkmike/.local/share/renesas/e2_studio/toolchains/gcc_arm/gcc-arm-none-eabi-6-2017-q2-update/arm-none-eabi/include/c++/6.3.1/streambuf ****        *  derived @c foo member functions, passing the arguments (if any)
 236:/home/zkmike/.local/share/renesas/e2_studio/toolchains/gcc_arm/gcc-arm-none-eabi-6-2017-q2-update/arm-none-eabi/include/c++/6.3.1/streambuf ****        *  and returning the result unchanged.
 237:/home/zkmike/.local/share/renesas/e2_studio/toolchains/gcc_arm/gcc-arm-none-eabi-6-2017-q2-update/arm-none-eabi/include/c++/6.3.1/streambuf ****       */
 238:/home/zkmike/.local/share/renesas/e2_studio/toolchains/gcc_arm/gcc-arm-none-eabi-6-2017-q2-update/arm-none-eabi/include/c++/6.3.1/streambuf ****       basic_streambuf*
 239:/home/zkmike/.local/share/renesas/e2_studio/toolchains/gcc_arm/gcc-arm-none-eabi-6-2017-q2-update/arm-none-eabi/include/c++/6.3.1/streambuf ****       pubsetbuf(char_type* __s, streamsize __n)
 240:/home/zkmike/.local/share/renesas/e2_studio/toolchains/gcc_arm/gcc-arm-none-eabi-6-2017-q2-update/arm-none-eabi/include/c++/6.3.1/streambuf ****       { return this->setbuf(__s, __n); }
 241:/home/zkmike/.local/share/renesas/e2_studio/toolchains/gcc_arm/gcc-arm-none-eabi-6-2017-q2-update/arm-none-eabi/include/c++/6.3.1/streambuf **** 
 242:/home/zkmike/.local/share/renesas/e2_studio/toolchains/gcc_arm/gcc-arm-none-eabi-6-2017-q2-update/arm-none-eabi/include/c++/6.3.1/streambuf ****       /**
 243:/home/zkmike/.local/share/renesas/e2_studio/toolchains/gcc_arm/gcc-arm-none-eabi-6-2017-q2-update/arm-none-eabi/include/c++/6.3.1/streambuf ****        *  @brief  Alters the stream position.
 244:/home/zkmike/.local/share/renesas/e2_studio/toolchains/gcc_arm/gcc-arm-none-eabi-6-2017-q2-update/arm-none-eabi/include/c++/6.3.1/streambuf ****        *  @param  __off  Offset.
 245:/home/zkmike/.local/share/renesas/e2_studio/toolchains/gcc_arm/gcc-arm-none-eabi-6-2017-q2-update/arm-none-eabi/include/c++/6.3.1/streambuf ****        *  @param  __way  Value for ios_base::seekdir.
 246:/home/zkmike/.local/share/renesas/e2_studio/toolchains/gcc_arm/gcc-arm-none-eabi-6-2017-q2-update/arm-none-eabi/include/c++/6.3.1/streambuf ****        *  @param  __mode Value for ios_base::openmode.
 247:/home/zkmike/.local/share/renesas/e2_studio/toolchains/gcc_arm/gcc-arm-none-eabi-6-2017-q2-update/arm-none-eabi/include/c++/6.3.1/streambuf ****        *
 248:/home/zkmike/.local/share/renesas/e2_studio/toolchains/gcc_arm/gcc-arm-none-eabi-6-2017-q2-update/arm-none-eabi/include/c++/6.3.1/streambuf ****        *  Calls virtual seekoff function.
 249:/home/zkmike/.local/share/renesas/e2_studio/toolchains/gcc_arm/gcc-arm-none-eabi-6-2017-q2-update/arm-none-eabi/include/c++/6.3.1/streambuf ****       */
 250:/home/zkmike/.local/share/renesas/e2_studio/toolchains/gcc_arm/gcc-arm-none-eabi-6-2017-q2-update/arm-none-eabi/include/c++/6.3.1/streambuf ****       pos_type
 251:/home/zkmike/.local/share/renesas/e2_studio/toolchains/gcc_arm/gcc-arm-none-eabi-6-2017-q2-update/arm-none-eabi/include/c++/6.3.1/streambuf ****       pubseekoff(off_type __off, ios_base::seekdir __way,
 252:/home/zkmike/.local/share/renesas/e2_studio/toolchains/gcc_arm/gcc-arm-none-eabi-6-2017-q2-update/arm-none-eabi/include/c++/6.3.1/streambuf **** 		 ios_base::openmode __mode = ios_base::in | ios_base::out)
 253:/home/zkmike/.local/share/renesas/e2_studio/toolchains/gcc_arm/gcc-arm-none-eabi-6-2017-q2-update/arm-none-eabi/include/c++/6.3.1/streambuf ****       { return this->seekoff(__off, __way, __mode); }
 254:/home/zkmike/.local/share/renesas/e2_studio/toolchains/gcc_arm/gcc-arm-none-eabi-6-2017-q2-update/arm-none-eabi/include/c++/6.3.1/streambuf **** 
 255:/home/zkmike/.local/share/renesas/e2_studio/toolchains/gcc_arm/gcc-arm-none-eabi-6-2017-q2-update/arm-none-eabi/include/c++/6.3.1/streambuf ****       /**
 256:/home/zkmike/.local/share/renesas/e2_studio/toolchains/gcc_arm/gcc-arm-none-eabi-6-2017-q2-update/arm-none-eabi/include/c++/6.3.1/streambuf ****        *  @brief  Alters the stream position.
 257:/home/zkmike/.local/share/renesas/e2_studio/toolchains/gcc_arm/gcc-arm-none-eabi-6-2017-q2-update/arm-none-eabi/include/c++/6.3.1/streambuf ****        *  @param  __sp  Position
 258:/home/zkmike/.local/share/renesas/e2_studio/toolchains/gcc_arm/gcc-arm-none-eabi-6-2017-q2-update/arm-none-eabi/include/c++/6.3.1/streambuf ****        *  @param  __mode Value for ios_base::openmode.
 259:/home/zkmike/.local/share/renesas/e2_studio/toolchains/gcc_arm/gcc-arm-none-eabi-6-2017-q2-update/arm-none-eabi/include/c++/6.3.1/streambuf ****        *
 260:/home/zkmike/.local/share/renesas/e2_studio/toolchains/gcc_arm/gcc-arm-none-eabi-6-2017-q2-update/arm-none-eabi/include/c++/6.3.1/streambuf ****        *  Calls virtual seekpos function.
 261:/home/zkmike/.local/share/renesas/e2_studio/toolchains/gcc_arm/gcc-arm-none-eabi-6-2017-q2-update/arm-none-eabi/include/c++/6.3.1/streambuf ****       */
 262:/home/zkmike/.local/share/renesas/e2_studio/toolchains/gcc_arm/gcc-arm-none-eabi-6-2017-q2-update/arm-none-eabi/include/c++/6.3.1/streambuf ****       pos_type
 263:/home/zkmike/.local/share/renesas/e2_studio/toolchains/gcc_arm/gcc-arm-none-eabi-6-2017-q2-update/arm-none-eabi/include/c++/6.3.1/streambuf ****       pubseekpos(pos_type __sp,
 264:/home/zkmike/.local/share/renesas/e2_studio/toolchains/gcc_arm/gcc-arm-none-eabi-6-2017-q2-update/arm-none-eabi/include/c++/6.3.1/streambuf **** 		 ios_base::openmode __mode = ios_base::in | ios_base::out)
 265:/home/zkmike/.local/share/renesas/e2_studio/toolchains/gcc_arm/gcc-arm-none-eabi-6-2017-q2-update/arm-none-eabi/include/c++/6.3.1/streambuf ****       { return this->seekpos(__sp, __mode); }
 266:/home/zkmike/.local/share/renesas/e2_studio/toolchains/gcc_arm/gcc-arm-none-eabi-6-2017-q2-update/arm-none-eabi/include/c++/6.3.1/streambuf **** 
 267:/home/zkmike/.local/share/renesas/e2_studio/toolchains/gcc_arm/gcc-arm-none-eabi-6-2017-q2-update/arm-none-eabi/include/c++/6.3.1/streambuf ****       /**
 268:/home/zkmike/.local/share/renesas/e2_studio/toolchains/gcc_arm/gcc-arm-none-eabi-6-2017-q2-update/arm-none-eabi/include/c++/6.3.1/streambuf ****        *  @brief  Calls virtual sync function.
 269:/home/zkmike/.local/share/renesas/e2_studio/toolchains/gcc_arm/gcc-arm-none-eabi-6-2017-q2-update/arm-none-eabi/include/c++/6.3.1/streambuf ****       */
 270:/home/zkmike/.local/share/renesas/e2_studio/toolchains/gcc_arm/gcc-arm-none-eabi-6-2017-q2-update/arm-none-eabi/include/c++/6.3.1/streambuf ****       int
 271:/home/zkmike/.local/share/renesas/e2_studio/toolchains/gcc_arm/gcc-arm-none-eabi-6-2017-q2-update/arm-none-eabi/include/c++/6.3.1/streambuf ****       pubsync() { return this->sync(); }
 272:/home/zkmike/.local/share/renesas/e2_studio/toolchains/gcc_arm/gcc-arm-none-eabi-6-2017-q2-update/arm-none-eabi/include/c++/6.3.1/streambuf ****       //@}
 273:/home/zkmike/.local/share/renesas/e2_studio/toolchains/gcc_arm/gcc-arm-none-eabi-6-2017-q2-update/arm-none-eabi/include/c++/6.3.1/streambuf **** 
 274:/home/zkmike/.local/share/renesas/e2_studio/toolchains/gcc_arm/gcc-arm-none-eabi-6-2017-q2-update/arm-none-eabi/include/c++/6.3.1/streambuf ****       // [27.5.2.2.3] get area
 275:/home/zkmike/.local/share/renesas/e2_studio/toolchains/gcc_arm/gcc-arm-none-eabi-6-2017-q2-update/arm-none-eabi/include/c++/6.3.1/streambuf ****       /**
 276:/home/zkmike/.local/share/renesas/e2_studio/toolchains/gcc_arm/gcc-arm-none-eabi-6-2017-q2-update/arm-none-eabi/include/c++/6.3.1/streambuf ****        *  @brief  Looking ahead into the stream.
 277:/home/zkmike/.local/share/renesas/e2_studio/toolchains/gcc_arm/gcc-arm-none-eabi-6-2017-q2-update/arm-none-eabi/include/c++/6.3.1/streambuf ****        *  @return  The number of characters available.
 278:/home/zkmike/.local/share/renesas/e2_studio/toolchains/gcc_arm/gcc-arm-none-eabi-6-2017-q2-update/arm-none-eabi/include/c++/6.3.1/streambuf ****        *
 279:/home/zkmike/.local/share/renesas/e2_studio/toolchains/gcc_arm/gcc-arm-none-eabi-6-2017-q2-update/arm-none-eabi/include/c++/6.3.1/streambuf ****        *  If a read position is available, returns the number of characters
 280:/home/zkmike/.local/share/renesas/e2_studio/toolchains/gcc_arm/gcc-arm-none-eabi-6-2017-q2-update/arm-none-eabi/include/c++/6.3.1/streambuf ****        *  available for reading before the buffer must be refilled.
 281:/home/zkmike/.local/share/renesas/e2_studio/toolchains/gcc_arm/gcc-arm-none-eabi-6-2017-q2-update/arm-none-eabi/include/c++/6.3.1/streambuf ****        *  Otherwise returns the derived @c showmanyc().
 282:/home/zkmike/.local/share/renesas/e2_studio/toolchains/gcc_arm/gcc-arm-none-eabi-6-2017-q2-update/arm-none-eabi/include/c++/6.3.1/streambuf ****       */
 283:/home/zkmike/.local/share/renesas/e2_studio/toolchains/gcc_arm/gcc-arm-none-eabi-6-2017-q2-update/arm-none-eabi/include/c++/6.3.1/streambuf ****       streamsize
 284:/home/zkmike/.local/share/renesas/e2_studio/toolchains/gcc_arm/gcc-arm-none-eabi-6-2017-q2-update/arm-none-eabi/include/c++/6.3.1/streambuf ****       in_avail()
 285:/home/zkmike/.local/share/renesas/e2_studio/toolchains/gcc_arm/gcc-arm-none-eabi-6-2017-q2-update/arm-none-eabi/include/c++/6.3.1/streambuf ****       {
 286:/home/zkmike/.local/share/renesas/e2_studio/toolchains/gcc_arm/gcc-arm-none-eabi-6-2017-q2-update/arm-none-eabi/include/c++/6.3.1/streambuf **** 	const streamsize __ret = this->egptr() - this->gptr();
 287:/home/zkmike/.local/share/renesas/e2_studio/toolchains/gcc_arm/gcc-arm-none-eabi-6-2017-q2-update/arm-none-eabi/include/c++/6.3.1/streambuf **** 	return __ret ? __ret : this->showmanyc();
 288:/home/zkmike/.local/share/renesas/e2_studio/toolchains/gcc_arm/gcc-arm-none-eabi-6-2017-q2-update/arm-none-eabi/include/c++/6.3.1/streambuf ****       }
 289:/home/zkmike/.local/share/renesas/e2_studio/toolchains/gcc_arm/gcc-arm-none-eabi-6-2017-q2-update/arm-none-eabi/include/c++/6.3.1/streambuf **** 
 290:/home/zkmike/.local/share/renesas/e2_studio/toolchains/gcc_arm/gcc-arm-none-eabi-6-2017-q2-update/arm-none-eabi/include/c++/6.3.1/streambuf ****       /**
 291:/home/zkmike/.local/share/renesas/e2_studio/toolchains/gcc_arm/gcc-arm-none-eabi-6-2017-q2-update/arm-none-eabi/include/c++/6.3.1/streambuf ****        *  @brief  Getting the next character.
 292:/home/zkmike/.local/share/renesas/e2_studio/toolchains/gcc_arm/gcc-arm-none-eabi-6-2017-q2-update/arm-none-eabi/include/c++/6.3.1/streambuf ****        *  @return  The next character, or eof.
 293:/home/zkmike/.local/share/renesas/e2_studio/toolchains/gcc_arm/gcc-arm-none-eabi-6-2017-q2-update/arm-none-eabi/include/c++/6.3.1/streambuf ****        *
 294:/home/zkmike/.local/share/renesas/e2_studio/toolchains/gcc_arm/gcc-arm-none-eabi-6-2017-q2-update/arm-none-eabi/include/c++/6.3.1/streambuf ****        *  Calls @c sbumpc(), and if that function returns
 295:/home/zkmike/.local/share/renesas/e2_studio/toolchains/gcc_arm/gcc-arm-none-eabi-6-2017-q2-update/arm-none-eabi/include/c++/6.3.1/streambuf ****        *  @c traits::eof(), so does this function.  Otherwise, @c sgetc().
 296:/home/zkmike/.local/share/renesas/e2_studio/toolchains/gcc_arm/gcc-arm-none-eabi-6-2017-q2-update/arm-none-eabi/include/c++/6.3.1/streambuf ****       */
 297:/home/zkmike/.local/share/renesas/e2_studio/toolchains/gcc_arm/gcc-arm-none-eabi-6-2017-q2-update/arm-none-eabi/include/c++/6.3.1/streambuf ****       int_type
 298:/home/zkmike/.local/share/renesas/e2_studio/toolchains/gcc_arm/gcc-arm-none-eabi-6-2017-q2-update/arm-none-eabi/include/c++/6.3.1/streambuf ****       snextc()
 299:/home/zkmike/.local/share/renesas/e2_studio/toolchains/gcc_arm/gcc-arm-none-eabi-6-2017-q2-update/arm-none-eabi/include/c++/6.3.1/streambuf ****       {
 300:/home/zkmike/.local/share/renesas/e2_studio/toolchains/gcc_arm/gcc-arm-none-eabi-6-2017-q2-update/arm-none-eabi/include/c++/6.3.1/streambuf **** 	int_type __ret = traits_type::eof();
 301:/home/zkmike/.local/share/renesas/e2_studio/toolchains/gcc_arm/gcc-arm-none-eabi-6-2017-q2-update/arm-none-eabi/include/c++/6.3.1/streambuf **** 	if (__builtin_expect(!traits_type::eq_int_type(this->sbumpc(),
 302:/home/zkmike/.local/share/renesas/e2_studio/toolchains/gcc_arm/gcc-arm-none-eabi-6-2017-q2-update/arm-none-eabi/include/c++/6.3.1/streambuf **** 						       __ret), true))
 303:/home/zkmike/.local/share/renesas/e2_studio/toolchains/gcc_arm/gcc-arm-none-eabi-6-2017-q2-update/arm-none-eabi/include/c++/6.3.1/streambuf **** 	  __ret = this->sgetc();
 304:/home/zkmike/.local/share/renesas/e2_studio/toolchains/gcc_arm/gcc-arm-none-eabi-6-2017-q2-update/arm-none-eabi/include/c++/6.3.1/streambuf **** 	return __ret;
 305:/home/zkmike/.local/share/renesas/e2_studio/toolchains/gcc_arm/gcc-arm-none-eabi-6-2017-q2-update/arm-none-eabi/include/c++/6.3.1/streambuf ****       }
 306:/home/zkmike/.local/share/renesas/e2_studio/toolchains/gcc_arm/gcc-arm-none-eabi-6-2017-q2-update/arm-none-eabi/include/c++/6.3.1/streambuf **** 
 307:/home/zkmike/.local/share/renesas/e2_studio/toolchains/gcc_arm/gcc-arm-none-eabi-6-2017-q2-update/arm-none-eabi/include/c++/6.3.1/streambuf ****       /**
 308:/home/zkmike/.local/share/renesas/e2_studio/toolchains/gcc_arm/gcc-arm-none-eabi-6-2017-q2-update/arm-none-eabi/include/c++/6.3.1/streambuf ****        *  @brief  Getting the next character.
 309:/home/zkmike/.local/share/renesas/e2_studio/toolchains/gcc_arm/gcc-arm-none-eabi-6-2017-q2-update/arm-none-eabi/include/c++/6.3.1/streambuf ****        *  @return  The next character, or eof.
 310:/home/zkmike/.local/share/renesas/e2_studio/toolchains/gcc_arm/gcc-arm-none-eabi-6-2017-q2-update/arm-none-eabi/include/c++/6.3.1/streambuf ****        *
 311:/home/zkmike/.local/share/renesas/e2_studio/toolchains/gcc_arm/gcc-arm-none-eabi-6-2017-q2-update/arm-none-eabi/include/c++/6.3.1/streambuf ****        *  If the input read position is available, returns that character
 312:/home/zkmike/.local/share/renesas/e2_studio/toolchains/gcc_arm/gcc-arm-none-eabi-6-2017-q2-update/arm-none-eabi/include/c++/6.3.1/streambuf ****        *  and increments the read pointer, otherwise calls and returns
 313:/home/zkmike/.local/share/renesas/e2_studio/toolchains/gcc_arm/gcc-arm-none-eabi-6-2017-q2-update/arm-none-eabi/include/c++/6.3.1/streambuf ****        *  @c uflow().
 314:/home/zkmike/.local/share/renesas/e2_studio/toolchains/gcc_arm/gcc-arm-none-eabi-6-2017-q2-update/arm-none-eabi/include/c++/6.3.1/streambuf ****       */
 315:/home/zkmike/.local/share/renesas/e2_studio/toolchains/gcc_arm/gcc-arm-none-eabi-6-2017-q2-update/arm-none-eabi/include/c++/6.3.1/streambuf ****       int_type
 316:/home/zkmike/.local/share/renesas/e2_studio/toolchains/gcc_arm/gcc-arm-none-eabi-6-2017-q2-update/arm-none-eabi/include/c++/6.3.1/streambuf ****       sbumpc()
 317:/home/zkmike/.local/share/renesas/e2_studio/toolchains/gcc_arm/gcc-arm-none-eabi-6-2017-q2-update/arm-none-eabi/include/c++/6.3.1/streambuf ****       {
 318:/home/zkmike/.local/share/renesas/e2_studio/toolchains/gcc_arm/gcc-arm-none-eabi-6-2017-q2-update/arm-none-eabi/include/c++/6.3.1/streambuf **** 	int_type __ret;
 319:/home/zkmike/.local/share/renesas/e2_studio/toolchains/gcc_arm/gcc-arm-none-eabi-6-2017-q2-update/arm-none-eabi/include/c++/6.3.1/streambuf **** 	if (__builtin_expect(this->gptr() < this->egptr(), true))
 320:/home/zkmike/.local/share/renesas/e2_studio/toolchains/gcc_arm/gcc-arm-none-eabi-6-2017-q2-update/arm-none-eabi/include/c++/6.3.1/streambuf **** 	  {
 321:/home/zkmike/.local/share/renesas/e2_studio/toolchains/gcc_arm/gcc-arm-none-eabi-6-2017-q2-update/arm-none-eabi/include/c++/6.3.1/streambuf **** 	    __ret = traits_type::to_int_type(*this->gptr());
 322:/home/zkmike/.local/share/renesas/e2_studio/toolchains/gcc_arm/gcc-arm-none-eabi-6-2017-q2-update/arm-none-eabi/include/c++/6.3.1/streambuf **** 	    this->gbump(1);
 323:/home/zkmike/.local/share/renesas/e2_studio/toolchains/gcc_arm/gcc-arm-none-eabi-6-2017-q2-update/arm-none-eabi/include/c++/6.3.1/streambuf **** 	  }
 324:/home/zkmike/.local/share/renesas/e2_studio/toolchains/gcc_arm/gcc-arm-none-eabi-6-2017-q2-update/arm-none-eabi/include/c++/6.3.1/streambuf **** 	else
 325:/home/zkmike/.local/share/renesas/e2_studio/toolchains/gcc_arm/gcc-arm-none-eabi-6-2017-q2-update/arm-none-eabi/include/c++/6.3.1/streambuf **** 	  __ret = this->uflow();
 326:/home/zkmike/.local/share/renesas/e2_studio/toolchains/gcc_arm/gcc-arm-none-eabi-6-2017-q2-update/arm-none-eabi/include/c++/6.3.1/streambuf **** 	return __ret;
 327:/home/zkmike/.local/share/renesas/e2_studio/toolchains/gcc_arm/gcc-arm-none-eabi-6-2017-q2-update/arm-none-eabi/include/c++/6.3.1/streambuf ****       }
 328:/home/zkmike/.local/share/renesas/e2_studio/toolchains/gcc_arm/gcc-arm-none-eabi-6-2017-q2-update/arm-none-eabi/include/c++/6.3.1/streambuf **** 
 329:/home/zkmike/.local/share/renesas/e2_studio/toolchains/gcc_arm/gcc-arm-none-eabi-6-2017-q2-update/arm-none-eabi/include/c++/6.3.1/streambuf ****       /**
 330:/home/zkmike/.local/share/renesas/e2_studio/toolchains/gcc_arm/gcc-arm-none-eabi-6-2017-q2-update/arm-none-eabi/include/c++/6.3.1/streambuf ****        *  @brief  Getting the next character.
 331:/home/zkmike/.local/share/renesas/e2_studio/toolchains/gcc_arm/gcc-arm-none-eabi-6-2017-q2-update/arm-none-eabi/include/c++/6.3.1/streambuf ****        *  @return  The next character, or eof.
 332:/home/zkmike/.local/share/renesas/e2_studio/toolchains/gcc_arm/gcc-arm-none-eabi-6-2017-q2-update/arm-none-eabi/include/c++/6.3.1/streambuf ****        *
 333:/home/zkmike/.local/share/renesas/e2_studio/toolchains/gcc_arm/gcc-arm-none-eabi-6-2017-q2-update/arm-none-eabi/include/c++/6.3.1/streambuf ****        *  If the input read position is available, returns that character,
 334:/home/zkmike/.local/share/renesas/e2_studio/toolchains/gcc_arm/gcc-arm-none-eabi-6-2017-q2-update/arm-none-eabi/include/c++/6.3.1/streambuf ****        *  otherwise calls and returns @c underflow().  Does not move the
 335:/home/zkmike/.local/share/renesas/e2_studio/toolchains/gcc_arm/gcc-arm-none-eabi-6-2017-q2-update/arm-none-eabi/include/c++/6.3.1/streambuf ****        *  read position after fetching the character.
 336:/home/zkmike/.local/share/renesas/e2_studio/toolchains/gcc_arm/gcc-arm-none-eabi-6-2017-q2-update/arm-none-eabi/include/c++/6.3.1/streambuf ****       */
 337:/home/zkmike/.local/share/renesas/e2_studio/toolchains/gcc_arm/gcc-arm-none-eabi-6-2017-q2-update/arm-none-eabi/include/c++/6.3.1/streambuf ****       int_type
 338:/home/zkmike/.local/share/renesas/e2_studio/toolchains/gcc_arm/gcc-arm-none-eabi-6-2017-q2-update/arm-none-eabi/include/c++/6.3.1/streambuf ****       sgetc()
 339:/home/zkmike/.local/share/renesas/e2_studio/toolchains/gcc_arm/gcc-arm-none-eabi-6-2017-q2-update/arm-none-eabi/include/c++/6.3.1/streambuf ****       {
 340:/home/zkmike/.local/share/renesas/e2_studio/toolchains/gcc_arm/gcc-arm-none-eabi-6-2017-q2-update/arm-none-eabi/include/c++/6.3.1/streambuf **** 	int_type __ret;
 341:/home/zkmike/.local/share/renesas/e2_studio/toolchains/gcc_arm/gcc-arm-none-eabi-6-2017-q2-update/arm-none-eabi/include/c++/6.3.1/streambuf **** 	if (__builtin_expect(this->gptr() < this->egptr(), true))
 342:/home/zkmike/.local/share/renesas/e2_studio/toolchains/gcc_arm/gcc-arm-none-eabi-6-2017-q2-update/arm-none-eabi/include/c++/6.3.1/streambuf **** 	  __ret = traits_type::to_int_type(*this->gptr());
 343:/home/zkmike/.local/share/renesas/e2_studio/toolchains/gcc_arm/gcc-arm-none-eabi-6-2017-q2-update/arm-none-eabi/include/c++/6.3.1/streambuf **** 	else
 344:/home/zkmike/.local/share/renesas/e2_studio/toolchains/gcc_arm/gcc-arm-none-eabi-6-2017-q2-update/arm-none-eabi/include/c++/6.3.1/streambuf **** 	  __ret = this->underflow();
 345:/home/zkmike/.local/share/renesas/e2_studio/toolchains/gcc_arm/gcc-arm-none-eabi-6-2017-q2-update/arm-none-eabi/include/c++/6.3.1/streambuf **** 	return __ret;
 346:/home/zkmike/.local/share/renesas/e2_studio/toolchains/gcc_arm/gcc-arm-none-eabi-6-2017-q2-update/arm-none-eabi/include/c++/6.3.1/streambuf ****       }
 347:/home/zkmike/.local/share/renesas/e2_studio/toolchains/gcc_arm/gcc-arm-none-eabi-6-2017-q2-update/arm-none-eabi/include/c++/6.3.1/streambuf **** 
 348:/home/zkmike/.local/share/renesas/e2_studio/toolchains/gcc_arm/gcc-arm-none-eabi-6-2017-q2-update/arm-none-eabi/include/c++/6.3.1/streambuf ****       /**
 349:/home/zkmike/.local/share/renesas/e2_studio/toolchains/gcc_arm/gcc-arm-none-eabi-6-2017-q2-update/arm-none-eabi/include/c++/6.3.1/streambuf ****        *  @brief  Entry point for xsgetn.
 350:/home/zkmike/.local/share/renesas/e2_studio/toolchains/gcc_arm/gcc-arm-none-eabi-6-2017-q2-update/arm-none-eabi/include/c++/6.3.1/streambuf ****        *  @param  __s  A buffer area.
 351:/home/zkmike/.local/share/renesas/e2_studio/toolchains/gcc_arm/gcc-arm-none-eabi-6-2017-q2-update/arm-none-eabi/include/c++/6.3.1/streambuf ****        *  @param  __n  A count.
 352:/home/zkmike/.local/share/renesas/e2_studio/toolchains/gcc_arm/gcc-arm-none-eabi-6-2017-q2-update/arm-none-eabi/include/c++/6.3.1/streambuf ****        *
 353:/home/zkmike/.local/share/renesas/e2_studio/toolchains/gcc_arm/gcc-arm-none-eabi-6-2017-q2-update/arm-none-eabi/include/c++/6.3.1/streambuf ****        *  Returns xsgetn(__s,__n).  The effect is to fill @a __s[0] through
 354:/home/zkmike/.local/share/renesas/e2_studio/toolchains/gcc_arm/gcc-arm-none-eabi-6-2017-q2-update/arm-none-eabi/include/c++/6.3.1/streambuf ****        *  @a __s[__n-1] with characters from the input sequence, if possible.
 355:/home/zkmike/.local/share/renesas/e2_studio/toolchains/gcc_arm/gcc-arm-none-eabi-6-2017-q2-update/arm-none-eabi/include/c++/6.3.1/streambuf ****       */
 356:/home/zkmike/.local/share/renesas/e2_studio/toolchains/gcc_arm/gcc-arm-none-eabi-6-2017-q2-update/arm-none-eabi/include/c++/6.3.1/streambuf ****       streamsize
 357:/home/zkmike/.local/share/renesas/e2_studio/toolchains/gcc_arm/gcc-arm-none-eabi-6-2017-q2-update/arm-none-eabi/include/c++/6.3.1/streambuf ****       sgetn(char_type* __s, streamsize __n)
 358:/home/zkmike/.local/share/renesas/e2_studio/toolchains/gcc_arm/gcc-arm-none-eabi-6-2017-q2-update/arm-none-eabi/include/c++/6.3.1/streambuf ****       { return this->xsgetn(__s, __n); }
 359:/home/zkmike/.local/share/renesas/e2_studio/toolchains/gcc_arm/gcc-arm-none-eabi-6-2017-q2-update/arm-none-eabi/include/c++/6.3.1/streambuf **** 
 360:/home/zkmike/.local/share/renesas/e2_studio/toolchains/gcc_arm/gcc-arm-none-eabi-6-2017-q2-update/arm-none-eabi/include/c++/6.3.1/streambuf ****       // [27.5.2.2.4] putback
 361:/home/zkmike/.local/share/renesas/e2_studio/toolchains/gcc_arm/gcc-arm-none-eabi-6-2017-q2-update/arm-none-eabi/include/c++/6.3.1/streambuf ****       /**
 362:/home/zkmike/.local/share/renesas/e2_studio/toolchains/gcc_arm/gcc-arm-none-eabi-6-2017-q2-update/arm-none-eabi/include/c++/6.3.1/streambuf ****        *  @brief  Pushing characters back into the input stream.
 363:/home/zkmike/.local/share/renesas/e2_studio/toolchains/gcc_arm/gcc-arm-none-eabi-6-2017-q2-update/arm-none-eabi/include/c++/6.3.1/streambuf ****        *  @param  __c  The character to push back.
 364:/home/zkmike/.local/share/renesas/e2_studio/toolchains/gcc_arm/gcc-arm-none-eabi-6-2017-q2-update/arm-none-eabi/include/c++/6.3.1/streambuf ****        *  @return  The previous character, if possible.
 365:/home/zkmike/.local/share/renesas/e2_studio/toolchains/gcc_arm/gcc-arm-none-eabi-6-2017-q2-update/arm-none-eabi/include/c++/6.3.1/streambuf ****        *
 366:/home/zkmike/.local/share/renesas/e2_studio/toolchains/gcc_arm/gcc-arm-none-eabi-6-2017-q2-update/arm-none-eabi/include/c++/6.3.1/streambuf ****        *  Similar to sungetc(), but @a __c is pushed onto the stream
 367:/home/zkmike/.local/share/renesas/e2_studio/toolchains/gcc_arm/gcc-arm-none-eabi-6-2017-q2-update/arm-none-eabi/include/c++/6.3.1/streambuf ****        *  instead of <em>the previous character.</em> If successful,
 368:/home/zkmike/.local/share/renesas/e2_studio/toolchains/gcc_arm/gcc-arm-none-eabi-6-2017-q2-update/arm-none-eabi/include/c++/6.3.1/streambuf ****        *  the next character fetched from the input stream will be @a
 369:/home/zkmike/.local/share/renesas/e2_studio/toolchains/gcc_arm/gcc-arm-none-eabi-6-2017-q2-update/arm-none-eabi/include/c++/6.3.1/streambuf ****        *  __c.
 370:/home/zkmike/.local/share/renesas/e2_studio/toolchains/gcc_arm/gcc-arm-none-eabi-6-2017-q2-update/arm-none-eabi/include/c++/6.3.1/streambuf ****       */
 371:/home/zkmike/.local/share/renesas/e2_studio/toolchains/gcc_arm/gcc-arm-none-eabi-6-2017-q2-update/arm-none-eabi/include/c++/6.3.1/streambuf ****       int_type
 372:/home/zkmike/.local/share/renesas/e2_studio/toolchains/gcc_arm/gcc-arm-none-eabi-6-2017-q2-update/arm-none-eabi/include/c++/6.3.1/streambuf ****       sputbackc(char_type __c)
 373:/home/zkmike/.local/share/renesas/e2_studio/toolchains/gcc_arm/gcc-arm-none-eabi-6-2017-q2-update/arm-none-eabi/include/c++/6.3.1/streambuf ****       {
 374:/home/zkmike/.local/share/renesas/e2_studio/toolchains/gcc_arm/gcc-arm-none-eabi-6-2017-q2-update/arm-none-eabi/include/c++/6.3.1/streambuf **** 	int_type __ret;
 375:/home/zkmike/.local/share/renesas/e2_studio/toolchains/gcc_arm/gcc-arm-none-eabi-6-2017-q2-update/arm-none-eabi/include/c++/6.3.1/streambuf **** 	const bool __testpos = this->eback() < this->gptr();
 376:/home/zkmike/.local/share/renesas/e2_studio/toolchains/gcc_arm/gcc-arm-none-eabi-6-2017-q2-update/arm-none-eabi/include/c++/6.3.1/streambuf **** 	if (__builtin_expect(!__testpos ||
 377:/home/zkmike/.local/share/renesas/e2_studio/toolchains/gcc_arm/gcc-arm-none-eabi-6-2017-q2-update/arm-none-eabi/include/c++/6.3.1/streambuf **** 			     !traits_type::eq(__c, this->gptr()[-1]), false))
 378:/home/zkmike/.local/share/renesas/e2_studio/toolchains/gcc_arm/gcc-arm-none-eabi-6-2017-q2-update/arm-none-eabi/include/c++/6.3.1/streambuf **** 	  __ret = this->pbackfail(traits_type::to_int_type(__c));
 379:/home/zkmike/.local/share/renesas/e2_studio/toolchains/gcc_arm/gcc-arm-none-eabi-6-2017-q2-update/arm-none-eabi/include/c++/6.3.1/streambuf **** 	else
 380:/home/zkmike/.local/share/renesas/e2_studio/toolchains/gcc_arm/gcc-arm-none-eabi-6-2017-q2-update/arm-none-eabi/include/c++/6.3.1/streambuf **** 	  {
 381:/home/zkmike/.local/share/renesas/e2_studio/toolchains/gcc_arm/gcc-arm-none-eabi-6-2017-q2-update/arm-none-eabi/include/c++/6.3.1/streambuf **** 	    this->gbump(-1);
 382:/home/zkmike/.local/share/renesas/e2_studio/toolchains/gcc_arm/gcc-arm-none-eabi-6-2017-q2-update/arm-none-eabi/include/c++/6.3.1/streambuf **** 	    __ret = traits_type::to_int_type(*this->gptr());
 383:/home/zkmike/.local/share/renesas/e2_studio/toolchains/gcc_arm/gcc-arm-none-eabi-6-2017-q2-update/arm-none-eabi/include/c++/6.3.1/streambuf **** 	  }
 384:/home/zkmike/.local/share/renesas/e2_studio/toolchains/gcc_arm/gcc-arm-none-eabi-6-2017-q2-update/arm-none-eabi/include/c++/6.3.1/streambuf **** 	return __ret;
 385:/home/zkmike/.local/share/renesas/e2_studio/toolchains/gcc_arm/gcc-arm-none-eabi-6-2017-q2-update/arm-none-eabi/include/c++/6.3.1/streambuf ****       }
 386:/home/zkmike/.local/share/renesas/e2_studio/toolchains/gcc_arm/gcc-arm-none-eabi-6-2017-q2-update/arm-none-eabi/include/c++/6.3.1/streambuf **** 
 387:/home/zkmike/.local/share/renesas/e2_studio/toolchains/gcc_arm/gcc-arm-none-eabi-6-2017-q2-update/arm-none-eabi/include/c++/6.3.1/streambuf ****       /**
 388:/home/zkmike/.local/share/renesas/e2_studio/toolchains/gcc_arm/gcc-arm-none-eabi-6-2017-q2-update/arm-none-eabi/include/c++/6.3.1/streambuf ****        *  @brief  Moving backwards in the input stream.
 389:/home/zkmike/.local/share/renesas/e2_studio/toolchains/gcc_arm/gcc-arm-none-eabi-6-2017-q2-update/arm-none-eabi/include/c++/6.3.1/streambuf ****        *  @return  The previous character, if possible.
 390:/home/zkmike/.local/share/renesas/e2_studio/toolchains/gcc_arm/gcc-arm-none-eabi-6-2017-q2-update/arm-none-eabi/include/c++/6.3.1/streambuf ****        *
 391:/home/zkmike/.local/share/renesas/e2_studio/toolchains/gcc_arm/gcc-arm-none-eabi-6-2017-q2-update/arm-none-eabi/include/c++/6.3.1/streambuf ****        *  If a putback position is available, this function decrements
 392:/home/zkmike/.local/share/renesas/e2_studio/toolchains/gcc_arm/gcc-arm-none-eabi-6-2017-q2-update/arm-none-eabi/include/c++/6.3.1/streambuf ****        *  the input pointer and returns that character.  Otherwise,
 393:/home/zkmike/.local/share/renesas/e2_studio/toolchains/gcc_arm/gcc-arm-none-eabi-6-2017-q2-update/arm-none-eabi/include/c++/6.3.1/streambuf ****        *  calls and returns pbackfail().  The effect is to @a unget
 394:/home/zkmike/.local/share/renesas/e2_studio/toolchains/gcc_arm/gcc-arm-none-eabi-6-2017-q2-update/arm-none-eabi/include/c++/6.3.1/streambuf ****        *  the last character @a gotten.
 395:/home/zkmike/.local/share/renesas/e2_studio/toolchains/gcc_arm/gcc-arm-none-eabi-6-2017-q2-update/arm-none-eabi/include/c++/6.3.1/streambuf ****       */
 396:/home/zkmike/.local/share/renesas/e2_studio/toolchains/gcc_arm/gcc-arm-none-eabi-6-2017-q2-update/arm-none-eabi/include/c++/6.3.1/streambuf ****       int_type
 397:/home/zkmike/.local/share/renesas/e2_studio/toolchains/gcc_arm/gcc-arm-none-eabi-6-2017-q2-update/arm-none-eabi/include/c++/6.3.1/streambuf ****       sungetc()
 398:/home/zkmike/.local/share/renesas/e2_studio/toolchains/gcc_arm/gcc-arm-none-eabi-6-2017-q2-update/arm-none-eabi/include/c++/6.3.1/streambuf ****       {
 399:/home/zkmike/.local/share/renesas/e2_studio/toolchains/gcc_arm/gcc-arm-none-eabi-6-2017-q2-update/arm-none-eabi/include/c++/6.3.1/streambuf **** 	int_type __ret;
 400:/home/zkmike/.local/share/renesas/e2_studio/toolchains/gcc_arm/gcc-arm-none-eabi-6-2017-q2-update/arm-none-eabi/include/c++/6.3.1/streambuf **** 	if (__builtin_expect(this->eback() < this->gptr(), true))
 401:/home/zkmike/.local/share/renesas/e2_studio/toolchains/gcc_arm/gcc-arm-none-eabi-6-2017-q2-update/arm-none-eabi/include/c++/6.3.1/streambuf **** 	  {
 402:/home/zkmike/.local/share/renesas/e2_studio/toolchains/gcc_arm/gcc-arm-none-eabi-6-2017-q2-update/arm-none-eabi/include/c++/6.3.1/streambuf **** 	    this->gbump(-1);
 403:/home/zkmike/.local/share/renesas/e2_studio/toolchains/gcc_arm/gcc-arm-none-eabi-6-2017-q2-update/arm-none-eabi/include/c++/6.3.1/streambuf **** 	    __ret = traits_type::to_int_type(*this->gptr());
 404:/home/zkmike/.local/share/renesas/e2_studio/toolchains/gcc_arm/gcc-arm-none-eabi-6-2017-q2-update/arm-none-eabi/include/c++/6.3.1/streambuf **** 	  }
 405:/home/zkmike/.local/share/renesas/e2_studio/toolchains/gcc_arm/gcc-arm-none-eabi-6-2017-q2-update/arm-none-eabi/include/c++/6.3.1/streambuf **** 	else
 406:/home/zkmike/.local/share/renesas/e2_studio/toolchains/gcc_arm/gcc-arm-none-eabi-6-2017-q2-update/arm-none-eabi/include/c++/6.3.1/streambuf **** 	  __ret = this->pbackfail();
 407:/home/zkmike/.local/share/renesas/e2_studio/toolchains/gcc_arm/gcc-arm-none-eabi-6-2017-q2-update/arm-none-eabi/include/c++/6.3.1/streambuf **** 	return __ret;
 408:/home/zkmike/.local/share/renesas/e2_studio/toolchains/gcc_arm/gcc-arm-none-eabi-6-2017-q2-update/arm-none-eabi/include/c++/6.3.1/streambuf ****       }
 409:/home/zkmike/.local/share/renesas/e2_studio/toolchains/gcc_arm/gcc-arm-none-eabi-6-2017-q2-update/arm-none-eabi/include/c++/6.3.1/streambuf **** 
 410:/home/zkmike/.local/share/renesas/e2_studio/toolchains/gcc_arm/gcc-arm-none-eabi-6-2017-q2-update/arm-none-eabi/include/c++/6.3.1/streambuf ****       // [27.5.2.2.5] put area
 411:/home/zkmike/.local/share/renesas/e2_studio/toolchains/gcc_arm/gcc-arm-none-eabi-6-2017-q2-update/arm-none-eabi/include/c++/6.3.1/streambuf ****       /**
 412:/home/zkmike/.local/share/renesas/e2_studio/toolchains/gcc_arm/gcc-arm-none-eabi-6-2017-q2-update/arm-none-eabi/include/c++/6.3.1/streambuf ****        *  @brief  Entry point for all single-character output functions.
 413:/home/zkmike/.local/share/renesas/e2_studio/toolchains/gcc_arm/gcc-arm-none-eabi-6-2017-q2-update/arm-none-eabi/include/c++/6.3.1/streambuf ****        *  @param  __c  A character to output.
 414:/home/zkmike/.local/share/renesas/e2_studio/toolchains/gcc_arm/gcc-arm-none-eabi-6-2017-q2-update/arm-none-eabi/include/c++/6.3.1/streambuf ****        *  @return  @a __c, if possible.
 415:/home/zkmike/.local/share/renesas/e2_studio/toolchains/gcc_arm/gcc-arm-none-eabi-6-2017-q2-update/arm-none-eabi/include/c++/6.3.1/streambuf ****        *
 416:/home/zkmike/.local/share/renesas/e2_studio/toolchains/gcc_arm/gcc-arm-none-eabi-6-2017-q2-update/arm-none-eabi/include/c++/6.3.1/streambuf ****        *  One of two public output functions.
 417:/home/zkmike/.local/share/renesas/e2_studio/toolchains/gcc_arm/gcc-arm-none-eabi-6-2017-q2-update/arm-none-eabi/include/c++/6.3.1/streambuf ****        *
 418:/home/zkmike/.local/share/renesas/e2_studio/toolchains/gcc_arm/gcc-arm-none-eabi-6-2017-q2-update/arm-none-eabi/include/c++/6.3.1/streambuf ****        *  If a write position is available for the output sequence (i.e.,
 419:/home/zkmike/.local/share/renesas/e2_studio/toolchains/gcc_arm/gcc-arm-none-eabi-6-2017-q2-update/arm-none-eabi/include/c++/6.3.1/streambuf ****        *  the buffer is not full), stores @a __c in that position, increments
 420:/home/zkmike/.local/share/renesas/e2_studio/toolchains/gcc_arm/gcc-arm-none-eabi-6-2017-q2-update/arm-none-eabi/include/c++/6.3.1/streambuf ****        *  the position, and returns @c traits::to_int_type(__c).  If a write
 421:/home/zkmike/.local/share/renesas/e2_studio/toolchains/gcc_arm/gcc-arm-none-eabi-6-2017-q2-update/arm-none-eabi/include/c++/6.3.1/streambuf ****        *  position is not available, returns @c overflow(__c).
 422:/home/zkmike/.local/share/renesas/e2_studio/toolchains/gcc_arm/gcc-arm-none-eabi-6-2017-q2-update/arm-none-eabi/include/c++/6.3.1/streambuf ****       */
 423:/home/zkmike/.local/share/renesas/e2_studio/toolchains/gcc_arm/gcc-arm-none-eabi-6-2017-q2-update/arm-none-eabi/include/c++/6.3.1/streambuf ****       int_type
 424:/home/zkmike/.local/share/renesas/e2_studio/toolchains/gcc_arm/gcc-arm-none-eabi-6-2017-q2-update/arm-none-eabi/include/c++/6.3.1/streambuf ****       sputc(char_type __c)
 425:/home/zkmike/.local/share/renesas/e2_studio/toolchains/gcc_arm/gcc-arm-none-eabi-6-2017-q2-update/arm-none-eabi/include/c++/6.3.1/streambuf ****       {
 426:/home/zkmike/.local/share/renesas/e2_studio/toolchains/gcc_arm/gcc-arm-none-eabi-6-2017-q2-update/arm-none-eabi/include/c++/6.3.1/streambuf **** 	int_type __ret;
 427:/home/zkmike/.local/share/renesas/e2_studio/toolchains/gcc_arm/gcc-arm-none-eabi-6-2017-q2-update/arm-none-eabi/include/c++/6.3.1/streambuf **** 	if (__builtin_expect(this->pptr() < this->epptr(), true))
 428:/home/zkmike/.local/share/renesas/e2_studio/toolchains/gcc_arm/gcc-arm-none-eabi-6-2017-q2-update/arm-none-eabi/include/c++/6.3.1/streambuf **** 	  {
 429:/home/zkmike/.local/share/renesas/e2_studio/toolchains/gcc_arm/gcc-arm-none-eabi-6-2017-q2-update/arm-none-eabi/include/c++/6.3.1/streambuf **** 	    *this->pptr() = __c;
 430:/home/zkmike/.local/share/renesas/e2_studio/toolchains/gcc_arm/gcc-arm-none-eabi-6-2017-q2-update/arm-none-eabi/include/c++/6.3.1/streambuf **** 	    this->pbump(1);
 431:/home/zkmike/.local/share/renesas/e2_studio/toolchains/gcc_arm/gcc-arm-none-eabi-6-2017-q2-update/arm-none-eabi/include/c++/6.3.1/streambuf **** 	    __ret = traits_type::to_int_type(__c);
 432:/home/zkmike/.local/share/renesas/e2_studio/toolchains/gcc_arm/gcc-arm-none-eabi-6-2017-q2-update/arm-none-eabi/include/c++/6.3.1/streambuf **** 	  }
 433:/home/zkmike/.local/share/renesas/e2_studio/toolchains/gcc_arm/gcc-arm-none-eabi-6-2017-q2-update/arm-none-eabi/include/c++/6.3.1/streambuf **** 	else
 434:/home/zkmike/.local/share/renesas/e2_studio/toolchains/gcc_arm/gcc-arm-none-eabi-6-2017-q2-update/arm-none-eabi/include/c++/6.3.1/streambuf **** 	  __ret = this->overflow(traits_type::to_int_type(__c));
 435:/home/zkmike/.local/share/renesas/e2_studio/toolchains/gcc_arm/gcc-arm-none-eabi-6-2017-q2-update/arm-none-eabi/include/c++/6.3.1/streambuf **** 	return __ret;
 436:/home/zkmike/.local/share/renesas/e2_studio/toolchains/gcc_arm/gcc-arm-none-eabi-6-2017-q2-update/arm-none-eabi/include/c++/6.3.1/streambuf ****       }
 437:/home/zkmike/.local/share/renesas/e2_studio/toolchains/gcc_arm/gcc-arm-none-eabi-6-2017-q2-update/arm-none-eabi/include/c++/6.3.1/streambuf **** 
 438:/home/zkmike/.local/share/renesas/e2_studio/toolchains/gcc_arm/gcc-arm-none-eabi-6-2017-q2-update/arm-none-eabi/include/c++/6.3.1/streambuf ****       /**
 439:/home/zkmike/.local/share/renesas/e2_studio/toolchains/gcc_arm/gcc-arm-none-eabi-6-2017-q2-update/arm-none-eabi/include/c++/6.3.1/streambuf ****        *  @brief  Entry point for all single-character output functions.
 440:/home/zkmike/.local/share/renesas/e2_studio/toolchains/gcc_arm/gcc-arm-none-eabi-6-2017-q2-update/arm-none-eabi/include/c++/6.3.1/streambuf ****        *  @param  __s  A buffer read area.
 441:/home/zkmike/.local/share/renesas/e2_studio/toolchains/gcc_arm/gcc-arm-none-eabi-6-2017-q2-update/arm-none-eabi/include/c++/6.3.1/streambuf ****        *  @param  __n  A count.
 442:/home/zkmike/.local/share/renesas/e2_studio/toolchains/gcc_arm/gcc-arm-none-eabi-6-2017-q2-update/arm-none-eabi/include/c++/6.3.1/streambuf ****        *
 443:/home/zkmike/.local/share/renesas/e2_studio/toolchains/gcc_arm/gcc-arm-none-eabi-6-2017-q2-update/arm-none-eabi/include/c++/6.3.1/streambuf ****        *  One of two public output functions.
 444:/home/zkmike/.local/share/renesas/e2_studio/toolchains/gcc_arm/gcc-arm-none-eabi-6-2017-q2-update/arm-none-eabi/include/c++/6.3.1/streambuf ****        *
 445:/home/zkmike/.local/share/renesas/e2_studio/toolchains/gcc_arm/gcc-arm-none-eabi-6-2017-q2-update/arm-none-eabi/include/c++/6.3.1/streambuf ****        *
 446:/home/zkmike/.local/share/renesas/e2_studio/toolchains/gcc_arm/gcc-arm-none-eabi-6-2017-q2-update/arm-none-eabi/include/c++/6.3.1/streambuf ****        *  Returns xsputn(__s,__n).  The effect is to write @a __s[0] through
 447:/home/zkmike/.local/share/renesas/e2_studio/toolchains/gcc_arm/gcc-arm-none-eabi-6-2017-q2-update/arm-none-eabi/include/c++/6.3.1/streambuf ****        *  @a __s[__n-1] to the output sequence, if possible.
 448:/home/zkmike/.local/share/renesas/e2_studio/toolchains/gcc_arm/gcc-arm-none-eabi-6-2017-q2-update/arm-none-eabi/include/c++/6.3.1/streambuf ****       */
 449:/home/zkmike/.local/share/renesas/e2_studio/toolchains/gcc_arm/gcc-arm-none-eabi-6-2017-q2-update/arm-none-eabi/include/c++/6.3.1/streambuf ****       streamsize
 450:/home/zkmike/.local/share/renesas/e2_studio/toolchains/gcc_arm/gcc-arm-none-eabi-6-2017-q2-update/arm-none-eabi/include/c++/6.3.1/streambuf ****       sputn(const char_type* __s, streamsize __n)
 451:/home/zkmike/.local/share/renesas/e2_studio/toolchains/gcc_arm/gcc-arm-none-eabi-6-2017-q2-update/arm-none-eabi/include/c++/6.3.1/streambuf ****       { return this->xsputn(__s, __n); }
 452:/home/zkmike/.local/share/renesas/e2_studio/toolchains/gcc_arm/gcc-arm-none-eabi-6-2017-q2-update/arm-none-eabi/include/c++/6.3.1/streambuf **** 
 453:/home/zkmike/.local/share/renesas/e2_studio/toolchains/gcc_arm/gcc-arm-none-eabi-6-2017-q2-update/arm-none-eabi/include/c++/6.3.1/streambuf ****     protected:
 454:/home/zkmike/.local/share/renesas/e2_studio/toolchains/gcc_arm/gcc-arm-none-eabi-6-2017-q2-update/arm-none-eabi/include/c++/6.3.1/streambuf ****       /**
 455:/home/zkmike/.local/share/renesas/e2_studio/toolchains/gcc_arm/gcc-arm-none-eabi-6-2017-q2-update/arm-none-eabi/include/c++/6.3.1/streambuf ****        *  @brief  Base constructor.
 456:/home/zkmike/.local/share/renesas/e2_studio/toolchains/gcc_arm/gcc-arm-none-eabi-6-2017-q2-update/arm-none-eabi/include/c++/6.3.1/streambuf ****        *
 457:/home/zkmike/.local/share/renesas/e2_studio/toolchains/gcc_arm/gcc-arm-none-eabi-6-2017-q2-update/arm-none-eabi/include/c++/6.3.1/streambuf ****        *  Only called from derived constructors, and sets up all the
 458:/home/zkmike/.local/share/renesas/e2_studio/toolchains/gcc_arm/gcc-arm-none-eabi-6-2017-q2-update/arm-none-eabi/include/c++/6.3.1/streambuf ****        *  buffer data to zero, including the pointers described in the
 459:/home/zkmike/.local/share/renesas/e2_studio/toolchains/gcc_arm/gcc-arm-none-eabi-6-2017-q2-update/arm-none-eabi/include/c++/6.3.1/streambuf ****        *  basic_streambuf class description.  Note that, as a result,
 460:/home/zkmike/.local/share/renesas/e2_studio/toolchains/gcc_arm/gcc-arm-none-eabi-6-2017-q2-update/arm-none-eabi/include/c++/6.3.1/streambuf ****        *  - the class starts with no read nor write positions available,
 461:/home/zkmike/.local/share/renesas/e2_studio/toolchains/gcc_arm/gcc-arm-none-eabi-6-2017-q2-update/arm-none-eabi/include/c++/6.3.1/streambuf ****        *  - this is not an error
 462:/home/zkmike/.local/share/renesas/e2_studio/toolchains/gcc_arm/gcc-arm-none-eabi-6-2017-q2-update/arm-none-eabi/include/c++/6.3.1/streambuf ****       */
 463:/home/zkmike/.local/share/renesas/e2_studio/toolchains/gcc_arm/gcc-arm-none-eabi-6-2017-q2-update/arm-none-eabi/include/c++/6.3.1/streambuf ****       basic_streambuf()
 464:/home/zkmike/.local/share/renesas/e2_studio/toolchains/gcc_arm/gcc-arm-none-eabi-6-2017-q2-update/arm-none-eabi/include/c++/6.3.1/streambuf ****       : _M_in_beg(0), _M_in_cur(0), _M_in_end(0),
 465:/home/zkmike/.local/share/renesas/e2_studio/toolchains/gcc_arm/gcc-arm-none-eabi-6-2017-q2-update/arm-none-eabi/include/c++/6.3.1/streambuf ****       _M_out_beg(0), _M_out_cur(0), _M_out_end(0),
 466:/home/zkmike/.local/share/renesas/e2_studio/toolchains/gcc_arm/gcc-arm-none-eabi-6-2017-q2-update/arm-none-eabi/include/c++/6.3.1/streambuf ****       _M_buf_locale(locale())
 1708              		.loc 8 466 0
 1709 0124 04339FE5 		ldr	r3, .L148+8
 1710 0128 04308DE5 		str	r3, [sp, #4]
 1711 012c 0050A0E3 		mov	r5, #0
 1712 0130 08508DE5 		str	r5, [sp, #8]
 1713 0134 0C508DE5 		str	r5, [sp, #12]
 1714 0138 10508DE5 		str	r5, [sp, #16]
 1715 013c 14508DE5 		str	r5, [sp, #20]
 1716 0140 18508DE5 		str	r5, [sp, #24]
 1717 0144 1C508DE5 		str	r5, [sp, #28]
 1718 0148 20008DE2 		add	r0, sp, #32
 1719 014c FEFFFFEB 		bl	_ZNSt6localeC1Ev
 1720              	.LVL165:
 1721              	.LBE1213:
 1722              	.LBE1212:
 1723              	.LBE1211:
 101:/home/zkmike/.local/share/renesas/e2_studio/toolchains/gcc_arm/gcc-arm-none-eabi-6-2017-q2-update/arm-none-eabi/include/c++/6.3.1/sstream ****       { }
 1724              		.loc 7 101 0
 1725 0150 DC329FE5 		ldr	r3, .L148+12
 1726 0154 04308DE5 		str	r3, [sp, #4]
 1727 0158 1030A0E3 		mov	r3, #16
 1728 015c 24308DE5 		str	r3, [sp, #36]
 1729              	.LVL166:
 1730              	.LBB1214:
 1731              	.LBB1215:
 1732              	.LBB1216:
 1733              	.LBB1217:
 1734              	.LBB1218:
 110:/home/zkmike/.local/share/renesas/e2_studio/toolchains/gcc_arm/gcc-arm-none-eabi-6-2017-q2-update/arm-none-eabi/include/c++/6.3.1/bits/basic_string.h **** 
 1735              		.loc 3 110 0
 1736 0160 30308DE2 		add	r3, sp, #48
 1737              	.LVL167:
 1738 0164 28308DE5 		str	r3, [sp, #40]
 1739              	.LVL168:
 1740              	.LBE1218:
 1741              	.LBE1217:
 1742              	.LBE1216:
 1743              	.LBB1219:
 1744              	.LBB1220:
 1745              	.LBB1221:
 132:/home/zkmike/.local/share/renesas/e2_studio/toolchains/gcc_arm/gcc-arm-none-eabi-6-2017-q2-update/arm-none-eabi/include/c++/6.3.1/bits/basic_string.h **** 
 1746              		.loc 3 132 0
 1747 0168 2C508DE5 		str	r5, [sp, #44]
 1748              	.LVL169:
 1749              	.LBE1221:
 1750              	.LBE1220:
 1751              	.LBB1222:
 1752              	.LBB1223:
 243:/home/zkmike/.local/share/renesas/e2_studio/toolchains/gcc_arm/gcc-arm-none-eabi-6-2017-q2-update/arm-none-eabi/include/c++/6.3.1/bits/char_traits.h **** 
 1753              		.loc 11 243 0
 1754 016c 3050CDE5 		strb	r5, [sp, #48]
 1755              	.LVL170:
 1756              	.LBE1223:
 1757              	.LBE1222:
 1758              	.LBE1219:
 1759              	.LBE1215:
 1760              	.LBE1214:
 1761              	.LBE1210:
 1762              	.LBE1209:
 1763              	.LBE1208:
 549:/home/zkmike/.local/share/renesas/e2_studio/toolchains/gcc_arm/gcc-arm-none-eabi-6-2017-q2-update/arm-none-eabi/include/c++/6.3.1/sstream ****       { this->init(&_M_stringbuf); }
 1764              		.loc 7 549 0
 1765 0170 04108DE2 		add	r1, sp, #4
 1766 0174 40008DE2 		add	r0, sp, #64
 1767              	.LEHB9:
 1768 0178 FEFFFFEB 		bl	_ZNSt9basic_iosIcSt11char_traitsIcEE4initEPSt15basic_streambufIcS1_E
 1769              	.LVL171:
 1770              	.LEHE9:
 1771              	.LBE1202:
 1772              	.LBE1201:
 1773              	.LBE1200:
 1774              	.LBB1230:
 1775              	.LBB1231:
 386:/home/zkmike/.local/share/renesas/e2_studio/toolchains/gcc_arm/gcc-arm-none-eabi-6-2017-q2-update/arm-none-eabi/include/c++/6.3.1/ostream **** 
 387:/home/zkmike/.local/share/renesas/e2_studio/toolchains/gcc_arm/gcc-arm-none-eabi-6-2017-q2-update/arm-none-eabi/include/c++/6.3.1/ostream **** #if __cplusplus >= 201103L
 388:/home/zkmike/.local/share/renesas/e2_studio/toolchains/gcc_arm/gcc-arm-none-eabi-6-2017-q2-update/arm-none-eabi/include/c++/6.3.1/ostream ****       // Non-standard constructor that does not call init()
 389:/home/zkmike/.local/share/renesas/e2_studio/toolchains/gcc_arm/gcc-arm-none-eabi-6-2017-q2-update/arm-none-eabi/include/c++/6.3.1/ostream ****       basic_ostream(basic_iostream<_CharT, _Traits>&) { }
 390:/home/zkmike/.local/share/renesas/e2_studio/toolchains/gcc_arm/gcc-arm-none-eabi-6-2017-q2-update/arm-none-eabi/include/c++/6.3.1/ostream **** 
 391:/home/zkmike/.local/share/renesas/e2_studio/toolchains/gcc_arm/gcc-arm-none-eabi-6-2017-q2-update/arm-none-eabi/include/c++/6.3.1/ostream ****       basic_ostream(const basic_ostream&) = delete;
 392:/home/zkmike/.local/share/renesas/e2_studio/toolchains/gcc_arm/gcc-arm-none-eabi-6-2017-q2-update/arm-none-eabi/include/c++/6.3.1/ostream **** 
 393:/home/zkmike/.local/share/renesas/e2_studio/toolchains/gcc_arm/gcc-arm-none-eabi-6-2017-q2-update/arm-none-eabi/include/c++/6.3.1/ostream ****       basic_ostream(basic_ostream&& __rhs)
 394:/home/zkmike/.local/share/renesas/e2_studio/toolchains/gcc_arm/gcc-arm-none-eabi-6-2017-q2-update/arm-none-eabi/include/c++/6.3.1/ostream ****       : __ios_type()
 395:/home/zkmike/.local/share/renesas/e2_studio/toolchains/gcc_arm/gcc-arm-none-eabi-6-2017-q2-update/arm-none-eabi/include/c++/6.3.1/ostream ****       { __ios_type::move(__rhs); }
 396:/home/zkmike/.local/share/renesas/e2_studio/toolchains/gcc_arm/gcc-arm-none-eabi-6-2017-q2-update/arm-none-eabi/include/c++/6.3.1/ostream **** 
 397:/home/zkmike/.local/share/renesas/e2_studio/toolchains/gcc_arm/gcc-arm-none-eabi-6-2017-q2-update/arm-none-eabi/include/c++/6.3.1/ostream ****       // 27.7.3.3 Assign/swap
 398:/home/zkmike/.local/share/renesas/e2_studio/toolchains/gcc_arm/gcc-arm-none-eabi-6-2017-q2-update/arm-none-eabi/include/c++/6.3.1/ostream **** 
 399:/home/zkmike/.local/share/renesas/e2_studio/toolchains/gcc_arm/gcc-arm-none-eabi-6-2017-q2-update/arm-none-eabi/include/c++/6.3.1/ostream ****       basic_ostream& operator=(const basic_ostream&) = delete;
 400:/home/zkmike/.local/share/renesas/e2_studio/toolchains/gcc_arm/gcc-arm-none-eabi-6-2017-q2-update/arm-none-eabi/include/c++/6.3.1/ostream **** 
 401:/home/zkmike/.local/share/renesas/e2_studio/toolchains/gcc_arm/gcc-arm-none-eabi-6-2017-q2-update/arm-none-eabi/include/c++/6.3.1/ostream ****       basic_ostream&
 402:/home/zkmike/.local/share/renesas/e2_studio/toolchains/gcc_arm/gcc-arm-none-eabi-6-2017-q2-update/arm-none-eabi/include/c++/6.3.1/ostream ****       operator=(basic_ostream&& __rhs)
 403:/home/zkmike/.local/share/renesas/e2_studio/toolchains/gcc_arm/gcc-arm-none-eabi-6-2017-q2-update/arm-none-eabi/include/c++/6.3.1/ostream ****       {
 404:/home/zkmike/.local/share/renesas/e2_studio/toolchains/gcc_arm/gcc-arm-none-eabi-6-2017-q2-update/arm-none-eabi/include/c++/6.3.1/ostream **** 	swap(__rhs);
 405:/home/zkmike/.local/share/renesas/e2_studio/toolchains/gcc_arm/gcc-arm-none-eabi-6-2017-q2-update/arm-none-eabi/include/c++/6.3.1/ostream **** 	return *this;
 406:/home/zkmike/.local/share/renesas/e2_studio/toolchains/gcc_arm/gcc-arm-none-eabi-6-2017-q2-update/arm-none-eabi/include/c++/6.3.1/ostream ****       }
 407:/home/zkmike/.local/share/renesas/e2_studio/toolchains/gcc_arm/gcc-arm-none-eabi-6-2017-q2-update/arm-none-eabi/include/c++/6.3.1/ostream **** 
 408:/home/zkmike/.local/share/renesas/e2_studio/toolchains/gcc_arm/gcc-arm-none-eabi-6-2017-q2-update/arm-none-eabi/include/c++/6.3.1/ostream ****       void
 409:/home/zkmike/.local/share/renesas/e2_studio/toolchains/gcc_arm/gcc-arm-none-eabi-6-2017-q2-update/arm-none-eabi/include/c++/6.3.1/ostream ****       swap(basic_ostream& __rhs)
 410:/home/zkmike/.local/share/renesas/e2_studio/toolchains/gcc_arm/gcc-arm-none-eabi-6-2017-q2-update/arm-none-eabi/include/c++/6.3.1/ostream ****       { __ios_type::swap(__rhs); }
 411:/home/zkmike/.local/share/renesas/e2_studio/toolchains/gcc_arm/gcc-arm-none-eabi-6-2017-q2-update/arm-none-eabi/include/c++/6.3.1/ostream **** #endif
 412:/home/zkmike/.local/share/renesas/e2_studio/toolchains/gcc_arm/gcc-arm-none-eabi-6-2017-q2-update/arm-none-eabi/include/c++/6.3.1/ostream **** 
 413:/home/zkmike/.local/share/renesas/e2_studio/toolchains/gcc_arm/gcc-arm-none-eabi-6-2017-q2-update/arm-none-eabi/include/c++/6.3.1/ostream ****       template<typename _ValueT>
 414:/home/zkmike/.local/share/renesas/e2_studio/toolchains/gcc_arm/gcc-arm-none-eabi-6-2017-q2-update/arm-none-eabi/include/c++/6.3.1/ostream **** 	__ostream_type&
 415:/home/zkmike/.local/share/renesas/e2_studio/toolchains/gcc_arm/gcc-arm-none-eabi-6-2017-q2-update/arm-none-eabi/include/c++/6.3.1/ostream **** 	_M_insert(_ValueT __v);
 416:/home/zkmike/.local/share/renesas/e2_studio/toolchains/gcc_arm/gcc-arm-none-eabi-6-2017-q2-update/arm-none-eabi/include/c++/6.3.1/ostream ****     };
 417:/home/zkmike/.local/share/renesas/e2_studio/toolchains/gcc_arm/gcc-arm-none-eabi-6-2017-q2-update/arm-none-eabi/include/c++/6.3.1/ostream **** 
 418:/home/zkmike/.local/share/renesas/e2_studio/toolchains/gcc_arm/gcc-arm-none-eabi-6-2017-q2-update/arm-none-eabi/include/c++/6.3.1/ostream ****   /**
 419:/home/zkmike/.local/share/renesas/e2_studio/toolchains/gcc_arm/gcc-arm-none-eabi-6-2017-q2-update/arm-none-eabi/include/c++/6.3.1/ostream ****    *  @brief  Performs setup work for output streams.
 420:/home/zkmike/.local/share/renesas/e2_studio/toolchains/gcc_arm/gcc-arm-none-eabi-6-2017-q2-update/arm-none-eabi/include/c++/6.3.1/ostream ****    *
 421:/home/zkmike/.local/share/renesas/e2_studio/toolchains/gcc_arm/gcc-arm-none-eabi-6-2017-q2-update/arm-none-eabi/include/c++/6.3.1/ostream ****    *  Objects of this class are created before all of the standard
 422:/home/zkmike/.local/share/renesas/e2_studio/toolchains/gcc_arm/gcc-arm-none-eabi-6-2017-q2-update/arm-none-eabi/include/c++/6.3.1/ostream ****    *  inserters are run.  It is responsible for <em>exception-safe prefix and
 423:/home/zkmike/.local/share/renesas/e2_studio/toolchains/gcc_arm/gcc-arm-none-eabi-6-2017-q2-update/arm-none-eabi/include/c++/6.3.1/ostream ****    *  suffix operations</em>.
 424:/home/zkmike/.local/share/renesas/e2_studio/toolchains/gcc_arm/gcc-arm-none-eabi-6-2017-q2-update/arm-none-eabi/include/c++/6.3.1/ostream ****   */
 425:/home/zkmike/.local/share/renesas/e2_studio/toolchains/gcc_arm/gcc-arm-none-eabi-6-2017-q2-update/arm-none-eabi/include/c++/6.3.1/ostream ****   template <typename _CharT, typename _Traits>
 426:/home/zkmike/.local/share/renesas/e2_studio/toolchains/gcc_arm/gcc-arm-none-eabi-6-2017-q2-update/arm-none-eabi/include/c++/6.3.1/ostream ****     class basic_ostream<_CharT, _Traits>::sentry
 427:/home/zkmike/.local/share/renesas/e2_studio/toolchains/gcc_arm/gcc-arm-none-eabi-6-2017-q2-update/arm-none-eabi/include/c++/6.3.1/ostream ****     {
 428:/home/zkmike/.local/share/renesas/e2_studio/toolchains/gcc_arm/gcc-arm-none-eabi-6-2017-q2-update/arm-none-eabi/include/c++/6.3.1/ostream ****       // Data Members.
 429:/home/zkmike/.local/share/renesas/e2_studio/toolchains/gcc_arm/gcc-arm-none-eabi-6-2017-q2-update/arm-none-eabi/include/c++/6.3.1/ostream ****       bool 				_M_ok;
 430:/home/zkmike/.local/share/renesas/e2_studio/toolchains/gcc_arm/gcc-arm-none-eabi-6-2017-q2-update/arm-none-eabi/include/c++/6.3.1/ostream ****       basic_ostream<_CharT, _Traits>& 	_M_os;
 431:/home/zkmike/.local/share/renesas/e2_studio/toolchains/gcc_arm/gcc-arm-none-eabi-6-2017-q2-update/arm-none-eabi/include/c++/6.3.1/ostream **** 
 432:/home/zkmike/.local/share/renesas/e2_studio/toolchains/gcc_arm/gcc-arm-none-eabi-6-2017-q2-update/arm-none-eabi/include/c++/6.3.1/ostream ****     public:
 433:/home/zkmike/.local/share/renesas/e2_studio/toolchains/gcc_arm/gcc-arm-none-eabi-6-2017-q2-update/arm-none-eabi/include/c++/6.3.1/ostream ****       /**
 434:/home/zkmike/.local/share/renesas/e2_studio/toolchains/gcc_arm/gcc-arm-none-eabi-6-2017-q2-update/arm-none-eabi/include/c++/6.3.1/ostream ****        *  @brief  The constructor performs preparatory work.
 435:/home/zkmike/.local/share/renesas/e2_studio/toolchains/gcc_arm/gcc-arm-none-eabi-6-2017-q2-update/arm-none-eabi/include/c++/6.3.1/ostream ****        *  @param  __os  The output stream to guard.
 436:/home/zkmike/.local/share/renesas/e2_studio/toolchains/gcc_arm/gcc-arm-none-eabi-6-2017-q2-update/arm-none-eabi/include/c++/6.3.1/ostream ****        *
 437:/home/zkmike/.local/share/renesas/e2_studio/toolchains/gcc_arm/gcc-arm-none-eabi-6-2017-q2-update/arm-none-eabi/include/c++/6.3.1/ostream ****        *  If the stream state is good (@a __os.good() is true), then if the
 438:/home/zkmike/.local/share/renesas/e2_studio/toolchains/gcc_arm/gcc-arm-none-eabi-6-2017-q2-update/arm-none-eabi/include/c++/6.3.1/ostream ****        *  stream is tied to another output stream, @c is.tie()->flush()
 439:/home/zkmike/.local/share/renesas/e2_studio/toolchains/gcc_arm/gcc-arm-none-eabi-6-2017-q2-update/arm-none-eabi/include/c++/6.3.1/ostream ****        *  is called to synchronize the output sequences.
 440:/home/zkmike/.local/share/renesas/e2_studio/toolchains/gcc_arm/gcc-arm-none-eabi-6-2017-q2-update/arm-none-eabi/include/c++/6.3.1/ostream ****        *
 441:/home/zkmike/.local/share/renesas/e2_studio/toolchains/gcc_arm/gcc-arm-none-eabi-6-2017-q2-update/arm-none-eabi/include/c++/6.3.1/ostream ****        *  If the stream state is still good, then the sentry state becomes
 442:/home/zkmike/.local/share/renesas/e2_studio/toolchains/gcc_arm/gcc-arm-none-eabi-6-2017-q2-update/arm-none-eabi/include/c++/6.3.1/ostream ****        *  true (@a okay).
 443:/home/zkmike/.local/share/renesas/e2_studio/toolchains/gcc_arm/gcc-arm-none-eabi-6-2017-q2-update/arm-none-eabi/include/c++/6.3.1/ostream ****       */
 444:/home/zkmike/.local/share/renesas/e2_studio/toolchains/gcc_arm/gcc-arm-none-eabi-6-2017-q2-update/arm-none-eabi/include/c++/6.3.1/ostream ****       explicit
 445:/home/zkmike/.local/share/renesas/e2_studio/toolchains/gcc_arm/gcc-arm-none-eabi-6-2017-q2-update/arm-none-eabi/include/c++/6.3.1/ostream ****       sentry(basic_ostream<_CharT, _Traits>& __os);
 446:/home/zkmike/.local/share/renesas/e2_studio/toolchains/gcc_arm/gcc-arm-none-eabi-6-2017-q2-update/arm-none-eabi/include/c++/6.3.1/ostream **** 
 447:/home/zkmike/.local/share/renesas/e2_studio/toolchains/gcc_arm/gcc-arm-none-eabi-6-2017-q2-update/arm-none-eabi/include/c++/6.3.1/ostream ****       /**
 448:/home/zkmike/.local/share/renesas/e2_studio/toolchains/gcc_arm/gcc-arm-none-eabi-6-2017-q2-update/arm-none-eabi/include/c++/6.3.1/ostream ****        *  @brief  Possibly flushes the stream.
 449:/home/zkmike/.local/share/renesas/e2_studio/toolchains/gcc_arm/gcc-arm-none-eabi-6-2017-q2-update/arm-none-eabi/include/c++/6.3.1/ostream ****        *
 450:/home/zkmike/.local/share/renesas/e2_studio/toolchains/gcc_arm/gcc-arm-none-eabi-6-2017-q2-update/arm-none-eabi/include/c++/6.3.1/ostream ****        *  If @c ios_base::unitbuf is set in @c os.flags(), and
 451:/home/zkmike/.local/share/renesas/e2_studio/toolchains/gcc_arm/gcc-arm-none-eabi-6-2017-q2-update/arm-none-eabi/include/c++/6.3.1/ostream ****        *  @c std::uncaught_exception() is true, the sentry destructor calls
 452:/home/zkmike/.local/share/renesas/e2_studio/toolchains/gcc_arm/gcc-arm-none-eabi-6-2017-q2-update/arm-none-eabi/include/c++/6.3.1/ostream ****        *  @c flush() on the output stream.
 453:/home/zkmike/.local/share/renesas/e2_studio/toolchains/gcc_arm/gcc-arm-none-eabi-6-2017-q2-update/arm-none-eabi/include/c++/6.3.1/ostream ****       */
 454:/home/zkmike/.local/share/renesas/e2_studio/toolchains/gcc_arm/gcc-arm-none-eabi-6-2017-q2-update/arm-none-eabi/include/c++/6.3.1/ostream ****       ~sentry()
 455:/home/zkmike/.local/share/renesas/e2_studio/toolchains/gcc_arm/gcc-arm-none-eabi-6-2017-q2-update/arm-none-eabi/include/c++/6.3.1/ostream ****       {
 456:/home/zkmike/.local/share/renesas/e2_studio/toolchains/gcc_arm/gcc-arm-none-eabi-6-2017-q2-update/arm-none-eabi/include/c++/6.3.1/ostream **** 	// XXX MT
 457:/home/zkmike/.local/share/renesas/e2_studio/toolchains/gcc_arm/gcc-arm-none-eabi-6-2017-q2-update/arm-none-eabi/include/c++/6.3.1/ostream **** 	if (bool(_M_os.flags() & ios_base::unitbuf) && !uncaught_exception())
 458:/home/zkmike/.local/share/renesas/e2_studio/toolchains/gcc_arm/gcc-arm-none-eabi-6-2017-q2-update/arm-none-eabi/include/c++/6.3.1/ostream **** 	  {
 459:/home/zkmike/.local/share/renesas/e2_studio/toolchains/gcc_arm/gcc-arm-none-eabi-6-2017-q2-update/arm-none-eabi/include/c++/6.3.1/ostream **** 	    // Can't call flush directly or else will get into recursive lock.
 460:/home/zkmike/.local/share/renesas/e2_studio/toolchains/gcc_arm/gcc-arm-none-eabi-6-2017-q2-update/arm-none-eabi/include/c++/6.3.1/ostream **** 	    if (_M_os.rdbuf() && _M_os.rdbuf()->pubsync() == -1)
 461:/home/zkmike/.local/share/renesas/e2_studio/toolchains/gcc_arm/gcc-arm-none-eabi-6-2017-q2-update/arm-none-eabi/include/c++/6.3.1/ostream **** 	      _M_os.setstate(ios_base::badbit);
 462:/home/zkmike/.local/share/renesas/e2_studio/toolchains/gcc_arm/gcc-arm-none-eabi-6-2017-q2-update/arm-none-eabi/include/c++/6.3.1/ostream **** 	  }
 463:/home/zkmike/.local/share/renesas/e2_studio/toolchains/gcc_arm/gcc-arm-none-eabi-6-2017-q2-update/arm-none-eabi/include/c++/6.3.1/ostream ****       }
 464:/home/zkmike/.local/share/renesas/e2_studio/toolchains/gcc_arm/gcc-arm-none-eabi-6-2017-q2-update/arm-none-eabi/include/c++/6.3.1/ostream **** 
 465:/home/zkmike/.local/share/renesas/e2_studio/toolchains/gcc_arm/gcc-arm-none-eabi-6-2017-q2-update/arm-none-eabi/include/c++/6.3.1/ostream ****       /**
 466:/home/zkmike/.local/share/renesas/e2_studio/toolchains/gcc_arm/gcc-arm-none-eabi-6-2017-q2-update/arm-none-eabi/include/c++/6.3.1/ostream ****        *  @brief  Quick status checking.
 467:/home/zkmike/.local/share/renesas/e2_studio/toolchains/gcc_arm/gcc-arm-none-eabi-6-2017-q2-update/arm-none-eabi/include/c++/6.3.1/ostream ****        *  @return  The sentry state.
 468:/home/zkmike/.local/share/renesas/e2_studio/toolchains/gcc_arm/gcc-arm-none-eabi-6-2017-q2-update/arm-none-eabi/include/c++/6.3.1/ostream ****        *
 469:/home/zkmike/.local/share/renesas/e2_studio/toolchains/gcc_arm/gcc-arm-none-eabi-6-2017-q2-update/arm-none-eabi/include/c++/6.3.1/ostream ****        *  For ease of use, sentries may be converted to booleans.  The
 470:/home/zkmike/.local/share/renesas/e2_studio/toolchains/gcc_arm/gcc-arm-none-eabi-6-2017-q2-update/arm-none-eabi/include/c++/6.3.1/ostream ****        *  return value is that of the sentry state (true == okay).
 471:/home/zkmike/.local/share/renesas/e2_studio/toolchains/gcc_arm/gcc-arm-none-eabi-6-2017-q2-update/arm-none-eabi/include/c++/6.3.1/ostream ****       */
 472:/home/zkmike/.local/share/renesas/e2_studio/toolchains/gcc_arm/gcc-arm-none-eabi-6-2017-q2-update/arm-none-eabi/include/c++/6.3.1/ostream **** #if __cplusplus >= 201103L
 473:/home/zkmike/.local/share/renesas/e2_studio/toolchains/gcc_arm/gcc-arm-none-eabi-6-2017-q2-update/arm-none-eabi/include/c++/6.3.1/ostream ****       explicit
 474:/home/zkmike/.local/share/renesas/e2_studio/toolchains/gcc_arm/gcc-arm-none-eabi-6-2017-q2-update/arm-none-eabi/include/c++/6.3.1/ostream **** #endif
 475:/home/zkmike/.local/share/renesas/e2_studio/toolchains/gcc_arm/gcc-arm-none-eabi-6-2017-q2-update/arm-none-eabi/include/c++/6.3.1/ostream ****       operator bool() const
 476:/home/zkmike/.local/share/renesas/e2_studio/toolchains/gcc_arm/gcc-arm-none-eabi-6-2017-q2-update/arm-none-eabi/include/c++/6.3.1/ostream ****       { return _M_ok; }
 477:/home/zkmike/.local/share/renesas/e2_studio/toolchains/gcc_arm/gcc-arm-none-eabi-6-2017-q2-update/arm-none-eabi/include/c++/6.3.1/ostream ****     };
 478:/home/zkmike/.local/share/renesas/e2_studio/toolchains/gcc_arm/gcc-arm-none-eabi-6-2017-q2-update/arm-none-eabi/include/c++/6.3.1/ostream **** 
 479:/home/zkmike/.local/share/renesas/e2_studio/toolchains/gcc_arm/gcc-arm-none-eabi-6-2017-q2-update/arm-none-eabi/include/c++/6.3.1/ostream ****   //@{
 480:/home/zkmike/.local/share/renesas/e2_studio/toolchains/gcc_arm/gcc-arm-none-eabi-6-2017-q2-update/arm-none-eabi/include/c++/6.3.1/ostream ****   /**
 481:/home/zkmike/.local/share/renesas/e2_studio/toolchains/gcc_arm/gcc-arm-none-eabi-6-2017-q2-update/arm-none-eabi/include/c++/6.3.1/ostream ****    *  @brief  Character inserters
 482:/home/zkmike/.local/share/renesas/e2_studio/toolchains/gcc_arm/gcc-arm-none-eabi-6-2017-q2-update/arm-none-eabi/include/c++/6.3.1/ostream ****    *  @param  __out  An output stream.
 483:/home/zkmike/.local/share/renesas/e2_studio/toolchains/gcc_arm/gcc-arm-none-eabi-6-2017-q2-update/arm-none-eabi/include/c++/6.3.1/ostream ****    *  @param  __c  A character.
 484:/home/zkmike/.local/share/renesas/e2_studio/toolchains/gcc_arm/gcc-arm-none-eabi-6-2017-q2-update/arm-none-eabi/include/c++/6.3.1/ostream ****    *  @return  out
 485:/home/zkmike/.local/share/renesas/e2_studio/toolchains/gcc_arm/gcc-arm-none-eabi-6-2017-q2-update/arm-none-eabi/include/c++/6.3.1/ostream ****    *
 486:/home/zkmike/.local/share/renesas/e2_studio/toolchains/gcc_arm/gcc-arm-none-eabi-6-2017-q2-update/arm-none-eabi/include/c++/6.3.1/ostream ****    *  Behaves like one of the formatted arithmetic inserters described in
 487:/home/zkmike/.local/share/renesas/e2_studio/toolchains/gcc_arm/gcc-arm-none-eabi-6-2017-q2-update/arm-none-eabi/include/c++/6.3.1/ostream ****    *  std::basic_ostream.  After constructing a sentry object with good
 488:/home/zkmike/.local/share/renesas/e2_studio/toolchains/gcc_arm/gcc-arm-none-eabi-6-2017-q2-update/arm-none-eabi/include/c++/6.3.1/ostream ****    *  status, this function inserts a single character and any required
 489:/home/zkmike/.local/share/renesas/e2_studio/toolchains/gcc_arm/gcc-arm-none-eabi-6-2017-q2-update/arm-none-eabi/include/c++/6.3.1/ostream ****    *  padding (as determined by [22.2.2.2.2]).  @c __out.width(0) is then
 490:/home/zkmike/.local/share/renesas/e2_studio/toolchains/gcc_arm/gcc-arm-none-eabi-6-2017-q2-update/arm-none-eabi/include/c++/6.3.1/ostream ****    *  called.
 491:/home/zkmike/.local/share/renesas/e2_studio/toolchains/gcc_arm/gcc-arm-none-eabi-6-2017-q2-update/arm-none-eabi/include/c++/6.3.1/ostream ****    *
 492:/home/zkmike/.local/share/renesas/e2_studio/toolchains/gcc_arm/gcc-arm-none-eabi-6-2017-q2-update/arm-none-eabi/include/c++/6.3.1/ostream ****    *  If @p __c is of type @c char and the character type of the stream is not
 493:/home/zkmike/.local/share/renesas/e2_studio/toolchains/gcc_arm/gcc-arm-none-eabi-6-2017-q2-update/arm-none-eabi/include/c++/6.3.1/ostream ****    *  @c char, the character is widened before insertion.
 494:/home/zkmike/.local/share/renesas/e2_studio/toolchains/gcc_arm/gcc-arm-none-eabi-6-2017-q2-update/arm-none-eabi/include/c++/6.3.1/ostream ****   */
 495:/home/zkmike/.local/share/renesas/e2_studio/toolchains/gcc_arm/gcc-arm-none-eabi-6-2017-q2-update/arm-none-eabi/include/c++/6.3.1/ostream ****   template<typename _CharT, typename _Traits>
 496:/home/zkmike/.local/share/renesas/e2_studio/toolchains/gcc_arm/gcc-arm-none-eabi-6-2017-q2-update/arm-none-eabi/include/c++/6.3.1/ostream ****     inline basic_ostream<_CharT, _Traits>&
 497:/home/zkmike/.local/share/renesas/e2_studio/toolchains/gcc_arm/gcc-arm-none-eabi-6-2017-q2-update/arm-none-eabi/include/c++/6.3.1/ostream ****     operator<<(basic_ostream<_CharT, _Traits>& __out, _CharT __c)
 498:/home/zkmike/.local/share/renesas/e2_studio/toolchains/gcc_arm/gcc-arm-none-eabi-6-2017-q2-update/arm-none-eabi/include/c++/6.3.1/ostream ****     { return __ostream_insert(__out, &__c, 1); }
 499:/home/zkmike/.local/share/renesas/e2_studio/toolchains/gcc_arm/gcc-arm-none-eabi-6-2017-q2-update/arm-none-eabi/include/c++/6.3.1/ostream **** 
 500:/home/zkmike/.local/share/renesas/e2_studio/toolchains/gcc_arm/gcc-arm-none-eabi-6-2017-q2-update/arm-none-eabi/include/c++/6.3.1/ostream ****   template<typename _CharT, typename _Traits>
 501:/home/zkmike/.local/share/renesas/e2_studio/toolchains/gcc_arm/gcc-arm-none-eabi-6-2017-q2-update/arm-none-eabi/include/c++/6.3.1/ostream ****     inline basic_ostream<_CharT, _Traits>&
 502:/home/zkmike/.local/share/renesas/e2_studio/toolchains/gcc_arm/gcc-arm-none-eabi-6-2017-q2-update/arm-none-eabi/include/c++/6.3.1/ostream ****     operator<<(basic_ostream<_CharT, _Traits>& __out, char __c)
 503:/home/zkmike/.local/share/renesas/e2_studio/toolchains/gcc_arm/gcc-arm-none-eabi-6-2017-q2-update/arm-none-eabi/include/c++/6.3.1/ostream ****     { return (__out << __out.widen(__c)); }
 504:/home/zkmike/.local/share/renesas/e2_studio/toolchains/gcc_arm/gcc-arm-none-eabi-6-2017-q2-update/arm-none-eabi/include/c++/6.3.1/ostream **** 
 505:/home/zkmike/.local/share/renesas/e2_studio/toolchains/gcc_arm/gcc-arm-none-eabi-6-2017-q2-update/arm-none-eabi/include/c++/6.3.1/ostream ****   // Specialization
 506:/home/zkmike/.local/share/renesas/e2_studio/toolchains/gcc_arm/gcc-arm-none-eabi-6-2017-q2-update/arm-none-eabi/include/c++/6.3.1/ostream ****   template <class _Traits>
 507:/home/zkmike/.local/share/renesas/e2_studio/toolchains/gcc_arm/gcc-arm-none-eabi-6-2017-q2-update/arm-none-eabi/include/c++/6.3.1/ostream ****     inline basic_ostream<char, _Traits>&
 508:/home/zkmike/.local/share/renesas/e2_studio/toolchains/gcc_arm/gcc-arm-none-eabi-6-2017-q2-update/arm-none-eabi/include/c++/6.3.1/ostream ****     operator<<(basic_ostream<char, _Traits>& __out, char __c)
 509:/home/zkmike/.local/share/renesas/e2_studio/toolchains/gcc_arm/gcc-arm-none-eabi-6-2017-q2-update/arm-none-eabi/include/c++/6.3.1/ostream ****     { return __ostream_insert(__out, &__c, 1); }
 510:/home/zkmike/.local/share/renesas/e2_studio/toolchains/gcc_arm/gcc-arm-none-eabi-6-2017-q2-update/arm-none-eabi/include/c++/6.3.1/ostream **** 
 511:/home/zkmike/.local/share/renesas/e2_studio/toolchains/gcc_arm/gcc-arm-none-eabi-6-2017-q2-update/arm-none-eabi/include/c++/6.3.1/ostream ****   // Signed and unsigned
 512:/home/zkmike/.local/share/renesas/e2_studio/toolchains/gcc_arm/gcc-arm-none-eabi-6-2017-q2-update/arm-none-eabi/include/c++/6.3.1/ostream ****   template<class _Traits>
 513:/home/zkmike/.local/share/renesas/e2_studio/toolchains/gcc_arm/gcc-arm-none-eabi-6-2017-q2-update/arm-none-eabi/include/c++/6.3.1/ostream ****     inline basic_ostream<char, _Traits>&
 514:/home/zkmike/.local/share/renesas/e2_studio/toolchains/gcc_arm/gcc-arm-none-eabi-6-2017-q2-update/arm-none-eabi/include/c++/6.3.1/ostream ****     operator<<(basic_ostream<char, _Traits>& __out, signed char __c)
 515:/home/zkmike/.local/share/renesas/e2_studio/toolchains/gcc_arm/gcc-arm-none-eabi-6-2017-q2-update/arm-none-eabi/include/c++/6.3.1/ostream ****     { return (__out << static_cast<char>(__c)); }
 516:/home/zkmike/.local/share/renesas/e2_studio/toolchains/gcc_arm/gcc-arm-none-eabi-6-2017-q2-update/arm-none-eabi/include/c++/6.3.1/ostream **** 
 517:/home/zkmike/.local/share/renesas/e2_studio/toolchains/gcc_arm/gcc-arm-none-eabi-6-2017-q2-update/arm-none-eabi/include/c++/6.3.1/ostream ****   template<class _Traits>
 518:/home/zkmike/.local/share/renesas/e2_studio/toolchains/gcc_arm/gcc-arm-none-eabi-6-2017-q2-update/arm-none-eabi/include/c++/6.3.1/ostream ****     inline basic_ostream<char, _Traits>&
 519:/home/zkmike/.local/share/renesas/e2_studio/toolchains/gcc_arm/gcc-arm-none-eabi-6-2017-q2-update/arm-none-eabi/include/c++/6.3.1/ostream ****     operator<<(basic_ostream<char, _Traits>& __out, unsigned char __c)
 520:/home/zkmike/.local/share/renesas/e2_studio/toolchains/gcc_arm/gcc-arm-none-eabi-6-2017-q2-update/arm-none-eabi/include/c++/6.3.1/ostream ****     { return (__out << static_cast<char>(__c)); }
 521:/home/zkmike/.local/share/renesas/e2_studio/toolchains/gcc_arm/gcc-arm-none-eabi-6-2017-q2-update/arm-none-eabi/include/c++/6.3.1/ostream ****   //@}
 522:/home/zkmike/.local/share/renesas/e2_studio/toolchains/gcc_arm/gcc-arm-none-eabi-6-2017-q2-update/arm-none-eabi/include/c++/6.3.1/ostream **** 
 523:/home/zkmike/.local/share/renesas/e2_studio/toolchains/gcc_arm/gcc-arm-none-eabi-6-2017-q2-update/arm-none-eabi/include/c++/6.3.1/ostream ****   //@{
 524:/home/zkmike/.local/share/renesas/e2_studio/toolchains/gcc_arm/gcc-arm-none-eabi-6-2017-q2-update/arm-none-eabi/include/c++/6.3.1/ostream ****   /**
 525:/home/zkmike/.local/share/renesas/e2_studio/toolchains/gcc_arm/gcc-arm-none-eabi-6-2017-q2-update/arm-none-eabi/include/c++/6.3.1/ostream ****    *  @brief  String inserters
 526:/home/zkmike/.local/share/renesas/e2_studio/toolchains/gcc_arm/gcc-arm-none-eabi-6-2017-q2-update/arm-none-eabi/include/c++/6.3.1/ostream ****    *  @param  __out  An output stream.
 527:/home/zkmike/.local/share/renesas/e2_studio/toolchains/gcc_arm/gcc-arm-none-eabi-6-2017-q2-update/arm-none-eabi/include/c++/6.3.1/ostream ****    *  @param  __s  A character string.
 528:/home/zkmike/.local/share/renesas/e2_studio/toolchains/gcc_arm/gcc-arm-none-eabi-6-2017-q2-update/arm-none-eabi/include/c++/6.3.1/ostream ****    *  @return  out
 529:/home/zkmike/.local/share/renesas/e2_studio/toolchains/gcc_arm/gcc-arm-none-eabi-6-2017-q2-update/arm-none-eabi/include/c++/6.3.1/ostream ****    *  @pre  @p __s must be a non-NULL pointer
 530:/home/zkmike/.local/share/renesas/e2_studio/toolchains/gcc_arm/gcc-arm-none-eabi-6-2017-q2-update/arm-none-eabi/include/c++/6.3.1/ostream ****    *
 531:/home/zkmike/.local/share/renesas/e2_studio/toolchains/gcc_arm/gcc-arm-none-eabi-6-2017-q2-update/arm-none-eabi/include/c++/6.3.1/ostream ****    *  Behaves like one of the formatted arithmetic inserters described in
 532:/home/zkmike/.local/share/renesas/e2_studio/toolchains/gcc_arm/gcc-arm-none-eabi-6-2017-q2-update/arm-none-eabi/include/c++/6.3.1/ostream ****    *  std::basic_ostream.  After constructing a sentry object with good
 533:/home/zkmike/.local/share/renesas/e2_studio/toolchains/gcc_arm/gcc-arm-none-eabi-6-2017-q2-update/arm-none-eabi/include/c++/6.3.1/ostream ****    *  status, this function inserts @c traits::length(__s) characters starting
 534:/home/zkmike/.local/share/renesas/e2_studio/toolchains/gcc_arm/gcc-arm-none-eabi-6-2017-q2-update/arm-none-eabi/include/c++/6.3.1/ostream ****    *  at @p __s, widened if necessary, followed by any required padding (as
 535:/home/zkmike/.local/share/renesas/e2_studio/toolchains/gcc_arm/gcc-arm-none-eabi-6-2017-q2-update/arm-none-eabi/include/c++/6.3.1/ostream ****    *  determined by [22.2.2.2.2]).  @c __out.width(0) is then called.
 536:/home/zkmike/.local/share/renesas/e2_studio/toolchains/gcc_arm/gcc-arm-none-eabi-6-2017-q2-update/arm-none-eabi/include/c++/6.3.1/ostream ****   */
 537:/home/zkmike/.local/share/renesas/e2_studio/toolchains/gcc_arm/gcc-arm-none-eabi-6-2017-q2-update/arm-none-eabi/include/c++/6.3.1/ostream ****   template<typename _CharT, typename _Traits>
 538:/home/zkmike/.local/share/renesas/e2_studio/toolchains/gcc_arm/gcc-arm-none-eabi-6-2017-q2-update/arm-none-eabi/include/c++/6.3.1/ostream ****     inline basic_ostream<_CharT, _Traits>&
 539:/home/zkmike/.local/share/renesas/e2_studio/toolchains/gcc_arm/gcc-arm-none-eabi-6-2017-q2-update/arm-none-eabi/include/c++/6.3.1/ostream ****     operator<<(basic_ostream<_CharT, _Traits>& __out, const _CharT* __s)
 540:/home/zkmike/.local/share/renesas/e2_studio/toolchains/gcc_arm/gcc-arm-none-eabi-6-2017-q2-update/arm-none-eabi/include/c++/6.3.1/ostream ****     {
 541:/home/zkmike/.local/share/renesas/e2_studio/toolchains/gcc_arm/gcc-arm-none-eabi-6-2017-q2-update/arm-none-eabi/include/c++/6.3.1/ostream ****       if (!__s)
 542:/home/zkmike/.local/share/renesas/e2_studio/toolchains/gcc_arm/gcc-arm-none-eabi-6-2017-q2-update/arm-none-eabi/include/c++/6.3.1/ostream **** 	__out.setstate(ios_base::badbit);
 543:/home/zkmike/.local/share/renesas/e2_studio/toolchains/gcc_arm/gcc-arm-none-eabi-6-2017-q2-update/arm-none-eabi/include/c++/6.3.1/ostream ****       else
 544:/home/zkmike/.local/share/renesas/e2_studio/toolchains/gcc_arm/gcc-arm-none-eabi-6-2017-q2-update/arm-none-eabi/include/c++/6.3.1/ostream **** 	__ostream_insert(__out, __s,
 545:/home/zkmike/.local/share/renesas/e2_studio/toolchains/gcc_arm/gcc-arm-none-eabi-6-2017-q2-update/arm-none-eabi/include/c++/6.3.1/ostream **** 			 static_cast<streamsize>(_Traits::length(__s)));
 546:/home/zkmike/.local/share/renesas/e2_studio/toolchains/gcc_arm/gcc-arm-none-eabi-6-2017-q2-update/arm-none-eabi/include/c++/6.3.1/ostream ****       return __out;
 547:/home/zkmike/.local/share/renesas/e2_studio/toolchains/gcc_arm/gcc-arm-none-eabi-6-2017-q2-update/arm-none-eabi/include/c++/6.3.1/ostream ****     }
 548:/home/zkmike/.local/share/renesas/e2_studio/toolchains/gcc_arm/gcc-arm-none-eabi-6-2017-q2-update/arm-none-eabi/include/c++/6.3.1/ostream **** 
 549:/home/zkmike/.local/share/renesas/e2_studio/toolchains/gcc_arm/gcc-arm-none-eabi-6-2017-q2-update/arm-none-eabi/include/c++/6.3.1/ostream ****   template<typename _CharT, typename _Traits>
 550:/home/zkmike/.local/share/renesas/e2_studio/toolchains/gcc_arm/gcc-arm-none-eabi-6-2017-q2-update/arm-none-eabi/include/c++/6.3.1/ostream ****     basic_ostream<_CharT, _Traits> &
 551:/home/zkmike/.local/share/renesas/e2_studio/toolchains/gcc_arm/gcc-arm-none-eabi-6-2017-q2-update/arm-none-eabi/include/c++/6.3.1/ostream ****     operator<<(basic_ostream<_CharT, _Traits>& __out, const char* __s);
 552:/home/zkmike/.local/share/renesas/e2_studio/toolchains/gcc_arm/gcc-arm-none-eabi-6-2017-q2-update/arm-none-eabi/include/c++/6.3.1/ostream **** 
 553:/home/zkmike/.local/share/renesas/e2_studio/toolchains/gcc_arm/gcc-arm-none-eabi-6-2017-q2-update/arm-none-eabi/include/c++/6.3.1/ostream ****   // Partial specializations
 554:/home/zkmike/.local/share/renesas/e2_studio/toolchains/gcc_arm/gcc-arm-none-eabi-6-2017-q2-update/arm-none-eabi/include/c++/6.3.1/ostream ****   template<class _Traits>
 555:/home/zkmike/.local/share/renesas/e2_studio/toolchains/gcc_arm/gcc-arm-none-eabi-6-2017-q2-update/arm-none-eabi/include/c++/6.3.1/ostream ****     inline basic_ostream<char, _Traits>&
 556:/home/zkmike/.local/share/renesas/e2_studio/toolchains/gcc_arm/gcc-arm-none-eabi-6-2017-q2-update/arm-none-eabi/include/c++/6.3.1/ostream ****     operator<<(basic_ostream<char, _Traits>& __out, const char* __s)
 557:/home/zkmike/.local/share/renesas/e2_studio/toolchains/gcc_arm/gcc-arm-none-eabi-6-2017-q2-update/arm-none-eabi/include/c++/6.3.1/ostream ****     {
 558:/home/zkmike/.local/share/renesas/e2_studio/toolchains/gcc_arm/gcc-arm-none-eabi-6-2017-q2-update/arm-none-eabi/include/c++/6.3.1/ostream ****       if (!__s)
 559:/home/zkmike/.local/share/renesas/e2_studio/toolchains/gcc_arm/gcc-arm-none-eabi-6-2017-q2-update/arm-none-eabi/include/c++/6.3.1/ostream **** 	__out.setstate(ios_base::badbit);
 560:/home/zkmike/.local/share/renesas/e2_studio/toolchains/gcc_arm/gcc-arm-none-eabi-6-2017-q2-update/arm-none-eabi/include/c++/6.3.1/ostream ****       else
 561:/home/zkmike/.local/share/renesas/e2_studio/toolchains/gcc_arm/gcc-arm-none-eabi-6-2017-q2-update/arm-none-eabi/include/c++/6.3.1/ostream **** 	__ostream_insert(__out, __s,
 1776              		.loc 14 561 0
 1777 017c 1320A0E3 		mov	r2, #19
 1778 0180 001000E3 		movw	r1, #:lower16:.LC12
 1779 0184 001040E3 		movt	r1, #:upper16:.LC12
 1780 0188 0D00A0E1 		mov	r0, sp
 1781              	.LEHB10:
 1782 018c FEFFFFEB 		bl	_ZSt16__ostream_insertIcSt11char_traitsIcEERSt13basic_ostreamIT_T0_ES6_PKS3_i
 1783              	.LVL172:
 1784              	.LEHE10:
 1785 0190 0C0000EA 		b	.L146
 1786              	.LVL173:
 1787              	.L140:
 1788              	.LBE1231:
 1789              	.LBE1230:
 1790              	.LBB1232:
 1791              	.LBB1229:
 1792              	.LBB1228:
 548:/home/zkmike/.local/share/renesas/e2_studio/toolchains/gcc_arm/gcc-arm-none-eabi-6-2017-q2-update/arm-none-eabi/include/c++/6.3.1/sstream ****       { this->init(&_M_stringbuf); }
 1793              		.loc 7 548 0
 1794 0194 04008DE2 		add	r0, sp, #4
 1795 0198 FEFFFFEB 		bl	_ZNSt7__cxx1115basic_stringbufIcSt11char_traitsIcESaIcEED1Ev
 1796              	.LVL174:
 1797              	.LBB1224:
 1798              	.LBB1225:
  93:/home/zkmike/.local/share/renesas/e2_studio/toolchains/gcc_arm/gcc-arm-none-eabi-6-2017-q2-update/arm-none-eabi/include/c++/6.3.1/ostream **** 
 1799              		.loc 14 93 0
 1800 019c 00808DE5 		str	r8, [sp]
 1801 01a0 0C3018E5 		ldr	r3, [r8, #-12]
 1802 01a4 112E8DE2 		add	r2, sp, #272
 1803 01a8 033082E0 		add	r3, r2, r3
 1804 01ac 109103E5 		str	r9, [r3, #-272]
 1805              	.LVL175:
 1806              	.L114:
 1807              	.LBE1225:
 1808              	.LBE1224:
 1809              	.LBB1226:
 1810              	.LBB1227:
 282:/home/zkmike/.local/share/renesas/e2_studio/toolchains/gcc_arm/gcc-arm-none-eabi-6-2017-q2-update/arm-none-eabi/include/c++/6.3.1/bits/basic_ios.h **** 
 1811              		.loc 13 282 0
 1812 01b0 110E8DE2 		add	r0, sp, #272
 1813 01b4 6C329FE5 		ldr	r3, .L148
 1814 01b8 D03020E5 		str	r3, [r0, #-208]!
 1815 01bc FEFFFFEB 		bl	_ZNSt8ios_baseD2Ev
 1816              	.LVL176:
 1817              	.LEHB11:
 1818 01c0 FEFFFFEB 		bl	__cxa_end_cleanup
 1819              	.LVL177:
 1820              	.LEHE11:
 1821              	.L139:
 1822 01c4 F9FFFFEA 		b	.L114
 1823              	.LVL178:
 1824              	.L146:
 1825              	.LBE1227:
 1826              	.LBE1226:
 1827              	.LBE1228:
 1828              	.LBE1229:
 1829              	.LBE1232:
  76:../src/zxing_lib/zxing/qrcode/decoder/Mode.cpp ****     throw ReaderException(s.str().c_str());
 1830              		.loc 6 76 0
 1831 01c8 0410A0E1 		mov	r1, r4
 1832 01cc 0D00A0E1 		mov	r0, sp
 1833              	.LEHB12:
 1834 01d0 FEFFFFEB 		bl	_ZNSolsEi
 1835              	.LVL179:
 1836              	.LEHE12:
  77:../src/zxing_lib/zxing/qrcode/decoder/Mode.cpp ****   }
 1837              		.loc 6 77 0
 1838 01d4 0800A0E3 		mov	r0, #8
 1839 01d8 FEFFFFEB 		bl	__cxa_allocate_exception
 1840              	.LVL180:
 1841 01dc 0040A0E1 		mov	r4, r0
 1842              	.LVL181:
 1843              	.LBB1233:
 1844              	.LBB1234:
 1845              	.LBB1235:
 1846              	.LBB1236:
 1847              	.LBB1237:
 1848              	.LBB1238:
 110:/home/zkmike/.local/share/renesas/e2_studio/toolchains/gcc_arm/gcc-arm-none-eabi-6-2017-q2-update/arm-none-eabi/include/c++/6.3.1/bits/basic_string.h **** 
 1849              		.loc 3 110 0
 1850 01e0 D0308DE2 		add	r3, sp, #208
 1851              	.LVL182:
 1852 01e4 C8308DE5 		str	r3, [sp, #200]
 1853              	.LVL183:
 1854              	.LBE1238:
 1855              	.LBE1237:
 1856              	.LBB1239:
 1857              	.LBB1240:
 1858              	.LBB1241:
 132:/home/zkmike/.local/share/renesas/e2_studio/toolchains/gcc_arm/gcc-arm-none-eabi-6-2017-q2-update/arm-none-eabi/include/c++/6.3.1/bits/basic_string.h **** 
 1859              		.loc 3 132 0
 1860 01e8 0030A0E3 		mov	r3, #0
 1861 01ec CC308DE5 		str	r3, [sp, #204]
 1862              	.LVL184:
 1863              	.LBE1241:
 1864              	.LBE1240:
 1865              	.LBB1242:
 1866              	.LBB1243:
 243:/home/zkmike/.local/share/renesas/e2_studio/toolchains/gcc_arm/gcc-arm-none-eabi-6-2017-q2-update/arm-none-eabi/include/c++/6.3.1/bits/char_traits.h **** 
 1867              		.loc 11 243 0
 1868 01f0 D030CDE5 		strb	r3, [sp, #208]
 1869              	.LVL185:
 1870              	.LBE1243:
 1871              	.LBE1242:
 1872              	.LBE1239:
 1873              	.LBE1236:
 1874              	.LBB1244:
 1875              	.LBB1245:
 467:/home/zkmike/.local/share/renesas/e2_studio/toolchains/gcc_arm/gcc-arm-none-eabi-6-2017-q2-update/arm-none-eabi/include/c++/6.3.1/streambuf ****       { }
 468:/home/zkmike/.local/share/renesas/e2_studio/toolchains/gcc_arm/gcc-arm-none-eabi-6-2017-q2-update/arm-none-eabi/include/c++/6.3.1/streambuf **** 
 469:/home/zkmike/.local/share/renesas/e2_studio/toolchains/gcc_arm/gcc-arm-none-eabi-6-2017-q2-update/arm-none-eabi/include/c++/6.3.1/streambuf ****       // [27.5.2.3.1] get area access
 470:/home/zkmike/.local/share/renesas/e2_studio/toolchains/gcc_arm/gcc-arm-none-eabi-6-2017-q2-update/arm-none-eabi/include/c++/6.3.1/streambuf ****       //@{
 471:/home/zkmike/.local/share/renesas/e2_studio/toolchains/gcc_arm/gcc-arm-none-eabi-6-2017-q2-update/arm-none-eabi/include/c++/6.3.1/streambuf ****       /**
 472:/home/zkmike/.local/share/renesas/e2_studio/toolchains/gcc_arm/gcc-arm-none-eabi-6-2017-q2-update/arm-none-eabi/include/c++/6.3.1/streambuf ****        *  @brief  Access to the get area.
 473:/home/zkmike/.local/share/renesas/e2_studio/toolchains/gcc_arm/gcc-arm-none-eabi-6-2017-q2-update/arm-none-eabi/include/c++/6.3.1/streambuf ****        *
 474:/home/zkmike/.local/share/renesas/e2_studio/toolchains/gcc_arm/gcc-arm-none-eabi-6-2017-q2-update/arm-none-eabi/include/c++/6.3.1/streambuf ****        *  These functions are only available to other protected functions,
 475:/home/zkmike/.local/share/renesas/e2_studio/toolchains/gcc_arm/gcc-arm-none-eabi-6-2017-q2-update/arm-none-eabi/include/c++/6.3.1/streambuf ****        *  including derived classes.
 476:/home/zkmike/.local/share/renesas/e2_studio/toolchains/gcc_arm/gcc-arm-none-eabi-6-2017-q2-update/arm-none-eabi/include/c++/6.3.1/streambuf ****        *
 477:/home/zkmike/.local/share/renesas/e2_studio/toolchains/gcc_arm/gcc-arm-none-eabi-6-2017-q2-update/arm-none-eabi/include/c++/6.3.1/streambuf ****        *  - eback() returns the beginning pointer for the input sequence
 478:/home/zkmike/.local/share/renesas/e2_studio/toolchains/gcc_arm/gcc-arm-none-eabi-6-2017-q2-update/arm-none-eabi/include/c++/6.3.1/streambuf ****        *  - gptr() returns the next pointer for the input sequence
 479:/home/zkmike/.local/share/renesas/e2_studio/toolchains/gcc_arm/gcc-arm-none-eabi-6-2017-q2-update/arm-none-eabi/include/c++/6.3.1/streambuf ****        *  - egptr() returns the end pointer for the input sequence
 480:/home/zkmike/.local/share/renesas/e2_studio/toolchains/gcc_arm/gcc-arm-none-eabi-6-2017-q2-update/arm-none-eabi/include/c++/6.3.1/streambuf ****       */
 481:/home/zkmike/.local/share/renesas/e2_studio/toolchains/gcc_arm/gcc-arm-none-eabi-6-2017-q2-update/arm-none-eabi/include/c++/6.3.1/streambuf ****       char_type*
 482:/home/zkmike/.local/share/renesas/e2_studio/toolchains/gcc_arm/gcc-arm-none-eabi-6-2017-q2-update/arm-none-eabi/include/c++/6.3.1/streambuf ****       eback() const { return _M_in_beg; }
 483:/home/zkmike/.local/share/renesas/e2_studio/toolchains/gcc_arm/gcc-arm-none-eabi-6-2017-q2-update/arm-none-eabi/include/c++/6.3.1/streambuf **** 
 484:/home/zkmike/.local/share/renesas/e2_studio/toolchains/gcc_arm/gcc-arm-none-eabi-6-2017-q2-update/arm-none-eabi/include/c++/6.3.1/streambuf ****       char_type*
 485:/home/zkmike/.local/share/renesas/e2_studio/toolchains/gcc_arm/gcc-arm-none-eabi-6-2017-q2-update/arm-none-eabi/include/c++/6.3.1/streambuf ****       gptr()  const { return _M_in_cur;  }
 486:/home/zkmike/.local/share/renesas/e2_studio/toolchains/gcc_arm/gcc-arm-none-eabi-6-2017-q2-update/arm-none-eabi/include/c++/6.3.1/streambuf **** 
 487:/home/zkmike/.local/share/renesas/e2_studio/toolchains/gcc_arm/gcc-arm-none-eabi-6-2017-q2-update/arm-none-eabi/include/c++/6.3.1/streambuf ****       char_type*
 488:/home/zkmike/.local/share/renesas/e2_studio/toolchains/gcc_arm/gcc-arm-none-eabi-6-2017-q2-update/arm-none-eabi/include/c++/6.3.1/streambuf ****       egptr() const { return _M_in_end; }
 489:/home/zkmike/.local/share/renesas/e2_studio/toolchains/gcc_arm/gcc-arm-none-eabi-6-2017-q2-update/arm-none-eabi/include/c++/6.3.1/streambuf ****       //@}
 490:/home/zkmike/.local/share/renesas/e2_studio/toolchains/gcc_arm/gcc-arm-none-eabi-6-2017-q2-update/arm-none-eabi/include/c++/6.3.1/streambuf **** 
 491:/home/zkmike/.local/share/renesas/e2_studio/toolchains/gcc_arm/gcc-arm-none-eabi-6-2017-q2-update/arm-none-eabi/include/c++/6.3.1/streambuf ****       /**
 492:/home/zkmike/.local/share/renesas/e2_studio/toolchains/gcc_arm/gcc-arm-none-eabi-6-2017-q2-update/arm-none-eabi/include/c++/6.3.1/streambuf ****        *  @brief  Moving the read position.
 493:/home/zkmike/.local/share/renesas/e2_studio/toolchains/gcc_arm/gcc-arm-none-eabi-6-2017-q2-update/arm-none-eabi/include/c++/6.3.1/streambuf ****        *  @param  __n  The delta by which to move.
 494:/home/zkmike/.local/share/renesas/e2_studio/toolchains/gcc_arm/gcc-arm-none-eabi-6-2017-q2-update/arm-none-eabi/include/c++/6.3.1/streambuf ****        *
 495:/home/zkmike/.local/share/renesas/e2_studio/toolchains/gcc_arm/gcc-arm-none-eabi-6-2017-q2-update/arm-none-eabi/include/c++/6.3.1/streambuf ****        *  This just advances the read position without returning any data.
 496:/home/zkmike/.local/share/renesas/e2_studio/toolchains/gcc_arm/gcc-arm-none-eabi-6-2017-q2-update/arm-none-eabi/include/c++/6.3.1/streambuf ****       */
 497:/home/zkmike/.local/share/renesas/e2_studio/toolchains/gcc_arm/gcc-arm-none-eabi-6-2017-q2-update/arm-none-eabi/include/c++/6.3.1/streambuf ****       void
 498:/home/zkmike/.local/share/renesas/e2_studio/toolchains/gcc_arm/gcc-arm-none-eabi-6-2017-q2-update/arm-none-eabi/include/c++/6.3.1/streambuf ****       gbump(int __n) { _M_in_cur += __n; }
 499:/home/zkmike/.local/share/renesas/e2_studio/toolchains/gcc_arm/gcc-arm-none-eabi-6-2017-q2-update/arm-none-eabi/include/c++/6.3.1/streambuf **** 
 500:/home/zkmike/.local/share/renesas/e2_studio/toolchains/gcc_arm/gcc-arm-none-eabi-6-2017-q2-update/arm-none-eabi/include/c++/6.3.1/streambuf ****       /**
 501:/home/zkmike/.local/share/renesas/e2_studio/toolchains/gcc_arm/gcc-arm-none-eabi-6-2017-q2-update/arm-none-eabi/include/c++/6.3.1/streambuf ****        *  @brief  Setting the three read area pointers.
 502:/home/zkmike/.local/share/renesas/e2_studio/toolchains/gcc_arm/gcc-arm-none-eabi-6-2017-q2-update/arm-none-eabi/include/c++/6.3.1/streambuf ****        *  @param  __gbeg  A pointer.
 503:/home/zkmike/.local/share/renesas/e2_studio/toolchains/gcc_arm/gcc-arm-none-eabi-6-2017-q2-update/arm-none-eabi/include/c++/6.3.1/streambuf ****        *  @param  __gnext  A pointer.
 504:/home/zkmike/.local/share/renesas/e2_studio/toolchains/gcc_arm/gcc-arm-none-eabi-6-2017-q2-update/arm-none-eabi/include/c++/6.3.1/streambuf ****        *  @param  __gend  A pointer.
 505:/home/zkmike/.local/share/renesas/e2_studio/toolchains/gcc_arm/gcc-arm-none-eabi-6-2017-q2-update/arm-none-eabi/include/c++/6.3.1/streambuf ****        *  @post  @a __gbeg == @c eback(), @a __gnext == @c gptr(), and
 506:/home/zkmike/.local/share/renesas/e2_studio/toolchains/gcc_arm/gcc-arm-none-eabi-6-2017-q2-update/arm-none-eabi/include/c++/6.3.1/streambuf ****        *         @a __gend == @c egptr()
 507:/home/zkmike/.local/share/renesas/e2_studio/toolchains/gcc_arm/gcc-arm-none-eabi-6-2017-q2-update/arm-none-eabi/include/c++/6.3.1/streambuf ****       */
 508:/home/zkmike/.local/share/renesas/e2_studio/toolchains/gcc_arm/gcc-arm-none-eabi-6-2017-q2-update/arm-none-eabi/include/c++/6.3.1/streambuf ****       void
 509:/home/zkmike/.local/share/renesas/e2_studio/toolchains/gcc_arm/gcc-arm-none-eabi-6-2017-q2-update/arm-none-eabi/include/c++/6.3.1/streambuf ****       setg(char_type* __gbeg, char_type* __gnext, char_type* __gend)
 510:/home/zkmike/.local/share/renesas/e2_studio/toolchains/gcc_arm/gcc-arm-none-eabi-6-2017-q2-update/arm-none-eabi/include/c++/6.3.1/streambuf ****       {
 511:/home/zkmike/.local/share/renesas/e2_studio/toolchains/gcc_arm/gcc-arm-none-eabi-6-2017-q2-update/arm-none-eabi/include/c++/6.3.1/streambuf **** 	_M_in_beg = __gbeg;
 512:/home/zkmike/.local/share/renesas/e2_studio/toolchains/gcc_arm/gcc-arm-none-eabi-6-2017-q2-update/arm-none-eabi/include/c++/6.3.1/streambuf **** 	_M_in_cur = __gnext;
 513:/home/zkmike/.local/share/renesas/e2_studio/toolchains/gcc_arm/gcc-arm-none-eabi-6-2017-q2-update/arm-none-eabi/include/c++/6.3.1/streambuf **** 	_M_in_end = __gend;
 514:/home/zkmike/.local/share/renesas/e2_studio/toolchains/gcc_arm/gcc-arm-none-eabi-6-2017-q2-update/arm-none-eabi/include/c++/6.3.1/streambuf ****       }
 515:/home/zkmike/.local/share/renesas/e2_studio/toolchains/gcc_arm/gcc-arm-none-eabi-6-2017-q2-update/arm-none-eabi/include/c++/6.3.1/streambuf **** 
 516:/home/zkmike/.local/share/renesas/e2_studio/toolchains/gcc_arm/gcc-arm-none-eabi-6-2017-q2-update/arm-none-eabi/include/c++/6.3.1/streambuf ****       // [27.5.2.3.2] put area access
 517:/home/zkmike/.local/share/renesas/e2_studio/toolchains/gcc_arm/gcc-arm-none-eabi-6-2017-q2-update/arm-none-eabi/include/c++/6.3.1/streambuf ****       //@{
 518:/home/zkmike/.local/share/renesas/e2_studio/toolchains/gcc_arm/gcc-arm-none-eabi-6-2017-q2-update/arm-none-eabi/include/c++/6.3.1/streambuf ****       /**
 519:/home/zkmike/.local/share/renesas/e2_studio/toolchains/gcc_arm/gcc-arm-none-eabi-6-2017-q2-update/arm-none-eabi/include/c++/6.3.1/streambuf ****        *  @brief  Access to the put area.
 520:/home/zkmike/.local/share/renesas/e2_studio/toolchains/gcc_arm/gcc-arm-none-eabi-6-2017-q2-update/arm-none-eabi/include/c++/6.3.1/streambuf ****        *
 521:/home/zkmike/.local/share/renesas/e2_studio/toolchains/gcc_arm/gcc-arm-none-eabi-6-2017-q2-update/arm-none-eabi/include/c++/6.3.1/streambuf ****        *  These functions are only available to other protected functions,
 522:/home/zkmike/.local/share/renesas/e2_studio/toolchains/gcc_arm/gcc-arm-none-eabi-6-2017-q2-update/arm-none-eabi/include/c++/6.3.1/streambuf ****        *  including derived classes.
 523:/home/zkmike/.local/share/renesas/e2_studio/toolchains/gcc_arm/gcc-arm-none-eabi-6-2017-q2-update/arm-none-eabi/include/c++/6.3.1/streambuf ****        *
 524:/home/zkmike/.local/share/renesas/e2_studio/toolchains/gcc_arm/gcc-arm-none-eabi-6-2017-q2-update/arm-none-eabi/include/c++/6.3.1/streambuf ****        *  - pbase() returns the beginning pointer for the output sequence
 525:/home/zkmike/.local/share/renesas/e2_studio/toolchains/gcc_arm/gcc-arm-none-eabi-6-2017-q2-update/arm-none-eabi/include/c++/6.3.1/streambuf ****        *  - pptr() returns the next pointer for the output sequence
 526:/home/zkmike/.local/share/renesas/e2_studio/toolchains/gcc_arm/gcc-arm-none-eabi-6-2017-q2-update/arm-none-eabi/include/c++/6.3.1/streambuf ****        *  - epptr() returns the end pointer for the output sequence
 527:/home/zkmike/.local/share/renesas/e2_studio/toolchains/gcc_arm/gcc-arm-none-eabi-6-2017-q2-update/arm-none-eabi/include/c++/6.3.1/streambuf ****       */
 528:/home/zkmike/.local/share/renesas/e2_studio/toolchains/gcc_arm/gcc-arm-none-eabi-6-2017-q2-update/arm-none-eabi/include/c++/6.3.1/streambuf ****       char_type*
 529:/home/zkmike/.local/share/renesas/e2_studio/toolchains/gcc_arm/gcc-arm-none-eabi-6-2017-q2-update/arm-none-eabi/include/c++/6.3.1/streambuf ****       pbase() const { return _M_out_beg; }
 530:/home/zkmike/.local/share/renesas/e2_studio/toolchains/gcc_arm/gcc-arm-none-eabi-6-2017-q2-update/arm-none-eabi/include/c++/6.3.1/streambuf **** 
 531:/home/zkmike/.local/share/renesas/e2_studio/toolchains/gcc_arm/gcc-arm-none-eabi-6-2017-q2-update/arm-none-eabi/include/c++/6.3.1/streambuf ****       char_type*
 532:/home/zkmike/.local/share/renesas/e2_studio/toolchains/gcc_arm/gcc-arm-none-eabi-6-2017-q2-update/arm-none-eabi/include/c++/6.3.1/streambuf ****       pptr() const { return _M_out_cur; }
 1876              		.loc 8 532 0
 1877 01f4 18209DE5 		ldr	r2, [sp, #24]
 1878              	.LVL186:
 1879              	.LBE1245:
 1880              	.LBE1244:
 169:/home/zkmike/.local/share/renesas/e2_studio/toolchains/gcc_arm/gcc-arm-none-eabi-6-2017-q2-update/arm-none-eabi/include/c++/6.3.1/sstream **** 	  {
 1881              		.loc 7 169 0
 1882 01f8 030052E1 		cmp	r2, r3
 1883 01fc 5D00000A 		beq	.L115
 1884              	.LVL187:
 1885              	.LBB1246:
 1886              	.LBB1247:
 488:/home/zkmike/.local/share/renesas/e2_studio/toolchains/gcc_arm/gcc-arm-none-eabi-6-2017-q2-update/arm-none-eabi/include/c++/6.3.1/streambuf ****       //@}
 1887              		.loc 8 488 0
 1888 0200 10109DE5 		ldr	r1, [sp, #16]
 1889              	.LVL188:
 1890              	.LBE1247:
 1891              	.LBE1246:
 172:/home/zkmike/.local/share/renesas/e2_studio/toolchains/gcc_arm/gcc-arm-none-eabi-6-2017-q2-update/arm-none-eabi/include/c++/6.3.1/sstream **** 	      __ret = __string_type(this->pbase(), this->pptr());
 1892              		.loc 7 172 0
 1893 0204 010052E1 		cmp	r2, r1
 1894 0208 2E00009A 		bls	.L116
 1895              	.LVL189:
 1896              	.LBB1248:
 1897              	.LBB1249:
 1898              	.LBB1250:
 1899              	.LBB1251:
 1900              	.LBB1252:
 110:/home/zkmike/.local/share/renesas/e2_studio/toolchains/gcc_arm/gcc-arm-none-eabi-6-2017-q2-update/arm-none-eabi/include/c++/6.3.1/bits/basic_string.h **** 
 1901              		.loc 3 110 0
 1902 020c 013C8DE2 		add	r3, sp, #256
 1903              	.LVL190:
 1904 0210 F8308DE5 		str	r3, [sp, #248]
 1905              	.LVL191:
 1906              	.LBE1252:
 1907              	.LBE1251:
 1908              	.LBE1250:
 1909              	.LBB1253:
 1910              	.LBB1254:
 1911              	.LBB1255:
 1912              	.LBB1256:
 196:/home/zkmike/.local/share/renesas/e2_studio/toolchains/gcc_arm/gcc-arm-none-eabi-6-2017-q2-update/arm-none-eabi/include/c++/6.3.1/bits/basic_string.h **** 	}
 1913              		.loc 3 196 0
 1914 0214 0030A0E3 		mov	r3, #0
 1915 0218 14109DE5 		ldr	r1, [sp, #20]
 1916 021c F8008DE2 		add	r0, sp, #248
 1917              	.LVL192:
 1918              	.LEHB13:
 1919 0220 FEFFFFEB 		bl	_ZNSt7__cxx1112basic_stringIcSt11char_traitsIcESaIcEE12_M_constructIPcEEvT_S7_St20forward_itera
 1920              	.LVL193:
 1921              	.LEHE13:
 1922              	.LBE1256:
 1923              	.LBE1255:
 1924              	.LBE1254:
 1925              	.LBE1253:
 1926              	.LBE1249:
 1927              	.LBE1248:
 1928              	.LBB1257:
 1929              	.LBB1258:
 1930              	.LBB1259:
 1931              	.LBB1260:
 136:/home/zkmike/.local/share/renesas/e2_studio/toolchains/gcc_arm/gcc-arm-none-eabi-6-2017-q2-update/arm-none-eabi/include/c++/6.3.1/bits/basic_string.h **** 
 1932              		.loc 3 136 0
 1933 0224 C8309DE5 		ldr	r3, [sp, #200]
 1934              	.LVL194:
 1935              	.LBE1260:
 1936              	.LBE1259:
 1937              	.LBE1258:
 1938              	.LBB1261:
 1939              	.LBB1262:
 1940              	.LBB1263:
 1941              	.LBB1264:
 1942 0228 F8209DE5 		ldr	r2, [sp, #248]
 1943              	.LVL195:
 1944              	.LBE1264:
 1945              	.LBE1263:
 1946              	.LBE1262:
 457:/home/zkmike/.local/share/renesas/e2_studio/toolchains/gcc_arm/gcc-arm-none-eabi-6-2017-q2-update/arm-none-eabi/include/c++/6.3.1/bits/basic_string.h **** 
 458:/home/zkmike/.local/share/renesas/e2_studio/toolchains/gcc_arm/gcc-arm-none-eabi-6-2017-q2-update/arm-none-eabi/include/c++/6.3.1/bits/basic_string.h ****       /**
 459:/home/zkmike/.local/share/renesas/e2_studio/toolchains/gcc_arm/gcc-arm-none-eabi-6-2017-q2-update/arm-none-eabi/include/c++/6.3.1/bits/basic_string.h ****        *  @brief  Construct string as multiple characters.
 460:/home/zkmike/.local/share/renesas/e2_studio/toolchains/gcc_arm/gcc-arm-none-eabi-6-2017-q2-update/arm-none-eabi/include/c++/6.3.1/bits/basic_string.h ****        *  @param  __n  Number of characters.
 461:/home/zkmike/.local/share/renesas/e2_studio/toolchains/gcc_arm/gcc-arm-none-eabi-6-2017-q2-update/arm-none-eabi/include/c++/6.3.1/bits/basic_string.h ****        *  @param  __c  Character to use.
 462:/home/zkmike/.local/share/renesas/e2_studio/toolchains/gcc_arm/gcc-arm-none-eabi-6-2017-q2-update/arm-none-eabi/include/c++/6.3.1/bits/basic_string.h ****        *  @param  __a  Allocator to use (default is default allocator).
 463:/home/zkmike/.local/share/renesas/e2_studio/toolchains/gcc_arm/gcc-arm-none-eabi-6-2017-q2-update/arm-none-eabi/include/c++/6.3.1/bits/basic_string.h ****        */
 464:/home/zkmike/.local/share/renesas/e2_studio/toolchains/gcc_arm/gcc-arm-none-eabi-6-2017-q2-update/arm-none-eabi/include/c++/6.3.1/bits/basic_string.h ****       basic_string(size_type __n, _CharT __c, const _Alloc& __a = _Alloc())
 465:/home/zkmike/.local/share/renesas/e2_studio/toolchains/gcc_arm/gcc-arm-none-eabi-6-2017-q2-update/arm-none-eabi/include/c++/6.3.1/bits/basic_string.h ****       : _M_dataplus(_M_local_data(), __a)
 466:/home/zkmike/.local/share/renesas/e2_studio/toolchains/gcc_arm/gcc-arm-none-eabi-6-2017-q2-update/arm-none-eabi/include/c++/6.3.1/bits/basic_string.h ****       { _M_construct(__n, __c); }
 467:/home/zkmike/.local/share/renesas/e2_studio/toolchains/gcc_arm/gcc-arm-none-eabi-6-2017-q2-update/arm-none-eabi/include/c++/6.3.1/bits/basic_string.h **** 
 468:/home/zkmike/.local/share/renesas/e2_studio/toolchains/gcc_arm/gcc-arm-none-eabi-6-2017-q2-update/arm-none-eabi/include/c++/6.3.1/bits/basic_string.h **** #if __cplusplus >= 201103L
 469:/home/zkmike/.local/share/renesas/e2_studio/toolchains/gcc_arm/gcc-arm-none-eabi-6-2017-q2-update/arm-none-eabi/include/c++/6.3.1/bits/basic_string.h ****       /**
 470:/home/zkmike/.local/share/renesas/e2_studio/toolchains/gcc_arm/gcc-arm-none-eabi-6-2017-q2-update/arm-none-eabi/include/c++/6.3.1/bits/basic_string.h ****        *  @brief  Move construct string.
 471:/home/zkmike/.local/share/renesas/e2_studio/toolchains/gcc_arm/gcc-arm-none-eabi-6-2017-q2-update/arm-none-eabi/include/c++/6.3.1/bits/basic_string.h ****        *  @param  __str  Source string.
 472:/home/zkmike/.local/share/renesas/e2_studio/toolchains/gcc_arm/gcc-arm-none-eabi-6-2017-q2-update/arm-none-eabi/include/c++/6.3.1/bits/basic_string.h ****        *
 473:/home/zkmike/.local/share/renesas/e2_studio/toolchains/gcc_arm/gcc-arm-none-eabi-6-2017-q2-update/arm-none-eabi/include/c++/6.3.1/bits/basic_string.h ****        *  The newly-created string contains the exact contents of @a __str.
 474:/home/zkmike/.local/share/renesas/e2_studio/toolchains/gcc_arm/gcc-arm-none-eabi-6-2017-q2-update/arm-none-eabi/include/c++/6.3.1/bits/basic_string.h ****        *  @a __str is a valid, but unspecified string.
 475:/home/zkmike/.local/share/renesas/e2_studio/toolchains/gcc_arm/gcc-arm-none-eabi-6-2017-q2-update/arm-none-eabi/include/c++/6.3.1/bits/basic_string.h ****        **/
 476:/home/zkmike/.local/share/renesas/e2_studio/toolchains/gcc_arm/gcc-arm-none-eabi-6-2017-q2-update/arm-none-eabi/include/c++/6.3.1/bits/basic_string.h ****       basic_string(basic_string&& __str) noexcept
 477:/home/zkmike/.local/share/renesas/e2_studio/toolchains/gcc_arm/gcc-arm-none-eabi-6-2017-q2-update/arm-none-eabi/include/c++/6.3.1/bits/basic_string.h ****       : _M_dataplus(_M_local_data(), std::move(__str._M_get_allocator()))
 478:/home/zkmike/.local/share/renesas/e2_studio/toolchains/gcc_arm/gcc-arm-none-eabi-6-2017-q2-update/arm-none-eabi/include/c++/6.3.1/bits/basic_string.h ****       {
 479:/home/zkmike/.local/share/renesas/e2_studio/toolchains/gcc_arm/gcc-arm-none-eabi-6-2017-q2-update/arm-none-eabi/include/c++/6.3.1/bits/basic_string.h **** 	if (__str._M_is_local())
 480:/home/zkmike/.local/share/renesas/e2_studio/toolchains/gcc_arm/gcc-arm-none-eabi-6-2017-q2-update/arm-none-eabi/include/c++/6.3.1/bits/basic_string.h **** 	  {
 481:/home/zkmike/.local/share/renesas/e2_studio/toolchains/gcc_arm/gcc-arm-none-eabi-6-2017-q2-update/arm-none-eabi/include/c++/6.3.1/bits/basic_string.h **** 	    traits_type::copy(_M_local_buf, __str._M_local_buf,
 482:/home/zkmike/.local/share/renesas/e2_studio/toolchains/gcc_arm/gcc-arm-none-eabi-6-2017-q2-update/arm-none-eabi/include/c++/6.3.1/bits/basic_string.h **** 			      _S_local_capacity + 1);
 483:/home/zkmike/.local/share/renesas/e2_studio/toolchains/gcc_arm/gcc-arm-none-eabi-6-2017-q2-update/arm-none-eabi/include/c++/6.3.1/bits/basic_string.h **** 	  }
 484:/home/zkmike/.local/share/renesas/e2_studio/toolchains/gcc_arm/gcc-arm-none-eabi-6-2017-q2-update/arm-none-eabi/include/c++/6.3.1/bits/basic_string.h **** 	else
 485:/home/zkmike/.local/share/renesas/e2_studio/toolchains/gcc_arm/gcc-arm-none-eabi-6-2017-q2-update/arm-none-eabi/include/c++/6.3.1/bits/basic_string.h **** 	  {
 486:/home/zkmike/.local/share/renesas/e2_studio/toolchains/gcc_arm/gcc-arm-none-eabi-6-2017-q2-update/arm-none-eabi/include/c++/6.3.1/bits/basic_string.h **** 	    _M_data(__str._M_data());
 487:/home/zkmike/.local/share/renesas/e2_studio/toolchains/gcc_arm/gcc-arm-none-eabi-6-2017-q2-update/arm-none-eabi/include/c++/6.3.1/bits/basic_string.h **** 	    _M_capacity(__str._M_allocated_capacity);
 488:/home/zkmike/.local/share/renesas/e2_studio/toolchains/gcc_arm/gcc-arm-none-eabi-6-2017-q2-update/arm-none-eabi/include/c++/6.3.1/bits/basic_string.h **** 	  }
 489:/home/zkmike/.local/share/renesas/e2_studio/toolchains/gcc_arm/gcc-arm-none-eabi-6-2017-q2-update/arm-none-eabi/include/c++/6.3.1/bits/basic_string.h **** 
 490:/home/zkmike/.local/share/renesas/e2_studio/toolchains/gcc_arm/gcc-arm-none-eabi-6-2017-q2-update/arm-none-eabi/include/c++/6.3.1/bits/basic_string.h **** 	// Must use _M_length() here not _M_set_length() because
 491:/home/zkmike/.local/share/renesas/e2_studio/toolchains/gcc_arm/gcc-arm-none-eabi-6-2017-q2-update/arm-none-eabi/include/c++/6.3.1/bits/basic_string.h **** 	// basic_stringbuf relies on writing into unallocated capacity so
 492:/home/zkmike/.local/share/renesas/e2_studio/toolchains/gcc_arm/gcc-arm-none-eabi-6-2017-q2-update/arm-none-eabi/include/c++/6.3.1/bits/basic_string.h **** 	// we mess up the contents if we put a '\0' in the string.
 493:/home/zkmike/.local/share/renesas/e2_studio/toolchains/gcc_arm/gcc-arm-none-eabi-6-2017-q2-update/arm-none-eabi/include/c++/6.3.1/bits/basic_string.h **** 	_M_length(__str.length());
 494:/home/zkmike/.local/share/renesas/e2_studio/toolchains/gcc_arm/gcc-arm-none-eabi-6-2017-q2-update/arm-none-eabi/include/c++/6.3.1/bits/basic_string.h **** 	__str._M_data(__str._M_local_data());
 495:/home/zkmike/.local/share/renesas/e2_studio/toolchains/gcc_arm/gcc-arm-none-eabi-6-2017-q2-update/arm-none-eabi/include/c++/6.3.1/bits/basic_string.h **** 	__str._M_set_length(0);
 496:/home/zkmike/.local/share/renesas/e2_studio/toolchains/gcc_arm/gcc-arm-none-eabi-6-2017-q2-update/arm-none-eabi/include/c++/6.3.1/bits/basic_string.h ****       }
 497:/home/zkmike/.local/share/renesas/e2_studio/toolchains/gcc_arm/gcc-arm-none-eabi-6-2017-q2-update/arm-none-eabi/include/c++/6.3.1/bits/basic_string.h **** 
 498:/home/zkmike/.local/share/renesas/e2_studio/toolchains/gcc_arm/gcc-arm-none-eabi-6-2017-q2-update/arm-none-eabi/include/c++/6.3.1/bits/basic_string.h ****       /**
 499:/home/zkmike/.local/share/renesas/e2_studio/toolchains/gcc_arm/gcc-arm-none-eabi-6-2017-q2-update/arm-none-eabi/include/c++/6.3.1/bits/basic_string.h ****        *  @brief  Construct string from an initializer %list.
 500:/home/zkmike/.local/share/renesas/e2_studio/toolchains/gcc_arm/gcc-arm-none-eabi-6-2017-q2-update/arm-none-eabi/include/c++/6.3.1/bits/basic_string.h ****        *  @param  __l  std::initializer_list of characters.
 501:/home/zkmike/.local/share/renesas/e2_studio/toolchains/gcc_arm/gcc-arm-none-eabi-6-2017-q2-update/arm-none-eabi/include/c++/6.3.1/bits/basic_string.h ****        *  @param  __a  Allocator to use (default is default allocator).
 502:/home/zkmike/.local/share/renesas/e2_studio/toolchains/gcc_arm/gcc-arm-none-eabi-6-2017-q2-update/arm-none-eabi/include/c++/6.3.1/bits/basic_string.h ****        */
 503:/home/zkmike/.local/share/renesas/e2_studio/toolchains/gcc_arm/gcc-arm-none-eabi-6-2017-q2-update/arm-none-eabi/include/c++/6.3.1/bits/basic_string.h ****       basic_string(initializer_list<_CharT> __l, const _Alloc& __a = _Alloc())
 504:/home/zkmike/.local/share/renesas/e2_studio/toolchains/gcc_arm/gcc-arm-none-eabi-6-2017-q2-update/arm-none-eabi/include/c++/6.3.1/bits/basic_string.h ****       : _M_dataplus(_M_local_data(), __a)
 505:/home/zkmike/.local/share/renesas/e2_studio/toolchains/gcc_arm/gcc-arm-none-eabi-6-2017-q2-update/arm-none-eabi/include/c++/6.3.1/bits/basic_string.h ****       { _M_construct(__l.begin(), __l.end()); }
 506:/home/zkmike/.local/share/renesas/e2_studio/toolchains/gcc_arm/gcc-arm-none-eabi-6-2017-q2-update/arm-none-eabi/include/c++/6.3.1/bits/basic_string.h **** 
 507:/home/zkmike/.local/share/renesas/e2_studio/toolchains/gcc_arm/gcc-arm-none-eabi-6-2017-q2-update/arm-none-eabi/include/c++/6.3.1/bits/basic_string.h ****       basic_string(const basic_string& __str, const _Alloc& __a)
 508:/home/zkmike/.local/share/renesas/e2_studio/toolchains/gcc_arm/gcc-arm-none-eabi-6-2017-q2-update/arm-none-eabi/include/c++/6.3.1/bits/basic_string.h ****       : _M_dataplus(_M_local_data(), __a)
 509:/home/zkmike/.local/share/renesas/e2_studio/toolchains/gcc_arm/gcc-arm-none-eabi-6-2017-q2-update/arm-none-eabi/include/c++/6.3.1/bits/basic_string.h ****       { _M_construct(__str.begin(), __str.end()); }
 510:/home/zkmike/.local/share/renesas/e2_studio/toolchains/gcc_arm/gcc-arm-none-eabi-6-2017-q2-update/arm-none-eabi/include/c++/6.3.1/bits/basic_string.h **** 
 511:/home/zkmike/.local/share/renesas/e2_studio/toolchains/gcc_arm/gcc-arm-none-eabi-6-2017-q2-update/arm-none-eabi/include/c++/6.3.1/bits/basic_string.h ****       basic_string(basic_string&& __str, const _Alloc& __a)
 512:/home/zkmike/.local/share/renesas/e2_studio/toolchains/gcc_arm/gcc-arm-none-eabi-6-2017-q2-update/arm-none-eabi/include/c++/6.3.1/bits/basic_string.h ****       noexcept(_Alloc_traits::_S_always_equal())
 513:/home/zkmike/.local/share/renesas/e2_studio/toolchains/gcc_arm/gcc-arm-none-eabi-6-2017-q2-update/arm-none-eabi/include/c++/6.3.1/bits/basic_string.h ****       : _M_dataplus(_M_local_data(), __a)
 514:/home/zkmike/.local/share/renesas/e2_studio/toolchains/gcc_arm/gcc-arm-none-eabi-6-2017-q2-update/arm-none-eabi/include/c++/6.3.1/bits/basic_string.h ****       {
 515:/home/zkmike/.local/share/renesas/e2_studio/toolchains/gcc_arm/gcc-arm-none-eabi-6-2017-q2-update/arm-none-eabi/include/c++/6.3.1/bits/basic_string.h **** 	if (__str._M_is_local())
 516:/home/zkmike/.local/share/renesas/e2_studio/toolchains/gcc_arm/gcc-arm-none-eabi-6-2017-q2-update/arm-none-eabi/include/c++/6.3.1/bits/basic_string.h **** 	  {
 517:/home/zkmike/.local/share/renesas/e2_studio/toolchains/gcc_arm/gcc-arm-none-eabi-6-2017-q2-update/arm-none-eabi/include/c++/6.3.1/bits/basic_string.h **** 	    traits_type::copy(_M_local_buf, __str._M_local_buf,
 518:/home/zkmike/.local/share/renesas/e2_studio/toolchains/gcc_arm/gcc-arm-none-eabi-6-2017-q2-update/arm-none-eabi/include/c++/6.3.1/bits/basic_string.h **** 			      _S_local_capacity + 1);
 519:/home/zkmike/.local/share/renesas/e2_studio/toolchains/gcc_arm/gcc-arm-none-eabi-6-2017-q2-update/arm-none-eabi/include/c++/6.3.1/bits/basic_string.h **** 	    _M_length(__str.length());
 520:/home/zkmike/.local/share/renesas/e2_studio/toolchains/gcc_arm/gcc-arm-none-eabi-6-2017-q2-update/arm-none-eabi/include/c++/6.3.1/bits/basic_string.h **** 	    __str._M_set_length(0);
 521:/home/zkmike/.local/share/renesas/e2_studio/toolchains/gcc_arm/gcc-arm-none-eabi-6-2017-q2-update/arm-none-eabi/include/c++/6.3.1/bits/basic_string.h **** 	  }
 522:/home/zkmike/.local/share/renesas/e2_studio/toolchains/gcc_arm/gcc-arm-none-eabi-6-2017-q2-update/arm-none-eabi/include/c++/6.3.1/bits/basic_string.h **** 	else if (_Alloc_traits::_S_always_equal()
 523:/home/zkmike/.local/share/renesas/e2_studio/toolchains/gcc_arm/gcc-arm-none-eabi-6-2017-q2-update/arm-none-eabi/include/c++/6.3.1/bits/basic_string.h **** 	    || __str.get_allocator() == __a)
 524:/home/zkmike/.local/share/renesas/e2_studio/toolchains/gcc_arm/gcc-arm-none-eabi-6-2017-q2-update/arm-none-eabi/include/c++/6.3.1/bits/basic_string.h **** 	  {
 525:/home/zkmike/.local/share/renesas/e2_studio/toolchains/gcc_arm/gcc-arm-none-eabi-6-2017-q2-update/arm-none-eabi/include/c++/6.3.1/bits/basic_string.h **** 	    _M_data(__str._M_data());
 526:/home/zkmike/.local/share/renesas/e2_studio/toolchains/gcc_arm/gcc-arm-none-eabi-6-2017-q2-update/arm-none-eabi/include/c++/6.3.1/bits/basic_string.h **** 	    _M_length(__str.length());
 527:/home/zkmike/.local/share/renesas/e2_studio/toolchains/gcc_arm/gcc-arm-none-eabi-6-2017-q2-update/arm-none-eabi/include/c++/6.3.1/bits/basic_string.h **** 	    _M_capacity(__str._M_allocated_capacity);
 528:/home/zkmike/.local/share/renesas/e2_studio/toolchains/gcc_arm/gcc-arm-none-eabi-6-2017-q2-update/arm-none-eabi/include/c++/6.3.1/bits/basic_string.h **** 	    __str._M_data(__str._M_local_buf);
 529:/home/zkmike/.local/share/renesas/e2_studio/toolchains/gcc_arm/gcc-arm-none-eabi-6-2017-q2-update/arm-none-eabi/include/c++/6.3.1/bits/basic_string.h **** 	    __str._M_set_length(0);
 530:/home/zkmike/.local/share/renesas/e2_studio/toolchains/gcc_arm/gcc-arm-none-eabi-6-2017-q2-update/arm-none-eabi/include/c++/6.3.1/bits/basic_string.h **** 	  }
 531:/home/zkmike/.local/share/renesas/e2_studio/toolchains/gcc_arm/gcc-arm-none-eabi-6-2017-q2-update/arm-none-eabi/include/c++/6.3.1/bits/basic_string.h **** 	else
 532:/home/zkmike/.local/share/renesas/e2_studio/toolchains/gcc_arm/gcc-arm-none-eabi-6-2017-q2-update/arm-none-eabi/include/c++/6.3.1/bits/basic_string.h **** 	  _M_construct(__str.begin(), __str.end());
 533:/home/zkmike/.local/share/renesas/e2_studio/toolchains/gcc_arm/gcc-arm-none-eabi-6-2017-q2-update/arm-none-eabi/include/c++/6.3.1/bits/basic_string.h ****       }
 534:/home/zkmike/.local/share/renesas/e2_studio/toolchains/gcc_arm/gcc-arm-none-eabi-6-2017-q2-update/arm-none-eabi/include/c++/6.3.1/bits/basic_string.h **** 
 535:/home/zkmike/.local/share/renesas/e2_studio/toolchains/gcc_arm/gcc-arm-none-eabi-6-2017-q2-update/arm-none-eabi/include/c++/6.3.1/bits/basic_string.h **** #endif // C++11
 536:/home/zkmike/.local/share/renesas/e2_studio/toolchains/gcc_arm/gcc-arm-none-eabi-6-2017-q2-update/arm-none-eabi/include/c++/6.3.1/bits/basic_string.h **** 
 537:/home/zkmike/.local/share/renesas/e2_studio/toolchains/gcc_arm/gcc-arm-none-eabi-6-2017-q2-update/arm-none-eabi/include/c++/6.3.1/bits/basic_string.h ****       /**
 538:/home/zkmike/.local/share/renesas/e2_studio/toolchains/gcc_arm/gcc-arm-none-eabi-6-2017-q2-update/arm-none-eabi/include/c++/6.3.1/bits/basic_string.h ****        *  @brief  Construct string as copy of a range.
 539:/home/zkmike/.local/share/renesas/e2_studio/toolchains/gcc_arm/gcc-arm-none-eabi-6-2017-q2-update/arm-none-eabi/include/c++/6.3.1/bits/basic_string.h ****        *  @param  __beg  Start of range.
 540:/home/zkmike/.local/share/renesas/e2_studio/toolchains/gcc_arm/gcc-arm-none-eabi-6-2017-q2-update/arm-none-eabi/include/c++/6.3.1/bits/basic_string.h ****        *  @param  __end  End of range.
 541:/home/zkmike/.local/share/renesas/e2_studio/toolchains/gcc_arm/gcc-arm-none-eabi-6-2017-q2-update/arm-none-eabi/include/c++/6.3.1/bits/basic_string.h ****        *  @param  __a  Allocator to use (default is default allocator).
 542:/home/zkmike/.local/share/renesas/e2_studio/toolchains/gcc_arm/gcc-arm-none-eabi-6-2017-q2-update/arm-none-eabi/include/c++/6.3.1/bits/basic_string.h ****        */
 543:/home/zkmike/.local/share/renesas/e2_studio/toolchains/gcc_arm/gcc-arm-none-eabi-6-2017-q2-update/arm-none-eabi/include/c++/6.3.1/bits/basic_string.h **** #if __cplusplus >= 201103L
 544:/home/zkmike/.local/share/renesas/e2_studio/toolchains/gcc_arm/gcc-arm-none-eabi-6-2017-q2-update/arm-none-eabi/include/c++/6.3.1/bits/basic_string.h ****       template<typename _InputIterator,
 545:/home/zkmike/.local/share/renesas/e2_studio/toolchains/gcc_arm/gcc-arm-none-eabi-6-2017-q2-update/arm-none-eabi/include/c++/6.3.1/bits/basic_string.h **** 	       typename = std::_RequireInputIter<_InputIterator>>
 546:/home/zkmike/.local/share/renesas/e2_studio/toolchains/gcc_arm/gcc-arm-none-eabi-6-2017-q2-update/arm-none-eabi/include/c++/6.3.1/bits/basic_string.h **** #else
 547:/home/zkmike/.local/share/renesas/e2_studio/toolchains/gcc_arm/gcc-arm-none-eabi-6-2017-q2-update/arm-none-eabi/include/c++/6.3.1/bits/basic_string.h ****       template<typename _InputIterator>
 548:/home/zkmike/.local/share/renesas/e2_studio/toolchains/gcc_arm/gcc-arm-none-eabi-6-2017-q2-update/arm-none-eabi/include/c++/6.3.1/bits/basic_string.h **** #endif
 549:/home/zkmike/.local/share/renesas/e2_studio/toolchains/gcc_arm/gcc-arm-none-eabi-6-2017-q2-update/arm-none-eabi/include/c++/6.3.1/bits/basic_string.h ****         basic_string(_InputIterator __beg, _InputIterator __end,
 550:/home/zkmike/.local/share/renesas/e2_studio/toolchains/gcc_arm/gcc-arm-none-eabi-6-2017-q2-update/arm-none-eabi/include/c++/6.3.1/bits/basic_string.h **** 		     const _Alloc& __a = _Alloc())
 551:/home/zkmike/.local/share/renesas/e2_studio/toolchains/gcc_arm/gcc-arm-none-eabi-6-2017-q2-update/arm-none-eabi/include/c++/6.3.1/bits/basic_string.h **** 	: _M_dataplus(_M_local_data(), __a)
 552:/home/zkmike/.local/share/renesas/e2_studio/toolchains/gcc_arm/gcc-arm-none-eabi-6-2017-q2-update/arm-none-eabi/include/c++/6.3.1/bits/basic_string.h **** 	{ _M_construct(__beg, __end); }
 553:/home/zkmike/.local/share/renesas/e2_studio/toolchains/gcc_arm/gcc-arm-none-eabi-6-2017-q2-update/arm-none-eabi/include/c++/6.3.1/bits/basic_string.h **** 
 554:/home/zkmike/.local/share/renesas/e2_studio/toolchains/gcc_arm/gcc-arm-none-eabi-6-2017-q2-update/arm-none-eabi/include/c++/6.3.1/bits/basic_string.h ****       /**
 555:/home/zkmike/.local/share/renesas/e2_studio/toolchains/gcc_arm/gcc-arm-none-eabi-6-2017-q2-update/arm-none-eabi/include/c++/6.3.1/bits/basic_string.h ****        *  @brief  Destroy the string instance.
 556:/home/zkmike/.local/share/renesas/e2_studio/toolchains/gcc_arm/gcc-arm-none-eabi-6-2017-q2-update/arm-none-eabi/include/c++/6.3.1/bits/basic_string.h ****        */
 557:/home/zkmike/.local/share/renesas/e2_studio/toolchains/gcc_arm/gcc-arm-none-eabi-6-2017-q2-update/arm-none-eabi/include/c++/6.3.1/bits/basic_string.h ****       ~basic_string()
 558:/home/zkmike/.local/share/renesas/e2_studio/toolchains/gcc_arm/gcc-arm-none-eabi-6-2017-q2-update/arm-none-eabi/include/c++/6.3.1/bits/basic_string.h ****       { _M_dispose(); }
 559:/home/zkmike/.local/share/renesas/e2_studio/toolchains/gcc_arm/gcc-arm-none-eabi-6-2017-q2-update/arm-none-eabi/include/c++/6.3.1/bits/basic_string.h **** 
 560:/home/zkmike/.local/share/renesas/e2_studio/toolchains/gcc_arm/gcc-arm-none-eabi-6-2017-q2-update/arm-none-eabi/include/c++/6.3.1/bits/basic_string.h ****       /**
 561:/home/zkmike/.local/share/renesas/e2_studio/toolchains/gcc_arm/gcc-arm-none-eabi-6-2017-q2-update/arm-none-eabi/include/c++/6.3.1/bits/basic_string.h ****        *  @brief  Assign the value of @a str to this string.
 562:/home/zkmike/.local/share/renesas/e2_studio/toolchains/gcc_arm/gcc-arm-none-eabi-6-2017-q2-update/arm-none-eabi/include/c++/6.3.1/bits/basic_string.h ****        *  @param  __str  Source string.
 563:/home/zkmike/.local/share/renesas/e2_studio/toolchains/gcc_arm/gcc-arm-none-eabi-6-2017-q2-update/arm-none-eabi/include/c++/6.3.1/bits/basic_string.h ****        */
 564:/home/zkmike/.local/share/renesas/e2_studio/toolchains/gcc_arm/gcc-arm-none-eabi-6-2017-q2-update/arm-none-eabi/include/c++/6.3.1/bits/basic_string.h ****       basic_string&
 565:/home/zkmike/.local/share/renesas/e2_studio/toolchains/gcc_arm/gcc-arm-none-eabi-6-2017-q2-update/arm-none-eabi/include/c++/6.3.1/bits/basic_string.h ****       operator=(const basic_string& __str)
 566:/home/zkmike/.local/share/renesas/e2_studio/toolchains/gcc_arm/gcc-arm-none-eabi-6-2017-q2-update/arm-none-eabi/include/c++/6.3.1/bits/basic_string.h ****       {
 567:/home/zkmike/.local/share/renesas/e2_studio/toolchains/gcc_arm/gcc-arm-none-eabi-6-2017-q2-update/arm-none-eabi/include/c++/6.3.1/bits/basic_string.h **** #if __cplusplus >= 201103L
 568:/home/zkmike/.local/share/renesas/e2_studio/toolchains/gcc_arm/gcc-arm-none-eabi-6-2017-q2-update/arm-none-eabi/include/c++/6.3.1/bits/basic_string.h **** 	if (_Alloc_traits::_S_propagate_on_copy_assign())
 569:/home/zkmike/.local/share/renesas/e2_studio/toolchains/gcc_arm/gcc-arm-none-eabi-6-2017-q2-update/arm-none-eabi/include/c++/6.3.1/bits/basic_string.h **** 	  {
 570:/home/zkmike/.local/share/renesas/e2_studio/toolchains/gcc_arm/gcc-arm-none-eabi-6-2017-q2-update/arm-none-eabi/include/c++/6.3.1/bits/basic_string.h **** 	    if (!_Alloc_traits::_S_always_equal() && !_M_is_local()
 571:/home/zkmike/.local/share/renesas/e2_studio/toolchains/gcc_arm/gcc-arm-none-eabi-6-2017-q2-update/arm-none-eabi/include/c++/6.3.1/bits/basic_string.h **** 		&& _M_get_allocator() != __str._M_get_allocator())
 572:/home/zkmike/.local/share/renesas/e2_studio/toolchains/gcc_arm/gcc-arm-none-eabi-6-2017-q2-update/arm-none-eabi/include/c++/6.3.1/bits/basic_string.h **** 	      {
 573:/home/zkmike/.local/share/renesas/e2_studio/toolchains/gcc_arm/gcc-arm-none-eabi-6-2017-q2-update/arm-none-eabi/include/c++/6.3.1/bits/basic_string.h **** 		// Propagating allocator cannot free existing storage so must
 574:/home/zkmike/.local/share/renesas/e2_studio/toolchains/gcc_arm/gcc-arm-none-eabi-6-2017-q2-update/arm-none-eabi/include/c++/6.3.1/bits/basic_string.h **** 		// deallocate it before replacing current allocator.
 575:/home/zkmike/.local/share/renesas/e2_studio/toolchains/gcc_arm/gcc-arm-none-eabi-6-2017-q2-update/arm-none-eabi/include/c++/6.3.1/bits/basic_string.h **** 		if (__str.size() <= _S_local_capacity)
 576:/home/zkmike/.local/share/renesas/e2_studio/toolchains/gcc_arm/gcc-arm-none-eabi-6-2017-q2-update/arm-none-eabi/include/c++/6.3.1/bits/basic_string.h **** 		  {
 577:/home/zkmike/.local/share/renesas/e2_studio/toolchains/gcc_arm/gcc-arm-none-eabi-6-2017-q2-update/arm-none-eabi/include/c++/6.3.1/bits/basic_string.h **** 		    _M_destroy(_M_allocated_capacity);
 578:/home/zkmike/.local/share/renesas/e2_studio/toolchains/gcc_arm/gcc-arm-none-eabi-6-2017-q2-update/arm-none-eabi/include/c++/6.3.1/bits/basic_string.h **** 		    _M_data(_M_local_data());
 579:/home/zkmike/.local/share/renesas/e2_studio/toolchains/gcc_arm/gcc-arm-none-eabi-6-2017-q2-update/arm-none-eabi/include/c++/6.3.1/bits/basic_string.h **** 		    _M_set_length(0);
 580:/home/zkmike/.local/share/renesas/e2_studio/toolchains/gcc_arm/gcc-arm-none-eabi-6-2017-q2-update/arm-none-eabi/include/c++/6.3.1/bits/basic_string.h **** 		  }
 581:/home/zkmike/.local/share/renesas/e2_studio/toolchains/gcc_arm/gcc-arm-none-eabi-6-2017-q2-update/arm-none-eabi/include/c++/6.3.1/bits/basic_string.h **** 		else
 582:/home/zkmike/.local/share/renesas/e2_studio/toolchains/gcc_arm/gcc-arm-none-eabi-6-2017-q2-update/arm-none-eabi/include/c++/6.3.1/bits/basic_string.h **** 		  {
 583:/home/zkmike/.local/share/renesas/e2_studio/toolchains/gcc_arm/gcc-arm-none-eabi-6-2017-q2-update/arm-none-eabi/include/c++/6.3.1/bits/basic_string.h **** 		    const auto __len = __str.size();
 584:/home/zkmike/.local/share/renesas/e2_studio/toolchains/gcc_arm/gcc-arm-none-eabi-6-2017-q2-update/arm-none-eabi/include/c++/6.3.1/bits/basic_string.h **** 		    auto __alloc = __str._M_get_allocator();
 585:/home/zkmike/.local/share/renesas/e2_studio/toolchains/gcc_arm/gcc-arm-none-eabi-6-2017-q2-update/arm-none-eabi/include/c++/6.3.1/bits/basic_string.h **** 		    // If this allocation throws there are no effects:
 586:/home/zkmike/.local/share/renesas/e2_studio/toolchains/gcc_arm/gcc-arm-none-eabi-6-2017-q2-update/arm-none-eabi/include/c++/6.3.1/bits/basic_string.h **** 		    auto __ptr = _Alloc_traits::allocate(__alloc, __len + 1);
 587:/home/zkmike/.local/share/renesas/e2_studio/toolchains/gcc_arm/gcc-arm-none-eabi-6-2017-q2-update/arm-none-eabi/include/c++/6.3.1/bits/basic_string.h **** 		    _M_destroy(_M_allocated_capacity);
 588:/home/zkmike/.local/share/renesas/e2_studio/toolchains/gcc_arm/gcc-arm-none-eabi-6-2017-q2-update/arm-none-eabi/include/c++/6.3.1/bits/basic_string.h **** 		    _M_data(__ptr);
 589:/home/zkmike/.local/share/renesas/e2_studio/toolchains/gcc_arm/gcc-arm-none-eabi-6-2017-q2-update/arm-none-eabi/include/c++/6.3.1/bits/basic_string.h **** 		    _M_capacity(__len);
 590:/home/zkmike/.local/share/renesas/e2_studio/toolchains/gcc_arm/gcc-arm-none-eabi-6-2017-q2-update/arm-none-eabi/include/c++/6.3.1/bits/basic_string.h **** 		    _M_set_length(__len);
 591:/home/zkmike/.local/share/renesas/e2_studio/toolchains/gcc_arm/gcc-arm-none-eabi-6-2017-q2-update/arm-none-eabi/include/c++/6.3.1/bits/basic_string.h **** 		  }
 592:/home/zkmike/.local/share/renesas/e2_studio/toolchains/gcc_arm/gcc-arm-none-eabi-6-2017-q2-update/arm-none-eabi/include/c++/6.3.1/bits/basic_string.h **** 	      }
 593:/home/zkmike/.local/share/renesas/e2_studio/toolchains/gcc_arm/gcc-arm-none-eabi-6-2017-q2-update/arm-none-eabi/include/c++/6.3.1/bits/basic_string.h **** 	    std::__alloc_on_copy(_M_get_allocator(), __str._M_get_allocator());
 594:/home/zkmike/.local/share/renesas/e2_studio/toolchains/gcc_arm/gcc-arm-none-eabi-6-2017-q2-update/arm-none-eabi/include/c++/6.3.1/bits/basic_string.h **** 	  }
 595:/home/zkmike/.local/share/renesas/e2_studio/toolchains/gcc_arm/gcc-arm-none-eabi-6-2017-q2-update/arm-none-eabi/include/c++/6.3.1/bits/basic_string.h **** #endif
 596:/home/zkmike/.local/share/renesas/e2_studio/toolchains/gcc_arm/gcc-arm-none-eabi-6-2017-q2-update/arm-none-eabi/include/c++/6.3.1/bits/basic_string.h **** 	return this->assign(__str);
 597:/home/zkmike/.local/share/renesas/e2_studio/toolchains/gcc_arm/gcc-arm-none-eabi-6-2017-q2-update/arm-none-eabi/include/c++/6.3.1/bits/basic_string.h ****       }
 598:/home/zkmike/.local/share/renesas/e2_studio/toolchains/gcc_arm/gcc-arm-none-eabi-6-2017-q2-update/arm-none-eabi/include/c++/6.3.1/bits/basic_string.h **** 
 599:/home/zkmike/.local/share/renesas/e2_studio/toolchains/gcc_arm/gcc-arm-none-eabi-6-2017-q2-update/arm-none-eabi/include/c++/6.3.1/bits/basic_string.h ****       /**
 600:/home/zkmike/.local/share/renesas/e2_studio/toolchains/gcc_arm/gcc-arm-none-eabi-6-2017-q2-update/arm-none-eabi/include/c++/6.3.1/bits/basic_string.h ****        *  @brief  Copy contents of @a s into this string.
 601:/home/zkmike/.local/share/renesas/e2_studio/toolchains/gcc_arm/gcc-arm-none-eabi-6-2017-q2-update/arm-none-eabi/include/c++/6.3.1/bits/basic_string.h ****        *  @param  __s  Source null-terminated string.
 602:/home/zkmike/.local/share/renesas/e2_studio/toolchains/gcc_arm/gcc-arm-none-eabi-6-2017-q2-update/arm-none-eabi/include/c++/6.3.1/bits/basic_string.h ****        */
 603:/home/zkmike/.local/share/renesas/e2_studio/toolchains/gcc_arm/gcc-arm-none-eabi-6-2017-q2-update/arm-none-eabi/include/c++/6.3.1/bits/basic_string.h ****       basic_string&
 604:/home/zkmike/.local/share/renesas/e2_studio/toolchains/gcc_arm/gcc-arm-none-eabi-6-2017-q2-update/arm-none-eabi/include/c++/6.3.1/bits/basic_string.h ****       operator=(const _CharT* __s)
 605:/home/zkmike/.local/share/renesas/e2_studio/toolchains/gcc_arm/gcc-arm-none-eabi-6-2017-q2-update/arm-none-eabi/include/c++/6.3.1/bits/basic_string.h ****       { return this->assign(__s); }
 606:/home/zkmike/.local/share/renesas/e2_studio/toolchains/gcc_arm/gcc-arm-none-eabi-6-2017-q2-update/arm-none-eabi/include/c++/6.3.1/bits/basic_string.h **** 
 607:/home/zkmike/.local/share/renesas/e2_studio/toolchains/gcc_arm/gcc-arm-none-eabi-6-2017-q2-update/arm-none-eabi/include/c++/6.3.1/bits/basic_string.h ****       /**
 608:/home/zkmike/.local/share/renesas/e2_studio/toolchains/gcc_arm/gcc-arm-none-eabi-6-2017-q2-update/arm-none-eabi/include/c++/6.3.1/bits/basic_string.h ****        *  @brief  Set value to string of length 1.
 609:/home/zkmike/.local/share/renesas/e2_studio/toolchains/gcc_arm/gcc-arm-none-eabi-6-2017-q2-update/arm-none-eabi/include/c++/6.3.1/bits/basic_string.h ****        *  @param  __c  Source character.
 610:/home/zkmike/.local/share/renesas/e2_studio/toolchains/gcc_arm/gcc-arm-none-eabi-6-2017-q2-update/arm-none-eabi/include/c++/6.3.1/bits/basic_string.h ****        *
 611:/home/zkmike/.local/share/renesas/e2_studio/toolchains/gcc_arm/gcc-arm-none-eabi-6-2017-q2-update/arm-none-eabi/include/c++/6.3.1/bits/basic_string.h ****        *  Assigning to a character makes this string length 1 and
 612:/home/zkmike/.local/share/renesas/e2_studio/toolchains/gcc_arm/gcc-arm-none-eabi-6-2017-q2-update/arm-none-eabi/include/c++/6.3.1/bits/basic_string.h ****        *  (*this)[0] == @a c.
 613:/home/zkmike/.local/share/renesas/e2_studio/toolchains/gcc_arm/gcc-arm-none-eabi-6-2017-q2-update/arm-none-eabi/include/c++/6.3.1/bits/basic_string.h ****        */
 614:/home/zkmike/.local/share/renesas/e2_studio/toolchains/gcc_arm/gcc-arm-none-eabi-6-2017-q2-update/arm-none-eabi/include/c++/6.3.1/bits/basic_string.h ****       basic_string&
 615:/home/zkmike/.local/share/renesas/e2_studio/toolchains/gcc_arm/gcc-arm-none-eabi-6-2017-q2-update/arm-none-eabi/include/c++/6.3.1/bits/basic_string.h ****       operator=(_CharT __c)
 616:/home/zkmike/.local/share/renesas/e2_studio/toolchains/gcc_arm/gcc-arm-none-eabi-6-2017-q2-update/arm-none-eabi/include/c++/6.3.1/bits/basic_string.h ****       {
 617:/home/zkmike/.local/share/renesas/e2_studio/toolchains/gcc_arm/gcc-arm-none-eabi-6-2017-q2-update/arm-none-eabi/include/c++/6.3.1/bits/basic_string.h **** 	this->assign(1, __c);
 618:/home/zkmike/.local/share/renesas/e2_studio/toolchains/gcc_arm/gcc-arm-none-eabi-6-2017-q2-update/arm-none-eabi/include/c++/6.3.1/bits/basic_string.h **** 	return *this;
 619:/home/zkmike/.local/share/renesas/e2_studio/toolchains/gcc_arm/gcc-arm-none-eabi-6-2017-q2-update/arm-none-eabi/include/c++/6.3.1/bits/basic_string.h ****       }
 620:/home/zkmike/.local/share/renesas/e2_studio/toolchains/gcc_arm/gcc-arm-none-eabi-6-2017-q2-update/arm-none-eabi/include/c++/6.3.1/bits/basic_string.h **** 
 621:/home/zkmike/.local/share/renesas/e2_studio/toolchains/gcc_arm/gcc-arm-none-eabi-6-2017-q2-update/arm-none-eabi/include/c++/6.3.1/bits/basic_string.h **** #if __cplusplus >= 201103L
 622:/home/zkmike/.local/share/renesas/e2_studio/toolchains/gcc_arm/gcc-arm-none-eabi-6-2017-q2-update/arm-none-eabi/include/c++/6.3.1/bits/basic_string.h ****       /**
 623:/home/zkmike/.local/share/renesas/e2_studio/toolchains/gcc_arm/gcc-arm-none-eabi-6-2017-q2-update/arm-none-eabi/include/c++/6.3.1/bits/basic_string.h ****        *  @brief  Move assign the value of @a str to this string.
 624:/home/zkmike/.local/share/renesas/e2_studio/toolchains/gcc_arm/gcc-arm-none-eabi-6-2017-q2-update/arm-none-eabi/include/c++/6.3.1/bits/basic_string.h ****        *  @param  __str  Source string.
 625:/home/zkmike/.local/share/renesas/e2_studio/toolchains/gcc_arm/gcc-arm-none-eabi-6-2017-q2-update/arm-none-eabi/include/c++/6.3.1/bits/basic_string.h ****        *
 626:/home/zkmike/.local/share/renesas/e2_studio/toolchains/gcc_arm/gcc-arm-none-eabi-6-2017-q2-update/arm-none-eabi/include/c++/6.3.1/bits/basic_string.h ****        *  The contents of @a str are moved into this string (without copying).
 627:/home/zkmike/.local/share/renesas/e2_studio/toolchains/gcc_arm/gcc-arm-none-eabi-6-2017-q2-update/arm-none-eabi/include/c++/6.3.1/bits/basic_string.h ****        *  @a str is a valid, but unspecified string.
 628:/home/zkmike/.local/share/renesas/e2_studio/toolchains/gcc_arm/gcc-arm-none-eabi-6-2017-q2-update/arm-none-eabi/include/c++/6.3.1/bits/basic_string.h ****        **/
 629:/home/zkmike/.local/share/renesas/e2_studio/toolchains/gcc_arm/gcc-arm-none-eabi-6-2017-q2-update/arm-none-eabi/include/c++/6.3.1/bits/basic_string.h ****       // PR 58265, this should be noexcept.
 630:/home/zkmike/.local/share/renesas/e2_studio/toolchains/gcc_arm/gcc-arm-none-eabi-6-2017-q2-update/arm-none-eabi/include/c++/6.3.1/bits/basic_string.h ****       // _GLIBCXX_RESOLVE_LIB_DEFECTS
 631:/home/zkmike/.local/share/renesas/e2_studio/toolchains/gcc_arm/gcc-arm-none-eabi-6-2017-q2-update/arm-none-eabi/include/c++/6.3.1/bits/basic_string.h ****       // 2063. Contradictory requirements for string move assignment
 632:/home/zkmike/.local/share/renesas/e2_studio/toolchains/gcc_arm/gcc-arm-none-eabi-6-2017-q2-update/arm-none-eabi/include/c++/6.3.1/bits/basic_string.h ****       basic_string&
 633:/home/zkmike/.local/share/renesas/e2_studio/toolchains/gcc_arm/gcc-arm-none-eabi-6-2017-q2-update/arm-none-eabi/include/c++/6.3.1/bits/basic_string.h ****       operator=(basic_string&& __str)
 634:/home/zkmike/.local/share/renesas/e2_studio/toolchains/gcc_arm/gcc-arm-none-eabi-6-2017-q2-update/arm-none-eabi/include/c++/6.3.1/bits/basic_string.h ****       noexcept(_Alloc_traits::_S_nothrow_move())
 635:/home/zkmike/.local/share/renesas/e2_studio/toolchains/gcc_arm/gcc-arm-none-eabi-6-2017-q2-update/arm-none-eabi/include/c++/6.3.1/bits/basic_string.h ****       {
 636:/home/zkmike/.local/share/renesas/e2_studio/toolchains/gcc_arm/gcc-arm-none-eabi-6-2017-q2-update/arm-none-eabi/include/c++/6.3.1/bits/basic_string.h **** 	if (!_M_is_local() && _Alloc_traits::_S_propagate_on_move_assign()
 637:/home/zkmike/.local/share/renesas/e2_studio/toolchains/gcc_arm/gcc-arm-none-eabi-6-2017-q2-update/arm-none-eabi/include/c++/6.3.1/bits/basic_string.h **** 	    && !_Alloc_traits::_S_always_equal()
 638:/home/zkmike/.local/share/renesas/e2_studio/toolchains/gcc_arm/gcc-arm-none-eabi-6-2017-q2-update/arm-none-eabi/include/c++/6.3.1/bits/basic_string.h **** 	    && _M_get_allocator() != __str._M_get_allocator())
 639:/home/zkmike/.local/share/renesas/e2_studio/toolchains/gcc_arm/gcc-arm-none-eabi-6-2017-q2-update/arm-none-eabi/include/c++/6.3.1/bits/basic_string.h **** 	  {
 640:/home/zkmike/.local/share/renesas/e2_studio/toolchains/gcc_arm/gcc-arm-none-eabi-6-2017-q2-update/arm-none-eabi/include/c++/6.3.1/bits/basic_string.h **** 	    // Destroy existing storage before replacing allocator.
 641:/home/zkmike/.local/share/renesas/e2_studio/toolchains/gcc_arm/gcc-arm-none-eabi-6-2017-q2-update/arm-none-eabi/include/c++/6.3.1/bits/basic_string.h **** 	    _M_destroy(_M_allocated_capacity);
 642:/home/zkmike/.local/share/renesas/e2_studio/toolchains/gcc_arm/gcc-arm-none-eabi-6-2017-q2-update/arm-none-eabi/include/c++/6.3.1/bits/basic_string.h **** 	    _M_data(_M_local_data());
 643:/home/zkmike/.local/share/renesas/e2_studio/toolchains/gcc_arm/gcc-arm-none-eabi-6-2017-q2-update/arm-none-eabi/include/c++/6.3.1/bits/basic_string.h **** 	    _M_set_length(0);
 644:/home/zkmike/.local/share/renesas/e2_studio/toolchains/gcc_arm/gcc-arm-none-eabi-6-2017-q2-update/arm-none-eabi/include/c++/6.3.1/bits/basic_string.h **** 	  }
 645:/home/zkmike/.local/share/renesas/e2_studio/toolchains/gcc_arm/gcc-arm-none-eabi-6-2017-q2-update/arm-none-eabi/include/c++/6.3.1/bits/basic_string.h **** 	// Replace allocator if POCMA is true.
 646:/home/zkmike/.local/share/renesas/e2_studio/toolchains/gcc_arm/gcc-arm-none-eabi-6-2017-q2-update/arm-none-eabi/include/c++/6.3.1/bits/basic_string.h **** 	std::__alloc_on_move(_M_get_allocator(), __str._M_get_allocator());
 647:/home/zkmike/.local/share/renesas/e2_studio/toolchains/gcc_arm/gcc-arm-none-eabi-6-2017-q2-update/arm-none-eabi/include/c++/6.3.1/bits/basic_string.h **** 
 648:/home/zkmike/.local/share/renesas/e2_studio/toolchains/gcc_arm/gcc-arm-none-eabi-6-2017-q2-update/arm-none-eabi/include/c++/6.3.1/bits/basic_string.h **** 	if (!__str._M_is_local()
 1947              		.loc 3 648 0
 1948 022c 011C8DE2 		add	r1, sp, #256
 1949 0230 010052E1 		cmp	r2, r1
 1950 0234 1F00000A 		beq	.L117
 1951              	.LVL196:
 1952              	.LBB1265:
 649:/home/zkmike/.local/share/renesas/e2_studio/toolchains/gcc_arm/gcc-arm-none-eabi-6-2017-q2-update/arm-none-eabi/include/c++/6.3.1/bits/basic_string.h **** 	    && (_Alloc_traits::_S_propagate_on_move_assign()
 650:/home/zkmike/.local/share/renesas/e2_studio/toolchains/gcc_arm/gcc-arm-none-eabi-6-2017-q2-update/arm-none-eabi/include/c++/6.3.1/bits/basic_string.h **** 	      || _Alloc_traits::_S_always_equal()))
 651:/home/zkmike/.local/share/renesas/e2_studio/toolchains/gcc_arm/gcc-arm-none-eabi-6-2017-q2-update/arm-none-eabi/include/c++/6.3.1/bits/basic_string.h **** 	  {
 652:/home/zkmike/.local/share/renesas/e2_studio/toolchains/gcc_arm/gcc-arm-none-eabi-6-2017-q2-update/arm-none-eabi/include/c++/6.3.1/bits/basic_string.h **** 	    pointer __data = nullptr;
 653:/home/zkmike/.local/share/renesas/e2_studio/toolchains/gcc_arm/gcc-arm-none-eabi-6-2017-q2-update/arm-none-eabi/include/c++/6.3.1/bits/basic_string.h **** 	    size_type __capacity;
 654:/home/zkmike/.local/share/renesas/e2_studio/toolchains/gcc_arm/gcc-arm-none-eabi-6-2017-q2-update/arm-none-eabi/include/c++/6.3.1/bits/basic_string.h **** 	    if (!_M_is_local())
 1953              		.loc 3 654 0
 1954 0238 D0108DE2 		add	r1, sp, #208
 1955 023c 010053E1 		cmp	r3, r1
 1956 0240 1700000A 		beq	.L136
 1957              	.LVL197:
 655:/home/zkmike/.local/share/renesas/e2_studio/toolchains/gcc_arm/gcc-arm-none-eabi-6-2017-q2-update/arm-none-eabi/include/c++/6.3.1/bits/basic_string.h **** 	      {
 656:/home/zkmike/.local/share/renesas/e2_studio/toolchains/gcc_arm/gcc-arm-none-eabi-6-2017-q2-update/arm-none-eabi/include/c++/6.3.1/bits/basic_string.h **** 		if (_Alloc_traits::_S_always_equal())
 657:/home/zkmike/.local/share/renesas/e2_studio/toolchains/gcc_arm/gcc-arm-none-eabi-6-2017-q2-update/arm-none-eabi/include/c++/6.3.1/bits/basic_string.h **** 		  {
 658:/home/zkmike/.local/share/renesas/e2_studio/toolchains/gcc_arm/gcc-arm-none-eabi-6-2017-q2-update/arm-none-eabi/include/c++/6.3.1/bits/basic_string.h **** 		    __data = _M_data();
 659:/home/zkmike/.local/share/renesas/e2_studio/toolchains/gcc_arm/gcc-arm-none-eabi-6-2017-q2-update/arm-none-eabi/include/c++/6.3.1/bits/basic_string.h **** 		    __capacity = _M_allocated_capacity;
 1958              		.loc 3 659 0
 1959 0244 D0709DE5 		ldr	r7, [sp, #208]
 1960              	.LVL198:
 1961              	.L118:
 1962              	.LBB1266:
 1963              	.LBB1267:
 128:/home/zkmike/.local/share/renesas/e2_studio/toolchains/gcc_arm/gcc-arm-none-eabi-6-2017-q2-update/arm-none-eabi/include/c++/6.3.1/bits/basic_string.h **** 
 1964              		.loc 3 128 0
 1965 0248 C8208DE5 		str	r2, [sp, #200]
 1966              	.LVL199:
 1967              	.LBE1267:
 1968              	.LBE1266:
 1969              	.LBB1268:
 1970              	.LBB1269:
 660:/home/zkmike/.local/share/renesas/e2_studio/toolchains/gcc_arm/gcc-arm-none-eabi-6-2017-q2-update/arm-none-eabi/include/c++/6.3.1/bits/basic_string.h **** 		  }
 661:/home/zkmike/.local/share/renesas/e2_studio/toolchains/gcc_arm/gcc-arm-none-eabi-6-2017-q2-update/arm-none-eabi/include/c++/6.3.1/bits/basic_string.h **** 		else
 662:/home/zkmike/.local/share/renesas/e2_studio/toolchains/gcc_arm/gcc-arm-none-eabi-6-2017-q2-update/arm-none-eabi/include/c++/6.3.1/bits/basic_string.h **** 		  _M_destroy(_M_allocated_capacity);
 663:/home/zkmike/.local/share/renesas/e2_studio/toolchains/gcc_arm/gcc-arm-none-eabi-6-2017-q2-update/arm-none-eabi/include/c++/6.3.1/bits/basic_string.h **** 	      }
 664:/home/zkmike/.local/share/renesas/e2_studio/toolchains/gcc_arm/gcc-arm-none-eabi-6-2017-q2-update/arm-none-eabi/include/c++/6.3.1/bits/basic_string.h **** 
 665:/home/zkmike/.local/share/renesas/e2_studio/toolchains/gcc_arm/gcc-arm-none-eabi-6-2017-q2-update/arm-none-eabi/include/c++/6.3.1/bits/basic_string.h **** 	    _M_data(__str._M_data());
 666:/home/zkmike/.local/share/renesas/e2_studio/toolchains/gcc_arm/gcc-arm-none-eabi-6-2017-q2-update/arm-none-eabi/include/c++/6.3.1/bits/basic_string.h **** 	    _M_length(__str.length());
 667:/home/zkmike/.local/share/renesas/e2_studio/toolchains/gcc_arm/gcc-arm-none-eabi-6-2017-q2-update/arm-none-eabi/include/c++/6.3.1/bits/basic_string.h **** 	    _M_capacity(__str._M_allocated_capacity);
 668:/home/zkmike/.local/share/renesas/e2_studio/toolchains/gcc_arm/gcc-arm-none-eabi-6-2017-q2-update/arm-none-eabi/include/c++/6.3.1/bits/basic_string.h **** 	    if (__data)
 669:/home/zkmike/.local/share/renesas/e2_studio/toolchains/gcc_arm/gcc-arm-none-eabi-6-2017-q2-update/arm-none-eabi/include/c++/6.3.1/bits/basic_string.h **** 	      {
 670:/home/zkmike/.local/share/renesas/e2_studio/toolchains/gcc_arm/gcc-arm-none-eabi-6-2017-q2-update/arm-none-eabi/include/c++/6.3.1/bits/basic_string.h **** 		__str._M_data(__data);
 671:/home/zkmike/.local/share/renesas/e2_studio/toolchains/gcc_arm/gcc-arm-none-eabi-6-2017-q2-update/arm-none-eabi/include/c++/6.3.1/bits/basic_string.h **** 		__str._M_capacity(__capacity);
 672:/home/zkmike/.local/share/renesas/e2_studio/toolchains/gcc_arm/gcc-arm-none-eabi-6-2017-q2-update/arm-none-eabi/include/c++/6.3.1/bits/basic_string.h **** 	      }
 673:/home/zkmike/.local/share/renesas/e2_studio/toolchains/gcc_arm/gcc-arm-none-eabi-6-2017-q2-update/arm-none-eabi/include/c++/6.3.1/bits/basic_string.h **** 	    else
 674:/home/zkmike/.local/share/renesas/e2_studio/toolchains/gcc_arm/gcc-arm-none-eabi-6-2017-q2-update/arm-none-eabi/include/c++/6.3.1/bits/basic_string.h **** 	      __str._M_data(__str._M_local_buf);
 675:/home/zkmike/.local/share/renesas/e2_studio/toolchains/gcc_arm/gcc-arm-none-eabi-6-2017-q2-update/arm-none-eabi/include/c++/6.3.1/bits/basic_string.h **** 	  }
 676:/home/zkmike/.local/share/renesas/e2_studio/toolchains/gcc_arm/gcc-arm-none-eabi-6-2017-q2-update/arm-none-eabi/include/c++/6.3.1/bits/basic_string.h **** 	else
 677:/home/zkmike/.local/share/renesas/e2_studio/toolchains/gcc_arm/gcc-arm-none-eabi-6-2017-q2-update/arm-none-eabi/include/c++/6.3.1/bits/basic_string.h **** 	    assign(__str);
 678:/home/zkmike/.local/share/renesas/e2_studio/toolchains/gcc_arm/gcc-arm-none-eabi-6-2017-q2-update/arm-none-eabi/include/c++/6.3.1/bits/basic_string.h **** 	__str.clear();
 679:/home/zkmike/.local/share/renesas/e2_studio/toolchains/gcc_arm/gcc-arm-none-eabi-6-2017-q2-update/arm-none-eabi/include/c++/6.3.1/bits/basic_string.h **** 	return *this;
 680:/home/zkmike/.local/share/renesas/e2_studio/toolchains/gcc_arm/gcc-arm-none-eabi-6-2017-q2-update/arm-none-eabi/include/c++/6.3.1/bits/basic_string.h ****       }
 681:/home/zkmike/.local/share/renesas/e2_studio/toolchains/gcc_arm/gcc-arm-none-eabi-6-2017-q2-update/arm-none-eabi/include/c++/6.3.1/bits/basic_string.h **** 
 682:/home/zkmike/.local/share/renesas/e2_studio/toolchains/gcc_arm/gcc-arm-none-eabi-6-2017-q2-update/arm-none-eabi/include/c++/6.3.1/bits/basic_string.h ****       /**
 683:/home/zkmike/.local/share/renesas/e2_studio/toolchains/gcc_arm/gcc-arm-none-eabi-6-2017-q2-update/arm-none-eabi/include/c++/6.3.1/bits/basic_string.h ****        *  @brief  Set value to string constructed from initializer %list.
 684:/home/zkmike/.local/share/renesas/e2_studio/toolchains/gcc_arm/gcc-arm-none-eabi-6-2017-q2-update/arm-none-eabi/include/c++/6.3.1/bits/basic_string.h ****        *  @param  __l  std::initializer_list.
 685:/home/zkmike/.local/share/renesas/e2_studio/toolchains/gcc_arm/gcc-arm-none-eabi-6-2017-q2-update/arm-none-eabi/include/c++/6.3.1/bits/basic_string.h ****        */
 686:/home/zkmike/.local/share/renesas/e2_studio/toolchains/gcc_arm/gcc-arm-none-eabi-6-2017-q2-update/arm-none-eabi/include/c++/6.3.1/bits/basic_string.h ****       basic_string&
 687:/home/zkmike/.local/share/renesas/e2_studio/toolchains/gcc_arm/gcc-arm-none-eabi-6-2017-q2-update/arm-none-eabi/include/c++/6.3.1/bits/basic_string.h ****       operator=(initializer_list<_CharT> __l)
 688:/home/zkmike/.local/share/renesas/e2_studio/toolchains/gcc_arm/gcc-arm-none-eabi-6-2017-q2-update/arm-none-eabi/include/c++/6.3.1/bits/basic_string.h ****       {
 689:/home/zkmike/.local/share/renesas/e2_studio/toolchains/gcc_arm/gcc-arm-none-eabi-6-2017-q2-update/arm-none-eabi/include/c++/6.3.1/bits/basic_string.h **** 	this->assign(__l.begin(), __l.size());
 690:/home/zkmike/.local/share/renesas/e2_studio/toolchains/gcc_arm/gcc-arm-none-eabi-6-2017-q2-update/arm-none-eabi/include/c++/6.3.1/bits/basic_string.h **** 	return *this;
 691:/home/zkmike/.local/share/renesas/e2_studio/toolchains/gcc_arm/gcc-arm-none-eabi-6-2017-q2-update/arm-none-eabi/include/c++/6.3.1/bits/basic_string.h ****       }
 692:/home/zkmike/.local/share/renesas/e2_studio/toolchains/gcc_arm/gcc-arm-none-eabi-6-2017-q2-update/arm-none-eabi/include/c++/6.3.1/bits/basic_string.h **** #endif // C++11
 693:/home/zkmike/.local/share/renesas/e2_studio/toolchains/gcc_arm/gcc-arm-none-eabi-6-2017-q2-update/arm-none-eabi/include/c++/6.3.1/bits/basic_string.h **** 
 694:/home/zkmike/.local/share/renesas/e2_studio/toolchains/gcc_arm/gcc-arm-none-eabi-6-2017-q2-update/arm-none-eabi/include/c++/6.3.1/bits/basic_string.h ****       // Iterators:
 695:/home/zkmike/.local/share/renesas/e2_studio/toolchains/gcc_arm/gcc-arm-none-eabi-6-2017-q2-update/arm-none-eabi/include/c++/6.3.1/bits/basic_string.h ****       /**
 696:/home/zkmike/.local/share/renesas/e2_studio/toolchains/gcc_arm/gcc-arm-none-eabi-6-2017-q2-update/arm-none-eabi/include/c++/6.3.1/bits/basic_string.h ****        *  Returns a read/write iterator that points to the first character in
 697:/home/zkmike/.local/share/renesas/e2_studio/toolchains/gcc_arm/gcc-arm-none-eabi-6-2017-q2-update/arm-none-eabi/include/c++/6.3.1/bits/basic_string.h ****        *  the %string.
 698:/home/zkmike/.local/share/renesas/e2_studio/toolchains/gcc_arm/gcc-arm-none-eabi-6-2017-q2-update/arm-none-eabi/include/c++/6.3.1/bits/basic_string.h ****        */
 699:/home/zkmike/.local/share/renesas/e2_studio/toolchains/gcc_arm/gcc-arm-none-eabi-6-2017-q2-update/arm-none-eabi/include/c++/6.3.1/bits/basic_string.h ****       iterator
 700:/home/zkmike/.local/share/renesas/e2_studio/toolchains/gcc_arm/gcc-arm-none-eabi-6-2017-q2-update/arm-none-eabi/include/c++/6.3.1/bits/basic_string.h ****       begin() _GLIBCXX_NOEXCEPT
 701:/home/zkmike/.local/share/renesas/e2_studio/toolchains/gcc_arm/gcc-arm-none-eabi-6-2017-q2-update/arm-none-eabi/include/c++/6.3.1/bits/basic_string.h ****       { return iterator(_M_data()); }
 702:/home/zkmike/.local/share/renesas/e2_studio/toolchains/gcc_arm/gcc-arm-none-eabi-6-2017-q2-update/arm-none-eabi/include/c++/6.3.1/bits/basic_string.h **** 
 703:/home/zkmike/.local/share/renesas/e2_studio/toolchains/gcc_arm/gcc-arm-none-eabi-6-2017-q2-update/arm-none-eabi/include/c++/6.3.1/bits/basic_string.h ****       /**
 704:/home/zkmike/.local/share/renesas/e2_studio/toolchains/gcc_arm/gcc-arm-none-eabi-6-2017-q2-update/arm-none-eabi/include/c++/6.3.1/bits/basic_string.h ****        *  Returns a read-only (constant) iterator that points to the first
 705:/home/zkmike/.local/share/renesas/e2_studio/toolchains/gcc_arm/gcc-arm-none-eabi-6-2017-q2-update/arm-none-eabi/include/c++/6.3.1/bits/basic_string.h ****        *  character in the %string.
 706:/home/zkmike/.local/share/renesas/e2_studio/toolchains/gcc_arm/gcc-arm-none-eabi-6-2017-q2-update/arm-none-eabi/include/c++/6.3.1/bits/basic_string.h ****        */
 707:/home/zkmike/.local/share/renesas/e2_studio/toolchains/gcc_arm/gcc-arm-none-eabi-6-2017-q2-update/arm-none-eabi/include/c++/6.3.1/bits/basic_string.h ****       const_iterator
 708:/home/zkmike/.local/share/renesas/e2_studio/toolchains/gcc_arm/gcc-arm-none-eabi-6-2017-q2-update/arm-none-eabi/include/c++/6.3.1/bits/basic_string.h ****       begin() const _GLIBCXX_NOEXCEPT
 709:/home/zkmike/.local/share/renesas/e2_studio/toolchains/gcc_arm/gcc-arm-none-eabi-6-2017-q2-update/arm-none-eabi/include/c++/6.3.1/bits/basic_string.h ****       { return const_iterator(_M_data()); }
 710:/home/zkmike/.local/share/renesas/e2_studio/toolchains/gcc_arm/gcc-arm-none-eabi-6-2017-q2-update/arm-none-eabi/include/c++/6.3.1/bits/basic_string.h **** 
 711:/home/zkmike/.local/share/renesas/e2_studio/toolchains/gcc_arm/gcc-arm-none-eabi-6-2017-q2-update/arm-none-eabi/include/c++/6.3.1/bits/basic_string.h ****       /**
 712:/home/zkmike/.local/share/renesas/e2_studio/toolchains/gcc_arm/gcc-arm-none-eabi-6-2017-q2-update/arm-none-eabi/include/c++/6.3.1/bits/basic_string.h ****        *  Returns a read/write iterator that points one past the last
 713:/home/zkmike/.local/share/renesas/e2_studio/toolchains/gcc_arm/gcc-arm-none-eabi-6-2017-q2-update/arm-none-eabi/include/c++/6.3.1/bits/basic_string.h ****        *  character in the %string.
 714:/home/zkmike/.local/share/renesas/e2_studio/toolchains/gcc_arm/gcc-arm-none-eabi-6-2017-q2-update/arm-none-eabi/include/c++/6.3.1/bits/basic_string.h ****        */
 715:/home/zkmike/.local/share/renesas/e2_studio/toolchains/gcc_arm/gcc-arm-none-eabi-6-2017-q2-update/arm-none-eabi/include/c++/6.3.1/bits/basic_string.h ****       iterator
 716:/home/zkmike/.local/share/renesas/e2_studio/toolchains/gcc_arm/gcc-arm-none-eabi-6-2017-q2-update/arm-none-eabi/include/c++/6.3.1/bits/basic_string.h ****       end() _GLIBCXX_NOEXCEPT
 717:/home/zkmike/.local/share/renesas/e2_studio/toolchains/gcc_arm/gcc-arm-none-eabi-6-2017-q2-update/arm-none-eabi/include/c++/6.3.1/bits/basic_string.h ****       { return iterator(_M_data() + this->size()); }
 718:/home/zkmike/.local/share/renesas/e2_studio/toolchains/gcc_arm/gcc-arm-none-eabi-6-2017-q2-update/arm-none-eabi/include/c++/6.3.1/bits/basic_string.h **** 
 719:/home/zkmike/.local/share/renesas/e2_studio/toolchains/gcc_arm/gcc-arm-none-eabi-6-2017-q2-update/arm-none-eabi/include/c++/6.3.1/bits/basic_string.h ****       /**
 720:/home/zkmike/.local/share/renesas/e2_studio/toolchains/gcc_arm/gcc-arm-none-eabi-6-2017-q2-update/arm-none-eabi/include/c++/6.3.1/bits/basic_string.h ****        *  Returns a read-only (constant) iterator that points one past the
 721:/home/zkmike/.local/share/renesas/e2_studio/toolchains/gcc_arm/gcc-arm-none-eabi-6-2017-q2-update/arm-none-eabi/include/c++/6.3.1/bits/basic_string.h ****        *  last character in the %string.
 722:/home/zkmike/.local/share/renesas/e2_studio/toolchains/gcc_arm/gcc-arm-none-eabi-6-2017-q2-update/arm-none-eabi/include/c++/6.3.1/bits/basic_string.h ****        */
 723:/home/zkmike/.local/share/renesas/e2_studio/toolchains/gcc_arm/gcc-arm-none-eabi-6-2017-q2-update/arm-none-eabi/include/c++/6.3.1/bits/basic_string.h ****       const_iterator
 724:/home/zkmike/.local/share/renesas/e2_studio/toolchains/gcc_arm/gcc-arm-none-eabi-6-2017-q2-update/arm-none-eabi/include/c++/6.3.1/bits/basic_string.h ****       end() const _GLIBCXX_NOEXCEPT
 725:/home/zkmike/.local/share/renesas/e2_studio/toolchains/gcc_arm/gcc-arm-none-eabi-6-2017-q2-update/arm-none-eabi/include/c++/6.3.1/bits/basic_string.h ****       { return const_iterator(_M_data() + this->size()); }
 726:/home/zkmike/.local/share/renesas/e2_studio/toolchains/gcc_arm/gcc-arm-none-eabi-6-2017-q2-update/arm-none-eabi/include/c++/6.3.1/bits/basic_string.h **** 
 727:/home/zkmike/.local/share/renesas/e2_studio/toolchains/gcc_arm/gcc-arm-none-eabi-6-2017-q2-update/arm-none-eabi/include/c++/6.3.1/bits/basic_string.h ****       /**
 728:/home/zkmike/.local/share/renesas/e2_studio/toolchains/gcc_arm/gcc-arm-none-eabi-6-2017-q2-update/arm-none-eabi/include/c++/6.3.1/bits/basic_string.h ****        *  Returns a read/write reverse iterator that points to the last
 729:/home/zkmike/.local/share/renesas/e2_studio/toolchains/gcc_arm/gcc-arm-none-eabi-6-2017-q2-update/arm-none-eabi/include/c++/6.3.1/bits/basic_string.h ****        *  character in the %string.  Iteration is done in reverse element
 730:/home/zkmike/.local/share/renesas/e2_studio/toolchains/gcc_arm/gcc-arm-none-eabi-6-2017-q2-update/arm-none-eabi/include/c++/6.3.1/bits/basic_string.h ****        *  order.
 731:/home/zkmike/.local/share/renesas/e2_studio/toolchains/gcc_arm/gcc-arm-none-eabi-6-2017-q2-update/arm-none-eabi/include/c++/6.3.1/bits/basic_string.h ****        */
 732:/home/zkmike/.local/share/renesas/e2_studio/toolchains/gcc_arm/gcc-arm-none-eabi-6-2017-q2-update/arm-none-eabi/include/c++/6.3.1/bits/basic_string.h ****       reverse_iterator
 733:/home/zkmike/.local/share/renesas/e2_studio/toolchains/gcc_arm/gcc-arm-none-eabi-6-2017-q2-update/arm-none-eabi/include/c++/6.3.1/bits/basic_string.h ****       rbegin() _GLIBCXX_NOEXCEPT
 734:/home/zkmike/.local/share/renesas/e2_studio/toolchains/gcc_arm/gcc-arm-none-eabi-6-2017-q2-update/arm-none-eabi/include/c++/6.3.1/bits/basic_string.h ****       { return reverse_iterator(this->end()); }
 735:/home/zkmike/.local/share/renesas/e2_studio/toolchains/gcc_arm/gcc-arm-none-eabi-6-2017-q2-update/arm-none-eabi/include/c++/6.3.1/bits/basic_string.h **** 
 736:/home/zkmike/.local/share/renesas/e2_studio/toolchains/gcc_arm/gcc-arm-none-eabi-6-2017-q2-update/arm-none-eabi/include/c++/6.3.1/bits/basic_string.h ****       /**
 737:/home/zkmike/.local/share/renesas/e2_studio/toolchains/gcc_arm/gcc-arm-none-eabi-6-2017-q2-update/arm-none-eabi/include/c++/6.3.1/bits/basic_string.h ****        *  Returns a read-only (constant) reverse iterator that points
 738:/home/zkmike/.local/share/renesas/e2_studio/toolchains/gcc_arm/gcc-arm-none-eabi-6-2017-q2-update/arm-none-eabi/include/c++/6.3.1/bits/basic_string.h ****        *  to the last character in the %string.  Iteration is done in
 739:/home/zkmike/.local/share/renesas/e2_studio/toolchains/gcc_arm/gcc-arm-none-eabi-6-2017-q2-update/arm-none-eabi/include/c++/6.3.1/bits/basic_string.h ****        *  reverse element order.
 740:/home/zkmike/.local/share/renesas/e2_studio/toolchains/gcc_arm/gcc-arm-none-eabi-6-2017-q2-update/arm-none-eabi/include/c++/6.3.1/bits/basic_string.h ****        */
 741:/home/zkmike/.local/share/renesas/e2_studio/toolchains/gcc_arm/gcc-arm-none-eabi-6-2017-q2-update/arm-none-eabi/include/c++/6.3.1/bits/basic_string.h ****       const_reverse_iterator
 742:/home/zkmike/.local/share/renesas/e2_studio/toolchains/gcc_arm/gcc-arm-none-eabi-6-2017-q2-update/arm-none-eabi/include/c++/6.3.1/bits/basic_string.h ****       rbegin() const _GLIBCXX_NOEXCEPT
 743:/home/zkmike/.local/share/renesas/e2_studio/toolchains/gcc_arm/gcc-arm-none-eabi-6-2017-q2-update/arm-none-eabi/include/c++/6.3.1/bits/basic_string.h ****       { return const_reverse_iterator(this->end()); }
 744:/home/zkmike/.local/share/renesas/e2_studio/toolchains/gcc_arm/gcc-arm-none-eabi-6-2017-q2-update/arm-none-eabi/include/c++/6.3.1/bits/basic_string.h **** 
 745:/home/zkmike/.local/share/renesas/e2_studio/toolchains/gcc_arm/gcc-arm-none-eabi-6-2017-q2-update/arm-none-eabi/include/c++/6.3.1/bits/basic_string.h ****       /**
 746:/home/zkmike/.local/share/renesas/e2_studio/toolchains/gcc_arm/gcc-arm-none-eabi-6-2017-q2-update/arm-none-eabi/include/c++/6.3.1/bits/basic_string.h ****        *  Returns a read/write reverse iterator that points to one before the
 747:/home/zkmike/.local/share/renesas/e2_studio/toolchains/gcc_arm/gcc-arm-none-eabi-6-2017-q2-update/arm-none-eabi/include/c++/6.3.1/bits/basic_string.h ****        *  first character in the %string.  Iteration is done in reverse
 748:/home/zkmike/.local/share/renesas/e2_studio/toolchains/gcc_arm/gcc-arm-none-eabi-6-2017-q2-update/arm-none-eabi/include/c++/6.3.1/bits/basic_string.h ****        *  element order.
 749:/home/zkmike/.local/share/renesas/e2_studio/toolchains/gcc_arm/gcc-arm-none-eabi-6-2017-q2-update/arm-none-eabi/include/c++/6.3.1/bits/basic_string.h ****        */
 750:/home/zkmike/.local/share/renesas/e2_studio/toolchains/gcc_arm/gcc-arm-none-eabi-6-2017-q2-update/arm-none-eabi/include/c++/6.3.1/bits/basic_string.h ****       reverse_iterator
 751:/home/zkmike/.local/share/renesas/e2_studio/toolchains/gcc_arm/gcc-arm-none-eabi-6-2017-q2-update/arm-none-eabi/include/c++/6.3.1/bits/basic_string.h ****       rend() _GLIBCXX_NOEXCEPT
 752:/home/zkmike/.local/share/renesas/e2_studio/toolchains/gcc_arm/gcc-arm-none-eabi-6-2017-q2-update/arm-none-eabi/include/c++/6.3.1/bits/basic_string.h ****       { return reverse_iterator(this->begin()); }
 753:/home/zkmike/.local/share/renesas/e2_studio/toolchains/gcc_arm/gcc-arm-none-eabi-6-2017-q2-update/arm-none-eabi/include/c++/6.3.1/bits/basic_string.h **** 
 754:/home/zkmike/.local/share/renesas/e2_studio/toolchains/gcc_arm/gcc-arm-none-eabi-6-2017-q2-update/arm-none-eabi/include/c++/6.3.1/bits/basic_string.h ****       /**
 755:/home/zkmike/.local/share/renesas/e2_studio/toolchains/gcc_arm/gcc-arm-none-eabi-6-2017-q2-update/arm-none-eabi/include/c++/6.3.1/bits/basic_string.h ****        *  Returns a read-only (constant) reverse iterator that points
 756:/home/zkmike/.local/share/renesas/e2_studio/toolchains/gcc_arm/gcc-arm-none-eabi-6-2017-q2-update/arm-none-eabi/include/c++/6.3.1/bits/basic_string.h ****        *  to one before the first character in the %string.  Iteration
 757:/home/zkmike/.local/share/renesas/e2_studio/toolchains/gcc_arm/gcc-arm-none-eabi-6-2017-q2-update/arm-none-eabi/include/c++/6.3.1/bits/basic_string.h ****        *  is done in reverse element order.
 758:/home/zkmike/.local/share/renesas/e2_studio/toolchains/gcc_arm/gcc-arm-none-eabi-6-2017-q2-update/arm-none-eabi/include/c++/6.3.1/bits/basic_string.h ****        */
 759:/home/zkmike/.local/share/renesas/e2_studio/toolchains/gcc_arm/gcc-arm-none-eabi-6-2017-q2-update/arm-none-eabi/include/c++/6.3.1/bits/basic_string.h ****       const_reverse_iterator
 760:/home/zkmike/.local/share/renesas/e2_studio/toolchains/gcc_arm/gcc-arm-none-eabi-6-2017-q2-update/arm-none-eabi/include/c++/6.3.1/bits/basic_string.h ****       rend() const _GLIBCXX_NOEXCEPT
 761:/home/zkmike/.local/share/renesas/e2_studio/toolchains/gcc_arm/gcc-arm-none-eabi-6-2017-q2-update/arm-none-eabi/include/c++/6.3.1/bits/basic_string.h ****       { return const_reverse_iterator(this->begin()); }
 762:/home/zkmike/.local/share/renesas/e2_studio/toolchains/gcc_arm/gcc-arm-none-eabi-6-2017-q2-update/arm-none-eabi/include/c++/6.3.1/bits/basic_string.h **** 
 763:/home/zkmike/.local/share/renesas/e2_studio/toolchains/gcc_arm/gcc-arm-none-eabi-6-2017-q2-update/arm-none-eabi/include/c++/6.3.1/bits/basic_string.h **** #if __cplusplus >= 201103L
 764:/home/zkmike/.local/share/renesas/e2_studio/toolchains/gcc_arm/gcc-arm-none-eabi-6-2017-q2-update/arm-none-eabi/include/c++/6.3.1/bits/basic_string.h ****       /**
 765:/home/zkmike/.local/share/renesas/e2_studio/toolchains/gcc_arm/gcc-arm-none-eabi-6-2017-q2-update/arm-none-eabi/include/c++/6.3.1/bits/basic_string.h ****        *  Returns a read-only (constant) iterator that points to the first
 766:/home/zkmike/.local/share/renesas/e2_studio/toolchains/gcc_arm/gcc-arm-none-eabi-6-2017-q2-update/arm-none-eabi/include/c++/6.3.1/bits/basic_string.h ****        *  character in the %string.
 767:/home/zkmike/.local/share/renesas/e2_studio/toolchains/gcc_arm/gcc-arm-none-eabi-6-2017-q2-update/arm-none-eabi/include/c++/6.3.1/bits/basic_string.h ****        */
 768:/home/zkmike/.local/share/renesas/e2_studio/toolchains/gcc_arm/gcc-arm-none-eabi-6-2017-q2-update/arm-none-eabi/include/c++/6.3.1/bits/basic_string.h ****       const_iterator
 769:/home/zkmike/.local/share/renesas/e2_studio/toolchains/gcc_arm/gcc-arm-none-eabi-6-2017-q2-update/arm-none-eabi/include/c++/6.3.1/bits/basic_string.h ****       cbegin() const noexcept
 770:/home/zkmike/.local/share/renesas/e2_studio/toolchains/gcc_arm/gcc-arm-none-eabi-6-2017-q2-update/arm-none-eabi/include/c++/6.3.1/bits/basic_string.h ****       { return const_iterator(this->_M_data()); }
 771:/home/zkmike/.local/share/renesas/e2_studio/toolchains/gcc_arm/gcc-arm-none-eabi-6-2017-q2-update/arm-none-eabi/include/c++/6.3.1/bits/basic_string.h **** 
 772:/home/zkmike/.local/share/renesas/e2_studio/toolchains/gcc_arm/gcc-arm-none-eabi-6-2017-q2-update/arm-none-eabi/include/c++/6.3.1/bits/basic_string.h ****       /**
 773:/home/zkmike/.local/share/renesas/e2_studio/toolchains/gcc_arm/gcc-arm-none-eabi-6-2017-q2-update/arm-none-eabi/include/c++/6.3.1/bits/basic_string.h ****        *  Returns a read-only (constant) iterator that points one past the
 774:/home/zkmike/.local/share/renesas/e2_studio/toolchains/gcc_arm/gcc-arm-none-eabi-6-2017-q2-update/arm-none-eabi/include/c++/6.3.1/bits/basic_string.h ****        *  last character in the %string.
 775:/home/zkmike/.local/share/renesas/e2_studio/toolchains/gcc_arm/gcc-arm-none-eabi-6-2017-q2-update/arm-none-eabi/include/c++/6.3.1/bits/basic_string.h ****        */
 776:/home/zkmike/.local/share/renesas/e2_studio/toolchains/gcc_arm/gcc-arm-none-eabi-6-2017-q2-update/arm-none-eabi/include/c++/6.3.1/bits/basic_string.h ****       const_iterator
 777:/home/zkmike/.local/share/renesas/e2_studio/toolchains/gcc_arm/gcc-arm-none-eabi-6-2017-q2-update/arm-none-eabi/include/c++/6.3.1/bits/basic_string.h ****       cend() const noexcept
 778:/home/zkmike/.local/share/renesas/e2_studio/toolchains/gcc_arm/gcc-arm-none-eabi-6-2017-q2-update/arm-none-eabi/include/c++/6.3.1/bits/basic_string.h ****       { return const_iterator(this->_M_data() + this->size()); }
 779:/home/zkmike/.local/share/renesas/e2_studio/toolchains/gcc_arm/gcc-arm-none-eabi-6-2017-q2-update/arm-none-eabi/include/c++/6.3.1/bits/basic_string.h **** 
 780:/home/zkmike/.local/share/renesas/e2_studio/toolchains/gcc_arm/gcc-arm-none-eabi-6-2017-q2-update/arm-none-eabi/include/c++/6.3.1/bits/basic_string.h ****       /**
 781:/home/zkmike/.local/share/renesas/e2_studio/toolchains/gcc_arm/gcc-arm-none-eabi-6-2017-q2-update/arm-none-eabi/include/c++/6.3.1/bits/basic_string.h ****        *  Returns a read-only (constant) reverse iterator that points
 782:/home/zkmike/.local/share/renesas/e2_studio/toolchains/gcc_arm/gcc-arm-none-eabi-6-2017-q2-update/arm-none-eabi/include/c++/6.3.1/bits/basic_string.h ****        *  to the last character in the %string.  Iteration is done in
 783:/home/zkmike/.local/share/renesas/e2_studio/toolchains/gcc_arm/gcc-arm-none-eabi-6-2017-q2-update/arm-none-eabi/include/c++/6.3.1/bits/basic_string.h ****        *  reverse element order.
 784:/home/zkmike/.local/share/renesas/e2_studio/toolchains/gcc_arm/gcc-arm-none-eabi-6-2017-q2-update/arm-none-eabi/include/c++/6.3.1/bits/basic_string.h ****        */
 785:/home/zkmike/.local/share/renesas/e2_studio/toolchains/gcc_arm/gcc-arm-none-eabi-6-2017-q2-update/arm-none-eabi/include/c++/6.3.1/bits/basic_string.h ****       const_reverse_iterator
 786:/home/zkmike/.local/share/renesas/e2_studio/toolchains/gcc_arm/gcc-arm-none-eabi-6-2017-q2-update/arm-none-eabi/include/c++/6.3.1/bits/basic_string.h ****       crbegin() const noexcept
 787:/home/zkmike/.local/share/renesas/e2_studio/toolchains/gcc_arm/gcc-arm-none-eabi-6-2017-q2-update/arm-none-eabi/include/c++/6.3.1/bits/basic_string.h ****       { return const_reverse_iterator(this->end()); }
 788:/home/zkmike/.local/share/renesas/e2_studio/toolchains/gcc_arm/gcc-arm-none-eabi-6-2017-q2-update/arm-none-eabi/include/c++/6.3.1/bits/basic_string.h **** 
 789:/home/zkmike/.local/share/renesas/e2_studio/toolchains/gcc_arm/gcc-arm-none-eabi-6-2017-q2-update/arm-none-eabi/include/c++/6.3.1/bits/basic_string.h ****       /**
 790:/home/zkmike/.local/share/renesas/e2_studio/toolchains/gcc_arm/gcc-arm-none-eabi-6-2017-q2-update/arm-none-eabi/include/c++/6.3.1/bits/basic_string.h ****        *  Returns a read-only (constant) reverse iterator that points
 791:/home/zkmike/.local/share/renesas/e2_studio/toolchains/gcc_arm/gcc-arm-none-eabi-6-2017-q2-update/arm-none-eabi/include/c++/6.3.1/bits/basic_string.h ****        *  to one before the first character in the %string.  Iteration
 792:/home/zkmike/.local/share/renesas/e2_studio/toolchains/gcc_arm/gcc-arm-none-eabi-6-2017-q2-update/arm-none-eabi/include/c++/6.3.1/bits/basic_string.h ****        *  is done in reverse element order.
 793:/home/zkmike/.local/share/renesas/e2_studio/toolchains/gcc_arm/gcc-arm-none-eabi-6-2017-q2-update/arm-none-eabi/include/c++/6.3.1/bits/basic_string.h ****        */
 794:/home/zkmike/.local/share/renesas/e2_studio/toolchains/gcc_arm/gcc-arm-none-eabi-6-2017-q2-update/arm-none-eabi/include/c++/6.3.1/bits/basic_string.h ****       const_reverse_iterator
 795:/home/zkmike/.local/share/renesas/e2_studio/toolchains/gcc_arm/gcc-arm-none-eabi-6-2017-q2-update/arm-none-eabi/include/c++/6.3.1/bits/basic_string.h ****       crend() const noexcept
 796:/home/zkmike/.local/share/renesas/e2_studio/toolchains/gcc_arm/gcc-arm-none-eabi-6-2017-q2-update/arm-none-eabi/include/c++/6.3.1/bits/basic_string.h ****       { return const_reverse_iterator(this->begin()); }
 797:/home/zkmike/.local/share/renesas/e2_studio/toolchains/gcc_arm/gcc-arm-none-eabi-6-2017-q2-update/arm-none-eabi/include/c++/6.3.1/bits/basic_string.h **** #endif
 798:/home/zkmike/.local/share/renesas/e2_studio/toolchains/gcc_arm/gcc-arm-none-eabi-6-2017-q2-update/arm-none-eabi/include/c++/6.3.1/bits/basic_string.h **** 
 799:/home/zkmike/.local/share/renesas/e2_studio/toolchains/gcc_arm/gcc-arm-none-eabi-6-2017-q2-update/arm-none-eabi/include/c++/6.3.1/bits/basic_string.h ****     public:
 800:/home/zkmike/.local/share/renesas/e2_studio/toolchains/gcc_arm/gcc-arm-none-eabi-6-2017-q2-update/arm-none-eabi/include/c++/6.3.1/bits/basic_string.h ****       // Capacity:
 801:/home/zkmike/.local/share/renesas/e2_studio/toolchains/gcc_arm/gcc-arm-none-eabi-6-2017-q2-update/arm-none-eabi/include/c++/6.3.1/bits/basic_string.h ****       ///  Returns the number of characters in the string, not including any
 802:/home/zkmike/.local/share/renesas/e2_studio/toolchains/gcc_arm/gcc-arm-none-eabi-6-2017-q2-update/arm-none-eabi/include/c++/6.3.1/bits/basic_string.h ****       ///  null-termination.
 803:/home/zkmike/.local/share/renesas/e2_studio/toolchains/gcc_arm/gcc-arm-none-eabi-6-2017-q2-update/arm-none-eabi/include/c++/6.3.1/bits/basic_string.h ****       size_type
 804:/home/zkmike/.local/share/renesas/e2_studio/toolchains/gcc_arm/gcc-arm-none-eabi-6-2017-q2-update/arm-none-eabi/include/c++/6.3.1/bits/basic_string.h ****       size() const _GLIBCXX_NOEXCEPT
 805:/home/zkmike/.local/share/renesas/e2_studio/toolchains/gcc_arm/gcc-arm-none-eabi-6-2017-q2-update/arm-none-eabi/include/c++/6.3.1/bits/basic_string.h ****       { return _M_string_length; }
 806:/home/zkmike/.local/share/renesas/e2_studio/toolchains/gcc_arm/gcc-arm-none-eabi-6-2017-q2-update/arm-none-eabi/include/c++/6.3.1/bits/basic_string.h **** 
 807:/home/zkmike/.local/share/renesas/e2_studio/toolchains/gcc_arm/gcc-arm-none-eabi-6-2017-q2-update/arm-none-eabi/include/c++/6.3.1/bits/basic_string.h ****       ///  Returns the number of characters in the string, not including any
 808:/home/zkmike/.local/share/renesas/e2_studio/toolchains/gcc_arm/gcc-arm-none-eabi-6-2017-q2-update/arm-none-eabi/include/c++/6.3.1/bits/basic_string.h ****       ///  null-termination.
 809:/home/zkmike/.local/share/renesas/e2_studio/toolchains/gcc_arm/gcc-arm-none-eabi-6-2017-q2-update/arm-none-eabi/include/c++/6.3.1/bits/basic_string.h ****       size_type
 810:/home/zkmike/.local/share/renesas/e2_studio/toolchains/gcc_arm/gcc-arm-none-eabi-6-2017-q2-update/arm-none-eabi/include/c++/6.3.1/bits/basic_string.h ****       length() const _GLIBCXX_NOEXCEPT
 811:/home/zkmike/.local/share/renesas/e2_studio/toolchains/gcc_arm/gcc-arm-none-eabi-6-2017-q2-update/arm-none-eabi/include/c++/6.3.1/bits/basic_string.h ****       { return _M_string_length; }
 1971              		.loc 3 811 0
 1972 024c FC209DE5 		ldr	r2, [sp, #252]
 1973              	.LVL200:
 1974              	.LBE1269:
 1975              	.LBE1268:
 1976              	.LBB1270:
 1977              	.LBB1271:
 132:/home/zkmike/.local/share/renesas/e2_studio/toolchains/gcc_arm/gcc-arm-none-eabi-6-2017-q2-update/arm-none-eabi/include/c++/6.3.1/bits/basic_string.h **** 
 1978              		.loc 3 132 0
 1979 0250 CC208DE5 		str	r2, [sp, #204]
 1980              	.LVL201:
 1981              	.LBE1271:
 1982              	.LBE1270:
 667:/home/zkmike/.local/share/renesas/e2_studio/toolchains/gcc_arm/gcc-arm-none-eabi-6-2017-q2-update/arm-none-eabi/include/c++/6.3.1/bits/basic_string.h **** 	    if (__data)
 1983              		.loc 3 667 0
 1984 0254 00219DE5 		ldr	r2, [sp, #256]
 1985              	.LVL202:
 1986              	.LBB1272:
 1987              	.LBB1273:
 160:/home/zkmike/.local/share/renesas/e2_studio/toolchains/gcc_arm/gcc-arm-none-eabi-6-2017-q2-update/arm-none-eabi/include/c++/6.3.1/bits/basic_string.h **** 
 1988              		.loc 3 160 0
 1989 0258 D0208DE5 		str	r2, [sp, #208]
 1990              	.LVL203:
 1991              	.LBE1273:
 1992              	.LBE1272:
 668:/home/zkmike/.local/share/renesas/e2_studio/toolchains/gcc_arm/gcc-arm-none-eabi-6-2017-q2-update/arm-none-eabi/include/c++/6.3.1/bits/basic_string.h **** 	      {
 1993              		.loc 3 668 0
 1994 025c 000053E3 		cmp	r3, #0
 1995 0260 1100000A 		beq	.L119
 1996              	.LVL204:
 1997              	.LBB1274:
 1998              	.LBB1275:
 128:/home/zkmike/.local/share/renesas/e2_studio/toolchains/gcc_arm/gcc-arm-none-eabi-6-2017-q2-update/arm-none-eabi/include/c++/6.3.1/bits/basic_string.h **** 
 1999              		.loc 3 128 0
 2000 0264 F8308DE5 		str	r3, [sp, #248]
 2001              	.LVL205:
 2002              	.LBE1275:
 2003              	.LBE1274:
 2004              	.LBB1276:
 2005              	.LBB1277:
 160:/home/zkmike/.local/share/renesas/e2_studio/toolchains/gcc_arm/gcc-arm-none-eabi-6-2017-q2-update/arm-none-eabi/include/c++/6.3.1/bits/basic_string.h **** 
 2006              		.loc 3 160 0
 2007 0268 00718DE5 		str	r7, [sp, #256]
 2008              	.LVL206:
 2009              	.L120:
 2010              	.LBE1277:
 2011              	.LBE1276:
 2012              	.LBE1265:
 2013              	.LBE1261:
 2014              	.LBB1283:
 2015              	.LBB1284:
 2016              	.LBB1285:
 2017              	.LBB1286:
 132:/home/zkmike/.local/share/renesas/e2_studio/toolchains/gcc_arm/gcc-arm-none-eabi-6-2017-q2-update/arm-none-eabi/include/c++/6.3.1/bits/basic_string.h **** 
 2018              		.loc 3 132 0
 2019 026c 0030A0E3 		mov	r3, #0
 2020 0270 FC308DE5 		str	r3, [sp, #252]
 2021              	.LVL207:
 2022              	.LBE1286:
 2023              	.LBE1285:
 2024              	.LBB1287:
 2025              	.LBB1288:
 136:/home/zkmike/.local/share/renesas/e2_studio/toolchains/gcc_arm/gcc-arm-none-eabi-6-2017-q2-update/arm-none-eabi/include/c++/6.3.1/bits/basic_string.h **** 
 2026              		.loc 3 136 0
 2027 0274 F8209DE5 		ldr	r2, [sp, #248]
 2028              	.LVL208:
 2029              	.LBE1288:
 2030              	.LBE1287:
 2031              	.LBB1289:
 2032              	.LBB1290:
 243:/home/zkmike/.local/share/renesas/e2_studio/toolchains/gcc_arm/gcc-arm-none-eabi-6-2017-q2-update/arm-none-eabi/include/c++/6.3.1/bits/char_traits.h **** 
 2033              		.loc 11 243 0
 2034 0278 0030C2E5 		strb	r3, [r2]
 2035              	.LVL209:
 2036              	.LBE1290:
 2037              	.LBE1289:
 2038              	.LBE1284:
 2039              	.LBE1283:
 2040              	.LBE1257:
 2041              	.LBB1292:
 2042              	.LBB1293:
 2043              	.LBB1294:
 2044              	.LBB1295:
 2045              	.LBB1296:
 2046              	.LBB1297:
 136:/home/zkmike/.local/share/renesas/e2_studio/toolchains/gcc_arm/gcc-arm-none-eabi-6-2017-q2-update/arm-none-eabi/include/c++/6.3.1/bits/basic_string.h **** 
 2047              		.loc 3 136 0
 2048 027c F8009DE5 		ldr	r0, [sp, #248]
 2049              	.LVL210:
 2050              	.LBE1297:
 2051              	.LBE1296:
 2052              	.LBE1295:
 180:/home/zkmike/.local/share/renesas/e2_studio/toolchains/gcc_arm/gcc-arm-none-eabi-6-2017-q2-update/arm-none-eabi/include/c++/6.3.1/bits/basic_string.h **** 	  _M_destroy(_M_allocated_capacity);
 2053              		.loc 3 180 0
 2054 0280 013C8DE2 		add	r3, sp, #256
 2055 0284 030050E1 		cmp	r0, r3
 2056 0288 0000000A 		beq	.L122
 2057              	.LVL211:
 2058              	.LBB1298:
 2059              	.LBB1299:
 2060              	.LBB1300:
 2061              	.LBB1301:
 2062              		.loc 4 110 0
 2063 028c FEFFFFEB 		bl	_ZdlPv
 2064              	.LVL212:
 2065              	.L122:
 2066              	.LBE1301:
 2067              	.LBE1300:
 2068              	.LBE1299:
 2069              	.LBE1298:
 2070              	.LBE1294:
 2071              	.LBE1293:
 2072              	.LBE1292:
 2073              	.LBE1235:
 2074              	.LBE1234:
 2075              	.LBE1233:
 2076              	.LBB1373:
 2077              	.LBB1374:
 2078              	.LBB1375:
 2079              	.LBB1376:
 2080              	.LBB1377:
  35:/home/zkmike/workspace/RZA2M/rza2m_2d_barcode_sample_freertos_gcc/src/zxing_lib/zxing/Exception.h ****   Exception(Exception const& that) throw() : std::exception(that), message(copy(that.message)) {}
 2081              		.loc 1 35 0
 2082 0290 A0319FE5 		ldr	r3, .L148+16
 2083 0294 003084E5 		str	r3, [r4]
 2084              	.LVL213:
 2085 0298 C8009DE5 		ldr	r0, [sp, #200]
 2086              	.LEHB14:
 2087 029c FEFFFFEB 		bl	_ZN5zxing9Exception4copyEPKc
 2088              	.LVL214:
 2089              	.LEHE14:
 2090 02a0 420000EA 		b	.L147
 2091              	.LVL215:
 2092              	.L136:
 2093              	.LBE1377:
 2094              	.LBE1376:
 2095              	.LBE1375:
 2096              	.LBE1374:
 2097              	.LBE1373:
 2098              	.LBB1386:
 2099              	.LBB1372:
 2100              	.LBB1371:
 2101              	.LBB1302:
 2102              	.LBB1291:
 2103              	.LBB1280:
 652:/home/zkmike/.local/share/renesas/e2_studio/toolchains/gcc_arm/gcc-arm-none-eabi-6-2017-q2-update/arm-none-eabi/include/c++/6.3.1/bits/basic_string.h **** 	    size_type __capacity;
 2104              		.loc 3 652 0
 2105 02a4 0030A0E3 		mov	r3, #0
 2106 02a8 E6FFFFEA 		b	.L118
 2107              	.LVL216:
 2108              	.L119:
 2109              	.LBB1278:
 2110              	.LBB1279:
 128:/home/zkmike/.local/share/renesas/e2_studio/toolchains/gcc_arm/gcc-arm-none-eabi-6-2017-q2-update/arm-none-eabi/include/c++/6.3.1/bits/basic_string.h **** 
 2111              		.loc 3 128 0
 2112 02ac 013C8DE2 		add	r3, sp, #256
 2113              	.LVL217:
 2114 02b0 F8308DE5 		str	r3, [sp, #248]
 2115 02b4 ECFFFFEA 		b	.L120
 2116              	.LVL218:
 2117              	.L117:
 2118              	.LBE1279:
 2119              	.LBE1278:
 2120              	.LBE1280:
 2121              	.LBB1281:
 2122              	.LBB1282:
 812:/home/zkmike/.local/share/renesas/e2_studio/toolchains/gcc_arm/gcc-arm-none-eabi-6-2017-q2-update/arm-none-eabi/include/c++/6.3.1/bits/basic_string.h **** 
 813:/home/zkmike/.local/share/renesas/e2_studio/toolchains/gcc_arm/gcc-arm-none-eabi-6-2017-q2-update/arm-none-eabi/include/c++/6.3.1/bits/basic_string.h ****       ///  Returns the size() of the largest possible %string.
 814:/home/zkmike/.local/share/renesas/e2_studio/toolchains/gcc_arm/gcc-arm-none-eabi-6-2017-q2-update/arm-none-eabi/include/c++/6.3.1/bits/basic_string.h ****       size_type
 815:/home/zkmike/.local/share/renesas/e2_studio/toolchains/gcc_arm/gcc-arm-none-eabi-6-2017-q2-update/arm-none-eabi/include/c++/6.3.1/bits/basic_string.h ****       max_size() const _GLIBCXX_NOEXCEPT
 816:/home/zkmike/.local/share/renesas/e2_studio/toolchains/gcc_arm/gcc-arm-none-eabi-6-2017-q2-update/arm-none-eabi/include/c++/6.3.1/bits/basic_string.h ****       { return (_Alloc_traits::max_size(_M_get_allocator()) - 1) / 2; }
 817:/home/zkmike/.local/share/renesas/e2_studio/toolchains/gcc_arm/gcc-arm-none-eabi-6-2017-q2-update/arm-none-eabi/include/c++/6.3.1/bits/basic_string.h **** 
 818:/home/zkmike/.local/share/renesas/e2_studio/toolchains/gcc_arm/gcc-arm-none-eabi-6-2017-q2-update/arm-none-eabi/include/c++/6.3.1/bits/basic_string.h ****       /**
 819:/home/zkmike/.local/share/renesas/e2_studio/toolchains/gcc_arm/gcc-arm-none-eabi-6-2017-q2-update/arm-none-eabi/include/c++/6.3.1/bits/basic_string.h ****        *  @brief  Resizes the %string to the specified number of characters.
 820:/home/zkmike/.local/share/renesas/e2_studio/toolchains/gcc_arm/gcc-arm-none-eabi-6-2017-q2-update/arm-none-eabi/include/c++/6.3.1/bits/basic_string.h ****        *  @param  __n  Number of characters the %string should contain.
 821:/home/zkmike/.local/share/renesas/e2_studio/toolchains/gcc_arm/gcc-arm-none-eabi-6-2017-q2-update/arm-none-eabi/include/c++/6.3.1/bits/basic_string.h ****        *  @param  __c  Character to fill any new elements.
 822:/home/zkmike/.local/share/renesas/e2_studio/toolchains/gcc_arm/gcc-arm-none-eabi-6-2017-q2-update/arm-none-eabi/include/c++/6.3.1/bits/basic_string.h ****        *
 823:/home/zkmike/.local/share/renesas/e2_studio/toolchains/gcc_arm/gcc-arm-none-eabi-6-2017-q2-update/arm-none-eabi/include/c++/6.3.1/bits/basic_string.h ****        *  This function will %resize the %string to the specified
 824:/home/zkmike/.local/share/renesas/e2_studio/toolchains/gcc_arm/gcc-arm-none-eabi-6-2017-q2-update/arm-none-eabi/include/c++/6.3.1/bits/basic_string.h ****        *  number of characters.  If the number is smaller than the
 825:/home/zkmike/.local/share/renesas/e2_studio/toolchains/gcc_arm/gcc-arm-none-eabi-6-2017-q2-update/arm-none-eabi/include/c++/6.3.1/bits/basic_string.h ****        *  %string's current size the %string is truncated, otherwise
 826:/home/zkmike/.local/share/renesas/e2_studio/toolchains/gcc_arm/gcc-arm-none-eabi-6-2017-q2-update/arm-none-eabi/include/c++/6.3.1/bits/basic_string.h ****        *  the %string is extended and new elements are %set to @a __c.
 827:/home/zkmike/.local/share/renesas/e2_studio/toolchains/gcc_arm/gcc-arm-none-eabi-6-2017-q2-update/arm-none-eabi/include/c++/6.3.1/bits/basic_string.h ****        */
 828:/home/zkmike/.local/share/renesas/e2_studio/toolchains/gcc_arm/gcc-arm-none-eabi-6-2017-q2-update/arm-none-eabi/include/c++/6.3.1/bits/basic_string.h ****       void
 829:/home/zkmike/.local/share/renesas/e2_studio/toolchains/gcc_arm/gcc-arm-none-eabi-6-2017-q2-update/arm-none-eabi/include/c++/6.3.1/bits/basic_string.h ****       resize(size_type __n, _CharT __c);
 830:/home/zkmike/.local/share/renesas/e2_studio/toolchains/gcc_arm/gcc-arm-none-eabi-6-2017-q2-update/arm-none-eabi/include/c++/6.3.1/bits/basic_string.h **** 
 831:/home/zkmike/.local/share/renesas/e2_studio/toolchains/gcc_arm/gcc-arm-none-eabi-6-2017-q2-update/arm-none-eabi/include/c++/6.3.1/bits/basic_string.h ****       /**
 832:/home/zkmike/.local/share/renesas/e2_studio/toolchains/gcc_arm/gcc-arm-none-eabi-6-2017-q2-update/arm-none-eabi/include/c++/6.3.1/bits/basic_string.h ****        *  @brief  Resizes the %string to the specified number of characters.
 833:/home/zkmike/.local/share/renesas/e2_studio/toolchains/gcc_arm/gcc-arm-none-eabi-6-2017-q2-update/arm-none-eabi/include/c++/6.3.1/bits/basic_string.h ****        *  @param  __n  Number of characters the %string should contain.
 834:/home/zkmike/.local/share/renesas/e2_studio/toolchains/gcc_arm/gcc-arm-none-eabi-6-2017-q2-update/arm-none-eabi/include/c++/6.3.1/bits/basic_string.h ****        *
 835:/home/zkmike/.local/share/renesas/e2_studio/toolchains/gcc_arm/gcc-arm-none-eabi-6-2017-q2-update/arm-none-eabi/include/c++/6.3.1/bits/basic_string.h ****        *  This function will resize the %string to the specified length.  If
 836:/home/zkmike/.local/share/renesas/e2_studio/toolchains/gcc_arm/gcc-arm-none-eabi-6-2017-q2-update/arm-none-eabi/include/c++/6.3.1/bits/basic_string.h ****        *  the new size is smaller than the %string's current size the %string
 837:/home/zkmike/.local/share/renesas/e2_studio/toolchains/gcc_arm/gcc-arm-none-eabi-6-2017-q2-update/arm-none-eabi/include/c++/6.3.1/bits/basic_string.h ****        *  is truncated, otherwise the %string is extended and new characters
 838:/home/zkmike/.local/share/renesas/e2_studio/toolchains/gcc_arm/gcc-arm-none-eabi-6-2017-q2-update/arm-none-eabi/include/c++/6.3.1/bits/basic_string.h ****        *  are default-constructed.  For basic types such as char, this means
 839:/home/zkmike/.local/share/renesas/e2_studio/toolchains/gcc_arm/gcc-arm-none-eabi-6-2017-q2-update/arm-none-eabi/include/c++/6.3.1/bits/basic_string.h ****        *  setting them to 0.
 840:/home/zkmike/.local/share/renesas/e2_studio/toolchains/gcc_arm/gcc-arm-none-eabi-6-2017-q2-update/arm-none-eabi/include/c++/6.3.1/bits/basic_string.h ****        */
 841:/home/zkmike/.local/share/renesas/e2_studio/toolchains/gcc_arm/gcc-arm-none-eabi-6-2017-q2-update/arm-none-eabi/include/c++/6.3.1/bits/basic_string.h ****       void
 842:/home/zkmike/.local/share/renesas/e2_studio/toolchains/gcc_arm/gcc-arm-none-eabi-6-2017-q2-update/arm-none-eabi/include/c++/6.3.1/bits/basic_string.h ****       resize(size_type __n)
 843:/home/zkmike/.local/share/renesas/e2_studio/toolchains/gcc_arm/gcc-arm-none-eabi-6-2017-q2-update/arm-none-eabi/include/c++/6.3.1/bits/basic_string.h ****       { this->resize(__n, _CharT()); }
 844:/home/zkmike/.local/share/renesas/e2_studio/toolchains/gcc_arm/gcc-arm-none-eabi-6-2017-q2-update/arm-none-eabi/include/c++/6.3.1/bits/basic_string.h **** 
 845:/home/zkmike/.local/share/renesas/e2_studio/toolchains/gcc_arm/gcc-arm-none-eabi-6-2017-q2-update/arm-none-eabi/include/c++/6.3.1/bits/basic_string.h **** #if __cplusplus >= 201103L
 846:/home/zkmike/.local/share/renesas/e2_studio/toolchains/gcc_arm/gcc-arm-none-eabi-6-2017-q2-update/arm-none-eabi/include/c++/6.3.1/bits/basic_string.h ****       ///  A non-binding request to reduce capacity() to size().
 847:/home/zkmike/.local/share/renesas/e2_studio/toolchains/gcc_arm/gcc-arm-none-eabi-6-2017-q2-update/arm-none-eabi/include/c++/6.3.1/bits/basic_string.h ****       void
 848:/home/zkmike/.local/share/renesas/e2_studio/toolchains/gcc_arm/gcc-arm-none-eabi-6-2017-q2-update/arm-none-eabi/include/c++/6.3.1/bits/basic_string.h ****       shrink_to_fit() noexcept
 849:/home/zkmike/.local/share/renesas/e2_studio/toolchains/gcc_arm/gcc-arm-none-eabi-6-2017-q2-update/arm-none-eabi/include/c++/6.3.1/bits/basic_string.h ****       {
 850:/home/zkmike/.local/share/renesas/e2_studio/toolchains/gcc_arm/gcc-arm-none-eabi-6-2017-q2-update/arm-none-eabi/include/c++/6.3.1/bits/basic_string.h **** #if __cpp_exceptions
 851:/home/zkmike/.local/share/renesas/e2_studio/toolchains/gcc_arm/gcc-arm-none-eabi-6-2017-q2-update/arm-none-eabi/include/c++/6.3.1/bits/basic_string.h **** 	if (capacity() > size())
 852:/home/zkmike/.local/share/renesas/e2_studio/toolchains/gcc_arm/gcc-arm-none-eabi-6-2017-q2-update/arm-none-eabi/include/c++/6.3.1/bits/basic_string.h **** 	  {
 853:/home/zkmike/.local/share/renesas/e2_studio/toolchains/gcc_arm/gcc-arm-none-eabi-6-2017-q2-update/arm-none-eabi/include/c++/6.3.1/bits/basic_string.h **** 	    try
 854:/home/zkmike/.local/share/renesas/e2_studio/toolchains/gcc_arm/gcc-arm-none-eabi-6-2017-q2-update/arm-none-eabi/include/c++/6.3.1/bits/basic_string.h **** 	      { reserve(0); }
 855:/home/zkmike/.local/share/renesas/e2_studio/toolchains/gcc_arm/gcc-arm-none-eabi-6-2017-q2-update/arm-none-eabi/include/c++/6.3.1/bits/basic_string.h **** 	    catch(...)
 856:/home/zkmike/.local/share/renesas/e2_studio/toolchains/gcc_arm/gcc-arm-none-eabi-6-2017-q2-update/arm-none-eabi/include/c++/6.3.1/bits/basic_string.h **** 	      { }
 857:/home/zkmike/.local/share/renesas/e2_studio/toolchains/gcc_arm/gcc-arm-none-eabi-6-2017-q2-update/arm-none-eabi/include/c++/6.3.1/bits/basic_string.h **** 	  }
 858:/home/zkmike/.local/share/renesas/e2_studio/toolchains/gcc_arm/gcc-arm-none-eabi-6-2017-q2-update/arm-none-eabi/include/c++/6.3.1/bits/basic_string.h **** #endif
 859:/home/zkmike/.local/share/renesas/e2_studio/toolchains/gcc_arm/gcc-arm-none-eabi-6-2017-q2-update/arm-none-eabi/include/c++/6.3.1/bits/basic_string.h ****       }
 860:/home/zkmike/.local/share/renesas/e2_studio/toolchains/gcc_arm/gcc-arm-none-eabi-6-2017-q2-update/arm-none-eabi/include/c++/6.3.1/bits/basic_string.h **** #endif
 861:/home/zkmike/.local/share/renesas/e2_studio/toolchains/gcc_arm/gcc-arm-none-eabi-6-2017-q2-update/arm-none-eabi/include/c++/6.3.1/bits/basic_string.h **** 
 862:/home/zkmike/.local/share/renesas/e2_studio/toolchains/gcc_arm/gcc-arm-none-eabi-6-2017-q2-update/arm-none-eabi/include/c++/6.3.1/bits/basic_string.h ****       /**
 863:/home/zkmike/.local/share/renesas/e2_studio/toolchains/gcc_arm/gcc-arm-none-eabi-6-2017-q2-update/arm-none-eabi/include/c++/6.3.1/bits/basic_string.h ****        *  Returns the total number of characters that the %string can hold
 864:/home/zkmike/.local/share/renesas/e2_studio/toolchains/gcc_arm/gcc-arm-none-eabi-6-2017-q2-update/arm-none-eabi/include/c++/6.3.1/bits/basic_string.h ****        *  before needing to allocate more memory.
 865:/home/zkmike/.local/share/renesas/e2_studio/toolchains/gcc_arm/gcc-arm-none-eabi-6-2017-q2-update/arm-none-eabi/include/c++/6.3.1/bits/basic_string.h ****        */
 866:/home/zkmike/.local/share/renesas/e2_studio/toolchains/gcc_arm/gcc-arm-none-eabi-6-2017-q2-update/arm-none-eabi/include/c++/6.3.1/bits/basic_string.h ****       size_type
 867:/home/zkmike/.local/share/renesas/e2_studio/toolchains/gcc_arm/gcc-arm-none-eabi-6-2017-q2-update/arm-none-eabi/include/c++/6.3.1/bits/basic_string.h ****       capacity() const _GLIBCXX_NOEXCEPT
 868:/home/zkmike/.local/share/renesas/e2_studio/toolchains/gcc_arm/gcc-arm-none-eabi-6-2017-q2-update/arm-none-eabi/include/c++/6.3.1/bits/basic_string.h ****       {
 869:/home/zkmike/.local/share/renesas/e2_studio/toolchains/gcc_arm/gcc-arm-none-eabi-6-2017-q2-update/arm-none-eabi/include/c++/6.3.1/bits/basic_string.h **** 	return _M_is_local() ? size_type(_S_local_capacity)
 870:/home/zkmike/.local/share/renesas/e2_studio/toolchains/gcc_arm/gcc-arm-none-eabi-6-2017-q2-update/arm-none-eabi/include/c++/6.3.1/bits/basic_string.h **** 	                     : _M_allocated_capacity;
 871:/home/zkmike/.local/share/renesas/e2_studio/toolchains/gcc_arm/gcc-arm-none-eabi-6-2017-q2-update/arm-none-eabi/include/c++/6.3.1/bits/basic_string.h ****       }
 872:/home/zkmike/.local/share/renesas/e2_studio/toolchains/gcc_arm/gcc-arm-none-eabi-6-2017-q2-update/arm-none-eabi/include/c++/6.3.1/bits/basic_string.h **** 
 873:/home/zkmike/.local/share/renesas/e2_studio/toolchains/gcc_arm/gcc-arm-none-eabi-6-2017-q2-update/arm-none-eabi/include/c++/6.3.1/bits/basic_string.h ****       /**
 874:/home/zkmike/.local/share/renesas/e2_studio/toolchains/gcc_arm/gcc-arm-none-eabi-6-2017-q2-update/arm-none-eabi/include/c++/6.3.1/bits/basic_string.h ****        *  @brief  Attempt to preallocate enough memory for specified number of
 875:/home/zkmike/.local/share/renesas/e2_studio/toolchains/gcc_arm/gcc-arm-none-eabi-6-2017-q2-update/arm-none-eabi/include/c++/6.3.1/bits/basic_string.h ****        *          characters.
 876:/home/zkmike/.local/share/renesas/e2_studio/toolchains/gcc_arm/gcc-arm-none-eabi-6-2017-q2-update/arm-none-eabi/include/c++/6.3.1/bits/basic_string.h ****        *  @param  __res_arg  Number of characters required.
 877:/home/zkmike/.local/share/renesas/e2_studio/toolchains/gcc_arm/gcc-arm-none-eabi-6-2017-q2-update/arm-none-eabi/include/c++/6.3.1/bits/basic_string.h ****        *  @throw  std::length_error  If @a __res_arg exceeds @c max_size().
 878:/home/zkmike/.local/share/renesas/e2_studio/toolchains/gcc_arm/gcc-arm-none-eabi-6-2017-q2-update/arm-none-eabi/include/c++/6.3.1/bits/basic_string.h ****        *
 879:/home/zkmike/.local/share/renesas/e2_studio/toolchains/gcc_arm/gcc-arm-none-eabi-6-2017-q2-update/arm-none-eabi/include/c++/6.3.1/bits/basic_string.h ****        *  This function attempts to reserve enough memory for the
 880:/home/zkmike/.local/share/renesas/e2_studio/toolchains/gcc_arm/gcc-arm-none-eabi-6-2017-q2-update/arm-none-eabi/include/c++/6.3.1/bits/basic_string.h ****        *  %string to hold the specified number of characters.  If the
 881:/home/zkmike/.local/share/renesas/e2_studio/toolchains/gcc_arm/gcc-arm-none-eabi-6-2017-q2-update/arm-none-eabi/include/c++/6.3.1/bits/basic_string.h ****        *  number requested is more than max_size(), length_error is
 882:/home/zkmike/.local/share/renesas/e2_studio/toolchains/gcc_arm/gcc-arm-none-eabi-6-2017-q2-update/arm-none-eabi/include/c++/6.3.1/bits/basic_string.h ****        *  thrown.
 883:/home/zkmike/.local/share/renesas/e2_studio/toolchains/gcc_arm/gcc-arm-none-eabi-6-2017-q2-update/arm-none-eabi/include/c++/6.3.1/bits/basic_string.h ****        *
 884:/home/zkmike/.local/share/renesas/e2_studio/toolchains/gcc_arm/gcc-arm-none-eabi-6-2017-q2-update/arm-none-eabi/include/c++/6.3.1/bits/basic_string.h ****        *  The advantage of this function is that if optimal code is a
 885:/home/zkmike/.local/share/renesas/e2_studio/toolchains/gcc_arm/gcc-arm-none-eabi-6-2017-q2-update/arm-none-eabi/include/c++/6.3.1/bits/basic_string.h ****        *  necessity and the user can determine the string length that will be
 886:/home/zkmike/.local/share/renesas/e2_studio/toolchains/gcc_arm/gcc-arm-none-eabi-6-2017-q2-update/arm-none-eabi/include/c++/6.3.1/bits/basic_string.h ****        *  required, the user can reserve the memory in %advance, and thus
 887:/home/zkmike/.local/share/renesas/e2_studio/toolchains/gcc_arm/gcc-arm-none-eabi-6-2017-q2-update/arm-none-eabi/include/c++/6.3.1/bits/basic_string.h ****        *  prevent a possible reallocation of memory and copying of %string
 888:/home/zkmike/.local/share/renesas/e2_studio/toolchains/gcc_arm/gcc-arm-none-eabi-6-2017-q2-update/arm-none-eabi/include/c++/6.3.1/bits/basic_string.h ****        *  data.
 889:/home/zkmike/.local/share/renesas/e2_studio/toolchains/gcc_arm/gcc-arm-none-eabi-6-2017-q2-update/arm-none-eabi/include/c++/6.3.1/bits/basic_string.h ****        */
 890:/home/zkmike/.local/share/renesas/e2_studio/toolchains/gcc_arm/gcc-arm-none-eabi-6-2017-q2-update/arm-none-eabi/include/c++/6.3.1/bits/basic_string.h ****       void
 891:/home/zkmike/.local/share/renesas/e2_studio/toolchains/gcc_arm/gcc-arm-none-eabi-6-2017-q2-update/arm-none-eabi/include/c++/6.3.1/bits/basic_string.h ****       reserve(size_type __res_arg = 0);
 892:/home/zkmike/.local/share/renesas/e2_studio/toolchains/gcc_arm/gcc-arm-none-eabi-6-2017-q2-update/arm-none-eabi/include/c++/6.3.1/bits/basic_string.h **** 
 893:/home/zkmike/.local/share/renesas/e2_studio/toolchains/gcc_arm/gcc-arm-none-eabi-6-2017-q2-update/arm-none-eabi/include/c++/6.3.1/bits/basic_string.h ****       /**
 894:/home/zkmike/.local/share/renesas/e2_studio/toolchains/gcc_arm/gcc-arm-none-eabi-6-2017-q2-update/arm-none-eabi/include/c++/6.3.1/bits/basic_string.h ****        *  Erases the string, making it empty.
 895:/home/zkmike/.local/share/renesas/e2_studio/toolchains/gcc_arm/gcc-arm-none-eabi-6-2017-q2-update/arm-none-eabi/include/c++/6.3.1/bits/basic_string.h ****        */
 896:/home/zkmike/.local/share/renesas/e2_studio/toolchains/gcc_arm/gcc-arm-none-eabi-6-2017-q2-update/arm-none-eabi/include/c++/6.3.1/bits/basic_string.h ****       void
 897:/home/zkmike/.local/share/renesas/e2_studio/toolchains/gcc_arm/gcc-arm-none-eabi-6-2017-q2-update/arm-none-eabi/include/c++/6.3.1/bits/basic_string.h ****       clear() _GLIBCXX_NOEXCEPT
 898:/home/zkmike/.local/share/renesas/e2_studio/toolchains/gcc_arm/gcc-arm-none-eabi-6-2017-q2-update/arm-none-eabi/include/c++/6.3.1/bits/basic_string.h ****       { _M_set_length(0); }
 899:/home/zkmike/.local/share/renesas/e2_studio/toolchains/gcc_arm/gcc-arm-none-eabi-6-2017-q2-update/arm-none-eabi/include/c++/6.3.1/bits/basic_string.h **** 
 900:/home/zkmike/.local/share/renesas/e2_studio/toolchains/gcc_arm/gcc-arm-none-eabi-6-2017-q2-update/arm-none-eabi/include/c++/6.3.1/bits/basic_string.h ****       /**
 901:/home/zkmike/.local/share/renesas/e2_studio/toolchains/gcc_arm/gcc-arm-none-eabi-6-2017-q2-update/arm-none-eabi/include/c++/6.3.1/bits/basic_string.h ****        *  Returns true if the %string is empty.  Equivalent to 
 902:/home/zkmike/.local/share/renesas/e2_studio/toolchains/gcc_arm/gcc-arm-none-eabi-6-2017-q2-update/arm-none-eabi/include/c++/6.3.1/bits/basic_string.h ****        *  <code>*this == ""</code>.
 903:/home/zkmike/.local/share/renesas/e2_studio/toolchains/gcc_arm/gcc-arm-none-eabi-6-2017-q2-update/arm-none-eabi/include/c++/6.3.1/bits/basic_string.h ****        */
 904:/home/zkmike/.local/share/renesas/e2_studio/toolchains/gcc_arm/gcc-arm-none-eabi-6-2017-q2-update/arm-none-eabi/include/c++/6.3.1/bits/basic_string.h ****       bool
 905:/home/zkmike/.local/share/renesas/e2_studio/toolchains/gcc_arm/gcc-arm-none-eabi-6-2017-q2-update/arm-none-eabi/include/c++/6.3.1/bits/basic_string.h ****       empty() const _GLIBCXX_NOEXCEPT
 906:/home/zkmike/.local/share/renesas/e2_studio/toolchains/gcc_arm/gcc-arm-none-eabi-6-2017-q2-update/arm-none-eabi/include/c++/6.3.1/bits/basic_string.h ****       { return this->size() == 0; }
 907:/home/zkmike/.local/share/renesas/e2_studio/toolchains/gcc_arm/gcc-arm-none-eabi-6-2017-q2-update/arm-none-eabi/include/c++/6.3.1/bits/basic_string.h **** 
 908:/home/zkmike/.local/share/renesas/e2_studio/toolchains/gcc_arm/gcc-arm-none-eabi-6-2017-q2-update/arm-none-eabi/include/c++/6.3.1/bits/basic_string.h ****       // Element access:
 909:/home/zkmike/.local/share/renesas/e2_studio/toolchains/gcc_arm/gcc-arm-none-eabi-6-2017-q2-update/arm-none-eabi/include/c++/6.3.1/bits/basic_string.h ****       /**
 910:/home/zkmike/.local/share/renesas/e2_studio/toolchains/gcc_arm/gcc-arm-none-eabi-6-2017-q2-update/arm-none-eabi/include/c++/6.3.1/bits/basic_string.h ****        *  @brief  Subscript access to the data contained in the %string.
 911:/home/zkmike/.local/share/renesas/e2_studio/toolchains/gcc_arm/gcc-arm-none-eabi-6-2017-q2-update/arm-none-eabi/include/c++/6.3.1/bits/basic_string.h ****        *  @param  __pos  The index of the character to access.
 912:/home/zkmike/.local/share/renesas/e2_studio/toolchains/gcc_arm/gcc-arm-none-eabi-6-2017-q2-update/arm-none-eabi/include/c++/6.3.1/bits/basic_string.h ****        *  @return  Read-only (constant) reference to the character.
 913:/home/zkmike/.local/share/renesas/e2_studio/toolchains/gcc_arm/gcc-arm-none-eabi-6-2017-q2-update/arm-none-eabi/include/c++/6.3.1/bits/basic_string.h ****        *
 914:/home/zkmike/.local/share/renesas/e2_studio/toolchains/gcc_arm/gcc-arm-none-eabi-6-2017-q2-update/arm-none-eabi/include/c++/6.3.1/bits/basic_string.h ****        *  This operator allows for easy, array-style, data access.
 915:/home/zkmike/.local/share/renesas/e2_studio/toolchains/gcc_arm/gcc-arm-none-eabi-6-2017-q2-update/arm-none-eabi/include/c++/6.3.1/bits/basic_string.h ****        *  Note that data access with this operator is unchecked and
 916:/home/zkmike/.local/share/renesas/e2_studio/toolchains/gcc_arm/gcc-arm-none-eabi-6-2017-q2-update/arm-none-eabi/include/c++/6.3.1/bits/basic_string.h ****        *  out_of_range lookups are not defined. (For checked lookups
 917:/home/zkmike/.local/share/renesas/e2_studio/toolchains/gcc_arm/gcc-arm-none-eabi-6-2017-q2-update/arm-none-eabi/include/c++/6.3.1/bits/basic_string.h ****        *  see at().)
 918:/home/zkmike/.local/share/renesas/e2_studio/toolchains/gcc_arm/gcc-arm-none-eabi-6-2017-q2-update/arm-none-eabi/include/c++/6.3.1/bits/basic_string.h ****        */
 919:/home/zkmike/.local/share/renesas/e2_studio/toolchains/gcc_arm/gcc-arm-none-eabi-6-2017-q2-update/arm-none-eabi/include/c++/6.3.1/bits/basic_string.h ****       const_reference
 920:/home/zkmike/.local/share/renesas/e2_studio/toolchains/gcc_arm/gcc-arm-none-eabi-6-2017-q2-update/arm-none-eabi/include/c++/6.3.1/bits/basic_string.h ****       operator[] (size_type __pos) const _GLIBCXX_NOEXCEPT
 921:/home/zkmike/.local/share/renesas/e2_studio/toolchains/gcc_arm/gcc-arm-none-eabi-6-2017-q2-update/arm-none-eabi/include/c++/6.3.1/bits/basic_string.h ****       {
 922:/home/zkmike/.local/share/renesas/e2_studio/toolchains/gcc_arm/gcc-arm-none-eabi-6-2017-q2-update/arm-none-eabi/include/c++/6.3.1/bits/basic_string.h **** 	__glibcxx_assert(__pos <= size());
 923:/home/zkmike/.local/share/renesas/e2_studio/toolchains/gcc_arm/gcc-arm-none-eabi-6-2017-q2-update/arm-none-eabi/include/c++/6.3.1/bits/basic_string.h **** 	return _M_data()[__pos];
 924:/home/zkmike/.local/share/renesas/e2_studio/toolchains/gcc_arm/gcc-arm-none-eabi-6-2017-q2-update/arm-none-eabi/include/c++/6.3.1/bits/basic_string.h ****       }
 925:/home/zkmike/.local/share/renesas/e2_studio/toolchains/gcc_arm/gcc-arm-none-eabi-6-2017-q2-update/arm-none-eabi/include/c++/6.3.1/bits/basic_string.h **** 
 926:/home/zkmike/.local/share/renesas/e2_studio/toolchains/gcc_arm/gcc-arm-none-eabi-6-2017-q2-update/arm-none-eabi/include/c++/6.3.1/bits/basic_string.h ****       /**
 927:/home/zkmike/.local/share/renesas/e2_studio/toolchains/gcc_arm/gcc-arm-none-eabi-6-2017-q2-update/arm-none-eabi/include/c++/6.3.1/bits/basic_string.h ****        *  @brief  Subscript access to the data contained in the %string.
 928:/home/zkmike/.local/share/renesas/e2_studio/toolchains/gcc_arm/gcc-arm-none-eabi-6-2017-q2-update/arm-none-eabi/include/c++/6.3.1/bits/basic_string.h ****        *  @param  __pos  The index of the character to access.
 929:/home/zkmike/.local/share/renesas/e2_studio/toolchains/gcc_arm/gcc-arm-none-eabi-6-2017-q2-update/arm-none-eabi/include/c++/6.3.1/bits/basic_string.h ****        *  @return  Read/write reference to the character.
 930:/home/zkmike/.local/share/renesas/e2_studio/toolchains/gcc_arm/gcc-arm-none-eabi-6-2017-q2-update/arm-none-eabi/include/c++/6.3.1/bits/basic_string.h ****        *
 931:/home/zkmike/.local/share/renesas/e2_studio/toolchains/gcc_arm/gcc-arm-none-eabi-6-2017-q2-update/arm-none-eabi/include/c++/6.3.1/bits/basic_string.h ****        *  This operator allows for easy, array-style, data access.
 932:/home/zkmike/.local/share/renesas/e2_studio/toolchains/gcc_arm/gcc-arm-none-eabi-6-2017-q2-update/arm-none-eabi/include/c++/6.3.1/bits/basic_string.h ****        *  Note that data access with this operator is unchecked and
 933:/home/zkmike/.local/share/renesas/e2_studio/toolchains/gcc_arm/gcc-arm-none-eabi-6-2017-q2-update/arm-none-eabi/include/c++/6.3.1/bits/basic_string.h ****        *  out_of_range lookups are not defined. (For checked lookups
 934:/home/zkmike/.local/share/renesas/e2_studio/toolchains/gcc_arm/gcc-arm-none-eabi-6-2017-q2-update/arm-none-eabi/include/c++/6.3.1/bits/basic_string.h ****        *  see at().)
 935:/home/zkmike/.local/share/renesas/e2_studio/toolchains/gcc_arm/gcc-arm-none-eabi-6-2017-q2-update/arm-none-eabi/include/c++/6.3.1/bits/basic_string.h ****        */
 936:/home/zkmike/.local/share/renesas/e2_studio/toolchains/gcc_arm/gcc-arm-none-eabi-6-2017-q2-update/arm-none-eabi/include/c++/6.3.1/bits/basic_string.h ****       reference
 937:/home/zkmike/.local/share/renesas/e2_studio/toolchains/gcc_arm/gcc-arm-none-eabi-6-2017-q2-update/arm-none-eabi/include/c++/6.3.1/bits/basic_string.h ****       operator[](size_type __pos)
 938:/home/zkmike/.local/share/renesas/e2_studio/toolchains/gcc_arm/gcc-arm-none-eabi-6-2017-q2-update/arm-none-eabi/include/c++/6.3.1/bits/basic_string.h ****       {
 939:/home/zkmike/.local/share/renesas/e2_studio/toolchains/gcc_arm/gcc-arm-none-eabi-6-2017-q2-update/arm-none-eabi/include/c++/6.3.1/bits/basic_string.h ****         // Allow pos == size() both in C++98 mode, as v3 extension,
 940:/home/zkmike/.local/share/renesas/e2_studio/toolchains/gcc_arm/gcc-arm-none-eabi-6-2017-q2-update/arm-none-eabi/include/c++/6.3.1/bits/basic_string.h **** 	// and in C++11 mode.
 941:/home/zkmike/.local/share/renesas/e2_studio/toolchains/gcc_arm/gcc-arm-none-eabi-6-2017-q2-update/arm-none-eabi/include/c++/6.3.1/bits/basic_string.h **** 	__glibcxx_assert(__pos <= size());
 942:/home/zkmike/.local/share/renesas/e2_studio/toolchains/gcc_arm/gcc-arm-none-eabi-6-2017-q2-update/arm-none-eabi/include/c++/6.3.1/bits/basic_string.h ****         // In pedantic mode be strict in C++98 mode.
 943:/home/zkmike/.local/share/renesas/e2_studio/toolchains/gcc_arm/gcc-arm-none-eabi-6-2017-q2-update/arm-none-eabi/include/c++/6.3.1/bits/basic_string.h **** 	_GLIBCXX_DEBUG_PEDASSERT(__cplusplus >= 201103L || __pos < size());
 944:/home/zkmike/.local/share/renesas/e2_studio/toolchains/gcc_arm/gcc-arm-none-eabi-6-2017-q2-update/arm-none-eabi/include/c++/6.3.1/bits/basic_string.h **** 	return _M_data()[__pos];
 945:/home/zkmike/.local/share/renesas/e2_studio/toolchains/gcc_arm/gcc-arm-none-eabi-6-2017-q2-update/arm-none-eabi/include/c++/6.3.1/bits/basic_string.h ****       }
 946:/home/zkmike/.local/share/renesas/e2_studio/toolchains/gcc_arm/gcc-arm-none-eabi-6-2017-q2-update/arm-none-eabi/include/c++/6.3.1/bits/basic_string.h **** 
 947:/home/zkmike/.local/share/renesas/e2_studio/toolchains/gcc_arm/gcc-arm-none-eabi-6-2017-q2-update/arm-none-eabi/include/c++/6.3.1/bits/basic_string.h ****       /**
 948:/home/zkmike/.local/share/renesas/e2_studio/toolchains/gcc_arm/gcc-arm-none-eabi-6-2017-q2-update/arm-none-eabi/include/c++/6.3.1/bits/basic_string.h ****        *  @brief  Provides access to the data contained in the %string.
 949:/home/zkmike/.local/share/renesas/e2_studio/toolchains/gcc_arm/gcc-arm-none-eabi-6-2017-q2-update/arm-none-eabi/include/c++/6.3.1/bits/basic_string.h ****        *  @param __n The index of the character to access.
 950:/home/zkmike/.local/share/renesas/e2_studio/toolchains/gcc_arm/gcc-arm-none-eabi-6-2017-q2-update/arm-none-eabi/include/c++/6.3.1/bits/basic_string.h ****        *  @return  Read-only (const) reference to the character.
 951:/home/zkmike/.local/share/renesas/e2_studio/toolchains/gcc_arm/gcc-arm-none-eabi-6-2017-q2-update/arm-none-eabi/include/c++/6.3.1/bits/basic_string.h ****        *  @throw  std::out_of_range  If @a n is an invalid index.
 952:/home/zkmike/.local/share/renesas/e2_studio/toolchains/gcc_arm/gcc-arm-none-eabi-6-2017-q2-update/arm-none-eabi/include/c++/6.3.1/bits/basic_string.h ****        *
 953:/home/zkmike/.local/share/renesas/e2_studio/toolchains/gcc_arm/gcc-arm-none-eabi-6-2017-q2-update/arm-none-eabi/include/c++/6.3.1/bits/basic_string.h ****        *  This function provides for safer data access.  The parameter is
 954:/home/zkmike/.local/share/renesas/e2_studio/toolchains/gcc_arm/gcc-arm-none-eabi-6-2017-q2-update/arm-none-eabi/include/c++/6.3.1/bits/basic_string.h ****        *  first checked that it is in the range of the string.  The function
 955:/home/zkmike/.local/share/renesas/e2_studio/toolchains/gcc_arm/gcc-arm-none-eabi-6-2017-q2-update/arm-none-eabi/include/c++/6.3.1/bits/basic_string.h ****        *  throws out_of_range if the check fails.
 956:/home/zkmike/.local/share/renesas/e2_studio/toolchains/gcc_arm/gcc-arm-none-eabi-6-2017-q2-update/arm-none-eabi/include/c++/6.3.1/bits/basic_string.h ****        */
 957:/home/zkmike/.local/share/renesas/e2_studio/toolchains/gcc_arm/gcc-arm-none-eabi-6-2017-q2-update/arm-none-eabi/include/c++/6.3.1/bits/basic_string.h ****       const_reference
 958:/home/zkmike/.local/share/renesas/e2_studio/toolchains/gcc_arm/gcc-arm-none-eabi-6-2017-q2-update/arm-none-eabi/include/c++/6.3.1/bits/basic_string.h ****       at(size_type __n) const
 959:/home/zkmike/.local/share/renesas/e2_studio/toolchains/gcc_arm/gcc-arm-none-eabi-6-2017-q2-update/arm-none-eabi/include/c++/6.3.1/bits/basic_string.h ****       {
 960:/home/zkmike/.local/share/renesas/e2_studio/toolchains/gcc_arm/gcc-arm-none-eabi-6-2017-q2-update/arm-none-eabi/include/c++/6.3.1/bits/basic_string.h **** 	if (__n >= this->size())
 961:/home/zkmike/.local/share/renesas/e2_studio/toolchains/gcc_arm/gcc-arm-none-eabi-6-2017-q2-update/arm-none-eabi/include/c++/6.3.1/bits/basic_string.h **** 	  __throw_out_of_range_fmt(__N("basic_string::at: __n "
 962:/home/zkmike/.local/share/renesas/e2_studio/toolchains/gcc_arm/gcc-arm-none-eabi-6-2017-q2-update/arm-none-eabi/include/c++/6.3.1/bits/basic_string.h **** 				       "(which is %zu) >= this->size() "
 963:/home/zkmike/.local/share/renesas/e2_studio/toolchains/gcc_arm/gcc-arm-none-eabi-6-2017-q2-update/arm-none-eabi/include/c++/6.3.1/bits/basic_string.h **** 				       "(which is %zu)"),
 964:/home/zkmike/.local/share/renesas/e2_studio/toolchains/gcc_arm/gcc-arm-none-eabi-6-2017-q2-update/arm-none-eabi/include/c++/6.3.1/bits/basic_string.h **** 				   __n, this->size());
 965:/home/zkmike/.local/share/renesas/e2_studio/toolchains/gcc_arm/gcc-arm-none-eabi-6-2017-q2-update/arm-none-eabi/include/c++/6.3.1/bits/basic_string.h **** 	return _M_data()[__n];
 966:/home/zkmike/.local/share/renesas/e2_studio/toolchains/gcc_arm/gcc-arm-none-eabi-6-2017-q2-update/arm-none-eabi/include/c++/6.3.1/bits/basic_string.h ****       }
 967:/home/zkmike/.local/share/renesas/e2_studio/toolchains/gcc_arm/gcc-arm-none-eabi-6-2017-q2-update/arm-none-eabi/include/c++/6.3.1/bits/basic_string.h **** 
 968:/home/zkmike/.local/share/renesas/e2_studio/toolchains/gcc_arm/gcc-arm-none-eabi-6-2017-q2-update/arm-none-eabi/include/c++/6.3.1/bits/basic_string.h ****       /**
 969:/home/zkmike/.local/share/renesas/e2_studio/toolchains/gcc_arm/gcc-arm-none-eabi-6-2017-q2-update/arm-none-eabi/include/c++/6.3.1/bits/basic_string.h ****        *  @brief  Provides access to the data contained in the %string.
 970:/home/zkmike/.local/share/renesas/e2_studio/toolchains/gcc_arm/gcc-arm-none-eabi-6-2017-q2-update/arm-none-eabi/include/c++/6.3.1/bits/basic_string.h ****        *  @param __n The index of the character to access.
 971:/home/zkmike/.local/share/renesas/e2_studio/toolchains/gcc_arm/gcc-arm-none-eabi-6-2017-q2-update/arm-none-eabi/include/c++/6.3.1/bits/basic_string.h ****        *  @return  Read/write reference to the character.
 972:/home/zkmike/.local/share/renesas/e2_studio/toolchains/gcc_arm/gcc-arm-none-eabi-6-2017-q2-update/arm-none-eabi/include/c++/6.3.1/bits/basic_string.h ****        *  @throw  std::out_of_range  If @a n is an invalid index.
 973:/home/zkmike/.local/share/renesas/e2_studio/toolchains/gcc_arm/gcc-arm-none-eabi-6-2017-q2-update/arm-none-eabi/include/c++/6.3.1/bits/basic_string.h ****        *
 974:/home/zkmike/.local/share/renesas/e2_studio/toolchains/gcc_arm/gcc-arm-none-eabi-6-2017-q2-update/arm-none-eabi/include/c++/6.3.1/bits/basic_string.h ****        *  This function provides for safer data access.  The parameter is
 975:/home/zkmike/.local/share/renesas/e2_studio/toolchains/gcc_arm/gcc-arm-none-eabi-6-2017-q2-update/arm-none-eabi/include/c++/6.3.1/bits/basic_string.h ****        *  first checked that it is in the range of the string.  The function
 976:/home/zkmike/.local/share/renesas/e2_studio/toolchains/gcc_arm/gcc-arm-none-eabi-6-2017-q2-update/arm-none-eabi/include/c++/6.3.1/bits/basic_string.h ****        *  throws out_of_range if the check fails.
 977:/home/zkmike/.local/share/renesas/e2_studio/toolchains/gcc_arm/gcc-arm-none-eabi-6-2017-q2-update/arm-none-eabi/include/c++/6.3.1/bits/basic_string.h ****        */
 978:/home/zkmike/.local/share/renesas/e2_studio/toolchains/gcc_arm/gcc-arm-none-eabi-6-2017-q2-update/arm-none-eabi/include/c++/6.3.1/bits/basic_string.h ****       reference
 979:/home/zkmike/.local/share/renesas/e2_studio/toolchains/gcc_arm/gcc-arm-none-eabi-6-2017-q2-update/arm-none-eabi/include/c++/6.3.1/bits/basic_string.h ****       at(size_type __n)
 980:/home/zkmike/.local/share/renesas/e2_studio/toolchains/gcc_arm/gcc-arm-none-eabi-6-2017-q2-update/arm-none-eabi/include/c++/6.3.1/bits/basic_string.h ****       {
 981:/home/zkmike/.local/share/renesas/e2_studio/toolchains/gcc_arm/gcc-arm-none-eabi-6-2017-q2-update/arm-none-eabi/include/c++/6.3.1/bits/basic_string.h **** 	if (__n >= size())
 982:/home/zkmike/.local/share/renesas/e2_studio/toolchains/gcc_arm/gcc-arm-none-eabi-6-2017-q2-update/arm-none-eabi/include/c++/6.3.1/bits/basic_string.h **** 	  __throw_out_of_range_fmt(__N("basic_string::at: __n "
 983:/home/zkmike/.local/share/renesas/e2_studio/toolchains/gcc_arm/gcc-arm-none-eabi-6-2017-q2-update/arm-none-eabi/include/c++/6.3.1/bits/basic_string.h **** 				       "(which is %zu) >= this->size() "
 984:/home/zkmike/.local/share/renesas/e2_studio/toolchains/gcc_arm/gcc-arm-none-eabi-6-2017-q2-update/arm-none-eabi/include/c++/6.3.1/bits/basic_string.h **** 				       "(which is %zu)"),
 985:/home/zkmike/.local/share/renesas/e2_studio/toolchains/gcc_arm/gcc-arm-none-eabi-6-2017-q2-update/arm-none-eabi/include/c++/6.3.1/bits/basic_string.h **** 				   __n, this->size());
 986:/home/zkmike/.local/share/renesas/e2_studio/toolchains/gcc_arm/gcc-arm-none-eabi-6-2017-q2-update/arm-none-eabi/include/c++/6.3.1/bits/basic_string.h **** 	return _M_data()[__n];
 987:/home/zkmike/.local/share/renesas/e2_studio/toolchains/gcc_arm/gcc-arm-none-eabi-6-2017-q2-update/arm-none-eabi/include/c++/6.3.1/bits/basic_string.h ****       }
 988:/home/zkmike/.local/share/renesas/e2_studio/toolchains/gcc_arm/gcc-arm-none-eabi-6-2017-q2-update/arm-none-eabi/include/c++/6.3.1/bits/basic_string.h **** 
 989:/home/zkmike/.local/share/renesas/e2_studio/toolchains/gcc_arm/gcc-arm-none-eabi-6-2017-q2-update/arm-none-eabi/include/c++/6.3.1/bits/basic_string.h **** #if __cplusplus >= 201103L
 990:/home/zkmike/.local/share/renesas/e2_studio/toolchains/gcc_arm/gcc-arm-none-eabi-6-2017-q2-update/arm-none-eabi/include/c++/6.3.1/bits/basic_string.h ****       /**
 991:/home/zkmike/.local/share/renesas/e2_studio/toolchains/gcc_arm/gcc-arm-none-eabi-6-2017-q2-update/arm-none-eabi/include/c++/6.3.1/bits/basic_string.h ****        *  Returns a read/write reference to the data at the first
 992:/home/zkmike/.local/share/renesas/e2_studio/toolchains/gcc_arm/gcc-arm-none-eabi-6-2017-q2-update/arm-none-eabi/include/c++/6.3.1/bits/basic_string.h ****        *  element of the %string.
 993:/home/zkmike/.local/share/renesas/e2_studio/toolchains/gcc_arm/gcc-arm-none-eabi-6-2017-q2-update/arm-none-eabi/include/c++/6.3.1/bits/basic_string.h ****        */
 994:/home/zkmike/.local/share/renesas/e2_studio/toolchains/gcc_arm/gcc-arm-none-eabi-6-2017-q2-update/arm-none-eabi/include/c++/6.3.1/bits/basic_string.h ****       reference
 995:/home/zkmike/.local/share/renesas/e2_studio/toolchains/gcc_arm/gcc-arm-none-eabi-6-2017-q2-update/arm-none-eabi/include/c++/6.3.1/bits/basic_string.h ****       front() noexcept
 996:/home/zkmike/.local/share/renesas/e2_studio/toolchains/gcc_arm/gcc-arm-none-eabi-6-2017-q2-update/arm-none-eabi/include/c++/6.3.1/bits/basic_string.h ****       {
 997:/home/zkmike/.local/share/renesas/e2_studio/toolchains/gcc_arm/gcc-arm-none-eabi-6-2017-q2-update/arm-none-eabi/include/c++/6.3.1/bits/basic_string.h **** 	__glibcxx_assert(!empty());
 998:/home/zkmike/.local/share/renesas/e2_studio/toolchains/gcc_arm/gcc-arm-none-eabi-6-2017-q2-update/arm-none-eabi/include/c++/6.3.1/bits/basic_string.h **** 	return operator[](0);
 999:/home/zkmike/.local/share/renesas/e2_studio/toolchains/gcc_arm/gcc-arm-none-eabi-6-2017-q2-update/arm-none-eabi/include/c++/6.3.1/bits/basic_string.h ****       }
1000:/home/zkmike/.local/share/renesas/e2_studio/toolchains/gcc_arm/gcc-arm-none-eabi-6-2017-q2-update/arm-none-eabi/include/c++/6.3.1/bits/basic_string.h **** 
1001:/home/zkmike/.local/share/renesas/e2_studio/toolchains/gcc_arm/gcc-arm-none-eabi-6-2017-q2-update/arm-none-eabi/include/c++/6.3.1/bits/basic_string.h ****       /**
1002:/home/zkmike/.local/share/renesas/e2_studio/toolchains/gcc_arm/gcc-arm-none-eabi-6-2017-q2-update/arm-none-eabi/include/c++/6.3.1/bits/basic_string.h ****        *  Returns a read-only (constant) reference to the data at the first
1003:/home/zkmike/.local/share/renesas/e2_studio/toolchains/gcc_arm/gcc-arm-none-eabi-6-2017-q2-update/arm-none-eabi/include/c++/6.3.1/bits/basic_string.h ****        *  element of the %string.
1004:/home/zkmike/.local/share/renesas/e2_studio/toolchains/gcc_arm/gcc-arm-none-eabi-6-2017-q2-update/arm-none-eabi/include/c++/6.3.1/bits/basic_string.h ****        */
1005:/home/zkmike/.local/share/renesas/e2_studio/toolchains/gcc_arm/gcc-arm-none-eabi-6-2017-q2-update/arm-none-eabi/include/c++/6.3.1/bits/basic_string.h ****       const_reference
1006:/home/zkmike/.local/share/renesas/e2_studio/toolchains/gcc_arm/gcc-arm-none-eabi-6-2017-q2-update/arm-none-eabi/include/c++/6.3.1/bits/basic_string.h ****       front() const noexcept
1007:/home/zkmike/.local/share/renesas/e2_studio/toolchains/gcc_arm/gcc-arm-none-eabi-6-2017-q2-update/arm-none-eabi/include/c++/6.3.1/bits/basic_string.h ****       {
1008:/home/zkmike/.local/share/renesas/e2_studio/toolchains/gcc_arm/gcc-arm-none-eabi-6-2017-q2-update/arm-none-eabi/include/c++/6.3.1/bits/basic_string.h **** 	__glibcxx_assert(!empty());
1009:/home/zkmike/.local/share/renesas/e2_studio/toolchains/gcc_arm/gcc-arm-none-eabi-6-2017-q2-update/arm-none-eabi/include/c++/6.3.1/bits/basic_string.h **** 	return operator[](0);
1010:/home/zkmike/.local/share/renesas/e2_studio/toolchains/gcc_arm/gcc-arm-none-eabi-6-2017-q2-update/arm-none-eabi/include/c++/6.3.1/bits/basic_string.h ****       }
1011:/home/zkmike/.local/share/renesas/e2_studio/toolchains/gcc_arm/gcc-arm-none-eabi-6-2017-q2-update/arm-none-eabi/include/c++/6.3.1/bits/basic_string.h **** 
1012:/home/zkmike/.local/share/renesas/e2_studio/toolchains/gcc_arm/gcc-arm-none-eabi-6-2017-q2-update/arm-none-eabi/include/c++/6.3.1/bits/basic_string.h ****       /**
1013:/home/zkmike/.local/share/renesas/e2_studio/toolchains/gcc_arm/gcc-arm-none-eabi-6-2017-q2-update/arm-none-eabi/include/c++/6.3.1/bits/basic_string.h ****        *  Returns a read/write reference to the data at the last
1014:/home/zkmike/.local/share/renesas/e2_studio/toolchains/gcc_arm/gcc-arm-none-eabi-6-2017-q2-update/arm-none-eabi/include/c++/6.3.1/bits/basic_string.h ****        *  element of the %string.
1015:/home/zkmike/.local/share/renesas/e2_studio/toolchains/gcc_arm/gcc-arm-none-eabi-6-2017-q2-update/arm-none-eabi/include/c++/6.3.1/bits/basic_string.h ****        */
1016:/home/zkmike/.local/share/renesas/e2_studio/toolchains/gcc_arm/gcc-arm-none-eabi-6-2017-q2-update/arm-none-eabi/include/c++/6.3.1/bits/basic_string.h ****       reference
1017:/home/zkmike/.local/share/renesas/e2_studio/toolchains/gcc_arm/gcc-arm-none-eabi-6-2017-q2-update/arm-none-eabi/include/c++/6.3.1/bits/basic_string.h ****       back() noexcept
1018:/home/zkmike/.local/share/renesas/e2_studio/toolchains/gcc_arm/gcc-arm-none-eabi-6-2017-q2-update/arm-none-eabi/include/c++/6.3.1/bits/basic_string.h ****       {
1019:/home/zkmike/.local/share/renesas/e2_studio/toolchains/gcc_arm/gcc-arm-none-eabi-6-2017-q2-update/arm-none-eabi/include/c++/6.3.1/bits/basic_string.h **** 	__glibcxx_assert(!empty());
1020:/home/zkmike/.local/share/renesas/e2_studio/toolchains/gcc_arm/gcc-arm-none-eabi-6-2017-q2-update/arm-none-eabi/include/c++/6.3.1/bits/basic_string.h **** 	return operator[](this->size() - 1);
1021:/home/zkmike/.local/share/renesas/e2_studio/toolchains/gcc_arm/gcc-arm-none-eabi-6-2017-q2-update/arm-none-eabi/include/c++/6.3.1/bits/basic_string.h ****       }
1022:/home/zkmike/.local/share/renesas/e2_studio/toolchains/gcc_arm/gcc-arm-none-eabi-6-2017-q2-update/arm-none-eabi/include/c++/6.3.1/bits/basic_string.h **** 
1023:/home/zkmike/.local/share/renesas/e2_studio/toolchains/gcc_arm/gcc-arm-none-eabi-6-2017-q2-update/arm-none-eabi/include/c++/6.3.1/bits/basic_string.h ****       /**
1024:/home/zkmike/.local/share/renesas/e2_studio/toolchains/gcc_arm/gcc-arm-none-eabi-6-2017-q2-update/arm-none-eabi/include/c++/6.3.1/bits/basic_string.h ****        *  Returns a read-only (constant) reference to the data at the
1025:/home/zkmike/.local/share/renesas/e2_studio/toolchains/gcc_arm/gcc-arm-none-eabi-6-2017-q2-update/arm-none-eabi/include/c++/6.3.1/bits/basic_string.h ****        *  last element of the %string.
1026:/home/zkmike/.local/share/renesas/e2_studio/toolchains/gcc_arm/gcc-arm-none-eabi-6-2017-q2-update/arm-none-eabi/include/c++/6.3.1/bits/basic_string.h ****        */
1027:/home/zkmike/.local/share/renesas/e2_studio/toolchains/gcc_arm/gcc-arm-none-eabi-6-2017-q2-update/arm-none-eabi/include/c++/6.3.1/bits/basic_string.h ****       const_reference
1028:/home/zkmike/.local/share/renesas/e2_studio/toolchains/gcc_arm/gcc-arm-none-eabi-6-2017-q2-update/arm-none-eabi/include/c++/6.3.1/bits/basic_string.h ****       back() const noexcept
1029:/home/zkmike/.local/share/renesas/e2_studio/toolchains/gcc_arm/gcc-arm-none-eabi-6-2017-q2-update/arm-none-eabi/include/c++/6.3.1/bits/basic_string.h ****       {
1030:/home/zkmike/.local/share/renesas/e2_studio/toolchains/gcc_arm/gcc-arm-none-eabi-6-2017-q2-update/arm-none-eabi/include/c++/6.3.1/bits/basic_string.h **** 	__glibcxx_assert(!empty());
1031:/home/zkmike/.local/share/renesas/e2_studio/toolchains/gcc_arm/gcc-arm-none-eabi-6-2017-q2-update/arm-none-eabi/include/c++/6.3.1/bits/basic_string.h **** 	return operator[](this->size() - 1);
1032:/home/zkmike/.local/share/renesas/e2_studio/toolchains/gcc_arm/gcc-arm-none-eabi-6-2017-q2-update/arm-none-eabi/include/c++/6.3.1/bits/basic_string.h ****       }
1033:/home/zkmike/.local/share/renesas/e2_studio/toolchains/gcc_arm/gcc-arm-none-eabi-6-2017-q2-update/arm-none-eabi/include/c++/6.3.1/bits/basic_string.h **** #endif
1034:/home/zkmike/.local/share/renesas/e2_studio/toolchains/gcc_arm/gcc-arm-none-eabi-6-2017-q2-update/arm-none-eabi/include/c++/6.3.1/bits/basic_string.h **** 
1035:/home/zkmike/.local/share/renesas/e2_studio/toolchains/gcc_arm/gcc-arm-none-eabi-6-2017-q2-update/arm-none-eabi/include/c++/6.3.1/bits/basic_string.h ****       // Modifiers:
1036:/home/zkmike/.local/share/renesas/e2_studio/toolchains/gcc_arm/gcc-arm-none-eabi-6-2017-q2-update/arm-none-eabi/include/c++/6.3.1/bits/basic_string.h ****       /**
1037:/home/zkmike/.local/share/renesas/e2_studio/toolchains/gcc_arm/gcc-arm-none-eabi-6-2017-q2-update/arm-none-eabi/include/c++/6.3.1/bits/basic_string.h ****        *  @brief  Append a string to this string.
1038:/home/zkmike/.local/share/renesas/e2_studio/toolchains/gcc_arm/gcc-arm-none-eabi-6-2017-q2-update/arm-none-eabi/include/c++/6.3.1/bits/basic_string.h ****        *  @param __str  The string to append.
1039:/home/zkmike/.local/share/renesas/e2_studio/toolchains/gcc_arm/gcc-arm-none-eabi-6-2017-q2-update/arm-none-eabi/include/c++/6.3.1/bits/basic_string.h ****        *  @return  Reference to this string.
1040:/home/zkmike/.local/share/renesas/e2_studio/toolchains/gcc_arm/gcc-arm-none-eabi-6-2017-q2-update/arm-none-eabi/include/c++/6.3.1/bits/basic_string.h ****        */
1041:/home/zkmike/.local/share/renesas/e2_studio/toolchains/gcc_arm/gcc-arm-none-eabi-6-2017-q2-update/arm-none-eabi/include/c++/6.3.1/bits/basic_string.h ****       basic_string&
1042:/home/zkmike/.local/share/renesas/e2_studio/toolchains/gcc_arm/gcc-arm-none-eabi-6-2017-q2-update/arm-none-eabi/include/c++/6.3.1/bits/basic_string.h ****       operator+=(const basic_string& __str)
1043:/home/zkmike/.local/share/renesas/e2_studio/toolchains/gcc_arm/gcc-arm-none-eabi-6-2017-q2-update/arm-none-eabi/include/c++/6.3.1/bits/basic_string.h ****       { return this->append(__str); }
1044:/home/zkmike/.local/share/renesas/e2_studio/toolchains/gcc_arm/gcc-arm-none-eabi-6-2017-q2-update/arm-none-eabi/include/c++/6.3.1/bits/basic_string.h **** 
1045:/home/zkmike/.local/share/renesas/e2_studio/toolchains/gcc_arm/gcc-arm-none-eabi-6-2017-q2-update/arm-none-eabi/include/c++/6.3.1/bits/basic_string.h ****       /**
1046:/home/zkmike/.local/share/renesas/e2_studio/toolchains/gcc_arm/gcc-arm-none-eabi-6-2017-q2-update/arm-none-eabi/include/c++/6.3.1/bits/basic_string.h ****        *  @brief  Append a C string.
1047:/home/zkmike/.local/share/renesas/e2_studio/toolchains/gcc_arm/gcc-arm-none-eabi-6-2017-q2-update/arm-none-eabi/include/c++/6.3.1/bits/basic_string.h ****        *  @param __s  The C string to append.
1048:/home/zkmike/.local/share/renesas/e2_studio/toolchains/gcc_arm/gcc-arm-none-eabi-6-2017-q2-update/arm-none-eabi/include/c++/6.3.1/bits/basic_string.h ****        *  @return  Reference to this string.
1049:/home/zkmike/.local/share/renesas/e2_studio/toolchains/gcc_arm/gcc-arm-none-eabi-6-2017-q2-update/arm-none-eabi/include/c++/6.3.1/bits/basic_string.h ****        */
1050:/home/zkmike/.local/share/renesas/e2_studio/toolchains/gcc_arm/gcc-arm-none-eabi-6-2017-q2-update/arm-none-eabi/include/c++/6.3.1/bits/basic_string.h ****       basic_string&
1051:/home/zkmike/.local/share/renesas/e2_studio/toolchains/gcc_arm/gcc-arm-none-eabi-6-2017-q2-update/arm-none-eabi/include/c++/6.3.1/bits/basic_string.h ****       operator+=(const _CharT* __s)
1052:/home/zkmike/.local/share/renesas/e2_studio/toolchains/gcc_arm/gcc-arm-none-eabi-6-2017-q2-update/arm-none-eabi/include/c++/6.3.1/bits/basic_string.h ****       { return this->append(__s); }
1053:/home/zkmike/.local/share/renesas/e2_studio/toolchains/gcc_arm/gcc-arm-none-eabi-6-2017-q2-update/arm-none-eabi/include/c++/6.3.1/bits/basic_string.h **** 
1054:/home/zkmike/.local/share/renesas/e2_studio/toolchains/gcc_arm/gcc-arm-none-eabi-6-2017-q2-update/arm-none-eabi/include/c++/6.3.1/bits/basic_string.h ****       /**
1055:/home/zkmike/.local/share/renesas/e2_studio/toolchains/gcc_arm/gcc-arm-none-eabi-6-2017-q2-update/arm-none-eabi/include/c++/6.3.1/bits/basic_string.h ****        *  @brief  Append a character.
1056:/home/zkmike/.local/share/renesas/e2_studio/toolchains/gcc_arm/gcc-arm-none-eabi-6-2017-q2-update/arm-none-eabi/include/c++/6.3.1/bits/basic_string.h ****        *  @param __c  The character to append.
1057:/home/zkmike/.local/share/renesas/e2_studio/toolchains/gcc_arm/gcc-arm-none-eabi-6-2017-q2-update/arm-none-eabi/include/c++/6.3.1/bits/basic_string.h ****        *  @return  Reference to this string.
1058:/home/zkmike/.local/share/renesas/e2_studio/toolchains/gcc_arm/gcc-arm-none-eabi-6-2017-q2-update/arm-none-eabi/include/c++/6.3.1/bits/basic_string.h ****        */
1059:/home/zkmike/.local/share/renesas/e2_studio/toolchains/gcc_arm/gcc-arm-none-eabi-6-2017-q2-update/arm-none-eabi/include/c++/6.3.1/bits/basic_string.h ****       basic_string&
1060:/home/zkmike/.local/share/renesas/e2_studio/toolchains/gcc_arm/gcc-arm-none-eabi-6-2017-q2-update/arm-none-eabi/include/c++/6.3.1/bits/basic_string.h ****       operator+=(_CharT __c)
1061:/home/zkmike/.local/share/renesas/e2_studio/toolchains/gcc_arm/gcc-arm-none-eabi-6-2017-q2-update/arm-none-eabi/include/c++/6.3.1/bits/basic_string.h ****       {
1062:/home/zkmike/.local/share/renesas/e2_studio/toolchains/gcc_arm/gcc-arm-none-eabi-6-2017-q2-update/arm-none-eabi/include/c++/6.3.1/bits/basic_string.h **** 	this->push_back(__c);
1063:/home/zkmike/.local/share/renesas/e2_studio/toolchains/gcc_arm/gcc-arm-none-eabi-6-2017-q2-update/arm-none-eabi/include/c++/6.3.1/bits/basic_string.h **** 	return *this;
1064:/home/zkmike/.local/share/renesas/e2_studio/toolchains/gcc_arm/gcc-arm-none-eabi-6-2017-q2-update/arm-none-eabi/include/c++/6.3.1/bits/basic_string.h ****       }
1065:/home/zkmike/.local/share/renesas/e2_studio/toolchains/gcc_arm/gcc-arm-none-eabi-6-2017-q2-update/arm-none-eabi/include/c++/6.3.1/bits/basic_string.h **** 
1066:/home/zkmike/.local/share/renesas/e2_studio/toolchains/gcc_arm/gcc-arm-none-eabi-6-2017-q2-update/arm-none-eabi/include/c++/6.3.1/bits/basic_string.h **** #if __cplusplus >= 201103L
1067:/home/zkmike/.local/share/renesas/e2_studio/toolchains/gcc_arm/gcc-arm-none-eabi-6-2017-q2-update/arm-none-eabi/include/c++/6.3.1/bits/basic_string.h ****       /**
1068:/home/zkmike/.local/share/renesas/e2_studio/toolchains/gcc_arm/gcc-arm-none-eabi-6-2017-q2-update/arm-none-eabi/include/c++/6.3.1/bits/basic_string.h ****        *  @brief  Append an initializer_list of characters.
1069:/home/zkmike/.local/share/renesas/e2_studio/toolchains/gcc_arm/gcc-arm-none-eabi-6-2017-q2-update/arm-none-eabi/include/c++/6.3.1/bits/basic_string.h ****        *  @param __l  The initializer_list of characters to be appended.
1070:/home/zkmike/.local/share/renesas/e2_studio/toolchains/gcc_arm/gcc-arm-none-eabi-6-2017-q2-update/arm-none-eabi/include/c++/6.3.1/bits/basic_string.h ****        *  @return  Reference to this string.
1071:/home/zkmike/.local/share/renesas/e2_studio/toolchains/gcc_arm/gcc-arm-none-eabi-6-2017-q2-update/arm-none-eabi/include/c++/6.3.1/bits/basic_string.h ****        */
1072:/home/zkmike/.local/share/renesas/e2_studio/toolchains/gcc_arm/gcc-arm-none-eabi-6-2017-q2-update/arm-none-eabi/include/c++/6.3.1/bits/basic_string.h ****       basic_string&
1073:/home/zkmike/.local/share/renesas/e2_studio/toolchains/gcc_arm/gcc-arm-none-eabi-6-2017-q2-update/arm-none-eabi/include/c++/6.3.1/bits/basic_string.h ****       operator+=(initializer_list<_CharT> __l)
1074:/home/zkmike/.local/share/renesas/e2_studio/toolchains/gcc_arm/gcc-arm-none-eabi-6-2017-q2-update/arm-none-eabi/include/c++/6.3.1/bits/basic_string.h ****       { return this->append(__l.begin(), __l.size()); }
1075:/home/zkmike/.local/share/renesas/e2_studio/toolchains/gcc_arm/gcc-arm-none-eabi-6-2017-q2-update/arm-none-eabi/include/c++/6.3.1/bits/basic_string.h **** #endif // C++11
1076:/home/zkmike/.local/share/renesas/e2_studio/toolchains/gcc_arm/gcc-arm-none-eabi-6-2017-q2-update/arm-none-eabi/include/c++/6.3.1/bits/basic_string.h **** 
1077:/home/zkmike/.local/share/renesas/e2_studio/toolchains/gcc_arm/gcc-arm-none-eabi-6-2017-q2-update/arm-none-eabi/include/c++/6.3.1/bits/basic_string.h ****       /**
1078:/home/zkmike/.local/share/renesas/e2_studio/toolchains/gcc_arm/gcc-arm-none-eabi-6-2017-q2-update/arm-none-eabi/include/c++/6.3.1/bits/basic_string.h ****        *  @brief  Append a string to this string.
1079:/home/zkmike/.local/share/renesas/e2_studio/toolchains/gcc_arm/gcc-arm-none-eabi-6-2017-q2-update/arm-none-eabi/include/c++/6.3.1/bits/basic_string.h ****        *  @param __str  The string to append.
1080:/home/zkmike/.local/share/renesas/e2_studio/toolchains/gcc_arm/gcc-arm-none-eabi-6-2017-q2-update/arm-none-eabi/include/c++/6.3.1/bits/basic_string.h ****        *  @return  Reference to this string.
1081:/home/zkmike/.local/share/renesas/e2_studio/toolchains/gcc_arm/gcc-arm-none-eabi-6-2017-q2-update/arm-none-eabi/include/c++/6.3.1/bits/basic_string.h ****        */
1082:/home/zkmike/.local/share/renesas/e2_studio/toolchains/gcc_arm/gcc-arm-none-eabi-6-2017-q2-update/arm-none-eabi/include/c++/6.3.1/bits/basic_string.h ****       basic_string&
1083:/home/zkmike/.local/share/renesas/e2_studio/toolchains/gcc_arm/gcc-arm-none-eabi-6-2017-q2-update/arm-none-eabi/include/c++/6.3.1/bits/basic_string.h ****       append(const basic_string& __str)
1084:/home/zkmike/.local/share/renesas/e2_studio/toolchains/gcc_arm/gcc-arm-none-eabi-6-2017-q2-update/arm-none-eabi/include/c++/6.3.1/bits/basic_string.h ****       { return _M_append(__str._M_data(), __str.size()); }
1085:/home/zkmike/.local/share/renesas/e2_studio/toolchains/gcc_arm/gcc-arm-none-eabi-6-2017-q2-update/arm-none-eabi/include/c++/6.3.1/bits/basic_string.h **** 
1086:/home/zkmike/.local/share/renesas/e2_studio/toolchains/gcc_arm/gcc-arm-none-eabi-6-2017-q2-update/arm-none-eabi/include/c++/6.3.1/bits/basic_string.h ****       /**
1087:/home/zkmike/.local/share/renesas/e2_studio/toolchains/gcc_arm/gcc-arm-none-eabi-6-2017-q2-update/arm-none-eabi/include/c++/6.3.1/bits/basic_string.h ****        *  @brief  Append a substring.
1088:/home/zkmike/.local/share/renesas/e2_studio/toolchains/gcc_arm/gcc-arm-none-eabi-6-2017-q2-update/arm-none-eabi/include/c++/6.3.1/bits/basic_string.h ****        *  @param __str  The string to append.
1089:/home/zkmike/.local/share/renesas/e2_studio/toolchains/gcc_arm/gcc-arm-none-eabi-6-2017-q2-update/arm-none-eabi/include/c++/6.3.1/bits/basic_string.h ****        *  @param __pos  Index of the first character of str to append.
1090:/home/zkmike/.local/share/renesas/e2_studio/toolchains/gcc_arm/gcc-arm-none-eabi-6-2017-q2-update/arm-none-eabi/include/c++/6.3.1/bits/basic_string.h ****        *  @param __n  The number of characters to append.
1091:/home/zkmike/.local/share/renesas/e2_studio/toolchains/gcc_arm/gcc-arm-none-eabi-6-2017-q2-update/arm-none-eabi/include/c++/6.3.1/bits/basic_string.h ****        *  @return  Reference to this string.
1092:/home/zkmike/.local/share/renesas/e2_studio/toolchains/gcc_arm/gcc-arm-none-eabi-6-2017-q2-update/arm-none-eabi/include/c++/6.3.1/bits/basic_string.h ****        *  @throw  std::out_of_range if @a __pos is not a valid index.
1093:/home/zkmike/.local/share/renesas/e2_studio/toolchains/gcc_arm/gcc-arm-none-eabi-6-2017-q2-update/arm-none-eabi/include/c++/6.3.1/bits/basic_string.h ****        *
1094:/home/zkmike/.local/share/renesas/e2_studio/toolchains/gcc_arm/gcc-arm-none-eabi-6-2017-q2-update/arm-none-eabi/include/c++/6.3.1/bits/basic_string.h ****        *  This function appends @a __n characters from @a __str
1095:/home/zkmike/.local/share/renesas/e2_studio/toolchains/gcc_arm/gcc-arm-none-eabi-6-2017-q2-update/arm-none-eabi/include/c++/6.3.1/bits/basic_string.h ****        *  starting at @a __pos to this string.  If @a __n is is larger
1096:/home/zkmike/.local/share/renesas/e2_studio/toolchains/gcc_arm/gcc-arm-none-eabi-6-2017-q2-update/arm-none-eabi/include/c++/6.3.1/bits/basic_string.h ****        *  than the number of available characters in @a __str, the
1097:/home/zkmike/.local/share/renesas/e2_studio/toolchains/gcc_arm/gcc-arm-none-eabi-6-2017-q2-update/arm-none-eabi/include/c++/6.3.1/bits/basic_string.h ****        *  remainder of @a __str is appended.
1098:/home/zkmike/.local/share/renesas/e2_studio/toolchains/gcc_arm/gcc-arm-none-eabi-6-2017-q2-update/arm-none-eabi/include/c++/6.3.1/bits/basic_string.h ****        */
1099:/home/zkmike/.local/share/renesas/e2_studio/toolchains/gcc_arm/gcc-arm-none-eabi-6-2017-q2-update/arm-none-eabi/include/c++/6.3.1/bits/basic_string.h ****       basic_string&
1100:/home/zkmike/.local/share/renesas/e2_studio/toolchains/gcc_arm/gcc-arm-none-eabi-6-2017-q2-update/arm-none-eabi/include/c++/6.3.1/bits/basic_string.h ****       append(const basic_string& __str, size_type __pos, size_type __n)
1101:/home/zkmike/.local/share/renesas/e2_studio/toolchains/gcc_arm/gcc-arm-none-eabi-6-2017-q2-update/arm-none-eabi/include/c++/6.3.1/bits/basic_string.h ****       { return _M_append(__str._M_data()
1102:/home/zkmike/.local/share/renesas/e2_studio/toolchains/gcc_arm/gcc-arm-none-eabi-6-2017-q2-update/arm-none-eabi/include/c++/6.3.1/bits/basic_string.h **** 			 + __str._M_check(__pos, "basic_string::append"),
1103:/home/zkmike/.local/share/renesas/e2_studio/toolchains/gcc_arm/gcc-arm-none-eabi-6-2017-q2-update/arm-none-eabi/include/c++/6.3.1/bits/basic_string.h **** 			 __str._M_limit(__pos, __n)); }
1104:/home/zkmike/.local/share/renesas/e2_studio/toolchains/gcc_arm/gcc-arm-none-eabi-6-2017-q2-update/arm-none-eabi/include/c++/6.3.1/bits/basic_string.h **** 
1105:/home/zkmike/.local/share/renesas/e2_studio/toolchains/gcc_arm/gcc-arm-none-eabi-6-2017-q2-update/arm-none-eabi/include/c++/6.3.1/bits/basic_string.h ****       /**
1106:/home/zkmike/.local/share/renesas/e2_studio/toolchains/gcc_arm/gcc-arm-none-eabi-6-2017-q2-update/arm-none-eabi/include/c++/6.3.1/bits/basic_string.h ****        *  @brief  Append a C substring.
1107:/home/zkmike/.local/share/renesas/e2_studio/toolchains/gcc_arm/gcc-arm-none-eabi-6-2017-q2-update/arm-none-eabi/include/c++/6.3.1/bits/basic_string.h ****        *  @param __s  The C string to append.
1108:/home/zkmike/.local/share/renesas/e2_studio/toolchains/gcc_arm/gcc-arm-none-eabi-6-2017-q2-update/arm-none-eabi/include/c++/6.3.1/bits/basic_string.h ****        *  @param __n  The number of characters to append.
1109:/home/zkmike/.local/share/renesas/e2_studio/toolchains/gcc_arm/gcc-arm-none-eabi-6-2017-q2-update/arm-none-eabi/include/c++/6.3.1/bits/basic_string.h ****        *  @return  Reference to this string.
1110:/home/zkmike/.local/share/renesas/e2_studio/toolchains/gcc_arm/gcc-arm-none-eabi-6-2017-q2-update/arm-none-eabi/include/c++/6.3.1/bits/basic_string.h ****        */
1111:/home/zkmike/.local/share/renesas/e2_studio/toolchains/gcc_arm/gcc-arm-none-eabi-6-2017-q2-update/arm-none-eabi/include/c++/6.3.1/bits/basic_string.h ****       basic_string&
1112:/home/zkmike/.local/share/renesas/e2_studio/toolchains/gcc_arm/gcc-arm-none-eabi-6-2017-q2-update/arm-none-eabi/include/c++/6.3.1/bits/basic_string.h ****       append(const _CharT* __s, size_type __n)
1113:/home/zkmike/.local/share/renesas/e2_studio/toolchains/gcc_arm/gcc-arm-none-eabi-6-2017-q2-update/arm-none-eabi/include/c++/6.3.1/bits/basic_string.h ****       {
1114:/home/zkmike/.local/share/renesas/e2_studio/toolchains/gcc_arm/gcc-arm-none-eabi-6-2017-q2-update/arm-none-eabi/include/c++/6.3.1/bits/basic_string.h **** 	__glibcxx_requires_string_len(__s, __n);
1115:/home/zkmike/.local/share/renesas/e2_studio/toolchains/gcc_arm/gcc-arm-none-eabi-6-2017-q2-update/arm-none-eabi/include/c++/6.3.1/bits/basic_string.h **** 	_M_check_length(size_type(0), __n, "basic_string::append");
1116:/home/zkmike/.local/share/renesas/e2_studio/toolchains/gcc_arm/gcc-arm-none-eabi-6-2017-q2-update/arm-none-eabi/include/c++/6.3.1/bits/basic_string.h **** 	return _M_append(__s, __n);
1117:/home/zkmike/.local/share/renesas/e2_studio/toolchains/gcc_arm/gcc-arm-none-eabi-6-2017-q2-update/arm-none-eabi/include/c++/6.3.1/bits/basic_string.h ****       }
1118:/home/zkmike/.local/share/renesas/e2_studio/toolchains/gcc_arm/gcc-arm-none-eabi-6-2017-q2-update/arm-none-eabi/include/c++/6.3.1/bits/basic_string.h **** 
1119:/home/zkmike/.local/share/renesas/e2_studio/toolchains/gcc_arm/gcc-arm-none-eabi-6-2017-q2-update/arm-none-eabi/include/c++/6.3.1/bits/basic_string.h ****       /**
1120:/home/zkmike/.local/share/renesas/e2_studio/toolchains/gcc_arm/gcc-arm-none-eabi-6-2017-q2-update/arm-none-eabi/include/c++/6.3.1/bits/basic_string.h ****        *  @brief  Append a C string.
1121:/home/zkmike/.local/share/renesas/e2_studio/toolchains/gcc_arm/gcc-arm-none-eabi-6-2017-q2-update/arm-none-eabi/include/c++/6.3.1/bits/basic_string.h ****        *  @param __s  The C string to append.
1122:/home/zkmike/.local/share/renesas/e2_studio/toolchains/gcc_arm/gcc-arm-none-eabi-6-2017-q2-update/arm-none-eabi/include/c++/6.3.1/bits/basic_string.h ****        *  @return  Reference to this string.
1123:/home/zkmike/.local/share/renesas/e2_studio/toolchains/gcc_arm/gcc-arm-none-eabi-6-2017-q2-update/arm-none-eabi/include/c++/6.3.1/bits/basic_string.h ****        */
1124:/home/zkmike/.local/share/renesas/e2_studio/toolchains/gcc_arm/gcc-arm-none-eabi-6-2017-q2-update/arm-none-eabi/include/c++/6.3.1/bits/basic_string.h ****       basic_string&
1125:/home/zkmike/.local/share/renesas/e2_studio/toolchains/gcc_arm/gcc-arm-none-eabi-6-2017-q2-update/arm-none-eabi/include/c++/6.3.1/bits/basic_string.h ****       append(const _CharT* __s)
1126:/home/zkmike/.local/share/renesas/e2_studio/toolchains/gcc_arm/gcc-arm-none-eabi-6-2017-q2-update/arm-none-eabi/include/c++/6.3.1/bits/basic_string.h ****       {
1127:/home/zkmike/.local/share/renesas/e2_studio/toolchains/gcc_arm/gcc-arm-none-eabi-6-2017-q2-update/arm-none-eabi/include/c++/6.3.1/bits/basic_string.h **** 	__glibcxx_requires_string(__s);
1128:/home/zkmike/.local/share/renesas/e2_studio/toolchains/gcc_arm/gcc-arm-none-eabi-6-2017-q2-update/arm-none-eabi/include/c++/6.3.1/bits/basic_string.h **** 	const size_type __n = traits_type::length(__s);
1129:/home/zkmike/.local/share/renesas/e2_studio/toolchains/gcc_arm/gcc-arm-none-eabi-6-2017-q2-update/arm-none-eabi/include/c++/6.3.1/bits/basic_string.h **** 	_M_check_length(size_type(0), __n, "basic_string::append");
1130:/home/zkmike/.local/share/renesas/e2_studio/toolchains/gcc_arm/gcc-arm-none-eabi-6-2017-q2-update/arm-none-eabi/include/c++/6.3.1/bits/basic_string.h **** 	return _M_append(__s, __n);
1131:/home/zkmike/.local/share/renesas/e2_studio/toolchains/gcc_arm/gcc-arm-none-eabi-6-2017-q2-update/arm-none-eabi/include/c++/6.3.1/bits/basic_string.h ****       }
1132:/home/zkmike/.local/share/renesas/e2_studio/toolchains/gcc_arm/gcc-arm-none-eabi-6-2017-q2-update/arm-none-eabi/include/c++/6.3.1/bits/basic_string.h **** 
1133:/home/zkmike/.local/share/renesas/e2_studio/toolchains/gcc_arm/gcc-arm-none-eabi-6-2017-q2-update/arm-none-eabi/include/c++/6.3.1/bits/basic_string.h ****       /**
1134:/home/zkmike/.local/share/renesas/e2_studio/toolchains/gcc_arm/gcc-arm-none-eabi-6-2017-q2-update/arm-none-eabi/include/c++/6.3.1/bits/basic_string.h ****        *  @brief  Append multiple characters.
1135:/home/zkmike/.local/share/renesas/e2_studio/toolchains/gcc_arm/gcc-arm-none-eabi-6-2017-q2-update/arm-none-eabi/include/c++/6.3.1/bits/basic_string.h ****        *  @param __n  The number of characters to append.
1136:/home/zkmike/.local/share/renesas/e2_studio/toolchains/gcc_arm/gcc-arm-none-eabi-6-2017-q2-update/arm-none-eabi/include/c++/6.3.1/bits/basic_string.h ****        *  @param __c  The character to use.
1137:/home/zkmike/.local/share/renesas/e2_studio/toolchains/gcc_arm/gcc-arm-none-eabi-6-2017-q2-update/arm-none-eabi/include/c++/6.3.1/bits/basic_string.h ****        *  @return  Reference to this string.
1138:/home/zkmike/.local/share/renesas/e2_studio/toolchains/gcc_arm/gcc-arm-none-eabi-6-2017-q2-update/arm-none-eabi/include/c++/6.3.1/bits/basic_string.h ****        *
1139:/home/zkmike/.local/share/renesas/e2_studio/toolchains/gcc_arm/gcc-arm-none-eabi-6-2017-q2-update/arm-none-eabi/include/c++/6.3.1/bits/basic_string.h ****        *  Appends __n copies of __c to this string.
1140:/home/zkmike/.local/share/renesas/e2_studio/toolchains/gcc_arm/gcc-arm-none-eabi-6-2017-q2-update/arm-none-eabi/include/c++/6.3.1/bits/basic_string.h ****        */
1141:/home/zkmike/.local/share/renesas/e2_studio/toolchains/gcc_arm/gcc-arm-none-eabi-6-2017-q2-update/arm-none-eabi/include/c++/6.3.1/bits/basic_string.h ****       basic_string&
1142:/home/zkmike/.local/share/renesas/e2_studio/toolchains/gcc_arm/gcc-arm-none-eabi-6-2017-q2-update/arm-none-eabi/include/c++/6.3.1/bits/basic_string.h ****       append(size_type __n, _CharT __c)
1143:/home/zkmike/.local/share/renesas/e2_studio/toolchains/gcc_arm/gcc-arm-none-eabi-6-2017-q2-update/arm-none-eabi/include/c++/6.3.1/bits/basic_string.h ****       { return _M_replace_aux(this->size(), size_type(0), __n, __c); }
1144:/home/zkmike/.local/share/renesas/e2_studio/toolchains/gcc_arm/gcc-arm-none-eabi-6-2017-q2-update/arm-none-eabi/include/c++/6.3.1/bits/basic_string.h **** 
1145:/home/zkmike/.local/share/renesas/e2_studio/toolchains/gcc_arm/gcc-arm-none-eabi-6-2017-q2-update/arm-none-eabi/include/c++/6.3.1/bits/basic_string.h **** #if __cplusplus >= 201103L
1146:/home/zkmike/.local/share/renesas/e2_studio/toolchains/gcc_arm/gcc-arm-none-eabi-6-2017-q2-update/arm-none-eabi/include/c++/6.3.1/bits/basic_string.h ****       /**
1147:/home/zkmike/.local/share/renesas/e2_studio/toolchains/gcc_arm/gcc-arm-none-eabi-6-2017-q2-update/arm-none-eabi/include/c++/6.3.1/bits/basic_string.h ****        *  @brief  Append an initializer_list of characters.
1148:/home/zkmike/.local/share/renesas/e2_studio/toolchains/gcc_arm/gcc-arm-none-eabi-6-2017-q2-update/arm-none-eabi/include/c++/6.3.1/bits/basic_string.h ****        *  @param __l  The initializer_list of characters to append.
1149:/home/zkmike/.local/share/renesas/e2_studio/toolchains/gcc_arm/gcc-arm-none-eabi-6-2017-q2-update/arm-none-eabi/include/c++/6.3.1/bits/basic_string.h ****        *  @return  Reference to this string.
1150:/home/zkmike/.local/share/renesas/e2_studio/toolchains/gcc_arm/gcc-arm-none-eabi-6-2017-q2-update/arm-none-eabi/include/c++/6.3.1/bits/basic_string.h ****        */
1151:/home/zkmike/.local/share/renesas/e2_studio/toolchains/gcc_arm/gcc-arm-none-eabi-6-2017-q2-update/arm-none-eabi/include/c++/6.3.1/bits/basic_string.h ****       basic_string&
1152:/home/zkmike/.local/share/renesas/e2_studio/toolchains/gcc_arm/gcc-arm-none-eabi-6-2017-q2-update/arm-none-eabi/include/c++/6.3.1/bits/basic_string.h ****       append(initializer_list<_CharT> __l)
1153:/home/zkmike/.local/share/renesas/e2_studio/toolchains/gcc_arm/gcc-arm-none-eabi-6-2017-q2-update/arm-none-eabi/include/c++/6.3.1/bits/basic_string.h ****       { return this->append(__l.begin(), __l.size()); }
1154:/home/zkmike/.local/share/renesas/e2_studio/toolchains/gcc_arm/gcc-arm-none-eabi-6-2017-q2-update/arm-none-eabi/include/c++/6.3.1/bits/basic_string.h **** #endif // C++11
1155:/home/zkmike/.local/share/renesas/e2_studio/toolchains/gcc_arm/gcc-arm-none-eabi-6-2017-q2-update/arm-none-eabi/include/c++/6.3.1/bits/basic_string.h **** 
1156:/home/zkmike/.local/share/renesas/e2_studio/toolchains/gcc_arm/gcc-arm-none-eabi-6-2017-q2-update/arm-none-eabi/include/c++/6.3.1/bits/basic_string.h ****       /**
1157:/home/zkmike/.local/share/renesas/e2_studio/toolchains/gcc_arm/gcc-arm-none-eabi-6-2017-q2-update/arm-none-eabi/include/c++/6.3.1/bits/basic_string.h ****        *  @brief  Append a range of characters.
1158:/home/zkmike/.local/share/renesas/e2_studio/toolchains/gcc_arm/gcc-arm-none-eabi-6-2017-q2-update/arm-none-eabi/include/c++/6.3.1/bits/basic_string.h ****        *  @param __first  Iterator referencing the first character to append.
1159:/home/zkmike/.local/share/renesas/e2_studio/toolchains/gcc_arm/gcc-arm-none-eabi-6-2017-q2-update/arm-none-eabi/include/c++/6.3.1/bits/basic_string.h ****        *  @param __last  Iterator marking the end of the range.
1160:/home/zkmike/.local/share/renesas/e2_studio/toolchains/gcc_arm/gcc-arm-none-eabi-6-2017-q2-update/arm-none-eabi/include/c++/6.3.1/bits/basic_string.h ****        *  @return  Reference to this string.
1161:/home/zkmike/.local/share/renesas/e2_studio/toolchains/gcc_arm/gcc-arm-none-eabi-6-2017-q2-update/arm-none-eabi/include/c++/6.3.1/bits/basic_string.h ****        *
1162:/home/zkmike/.local/share/renesas/e2_studio/toolchains/gcc_arm/gcc-arm-none-eabi-6-2017-q2-update/arm-none-eabi/include/c++/6.3.1/bits/basic_string.h ****        *  Appends characters in the range [__first,__last) to this string.
1163:/home/zkmike/.local/share/renesas/e2_studio/toolchains/gcc_arm/gcc-arm-none-eabi-6-2017-q2-update/arm-none-eabi/include/c++/6.3.1/bits/basic_string.h ****        */
1164:/home/zkmike/.local/share/renesas/e2_studio/toolchains/gcc_arm/gcc-arm-none-eabi-6-2017-q2-update/arm-none-eabi/include/c++/6.3.1/bits/basic_string.h **** #if __cplusplus >= 201103L
1165:/home/zkmike/.local/share/renesas/e2_studio/toolchains/gcc_arm/gcc-arm-none-eabi-6-2017-q2-update/arm-none-eabi/include/c++/6.3.1/bits/basic_string.h ****       template<class _InputIterator,
1166:/home/zkmike/.local/share/renesas/e2_studio/toolchains/gcc_arm/gcc-arm-none-eabi-6-2017-q2-update/arm-none-eabi/include/c++/6.3.1/bits/basic_string.h **** 	       typename = std::_RequireInputIter<_InputIterator>>
1167:/home/zkmike/.local/share/renesas/e2_studio/toolchains/gcc_arm/gcc-arm-none-eabi-6-2017-q2-update/arm-none-eabi/include/c++/6.3.1/bits/basic_string.h **** #else
1168:/home/zkmike/.local/share/renesas/e2_studio/toolchains/gcc_arm/gcc-arm-none-eabi-6-2017-q2-update/arm-none-eabi/include/c++/6.3.1/bits/basic_string.h ****       template<class _InputIterator>
1169:/home/zkmike/.local/share/renesas/e2_studio/toolchains/gcc_arm/gcc-arm-none-eabi-6-2017-q2-update/arm-none-eabi/include/c++/6.3.1/bits/basic_string.h **** #endif
1170:/home/zkmike/.local/share/renesas/e2_studio/toolchains/gcc_arm/gcc-arm-none-eabi-6-2017-q2-update/arm-none-eabi/include/c++/6.3.1/bits/basic_string.h ****         basic_string&
1171:/home/zkmike/.local/share/renesas/e2_studio/toolchains/gcc_arm/gcc-arm-none-eabi-6-2017-q2-update/arm-none-eabi/include/c++/6.3.1/bits/basic_string.h ****         append(_InputIterator __first, _InputIterator __last)
1172:/home/zkmike/.local/share/renesas/e2_studio/toolchains/gcc_arm/gcc-arm-none-eabi-6-2017-q2-update/arm-none-eabi/include/c++/6.3.1/bits/basic_string.h ****         { return this->replace(end(), end(), __first, __last); }
1173:/home/zkmike/.local/share/renesas/e2_studio/toolchains/gcc_arm/gcc-arm-none-eabi-6-2017-q2-update/arm-none-eabi/include/c++/6.3.1/bits/basic_string.h **** 
1174:/home/zkmike/.local/share/renesas/e2_studio/toolchains/gcc_arm/gcc-arm-none-eabi-6-2017-q2-update/arm-none-eabi/include/c++/6.3.1/bits/basic_string.h ****       /**
1175:/home/zkmike/.local/share/renesas/e2_studio/toolchains/gcc_arm/gcc-arm-none-eabi-6-2017-q2-update/arm-none-eabi/include/c++/6.3.1/bits/basic_string.h ****        *  @brief  Append a single character.
1176:/home/zkmike/.local/share/renesas/e2_studio/toolchains/gcc_arm/gcc-arm-none-eabi-6-2017-q2-update/arm-none-eabi/include/c++/6.3.1/bits/basic_string.h ****        *  @param __c  Character to append.
1177:/home/zkmike/.local/share/renesas/e2_studio/toolchains/gcc_arm/gcc-arm-none-eabi-6-2017-q2-update/arm-none-eabi/include/c++/6.3.1/bits/basic_string.h ****        */
1178:/home/zkmike/.local/share/renesas/e2_studio/toolchains/gcc_arm/gcc-arm-none-eabi-6-2017-q2-update/arm-none-eabi/include/c++/6.3.1/bits/basic_string.h ****       void
1179:/home/zkmike/.local/share/renesas/e2_studio/toolchains/gcc_arm/gcc-arm-none-eabi-6-2017-q2-update/arm-none-eabi/include/c++/6.3.1/bits/basic_string.h ****       push_back(_CharT __c)
1180:/home/zkmike/.local/share/renesas/e2_studio/toolchains/gcc_arm/gcc-arm-none-eabi-6-2017-q2-update/arm-none-eabi/include/c++/6.3.1/bits/basic_string.h ****       {
1181:/home/zkmike/.local/share/renesas/e2_studio/toolchains/gcc_arm/gcc-arm-none-eabi-6-2017-q2-update/arm-none-eabi/include/c++/6.3.1/bits/basic_string.h **** 	const size_type __size = this->size();
1182:/home/zkmike/.local/share/renesas/e2_studio/toolchains/gcc_arm/gcc-arm-none-eabi-6-2017-q2-update/arm-none-eabi/include/c++/6.3.1/bits/basic_string.h **** 	if (__size + 1 > this->capacity())
1183:/home/zkmike/.local/share/renesas/e2_studio/toolchains/gcc_arm/gcc-arm-none-eabi-6-2017-q2-update/arm-none-eabi/include/c++/6.3.1/bits/basic_string.h **** 	  this->_M_mutate(__size, size_type(0), 0, size_type(1));
1184:/home/zkmike/.local/share/renesas/e2_studio/toolchains/gcc_arm/gcc-arm-none-eabi-6-2017-q2-update/arm-none-eabi/include/c++/6.3.1/bits/basic_string.h **** 	traits_type::assign(this->_M_data()[__size], __c);
1185:/home/zkmike/.local/share/renesas/e2_studio/toolchains/gcc_arm/gcc-arm-none-eabi-6-2017-q2-update/arm-none-eabi/include/c++/6.3.1/bits/basic_string.h **** 	this->_M_set_length(__size + 1);
1186:/home/zkmike/.local/share/renesas/e2_studio/toolchains/gcc_arm/gcc-arm-none-eabi-6-2017-q2-update/arm-none-eabi/include/c++/6.3.1/bits/basic_string.h ****       }
1187:/home/zkmike/.local/share/renesas/e2_studio/toolchains/gcc_arm/gcc-arm-none-eabi-6-2017-q2-update/arm-none-eabi/include/c++/6.3.1/bits/basic_string.h **** 
1188:/home/zkmike/.local/share/renesas/e2_studio/toolchains/gcc_arm/gcc-arm-none-eabi-6-2017-q2-update/arm-none-eabi/include/c++/6.3.1/bits/basic_string.h ****       /**
1189:/home/zkmike/.local/share/renesas/e2_studio/toolchains/gcc_arm/gcc-arm-none-eabi-6-2017-q2-update/arm-none-eabi/include/c++/6.3.1/bits/basic_string.h ****        *  @brief  Set value to contents of another string.
1190:/home/zkmike/.local/share/renesas/e2_studio/toolchains/gcc_arm/gcc-arm-none-eabi-6-2017-q2-update/arm-none-eabi/include/c++/6.3.1/bits/basic_string.h ****        *  @param  __str  Source string to use.
1191:/home/zkmike/.local/share/renesas/e2_studio/toolchains/gcc_arm/gcc-arm-none-eabi-6-2017-q2-update/arm-none-eabi/include/c++/6.3.1/bits/basic_string.h ****        *  @return  Reference to this string.
1192:/home/zkmike/.local/share/renesas/e2_studio/toolchains/gcc_arm/gcc-arm-none-eabi-6-2017-q2-update/arm-none-eabi/include/c++/6.3.1/bits/basic_string.h ****        */
1193:/home/zkmike/.local/share/renesas/e2_studio/toolchains/gcc_arm/gcc-arm-none-eabi-6-2017-q2-update/arm-none-eabi/include/c++/6.3.1/bits/basic_string.h ****       basic_string&
1194:/home/zkmike/.local/share/renesas/e2_studio/toolchains/gcc_arm/gcc-arm-none-eabi-6-2017-q2-update/arm-none-eabi/include/c++/6.3.1/bits/basic_string.h ****       assign(const basic_string& __str)
1195:/home/zkmike/.local/share/renesas/e2_studio/toolchains/gcc_arm/gcc-arm-none-eabi-6-2017-q2-update/arm-none-eabi/include/c++/6.3.1/bits/basic_string.h ****       {
1196:/home/zkmike/.local/share/renesas/e2_studio/toolchains/gcc_arm/gcc-arm-none-eabi-6-2017-q2-update/arm-none-eabi/include/c++/6.3.1/bits/basic_string.h **** 	this->_M_assign(__str);
 2123              		.loc 3 1196 0
 2124 02b8 F8108DE2 		add	r1, sp, #248
 2125              	.LVL219:
 2126 02bc C8008DE2 		add	r0, sp, #200
 2127              	.LVL220:
 2128 02c0 FEFFFFEB 		bl	_ZNSt7__cxx1112basic_stringIcSt11char_traitsIcESaIcEE9_M_assignERKS4_
 2129              	.LVL221:
 2130 02c4 E8FFFFEA 		b	.L120
 2131              	.LVL222:
 2132              	.L116:
 2133              	.LBE1282:
 2134              	.LBE1281:
 2135              	.LBE1291:
 2136              	.LBE1302:
 2137              	.LBB1303:
 2138              	.LBB1304:
 2139              	.LBB1305:
 2140              	.LBB1306:
 2141              	.LBB1307:
 110:/home/zkmike/.local/share/renesas/e2_studio/toolchains/gcc_arm/gcc-arm-none-eabi-6-2017-q2-update/arm-none-eabi/include/c++/6.3.1/bits/basic_string.h **** 
 2142              		.loc 3 110 0
 2143 02c8 E8308DE2 		add	r3, sp, #232
 2144              	.LVL223:
 2145 02cc E0308DE5 		str	r3, [sp, #224]
 2146              	.LVL224:
 2147              	.LBE1307:
 2148              	.LBE1306:
 2149              	.LBE1305:
 2150              	.LBB1308:
 2151              	.LBB1309:
 2152              	.LBB1310:
 2153              	.LBB1311:
 196:/home/zkmike/.local/share/renesas/e2_studio/toolchains/gcc_arm/gcc-arm-none-eabi-6-2017-q2-update/arm-none-eabi/include/c++/6.3.1/bits/basic_string.h **** 	}
 2154              		.loc 3 196 0
 2155 02d0 0030A0E3 		mov	r3, #0
 2156 02d4 0120A0E1 		mov	r2, r1
 2157 02d8 14109DE5 		ldr	r1, [sp, #20]
 2158              	.LVL225:
 2159 02dc E0008DE2 		add	r0, sp, #224
 2160              	.LVL226:
 2161              	.LEHB15:
 2162 02e0 FEFFFFEB 		bl	_ZNSt7__cxx1112basic_stringIcSt11char_traitsIcESaIcEE12_M_constructIPcEEvT_S7_St20forward_itera
 2163              	.LVL227:
 2164              	.LEHE15:
 2165              	.LBE1311:
 2166              	.LBE1310:
 2167              	.LBE1309:
 2168              	.LBE1308:
 2169              	.LBE1304:
 2170              	.LBE1303:
 2171              	.LBB1312:
 2172              	.LBB1313:
 2173              	.LBB1314:
 2174              	.LBB1315:
 136:/home/zkmike/.local/share/renesas/e2_studio/toolchains/gcc_arm/gcc-arm-none-eabi-6-2017-q2-update/arm-none-eabi/include/c++/6.3.1/bits/basic_string.h **** 
 2175              		.loc 3 136 0
 2176 02e4 C8309DE5 		ldr	r3, [sp, #200]
 2177              	.LVL228:
 2178              	.LBE1315:
 2179              	.LBE1314:
 2180              	.LBE1313:
 2181              	.LBB1316:
 2182              	.LBB1317:
 2183              	.LBB1318:
 2184              	.LBB1319:
 2185 02e8 E0209DE5 		ldr	r2, [sp, #224]
 2186              	.LVL229:
 2187              	.LBE1319:
 2188              	.LBE1318:
 2189              	.LBE1317:
 648:/home/zkmike/.local/share/renesas/e2_studio/toolchains/gcc_arm/gcc-arm-none-eabi-6-2017-q2-update/arm-none-eabi/include/c++/6.3.1/bits/basic_string.h **** 	    && (_Alloc_traits::_S_propagate_on_move_assign()
 2190              		.loc 3 648 0
 2191 02ec E8108DE2 		add	r1, sp, #232
 2192 02f0 010052E1 		cmp	r2, r1
 2193 02f4 1B00000A 		beq	.L123
 2194              	.LVL230:
 2195              	.LBB1320:
 654:/home/zkmike/.local/share/renesas/e2_studio/toolchains/gcc_arm/gcc-arm-none-eabi-6-2017-q2-update/arm-none-eabi/include/c++/6.3.1/bits/basic_string.h **** 	      {
 2196              		.loc 3 654 0
 2197 02f8 D0108DE2 		add	r1, sp, #208
 2198 02fc 010053E1 		cmp	r3, r1
 2199 0300 1300000A 		beq	.L137
 2200              	.LVL231:
 659:/home/zkmike/.local/share/renesas/e2_studio/toolchains/gcc_arm/gcc-arm-none-eabi-6-2017-q2-update/arm-none-eabi/include/c++/6.3.1/bits/basic_string.h **** 		  }
 2201              		.loc 3 659 0
 2202 0304 D0609DE5 		ldr	r6, [sp, #208]
 2203              	.LVL232:
 2204              	.L124:
 2205              	.LBB1321:
 2206              	.LBB1322:
 128:/home/zkmike/.local/share/renesas/e2_studio/toolchains/gcc_arm/gcc-arm-none-eabi-6-2017-q2-update/arm-none-eabi/include/c++/6.3.1/bits/basic_string.h **** 
 2207              		.loc 3 128 0
 2208 0308 C8208DE5 		str	r2, [sp, #200]
 2209              	.LVL233:
 2210              	.LBE1322:
 2211              	.LBE1321:
 2212              	.LBB1323:
 2213              	.LBB1324:
 811:/home/zkmike/.local/share/renesas/e2_studio/toolchains/gcc_arm/gcc-arm-none-eabi-6-2017-q2-update/arm-none-eabi/include/c++/6.3.1/bits/basic_string.h **** 
 2214              		.loc 3 811 0
 2215 030c E4209DE5 		ldr	r2, [sp, #228]
 2216              	.LVL234:
 2217              	.LBE1324:
 2218              	.LBE1323:
 2219              	.LBB1325:
 2220              	.LBB1326:
 132:/home/zkmike/.local/share/renesas/e2_studio/toolchains/gcc_arm/gcc-arm-none-eabi-6-2017-q2-update/arm-none-eabi/include/c++/6.3.1/bits/basic_string.h **** 
 2221              		.loc 3 132 0
 2222 0310 CC208DE5 		str	r2, [sp, #204]
 2223              	.LVL235:
 2224              	.LBE1326:
 2225              	.LBE1325:
 667:/home/zkmike/.local/share/renesas/e2_studio/toolchains/gcc_arm/gcc-arm-none-eabi-6-2017-q2-update/arm-none-eabi/include/c++/6.3.1/bits/basic_string.h **** 	    if (__data)
 2226              		.loc 3 667 0
 2227 0314 E8209DE5 		ldr	r2, [sp, #232]
 2228              	.LVL236:
 2229              	.LBB1327:
 2230              	.LBB1328:
 160:/home/zkmike/.local/share/renesas/e2_studio/toolchains/gcc_arm/gcc-arm-none-eabi-6-2017-q2-update/arm-none-eabi/include/c++/6.3.1/bits/basic_string.h **** 
 2231              		.loc 3 160 0
 2232 0318 D0208DE5 		str	r2, [sp, #208]
 2233              	.LVL237:
 2234              	.LBE1328:
 2235              	.LBE1327:
 668:/home/zkmike/.local/share/renesas/e2_studio/toolchains/gcc_arm/gcc-arm-none-eabi-6-2017-q2-update/arm-none-eabi/include/c++/6.3.1/bits/basic_string.h **** 	      {
 2236              		.loc 3 668 0
 2237 031c 000053E3 		cmp	r3, #0
 2238 0320 0D00000A 		beq	.L125
 2239              	.LVL238:
 2240              	.LBB1329:
 2241              	.LBB1330:
 128:/home/zkmike/.local/share/renesas/e2_studio/toolchains/gcc_arm/gcc-arm-none-eabi-6-2017-q2-update/arm-none-eabi/include/c++/6.3.1/bits/basic_string.h **** 
 2242              		.loc 3 128 0
 2243 0324 E0308DE5 		str	r3, [sp, #224]
 2244              	.LVL239:
 2245              	.LBE1330:
 2246              	.LBE1329:
 2247              	.LBB1331:
 2248              	.LBB1332:
 160:/home/zkmike/.local/share/renesas/e2_studio/toolchains/gcc_arm/gcc-arm-none-eabi-6-2017-q2-update/arm-none-eabi/include/c++/6.3.1/bits/basic_string.h **** 
 2249              		.loc 3 160 0
 2250 0328 E8608DE5 		str	r6, [sp, #232]
 2251              	.LVL240:
 2252              	.L126:
 2253              	.LBE1332:
 2254              	.LBE1331:
 2255              	.LBE1320:
 2256              	.LBE1316:
 2257              	.LBB1338:
 2258              	.LBB1339:
 2259              	.LBB1340:
 2260              	.LBB1341:
 132:/home/zkmike/.local/share/renesas/e2_studio/toolchains/gcc_arm/gcc-arm-none-eabi-6-2017-q2-update/arm-none-eabi/include/c++/6.3.1/bits/basic_string.h **** 
 2261              		.loc 3 132 0
 2262 032c 0030A0E3 		mov	r3, #0
 2263 0330 E4308DE5 		str	r3, [sp, #228]
 2264              	.LVL241:
 2265              	.LBE1341:
 2266              	.LBE1340:
 2267              	.LBB1342:
 2268              	.LBB1343:
 136:/home/zkmike/.local/share/renesas/e2_studio/toolchains/gcc_arm/gcc-arm-none-eabi-6-2017-q2-update/arm-none-eabi/include/c++/6.3.1/bits/basic_string.h **** 
 2269              		.loc 3 136 0
 2270 0334 E0209DE5 		ldr	r2, [sp, #224]
 2271              	.LVL242:
 2272              	.LBE1343:
 2273              	.LBE1342:
 2274              	.LBB1344:
 2275              	.LBB1345:
 243:/home/zkmike/.local/share/renesas/e2_studio/toolchains/gcc_arm/gcc-arm-none-eabi-6-2017-q2-update/arm-none-eabi/include/c++/6.3.1/bits/char_traits.h **** 
 2276              		.loc 11 243 0
 2277 0338 0030C2E5 		strb	r3, [r2]
 2278              	.LVL243:
 2279              	.LBE1345:
 2280              	.LBE1344:
 2281              	.LBE1339:
 2282              	.LBE1338:
 2283              	.LBE1312:
 2284              	.LBB1347:
 2285              	.LBB1348:
 2286              	.LBB1349:
 2287              	.LBB1350:
 2288              	.LBB1351:
 2289              	.LBB1352:
 136:/home/zkmike/.local/share/renesas/e2_studio/toolchains/gcc_arm/gcc-arm-none-eabi-6-2017-q2-update/arm-none-eabi/include/c++/6.3.1/bits/basic_string.h **** 
 2290              		.loc 3 136 0
 2291 033c E0009DE5 		ldr	r0, [sp, #224]
 2292              	.LVL244:
 2293              	.LBE1352:
 2294              	.LBE1351:
 2295              	.LBE1350:
 180:/home/zkmike/.local/share/renesas/e2_studio/toolchains/gcc_arm/gcc-arm-none-eabi-6-2017-q2-update/arm-none-eabi/include/c++/6.3.1/bits/basic_string.h **** 	  _M_destroy(_M_allocated_capacity);
 2296              		.loc 3 180 0
 2297 0340 E8308DE2 		add	r3, sp, #232
 2298 0344 030050E1 		cmp	r0, r3
 2299 0348 D0FFFF0A 		beq	.L122
 2300              	.LVL245:
 2301              	.LBB1353:
 2302              	.LBB1354:
 2303              	.LBB1355:
 2304              	.LBB1356:
 2305              		.loc 4 110 0
 2306 034c FEFFFFEB 		bl	_ZdlPv
 2307              	.LVL246:
 2308 0350 CEFFFFEA 		b	.L122
 2309              	.LVL247:
 2310              	.L137:
 2311              	.LBE1356:
 2312              	.LBE1355:
 2313              	.LBE1354:
 2314              	.LBE1353:
 2315              	.LBE1349:
 2316              	.LBE1348:
 2317              	.LBE1347:
 2318              	.LBB1357:
 2319              	.LBB1346:
 2320              	.LBB1335:
 652:/home/zkmike/.local/share/renesas/e2_studio/toolchains/gcc_arm/gcc-arm-none-eabi-6-2017-q2-update/arm-none-eabi/include/c++/6.3.1/bits/basic_string.h **** 	    size_type __capacity;
 2321              		.loc 3 652 0
 2322 0354 0030A0E3 		mov	r3, #0
 2323 0358 EAFFFFEA 		b	.L124
 2324              	.LVL248:
 2325              	.L125:
 2326              	.LBB1333:
 2327              	.LBB1334:
 128:/home/zkmike/.local/share/renesas/e2_studio/toolchains/gcc_arm/gcc-arm-none-eabi-6-2017-q2-update/arm-none-eabi/include/c++/6.3.1/bits/basic_string.h **** 
 2328              		.loc 3 128 0
 2329 035c E8308DE2 		add	r3, sp, #232
 2330              	.LVL249:
 2331 0360 E0308DE5 		str	r3, [sp, #224]
 2332 0364 F0FFFFEA 		b	.L126
 2333              	.LVL250:
 2334              	.L123:
 2335              	.LBE1334:
 2336              	.LBE1333:
 2337              	.LBE1335:
 2338              	.LBB1336:
 2339              	.LBB1337:
 2340              		.loc 3 1196 0
 2341 0368 E0108DE2 		add	r1, sp, #224
 2342              	.LVL251:
 2343 036c C8008DE2 		add	r0, sp, #200
 2344              	.LVL252:
 2345 0370 FEFFFFEB 		bl	_ZNSt7__cxx1112basic_stringIcSt11char_traitsIcESaIcEE9_M_assignERKS4_
 2346              	.LVL253:
 2347 0374 ECFFFFEA 		b	.L126
 2348              	.LVL254:
 2349              	.L115:
 2350              	.LBE1337:
 2351              	.LBE1336:
 2352              	.LBE1346:
 2353              	.LBE1357:
 2354              	.LBB1358:
 2355              	.LBB1359:
 2356              	.LBB1360:
 2357 0378 28108DE2 		add	r1, sp, #40
 2358              	.LVL255:
 2359 037c C8008DE2 		add	r0, sp, #200
 2360              	.LVL256:
 2361              	.LEHB16:
 2362 0380 FEFFFFEB 		bl	_ZNSt7__cxx1112basic_stringIcSt11char_traitsIcESaIcEE9_M_assignERKS4_
 2363              	.LVL257:
 2364              	.LEHE16:
 2365 0384 C1FFFFEA 		b	.L122
 2366              	.LVL258:
 2367              	.L141:
 2368              	.LBE1360:
 2369              	.LBE1359:
 2370              	.LBE1358:
 2371              	.LBB1361:
 2372              	.LBB1362:
 2373              	.LBB1363:
 2374              	.LBB1364:
 2375              	.LBB1365:
 2376              	.LBB1366:
 136:/home/zkmike/.local/share/renesas/e2_studio/toolchains/gcc_arm/gcc-arm-none-eabi-6-2017-q2-update/arm-none-eabi/include/c++/6.3.1/bits/basic_string.h **** 
 2377              		.loc 3 136 0
 2378 0388 C8009DE5 		ldr	r0, [sp, #200]
 2379              	.LVL259:
 2380              	.LBE1366:
 2381              	.LBE1365:
 2382              	.LBE1364:
 180:/home/zkmike/.local/share/renesas/e2_studio/toolchains/gcc_arm/gcc-arm-none-eabi-6-2017-q2-update/arm-none-eabi/include/c++/6.3.1/bits/basic_string.h **** 	  _M_destroy(_M_allocated_capacity);
 2383              		.loc 3 180 0
 2384 038c D0308DE2 		add	r3, sp, #208
 2385 0390 030050E1 		cmp	r0, r3
 2386 0394 0000000A 		beq	.L129
 2387              	.LVL260:
 2388              	.LBB1367:
 2389              	.LBB1368:
 2390              	.LBB1369:
 2391              	.LBB1370:
 2392              		.loc 4 110 0
 2393 0398 FEFFFFEB 		bl	_ZdlPv
 2394              	.LVL261:
 2395              	.L129:
 2396              	.LBE1370:
 2397              	.LBE1369:
 2398              	.LBE1368:
 2399              	.LBE1367:
 2400              	.LBE1363:
 2401              	.LBE1362:
 2402              	.LBE1361:
 2403              	.LBE1371:
 2404              	.LBE1372:
 2405              	.LBE1386:
  77:../src/zxing_lib/zxing/qrcode/decoder/Mode.cpp ****   }
 2406              		.loc 6 77 0
 2407 039c 0400A0E1 		mov	r0, r4
 2408 03a0 FEFFFFEB 		bl	__cxa_free_exception
 2409              	.LVL262:
 2410              	.L130:
  75:../src/zxing_lib/zxing/qrcode/decoder/Mode.cpp ****     s << "Illegal mode bits: " << bits;
 2411              		.loc 6 75 0
 2412 03a4 0D00A0E1 		mov	r0, sp
 2413 03a8 FEFFFFEB 		bl	_ZNSt7__cxx1119basic_ostringstreamIcSt11char_traitsIcESaIcEED1Ev
 2414              	.LVL263:
 2415              	.LEHB17:
 2416 03ac FEFFFFEB 		bl	__cxa_end_cleanup
 2417              	.LVL264:
 2418              	.LEHE17:
 2419              	.L147:
 2420              	.LBB1387:
 2421              	.LBB1384:
 2422              	.LBB1382:
 2423              	.LBB1380:
 2424              	.LBB1378:
  35:/home/zkmike/workspace/RZA2M/rza2m_2d_barcode_sample_freertos_gcc/src/zxing_lib/zxing/Exception.h ****   Exception(Exception const& that) throw() : std::exception(that), message(copy(that.message)) {}
 2425              		.loc 1 35 0
 2426 03b0 040084E5 		str	r0, [r4, #4]
 2427              	.LVL265:
 2428              	.LBE1378:
 2429              	.LBE1380:
 2430              	.LBE1382:
  31:/home/zkmike/workspace/RZA2M/rza2m_2d_barcode_sample_freertos_gcc/src/zxing_lib/zxing/ReaderException.h ****   ~ReaderException() throw() {}
 2431              		.loc 5 31 0
 2432 03b4 80309FE5 		ldr	r3, .L148+20
 2433 03b8 003084E5 		str	r3, [r4]
 2434              	.LVL266:
 2435              	.LBE1384:
 2436              	.LBE1387:
 2437              	.LBB1388:
 2438              	.LBB1389:
 2439              	.LBB1390:
 2440              	.LBB1391:
 2441              	.LBB1392:
 2442              	.LBB1393:
 136:/home/zkmike/.local/share/renesas/e2_studio/toolchains/gcc_arm/gcc-arm-none-eabi-6-2017-q2-update/arm-none-eabi/include/c++/6.3.1/bits/basic_string.h **** 
 2443              		.loc 3 136 0
 2444 03bc C8009DE5 		ldr	r0, [sp, #200]
 2445              	.LVL267:
 2446              	.LBE1393:
 2447              	.LBE1392:
 2448              	.LBE1391:
 180:/home/zkmike/.local/share/renesas/e2_studio/toolchains/gcc_arm/gcc-arm-none-eabi-6-2017-q2-update/arm-none-eabi/include/c++/6.3.1/bits/basic_string.h **** 	  _M_destroy(_M_allocated_capacity);
 2449              		.loc 3 180 0
 2450 03c0 D0308DE2 		add	r3, sp, #208
 2451 03c4 030050E1 		cmp	r0, r3
 2452 03c8 0000000A 		beq	.L132
 2453              	.LVL268:
 2454              	.LBB1394:
 2455              	.LBB1395:
 2456              	.LBB1396:
 2457              	.LBB1397:
 2458              		.loc 4 110 0
 2459 03cc FEFFFFEB 		bl	_ZdlPv
 2460              	.LVL269:
 2461              	.L132:
 2462              	.LBE1397:
 2463              	.LBE1396:
 2464              	.LBE1395:
 2465              	.LBE1394:
 2466              	.LBE1390:
 2467              	.LBE1389:
 2468              	.LBE1388:
  77:../src/zxing_lib/zxing/qrcode/decoder/Mode.cpp ****   }
 2469              		.loc 6 77 0
 2470 03d0 002000E3 		movw	r2, #:lower16:_ZN5zxing15ReaderExceptionD1Ev
 2471 03d4 002040E3 		movt	r2, #:upper16:_ZN5zxing15ReaderExceptionD1Ev
 2472 03d8 001000E3 		movw	r1, #:lower16:_ZTIN5zxing15ReaderExceptionE
 2473 03dc 001040E3 		movt	r1, #:upper16:_ZTIN5zxing15ReaderExceptionE
 2474 03e0 0400A0E1 		mov	r0, r4
 2475              	.LEHB18:
 2476 03e4 FEFFFFEB 		bl	__cxa_throw
 2477              	.LVL270:
 2478              	.LEHE18:
 2479              	.L138:
 2480 03e8 EDFFFFEA 		b	.L130
 2481              	.LVL271:
 2482              	.L142:
 2483 03ec 0050A0E1 		mov	r5, r0
 2484 03f0 0160A0E1 		mov	r6, r1
 2485              	.LBB1398:
 2486              	.LBB1385:
 2487              	.LBB1383:
 2488              	.LBB1381:
 2489              	.LBB1379:
  35:/home/zkmike/workspace/RZA2M/rza2m_2d_barcode_sample_freertos_gcc/src/zxing_lib/zxing/Exception.h ****   Exception(Exception const& that) throw() : std::exception(that), message(copy(that.message)) {}
 2490              		.loc 1 35 0
 2491 03f4 0400A0E1 		mov	r0, r4
 2492 03f8 FEFFFFEB 		bl	_ZNSt9exceptionD2Ev
 2493              	.LVL272:
 2494 03fc 010076E3 		cmn	r6, #1
 2495 0400 0000000A 		beq	.L134
 2496              	.LEHB19:
 2497 0404 FEFFFFEB 		bl	__cxa_end_cleanup
 2498              	.LVL273:
 2499              	.L134:
 2500              	.LBE1379:
 2501 0408 0500A0E1 		mov	r0, r5
 2502 040c FEFFFFEB 		bl	__cxa_call_unexpected
 2503              	.LVL274:
 2504              	.LEHE19:
 2505              	.L101:
 2506              		.cfi_def_cfa_offset 0
 2507              		.cfi_restore 4
 2508              		.cfi_restore 5
 2509              		.cfi_restore 6
 2510              		.cfi_restore 7
 2511              		.cfi_restore 8
 2512              		.cfi_restore 9
 2513              		.cfi_restore 14
 2514              	.LBE1381:
 2515              	.LBE1383:
 2516              	.LBE1385:
 2517              	.LBE1398:
 2518              	.LBE1199:
  54:../src/zxing_lib/zxing/qrcode/decoder/Mode.cpp ****   case 0x1:
 2519              		.loc 6 54 0
 2520 0410 000000E3 		movw	r0, #:lower16:.LANCHOR1
 2521              	.LVL275:
 2522 0414 000040E3 		movt	r0, #:upper16:.LANCHOR1
 2523 0418 010000EA 		b	.L99
 2524              	.LVL276:
 2525              	.L135:
  56:../src/zxing_lib/zxing/qrcode/decoder/Mode.cpp ****   case 0x2:
 2526              		.loc 6 56 0
 2527 041c 000000E3 		movw	r0, #:lower16:.LANCHOR2
 2528              	.LVL277:
 2529 0420 000040E3 		movt	r0, #:upper16:.LANCHOR2
 2530              	.L99:
 2531              	.LBE1399:
 2532              	.LBE1400:
  79:../src/zxing_lib/zxing/qrcode/decoder/Mode.cpp **** 
 2533              		.loc 6 79 0
 2534 0424 1EFF2FE1 		bx	lr
 2535              	.L149:
 2536              		.align	2
 2537              	.L148:
 2538 0428 08000000 		.word	_ZTVSt9basic_iosIcSt11char_traitsIcEE+8
 2539 042c 0C000000 		.word	_ZTVNSt7__cxx1119basic_ostringstreamIcSt11char_traitsIcESaIcEEE+12
 2540 0430 08000000 		.word	_ZTVSt15basic_streambufIcSt11char_traitsIcEE+8
 2541 0434 08000000 		.word	_ZTVNSt7__cxx1115basic_stringbufIcSt11char_traitsIcESaIcEEE+8
 2542 0438 08000000 		.word	_ZTVN5zxing9ExceptionE+8
 2543 043c 08000000 		.word	_ZTVN5zxing15ReaderExceptionE+8
 2544              		.cfi_endproc
 2545              	.LFE2304:
 2546              		.personality	__gxx_personality_v0
 2547              		.handlerdata
 2548              		.align	2
 2549              	.LLSDA2304:
 2550 0008 FF       		.byte	0xff
 2551 0009 10       		.byte	0x10
 2552 000a 4D       		.uleb128 .LLSDATT2304-.LLSDATTD2304
 2553              	.LLSDATTD2304:
 2554 000b 01       		.byte	0x1
 2555 000c 45       		.uleb128 .LLSDACSE2304-.LLSDACSB2304
 2556              	.LLSDACSB2304:
 2557 000d 9002     		.uleb128 .LEHB8-.LFB2304
 2558 000f 04       		.uleb128 .LEHE8-.LEHB8
 2559 0010 C403     		.uleb128 .L139-.LFB2304
 2560 0012 00       		.uleb128 0
 2561 0013 F802     		.uleb128 .LEHB9-.LFB2304
 2562 0015 04       		.uleb128 .LEHE9-.LEHB9
 2563 0016 9403     		.uleb128 .L140-.LFB2304
 2564 0018 00       		.uleb128 0
 2565 0019 8C03     		.uleb128 .LEHB10-.LFB2304
 2566 001b 04       		.uleb128 .LEHE10-.LEHB10
 2567 001c E807     		.uleb128 .L138-.LFB2304
 2568 001e 00       		.uleb128 0
 2569 001f C003     		.uleb128 .LEHB11-.LFB2304
 2570 0021 04       		.uleb128 .LEHE11-.LEHB11
 2571 0022 00       		.uleb128 0
 2572 0023 00       		.uleb128 0
 2573 0024 D003     		.uleb128 .LEHB12-.LFB2304
 2574 0026 04       		.uleb128 .LEHE12-.LEHB12
 2575 0027 E807     		.uleb128 .L138-.LFB2304
 2576 0029 00       		.uleb128 0
 2577 002a A004     		.uleb128 .LEHB13-.LFB2304
 2578 002c 04       		.uleb128 .LEHE13-.LEHB13
 2579 002d 8807     		.uleb128 .L141-.LFB2304
 2580 002f 00       		.uleb128 0
 2581 0030 9C05     		.uleb128 .LEHB14-.LFB2304
 2582 0032 04       		.uleb128 .LEHE14-.LEHB14
 2583 0033 EC07     		.uleb128 .L142-.LFB2304
 2584 0035 03       		.uleb128 0x3
 2585 0036 E005     		.uleb128 .LEHB15-.LFB2304
 2586 0038 04       		.uleb128 .LEHE15-.LEHB15
 2587 0039 8807     		.uleb128 .L141-.LFB2304
 2588 003b 00       		.uleb128 0
 2589 003c 8007     		.uleb128 .LEHB16-.LFB2304
 2590 003e 04       		.uleb128 .LEHE16-.LEHB16
 2591 003f 8807     		.uleb128 .L141-.LFB2304
 2592 0041 00       		.uleb128 0
 2593 0042 AC07     		.uleb128 .LEHB17-.LFB2304
 2594 0044 04       		.uleb128 .LEHE17-.LEHB17
 2595 0045 00       		.uleb128 0
 2596 0046 00       		.uleb128 0
 2597 0047 E407     		.uleb128 .LEHB18-.LFB2304
 2598 0049 04       		.uleb128 .LEHE18-.LEHB18
 2599 004a E807     		.uleb128 .L138-.LFB2304
 2600 004c 00       		.uleb128 0
 2601 004d 8408     		.uleb128 .LEHB19-.LFB2304
 2602 004f 0C       		.uleb128 .LEHE19-.LEHB19
 2603 0050 00       		.uleb128 0
 2604 0051 00       		.uleb128 0
 2605              	.LLSDACSE2304:
 2606 0052 7F       		.byte	0x7f
 2607 0053 00       		.byte	0
 2608 0054 00       		.byte	0
 2609 0055 7D       		.byte	0x7d
 2610 0056 0000     		.align	2
 2611              	.LLSDATT2304:
 2612 0058 00000000 		.word	0
 2613              		.section	.text._ZN5zxing6qrcode4Mode7forBitsEi
 2614              		.fnend
 2616              		.section	.text._GLOBAL__sub_I__ZN5zxing6qrcode4Mode10TERMINATORE,"ax",%progbits
 2617              		.align	2
 2618              		.syntax unified
 2619              		.arm
 2620              		.fpu neon
 2622              	_GLOBAL__sub_I__ZN5zxing6qrcode4Mode10TERMINATORE:
 2623              		.fnstart
 2624              	.LFB2819:
 2625              		.loc 6 90 0
 2626              		.cfi_startproc
 2627              		@ args = 0, pretend = 0, frame = 0
 2628              		@ frame_needed = 0, uses_anonymous_args = 0
 2629 0000 10402DE9 		push	{r4, lr}
 2630              		.cfi_def_cfa_offset 8
 2631              		.cfi_offset 4, -8
 2632              		.cfi_offset 14, -4
 2633              		.loc 6 90 0
 2634 0004 FF1F0FE3 		movw	r1, #65535
 2635 0008 0100A0E3 		mov	r0, #1
 2636 000c FEFFFFEB 		bl	_Z41__static_initialization_and_destruction_0ii
 2637              	.LVL278:
 2638 0010 1080BDE8 		pop	{r4, pc}
 2639              		.cfi_endproc
 2640              	.LFE2819:
 2641              		.cantunwind
 2642              		.fnend
 2644              		.section	.init_array,"aw",%init_array
 2645              		.align	2
 2646 0000 00000000 		.word	_GLOBAL__sub_I__ZN5zxing6qrcode4Mode10TERMINATORE(target1)
 2647              		.weak	_ZTSN5zxing9ExceptionE
 2648              		.section	.rodata._ZTSN5zxing9ExceptionE,"aG",%progbits,_ZTSN5zxing9ExceptionE,comdat
 2649              		.align	2
 2652              	_ZTSN5zxing9ExceptionE:
 2653 0000 4E357A78 		.ascii	"N5zxing9ExceptionE\000"
 2653      696E6739 
 2653      45786365 
 2653      7074696F 
 2653      6E4500
 2654              		.weak	_ZTIN5zxing9ExceptionE
 2655              		.section	.rodata._ZTIN5zxing9ExceptionE,"aG",%progbits,_ZTIN5zxing9ExceptionE,comdat
 2656              		.align	2
 2659              	_ZTIN5zxing9ExceptionE:
 2660 0000 08000000 		.word	_ZTVN10__cxxabiv120__si_class_type_infoE+8
 2661 0004 00000000 		.word	_ZTSN5zxing9ExceptionE
 2662 0008 00000000 		.word	_ZTISt9exception
 2663              		.weak	_ZTSN5zxing15ReaderExceptionE
 2664              		.section	.rodata._ZTSN5zxing15ReaderExceptionE,"aG",%progbits,_ZTSN5zxing15ReaderExceptionE,comdat
 2665              		.align	2
 2668              	_ZTSN5zxing15ReaderExceptionE:
 2669 0000 4E357A78 		.ascii	"N5zxing15ReaderExceptionE\000"
 2669      696E6731 
 2669      35526561 
 2669      64657245 
 2669      78636570 
 2670              		.weak	_ZTIN5zxing15ReaderExceptionE
 2671              		.section	.rodata._ZTIN5zxing15ReaderExceptionE,"aG",%progbits,_ZTIN5zxing15ReaderExceptionE,comdat
 2672              		.align	2
 2675              	_ZTIN5zxing15ReaderExceptionE:
 2676 0000 08000000 		.word	_ZTVN10__cxxabiv120__si_class_type_infoE+8
 2677 0004 00000000 		.word	_ZTSN5zxing15ReaderExceptionE
 2678 0008 00000000 		.word	_ZTIN5zxing9ExceptionE
 2679              		.weak	_ZTVN5zxing9ExceptionE
 2680              		.section	.rodata._ZTVN5zxing9ExceptionE,"aG",%progbits,_ZTVN5zxing9ExceptionE,comdat
 2681              		.align	2
 2684              	_ZTVN5zxing9ExceptionE:
 2685 0000 00000000 		.word	0
 2686 0004 00000000 		.word	_ZTIN5zxing9ExceptionE
 2687 0008 00000000 		.word	_ZN5zxing9ExceptionD1Ev
 2688 000c 00000000 		.word	_ZN5zxing9ExceptionD0Ev
 2689 0010 00000000 		.word	_ZNK5zxing9Exception4whatEv
 2690              		.weak	_ZTVN5zxing15ReaderExceptionE
 2691              		.section	.rodata._ZTVN5zxing15ReaderExceptionE,"aG",%progbits,_ZTVN5zxing15ReaderExceptionE,comdat
 2692              		.align	2
 2695              	_ZTVN5zxing15ReaderExceptionE:
 2696 0000 00000000 		.word	0
 2697 0004 00000000 		.word	_ZTIN5zxing15ReaderExceptionE
 2698 0008 00000000 		.word	_ZN5zxing15ReaderExceptionD1Ev
 2699 000c 00000000 		.word	_ZN5zxing15ReaderExceptionD0Ev
 2700 0010 00000000 		.word	_ZNK5zxing9Exception4whatEv
 2701              		.global	_ZN5zxing6qrcode4Mode5HANZIE
 2702              		.global	_ZN5zxing6qrcode4Mode20FNC1_SECOND_POSITIONE
 2703              		.global	_ZN5zxing6qrcode4Mode19FNC1_FIRST_POSITIONE
 2704              		.global	_ZN5zxing6qrcode4Mode5KANJIE
 2705              		.global	_ZN5zxing6qrcode4Mode3ECIE
 2706              		.global	_ZN5zxing6qrcode4Mode4BYTEE
 2707              		.global	_ZN5zxing6qrcode4Mode17STRUCTURED_APPENDE
 2708              		.global	_ZN5zxing6qrcode4Mode12ALPHANUMERICE
 2709              		.global	_ZN5zxing6qrcode4Mode7NUMERICE
 2710              		.global	_ZN5zxing6qrcode4Mode10TERMINATORE
 2711              		.section	.bss._ZN5zxing6qrcode4Mode10TERMINATORE,"aw",%nobits
 2712              		.align	2
 2713              		.set	.LANCHOR1,. + 0
 2716              	_ZN5zxing6qrcode4Mode10TERMINATORE:
 2717 0000 00000000 		.space	36
 2717      00000000 
 2717      00000000 
 2717      00000000 
 2717      00000000 
 2718              		.section	.bss._ZN5zxing6qrcode4Mode12ALPHANUMERICE,"aw",%nobits
 2719              		.align	2
 2720              		.set	.LANCHOR3,. + 0
 2723              	_ZN5zxing6qrcode4Mode12ALPHANUMERICE:
 2724 0000 00000000 		.space	36
 2724      00000000 
 2724      00000000 
 2724      00000000 
 2724      00000000 
 2725              		.section	.bss._ZN5zxing6qrcode4Mode17STRUCTURED_APPENDE,"aw",%nobits
 2726              		.align	2
 2727              		.set	.LANCHOR4,. + 0
 2730              	_ZN5zxing6qrcode4Mode17STRUCTURED_APPENDE:
 2731 0000 00000000 		.space	36
 2731      00000000 
 2731      00000000 
 2731      00000000 
 2731      00000000 
 2732              		.section	.bss._ZN5zxing6qrcode4Mode19FNC1_FIRST_POSITIONE,"aw",%nobits
 2733              		.align	2
 2734              		.set	.LANCHOR8,. + 0
 2737              	_ZN5zxing6qrcode4Mode19FNC1_FIRST_POSITIONE:
 2738 0000 00000000 		.space	36
 2738      00000000 
 2738      00000000 
 2738      00000000 
 2738      00000000 
 2739              		.section	.bss._ZN5zxing6qrcode4Mode20FNC1_SECOND_POSITIONE,"aw",%nobits
 2740              		.align	2
 2741              		.set	.LANCHOR9,. + 0
 2744              	_ZN5zxing6qrcode4Mode20FNC1_SECOND_POSITIONE:
 2745 0000 00000000 		.space	36
 2745      00000000 
 2745      00000000 
 2745      00000000 
 2745      00000000 
 2746              		.section	.bss._ZN5zxing6qrcode4Mode3ECIE,"aw",%nobits
 2747              		.align	2
 2748              		.set	.LANCHOR6,. + 0
 2751              	_ZN5zxing6qrcode4Mode3ECIE:
 2752 0000 00000000 		.space	36
 2752      00000000 
 2752      00000000 
 2752      00000000 
 2752      00000000 
 2753              		.section	.bss._ZN5zxing6qrcode4Mode4BYTEE,"aw",%nobits
 2754              		.align	2
 2755              		.set	.LANCHOR5,. + 0
 2758              	_ZN5zxing6qrcode4Mode4BYTEE:
 2759 0000 00000000 		.space	36
 2759      00000000 
 2759      00000000 
 2759      00000000 
 2759      00000000 
 2760              		.section	.bss._ZN5zxing6qrcode4Mode5HANZIE,"aw",%nobits
 2761              		.align	2
 2762              		.set	.LANCHOR10,. + 0
 2765              	_ZN5zxing6qrcode4Mode5HANZIE:
 2766 0000 00000000 		.space	36
 2766      00000000 
 2766      00000000 
 2766      00000000 
 2766      00000000 
 2767              		.section	.bss._ZN5zxing6qrcode4Mode5KANJIE,"aw",%nobits
 2768              		.align	2
 2769              		.set	.LANCHOR7,. + 0
 2772              	_ZN5zxing6qrcode4Mode5KANJIE:
 2773 0000 00000000 		.space	36
 2773      00000000 
 2773      00000000 
 2773      00000000 
 2773      00000000 
 2774              		.section	.bss._ZN5zxing6qrcode4Mode7NUMERICE,"aw",%nobits
 2775              		.align	2
 2776              		.set	.LANCHOR2,. + 0
 2779              	_ZN5zxing6qrcode4Mode7NUMERICE:
 2780 0000 00000000 		.space	36
 2780      00000000 
 2780      00000000 
 2780      00000000 
 2780      00000000 
 2781              		.section	.bss._ZStL8__ioinit,"aw",%nobits
 2782              		.align	2
 2783              		.set	.LANCHOR0,. + 0
 2786              	_ZStL8__ioinit:
 2787 0000 00       		.space	1
 2788              		.section	.rodata._Z41__static_initialization_and_destruction_0ii.str1.4,"aMS",%progbits,1
 2789              		.align	2
 2790              	.LC2:
 2791 0000 5445524D 		.ascii	"TERMINATOR\000"
 2791      494E4154 
 2791      4F5200
 2792 000b 00       		.space	1
 2793              	.LC3:
 2794 000c 4E554D45 		.ascii	"NUMERIC\000"
 2794      52494300 
 2795              	.LC4:
 2796 0014 414C5048 		.ascii	"ALPHANUMERIC\000"
 2796      414E554D 
 2796      45524943 
 2796      00
 2797 0021 000000   		.space	3
 2798              	.LC5:
 2799 0024 53545255 		.ascii	"STRUCTURED_APPEND\000"
 2799      43545552 
 2799      45445F41 
 2799      5050454E 
 2799      4400
 2800 0036 0000     		.space	2
 2801              	.LC6:
 2802 0038 42595445 		.ascii	"BYTE\000"
 2802      00
 2803 003d 000000   		.space	3
 2804              	.LC7:
 2805 0040 45434900 		.ascii	"ECI\000"
 2806              	.LC8:
 2807 0044 4B414E4A 		.ascii	"KANJI\000"
 2807      4900
 2808 004a 0000     		.space	2
 2809              	.LC9:
 2810 004c 464E4331 		.ascii	"FNC1_FIRST_POSITION\000"
 2810      5F464952 
 2810      53545F50 
 2810      4F534954 
 2810      494F4E00 
 2811              	.LC10:
 2812 0060 464E4331 		.ascii	"FNC1_SECOND_POSITION\000"
 2812      5F534543 
 2812      4F4E445F 
 2812      504F5349 
 2812      54494F4E 
 2813 0075 000000   		.space	3
 2814              	.LC11:
 2815 0078 48414E5A 		.ascii	"HANZI\000"
 2815      4900
 2816              		.section	.rodata._ZN5zxing6qrcode4Mode7forBitsEi.str1.4,"aMS",%progbits,1
 2817              		.align	2
 2818              	.LC12:
 2819 0000 496C6C65 		.ascii	"Illegal mode bits: \000"
 2819      67616C20 
 2819      6D6F6465 
 2819      20626974 
 2819      733A2000 
 2820              		.section	.rodata._ZNK5zxing9Exception4whatEv.str1.4,"aMS",%progbits,1
 2821              		.align	2
 2822              	.LC0:
 2823 0000 00       		.ascii	"\000"
 2824              		.section	.rodata._ZNSt7__cxx1112basic_stringIcSt11char_traitsIcESaIcEE12_M_constructIPKcEEvT_S8_St
 2825              		.align	2
 2826              	.LC1:
 2827 0000 62617369 		.ascii	"basic_string::_M_construct null not valid\000"
 2827      635F7374 
 2827      72696E67 
 2827      3A3A5F4D 
 2827      5F636F6E 
 2828              		.text
 2829              	.Letext0:
 2830              		.file 15 "/home/zkmike/.local/share/renesas/e2_studio/toolchains/gcc_arm/gcc-arm-none-eabi-6-2017-
 2831              		.file 16 "/home/zkmike/.local/share/renesas/e2_studio/toolchains/gcc_arm/gcc-arm-none-eabi-6-2017-
 2832              		.file 17 "/home/zkmike/.local/share/renesas/e2_studio/toolchains/gcc_arm/gcc-arm-none-eabi-6-2017-
 2833              		.file 18 "/home/zkmike/.local/share/renesas/e2_studio/toolchains/gcc_arm/gcc-arm-none-eabi-6-2017-
 2834              		.file 19 "/home/zkmike/.local/share/renesas/e2_studio/toolchains/gcc_arm/gcc-arm-none-eabi-6-2017-
 2835              		.file 20 "/home/zkmike/.local/share/renesas/e2_studio/toolchains/gcc_arm/gcc-arm-none-eabi-6-2017-
 2836              		.file 21 "/home/zkmike/.local/share/renesas/e2_studio/toolchains/gcc_arm/gcc-arm-none-eabi-6-2017-
 2837              		.file 22 "/home/zkmike/.local/share/renesas/e2_studio/toolchains/gcc_arm/gcc-arm-none-eabi-6-2017-
 2838              		.file 23 "/home/zkmike/.local/share/renesas/e2_studio/toolchains/gcc_arm/gcc-arm-none-eabi-6-2017-
 2839              		.file 24 "/home/zkmike/.local/share/renesas/e2_studio/toolchains/gcc_arm/gcc-arm-none-eabi-6-2017-
 2840              		.file 25 "/home/zkmike/.local/share/renesas/e2_studio/toolchains/gcc_arm/gcc-arm-none-eabi-6-2017-
 2841              		.file 26 "/home/zkmike/.local/share/renesas/e2_studio/toolchains/gcc_arm/gcc-arm-none-eabi-6-2017-
 2842              		.file 27 "/home/zkmike/.local/share/renesas/e2_studio/toolchains/gcc_arm/gcc-arm-none-eabi-6-2017-
 2843              		.file 28 "/home/zkmike/.local/share/renesas/e2_studio/toolchains/gcc_arm/gcc-arm-none-eabi-6-2017-
 2844              		.file 29 "/home/zkmike/.local/share/renesas/e2_studio/toolchains/gcc_arm/gcc-arm-none-eabi-6-2017-
 2845              		.file 30 "/home/zkmike/.local/share/renesas/e2_studio/toolchains/gcc_arm/gcc-arm-none-eabi-6-2017-
 2846              		.file 31 "/home/zkmike/.local/share/renesas/e2_studio/toolchains/gcc_arm/gcc-arm-none-eabi-6-2017-
 2847              		.file 32 "/home/zkmike/.local/share/renesas/e2_studio/toolchains/gcc_arm/gcc-arm-none-eabi-6-2017-
 2848              		.file 33 "/home/zkmike/.local/share/renesas/e2_studio/toolchains/gcc_arm/gcc-arm-none-eabi-6-2017-
 2849              		.file 34 "/home/zkmike/.local/share/renesas/e2_studio/toolchains/gcc_arm/gcc-arm-none-eabi-6-2017-
 2850              		.file 35 "/home/zkmike/.local/share/renesas/e2_studio/toolchains/gcc_arm/gcc-arm-none-eabi-6-2017-
 2851              		.file 36 "/home/zkmike/.local/share/renesas/e2_studio/toolchains/gcc_arm/gcc-arm-none-eabi-6-2017-
 2852              		.file 37 "/home/zkmike/.local/share/renesas/e2_studio/toolchains/gcc_arm/gcc-arm-none-eabi-6-2017-
 2853              		.file 38 "/home/zkmike/.local/share/renesas/e2_studio/toolchains/gcc_arm/gcc-arm-none-eabi-6-2017-
 2854              		.file 39 "/home/zkmike/.local/share/renesas/e2_studio/toolchains/gcc_arm/gcc-arm-none-eabi-6-2017-
 2855              		.file 40 "/home/zkmike/.local/share/renesas/e2_studio/toolchains/gcc_arm/gcc-arm-none-eabi-6-2017-
 2856              		.file 41 "/home/zkmike/.local/share/renesas/e2_studio/toolchains/gcc_arm/gcc-arm-none-eabi-6-2017-
 2857              		.file 42 "/home/zkmike/.local/share/renesas/e2_studio/toolchains/gcc_arm/gcc-arm-none-eabi-6-2017-
 2858              		.file 43 "/home/zkmike/.local/share/renesas/e2_studio/toolchains/gcc_arm/gcc-arm-none-eabi-6-2017-
 2859              		.file 44 "/home/zkmike/.local/share/renesas/e2_studio/toolchains/gcc_arm/gcc-arm-none-eabi-6-2017-
 2860              		.file 45 "/home/zkmike/.local/share/renesas/e2_studio/toolchains/gcc_arm/gcc-arm-none-eabi-6-2017-
 2861              		.file 46 "/home/zkmike/.local/share/renesas/e2_studio/toolchains/gcc_arm/gcc-arm-none-eabi-6-2017-
 2862              		.file 47 "/home/zkmike/.local/share/renesas/e2_studio/toolchains/gcc_arm/gcc-arm-none-eabi-6-2017-
 2863              		.file 48 "/home/zkmike/.local/share/renesas/e2_studio/toolchains/gcc_arm/gcc-arm-none-eabi-6-2017-
 2864              		.file 49 "/home/zkmike/.local/share/renesas/e2_studio/toolchains/gcc_arm/gcc-arm-none-eabi-6-2017-
 2865              		.file 50 "/home/zkmike/.local/share/renesas/e2_studio/toolchains/gcc_arm/gcc-arm-none-eabi-6-2017-
 2866              		.file 51 "/home/zkmike/.local/share/renesas/e2_studio/toolchains/gcc_arm/gcc-arm-none-eabi-6-2017-
 2867              		.file 52 "/home/zkmike/.local/share/renesas/e2_studio/toolchains/gcc_arm/gcc-arm-none-eabi-6-2017-
 2868              		.file 53 "/home/zkmike/.local/share/renesas/e2_studio/toolchains/gcc_arm/gcc-arm-none-eabi-6-2017-
 2869              		.file 54 "/home/zkmike/.local/share/renesas/e2_studio/toolchains/gcc_arm/gcc-arm-none-eabi-6-2017-
 2870              		.file 55 "/home/zkmike/.local/share/renesas/e2_studio/toolchains/gcc_arm/gcc-arm-none-eabi-6-2017-
 2871              		.file 56 "<built-in>"
 2872              		.file 57 "/home/zkmike/.local/share/renesas/e2_studio/toolchains/gcc_arm/gcc-arm-none-eabi-6-2017-
 2873              		.file 58 "/home/zkmike/.local/share/renesas/e2_studio/toolchains/gcc_arm/gcc-arm-none-eabi-6-2017-
 2874              		.file 59 "/home/zkmike/.local/share/renesas/e2_studio/toolchains/gcc_arm/gcc-arm-none-eabi-6-2017-
 2875              		.file 60 "/home/zkmike/.local/share/renesas/e2_studio/toolchains/gcc_arm/gcc-arm-none-eabi-6-2017-
 2876              		.file 61 "/home/zkmike/.local/share/renesas/e2_studio/toolchains/gcc_arm/gcc-arm-none-eabi-6-2017-
 2877              		.file 62 "/home/zkmike/.local/share/renesas/e2_studio/toolchains/gcc_arm/gcc-arm-none-eabi-6-2017-
 2878              		.file 63 "/home/zkmike/.local/share/renesas/e2_studio/toolchains/gcc_arm/gcc-arm-none-eabi-6-2017-
 2879              		.file 64 "/home/zkmike/.local/share/renesas/e2_studio/toolchains/gcc_arm/gcc-arm-none-eabi-6-2017-
 2880              		.file 65 "/home/zkmike/.local/share/renesas/e2_studio/toolchains/gcc_arm/gcc-arm-none-eabi-6-2017-
 2881              		.file 66 "/home/zkmike/.local/share/renesas/e2_studio/toolchains/gcc_arm/gcc-arm-none-eabi-6-2017-
 2882              		.file 67 "/home/zkmike/workspace/RZA2M/rza2m_2d_barcode_sample_freertos_gcc/src/zxing_lib/zxing/ZX
 2883              		.file 68 "/home/zkmike/workspace/RZA2M/rza2m_2d_barcode_sample_freertos_gcc/src/zxing_lib/zxing/qr
 2884              		.file 69 "/home/zkmike/workspace/RZA2M/rza2m_2d_barcode_sample_freertos_gcc/src/zxing_lib/zxing/qr
DEFINED SYMBOLS
                            *ABS*:0000000000000000 Mode.cpp
     /tmp/cccukEiP.s:17     .text._ZNK5zxing9Exception4whatEv:0000000000000000 $a
     /tmp/cccukEiP.s:23     .text._ZNK5zxing9Exception4whatEv:0000000000000000 _ZNK5zxing9Exception4whatEv
     /tmp/cccukEiP.s:2822   .rodata._ZNK5zxing9Exception4whatEv.str1.4:0000000000000000 .LC0
.ARM.exidx.text._ZNK5zxing9Exception4whatEv:0000000000000000 $d
     /tmp/cccukEiP.s:47     .text._ZN5zxing6qrcode4ModeD2Ev:0000000000000000 $a
     /tmp/cccukEiP.s:53     .text._ZN5zxing6qrcode4ModeD2Ev:0000000000000000 _ZN5zxing6qrcode4ModeD2Ev
.ARM.exidx.text._ZN5zxing6qrcode4ModeD2Ev:0000000000000000 $d
     /tmp/cccukEiP.s:53     .text._ZN5zxing6qrcode4ModeD2Ev:0000000000000000 _ZN5zxing6qrcode4ModeD1Ev
     /tmp/cccukEiP.s:119    .text._ZN5zxing9ExceptionD2Ev:0000000000000000 $a
     /tmp/cccukEiP.s:125    .text._ZN5zxing9ExceptionD2Ev:0000000000000000 _ZN5zxing9ExceptionD2Ev
     /tmp/cccukEiP.s:187    .text._ZN5zxing9ExceptionD2Ev:0000000000000058 $d
     /tmp/cccukEiP.s:2684   .rodata._ZTVN5zxing9ExceptionE:0000000000000000 _ZTVN5zxing9ExceptionE
.ARM.extab.text._ZN5zxing9ExceptionD2Ev:0000000000000000 $d
.ARM.exidx.text._ZN5zxing9ExceptionD2Ev:0000000000000000 $d
     /tmp/cccukEiP.s:125    .text._ZN5zxing9ExceptionD2Ev:0000000000000000 _ZN5zxing9ExceptionD1Ev
     /tmp/cccukEiP.s:224    .text._ZN5zxing15ReaderExceptionD2Ev:0000000000000000 $a
     /tmp/cccukEiP.s:230    .text._ZN5zxing15ReaderExceptionD2Ev:0000000000000000 _ZN5zxing15ReaderExceptionD2Ev
     /tmp/cccukEiP.s:300    .text._ZN5zxing15ReaderExceptionD2Ev:0000000000000058 $d
.ARM.extab.text._ZN5zxing15ReaderExceptionD2Ev:0000000000000000 $d
.ARM.exidx.text._ZN5zxing15ReaderExceptionD2Ev:0000000000000000 $d
     /tmp/cccukEiP.s:230    .text._ZN5zxing15ReaderExceptionD2Ev:0000000000000000 _ZN5zxing15ReaderExceptionD1Ev
     /tmp/cccukEiP.s:336    .text._ZN5zxing9ExceptionD0Ev:0000000000000000 $a
     /tmp/cccukEiP.s:342    .text._ZN5zxing9ExceptionD0Ev:0000000000000000 _ZN5zxing9ExceptionD0Ev
     /tmp/cccukEiP.s:413    .text._ZN5zxing9ExceptionD0Ev:0000000000000064 $d
.ARM.extab.text._ZN5zxing9ExceptionD0Ev:0000000000000000 $d
.ARM.exidx.text._ZN5zxing9ExceptionD0Ev:0000000000000000 $d
     /tmp/cccukEiP.s:447    .text._ZN5zxing15ReaderExceptionD0Ev:0000000000000000 $a
     /tmp/cccukEiP.s:453    .text._ZN5zxing15ReaderExceptionD0Ev:0000000000000000 _ZN5zxing15ReaderExceptionD0Ev
     /tmp/cccukEiP.s:528    .text._ZN5zxing15ReaderExceptionD0Ev:0000000000000064 $d
.ARM.extab.text._ZN5zxing15ReaderExceptionD0Ev:0000000000000000 $d
.ARM.exidx.text._ZN5zxing15ReaderExceptionD0Ev:0000000000000000 $d
     /tmp/cccukEiP.s:562    .text._ZN5zxing6qrcode4Mode21getCharacterCountBitsEPNS0_7VersionE:0000000000000000 $a
     /tmp/cccukEiP.s:568    .text._ZN5zxing6qrcode4Mode21getCharacterCountBitsEPNS0_7VersionE:0000000000000000 _ZN5zxing6qrcode4Mode21getCharacterCountBitsEPNS0_7VersionE
.ARM.exidx.text._ZN5zxing6qrcode4Mode21getCharacterCountBitsEPNS0_7VersionE:0000000000000000 $d
     /tmp/cccukEiP.s:616    .text._ZNSt7__cxx1115basic_stringbufIcSt11char_traitsIcESaIcEED2Ev:0000000000000000 $a
     /tmp/cccukEiP.s:622    .text._ZNSt7__cxx1115basic_stringbufIcSt11char_traitsIcESaIcEED2Ev:0000000000000000 _ZNSt7__cxx1115basic_stringbufIcSt11char_traitsIcESaIcEED2Ev
     /tmp/cccukEiP.s:697    .text._ZNSt7__cxx1115basic_stringbufIcSt11char_traitsIcESaIcEED2Ev:000000000000003c $d
.ARM.exidx.text._ZNSt7__cxx1115basic_stringbufIcSt11char_traitsIcESaIcEED2Ev:0000000000000000 $d
     /tmp/cccukEiP.s:622    .text._ZNSt7__cxx1115basic_stringbufIcSt11char_traitsIcESaIcEED2Ev:0000000000000000 _ZNSt7__cxx1115basic_stringbufIcSt11char_traitsIcESaIcEED1Ev
     /tmp/cccukEiP.s:707    .text._ZNSt7__cxx1115basic_stringbufIcSt11char_traitsIcESaIcEED0Ev:0000000000000000 $a
     /tmp/cccukEiP.s:713    .text._ZNSt7__cxx1115basic_stringbufIcSt11char_traitsIcESaIcEED0Ev:0000000000000000 _ZNSt7__cxx1115basic_stringbufIcSt11char_traitsIcESaIcEED0Ev
     /tmp/cccukEiP.s:793    .text._ZNSt7__cxx1115basic_stringbufIcSt11char_traitsIcESaIcEED0Ev:0000000000000048 $d
.ARM.exidx.text._ZNSt7__cxx1115basic_stringbufIcSt11char_traitsIcESaIcEED0Ev:0000000000000000 $d
     /tmp/cccukEiP.s:801    .text._ZNSt7__cxx1112basic_stringIcSt11char_traitsIcESaIcEE12_M_constructIPKcEEvT_S8_St20forward_iterator_tag:0000000000000000 $a
     /tmp/cccukEiP.s:807    .text._ZNSt7__cxx1112basic_stringIcSt11char_traitsIcESaIcEE12_M_constructIPKcEEvT_S8_St20forward_iterator_tag:0000000000000000 _ZNSt7__cxx1112basic_stringIcSt11char_traitsIcESaIcEE12_M_constructIPKcEEvT_S8_St20forward_iterator_tag
     /tmp/cccukEiP.s:2826   .rodata._ZNSt7__cxx1112basic_stringIcSt11char_traitsIcESaIcEE12_M_constructIPKcEEvT_S8_St20forward_iterator_tag.str1.4:0000000000000000 .LC1
.ARM.exidx.text._ZNSt7__cxx1112basic_stringIcSt11char_traitsIcESaIcEE12_M_constructIPKcEEvT_S8_St20forward_iterator_tag:0000000000000000 $d
     /tmp/cccukEiP.s:993    .text._ZN5zxing6qrcode4ModeC2EiiiiPKc:0000000000000000 $a
     /tmp/cccukEiP.s:999    .text._ZN5zxing6qrcode4ModeC2EiiiiPKc:0000000000000000 _ZN5zxing6qrcode4ModeC2EiiiiPKc
.ARM.exidx.text._ZN5zxing6qrcode4ModeC2EiiiiPKc:0000000000000000 $d
     /tmp/cccukEiP.s:999    .text._ZN5zxing6qrcode4ModeC2EiiiiPKc:0000000000000000 _ZN5zxing6qrcode4ModeC1EiiiiPKc
     /tmp/cccukEiP.s:1095   .text._Z41__static_initialization_and_destruction_0ii:0000000000000000 $a
     /tmp/cccukEiP.s:1100   .text._Z41__static_initialization_and_destruction_0ii:0000000000000000 _Z41__static_initialization_and_destruction_0ii
     /tmp/cccukEiP.s:2783   .bss._ZStL8__ioinit:0000000000000000 .LANCHOR0
     /tmp/cccukEiP.s:2713   .bss._ZN5zxing6qrcode4Mode10TERMINATORE:0000000000000000 .LANCHOR1
     /tmp/cccukEiP.s:2790   .rodata._Z41__static_initialization_and_destruction_0ii.str1.4:0000000000000000 .LC2
     /tmp/cccukEiP.s:2776   .bss._ZN5zxing6qrcode4Mode7NUMERICE:0000000000000000 .LANCHOR2
     /tmp/cccukEiP.s:2793   .rodata._Z41__static_initialization_and_destruction_0ii.str1.4:000000000000000c .LC3
     /tmp/cccukEiP.s:2720   .bss._ZN5zxing6qrcode4Mode12ALPHANUMERICE:0000000000000000 .LANCHOR3
     /tmp/cccukEiP.s:2795   .rodata._Z41__static_initialization_and_destruction_0ii.str1.4:0000000000000014 .LC4
     /tmp/cccukEiP.s:2727   .bss._ZN5zxing6qrcode4Mode17STRUCTURED_APPENDE:0000000000000000 .LANCHOR4
     /tmp/cccukEiP.s:2798   .rodata._Z41__static_initialization_and_destruction_0ii.str1.4:0000000000000024 .LC5
     /tmp/cccukEiP.s:2755   .bss._ZN5zxing6qrcode4Mode4BYTEE:0000000000000000 .LANCHOR5
     /tmp/cccukEiP.s:2801   .rodata._Z41__static_initialization_and_destruction_0ii.str1.4:0000000000000038 .LC6
     /tmp/cccukEiP.s:2748   .bss._ZN5zxing6qrcode4Mode3ECIE:0000000000000000 .LANCHOR6
     /tmp/cccukEiP.s:2804   .rodata._Z41__static_initialization_and_destruction_0ii.str1.4:0000000000000040 .LC7
     /tmp/cccukEiP.s:2769   .bss._ZN5zxing6qrcode4Mode5KANJIE:0000000000000000 .LANCHOR7
     /tmp/cccukEiP.s:2806   .rodata._Z41__static_initialization_and_destruction_0ii.str1.4:0000000000000044 .LC8
     /tmp/cccukEiP.s:2734   .bss._ZN5zxing6qrcode4Mode19FNC1_FIRST_POSITIONE:0000000000000000 .LANCHOR8
     /tmp/cccukEiP.s:2809   .rodata._Z41__static_initialization_and_destruction_0ii.str1.4:000000000000004c .LC9
     /tmp/cccukEiP.s:2741   .bss._ZN5zxing6qrcode4Mode20FNC1_SECOND_POSITIONE:0000000000000000 .LANCHOR9
     /tmp/cccukEiP.s:2811   .rodata._Z41__static_initialization_and_destruction_0ii.str1.4:0000000000000060 .LC10
     /tmp/cccukEiP.s:2762   .bss._ZN5zxing6qrcode4Mode5HANZIE:0000000000000000 .LANCHOR10
     /tmp/cccukEiP.s:2814   .rodata._Z41__static_initialization_and_destruction_0ii.str1.4:0000000000000078 .LC11
.ARM.exidx.text._Z41__static_initialization_and_destruction_0ii:0000000000000000 $d
     /tmp/cccukEiP.s:1344   .text._ZNSt7__cxx1112basic_stringIcSt11char_traitsIcESaIcEE12_M_constructIPcEEvT_S7_St20forward_iterator_tag:0000000000000000 $a
     /tmp/cccukEiP.s:1350   .text._ZNSt7__cxx1112basic_stringIcSt11char_traitsIcESaIcEE12_M_constructIPcEEvT_S7_St20forward_iterator_tag:0000000000000000 _ZNSt7__cxx1112basic_stringIcSt11char_traitsIcESaIcEE12_M_constructIPcEEvT_S7_St20forward_iterator_tag
.ARM.exidx.text._ZNSt7__cxx1112basic_stringIcSt11char_traitsIcESaIcEE12_M_constructIPcEEvT_S7_St20forward_iterator_tag:0000000000000000 $d
     /tmp/cccukEiP.s:1533   .text._ZN5zxing6qrcode4Mode7forBitsEi:0000000000000000 $a
     /tmp/cccukEiP.s:1539   .text._ZN5zxing6qrcode4Mode7forBitsEi:0000000000000000 _ZN5zxing6qrcode4Mode7forBitsEi
     /tmp/cccukEiP.s:1555   .text._ZN5zxing6qrcode4Mode7forBitsEi:000000000000000c $d
     /tmp/cccukEiP.s:1572   .text._ZN5zxing6qrcode4Mode7forBitsEi:0000000000000044 $a
     /tmp/cccukEiP.s:2818   .rodata._ZN5zxing6qrcode4Mode7forBitsEi.str1.4:0000000000000000 .LC12
     /tmp/cccukEiP.s:2675   .rodata._ZTIN5zxing15ReaderExceptionE:0000000000000000 _ZTIN5zxing15ReaderExceptionE
     /tmp/cccukEiP.s:2538   .text._ZN5zxing6qrcode4Mode7forBitsEi:0000000000000428 $d
     /tmp/cccukEiP.s:2695   .rodata._ZTVN5zxing15ReaderExceptionE:0000000000000000 _ZTVN5zxing15ReaderExceptionE
.ARM.extab.text._ZN5zxing6qrcode4Mode7forBitsEi:0000000000000000 $d
.ARM.exidx.text._ZN5zxing6qrcode4Mode7forBitsEi:0000000000000000 $d
     /tmp/cccukEiP.s:2617   .text._GLOBAL__sub_I__ZN5zxing6qrcode4Mode10TERMINATORE:0000000000000000 $a
     /tmp/cccukEiP.s:2622   .text._GLOBAL__sub_I__ZN5zxing6qrcode4Mode10TERMINATORE:0000000000000000 _GLOBAL__sub_I__ZN5zxing6qrcode4Mode10TERMINATORE
.ARM.exidx.text._GLOBAL__sub_I__ZN5zxing6qrcode4Mode10TERMINATORE:0000000000000000 $d
     /tmp/cccukEiP.s:2645   .init_array:0000000000000000 $d
     /tmp/cccukEiP.s:2652   .rodata._ZTSN5zxing9ExceptionE:0000000000000000 _ZTSN5zxing9ExceptionE
     /tmp/cccukEiP.s:2649   .rodata._ZTSN5zxing9ExceptionE:0000000000000000 $d
     /tmp/cccukEiP.s:2659   .rodata._ZTIN5zxing9ExceptionE:0000000000000000 _ZTIN5zxing9ExceptionE
     /tmp/cccukEiP.s:2656   .rodata._ZTIN5zxing9ExceptionE:0000000000000000 $d
     /tmp/cccukEiP.s:2668   .rodata._ZTSN5zxing15ReaderExceptionE:0000000000000000 _ZTSN5zxing15ReaderExceptionE
     /tmp/cccukEiP.s:2665   .rodata._ZTSN5zxing15ReaderExceptionE:0000000000000000 $d
     /tmp/cccukEiP.s:2672   .rodata._ZTIN5zxing15ReaderExceptionE:0000000000000000 $d
     /tmp/cccukEiP.s:2681   .rodata._ZTVN5zxing9ExceptionE:0000000000000000 $d
     /tmp/cccukEiP.s:2692   .rodata._ZTVN5zxing15ReaderExceptionE:0000000000000000 $d
     /tmp/cccukEiP.s:2765   .bss._ZN5zxing6qrcode4Mode5HANZIE:0000000000000000 _ZN5zxing6qrcode4Mode5HANZIE
     /tmp/cccukEiP.s:2744   .bss._ZN5zxing6qrcode4Mode20FNC1_SECOND_POSITIONE:0000000000000000 _ZN5zxing6qrcode4Mode20FNC1_SECOND_POSITIONE
     /tmp/cccukEiP.s:2737   .bss._ZN5zxing6qrcode4Mode19FNC1_FIRST_POSITIONE:0000000000000000 _ZN5zxing6qrcode4Mode19FNC1_FIRST_POSITIONE
     /tmp/cccukEiP.s:2772   .bss._ZN5zxing6qrcode4Mode5KANJIE:0000000000000000 _ZN5zxing6qrcode4Mode5KANJIE
     /tmp/cccukEiP.s:2751   .bss._ZN5zxing6qrcode4Mode3ECIE:0000000000000000 _ZN5zxing6qrcode4Mode3ECIE
     /tmp/cccukEiP.s:2758   .bss._ZN5zxing6qrcode4Mode4BYTEE:0000000000000000 _ZN5zxing6qrcode4Mode4BYTEE
     /tmp/cccukEiP.s:2730   .bss._ZN5zxing6qrcode4Mode17STRUCTURED_APPENDE:0000000000000000 _ZN5zxing6qrcode4Mode17STRUCTURED_APPENDE
     /tmp/cccukEiP.s:2723   .bss._ZN5zxing6qrcode4Mode12ALPHANUMERICE:0000000000000000 _ZN5zxing6qrcode4Mode12ALPHANUMERICE
     /tmp/cccukEiP.s:2779   .bss._ZN5zxing6qrcode4Mode7NUMERICE:0000000000000000 _ZN5zxing6qrcode4Mode7NUMERICE
     /tmp/cccukEiP.s:2716   .bss._ZN5zxing6qrcode4Mode10TERMINATORE:0000000000000000 _ZN5zxing6qrcode4Mode10TERMINATORE
     /tmp/cccukEiP.s:2712   .bss._ZN5zxing6qrcode4Mode10TERMINATORE:0000000000000000 $d
     /tmp/cccukEiP.s:2719   .bss._ZN5zxing6qrcode4Mode12ALPHANUMERICE:0000000000000000 $d
     /tmp/cccukEiP.s:2726   .bss._ZN5zxing6qrcode4Mode17STRUCTURED_APPENDE:0000000000000000 $d
     /tmp/cccukEiP.s:2733   .bss._ZN5zxing6qrcode4Mode19FNC1_FIRST_POSITIONE:0000000000000000 $d
     /tmp/cccukEiP.s:2740   .bss._ZN5zxing6qrcode4Mode20FNC1_SECOND_POSITIONE:0000000000000000 $d
     /tmp/cccukEiP.s:2747   .bss._ZN5zxing6qrcode4Mode3ECIE:0000000000000000 $d
     /tmp/cccukEiP.s:2754   .bss._ZN5zxing6qrcode4Mode4BYTEE:0000000000000000 $d
     /tmp/cccukEiP.s:2761   .bss._ZN5zxing6qrcode4Mode5HANZIE:0000000000000000 $d
     /tmp/cccukEiP.s:2768   .bss._ZN5zxing6qrcode4Mode5KANJIE:0000000000000000 $d
     /tmp/cccukEiP.s:2775   .bss._ZN5zxing6qrcode4Mode7NUMERICE:0000000000000000 $d
     /tmp/cccukEiP.s:2782   .bss._ZStL8__ioinit:0000000000000000 $d
     /tmp/cccukEiP.s:2786   .bss._ZStL8__ioinit:0000000000000000 _ZStL8__ioinit
     /tmp/cccukEiP.s:2789   .rodata._Z41__static_initialization_and_destruction_0ii.str1.4:0000000000000000 $d
     /tmp/cccukEiP.s:2817   .rodata._ZN5zxing6qrcode4Mode7forBitsEi.str1.4:0000000000000000 $d
     /tmp/cccukEiP.s:2821   .rodata._ZNK5zxing9Exception4whatEv.str1.4:0000000000000000 $d
     /tmp/cccukEiP.s:2825   .rodata._ZNSt7__cxx1112basic_stringIcSt11char_traitsIcESaIcEE12_M_constructIPKcEEvT_S8_St20forward_iterator_tag.str1.4:0000000000000000 $d
                     .debug_frame:0000000000000010 $d
                           .group:0000000000000000 _ZN5zxing6qrcode4ModeD5Ev
                           .group:0000000000000000 _ZN5zxing9ExceptionD5Ev
                           .group:0000000000000000 _ZN5zxing15ReaderExceptionD5Ev
                           .group:0000000000000000 _ZNSt7__cxx1115basic_stringbufIcSt11char_traitsIcESaIcEED5Ev
                           .group:0000000000000000 wm4.0.cd1e96de8a8c4f34e746a820772853ad
                           .group:0000000000000000 wm4.ZXing.h.18.e57217e2bd13bffdbef9ea3dcbec75d3
                           .group:0000000000000000 wm4.cconfig.h.31.21483d26c3710eb58c7a44c20d82c775
                           .group:0000000000000000 wm4.cpu_defines.h.31.54d44f9d3e7c42875c5a7fd49795eb93
                           .group:0000000000000000 wm4.cconfig.h.515.5e729db314ae74226e291b4ae081e353
                           .group:0000000000000000 wm4.limits.89.e98276b701ab74059cf673f13be29894
                           .group:0000000000000000 wm4.cpp_type_traits.h.33.9f2bfd8c4471a9a299f6da3ec24c745c
                           .group:0000000000000000 wm4._newlib_version.h.4.3572908597b70d672d181fc7fc501c19
                           .group:0000000000000000 wm4.newlib.h.21.59901f4bf241ab46c63694665baa7297
                           .group:0000000000000000 wm4.features.h.22.5cdadbb3efe495d1c9e38350b8c376c7
                           .group:0000000000000000 wm4.config.h.219.65a553ab5bef5482f0d7880b0d33015e
                           .group:0000000000000000 wm4._ansi.h.23.1ee1144430bedaab1a14c7b57a6c8384
                           .group:0000000000000000 wm4.stddef.h.39.fa2e86d241f4df50b9327c72832885e1
                           .group:0000000000000000 wm4._default_types.h.6.959254cf5f09734ea7516c89e8bb21bd
                           .group:0000000000000000 wm4.lock.h.2.1461d1fff82dffe8bfddc23307f6484f
                           .group:0000000000000000 wm4._types.h.125.5cf8a495f1f7ef36777ad868a1e32068
                           .group:0000000000000000 wm4.stddef.h.161.7e98c9c86da0ed2d27af2ef92af7d013
                           .group:0000000000000000 wm4._types.h.183.c226d164ceca1f2ecb9ae9360c54a098
                           .group:0000000000000000 wm4.reent.h.17.23b059516345f8f5abfa01ddc379570f
                           .group:0000000000000000 wm4.cdefs.h.47.9bc8274c84fddbf05edd550eb0bf48cd
                           .group:0000000000000000 wm4.math.h.13.4f1ab8d1725735081bbdb9ebcf6dba66
                           .group:0000000000000000 wm4.cmath.46.d6e5b776115d39075860ed881d18f087
                           .group:0000000000000000 wm4.ZXing.h.127.586c16e6a699510970dac3542705a0b6
                           .group:0000000000000000 wm4.wchar.h.2.f837619576d797e948eb58c44fac4678
                           .group:0000000000000000 wm4.stddef.h.161.9f48187563b2a85291a91832aa425498
                           .group:0000000000000000 wm4.stdarg.h.34.3a23a216c0c293b3d2ea2e89281481e6
                           .group:0000000000000000 wm4.wchar.h.29.7ec19a1c094c7903732828676a0a91b2
                           .group:0000000000000000 wm4.wchar.h.76.90478bd2c784f576b769c4535c98839d
                           .group:0000000000000000 wm4.cwchar.48.c4e882638bf84f6da89479dda6fe8e17
                           .group:0000000000000000 wm4.atomic_lockfree_defines.h.31.d5c6334fb1e95c9462b052951f1411df
                           .group:0000000000000000 wm4.exception_defines.h.31.ca6841b9be3287386aafc5c717935b2e
                           .group:0000000000000000 wm4.concept_check.h.31.f19605d278e56917c68a56d378be308c
                           .group:0000000000000000 wm4.type_traits.30.967137c3695c72a3f7c65b682f1a104e
                           .group:0000000000000000 wm4.move.h.152.41d7b9e6779674d169b7813982cfa003
                           .group:0000000000000000 wm4.numeric_traits.h.30.aa01a98564b7e55086aad9e53c7e5c53
                           .group:0000000000000000 wm4.assertions.h.30.51d443923f0d242550e04246a7819b39
                           .group:0000000000000000 wm4.stl_iterator.h.406.6718c794fa6a1331f8340656b5c8c55c
                           .group:0000000000000000 wm4.debug.h.30.5c1f223b12199e851d4d42805b788ccf
                           .group:0000000000000000 wm4.stl_algobase.h.491.ec4060988bfff82dc579decdb75c72d6
                           .group:0000000000000000 wm4.stdint.h.4.659be5aa44c4ab4eb7c7cc2b24d8ceee
                           .group:0000000000000000 wm4._intsup.h.10.cce27fed8484c08a33f522034c30d2b5
                           .group:0000000000000000 wm4._stdint.h.10.c24fa3af3bc1706662bb5593a907e841
                           .group:0000000000000000 wm4.stdint.h.23.4c107c5a20920bfc6e94fb2672bbd9ee
                           .group:0000000000000000 wm4.locale.h.8.27d0fe4c0abbb6f8893a1fa7c1799fd9
                           .group:0000000000000000 wm4.stddef.h.161.38688f2eb958a8ed58fdb61ffe554c94
                           .group:0000000000000000 wm4.locale.h.16.90d16f662e7119f5b192650a45179c6c
                           .group:0000000000000000 wm4.clocale.45.c36d2d5b631a875aa5273176b54fdf0f
                           .group:0000000000000000 wm4.ctype.h.2.cf64fe4c5e8c0ac0f52f1143312d4909
                           .group:0000000000000000 wm4.cctype.45.0da5714876b0be7f2d816b53d9670403
                           .group:0000000000000000 wm4.gthr.h.27.ceb1c66b926f052afcba57e8784df0d4
                           .group:0000000000000000 wm4.gthrdefault.h.27.edc94d4398c0534988962be77dc3c2e1
                           .group:0000000000000000 wm4.atomic_word.h.30.9e0ac69fd462d5e650933e05133b4afa
                           .group:0000000000000000 wm4.allocator.h.52.0ceafb36dc1b82dbfa6b05003082e3f5
                           .group:0000000000000000 wm4.stl_function.h.57.472a8ffdc5144ddcd047558cd884dda0
                           .group:0000000000000000 wm4.alloc_traits.h.31.c41c7c4789404962122a4e991dfa3abf
                           .group:0000000000000000 wm4.cstdlib.44.52c5efdfb0f3c176bd11e611a0b94959
                           .group:0000000000000000 wm4.stdlib.h.13.4ed386f5c1a80d71e72172885d946ef2
                           .group:0000000000000000 wm4.alloca.h.8.dfc0c703c47ec3e69746825b17d9e66d
                           .group:0000000000000000 wm4.stdlib.h.56.d4493cd3736e51e9d56335045f26df45
                           .group:0000000000000000 wm4.cstdlib.76.ae666499c8f9b0ace1b4b23fe143da2c
                           .group:0000000000000000 wm4.stdio.h.27.3fc80220048df77954e38daec3bb9670
                           .group:0000000000000000 wm4.types.h.40.e8c16e7ec36ba55f133d0616070e25fc
                           .group:0000000000000000 wm4._endian.h.31.65a10590763c3dde1ac4a7f66d7d4891
                           .group:0000000000000000 wm4.endian.h.9.49f3a4695c1b61e8a0808de3c4a106cb
                           .group:0000000000000000 wm4._timeval.h.30.0e8bfd94e85db17dda3286ee81496fe6
                           .group:0000000000000000 wm4.timespec.h.41.d855182eb0e690443ab8651bcedca6e1
                           .group:0000000000000000 wm4.select.h.30.bbece7fa40993a78092dcc5805132560
                           .group:0000000000000000 wm4.types.h.69.ed3eae3cf73030a737515151ebcab7a1
                           .group:0000000000000000 wm4.stdio.h.2.4aa87247282eca6c8f36f9de33d8df1a
                           .group:0000000000000000 wm4.stdio.h.81.edc2fd66146f9635463a729e8fe0add3
                           .group:0000000000000000 wm4.cstdio.45.1ffaea3e7c26dce1e03f5847a7439edb
                           .group:0000000000000000 wm4.errno.h.2.ba016d646105af6cad23be83630b6a3f
                           .group:0000000000000000 wm4.errno.h.9.1ecd7b1049497a0ab61da0f6cbd4b0c6
                           .group:0000000000000000 wm4.functional_hash.h.98.3bf7680ffcc8d24d09fa83ac1339c79d
                           .group:0000000000000000 wm4.wctype.h.2.898a9b94aa35d125e245195b099726a8
                           .group:0000000000000000 wm4.wctype.h.21.aec4d35c940c33b3f9c6f879c49edcd8
                           .group:0000000000000000 wm4.cwctype.54.6582aca101688c1c3785d03bc15e2af6
                           .group:0000000000000000 wm4.locale_facets.h.56.0d4bb655ce5e76ea564363ed7c5a34fc

UNDEFINED SYMBOLS
_ZdlPv
__gxx_personality_v0
_ZN5zxing9Exception13deleteMessageEv
_ZNSt9exceptionD2Ev
__cxa_end_cleanup
__cxa_call_unexpected
_ZdlPvj
_ZN5zxing6qrcode7Version16getVersionNumberEv
__aeabi_unwind_cpp_pr0
_ZNSt6localeD1Ev
_ZTVNSt7__cxx1115basic_stringbufIcSt11char_traitsIcESaIcEEE
_ZTVSt15basic_streambufIcSt11char_traitsIcEE
_ZSt19__throw_logic_errorPKc
_ZNSt7__cxx1112basic_stringIcSt11char_traitsIcESaIcEE9_M_createERjj
memcpy
strlen
_ZNSt8ios_base4InitC1Ev
__dso_handle
_ZNSt8ios_base4InitD1Ev
__aeabi_atexit
_ZNSt8ios_baseC2Ev
_ZTTNSt7__cxx1119basic_ostringstreamIcSt11char_traitsIcESaIcEEE
_ZNSt9basic_iosIcSt11char_traitsIcEE4initEPSt15basic_streambufIcS1_E
_ZNSt6localeC1Ev
_ZSt16__ostream_insertIcSt11char_traitsIcEERSt13basic_ostreamIT_T0_ES6_PKS3_i
_ZNSt8ios_baseD2Ev
_ZNSolsEi
__cxa_allocate_exception
_ZN5zxing9Exception4copyEPKc
_ZNSt7__cxx1112basic_stringIcSt11char_traitsIcESaIcEE9_M_assignERKS4_
__cxa_free_exception
_ZNSt7__cxx1119basic_ostringstreamIcSt11char_traitsIcESaIcEED1Ev
__cxa_throw
_ZTVSt9basic_iosIcSt11char_traitsIcEE
_ZTVNSt7__cxx1119basic_ostringstreamIcSt11char_traitsIcESaIcEEE
_ZTVN10__cxxabiv120__si_class_type_infoE
_ZTISt9exception
