   1              		.cpu cortex-a9
   2              		.eabi_attribute 28, 1
   3              		.eabi_attribute 20, 1
   4              		.eabi_attribute 21, 1
   5              		.eabi_attribute 23, 3
   6              		.eabi_attribute 24, 1
   7              		.eabi_attribute 25, 1
   8              		.eabi_attribute 26, 1
   9              		.eabi_attribute 30, 1
  10              		.eabi_attribute 34, 0
  11              		.eabi_attribute 18, 4
  12              		.file	"r_bcd_ae.c"
  13              		.text
  14              	.Ltext0:
  15              		.cfi_sections	.debug_frame
  16              		.section	.text.set_camera_gain,"ax",%progbits
  17              		.align	2
  18              		.syntax unified
  19              		.arm
  20              		.fpu neon
  22              	set_camera_gain:
  23              	.LFB7:
  24              		.file 1 "../src/renesas/application/r_bcd_ae.c"
   1:../src/renesas/application/r_bcd_ae.c **** /**************************************************************************************************
   2:../src/renesas/application/r_bcd_ae.c **** * DISCLAIMER
   3:../src/renesas/application/r_bcd_ae.c **** * This software is supplied by Renesas Electronics Corporation and is only intended for use with Re
   4:../src/renesas/application/r_bcd_ae.c **** * other uses are authorized. This software is owned by Renesas Electronics Corporation and is prote
   5:../src/renesas/application/r_bcd_ae.c **** * applicable laws, including copyright laws.
   6:../src/renesas/application/r_bcd_ae.c **** * THIS SOFTWARE IS PROVIDED "AS IS" AND RENESAS MAKES NO WARRANTIES REGARDING
   7:../src/renesas/application/r_bcd_ae.c **** * THIS SOFTWARE, WHETHER EXPRESS, IMPLIED OR STATUTORY, INCLUDING BUT NOT LIMITED TO WARRANTIES OF 
   8:../src/renesas/application/r_bcd_ae.c **** * FITNESS FOR A PARTICULAR PURPOSE AND NON-INFRINGEMENT. ALL SUCH WARRANTIES ARE EXPRESSLY DISCLAIM
   9:../src/renesas/application/r_bcd_ae.c **** * EXTENT PERMITTED NOT PROHIBITED BY LAW, NEITHER RENESAS ELECTRONICS CORPORATION NOR ANY OF ITS AF
  10:../src/renesas/application/r_bcd_ae.c **** * SHALL BE LIABLE FOR ANY DIRECT, INDIRECT, SPECIAL, INCIDENTAL OR CONSEQUENTIAL DAMAGES FOR ANY RE
  11:../src/renesas/application/r_bcd_ae.c **** * THIS SOFTWARE, EVEN IF RENESAS OR ITS AFFILIATES HAVE BEEN ADVISED OF THE POSSIBILITY OF SUCH DAM
  12:../src/renesas/application/r_bcd_ae.c **** * Renesas reserves the right, without notice, to make changes to this software and to discontinue t
  13:../src/renesas/application/r_bcd_ae.c **** * this software. By using this software, you agree to the additional terms and conditions found by 
  14:../src/renesas/application/r_bcd_ae.c **** * following link:
  15:../src/renesas/application/r_bcd_ae.c **** * http://www.renesas.com/disclaimer
  16:../src/renesas/application/r_bcd_ae.c **** * Copyright (C) 2020 Renesas Electronics Corporation. All rights reserved.
  17:../src/renesas/application/r_bcd_ae.c **** ***************************************************************************************************
  18:../src/renesas/application/r_bcd_ae.c **** 
  19:../src/renesas/application/r_bcd_ae.c **** /**************************************************************************************************
  20:../src/renesas/application/r_bcd_ae.c **** Includes   <System Includes> , "Project Includes"
  21:../src/renesas/application/r_bcd_ae.c **** ***************************************************************************************************
  22:../src/renesas/application/r_bcd_ae.c **** #include <stdio.h>
  23:../src/renesas/application/r_bcd_ae.c **** #include <fcntl.h>
  24:../src/renesas/application/r_bcd_ae.c **** 
  25:../src/renesas/application/r_bcd_ae.c **** #include "r_typedefs.h"
  26:../src/renesas/application/r_bcd_ae.c **** #include "iodefine.h"
  27:../src/renesas/application/r_bcd_ae.c **** 
  28:../src/renesas/application/r_bcd_ae.c **** #include "r_bcd_ae.h"
  29:../src/renesas/application/r_bcd_ae.c **** #include "r_bcd_camera.h"
  30:../src/renesas/application/r_bcd_ae.c **** #include "draw.h"
  31:../src/renesas/application/r_bcd_ae.c **** #include "r_mmu_drv_api.h"
  32:../src/renesas/application/r_bcd_ae.c **** #include "r_riic_drv_api.h"
  33:../src/renesas/application/r_bcd_ae.c **** #include "r_devlink_wrapper.h"
  34:../src/renesas/application/r_bcd_ae.c **** #include "r_riic_drv_sc_cfg.h"
  35:../src/renesas/application/r_bcd_ae.c **** #include "mipi_camera.h"
  36:../src/renesas/application/r_bcd_ae.c **** 
  37:../src/renesas/application/r_bcd_ae.c **** /**************************************************************************************************
  38:../src/renesas/application/r_bcd_ae.c **** Macro definitions
  39:../src/renesas/application/r_bcd_ae.c **** ***************************************************************************************************
  40:../src/renesas/application/r_bcd_ae.c **** #define MIPI_CAMERA_SUBADD  (0x20)
  41:../src/renesas/application/r_bcd_ae.c **** #define MASK_8BIT           (0xFFu)
  42:../src/renesas/application/r_bcd_ae.c **** 
  43:../src/renesas/application/r_bcd_ae.c **** /**************************************************************************************************
  44:../src/renesas/application/r_bcd_ae.c **** Imported global variables and functions (from other files)
  45:../src/renesas/application/r_bcd_ae.c **** ***************************************************************************************************
  46:../src/renesas/application/r_bcd_ae.c **** 
  47:../src/renesas/application/r_bcd_ae.c **** /**************************************************************************************************
  48:../src/renesas/application/r_bcd_ae.c **** Private global variables and functions
  49:../src/renesas/application/r_bcd_ae.c **** ***************************************************************************************************
  50:../src/renesas/application/r_bcd_ae.c **** static void set_camera_gain(uint8_t gain);
  51:../src/renesas/application/r_bcd_ae.c **** 
  52:../src/renesas/application/r_bcd_ae.c **** /**************************************************************************************************
  53:../src/renesas/application/r_bcd_ae.c **** * Function Name: R_BCD_AeInit
  54:../src/renesas/application/r_bcd_ae.c **** * Description  : Initialize AE
  55:../src/renesas/application/r_bcd_ae.c **** * Arguments    : pAeSet
  56:../src/renesas/application/r_bcd_ae.c **** *              :   AE setting struct address
  57:../src/renesas/application/r_bcd_ae.c **** * Return Value : AE mode
  58:../src/renesas/application/r_bcd_ae.c **** ***************************************************************************************************
  59:../src/renesas/application/r_bcd_ae.c **** uint8_t R_BCD_AeInit(r_bcd_ae_setting_t* pAeSet)
  60:../src/renesas/application/r_bcd_ae.c **** {
  61:../src/renesas/application/r_bcd_ae.c ****     pAeSet->mode           = R_BCD_AE_MODE_INIT;
  62:../src/renesas/application/r_bcd_ae.c ****     pAeSet->brightness     = 0;
  63:../src/renesas/application/r_bcd_ae.c ****     pAeSet->global_gain    = GAIN_DEFAULT;
  64:../src/renesas/application/r_bcd_ae.c ****     /* Cast to an appropriate type */
  65:../src/renesas/application/r_bcd_ae.c ****     set_camera_gain((uint8_t)pAeSet->global_gain);
  66:../src/renesas/application/r_bcd_ae.c ****     return R_BCD_AE_MODE_INIT;
  67:../src/renesas/application/r_bcd_ae.c **** }
  68:../src/renesas/application/r_bcd_ae.c **** /**************************************************************************************************
  69:../src/renesas/application/r_bcd_ae.c **** * End of function R_BCD_AeInit
  70:../src/renesas/application/r_bcd_ae.c **** ***************************************************************************************************
  71:../src/renesas/application/r_bcd_ae.c **** 
  72:../src/renesas/application/r_bcd_ae.c **** /**************************************************************************************************
  73:../src/renesas/application/r_bcd_ae.c **** * Function Name: R_BCD_AeStop
  74:../src/renesas/application/r_bcd_ae.c **** * Description  : Stop AE
  75:../src/renesas/application/r_bcd_ae.c **** * Arguments    : pAeSet
  76:../src/renesas/application/r_bcd_ae.c **** *              :   AE setting struct address
  77:../src/renesas/application/r_bcd_ae.c **** * Return Value : AE mode
  78:../src/renesas/application/r_bcd_ae.c **** ***************************************************************************************************
  79:../src/renesas/application/r_bcd_ae.c **** uint8_t R_BCD_AeStop(r_bcd_ae_setting_t* pAeSet)
  80:../src/renesas/application/r_bcd_ae.c **** {
  81:../src/renesas/application/r_bcd_ae.c ****     pAeSet->mode           = R_BCD_AE_MODE_STOP;
  82:../src/renesas/application/r_bcd_ae.c ****     pAeSet->global_gain    = GAIN_DEFAULT;
  83:../src/renesas/application/r_bcd_ae.c ****     /* Cast to an appropriate type */
  84:../src/renesas/application/r_bcd_ae.c ****     set_camera_gain((uint8_t)pAeSet->global_gain);
  85:../src/renesas/application/r_bcd_ae.c ****     return R_BCD_AE_MODE_STOP;
  86:../src/renesas/application/r_bcd_ae.c **** }
  87:../src/renesas/application/r_bcd_ae.c **** /**************************************************************************************************
  88:../src/renesas/application/r_bcd_ae.c **** * End of function R_BCD_AeStop
  89:../src/renesas/application/r_bcd_ae.c **** ***************************************************************************************************
  90:../src/renesas/application/r_bcd_ae.c **** 
  91:../src/renesas/application/r_bcd_ae.c **** /**************************************************************************************************
  92:../src/renesas/application/r_bcd_ae.c **** * Function Name: R_BCD_AeStart
  93:../src/renesas/application/r_bcd_ae.c **** * Description  : Start AE
  94:../src/renesas/application/r_bcd_ae.c **** * Arguments    : pAeSet
  95:../src/renesas/application/r_bcd_ae.c **** *              :   AE setting struct address
  96:../src/renesas/application/r_bcd_ae.c **** * Return Value : AE mode
  97:../src/renesas/application/r_bcd_ae.c **** ***************************************************************************************************
  98:../src/renesas/application/r_bcd_ae.c **** uint8_t R_BCD_AeStart(r_bcd_ae_setting_t* pAeSet)
  99:../src/renesas/application/r_bcd_ae.c **** {
 100:../src/renesas/application/r_bcd_ae.c ****     pAeSet->mode           = R_BCD_AE_MODE_INIT;
 101:../src/renesas/application/r_bcd_ae.c **** 
 102:../src/renesas/application/r_bcd_ae.c ****     return R_BCD_AE_MODE_INIT;
 103:../src/renesas/application/r_bcd_ae.c **** }
 104:../src/renesas/application/r_bcd_ae.c **** /**************************************************************************************************
 105:../src/renesas/application/r_bcd_ae.c **** * End of function R_BCD_AeStart
 106:../src/renesas/application/r_bcd_ae.c **** ***************************************************************************************************
 107:../src/renesas/application/r_bcd_ae.c **** 
 108:../src/renesas/application/r_bcd_ae.c **** /**************************************************************************************************
 109:../src/renesas/application/r_bcd_ae.c **** * Function Name: R_BCD_AeGetMode
 110:../src/renesas/application/r_bcd_ae.c **** * Description  : Get present AE mode 
 111:../src/renesas/application/r_bcd_ae.c **** * Arguments    : pAeSet
 112:../src/renesas/application/r_bcd_ae.c **** *              :   AE setting struct address
 113:../src/renesas/application/r_bcd_ae.c **** * Return Value : AE mode
 114:../src/renesas/application/r_bcd_ae.c **** ***************************************************************************************************
 115:../src/renesas/application/r_bcd_ae.c **** uint8_t R_BCD_AeGetMode(r_bcd_ae_setting_t* pAeSet)
 116:../src/renesas/application/r_bcd_ae.c **** {
 117:../src/renesas/application/r_bcd_ae.c ****     return pAeSet->mode;
 118:../src/renesas/application/r_bcd_ae.c **** }
 119:../src/renesas/application/r_bcd_ae.c **** /**************************************************************************************************
 120:../src/renesas/application/r_bcd_ae.c **** * End of function R_BCD_AeGetMode
 121:../src/renesas/application/r_bcd_ae.c **** ***************************************************************************************************
 122:../src/renesas/application/r_bcd_ae.c **** 
 123:../src/renesas/application/r_bcd_ae.c **** /**************************************************************************************************
 124:../src/renesas/application/r_bcd_ae.c **** * Function Name: R_BCD_AeMakeGammaTable
 125:../src/renesas/application/r_bcd_ae.c **** * Description  : Make gamma table
 126:../src/renesas/application/r_bcd_ae.c **** * Arguments    : pAeSet
 127:../src/renesas/application/r_bcd_ae.c **** *              :   AE setting struct address
 128:../src/renesas/application/r_bcd_ae.c **** *              : gamma
 129:../src/renesas/application/r_bcd_ae.c **** *              :   Gamma value
 130:../src/renesas/application/r_bcd_ae.c **** *              : pTable
 131:../src/renesas/application/r_bcd_ae.c **** *              :   Gamma table address
 132:../src/renesas/application/r_bcd_ae.c **** * Return Value : -
 133:../src/renesas/application/r_bcd_ae.c **** ***************************************************************************************************
 134:../src/renesas/application/r_bcd_ae.c **** void    R_BCD_AeMakeGammaTable(r_bcd_ae_setting_t* pAeSet, double gamma, uint8_t* pTable)
 135:../src/renesas/application/r_bcd_ae.c **** {
 136:../src/renesas/application/r_bcd_ae.c ****     int32_t i;
 137:../src/renesas/application/r_bcd_ae.c ****     
 138:../src/renesas/application/r_bcd_ae.c ****     pAeSet->brightness = 0;
 139:../src/renesas/application/r_bcd_ae.c ****     if (pAeSet->mode != R_BCD_AE_MODE_STOP)
 140:../src/renesas/application/r_bcd_ae.c ****     {
 141:../src/renesas/application/r_bcd_ae.c ****         pAeSet->mode = R_BCD_AE_MODE_INIT;
 142:../src/renesas/application/r_bcd_ae.c ****     }
 143:../src/renesas/application/r_bcd_ae.c ****     for( i = 0; i < 256; i++ )
 144:../src/renesas/application/r_bcd_ae.c ****     {
 145:../src/renesas/application/r_bcd_ae.c ****         /* Making Gamma teble */
 146:../src/renesas/application/r_bcd_ae.c ****         pTable[i] = (uint8_t)(pow((double)i / 255.0, 1.0 / gamma) * 255.0);
 147:../src/renesas/application/r_bcd_ae.c ****         if ((pTable[i] >= BRIGHTNESS_SET) && (pAeSet->brightness == 0))
 148:../src/renesas/application/r_bcd_ae.c ****         {
 149:../src/renesas/application/r_bcd_ae.c ****             /* set brightness */
 150:../src/renesas/application/r_bcd_ae.c ****             pAeSet->brightness = (uint16_t)i;
 151:../src/renesas/application/r_bcd_ae.c ****         }
 152:../src/renesas/application/r_bcd_ae.c ****     }
 153:../src/renesas/application/r_bcd_ae.c **** }
 154:../src/renesas/application/r_bcd_ae.c **** /**************************************************************************************************
 155:../src/renesas/application/r_bcd_ae.c **** * End of function R_BCD_AeMakeGammaTable
 156:../src/renesas/application/r_bcd_ae.c **** ***************************************************************************************************
 157:../src/renesas/application/r_bcd_ae.c **** 
 158:../src/renesas/application/r_bcd_ae.c **** /**************************************************************************************************
 159:../src/renesas/application/r_bcd_ae.c **** * Function Name: R_BCD_AeRunAutoExpousure
 160:../src/renesas/application/r_bcd_ae.c **** * Description  : Set average luminance for AE 
 161:../src/renesas/application/r_bcd_ae.c **** * Arguments    : pAeSet
 162:../src/renesas/application/r_bcd_ae.c **** *              :   AE setting struct address
 163:../src/renesas/application/r_bcd_ae.c **** *              : ave_lum
 164:../src/renesas/application/r_bcd_ae.c **** *              :   Average luminance
 165:../src/renesas/application/r_bcd_ae.c **** * Return Value : AE mode
 166:../src/renesas/application/r_bcd_ae.c **** ***************************************************************************************************
 167:../src/renesas/application/r_bcd_ae.c **** uint8_t R_BCD_AeRunAutoExpousure(r_bcd_ae_setting_t* pAeSet, uint16_t ave_lum)
 168:../src/renesas/application/r_bcd_ae.c **** {
 169:../src/renesas/application/r_bcd_ae.c ****     int8_t gain_chg = 0;
 170:../src/renesas/application/r_bcd_ae.c **** 
 171:../src/renesas/application/r_bcd_ae.c ****     /* Cast to an appropriate type */
 172:../src/renesas/application/r_bcd_ae.c ****     int16_t nowgain = (int16_t)pAeSet->global_gain;
 173:../src/renesas/application/r_bcd_ae.c **** 
 174:../src/renesas/application/r_bcd_ae.c ****     if (pAeSet->mode != R_BCD_AE_MODE_STOP)
 175:../src/renesas/application/r_bcd_ae.c ****     {
 176:../src/renesas/application/r_bcd_ae.c ****         /* Adjust gain */
 177:../src/renesas/application/r_bcd_ae.c ****         if (ave_lum < (pAeSet->brightness - (BRIGHTNESS_TH * 4)))
 178:../src/renesas/application/r_bcd_ae.c ****         {
 179:../src/renesas/application/r_bcd_ae.c ****             gain_chg = 4;
 180:../src/renesas/application/r_bcd_ae.c ****         }
 181:../src/renesas/application/r_bcd_ae.c ****         else if (ave_lum < (pAeSet->brightness - (BRIGHTNESS_TH * 2)))
 182:../src/renesas/application/r_bcd_ae.c ****         {
 183:../src/renesas/application/r_bcd_ae.c ****             gain_chg = 2;
 184:../src/renesas/application/r_bcd_ae.c ****         }
 185:../src/renesas/application/r_bcd_ae.c ****         else if (ave_lum < (pAeSet->brightness - BRIGHTNESS_TH))
 186:../src/renesas/application/r_bcd_ae.c ****         {
 187:../src/renesas/application/r_bcd_ae.c ****             /* When fine tuning, do it every other times. */
 188:../src/renesas/application/r_bcd_ae.c ****             if (pAeSet->mode == R_BCD_AE_MODE_INIT)
 189:../src/renesas/application/r_bcd_ae.c ****             {
 190:../src/renesas/application/r_bcd_ae.c ****                 gain_chg = 1;
 191:../src/renesas/application/r_bcd_ae.c ****             }
 192:../src/renesas/application/r_bcd_ae.c ****         }
 193:../src/renesas/application/r_bcd_ae.c ****         else if (ave_lum > (pAeSet->brightness + (BRIGHTNESS_TH * 4)))
 194:../src/renesas/application/r_bcd_ae.c ****         {
 195:../src/renesas/application/r_bcd_ae.c ****             gain_chg = -4;
 196:../src/renesas/application/r_bcd_ae.c ****         }
 197:../src/renesas/application/r_bcd_ae.c ****         else if (ave_lum > (pAeSet->brightness + (BRIGHTNESS_TH * 2)))
 198:../src/renesas/application/r_bcd_ae.c ****         {
 199:../src/renesas/application/r_bcd_ae.c ****             gain_chg = -2;
 200:../src/renesas/application/r_bcd_ae.c ****         }
 201:../src/renesas/application/r_bcd_ae.c ****         else if (ave_lum > (pAeSet->brightness + BRIGHTNESS_TH))
 202:../src/renesas/application/r_bcd_ae.c ****         {
 203:../src/renesas/application/r_bcd_ae.c ****             /* When fine tuning, do it every other times. */
 204:../src/renesas/application/r_bcd_ae.c ****             if (pAeSet->mode == R_BCD_AE_MODE_INIT)
 205:../src/renesas/application/r_bcd_ae.c ****             {
 206:../src/renesas/application/r_bcd_ae.c ****                 gain_chg = -1;
 207:../src/renesas/application/r_bcd_ae.c ****             }
 208:../src/renesas/application/r_bcd_ae.c ****         }
 209:../src/renesas/application/r_bcd_ae.c ****         else
 210:../src/renesas/application/r_bcd_ae.c ****         {
 211:../src/renesas/application/r_bcd_ae.c ****             /* DO NOTHING */
 212:../src/renesas/application/r_bcd_ae.c ****             ;
 213:../src/renesas/application/r_bcd_ae.c ****         }
 214:../src/renesas/application/r_bcd_ae.c ****         /* Init gain mode */
 215:../src/renesas/application/r_bcd_ae.c ****         pAeSet->mode = R_BCD_AE_MODE_INIT;
 216:../src/renesas/application/r_bcd_ae.c **** 
 217:../src/renesas/application/r_bcd_ae.c ****         nowgain += gain_chg;
 218:../src/renesas/application/r_bcd_ae.c ****         if( nowgain > GAIN_MAX )
 219:../src/renesas/application/r_bcd_ae.c ****         {
 220:../src/renesas/application/r_bcd_ae.c ****             nowgain = GAIN_MAX;
 221:../src/renesas/application/r_bcd_ae.c ****         }
 222:../src/renesas/application/r_bcd_ae.c ****         if( nowgain < GAIN_MIN )
 223:../src/renesas/application/r_bcd_ae.c ****         {
 224:../src/renesas/application/r_bcd_ae.c ****             nowgain = GAIN_MIN;
 225:../src/renesas/application/r_bcd_ae.c ****         }
 226:../src/renesas/application/r_bcd_ae.c ****         /* Cast to an appropriate type */
 227:../src/renesas/application/r_bcd_ae.c ****         if( nowgain != (int16_t)pAeSet->global_gain )
 228:../src/renesas/application/r_bcd_ae.c ****         {
 229:../src/renesas/application/r_bcd_ae.c ****             /* Cast to an appropriate type */
 230:../src/renesas/application/r_bcd_ae.c ****             pAeSet->global_gain = (uint16_t)nowgain;
 231:../src/renesas/application/r_bcd_ae.c ****             /* Cast to an appropriate type */
 232:../src/renesas/application/r_bcd_ae.c ****             set_camera_gain((uint8_t)pAeSet->global_gain);
 233:../src/renesas/application/r_bcd_ae.c ****             pAeSet->mode = R_BCD_AE_MODE_SET_IN;
 234:../src/renesas/application/r_bcd_ae.c ****         }
 235:../src/renesas/application/r_bcd_ae.c ****     }
 236:../src/renesas/application/r_bcd_ae.c ****     return pAeSet->mode;
 237:../src/renesas/application/r_bcd_ae.c **** }
 238:../src/renesas/application/r_bcd_ae.c **** /**************************************************************************************************
 239:../src/renesas/application/r_bcd_ae.c **** * End of function R_BCD_AeRunAutoExpousure
 240:../src/renesas/application/r_bcd_ae.c **** ***************************************************************************************************
 241:../src/renesas/application/r_bcd_ae.c **** 
 242:../src/renesas/application/r_bcd_ae.c **** /**************************************************************************************************
 243:../src/renesas/application/r_bcd_ae.c **** * Function Name: set_camera_gain
 244:../src/renesas/application/r_bcd_ae.c **** * Description  : Set Camera Gain
 245:../src/renesas/application/r_bcd_ae.c **** * Arguments    : gain        : gain 0:-12dB --- 12:0dB --- 36:+24dB
 246:../src/renesas/application/r_bcd_ae.c **** * Return Value : none
 247:../src/renesas/application/r_bcd_ae.c **** ***************************************************************************************************
 248:../src/renesas/application/r_bcd_ae.c **** static void set_camera_gain(uint8_t gain) 
 249:../src/renesas/application/r_bcd_ae.c **** {
  25              		.loc 1 249 0
  26              		.cfi_startproc
  27              		@ args = 0, pretend = 0, frame = 0
  28              		@ frame_needed = 0, uses_anonymous_args = 0
  29              	.LVL0:
 250:../src/renesas/application/r_bcd_ae.c ****     if( gain <= GAIN_MAX )
  30              		.loc 1 250 0
  31 0000 240050E3 		cmp	r0, #36
  32 0004 1EFF2F81 		bxhi	lr
 249:../src/renesas/application/r_bcd_ae.c ****     if( gain <= GAIN_MAX )
  33              		.loc 1 249 0
  34 0008 10402DE9 		push	{r4, lr}
  35              		.cfi_def_cfa_offset 8
  36              		.cfi_offset 4, -8
  37              		.cfi_offset 14, -4
 251:../src/renesas/application/r_bcd_ae.c ****     {
 252:../src/renesas/application/r_bcd_ae.c ****         RIIC_MipiWrite(MIPI_CAMERA_SUBADD, 0x01, 0x5A, ae_setting_tbl[gain][0]);
  38              		.loc 1 252 0
  39 000c 003000E3 		movw	r3, #:lower16:.LANCHOR0
  40 0010 003040E3 		movt	r3, #:upper16:.LANCHOR0
  41 0014 800080E0 		add	r0, r0, r0, lsl #1
  42              	.LVL1:
  43 0018 004083E0 		add	r4, r3, r0
  44 001c 0030D3E7 		ldrb	r3, [r3, r0]	@ zero_extendqisi2
  45 0020 5A20A0E3 		mov	r2, #90
  46 0024 0110A0E3 		mov	r1, #1
  47 0028 2000A0E3 		mov	r0, #32
  48 002c FEFFFFEB 		bl	RIIC_MipiWrite
  49              	.LVL2:
 253:../src/renesas/application/r_bcd_ae.c ****         RIIC_MipiWrite(MIPI_CAMERA_SUBADD, 0x01, 0x5B, ae_setting_tbl[gain][1]);
  50              		.loc 1 253 0
  51 0030 0130D4E5 		ldrb	r3, [r4, #1]	@ zero_extendqisi2
  52 0034 5B20A0E3 		mov	r2, #91
  53 0038 0110A0E3 		mov	r1, #1
  54 003c 2000A0E3 		mov	r0, #32
  55 0040 FEFFFFEB 		bl	RIIC_MipiWrite
  56              	.LVL3:
 254:../src/renesas/application/r_bcd_ae.c ****         RIIC_MipiWrite(MIPI_CAMERA_SUBADD, 0x01, 0x57, ae_setting_tbl[gain][2]);
  57              		.loc 1 254 0
  58 0044 0230D4E5 		ldrb	r3, [r4, #2]	@ zero_extendqisi2
  59 0048 5720A0E3 		mov	r2, #87
  60 004c 0110A0E3 		mov	r1, #1
  61 0050 2000A0E3 		mov	r0, #32
  62 0054 FEFFFFEB 		bl	RIIC_MipiWrite
  63              	.LVL4:
  64 0058 1080BDE8 		pop	{r4, pc}
  65              		.cfi_endproc
  66              	.LFE7:
  68              		.section	.text.R_BCD_AeInit,"ax",%progbits
  69              		.align	2
  70              		.global	R_BCD_AeInit
  71              		.syntax unified
  72              		.arm
  73              		.fpu neon
  75              	R_BCD_AeInit:
  76              	.LFB1:
  60:../src/renesas/application/r_bcd_ae.c ****     pAeSet->mode           = R_BCD_AE_MODE_INIT;
  77              		.loc 1 60 0
  78              		.cfi_startproc
  79              		@ args = 0, pretend = 0, frame = 0
  80              		@ frame_needed = 0, uses_anonymous_args = 0
  81              	.LVL5:
  82 0000 10402DE9 		push	{r4, lr}
  83              		.cfi_def_cfa_offset 8
  84              		.cfi_offset 4, -8
  85              		.cfi_offset 14, -4
  86 0004 0030A0E1 		mov	r3, r0
  61:../src/renesas/application/r_bcd_ae.c ****     pAeSet->brightness     = 0;
  87              		.loc 1 61 0
  88 0008 0120E0E3 		mvn	r2, #1
  89 000c 0420C0E5 		strb	r2, [r0, #4]
  62:../src/renesas/application/r_bcd_ae.c ****     pAeSet->global_gain    = GAIN_DEFAULT;
  90              		.loc 1 62 0
  91 0010 0020A0E3 		mov	r2, #0
  92 0014 B020C0E1 		strh	r2, [r0]	@ movhi
  63:../src/renesas/application/r_bcd_ae.c ****     /* Cast to an appropriate type */
  93              		.loc 1 63 0
  94 0018 1200A0E3 		mov	r0, #18
  95              	.LVL6:
  96 001c B200C3E1 		strh	r0, [r3, #2]	@ movhi
  65:../src/renesas/application/r_bcd_ae.c ****     return R_BCD_AE_MODE_INIT;
  97              		.loc 1 65 0
  98 0020 FEFFFFEB 		bl	set_camera_gain
  99              	.LVL7:
  67:../src/renesas/application/r_bcd_ae.c **** /**************************************************************************************************
 100              		.loc 1 67 0
 101 0024 FE00A0E3 		mov	r0, #254
 102 0028 1080BDE8 		pop	{r4, pc}
 103              		.cfi_endproc
 104              	.LFE1:
 106              		.section	.text.R_BCD_AeStop,"ax",%progbits
 107              		.align	2
 108              		.global	R_BCD_AeStop
 109              		.syntax unified
 110              		.arm
 111              		.fpu neon
 113              	R_BCD_AeStop:
 114              	.LFB2:
  80:../src/renesas/application/r_bcd_ae.c ****     pAeSet->mode           = R_BCD_AE_MODE_STOP;
 115              		.loc 1 80 0
 116              		.cfi_startproc
 117              		@ args = 0, pretend = 0, frame = 0
 118              		@ frame_needed = 0, uses_anonymous_args = 0
 119              	.LVL8:
 120 0000 10402DE9 		push	{r4, lr}
 121              		.cfi_def_cfa_offset 8
 122              		.cfi_offset 4, -8
 123              		.cfi_offset 14, -4
  81:../src/renesas/application/r_bcd_ae.c ****     pAeSet->global_gain    = GAIN_DEFAULT;
 124              		.loc 1 81 0
 125 0004 0030E0E3 		mvn	r3, #0
 126 0008 0430C0E5 		strb	r3, [r0, #4]
  82:../src/renesas/application/r_bcd_ae.c ****     /* Cast to an appropriate type */
 127              		.loc 1 82 0
 128 000c 1230A0E3 		mov	r3, #18
 129 0010 B230C0E1 		strh	r3, [r0, #2]	@ movhi
  84:../src/renesas/application/r_bcd_ae.c ****     return R_BCD_AE_MODE_STOP;
 130              		.loc 1 84 0
 131 0014 0300A0E1 		mov	r0, r3
 132              	.LVL9:
 133 0018 FEFFFFEB 		bl	set_camera_gain
 134              	.LVL10:
  86:../src/renesas/application/r_bcd_ae.c **** /**************************************************************************************************
 135              		.loc 1 86 0
 136 001c FF00A0E3 		mov	r0, #255
 137 0020 1080BDE8 		pop	{r4, pc}
 138              		.cfi_endproc
 139              	.LFE2:
 141              		.section	.text.R_BCD_AeStart,"ax",%progbits
 142              		.align	2
 143              		.global	R_BCD_AeStart
 144              		.syntax unified
 145              		.arm
 146              		.fpu neon
 148              	R_BCD_AeStart:
 149              	.LFB3:
  99:../src/renesas/application/r_bcd_ae.c ****     pAeSet->mode           = R_BCD_AE_MODE_INIT;
 150              		.loc 1 99 0
 151              		.cfi_startproc
 152              		@ args = 0, pretend = 0, frame = 0
 153              		@ frame_needed = 0, uses_anonymous_args = 0
 154              		@ link register save eliminated.
 155              	.LVL11:
 100:../src/renesas/application/r_bcd_ae.c **** 
 156              		.loc 1 100 0
 157 0000 0130E0E3 		mvn	r3, #1
 158 0004 0430C0E5 		strb	r3, [r0, #4]
 103:../src/renesas/application/r_bcd_ae.c **** /**************************************************************************************************
 159              		.loc 1 103 0
 160 0008 FE00A0E3 		mov	r0, #254
 161              	.LVL12:
 162 000c 1EFF2FE1 		bx	lr
 163              		.cfi_endproc
 164              	.LFE3:
 166              		.section	.text.R_BCD_AeGetMode,"ax",%progbits
 167              		.align	2
 168              		.global	R_BCD_AeGetMode
 169              		.syntax unified
 170              		.arm
 171              		.fpu neon
 173              	R_BCD_AeGetMode:
 174              	.LFB4:
 116:../src/renesas/application/r_bcd_ae.c ****     return pAeSet->mode;
 175              		.loc 1 116 0
 176              		.cfi_startproc
 177              		@ args = 0, pretend = 0, frame = 0
 178              		@ frame_needed = 0, uses_anonymous_args = 0
 179              		@ link register save eliminated.
 180              	.LVL13:
 118:../src/renesas/application/r_bcd_ae.c **** /**************************************************************************************************
 181              		.loc 1 118 0
 182 0000 0400D0E5 		ldrb	r0, [r0, #4]	@ zero_extendqisi2
 183              	.LVL14:
 184 0004 1EFF2FE1 		bx	lr
 185              		.cfi_endproc
 186              	.LFE4:
 188              		.section	.text.R_BCD_AeMakeGammaTable,"ax",%progbits
 189              		.align	2
 190              		.global	R_BCD_AeMakeGammaTable
 191              		.syntax unified
 192              		.arm
 193              		.fpu neon
 195              	R_BCD_AeMakeGammaTable:
 196              	.LFB5:
 135:../src/renesas/application/r_bcd_ae.c ****     int32_t i;
 197              		.loc 1 135 0
 198              		.cfi_startproc
 199              		@ args = 0, pretend = 0, frame = 8
 200              		@ frame_needed = 0, uses_anonymous_args = 0
 201              	.LVL15:
 202 0000 70402DE9 		push	{r4, r5, r6, lr}
 203              		.cfi_def_cfa_offset 16
 204              		.cfi_offset 4, -16
 205              		.cfi_offset 5, -12
 206              		.cfi_offset 6, -8
 207              		.cfi_offset 14, -4
 208 0004 048B2DED 		vpush.64	{d8, d9}
 209              		.cfi_def_cfa_offset 32
 210              		.cfi_offset 80, -32
 211              		.cfi_offset 81, -28
 212              		.cfi_offset 82, -24
 213              		.cfi_offset 83, -20
 214 0008 08D04DE2 		sub	sp, sp, #8
 215              		.cfi_def_cfa_offset 40
 216 000c 0060A0E1 		mov	r6, r0
 217 0010 409BB0EE 		vmov.f64	d9, d0
 218 0014 0150A0E1 		mov	r5, r1
 138:../src/renesas/application/r_bcd_ae.c ****     if (pAeSet->mode != R_BCD_AE_MODE_STOP)
 219              		.loc 1 138 0
 220 0018 0030A0E3 		mov	r3, #0
 221 001c B030C0E1 		strh	r3, [r0]	@ movhi
 139:../src/renesas/application/r_bcd_ae.c ****     {
 222              		.loc 1 139 0
 223 0020 0430D0E5 		ldrb	r3, [r0, #4]	@ zero_extendqisi2
 224 0024 FF0053E3 		cmp	r3, #255
 141:../src/renesas/application/r_bcd_ae.c ****     }
 225              		.loc 1 141 0
 226 0028 0130E013 		mvnne	r3, #1
 227 002c 0430C015 		strbne	r3, [r0, #4]
 228              	.L14:
 135:../src/renesas/application/r_bcd_ae.c ****     int32_t i;
 229              		.loc 1 135 0 discriminator 1
 230 0030 0040A0E3 		mov	r4, #0
 231 0034 000000EA 		b	.L15
 232              	.LVL16:
 233              	.L16:
 143:../src/renesas/application/r_bcd_ae.c ****     {
 234              		.loc 1 143 0 discriminator 2
 235 0038 014084E2 		add	r4, r4, #1
 236              	.LVL17:
 237              	.L15:
 143:../src/renesas/application/r_bcd_ae.c ****     {
 238              		.loc 1 143 0 is_stmt 0 discriminator 1
 239 003c FF0054E3 		cmp	r4, #255
 240 0040 110000CA 		bgt	.L19
 146:../src/renesas/application/r_bcd_ae.c ****         if ((pTable[i] >= BRIGHTNESS_SET) && (pAeSet->brightness == 0))
 241              		.loc 1 146 0 is_stmt 1
 242 0044 904A07EE 		vmov	s15, r4	@ int
 243 0048 E70BB8EE 		vcvt.f64.s32	d0, s15
 244 004c 118B9FED 		vldr.64	d8, .L20
 245 0050 001BB7EE 		vmov.f64	d1, #1.0e+0
 246 0054 091B81EE 		vdiv.f64	d1, d1, d9
 247 0058 080B80EE 		vdiv.f64	d0, d0, d8
 248 005c FEFFFFEB 		bl	pow
 249              	.LVL18:
 250 0060 080B20EE 		vmul.f64	d0, d0, d8
 251 0064 C07BFCEE 		vcvt.u32.f64	s15, d0
 252 0068 017ACDED 		vstr.32	s15, [sp, #4]	@ int
 253 006c 0430DDE5 		ldrb	r3, [sp, #4]	@ zero_extendqisi2
 254 0070 0430C5E7 		strb	r3, [r5, r4]
 147:../src/renesas/application/r_bcd_ae.c ****         {
 255              		.loc 1 147 0
 256 0074 770053E3 		cmp	r3, #119
 257 0078 EEFFFF9A 		bls	.L16
 147:../src/renesas/application/r_bcd_ae.c ****         {
 258              		.loc 1 147 0 is_stmt 0 discriminator 1
 259 007c B030D6E1 		ldrh	r3, [r6]
 260 0080 000053E3 		cmp	r3, #0
 150:../src/renesas/application/r_bcd_ae.c ****         }
 261              		.loc 1 150 0 is_stmt 1
 262 0084 B040C601 		strheq	r4, [r6]	@ movhi
 263 0088 EAFFFFEA 		b	.L16
 264              	.L19:
 153:../src/renesas/application/r_bcd_ae.c **** /**************************************************************************************************
 265              		.loc 1 153 0
 266 008c 08D08DE2 		add	sp, sp, #8
 267              		.cfi_def_cfa_offset 32
 268              		@ sp needed
 269 0090 048BBDEC 		vldm	sp!, {d8-d9}
 270              		.cfi_restore 82
 271              		.cfi_restore 83
 272              		.cfi_restore 80
 273              		.cfi_restore 81
 274              		.cfi_def_cfa_offset 16
 275              	.LVL19:
 276 0094 7080BDE8 		pop	{r4, r5, r6, pc}
 277              	.LVL20:
 278              	.L21:
 279              		.align	3
 280              	.L20:
 281 0098 00000000 		.word	0
 282 009c 00E06F40 		.word	1081073664
 283              		.cfi_endproc
 284              	.LFE5:
 286              		.section	.text.R_BCD_AeRunAutoExpousure,"ax",%progbits
 287              		.align	2
 288              		.global	R_BCD_AeRunAutoExpousure
 289              		.syntax unified
 290              		.arm
 291              		.fpu neon
 293              	R_BCD_AeRunAutoExpousure:
 294              	.LFB6:
 168:../src/renesas/application/r_bcd_ae.c ****     int8_t gain_chg = 0;
 295              		.loc 1 168 0
 296              		.cfi_startproc
 297              		@ args = 0, pretend = 0, frame = 0
 298              		@ frame_needed = 0, uses_anonymous_args = 0
 299              	.LVL21:
 300 0000 10402DE9 		push	{r4, lr}
 301              		.cfi_def_cfa_offset 8
 302              		.cfi_offset 4, -8
 303              		.cfi_offset 14, -4
 304 0004 0040A0E1 		mov	r4, r0
 305              	.LVL22:
 172:../src/renesas/application/r_bcd_ae.c **** 
 306              		.loc 1 172 0
 307 0008 B200D0E1 		ldrh	r0, [r0, #2]
 308              	.LVL23:
 174:../src/renesas/application/r_bcd_ae.c ****     {
 309              		.loc 1 174 0
 310 000c 0420D4E5 		ldrb	r2, [r4, #4]	@ zero_extendqisi2
 311 0010 FF0052E3 		cmp	r2, #255
 312 0014 2C00000A 		beq	.L23
 313 0018 70C0BFE6 		sxth	ip, r0
 177:../src/renesas/application/r_bcd_ae.c ****         {
 314              		.loc 1 177 0
 315 001c B030D4E1 		ldrh	r3, [r4]
 316 0020 28E043E2 		sub	lr, r3, #40
 317 0024 0E0051E1 		cmp	r1, lr
 318 0028 160000BA 		blt	.L28
 181:../src/renesas/application/r_bcd_ae.c ****         {
 319              		.loc 1 181 0
 320 002c 14E043E2 		sub	lr, r3, #20
 321 0030 0E0051E1 		cmp	r1, lr
 322 0034 260000BA 		blt	.L29
 185:../src/renesas/application/r_bcd_ae.c ****         {
 323              		.loc 1 185 0
 324 0038 0AE043E2 		sub	lr, r3, #10
 325 003c 0E0051E1 		cmp	r1, lr
 326 0040 030000AA 		bge	.L25
 188:../src/renesas/application/r_bcd_ae.c ****             {
 327              		.loc 1 188 0
 328 0044 FE0052E3 		cmp	r2, #254
 329 0048 2300000A 		beq	.L30
 169:../src/renesas/application/r_bcd_ae.c **** 
 330              		.loc 1 169 0
 331 004c 0020A0E3 		mov	r2, #0
 332 0050 0D0000EA 		b	.L24
 333              	.L25:
 193:../src/renesas/application/r_bcd_ae.c ****         {
 334              		.loc 1 193 0
 335 0054 28E083E2 		add	lr, r3, #40
 336 0058 0E0051E1 		cmp	r1, lr
 337 005c 200000CA 		bgt	.L31
 197:../src/renesas/application/r_bcd_ae.c ****         {
 338              		.loc 1 197 0
 339 0060 14E083E2 		add	lr, r3, #20
 340 0064 0E0051E1 		cmp	r1, lr
 341 0068 1F0000CA 		bgt	.L32
 201:../src/renesas/application/r_bcd_ae.c ****         {
 342              		.loc 1 201 0
 343 006c 0A3083E2 		add	r3, r3, #10
 344 0070 030051E1 		cmp	r1, r3
 345 0074 1E0000DA 		ble	.L33
 204:../src/renesas/application/r_bcd_ae.c ****             {
 346              		.loc 1 204 0
 347 0078 FE0052E3 		cmp	r2, #254
 348 007c 1E00000A 		beq	.L34
 169:../src/renesas/application/r_bcd_ae.c **** 
 349              		.loc 1 169 0
 350 0080 0020A0E3 		mov	r2, #0
 351 0084 000000EA 		b	.L24
 352              	.L28:
 179:../src/renesas/application/r_bcd_ae.c ****         }
 353              		.loc 1 179 0
 354 0088 0420A0E3 		mov	r2, #4
 355              	.L24:
 356              	.LVL24:
 215:../src/renesas/application/r_bcd_ae.c **** 
 357              		.loc 1 215 0
 358 008c 0130E0E3 		mvn	r3, #1
 359 0090 0430C4E5 		strb	r3, [r4, #4]
 217:../src/renesas/application/r_bcd_ae.c ****         if( nowgain > GAIN_MAX )
 360              		.loc 1 217 0
 361 0094 020080E0 		add	r0, r0, r2
 362              	.LVL25:
 363 0098 7000BFE6 		sxth	r0, r0
 364              	.LVL26:
 218:../src/renesas/application/r_bcd_ae.c ****         {
 365              		.loc 1 218 0
 366 009c 240050E3 		cmp	r0, #36
 220:../src/renesas/application/r_bcd_ae.c ****         }
 367              		.loc 1 220 0
 368 00a0 2400A0C3 		movgt	r0, #36
 369              	.LVL27:
 370              	.L26:
 222:../src/renesas/application/r_bcd_ae.c ****         {
 371              		.loc 1 222 0
 372 00a4 000050E3 		cmp	r0, #0
 373 00a8 150000BA 		blt	.L38
 374              	.LVL28:
 375              	.L27:
 227:../src/renesas/application/r_bcd_ae.c ****         {
 376              		.loc 1 227 0
 377 00ac 0C0050E1 		cmp	r0, ip
 378 00b0 0500000A 		beq	.L23
 230:../src/renesas/application/r_bcd_ae.c ****             /* Cast to an appropriate type */
 379              		.loc 1 230 0
 380 00b4 7000FFE6 		uxth	r0, r0
 381 00b8 B200C4E1 		strh	r0, [r4, #2]	@ movhi
 232:../src/renesas/application/r_bcd_ae.c ****             pAeSet->mode = R_BCD_AE_MODE_SET_IN;
 382              		.loc 1 232 0
 383 00bc 7000EFE6 		uxtb	r0, r0
 384              	.LVL29:
 385 00c0 FEFFFFEB 		bl	set_camera_gain
 386              	.LVL30:
 233:../src/renesas/application/r_bcd_ae.c ****         }
 387              		.loc 1 233 0
 388 00c4 0130A0E3 		mov	r3, #1
 389 00c8 0430C4E5 		strb	r3, [r4, #4]
 390              	.L23:
 237:../src/renesas/application/r_bcd_ae.c **** /**************************************************************************************************
 391              		.loc 1 237 0
 392 00cc 0400D4E5 		ldrb	r0, [r4, #4]	@ zero_extendqisi2
 393 00d0 1080BDE8 		pop	{r4, pc}
 394              	.LVL31:
 395              	.L29:
 183:../src/renesas/application/r_bcd_ae.c ****         }
 396              		.loc 1 183 0
 397 00d4 0220A0E3 		mov	r2, #2
 398 00d8 EBFFFFEA 		b	.L24
 399              	.L30:
 190:../src/renesas/application/r_bcd_ae.c ****             }
 400              		.loc 1 190 0
 401 00dc 0120A0E3 		mov	r2, #1
 402 00e0 E9FFFFEA 		b	.L24
 403              	.L31:
 195:../src/renesas/application/r_bcd_ae.c ****         }
 404              		.loc 1 195 0
 405 00e4 0320E0E3 		mvn	r2, #3
 406 00e8 E7FFFFEA 		b	.L24
 407              	.L32:
 199:../src/renesas/application/r_bcd_ae.c ****         }
 408              		.loc 1 199 0
 409 00ec 0120E0E3 		mvn	r2, #1
 410 00f0 E5FFFFEA 		b	.L24
 411              	.L33:
 169:../src/renesas/application/r_bcd_ae.c **** 
 412              		.loc 1 169 0
 413 00f4 0020A0E3 		mov	r2, #0
 414 00f8 E3FFFFEA 		b	.L24
 415              	.L34:
 206:../src/renesas/application/r_bcd_ae.c ****             }
 416              		.loc 1 206 0
 417 00fc 0020E0E3 		mvn	r2, #0
 418 0100 E1FFFFEA 		b	.L24
 419              	.LVL32:
 420              	.L38:
 224:../src/renesas/application/r_bcd_ae.c ****         }
 421              		.loc 1 224 0
 422 0104 0000A0E3 		mov	r0, #0
 423              	.LVL33:
 424 0108 E7FFFFEA 		b	.L27
 425              		.cfi_endproc
 426              	.LFE6:
 428              		.section	.rodata.ae_setting_tbl,"a",%progbits
 429              		.align	2
 430              		.set	.LANCHOR0,. + 0
 433              	ae_setting_tbl:
 434 0000 00       		.byte	0
 435 0001 FB       		.byte	-5
 436 0002 00       		.byte	0
 437 0003 01       		.byte	1
 438 0004 1A       		.byte	26
 439 0005 00       		.byte	0
 440 0006 01       		.byte	1
 441 0007 3C       		.byte	60
 442 0008 00       		.byte	0
 443 0009 01       		.byte	1
 444 000a 63       		.byte	99
 445 000b 00       		.byte	0
 446 000c 01       		.byte	1
 447 000d 86       		.byte	-122
 448 000e 00       		.byte	0
 449 000f 01       		.byte	1
 450 0010 BF       		.byte	-65
 451 0011 00       		.byte	0
 452 0012 01       		.byte	1
 453 0013 F5       		.byte	-11
 454 0014 00       		.byte	0
 455 0015 02       		.byte	2
 456 0016 32       		.byte	50
 457 0017 00       		.byte	0
 458 0018 02       		.byte	2
 459 0019 77       		.byte	119
 460 001a 00       		.byte	0
 461 001b 02       		.byte	2
 462 001c C4       		.byte	-60
 463 001d 00       		.byte	0
 464 001e 03       		.byte	3
 465 001f 1A       		.byte	26
 466 0020 00       		.byte	0
 467 0021 03       		.byte	3
 468 0022 7B       		.byte	123
 469 0023 00       		.byte	0
 470 0024 03       		.byte	3
 471 0025 E8       		.byte	-24
 472 0026 00       		.byte	0
 473 0027 04       		.byte	4
 474 0028 62       		.byte	98
 475 0029 00       		.byte	0
 476 002a 04       		.byte	4
 477 002b EB       		.byte	-21
 478 002c 00       		.byte	0
 479 002d 05       		.byte	5
 480 002e 85       		.byte	-123
 481 002f 00       		.byte	0
 482 0030 06       		.byte	6
 483 0031 31       		.byte	49
 484 0032 00       		.byte	0
 485 0033 06       		.byte	6
 486 0034 F2       		.byte	-14
 487 0035 00       		.byte	0
 488 0036 07       		.byte	7
 489 0037 CB       		.byte	-53
 490 0038 00       		.byte	0
 491 0039 08       		.byte	8
 492 003a BF       		.byte	-65
 493 003b 00       		.byte	0
 494 003c 09       		.byte	9
 495 003d D0       		.byte	-48
 496 003e 00       		.byte	0
 497 003f 0B       		.byte	11
 498 0040 02       		.byte	2
 499 0041 00       		.byte	0
 500 0042 0C       		.byte	12
 501 0043 5A       		.byte	90
 502 0044 00       		.byte	0
 503 0045 0C       		.byte	12
 504 0046 5A       		.byte	90
 505 0047 1C       		.byte	28
 506 0048 0C       		.byte	12
 507 0049 5A       		.byte	90
 508 004a 35       		.byte	53
 509 004b 0C       		.byte	12
 510 004c 5A       		.byte	90
 511 004d 4B       		.byte	75
 512 004e 0C       		.byte	12
 513 004f 5A       		.byte	90
 514 0050 5F       		.byte	95
 515 0051 0C       		.byte	12
 516 0052 5A       		.byte	90
 517 0053 70       		.byte	112
 518 0054 0C       		.byte	12
 519 0055 5A       		.byte	90
 520 0056 80       		.byte	-128
 521 0057 0C       		.byte	12
 522 0058 5A       		.byte	90
 523 0059 8E       		.byte	-114
 524 005a 0C       		.byte	12
 525 005b 5A       		.byte	90
 526 005c 9A       		.byte	-102
 527 005d 0C       		.byte	12
 528 005e 5A       		.byte	90
 529 005f A5       		.byte	-91
 530 0060 0C       		.byte	12
 531 0061 5A       		.byte	90
 532 0062 AF       		.byte	-81
 533 0063 0C       		.byte	12
 534 0064 5A       		.byte	90
 535 0065 B8       		.byte	-72
 536 0066 0C       		.byte	12
 537 0067 5A       		.byte	90
 538 0068 C0       		.byte	-64
 539 0069 0C       		.byte	12
 540 006a 5A       		.byte	90
 541 006b C6       		.byte	-58
 542 006c 0C       		.byte	12
 543 006d 5A       		.byte	90
 544 006e CD       		.byte	-51
 545              		.text
 546              	.Letext0:
 547              		.file 2 "/home/zkmike/.local/share/renesas/e2_studio/toolchains/gcc_arm/gcc-arm-none-eabi-6-2017-q
 548              		.file 3 "/home/zkmike/.local/share/renesas/e2_studio/toolchains/gcc_arm/gcc-arm-none-eabi-6-2017-q
 549              		.file 4 "/home/zkmike/.local/share/renesas/e2_studio/toolchains/gcc_arm/gcc-arm-none-eabi-6-2017-q
 550              		.file 5 "/home/zkmike/.local/share/renesas/e2_studio/toolchains/gcc_arm/gcc-arm-none-eabi-6-2017-q
 551              		.file 6 "/home/zkmike/.local/share/renesas/e2_studio/toolchains/gcc_arm/gcc-arm-none-eabi-6-2017-q
 552              		.file 7 "/home/zkmike/.local/share/renesas/e2_studio/toolchains/gcc_arm/gcc-arm-none-eabi-6-2017-q
 553              		.file 8 "/home/zkmike/.local/share/renesas/e2_studio/toolchains/gcc_arm/gcc-arm-none-eabi-6-2017-q
 554              		.file 9 "/home/zkmike/.local/share/renesas/e2_studio/toolchains/gcc_arm/gcc-arm-none-eabi-6-2017-q
 555              		.file 10 "/home/zkmike/workspace/RZA2M/rza2m_2d_barcode_sample_freertos_gcc/generate/system/inc/r_
 556              		.file 11 "/home/zkmike/workspace/RZA2M/rza2m_2d_barcode_sample_freertos_gcc/src/renesas/applicatio
 557              		.file 12 "/home/zkmike/.local/share/renesas/e2_studio/toolchains/gcc_arm/gcc-arm-none-eabi-6-2017-
 558              		.file 13 "/home/zkmike/workspace/RZA2M/rza2m_2d_barcode_sample_freertos_gcc/generate/system/inc/dr
 559              		.file 14 "/home/zkmike/workspace/RZA2M/rza2m_2d_barcode_sample_freertos_gcc/generate/drivers/r_mmu
 560              		.file 15 "/home/zkmike/workspace/RZA2M/rza2m_2d_barcode_sample_freertos_gcc/generate/sc_drivers/r_
 561              		.file 16 "/home/zkmike/workspace/RZA2M/rza2m_2d_barcode_sample_freertos_gcc/generate/sc_drivers/r_
 562              		.file 17 "/home/zkmike/workspace/RZA2M/rza2m_2d_barcode_sample_freertos_gcc/generate/drivers/r_gpi
 563              		.file 18 "/home/zkmike/workspace/RZA2M/rza2m_2d_barcode_sample_freertos_gcc/generate/drivers/r_gpi
 564              		.file 19 "/home/zkmike/workspace/RZA2M/rza2m_2d_barcode_sample_freertos_gcc/generate/drivers/r_gpi
 565              		.file 20 "/home/zkmike/workspace/RZA2M/rza2m_2d_barcode_sample_freertos_gcc/generate/sc_drivers/r_
 566              		.file 21 "/home/zkmike/workspace/RZA2M/rza2m_2d_barcode_sample_freertos_gcc/src/renesas/applicatio