   1              		.cpu cortex-a9
   2              		.eabi_attribute 28, 1
   3              		.eabi_attribute 20, 1
   4              		.eabi_attribute 21, 1
   5              		.eabi_attribute 23, 3
   6              		.eabi_attribute 24, 1
   7              		.eabi_attribute 25, 1
   8              		.eabi_attribute 26, 1
   9              		.eabi_attribute 30, 1
  10              		.eabi_attribute 34, 0
  11              		.eabi_attribute 18, 4
  12              		.file	"ByQuadrantReader.cpp"
  13              		.text
  14              	.Ltext0:
  15              		.cfi_sections	.debug_frame
  16              		.section	.text._ZN5zxing5multi16ByQuadrantReaderD2Ev,"ax",%progbits
  17              		.align	2
  18              		.global	_ZN5zxing5multi16ByQuadrantReaderD2Ev
  19              		.syntax unified
  20              		.arm
  21              		.fpu neon
  23              	_ZN5zxing5multi16ByQuadrantReaderD2Ev:
  24              		.fnstart
  25              	.LFB2267:
  26              		.file 1 "../src/zxing_lib/zxing/multi/ByQuadrantReader.cpp"
   1:../src/zxing_lib/zxing/multi/ByQuadrantReader.cpp **** /*
   2:../src/zxing_lib/zxing/multi/ByQuadrantReader.cpp ****  *  Copyright 2011 ZXing authors All rights reserved.
   3:../src/zxing_lib/zxing/multi/ByQuadrantReader.cpp ****  *
   4:../src/zxing_lib/zxing/multi/ByQuadrantReader.cpp ****  * Licensed under the Apache License, Version 2.0 (the "License");
   5:../src/zxing_lib/zxing/multi/ByQuadrantReader.cpp ****  * you may not use this file except in compliance with the License.
   6:../src/zxing_lib/zxing/multi/ByQuadrantReader.cpp ****  * You may obtain a copy of the License at
   7:../src/zxing_lib/zxing/multi/ByQuadrantReader.cpp ****  *
   8:../src/zxing_lib/zxing/multi/ByQuadrantReader.cpp ****  *      http://www.apache.org/licenses/LICENSE-2.0
   9:../src/zxing_lib/zxing/multi/ByQuadrantReader.cpp ****  *
  10:../src/zxing_lib/zxing/multi/ByQuadrantReader.cpp ****  * Unless required by applicable law or agreed to in writing, software
  11:../src/zxing_lib/zxing/multi/ByQuadrantReader.cpp ****  * distributed under the License is distributed on an "AS IS" BASIS,
  12:../src/zxing_lib/zxing/multi/ByQuadrantReader.cpp ****  * WITHOUT WARRANTIES OR CONDITIONS OF ANY KIND, either express or implied.
  13:../src/zxing_lib/zxing/multi/ByQuadrantReader.cpp ****  * See the License for the specific language governing permissions and
  14:../src/zxing_lib/zxing/multi/ByQuadrantReader.cpp ****  * limitations under the License.
  15:../src/zxing_lib/zxing/multi/ByQuadrantReader.cpp ****  */
  16:../src/zxing_lib/zxing/multi/ByQuadrantReader.cpp **** 
  17:../src/zxing_lib/zxing/multi/ByQuadrantReader.cpp **** #include <zxing/multi/ByQuadrantReader.h>
  18:../src/zxing_lib/zxing/multi/ByQuadrantReader.cpp **** #include <zxing/ReaderException.h>
  19:../src/zxing_lib/zxing/multi/ByQuadrantReader.cpp **** 
  20:../src/zxing_lib/zxing/multi/ByQuadrantReader.cpp **** namespace zxing {
  21:../src/zxing_lib/zxing/multi/ByQuadrantReader.cpp **** namespace multi {
  22:../src/zxing_lib/zxing/multi/ByQuadrantReader.cpp **** 
  23:../src/zxing_lib/zxing/multi/ByQuadrantReader.cpp **** ByQuadrantReader::ByQuadrantReader(Reader& delegate) : delegate_(delegate) {}
  24:../src/zxing_lib/zxing/multi/ByQuadrantReader.cpp **** 
  25:../src/zxing_lib/zxing/multi/ByQuadrantReader.cpp **** ByQuadrantReader::~ByQuadrantReader(){}
  27              		.loc 1 25 0
  28              		.cfi_startproc
  29              		@ args = 0, pretend = 0, frame = 0
  30              		@ frame_needed = 0, uses_anonymous_args = 0
  31              	.LVL0:
  32 0000 10402DE9 		push	{r4, lr}
  33              		.cfi_def_cfa_offset 8
  34              		.cfi_offset 4, -8
  35              		.cfi_offset 14, -4
  36 0004 0040A0E1 		mov	r4, r0
  37              	.LBB306:
  38              		.loc 1 25 0
  39 0008 0C309FE5 		ldr	r3, .L3
  40 000c 003080E5 		str	r3, [r0]
  41 0010 FEFFFFEB 		bl	_ZN5zxing6ReaderD2Ev
  42              	.LVL1:
  43              	.LBE306:
  44 0014 0400A0E1 		mov	r0, r4
  45 0018 1080BDE8 		pop	{r4, pc}
  46              	.L4:
  47              		.align	2
  48              	.L3:
  49 001c 08000000 		.word	.LANCHOR0+8
  50              		.cfi_endproc
  51              	.LFE2267:
  52              		.cantunwind
  53              		.fnend
  55              		.global	_ZN5zxing5multi16ByQuadrantReaderD1Ev
  56              		.set	_ZN5zxing5multi16ByQuadrantReaderD1Ev,_ZN5zxing5multi16ByQuadrantReaderD2Ev
  57              		.section	.text._ZN5zxing5multi16ByQuadrantReaderD0Ev,"ax",%progbits
  58              		.align	2
  59              		.global	_ZN5zxing5multi16ByQuadrantReaderD0Ev
  60              		.syntax unified
  61              		.arm
  62              		.fpu neon
  64              	_ZN5zxing5multi16ByQuadrantReaderD0Ev:
  65              		.fnstart
  66              	.LFB2269:
  67              		.loc 1 25 0
  68              		.cfi_startproc
  69              		@ args = 0, pretend = 0, frame = 0
  70              		@ frame_needed = 0, uses_anonymous_args = 0
  71              	.LVL2:
  72 0000 10402DE9 		push	{r4, lr}
  73              		.cfi_def_cfa_offset 8
  74              		.cfi_offset 4, -8
  75              		.cfi_offset 14, -4
  76 0004 0040A0E1 		mov	r4, r0
  77              		.loc 1 25 0
  78 0008 FEFFFFEB 		bl	_ZN5zxing5multi16ByQuadrantReaderD1Ev
  79              	.LVL3:
  80 000c 0C10A0E3 		mov	r1, #12
  81 0010 0400A0E1 		mov	r0, r4
  82 0014 FEFFFFEB 		bl	_ZdlPvj
  83              	.LVL4:
  84 0018 0400A0E1 		mov	r0, r4
  85 001c 1080BDE8 		pop	{r4, pc}
  86              		.cfi_endproc
  87              	.LFE2269:
  88              		.cantunwind
  89              		.fnend
  91              		.section	.text._Z41__static_initialization_and_destruction_0ii,"ax",%progbits
  92              		.align	2
  93              		.syntax unified
  94              		.arm
  95              		.fpu neon
  97              	_Z41__static_initialization_and_destruction_0ii:
  98              		.fnstart
  99              	.LFB2742:
  26:../src/zxing_lib/zxing/multi/ByQuadrantReader.cpp **** 
  27:../src/zxing_lib/zxing/multi/ByQuadrantReader.cpp **** Ref<Result> ByQuadrantReader::decode(Ref<BinaryBitmap> image){
  28:../src/zxing_lib/zxing/multi/ByQuadrantReader.cpp ****   return decode(image, DecodeHints::DEFAULT_HINT);
  29:../src/zxing_lib/zxing/multi/ByQuadrantReader.cpp **** }
  30:../src/zxing_lib/zxing/multi/ByQuadrantReader.cpp **** 
  31:../src/zxing_lib/zxing/multi/ByQuadrantReader.cpp **** Ref<Result> ByQuadrantReader::decode(Ref<BinaryBitmap> image, DecodeHints hints){
  32:../src/zxing_lib/zxing/multi/ByQuadrantReader.cpp ****   int width = image->getWidth();
  33:../src/zxing_lib/zxing/multi/ByQuadrantReader.cpp ****   int height = image->getHeight();
  34:../src/zxing_lib/zxing/multi/ByQuadrantReader.cpp ****   int halfWidth = width / 2;
  35:../src/zxing_lib/zxing/multi/ByQuadrantReader.cpp ****   int halfHeight = height / 2;
  36:../src/zxing_lib/zxing/multi/ByQuadrantReader.cpp ****   Ref<BinaryBitmap> topLeft = image->crop(0, 0, halfWidth, halfHeight);
  37:../src/zxing_lib/zxing/multi/ByQuadrantReader.cpp ****   try {
  38:../src/zxing_lib/zxing/multi/ByQuadrantReader.cpp ****     return delegate_.decode(topLeft, hints);
  39:../src/zxing_lib/zxing/multi/ByQuadrantReader.cpp ****   } catch (ReaderException const& re) {
  40:../src/zxing_lib/zxing/multi/ByQuadrantReader.cpp ****     (void)re;
  41:../src/zxing_lib/zxing/multi/ByQuadrantReader.cpp ****     // continue
  42:../src/zxing_lib/zxing/multi/ByQuadrantReader.cpp ****   }
  43:../src/zxing_lib/zxing/multi/ByQuadrantReader.cpp **** 
  44:../src/zxing_lib/zxing/multi/ByQuadrantReader.cpp ****   Ref<BinaryBitmap> topRight = image->crop(halfWidth, 0, halfWidth, halfHeight);
  45:../src/zxing_lib/zxing/multi/ByQuadrantReader.cpp ****   try {
  46:../src/zxing_lib/zxing/multi/ByQuadrantReader.cpp ****     return delegate_.decode(topRight, hints);
  47:../src/zxing_lib/zxing/multi/ByQuadrantReader.cpp ****   } catch (ReaderException const& re) {
  48:../src/zxing_lib/zxing/multi/ByQuadrantReader.cpp ****     (void)re;
  49:../src/zxing_lib/zxing/multi/ByQuadrantReader.cpp ****     // continue
  50:../src/zxing_lib/zxing/multi/ByQuadrantReader.cpp ****   }
  51:../src/zxing_lib/zxing/multi/ByQuadrantReader.cpp **** 
  52:../src/zxing_lib/zxing/multi/ByQuadrantReader.cpp ****   Ref<BinaryBitmap> bottomLeft = image->crop(0, halfHeight, halfWidth, halfHeight);
  53:../src/zxing_lib/zxing/multi/ByQuadrantReader.cpp ****   try {
  54:../src/zxing_lib/zxing/multi/ByQuadrantReader.cpp ****     return delegate_.decode(bottomLeft, hints);
  55:../src/zxing_lib/zxing/multi/ByQuadrantReader.cpp ****   } catch (ReaderException const& re) {
  56:../src/zxing_lib/zxing/multi/ByQuadrantReader.cpp ****     (void)re;
  57:../src/zxing_lib/zxing/multi/ByQuadrantReader.cpp ****     // continue
  58:../src/zxing_lib/zxing/multi/ByQuadrantReader.cpp ****   }
  59:../src/zxing_lib/zxing/multi/ByQuadrantReader.cpp **** 
  60:../src/zxing_lib/zxing/multi/ByQuadrantReader.cpp ****   Ref<BinaryBitmap> bottomRight = image->crop(halfWidth, halfHeight, halfWidth, halfHeight);
  61:../src/zxing_lib/zxing/multi/ByQuadrantReader.cpp ****   try {
  62:../src/zxing_lib/zxing/multi/ByQuadrantReader.cpp ****     return delegate_.decode(bottomRight, hints);
  63:../src/zxing_lib/zxing/multi/ByQuadrantReader.cpp ****   } catch (ReaderException const& re) {
  64:../src/zxing_lib/zxing/multi/ByQuadrantReader.cpp ****     (void)re;
  65:../src/zxing_lib/zxing/multi/ByQuadrantReader.cpp ****     // continue
  66:../src/zxing_lib/zxing/multi/ByQuadrantReader.cpp ****   }
  67:../src/zxing_lib/zxing/multi/ByQuadrantReader.cpp **** 
  68:../src/zxing_lib/zxing/multi/ByQuadrantReader.cpp ****   int quarterWidth = halfWidth / 2;
  69:../src/zxing_lib/zxing/multi/ByQuadrantReader.cpp ****   int quarterHeight = halfHeight / 2;
  70:../src/zxing_lib/zxing/multi/ByQuadrantReader.cpp ****   Ref<BinaryBitmap> center = image->crop(quarterWidth, quarterHeight, halfWidth, halfHeight);
  71:../src/zxing_lib/zxing/multi/ByQuadrantReader.cpp ****   return delegate_.decode(center, hints);
  72:../src/zxing_lib/zxing/multi/ByQuadrantReader.cpp **** }
  73:../src/zxing_lib/zxing/multi/ByQuadrantReader.cpp **** 
  74:../src/zxing_lib/zxing/multi/ByQuadrantReader.cpp **** } // End zxing::multi namespace
  75:../src/zxing_lib/zxing/multi/ByQuadrantReader.cpp **** } // End zxing namespace
 100              		.loc 1 75 0
 101              		.cfi_startproc
 102              		@ args = 0, pretend = 0, frame = 0
 103              		@ frame_needed = 0, uses_anonymous_args = 0
 104              	.LVL5:
 105 0000 010050E3 		cmp	r0, #1
 106 0004 1EFF2F11 		bxne	lr
 107              		.loc 1 75 0 is_stmt 0 discriminator 1
 108 0008 FF3F0FE3 		movw	r3, #65535
 109 000c 030051E1 		cmp	r1, r3
 110 0010 1EFF2F11 		bxne	lr
 111              		.loc 1 75 0
 112 0014 10402DE9 		push	{r4, lr}
 113              		.cfi_def_cfa_offset 8
 114              		.cfi_offset 4, -8
 115              		.cfi_offset 14, -4
 116              		.file 2 "/home/zkmike/.local/share/renesas/e2_studio/toolchains/gcc_arm/gcc-arm-none-eabi-6-2017-q
   1:/home/zkmike/.local/share/renesas/e2_studio/toolchains/gcc_arm/gcc-arm-none-eabi-6-2017-q2-update/arm-none-eabi/include/c++/6.3.1/iostream **** // Standard iostream objects -*- C++ -*-
   2:/home/zkmike/.local/share/renesas/e2_studio/toolchains/gcc_arm/gcc-arm-none-eabi-6-2017-q2-update/arm-none-eabi/include/c++/6.3.1/iostream **** 
   3:/home/zkmike/.local/share/renesas/e2_studio/toolchains/gcc_arm/gcc-arm-none-eabi-6-2017-q2-update/arm-none-eabi/include/c++/6.3.1/iostream **** // Copyright (C) 1997-2016 Free Software Foundation, Inc.
   4:/home/zkmike/.local/share/renesas/e2_studio/toolchains/gcc_arm/gcc-arm-none-eabi-6-2017-q2-update/arm-none-eabi/include/c++/6.3.1/iostream **** //
   5:/home/zkmike/.local/share/renesas/e2_studio/toolchains/gcc_arm/gcc-arm-none-eabi-6-2017-q2-update/arm-none-eabi/include/c++/6.3.1/iostream **** // This file is part of the GNU ISO C++ Library.  This library is free
   6:/home/zkmike/.local/share/renesas/e2_studio/toolchains/gcc_arm/gcc-arm-none-eabi-6-2017-q2-update/arm-none-eabi/include/c++/6.3.1/iostream **** // software; you can redistribute it and/or modify it under the
   7:/home/zkmike/.local/share/renesas/e2_studio/toolchains/gcc_arm/gcc-arm-none-eabi-6-2017-q2-update/arm-none-eabi/include/c++/6.3.1/iostream **** // terms of the GNU General Public License as published by the
   8:/home/zkmike/.local/share/renesas/e2_studio/toolchains/gcc_arm/gcc-arm-none-eabi-6-2017-q2-update/arm-none-eabi/include/c++/6.3.1/iostream **** // Free Software Foundation; either version 3, or (at your option)
   9:/home/zkmike/.local/share/renesas/e2_studio/toolchains/gcc_arm/gcc-arm-none-eabi-6-2017-q2-update/arm-none-eabi/include/c++/6.3.1/iostream **** // any later version.
  10:/home/zkmike/.local/share/renesas/e2_studio/toolchains/gcc_arm/gcc-arm-none-eabi-6-2017-q2-update/arm-none-eabi/include/c++/6.3.1/iostream **** 
  11:/home/zkmike/.local/share/renesas/e2_studio/toolchains/gcc_arm/gcc-arm-none-eabi-6-2017-q2-update/arm-none-eabi/include/c++/6.3.1/iostream **** // This library is distributed in the hope that it will be useful,
  12:/home/zkmike/.local/share/renesas/e2_studio/toolchains/gcc_arm/gcc-arm-none-eabi-6-2017-q2-update/arm-none-eabi/include/c++/6.3.1/iostream **** // but WITHOUT ANY WARRANTY; without even the implied warranty of
  13:/home/zkmike/.local/share/renesas/e2_studio/toolchains/gcc_arm/gcc-arm-none-eabi-6-2017-q2-update/arm-none-eabi/include/c++/6.3.1/iostream **** // MERCHANTABILITY or FITNESS FOR A PARTICULAR PURPOSE.  See the
  14:/home/zkmike/.local/share/renesas/e2_studio/toolchains/gcc_arm/gcc-arm-none-eabi-6-2017-q2-update/arm-none-eabi/include/c++/6.3.1/iostream **** // GNU General Public License for more details.
  15:/home/zkmike/.local/share/renesas/e2_studio/toolchains/gcc_arm/gcc-arm-none-eabi-6-2017-q2-update/arm-none-eabi/include/c++/6.3.1/iostream **** 
  16:/home/zkmike/.local/share/renesas/e2_studio/toolchains/gcc_arm/gcc-arm-none-eabi-6-2017-q2-update/arm-none-eabi/include/c++/6.3.1/iostream **** // Under Section 7 of GPL version 3, you are granted additional
  17:/home/zkmike/.local/share/renesas/e2_studio/toolchains/gcc_arm/gcc-arm-none-eabi-6-2017-q2-update/arm-none-eabi/include/c++/6.3.1/iostream **** // permissions described in the GCC Runtime Library Exception, version
  18:/home/zkmike/.local/share/renesas/e2_studio/toolchains/gcc_arm/gcc-arm-none-eabi-6-2017-q2-update/arm-none-eabi/include/c++/6.3.1/iostream **** // 3.1, as published by the Free Software Foundation.
  19:/home/zkmike/.local/share/renesas/e2_studio/toolchains/gcc_arm/gcc-arm-none-eabi-6-2017-q2-update/arm-none-eabi/include/c++/6.3.1/iostream **** 
  20:/home/zkmike/.local/share/renesas/e2_studio/toolchains/gcc_arm/gcc-arm-none-eabi-6-2017-q2-update/arm-none-eabi/include/c++/6.3.1/iostream **** // You should have received a copy of the GNU General Public License and
  21:/home/zkmike/.local/share/renesas/e2_studio/toolchains/gcc_arm/gcc-arm-none-eabi-6-2017-q2-update/arm-none-eabi/include/c++/6.3.1/iostream **** // a copy of the GCC Runtime Library Exception along with this program;
  22:/home/zkmike/.local/share/renesas/e2_studio/toolchains/gcc_arm/gcc-arm-none-eabi-6-2017-q2-update/arm-none-eabi/include/c++/6.3.1/iostream **** // see the files COPYING3 and COPYING.RUNTIME respectively.  If not, see
  23:/home/zkmike/.local/share/renesas/e2_studio/toolchains/gcc_arm/gcc-arm-none-eabi-6-2017-q2-update/arm-none-eabi/include/c++/6.3.1/iostream **** // <http://www.gnu.org/licenses/>.
  24:/home/zkmike/.local/share/renesas/e2_studio/toolchains/gcc_arm/gcc-arm-none-eabi-6-2017-q2-update/arm-none-eabi/include/c++/6.3.1/iostream **** 
  25:/home/zkmike/.local/share/renesas/e2_studio/toolchains/gcc_arm/gcc-arm-none-eabi-6-2017-q2-update/arm-none-eabi/include/c++/6.3.1/iostream **** /** @file include/iostream
  26:/home/zkmike/.local/share/renesas/e2_studio/toolchains/gcc_arm/gcc-arm-none-eabi-6-2017-q2-update/arm-none-eabi/include/c++/6.3.1/iostream ****  *  This is a Standard C++ Library header.
  27:/home/zkmike/.local/share/renesas/e2_studio/toolchains/gcc_arm/gcc-arm-none-eabi-6-2017-q2-update/arm-none-eabi/include/c++/6.3.1/iostream ****  */
  28:/home/zkmike/.local/share/renesas/e2_studio/toolchains/gcc_arm/gcc-arm-none-eabi-6-2017-q2-update/arm-none-eabi/include/c++/6.3.1/iostream **** 
  29:/home/zkmike/.local/share/renesas/e2_studio/toolchains/gcc_arm/gcc-arm-none-eabi-6-2017-q2-update/arm-none-eabi/include/c++/6.3.1/iostream **** //
  30:/home/zkmike/.local/share/renesas/e2_studio/toolchains/gcc_arm/gcc-arm-none-eabi-6-2017-q2-update/arm-none-eabi/include/c++/6.3.1/iostream **** // ISO C++ 14882: 27.3  Standard iostream objects
  31:/home/zkmike/.local/share/renesas/e2_studio/toolchains/gcc_arm/gcc-arm-none-eabi-6-2017-q2-update/arm-none-eabi/include/c++/6.3.1/iostream **** //
  32:/home/zkmike/.local/share/renesas/e2_studio/toolchains/gcc_arm/gcc-arm-none-eabi-6-2017-q2-update/arm-none-eabi/include/c++/6.3.1/iostream **** 
  33:/home/zkmike/.local/share/renesas/e2_studio/toolchains/gcc_arm/gcc-arm-none-eabi-6-2017-q2-update/arm-none-eabi/include/c++/6.3.1/iostream **** #ifndef _GLIBCXX_IOSTREAM
  34:/home/zkmike/.local/share/renesas/e2_studio/toolchains/gcc_arm/gcc-arm-none-eabi-6-2017-q2-update/arm-none-eabi/include/c++/6.3.1/iostream **** #define _GLIBCXX_IOSTREAM 1
  35:/home/zkmike/.local/share/renesas/e2_studio/toolchains/gcc_arm/gcc-arm-none-eabi-6-2017-q2-update/arm-none-eabi/include/c++/6.3.1/iostream **** 
  36:/home/zkmike/.local/share/renesas/e2_studio/toolchains/gcc_arm/gcc-arm-none-eabi-6-2017-q2-update/arm-none-eabi/include/c++/6.3.1/iostream **** #pragma GCC system_header
  37:/home/zkmike/.local/share/renesas/e2_studio/toolchains/gcc_arm/gcc-arm-none-eabi-6-2017-q2-update/arm-none-eabi/include/c++/6.3.1/iostream **** 
  38:/home/zkmike/.local/share/renesas/e2_studio/toolchains/gcc_arm/gcc-arm-none-eabi-6-2017-q2-update/arm-none-eabi/include/c++/6.3.1/iostream **** #include <bits/c++config.h>
  39:/home/zkmike/.local/share/renesas/e2_studio/toolchains/gcc_arm/gcc-arm-none-eabi-6-2017-q2-update/arm-none-eabi/include/c++/6.3.1/iostream **** #include <ostream>
  40:/home/zkmike/.local/share/renesas/e2_studio/toolchains/gcc_arm/gcc-arm-none-eabi-6-2017-q2-update/arm-none-eabi/include/c++/6.3.1/iostream **** #include <istream>
  41:/home/zkmike/.local/share/renesas/e2_studio/toolchains/gcc_arm/gcc-arm-none-eabi-6-2017-q2-update/arm-none-eabi/include/c++/6.3.1/iostream **** 
  42:/home/zkmike/.local/share/renesas/e2_studio/toolchains/gcc_arm/gcc-arm-none-eabi-6-2017-q2-update/arm-none-eabi/include/c++/6.3.1/iostream **** namespace std _GLIBCXX_VISIBILITY(default)
  43:/home/zkmike/.local/share/renesas/e2_studio/toolchains/gcc_arm/gcc-arm-none-eabi-6-2017-q2-update/arm-none-eabi/include/c++/6.3.1/iostream **** {
  44:/home/zkmike/.local/share/renesas/e2_studio/toolchains/gcc_arm/gcc-arm-none-eabi-6-2017-q2-update/arm-none-eabi/include/c++/6.3.1/iostream **** _GLIBCXX_BEGIN_NAMESPACE_VERSION
  45:/home/zkmike/.local/share/renesas/e2_studio/toolchains/gcc_arm/gcc-arm-none-eabi-6-2017-q2-update/arm-none-eabi/include/c++/6.3.1/iostream **** 
  46:/home/zkmike/.local/share/renesas/e2_studio/toolchains/gcc_arm/gcc-arm-none-eabi-6-2017-q2-update/arm-none-eabi/include/c++/6.3.1/iostream ****   /**
  47:/home/zkmike/.local/share/renesas/e2_studio/toolchains/gcc_arm/gcc-arm-none-eabi-6-2017-q2-update/arm-none-eabi/include/c++/6.3.1/iostream ****    *  @name Standard Stream Objects
  48:/home/zkmike/.local/share/renesas/e2_studio/toolchains/gcc_arm/gcc-arm-none-eabi-6-2017-q2-update/arm-none-eabi/include/c++/6.3.1/iostream ****    *
  49:/home/zkmike/.local/share/renesas/e2_studio/toolchains/gcc_arm/gcc-arm-none-eabi-6-2017-q2-update/arm-none-eabi/include/c++/6.3.1/iostream ****    *  The &lt;iostream&gt; header declares the eight <em>standard stream
  50:/home/zkmike/.local/share/renesas/e2_studio/toolchains/gcc_arm/gcc-arm-none-eabi-6-2017-q2-update/arm-none-eabi/include/c++/6.3.1/iostream ****    *  objects</em>.  For other declarations, see
  51:/home/zkmike/.local/share/renesas/e2_studio/toolchains/gcc_arm/gcc-arm-none-eabi-6-2017-q2-update/arm-none-eabi/include/c++/6.3.1/iostream ****    *  http://gcc.gnu.org/onlinedocs/libstdc++/manual/io.html
  52:/home/zkmike/.local/share/renesas/e2_studio/toolchains/gcc_arm/gcc-arm-none-eabi-6-2017-q2-update/arm-none-eabi/include/c++/6.3.1/iostream ****    *  and the @link iosfwd I/O forward declarations @endlink
  53:/home/zkmike/.local/share/renesas/e2_studio/toolchains/gcc_arm/gcc-arm-none-eabi-6-2017-q2-update/arm-none-eabi/include/c++/6.3.1/iostream ****    *
  54:/home/zkmike/.local/share/renesas/e2_studio/toolchains/gcc_arm/gcc-arm-none-eabi-6-2017-q2-update/arm-none-eabi/include/c++/6.3.1/iostream ****    *  They are required by default to cooperate with the global C
  55:/home/zkmike/.local/share/renesas/e2_studio/toolchains/gcc_arm/gcc-arm-none-eabi-6-2017-q2-update/arm-none-eabi/include/c++/6.3.1/iostream ****    *  library's @c FILE streams, and to be available during program
  56:/home/zkmike/.local/share/renesas/e2_studio/toolchains/gcc_arm/gcc-arm-none-eabi-6-2017-q2-update/arm-none-eabi/include/c++/6.3.1/iostream ****    *  startup and termination. For more information, see the section of the
  57:/home/zkmike/.local/share/renesas/e2_studio/toolchains/gcc_arm/gcc-arm-none-eabi-6-2017-q2-update/arm-none-eabi/include/c++/6.3.1/iostream ****    *  manual linked to above.
  58:/home/zkmike/.local/share/renesas/e2_studio/toolchains/gcc_arm/gcc-arm-none-eabi-6-2017-q2-update/arm-none-eabi/include/c++/6.3.1/iostream ****   */
  59:/home/zkmike/.local/share/renesas/e2_studio/toolchains/gcc_arm/gcc-arm-none-eabi-6-2017-q2-update/arm-none-eabi/include/c++/6.3.1/iostream ****   //@{
  60:/home/zkmike/.local/share/renesas/e2_studio/toolchains/gcc_arm/gcc-arm-none-eabi-6-2017-q2-update/arm-none-eabi/include/c++/6.3.1/iostream ****   extern istream cin;		/// Linked to standard input
  61:/home/zkmike/.local/share/renesas/e2_studio/toolchains/gcc_arm/gcc-arm-none-eabi-6-2017-q2-update/arm-none-eabi/include/c++/6.3.1/iostream ****   extern ostream cout;		/// Linked to standard output
  62:/home/zkmike/.local/share/renesas/e2_studio/toolchains/gcc_arm/gcc-arm-none-eabi-6-2017-q2-update/arm-none-eabi/include/c++/6.3.1/iostream ****   extern ostream cerr;		/// Linked to standard error (unbuffered)
  63:/home/zkmike/.local/share/renesas/e2_studio/toolchains/gcc_arm/gcc-arm-none-eabi-6-2017-q2-update/arm-none-eabi/include/c++/6.3.1/iostream ****   extern ostream clog;		/// Linked to standard error (buffered)
  64:/home/zkmike/.local/share/renesas/e2_studio/toolchains/gcc_arm/gcc-arm-none-eabi-6-2017-q2-update/arm-none-eabi/include/c++/6.3.1/iostream **** 
  65:/home/zkmike/.local/share/renesas/e2_studio/toolchains/gcc_arm/gcc-arm-none-eabi-6-2017-q2-update/arm-none-eabi/include/c++/6.3.1/iostream **** #ifdef _GLIBCXX_USE_WCHAR_T
  66:/home/zkmike/.local/share/renesas/e2_studio/toolchains/gcc_arm/gcc-arm-none-eabi-6-2017-q2-update/arm-none-eabi/include/c++/6.3.1/iostream ****   extern wistream wcin;		/// Linked to standard input
  67:/home/zkmike/.local/share/renesas/e2_studio/toolchains/gcc_arm/gcc-arm-none-eabi-6-2017-q2-update/arm-none-eabi/include/c++/6.3.1/iostream ****   extern wostream wcout;	/// Linked to standard output
  68:/home/zkmike/.local/share/renesas/e2_studio/toolchains/gcc_arm/gcc-arm-none-eabi-6-2017-q2-update/arm-none-eabi/include/c++/6.3.1/iostream ****   extern wostream wcerr;	/// Linked to standard error (unbuffered)
  69:/home/zkmike/.local/share/renesas/e2_studio/toolchains/gcc_arm/gcc-arm-none-eabi-6-2017-q2-update/arm-none-eabi/include/c++/6.3.1/iostream ****   extern wostream wclog;	/// Linked to standard error (buffered)
  70:/home/zkmike/.local/share/renesas/e2_studio/toolchains/gcc_arm/gcc-arm-none-eabi-6-2017-q2-update/arm-none-eabi/include/c++/6.3.1/iostream **** #endif
  71:/home/zkmike/.local/share/renesas/e2_studio/toolchains/gcc_arm/gcc-arm-none-eabi-6-2017-q2-update/arm-none-eabi/include/c++/6.3.1/iostream ****   //@}
  72:/home/zkmike/.local/share/renesas/e2_studio/toolchains/gcc_arm/gcc-arm-none-eabi-6-2017-q2-update/arm-none-eabi/include/c++/6.3.1/iostream **** 
  73:/home/zkmike/.local/share/renesas/e2_studio/toolchains/gcc_arm/gcc-arm-none-eabi-6-2017-q2-update/arm-none-eabi/include/c++/6.3.1/iostream ****   // For construction of filebuffers for cout, cin, cerr, clog et. al.
  74:/home/zkmike/.local/share/renesas/e2_studio/toolchains/gcc_arm/gcc-arm-none-eabi-6-2017-q2-update/arm-none-eabi/include/c++/6.3.1/iostream ****   static ios_base::Init __ioinit;
 117              		.loc 2 74 0 is_stmt 1
 118 0018 004000E3 		movw	r4, #:lower16:.LANCHOR1
 119 001c 004040E3 		movt	r4, #:upper16:.LANCHOR1
 120 0020 0400A0E1 		mov	r0, r4
 121              	.LVL6:
 122 0024 FEFFFFEB 		bl	_ZNSt8ios_base4InitC1Ev
 123              	.LVL7:
 124 0028 002000E3 		movw	r2, #:lower16:__dso_handle
 125 002c 002040E3 		movt	r2, #:upper16:__dso_handle
 126 0030 001000E3 		movw	r1, #:lower16:_ZNSt8ios_base4InitD1Ev
 127 0034 001040E3 		movt	r1, #:upper16:_ZNSt8ios_base4InitD1Ev
 128 0038 0400A0E1 		mov	r0, r4
 129 003c FEFFFFEB 		bl	__aeabi_atexit
 130              	.LVL8:
 131 0040 1080BDE8 		pop	{r4, pc}
 132              		.cfi_endproc
 133              	.LFE2742:
 134              		.cantunwind
 135              		.fnend
 137              		.section	.text._ZN5zxing5multi16ByQuadrantReader6decodeENS_3RefINS_12BinaryBitmapEEE,"ax",%progbit
 138              		.align	2
 139              		.global	_ZN5zxing5multi16ByQuadrantReader6decodeENS_3RefINS_12BinaryBitmapEEE
 140              		.syntax unified
 141              		.arm
 142              		.fpu neon
 144              	_ZN5zxing5multi16ByQuadrantReader6decodeENS_3RefINS_12BinaryBitmapEEE:
 145              		.fnstart
 146              	.LFB2270:
  27:../src/zxing_lib/zxing/multi/ByQuadrantReader.cpp ****   return decode(image, DecodeHints::DEFAULT_HINT);
 147              		.loc 1 27 0
 148              		.cfi_startproc
 149              		.cfi_personality 0,__gxx_personality_v0
 150              		.cfi_lsda 0,.LLSDA2270
 151              		@ args = 0, pretend = 0, frame = 16
 152              		@ frame_needed = 0, uses_anonymous_args = 0
 153              	.LVL9:
 154 0000 F0402DE9 		push	{r4, r5, r6, r7, lr}
 155              		.save {r4, r5, r6, r7, lr}
 156              		.cfi_def_cfa_offset 20
 157              		.cfi_offset 4, -20
 158              		.cfi_offset 5, -16
 159              		.cfi_offset 6, -12
 160              		.cfi_offset 7, -8
 161              		.cfi_offset 14, -4
 162              		.pad #20
 163 0004 14D04DE2 		sub	sp, sp, #20
 164              		.cfi_def_cfa_offset 40
 165 0008 0050A0E1 		mov	r5, r0
 166 000c 0160A0E1 		mov	r6, r1
  28:../src/zxing_lib/zxing/multi/ByQuadrantReader.cpp **** }
 167              		.loc 1 28 0
 168 0010 003091E5 		ldr	r3, [r1]
 169 0014 0C7093E5 		ldr	r7, [r3, #12]
 170              	.LVL10:
 171              	.LBB346:
 172              	.LBB347:
 173              	.LBB348:
 174              		.file 3 "/home/zkmike/workspace/RZA2M/rza2m_2d_barcode_sample_freertos_gcc/src/zxing_lib/zxing/com
   1:/home/zkmike/workspace/RZA2M/rza2m_2d_barcode_sample_freertos_gcc/src/zxing_lib/zxing/common/Counted.h **** // -*- mode:c++; tab-width:2; indent-tabs-mode:nil; c-basic-offset:2 -*-
   2:/home/zkmike/workspace/RZA2M/rza2m_2d_barcode_sample_freertos_gcc/src/zxing_lib/zxing/common/Counted.h **** #ifndef __COUNTED_H__
   3:/home/zkmike/workspace/RZA2M/rza2m_2d_barcode_sample_freertos_gcc/src/zxing_lib/zxing/common/Counted.h **** #define __COUNTED_H__
   4:/home/zkmike/workspace/RZA2M/rza2m_2d_barcode_sample_freertos_gcc/src/zxing_lib/zxing/common/Counted.h **** 
   5:/home/zkmike/workspace/RZA2M/rza2m_2d_barcode_sample_freertos_gcc/src/zxing_lib/zxing/common/Counted.h **** /*
   6:/home/zkmike/workspace/RZA2M/rza2m_2d_barcode_sample_freertos_gcc/src/zxing_lib/zxing/common/Counted.h ****  *  Copyright 2010 ZXing authors All rights reserved.
   7:/home/zkmike/workspace/RZA2M/rza2m_2d_barcode_sample_freertos_gcc/src/zxing_lib/zxing/common/Counted.h ****  *
   8:/home/zkmike/workspace/RZA2M/rza2m_2d_barcode_sample_freertos_gcc/src/zxing_lib/zxing/common/Counted.h ****  * Licensed under the Apache License, Version 2.0 (the "License");
   9:/home/zkmike/workspace/RZA2M/rza2m_2d_barcode_sample_freertos_gcc/src/zxing_lib/zxing/common/Counted.h ****  * you may not use this file except in compliance with the License.
  10:/home/zkmike/workspace/RZA2M/rza2m_2d_barcode_sample_freertos_gcc/src/zxing_lib/zxing/common/Counted.h ****  * You may obtain a copy of the License at
  11:/home/zkmike/workspace/RZA2M/rza2m_2d_barcode_sample_freertos_gcc/src/zxing_lib/zxing/common/Counted.h ****  *
  12:/home/zkmike/workspace/RZA2M/rza2m_2d_barcode_sample_freertos_gcc/src/zxing_lib/zxing/common/Counted.h ****  *      http://www.apache.org/licenses/LICENSE-2.0
  13:/home/zkmike/workspace/RZA2M/rza2m_2d_barcode_sample_freertos_gcc/src/zxing_lib/zxing/common/Counted.h ****  *
  14:/home/zkmike/workspace/RZA2M/rza2m_2d_barcode_sample_freertos_gcc/src/zxing_lib/zxing/common/Counted.h ****  * Unless required by applicable law or agreed to in writing, software
  15:/home/zkmike/workspace/RZA2M/rza2m_2d_barcode_sample_freertos_gcc/src/zxing_lib/zxing/common/Counted.h ****  * distributed under the License is distributed on an "AS IS" BASIS,
  16:/home/zkmike/workspace/RZA2M/rza2m_2d_barcode_sample_freertos_gcc/src/zxing_lib/zxing/common/Counted.h ****  * WITHOUT WARRANTIES OR CONDITIONS OF ANY KIND, either express or implied.
  17:/home/zkmike/workspace/RZA2M/rza2m_2d_barcode_sample_freertos_gcc/src/zxing_lib/zxing/common/Counted.h ****  * See the License for the specific language governing permissions and
  18:/home/zkmike/workspace/RZA2M/rza2m_2d_barcode_sample_freertos_gcc/src/zxing_lib/zxing/common/Counted.h ****  * limitations under the License.
  19:/home/zkmike/workspace/RZA2M/rza2m_2d_barcode_sample_freertos_gcc/src/zxing_lib/zxing/common/Counted.h ****  */
  20:/home/zkmike/workspace/RZA2M/rza2m_2d_barcode_sample_freertos_gcc/src/zxing_lib/zxing/common/Counted.h **** 
  21:/home/zkmike/workspace/RZA2M/rza2m_2d_barcode_sample_freertos_gcc/src/zxing_lib/zxing/common/Counted.h **** #include <iostream>
  22:/home/zkmike/workspace/RZA2M/rza2m_2d_barcode_sample_freertos_gcc/src/zxing_lib/zxing/common/Counted.h **** 
  23:/home/zkmike/workspace/RZA2M/rza2m_2d_barcode_sample_freertos_gcc/src/zxing_lib/zxing/common/Counted.h **** namespace zxing {
  24:/home/zkmike/workspace/RZA2M/rza2m_2d_barcode_sample_freertos_gcc/src/zxing_lib/zxing/common/Counted.h **** 
  25:/home/zkmike/workspace/RZA2M/rza2m_2d_barcode_sample_freertos_gcc/src/zxing_lib/zxing/common/Counted.h **** /* base class for reference-counted objects */
  26:/home/zkmike/workspace/RZA2M/rza2m_2d_barcode_sample_freertos_gcc/src/zxing_lib/zxing/common/Counted.h **** class Counted {
  27:/home/zkmike/workspace/RZA2M/rza2m_2d_barcode_sample_freertos_gcc/src/zxing_lib/zxing/common/Counted.h **** private:
  28:/home/zkmike/workspace/RZA2M/rza2m_2d_barcode_sample_freertos_gcc/src/zxing_lib/zxing/common/Counted.h ****   unsigned int count_;
  29:/home/zkmike/workspace/RZA2M/rza2m_2d_barcode_sample_freertos_gcc/src/zxing_lib/zxing/common/Counted.h **** public:
  30:/home/zkmike/workspace/RZA2M/rza2m_2d_barcode_sample_freertos_gcc/src/zxing_lib/zxing/common/Counted.h ****   Counted() :
  31:/home/zkmike/workspace/RZA2M/rza2m_2d_barcode_sample_freertos_gcc/src/zxing_lib/zxing/common/Counted.h ****       count_(0) {
  32:/home/zkmike/workspace/RZA2M/rza2m_2d_barcode_sample_freertos_gcc/src/zxing_lib/zxing/common/Counted.h ****   }
  33:/home/zkmike/workspace/RZA2M/rza2m_2d_barcode_sample_freertos_gcc/src/zxing_lib/zxing/common/Counted.h ****   virtual ~Counted() {
  34:/home/zkmike/workspace/RZA2M/rza2m_2d_barcode_sample_freertos_gcc/src/zxing_lib/zxing/common/Counted.h ****   }
  35:/home/zkmike/workspace/RZA2M/rza2m_2d_barcode_sample_freertos_gcc/src/zxing_lib/zxing/common/Counted.h ****   Counted *retain() {
  36:/home/zkmike/workspace/RZA2M/rza2m_2d_barcode_sample_freertos_gcc/src/zxing_lib/zxing/common/Counted.h ****     count_++;
  37:/home/zkmike/workspace/RZA2M/rza2m_2d_barcode_sample_freertos_gcc/src/zxing_lib/zxing/common/Counted.h ****     return this;
  38:/home/zkmike/workspace/RZA2M/rza2m_2d_barcode_sample_freertos_gcc/src/zxing_lib/zxing/common/Counted.h ****   }
  39:/home/zkmike/workspace/RZA2M/rza2m_2d_barcode_sample_freertos_gcc/src/zxing_lib/zxing/common/Counted.h ****   void release() {
  40:/home/zkmike/workspace/RZA2M/rza2m_2d_barcode_sample_freertos_gcc/src/zxing_lib/zxing/common/Counted.h ****     count_--;
  41:/home/zkmike/workspace/RZA2M/rza2m_2d_barcode_sample_freertos_gcc/src/zxing_lib/zxing/common/Counted.h ****     if (count_ == 0) {
  42:/home/zkmike/workspace/RZA2M/rza2m_2d_barcode_sample_freertos_gcc/src/zxing_lib/zxing/common/Counted.h ****       count_ = 0xDEADF001;
  43:/home/zkmike/workspace/RZA2M/rza2m_2d_barcode_sample_freertos_gcc/src/zxing_lib/zxing/common/Counted.h ****       delete this;
  44:/home/zkmike/workspace/RZA2M/rza2m_2d_barcode_sample_freertos_gcc/src/zxing_lib/zxing/common/Counted.h ****     }
  45:/home/zkmike/workspace/RZA2M/rza2m_2d_barcode_sample_freertos_gcc/src/zxing_lib/zxing/common/Counted.h ****   }
  46:/home/zkmike/workspace/RZA2M/rza2m_2d_barcode_sample_freertos_gcc/src/zxing_lib/zxing/common/Counted.h **** 
  47:/home/zkmike/workspace/RZA2M/rza2m_2d_barcode_sample_freertos_gcc/src/zxing_lib/zxing/common/Counted.h **** 
  48:/home/zkmike/workspace/RZA2M/rza2m_2d_barcode_sample_freertos_gcc/src/zxing_lib/zxing/common/Counted.h ****   /* return the current count for denugging purposes or similar */
  49:/home/zkmike/workspace/RZA2M/rza2m_2d_barcode_sample_freertos_gcc/src/zxing_lib/zxing/common/Counted.h ****   int count() const {
  50:/home/zkmike/workspace/RZA2M/rza2m_2d_barcode_sample_freertos_gcc/src/zxing_lib/zxing/common/Counted.h ****     return count_;
  51:/home/zkmike/workspace/RZA2M/rza2m_2d_barcode_sample_freertos_gcc/src/zxing_lib/zxing/common/Counted.h ****   }
  52:/home/zkmike/workspace/RZA2M/rza2m_2d_barcode_sample_freertos_gcc/src/zxing_lib/zxing/common/Counted.h **** };
  53:/home/zkmike/workspace/RZA2M/rza2m_2d_barcode_sample_freertos_gcc/src/zxing_lib/zxing/common/Counted.h **** 
  54:/home/zkmike/workspace/RZA2M/rza2m_2d_barcode_sample_freertos_gcc/src/zxing_lib/zxing/common/Counted.h **** /* counting reference to reference-counted objects */
  55:/home/zkmike/workspace/RZA2M/rza2m_2d_barcode_sample_freertos_gcc/src/zxing_lib/zxing/common/Counted.h **** template<typename T> class Ref {
  56:/home/zkmike/workspace/RZA2M/rza2m_2d_barcode_sample_freertos_gcc/src/zxing_lib/zxing/common/Counted.h **** private:
  57:/home/zkmike/workspace/RZA2M/rza2m_2d_barcode_sample_freertos_gcc/src/zxing_lib/zxing/common/Counted.h **** public:
  58:/home/zkmike/workspace/RZA2M/rza2m_2d_barcode_sample_freertos_gcc/src/zxing_lib/zxing/common/Counted.h ****   T *object_;
  59:/home/zkmike/workspace/RZA2M/rza2m_2d_barcode_sample_freertos_gcc/src/zxing_lib/zxing/common/Counted.h ****   explicit Ref(T *o = 0) :
  60:/home/zkmike/workspace/RZA2M/rza2m_2d_barcode_sample_freertos_gcc/src/zxing_lib/zxing/common/Counted.h ****       object_(0) {
  61:/home/zkmike/workspace/RZA2M/rza2m_2d_barcode_sample_freertos_gcc/src/zxing_lib/zxing/common/Counted.h ****     reset(o);
  62:/home/zkmike/workspace/RZA2M/rza2m_2d_barcode_sample_freertos_gcc/src/zxing_lib/zxing/common/Counted.h ****   }
  63:/home/zkmike/workspace/RZA2M/rza2m_2d_barcode_sample_freertos_gcc/src/zxing_lib/zxing/common/Counted.h ****   Ref(const Ref &other) :
  64:/home/zkmike/workspace/RZA2M/rza2m_2d_barcode_sample_freertos_gcc/src/zxing_lib/zxing/common/Counted.h ****       object_(0) {
 175              		.loc 3 64 0
 176 0018 0030A0E3 		mov	r3, #0
 177 001c 04308DE5 		str	r3, [sp, #4]
  65:/home/zkmike/workspace/RZA2M/rza2m_2d_barcode_sample_freertos_gcc/src/zxing_lib/zxing/common/Counted.h ****     reset(other.object_);
 178              		.loc 3 65 0
 179 0020 004092E5 		ldr	r4, [r2]
 180              	.LVL11:
 181              	.LBB349:
 182              	.LBB350:
  66:/home/zkmike/workspace/RZA2M/rza2m_2d_barcode_sample_freertos_gcc/src/zxing_lib/zxing/common/Counted.h ****   }
  67:/home/zkmike/workspace/RZA2M/rza2m_2d_barcode_sample_freertos_gcc/src/zxing_lib/zxing/common/Counted.h **** 
  68:/home/zkmike/workspace/RZA2M/rza2m_2d_barcode_sample_freertos_gcc/src/zxing_lib/zxing/common/Counted.h ****   template<class Y>
  69:/home/zkmike/workspace/RZA2M/rza2m_2d_barcode_sample_freertos_gcc/src/zxing_lib/zxing/common/Counted.h ****   Ref(const Ref<Y> &other) :
  70:/home/zkmike/workspace/RZA2M/rza2m_2d_barcode_sample_freertos_gcc/src/zxing_lib/zxing/common/Counted.h ****       object_(0) {
  71:/home/zkmike/workspace/RZA2M/rza2m_2d_barcode_sample_freertos_gcc/src/zxing_lib/zxing/common/Counted.h ****     reset(other.object_);
  72:/home/zkmike/workspace/RZA2M/rza2m_2d_barcode_sample_freertos_gcc/src/zxing_lib/zxing/common/Counted.h ****   }
  73:/home/zkmike/workspace/RZA2M/rza2m_2d_barcode_sample_freertos_gcc/src/zxing_lib/zxing/common/Counted.h **** 
  74:/home/zkmike/workspace/RZA2M/rza2m_2d_barcode_sample_freertos_gcc/src/zxing_lib/zxing/common/Counted.h ****   ~Ref() {
  75:/home/zkmike/workspace/RZA2M/rza2m_2d_barcode_sample_freertos_gcc/src/zxing_lib/zxing/common/Counted.h ****     if (object_) {
  76:/home/zkmike/workspace/RZA2M/rza2m_2d_barcode_sample_freertos_gcc/src/zxing_lib/zxing/common/Counted.h ****       object_->release();
  77:/home/zkmike/workspace/RZA2M/rza2m_2d_barcode_sample_freertos_gcc/src/zxing_lib/zxing/common/Counted.h ****     }
  78:/home/zkmike/workspace/RZA2M/rza2m_2d_barcode_sample_freertos_gcc/src/zxing_lib/zxing/common/Counted.h ****   }
  79:/home/zkmike/workspace/RZA2M/rza2m_2d_barcode_sample_freertos_gcc/src/zxing_lib/zxing/common/Counted.h **** 
  80:/home/zkmike/workspace/RZA2M/rza2m_2d_barcode_sample_freertos_gcc/src/zxing_lib/zxing/common/Counted.h ****   void reset(T *o) {
  81:/home/zkmike/workspace/RZA2M/rza2m_2d_barcode_sample_freertos_gcc/src/zxing_lib/zxing/common/Counted.h ****     if (o) {
 183              		.loc 3 81 0
 184 0024 030054E1 		cmp	r4, r3
 185              	.LVL12:
 186              	.LBB351:
 187              	.LBB352:
  36:/home/zkmike/workspace/RZA2M/rza2m_2d_barcode_sample_freertos_gcc/src/zxing_lib/zxing/common/Counted.h ****     return this;
 188              		.loc 3 36 0
 189 0028 04309415 		ldrne	r3, [r4, #4]
 190 002c 01308312 		addne	r3, r3, #1
 191 0030 04308415 		strne	r3, [r4, #4]
 192              	.LVL13:
 193              	.L14:
 194              	.LBE352:
 195              	.LBE351:
  82:/home/zkmike/workspace/RZA2M/rza2m_2d_barcode_sample_freertos_gcc/src/zxing_lib/zxing/common/Counted.h ****       o->retain();
  83:/home/zkmike/workspace/RZA2M/rza2m_2d_barcode_sample_freertos_gcc/src/zxing_lib/zxing/common/Counted.h ****     }
  84:/home/zkmike/workspace/RZA2M/rza2m_2d_barcode_sample_freertos_gcc/src/zxing_lib/zxing/common/Counted.h ****     if (object_ != 0) {
 196              		.loc 3 84 0
 197 0034 04009DE5 		ldr	r0, [sp, #4]
 198              	.LVL14:
 199 0038 000050E3 		cmp	r0, #0
 200 003c 0400000A 		beq	.L15
 201              	.LVL15:
 202              	.LBB353:
 203              	.LBB354:
  40:/home/zkmike/workspace/RZA2M/rza2m_2d_barcode_sample_freertos_gcc/src/zxing_lib/zxing/common/Counted.h ****     if (count_ == 0) {
 204              		.loc 3 40 0
 205 0040 043090E5 		ldr	r3, [r0, #4]
 206 0044 013043E2 		sub	r3, r3, #1
 207 0048 043080E5 		str	r3, [r0, #4]
  41:/home/zkmike/workspace/RZA2M/rza2m_2d_barcode_sample_freertos_gcc/src/zxing_lib/zxing/common/Counted.h ****       count_ = 0xDEADF001;
 208              		.loc 3 41 0
 209 004c 000053E3 		cmp	r3, #0
 210 0050 1A00000A 		beq	.L25
 211              	.LVL16:
 212              	.L15:
 213              	.LBE354:
 214              	.LBE353:
  85:/home/zkmike/workspace/RZA2M/rza2m_2d_barcode_sample_freertos_gcc/src/zxing_lib/zxing/common/Counted.h ****       object_->release();
  86:/home/zkmike/workspace/RZA2M/rza2m_2d_barcode_sample_freertos_gcc/src/zxing_lib/zxing/common/Counted.h ****     }
  87:/home/zkmike/workspace/RZA2M/rza2m_2d_barcode_sample_freertos_gcc/src/zxing_lib/zxing/common/Counted.h ****     object_ = o;
 215              		.loc 3 87 0
 216 0054 04408DE5 		str	r4, [sp, #4]
 217              	.LVL17:
 218              	.LBE350:
 219              	.LBE349:
 220              	.LBE348:
 221              	.LBE347:
 222              	.LBE346:
 223              	.LBB361:
 224              	.LBB362:
 225              	.LBB363:
 226              		.file 4 "/home/zkmike/workspace/RZA2M/rza2m_2d_barcode_sample_freertos_gcc/src/zxing_lib/zxing/Dec
   1:/home/zkmike/workspace/RZA2M/rza2m_2d_barcode_sample_freertos_gcc/src/zxing_lib/zxing/DecodeHints.h **** // -*- mode:c++; tab-width:2; indent-tabs-mode:nil; c-basic-offset:2 -*-
   2:/home/zkmike/workspace/RZA2M/rza2m_2d_barcode_sample_freertos_gcc/src/zxing_lib/zxing/DecodeHints.h **** #ifndef __DECODEHINTS_H_
   3:/home/zkmike/workspace/RZA2M/rza2m_2d_barcode_sample_freertos_gcc/src/zxing_lib/zxing/DecodeHints.h **** #define __DECODEHINTS_H_
   4:/home/zkmike/workspace/RZA2M/rza2m_2d_barcode_sample_freertos_gcc/src/zxing_lib/zxing/DecodeHints.h **** /*
   5:/home/zkmike/workspace/RZA2M/rza2m_2d_barcode_sample_freertos_gcc/src/zxing_lib/zxing/DecodeHints.h ****  *  DecodeHintType.h
   6:/home/zkmike/workspace/RZA2M/rza2m_2d_barcode_sample_freertos_gcc/src/zxing_lib/zxing/DecodeHints.h ****  *  zxing
   7:/home/zkmike/workspace/RZA2M/rza2m_2d_barcode_sample_freertos_gcc/src/zxing_lib/zxing/DecodeHints.h ****  *
   8:/home/zkmike/workspace/RZA2M/rza2m_2d_barcode_sample_freertos_gcc/src/zxing_lib/zxing/DecodeHints.h ****  *  Copyright 2010 ZXing authors All rights reserved.
   9:/home/zkmike/workspace/RZA2M/rza2m_2d_barcode_sample_freertos_gcc/src/zxing_lib/zxing/DecodeHints.h ****  *
  10:/home/zkmike/workspace/RZA2M/rza2m_2d_barcode_sample_freertos_gcc/src/zxing_lib/zxing/DecodeHints.h ****  * Licensed under the Apache License, Version 2.0 (the "License");
  11:/home/zkmike/workspace/RZA2M/rza2m_2d_barcode_sample_freertos_gcc/src/zxing_lib/zxing/DecodeHints.h ****  * you may not use this file except in compliance with the License.
  12:/home/zkmike/workspace/RZA2M/rza2m_2d_barcode_sample_freertos_gcc/src/zxing_lib/zxing/DecodeHints.h ****  * You may obtain a copy of the License at
  13:/home/zkmike/workspace/RZA2M/rza2m_2d_barcode_sample_freertos_gcc/src/zxing_lib/zxing/DecodeHints.h ****  *
  14:/home/zkmike/workspace/RZA2M/rza2m_2d_barcode_sample_freertos_gcc/src/zxing_lib/zxing/DecodeHints.h ****  *      http://www.apache.org/licenses/LICENSE-2.0
  15:/home/zkmike/workspace/RZA2M/rza2m_2d_barcode_sample_freertos_gcc/src/zxing_lib/zxing/DecodeHints.h ****  *
  16:/home/zkmike/workspace/RZA2M/rza2m_2d_barcode_sample_freertos_gcc/src/zxing_lib/zxing/DecodeHints.h ****  * Unless required by applicable law or agreed to in writing, software
  17:/home/zkmike/workspace/RZA2M/rza2m_2d_barcode_sample_freertos_gcc/src/zxing_lib/zxing/DecodeHints.h ****  * distributed under the License is distributed on an "AS IS" BASIS,
  18:/home/zkmike/workspace/RZA2M/rza2m_2d_barcode_sample_freertos_gcc/src/zxing_lib/zxing/DecodeHints.h ****  * WITHOUT WARRANTIES OR CONDITIONS OF ANY KIND, either express or implied.
  19:/home/zkmike/workspace/RZA2M/rza2m_2d_barcode_sample_freertos_gcc/src/zxing_lib/zxing/DecodeHints.h ****  * See the License for the specific language governing permissions and
  20:/home/zkmike/workspace/RZA2M/rza2m_2d_barcode_sample_freertos_gcc/src/zxing_lib/zxing/DecodeHints.h ****  * limitations under the License.
  21:/home/zkmike/workspace/RZA2M/rza2m_2d_barcode_sample_freertos_gcc/src/zxing_lib/zxing/DecodeHints.h ****  */
  22:/home/zkmike/workspace/RZA2M/rza2m_2d_barcode_sample_freertos_gcc/src/zxing_lib/zxing/DecodeHints.h **** 
  23:/home/zkmike/workspace/RZA2M/rza2m_2d_barcode_sample_freertos_gcc/src/zxing_lib/zxing/DecodeHints.h **** #include <zxing/BarcodeFormat.h>
  24:/home/zkmike/workspace/RZA2M/rza2m_2d_barcode_sample_freertos_gcc/src/zxing_lib/zxing/DecodeHints.h **** #include <zxing/ResultPointCallback.h>
  25:/home/zkmike/workspace/RZA2M/rza2m_2d_barcode_sample_freertos_gcc/src/zxing_lib/zxing/DecodeHints.h **** 
  26:/home/zkmike/workspace/RZA2M/rza2m_2d_barcode_sample_freertos_gcc/src/zxing_lib/zxing/DecodeHints.h **** namespace zxing {
  27:/home/zkmike/workspace/RZA2M/rza2m_2d_barcode_sample_freertos_gcc/src/zxing_lib/zxing/DecodeHints.h **** 
  28:/home/zkmike/workspace/RZA2M/rza2m_2d_barcode_sample_freertos_gcc/src/zxing_lib/zxing/DecodeHints.h **** typedef unsigned int DecodeHintType;
  29:/home/zkmike/workspace/RZA2M/rza2m_2d_barcode_sample_freertos_gcc/src/zxing_lib/zxing/DecodeHints.h **** class DecodeHints;
  30:/home/zkmike/workspace/RZA2M/rza2m_2d_barcode_sample_freertos_gcc/src/zxing_lib/zxing/DecodeHints.h **** DecodeHints operator | (DecodeHints const&, DecodeHints const&);
  31:/home/zkmike/workspace/RZA2M/rza2m_2d_barcode_sample_freertos_gcc/src/zxing_lib/zxing/DecodeHints.h **** 
  32:/home/zkmike/workspace/RZA2M/rza2m_2d_barcode_sample_freertos_gcc/src/zxing_lib/zxing/DecodeHints.h **** class DecodeHints {
 227              		.loc 4 32 0
 228 0058 003000E3 		movw	r3, #:lower16:_ZN5zxing11DecodeHints12DEFAULT_HINTE
 229 005c 003040E3 		movt	r3, #:upper16:_ZN5zxing11DecodeHints12DEFAULT_HINTE
 230 0060 002093E5 		ldr	r2, [r3]
 231 0064 08208DE5 		str	r2, [sp, #8]
 232              	.LVL18:
 233              	.LBB364:
 234              	.LBB365:
 235              	.LBB366:
  64:/home/zkmike/workspace/RZA2M/rza2m_2d_barcode_sample_freertos_gcc/src/zxing_lib/zxing/common/Counted.h ****     reset(other.object_);
 236              		.loc 3 64 0
 237 0068 0020A0E3 		mov	r2, #0
 238 006c 0C208DE5 		str	r2, [sp, #12]
  65:/home/zkmike/workspace/RZA2M/rza2m_2d_barcode_sample_freertos_gcc/src/zxing_lib/zxing/common/Counted.h ****   }
 239              		.loc 3 65 0
 240 0070 044093E5 		ldr	r4, [r3, #4]
 241              	.LVL19:
 242              	.LBB367:
 243              	.LBB368:
  81:/home/zkmike/workspace/RZA2M/rza2m_2d_barcode_sample_freertos_gcc/src/zxing_lib/zxing/common/Counted.h ****       o->retain();
 244              		.loc 3 81 0
 245 0074 020054E1 		cmp	r4, r2
 246              	.LVL20:
 247              	.LBB369:
 248              	.LBB370:
  36:/home/zkmike/workspace/RZA2M/rza2m_2d_barcode_sample_freertos_gcc/src/zxing_lib/zxing/common/Counted.h ****     return this;
 249              		.loc 3 36 0
 250 0078 04309415 		ldrne	r3, [r4, #4]
 251 007c 01308312 		addne	r3, r3, #1
 252 0080 04308415 		strne	r3, [r4, #4]
 253              	.LVL21:
 254              	.L16:
 255              	.LBE370:
 256              	.LBE369:
  84:/home/zkmike/workspace/RZA2M/rza2m_2d_barcode_sample_freertos_gcc/src/zxing_lib/zxing/common/Counted.h ****       object_->release();
 257              		.loc 3 84 0
 258 0084 0C009DE5 		ldr	r0, [sp, #12]
 259 0088 000050E3 		cmp	r0, #0
 260 008c 0400000A 		beq	.L17
 261              	.LVL22:
 262              	.LBB371:
 263              	.LBB372:
  40:/home/zkmike/workspace/RZA2M/rza2m_2d_barcode_sample_freertos_gcc/src/zxing_lib/zxing/common/Counted.h ****     if (count_ == 0) {
 264              		.loc 3 40 0
 265 0090 043090E5 		ldr	r3, [r0, #4]
 266 0094 013043E2 		sub	r3, r3, #1
 267 0098 043080E5 		str	r3, [r0, #4]
  41:/home/zkmike/workspace/RZA2M/rza2m_2d_barcode_sample_freertos_gcc/src/zxing_lib/zxing/common/Counted.h ****       count_ = 0xDEADF001;
 268              		.loc 3 41 0
 269 009c 000053E3 		cmp	r3, #0
 270 00a0 0D00000A 		beq	.L26
 271              	.LVL23:
 272              	.L17:
 273              	.LBE372:
 274              	.LBE371:
 275              		.loc 3 87 0
 276 00a4 0C408DE5 		str	r4, [sp, #12]
 277              	.LVL24:
 278              	.LBE368:
 279              	.LBE367:
 280              	.LBE366:
 281              	.LBE365:
 282              	.LBE364:
 283              	.LBE363:
 284              	.LBE362:
 285              	.LBE361:
  28:../src/zxing_lib/zxing/multi/ByQuadrantReader.cpp **** }
 286              		.loc 1 28 0
 287 00a8 08308DE2 		add	r3, sp, #8
 288 00ac 04208DE2 		add	r2, sp, #4
 289 00b0 0610A0E1 		mov	r1, r6
 290 00b4 0500A0E1 		mov	r0, r5
 291              	.LEHB0:
 292 00b8 37FF2FE1 		blx	r7
 293              	.LVL25:
 294              	.LEHE0:
 295 00bc 0D0000EA 		b	.L27
 296              	.LVL26:
 297              	.L25:
 298              	.LBB382:
 299              	.LBB360:
 300              	.LBB359:
 301              	.LBB358:
 302              	.LBB357:
 303              	.LBB356:
 304              	.LBB355:
  42:/home/zkmike/workspace/RZA2M/rza2m_2d_barcode_sample_freertos_gcc/src/zxing_lib/zxing/common/Counted.h ****       delete this;
 305              		.loc 3 42 0
 306 00c0 01300FE3 		movw	r3, #61441
 307 00c4 AD3E4DE3 		movt	r3, 57005
 308 00c8 043080E5 		str	r3, [r0, #4]
  43:/home/zkmike/workspace/RZA2M/rza2m_2d_barcode_sample_freertos_gcc/src/zxing_lib/zxing/common/Counted.h ****     }
 309              		.loc 3 43 0
 310 00cc 003090E5 		ldr	r3, [r0]
 311 00d0 043093E5 		ldr	r3, [r3, #4]
 312 00d4 33FF2FE1 		blx	r3
 313              	.LVL27:
 314 00d8 DDFFFFEA 		b	.L15
 315              	.LVL28:
 316              	.L26:
 317              	.LBE355:
 318              	.LBE356:
 319              	.LBE357:
 320              	.LBE358:
 321              	.LBE359:
 322              	.LBE360:
 323              	.LBE382:
 324              	.LBB383:
 325              	.LBB381:
 326              	.LBB380:
 327              	.LBB379:
 328              	.LBB378:
 329              	.LBB377:
 330              	.LBB376:
 331              	.LBB375:
 332              	.LBB374:
 333              	.LBB373:
  42:/home/zkmike/workspace/RZA2M/rza2m_2d_barcode_sample_freertos_gcc/src/zxing_lib/zxing/common/Counted.h ****       delete this;
 334              		.loc 3 42 0
 335 00dc 01300FE3 		movw	r3, #61441
 336 00e0 AD3E4DE3 		movt	r3, 57005
 337 00e4 043080E5 		str	r3, [r0, #4]
  43:/home/zkmike/workspace/RZA2M/rza2m_2d_barcode_sample_freertos_gcc/src/zxing_lib/zxing/common/Counted.h ****     }
 338              		.loc 3 43 0
 339 00e8 003090E5 		ldr	r3, [r0]
 340 00ec 043093E5 		ldr	r3, [r3, #4]
 341 00f0 33FF2FE1 		blx	r3
 342              	.LVL29:
 343 00f4 EAFFFFEA 		b	.L17
 344              	.LVL30:
 345              	.L27:
 346              	.LBE373:
 347              	.LBE374:
 348              	.LBE375:
 349              	.LBE376:
 350              	.LBE377:
 351              	.LBE378:
 352              	.LBE379:
 353              	.LBE380:
 354              	.LBE381:
 355              	.LBE383:
 356              	.LBB384:
 357              	.LBB385:
 358              	.LBB386:
  75:/home/zkmike/workspace/RZA2M/rza2m_2d_barcode_sample_freertos_gcc/src/zxing_lib/zxing/common/Counted.h ****       object_->release();
 359              		.loc 3 75 0
 360 00f8 0C009DE5 		ldr	r0, [sp, #12]
 361 00fc 000050E3 		cmp	r0, #0
 362 0100 0400000A 		beq	.L18
 363              	.LVL31:
 364              	.LBB387:
 365              	.LBB388:
  40:/home/zkmike/workspace/RZA2M/rza2m_2d_barcode_sample_freertos_gcc/src/zxing_lib/zxing/common/Counted.h ****     if (count_ == 0) {
 366              		.loc 3 40 0
 367 0104 043090E5 		ldr	r3, [r0, #4]
 368 0108 013043E2 		sub	r3, r3, #1
 369 010c 043080E5 		str	r3, [r0, #4]
  41:/home/zkmike/workspace/RZA2M/rza2m_2d_barcode_sample_freertos_gcc/src/zxing_lib/zxing/common/Counted.h ****       count_ = 0xDEADF001;
 370              		.loc 3 41 0
 371 0110 000053E3 		cmp	r3, #0
 372 0114 0A00000A 		beq	.L28
 373              	.LVL32:
 374              	.L18:
 375              	.LBE388:
 376              	.LBE387:
 377              	.LBE386:
 378              	.LBE385:
 379              	.LBE384:
 380              	.LBB393:
 381              	.LBB394:
  75:/home/zkmike/workspace/RZA2M/rza2m_2d_barcode_sample_freertos_gcc/src/zxing_lib/zxing/common/Counted.h ****       object_->release();
 382              		.loc 3 75 0
 383 0118 04009DE5 		ldr	r0, [sp, #4]
 384 011c 000050E3 		cmp	r0, #0
 385 0120 0400000A 		beq	.L13
 386              	.LVL33:
 387              	.LBB395:
 388              	.LBB396:
  40:/home/zkmike/workspace/RZA2M/rza2m_2d_barcode_sample_freertos_gcc/src/zxing_lib/zxing/common/Counted.h ****     if (count_ == 0) {
 389              		.loc 3 40 0
 390 0124 043090E5 		ldr	r3, [r0, #4]
 391 0128 013043E2 		sub	r3, r3, #1
 392 012c 043080E5 		str	r3, [r0, #4]
  41:/home/zkmike/workspace/RZA2M/rza2m_2d_barcode_sample_freertos_gcc/src/zxing_lib/zxing/common/Counted.h ****       count_ = 0xDEADF001;
 393              		.loc 3 41 0
 394 0130 000053E3 		cmp	r3, #0
 395 0134 0900000A 		beq	.L29
 396              	.LVL34:
 397              	.L13:
 398              	.LBE396:
 399              	.LBE395:
 400              	.LBE394:
 401              	.LBE393:
  29:../src/zxing_lib/zxing/multi/ByQuadrantReader.cpp **** 
 402              		.loc 1 29 0
 403 0138 0500A0E1 		mov	r0, r5
 404 013c 14D08DE2 		add	sp, sp, #20
 405              		.cfi_remember_state
 406              		.cfi_def_cfa_offset 20
 407              		@ sp needed
 408 0140 F080BDE8 		pop	{r4, r5, r6, r7, pc}
 409              	.LVL35:
 410              	.L28:
 411              		.cfi_restore_state
 412              	.LBB400:
 413              	.LBB392:
 414              	.LBB391:
 415              	.LBB390:
 416              	.LBB389:
  42:/home/zkmike/workspace/RZA2M/rza2m_2d_barcode_sample_freertos_gcc/src/zxing_lib/zxing/common/Counted.h ****       delete this;
 417              		.loc 3 42 0
 418 0144 01300FE3 		movw	r3, #61441
 419 0148 AD3E4DE3 		movt	r3, 57005
 420 014c 043080E5 		str	r3, [r0, #4]
  43:/home/zkmike/workspace/RZA2M/rza2m_2d_barcode_sample_freertos_gcc/src/zxing_lib/zxing/common/Counted.h ****     }
 421              		.loc 3 43 0
 422 0150 003090E5 		ldr	r3, [r0]
 423 0154 043093E5 		ldr	r3, [r3, #4]
 424 0158 33FF2FE1 		blx	r3
 425              	.LVL36:
 426 015c EDFFFFEA 		b	.L18
 427              	.LVL37:
 428              	.L29:
 429              	.LBE389:
 430              	.LBE390:
 431              	.LBE391:
 432              	.LBE392:
 433              	.LBE400:
 434              	.LBB401:
 435              	.LBB399:
 436              	.LBB398:
 437              	.LBB397:
  42:/home/zkmike/workspace/RZA2M/rza2m_2d_barcode_sample_freertos_gcc/src/zxing_lib/zxing/common/Counted.h ****       delete this;
 438              		.loc 3 42 0
 439 0160 01300FE3 		movw	r3, #61441
 440 0164 AD3E4DE3 		movt	r3, 57005
 441 0168 043080E5 		str	r3, [r0, #4]
  43:/home/zkmike/workspace/RZA2M/rza2m_2d_barcode_sample_freertos_gcc/src/zxing_lib/zxing/common/Counted.h ****     }
 442              		.loc 3 43 0
 443 016c 003090E5 		ldr	r3, [r0]
 444 0170 043093E5 		ldr	r3, [r3, #4]
 445 0174 33FF2FE1 		blx	r3
 446              	.LVL38:
 447              	.LBE397:
 448              	.LBE398:
 449              	.LBE399:
 450              	.LBE401:
  28:../src/zxing_lib/zxing/multi/ByQuadrantReader.cpp **** }
 451              		.loc 1 28 0
 452 0178 EEFFFFEA 		b	.L13
 453              	.L23:
 454              	.LVL39:
 455              	.LBB402:
 456              	.LBB403:
 457              	.LBB404:
  75:/home/zkmike/workspace/RZA2M/rza2m_2d_barcode_sample_freertos_gcc/src/zxing_lib/zxing/common/Counted.h ****       object_->release();
 458              		.loc 3 75 0
 459 017c 0C009DE5 		ldr	r0, [sp, #12]
 460 0180 000050E3 		cmp	r0, #0
 461 0184 0A00000A 		beq	.L21
 462              	.LVL40:
 463              	.LBB405:
 464              	.LBB406:
  40:/home/zkmike/workspace/RZA2M/rza2m_2d_barcode_sample_freertos_gcc/src/zxing_lib/zxing/common/Counted.h ****     if (count_ == 0) {
 465              		.loc 3 40 0
 466 0188 043090E5 		ldr	r3, [r0, #4]
 467 018c 013043E2 		sub	r3, r3, #1
 468 0190 043080E5 		str	r3, [r0, #4]
  41:/home/zkmike/workspace/RZA2M/rza2m_2d_barcode_sample_freertos_gcc/src/zxing_lib/zxing/common/Counted.h ****       count_ = 0xDEADF001;
 469              		.loc 3 41 0
 470 0194 000053E3 		cmp	r3, #0
 471 0198 0500001A 		bne	.L21
  42:/home/zkmike/workspace/RZA2M/rza2m_2d_barcode_sample_freertos_gcc/src/zxing_lib/zxing/common/Counted.h ****       delete this;
 472              		.loc 3 42 0
 473 019c 01300FE3 		movw	r3, #61441
 474 01a0 AD3E4DE3 		movt	r3, 57005
 475 01a4 043080E5 		str	r3, [r0, #4]
  43:/home/zkmike/workspace/RZA2M/rza2m_2d_barcode_sample_freertos_gcc/src/zxing_lib/zxing/common/Counted.h ****     }
 476              		.loc 3 43 0
 477 01a8 003090E5 		ldr	r3, [r0]
 478 01ac 043093E5 		ldr	r3, [r3, #4]
 479 01b0 33FF2FE1 		blx	r3
 480              	.LVL41:
 481              	.L21:
 482              	.LBE406:
 483              	.LBE405:
 484              	.LBE404:
 485              	.LBE403:
 486              	.LBE402:
 487              	.LBB407:
 488              	.LBB408:
  75:/home/zkmike/workspace/RZA2M/rza2m_2d_barcode_sample_freertos_gcc/src/zxing_lib/zxing/common/Counted.h ****       object_->release();
 489              		.loc 3 75 0
 490 01b4 04009DE5 		ldr	r0, [sp, #4]
 491 01b8 000050E3 		cmp	r0, #0
 492 01bc 0A00000A 		beq	.L22
 493              	.LVL42:
 494              	.LBB409:
 495              	.LBB410:
  40:/home/zkmike/workspace/RZA2M/rza2m_2d_barcode_sample_freertos_gcc/src/zxing_lib/zxing/common/Counted.h ****     if (count_ == 0) {
 496              		.loc 3 40 0
 497 01c0 043090E5 		ldr	r3, [r0, #4]
 498 01c4 013043E2 		sub	r3, r3, #1
 499 01c8 043080E5 		str	r3, [r0, #4]
  41:/home/zkmike/workspace/RZA2M/rza2m_2d_barcode_sample_freertos_gcc/src/zxing_lib/zxing/common/Counted.h ****       count_ = 0xDEADF001;
 500              		.loc 3 41 0
 501 01cc 000053E3 		cmp	r3, #0
 502 01d0 0500001A 		bne	.L22
  42:/home/zkmike/workspace/RZA2M/rza2m_2d_barcode_sample_freertos_gcc/src/zxing_lib/zxing/common/Counted.h ****       delete this;
 503              		.loc 3 42 0
 504 01d4 01300FE3 		movw	r3, #61441
 505 01d8 AD3E4DE3 		movt	r3, 57005
 506 01dc 043080E5 		str	r3, [r0, #4]
  43:/home/zkmike/workspace/RZA2M/rza2m_2d_barcode_sample_freertos_gcc/src/zxing_lib/zxing/common/Counted.h ****     }
 507              		.loc 3 43 0
 508 01e0 003090E5 		ldr	r3, [r0]
 509 01e4 043093E5 		ldr	r3, [r3, #4]
 510 01e8 33FF2FE1 		blx	r3
 511              	.LVL43:
 512              	.L22:
 513              	.LEHB1:
 514 01ec FEFFFFEB 		bl	__cxa_end_cleanup
 515              	.LVL44:
 516              	.LEHE1:
 517              	.LBE410:
 518              	.LBE409:
 519              	.LBE408:
 520              	.LBE407:
 521              		.cfi_endproc
 522              	.LFE2270:
 523              		.global	__gxx_personality_v0
 524              		.personality	__gxx_personality_v0
 525              		.handlerdata
 526              	.LLSDA2270:
 527 0008 FF       		.byte	0xff
 528 0009 FF       		.byte	0xff
 529 000a 01       		.byte	0x1
 530 000b 0B       		.uleb128 .LLSDACSE2270-.LLSDACSB2270
 531              	.LLSDACSB2270:
 532 000c B801     		.uleb128 .LEHB0-.LFB2270
 533 000e 04       		.uleb128 .LEHE0-.LEHB0
 534 000f FC02     		.uleb128 .L23-.LFB2270
 535 0011 00       		.uleb128 0
 536 0012 EC03     		.uleb128 .LEHB1-.LFB2270
 537 0014 04       		.uleb128 .LEHE1-.LEHB1
 538 0015 00       		.uleb128 0
 539 0016 00       		.uleb128 0
 540              	.LLSDACSE2270:
 541              		.section	.text._ZN5zxing5multi16ByQuadrantReader6decodeENS_3RefINS_12BinaryBitmapEEE
 542              		.fnend
 544              		.section	.text._ZN5zxing5multi16ByQuadrantReaderC2ERNS_6ReaderE,"ax",%progbits
 545              		.align	2
 546              		.global	_ZN5zxing5multi16ByQuadrantReaderC2ERNS_6ReaderE
 547              		.syntax unified
 548              		.arm
 549              		.fpu neon
 551              	_ZN5zxing5multi16ByQuadrantReaderC2ERNS_6ReaderE:
 552              		.fnstart
 553              	.LFB2264:
  23:../src/zxing_lib/zxing/multi/ByQuadrantReader.cpp **** 
 554              		.loc 1 23 0
 555              		.cfi_startproc
 556              		@ args = 0, pretend = 0, frame = 0
 557              		@ frame_needed = 0, uses_anonymous_args = 0
 558              		@ link register save eliminated.
 559              	.LVL45:
 560              	.LBB411:
 561              	.LBB412:
 562              	.LBB413:
 563              	.LBB414:
  31:/home/zkmike/workspace/RZA2M/rza2m_2d_barcode_sample_freertos_gcc/src/zxing_lib/zxing/common/Counted.h ****   }
 564              		.loc 3 31 0
 565 0000 0020A0E3 		mov	r2, #0
 566 0004 042080E5 		str	r2, [r0, #4]
 567              	.LVL46:
 568              	.LBE414:
 569              	.LBE413:
 570              	.LBE412:
  23:../src/zxing_lib/zxing/multi/ByQuadrantReader.cpp **** 
 571              		.loc 1 23 0
 572 0008 08209FE5 		ldr	r2, .L31
 573 000c 002080E5 		str	r2, [r0]
 574 0010 081080E5 		str	r1, [r0, #8]
 575              	.LBE411:
 576 0014 1EFF2FE1 		bx	lr
 577              	.L32:
 578              		.align	2
 579              	.L31:
 580 0018 08000000 		.word	.LANCHOR0+8
 581              		.cfi_endproc
 582              	.LFE2264:
 583              		.cantunwind
 584              		.fnend
 586              		.global	_ZN5zxing5multi16ByQuadrantReaderC1ERNS_6ReaderE
 587              		.set	_ZN5zxing5multi16ByQuadrantReaderC1ERNS_6ReaderE,_ZN5zxing5multi16ByQuadrantReaderC2ERNS_6Rea
 588              		.section	.text._ZN5zxing3RefINS_12BinaryBitmapEE5resetEPS1_,"axG",%progbits,_ZN5zxing3RefINS_12Bin
 589              		.align	2
 590              		.weak	_ZN5zxing3RefINS_12BinaryBitmapEE5resetEPS1_
 591              		.syntax unified
 592              		.arm
 593              		.fpu neon
 595              	_ZN5zxing3RefINS_12BinaryBitmapEE5resetEPS1_:
 596              		.fnstart
 597              	.LFB2602:
  80:/home/zkmike/workspace/RZA2M/rza2m_2d_barcode_sample_freertos_gcc/src/zxing_lib/zxing/common/Counted.h ****     if (o) {
 598              		.loc 3 80 0
 599              		.cfi_startproc
 600              		@ args = 0, pretend = 0, frame = 0
 601              		@ frame_needed = 0, uses_anonymous_args = 0
 602              	.LVL47:
 603 0000 70402DE9 		push	{r4, r5, r6, lr}
 604              		.cfi_def_cfa_offset 16
 605              		.cfi_offset 4, -16
 606              		.cfi_offset 5, -12
 607              		.cfi_offset 6, -8
 608              		.cfi_offset 14, -4
 609 0004 0050A0E1 		mov	r5, r0
  81:/home/zkmike/workspace/RZA2M/rza2m_2d_barcode_sample_freertos_gcc/src/zxing_lib/zxing/common/Counted.h ****       o->retain();
 610              		.loc 3 81 0
 611 0008 004051E2 		subs	r4, r1, #0
 612              	.LVL48:
 613              	.LBB419:
 614              	.LBB420:
  36:/home/zkmike/workspace/RZA2M/rza2m_2d_barcode_sample_freertos_gcc/src/zxing_lib/zxing/common/Counted.h ****     return this;
 615              		.loc 3 36 0
 616 000c 04309415 		ldrne	r3, [r4, #4]
 617 0010 01308312 		addne	r3, r3, #1
 618 0014 04308415 		strne	r3, [r4, #4]
 619              	.LVL49:
 620              	.L34:
 621              	.LBE420:
 622              	.LBE419:
  84:/home/zkmike/workspace/RZA2M/rza2m_2d_barcode_sample_freertos_gcc/src/zxing_lib/zxing/common/Counted.h ****       object_->release();
 623              		.loc 3 84 0
 624 0018 000095E5 		ldr	r0, [r5]
 625              	.LVL50:
 626 001c 000050E3 		cmp	r0, #0
 627 0020 0400000A 		beq	.L35
 628              	.LVL51:
 629              	.LBB421:
 630              	.LBB422:
  40:/home/zkmike/workspace/RZA2M/rza2m_2d_barcode_sample_freertos_gcc/src/zxing_lib/zxing/common/Counted.h ****     if (count_ == 0) {
 631              		.loc 3 40 0
 632 0024 043090E5 		ldr	r3, [r0, #4]
 633 0028 013043E2 		sub	r3, r3, #1
 634 002c 043080E5 		str	r3, [r0, #4]
  41:/home/zkmike/workspace/RZA2M/rza2m_2d_barcode_sample_freertos_gcc/src/zxing_lib/zxing/common/Counted.h ****       count_ = 0xDEADF001;
 635              		.loc 3 41 0
 636 0030 000053E3 		cmp	r3, #0
 637 0034 0100000A 		beq	.L37
 638              	.LVL52:
 639              	.L35:
 640              	.LBE422:
 641              	.LBE421:
 642              		.loc 3 87 0
 643 0038 004085E5 		str	r4, [r5]
 644 003c 7080BDE8 		pop	{r4, r5, r6, pc}
 645              	.LVL53:
 646              	.L37:
 647              	.LBB424:
 648              	.LBB423:
  42:/home/zkmike/workspace/RZA2M/rza2m_2d_barcode_sample_freertos_gcc/src/zxing_lib/zxing/common/Counted.h ****       delete this;
 649              		.loc 3 42 0
 650 0040 01300FE3 		movw	r3, #61441
 651 0044 AD3E4DE3 		movt	r3, 57005
 652 0048 043080E5 		str	r3, [r0, #4]
  43:/home/zkmike/workspace/RZA2M/rza2m_2d_barcode_sample_freertos_gcc/src/zxing_lib/zxing/common/Counted.h ****     }
 653              		.loc 3 43 0
 654 004c 003090E5 		ldr	r3, [r0]
 655 0050 043093E5 		ldr	r3, [r3, #4]
 656 0054 33FF2FE1 		blx	r3
 657              	.LVL54:
 658 0058 F6FFFFEA 		b	.L35
 659              	.LBE423:
 660              	.LBE424:
 661              		.cfi_endproc
 662              	.LFE2602:
 663              		.cantunwind
 664              		.fnend
 666              		.section	.text._ZN5zxing3RefINS_19ResultPointCallbackEE5resetEPS1_,"axG",%progbits,_ZN5zxing3RefIN
 667              		.align	2
 668              		.weak	_ZN5zxing3RefINS_19ResultPointCallbackEE5resetEPS1_
 669              		.syntax unified
 670              		.arm
 671              		.fpu neon
 673              	_ZN5zxing3RefINS_19ResultPointCallbackEE5resetEPS1_:
 674              		.fnstart
 675              	.LFB2603:
  80:/home/zkmike/workspace/RZA2M/rza2m_2d_barcode_sample_freertos_gcc/src/zxing_lib/zxing/common/Counted.h ****     if (o) {
 676              		.loc 3 80 0
 677              		.cfi_startproc
 678              		@ args = 0, pretend = 0, frame = 0
 679              		@ frame_needed = 0, uses_anonymous_args = 0
 680              	.LVL55:
 681 0000 70402DE9 		push	{r4, r5, r6, lr}
 682              		.cfi_def_cfa_offset 16
 683              		.cfi_offset 4, -16
 684              		.cfi_offset 5, -12
 685              		.cfi_offset 6, -8
 686              		.cfi_offset 14, -4
 687 0004 0050A0E1 		mov	r5, r0
  81:/home/zkmike/workspace/RZA2M/rza2m_2d_barcode_sample_freertos_gcc/src/zxing_lib/zxing/common/Counted.h ****       o->retain();
 688              		.loc 3 81 0
 689 0008 004051E2 		subs	r4, r1, #0
 690              	.LVL56:
 691              	.LBB429:
 692              	.LBB430:
  36:/home/zkmike/workspace/RZA2M/rza2m_2d_barcode_sample_freertos_gcc/src/zxing_lib/zxing/common/Counted.h ****     return this;
 693              		.loc 3 36 0
 694 000c 04309415 		ldrne	r3, [r4, #4]
 695 0010 01308312 		addne	r3, r3, #1
 696 0014 04308415 		strne	r3, [r4, #4]
 697              	.LVL57:
 698              	.L39:
 699              	.LBE430:
 700              	.LBE429:
  84:/home/zkmike/workspace/RZA2M/rza2m_2d_barcode_sample_freertos_gcc/src/zxing_lib/zxing/common/Counted.h ****       object_->release();
 701              		.loc 3 84 0
 702 0018 000095E5 		ldr	r0, [r5]
 703              	.LVL58:
 704 001c 000050E3 		cmp	r0, #0
 705 0020 0400000A 		beq	.L40
 706              	.LVL59:
 707              	.LBB431:
 708              	.LBB432:
  40:/home/zkmike/workspace/RZA2M/rza2m_2d_barcode_sample_freertos_gcc/src/zxing_lib/zxing/common/Counted.h ****     if (count_ == 0) {
 709              		.loc 3 40 0
 710 0024 043090E5 		ldr	r3, [r0, #4]
 711 0028 013043E2 		sub	r3, r3, #1
 712 002c 043080E5 		str	r3, [r0, #4]
  41:/home/zkmike/workspace/RZA2M/rza2m_2d_barcode_sample_freertos_gcc/src/zxing_lib/zxing/common/Counted.h ****       count_ = 0xDEADF001;
 713              		.loc 3 41 0
 714 0030 000053E3 		cmp	r3, #0
 715 0034 0100000A 		beq	.L42
 716              	.LVL60:
 717              	.L40:
 718              	.LBE432:
 719              	.LBE431:
 720              		.loc 3 87 0
 721 0038 004085E5 		str	r4, [r5]
 722 003c 7080BDE8 		pop	{r4, r5, r6, pc}
 723              	.LVL61:
 724              	.L42:
 725              	.LBB434:
 726              	.LBB433:
  42:/home/zkmike/workspace/RZA2M/rza2m_2d_barcode_sample_freertos_gcc/src/zxing_lib/zxing/common/Counted.h ****       delete this;
 727              		.loc 3 42 0
 728 0040 01300FE3 		movw	r3, #61441
 729 0044 AD3E4DE3 		movt	r3, 57005
 730 0048 043080E5 		str	r3, [r0, #4]
  43:/home/zkmike/workspace/RZA2M/rza2m_2d_barcode_sample_freertos_gcc/src/zxing_lib/zxing/common/Counted.h ****     }
 731              		.loc 3 43 0
 732 004c 003090E5 		ldr	r3, [r0]
 733 0050 043093E5 		ldr	r3, [r3, #4]
 734 0054 33FF2FE1 		blx	r3
 735              	.LVL62:
 736 0058 F6FFFFEA 		b	.L40
 737              	.LBE433:
 738              	.LBE434:
 739              		.cfi_endproc
 740              	.LFE2603:
 741              		.cantunwind
 742              		.fnend
 744              		.section	.text._ZN5zxing5multi16ByQuadrantReader6decodeENS_3RefINS_12BinaryBitmapEEENS_11DecodeHin
 745              		.align	2
 746              		.global	_ZN5zxing5multi16ByQuadrantReader6decodeENS_3RefINS_12BinaryBitmapEEENS_11DecodeHintsE
 747              		.syntax unified
 748              		.arm
 749              		.fpu neon
 751              	_ZN5zxing5multi16ByQuadrantReader6decodeENS_3RefINS_12BinaryBitmapEEENS_11DecodeHintsE:
 752              		.fnstart
 753              	.LFB2277:
  31:../src/zxing_lib/zxing/multi/ByQuadrantReader.cpp ****   int width = image->getWidth();
 754              		.loc 1 31 0
 755              		.cfi_startproc
 756              		.cfi_personality 0,__gxx_personality_v0
 757              		.cfi_lsda 0,.LLSDA2277
 758              		@ args = 0, pretend = 0, frame = 96
 759              		@ frame_needed = 0, uses_anonymous_args = 0
 760              	.LVL63:
 761 0000 F04F2DE9 		push	{r4, r5, r6, r7, r8, r9, r10, fp, lr}
 762              		.save {r4, r5, r6, r7, r8, r9, r10, fp, lr}
 763              		.cfi_def_cfa_offset 36
 764              		.cfi_offset 4, -36
 765              		.cfi_offset 5, -32
 766              		.cfi_offset 6, -28
 767              		.cfi_offset 7, -24
 768              		.cfi_offset 8, -20
 769              		.cfi_offset 9, -16
 770              		.cfi_offset 10, -12
 771              		.cfi_offset 11, -8
 772              		.cfi_offset 14, -4
 773              		.pad #108
 774 0004 6CD04DE2 		sub	sp, sp, #108
 775              		.cfi_def_cfa_offset 144
 776 0008 0C008DE5 		str	r0, [sp, #12]
 777 000c 0140A0E1 		mov	r4, r1
 778 0010 14108DE5 		str	r1, [sp, #20]
 779 0014 0260A0E1 		mov	r6, r2
 780 0018 0370A0E1 		mov	r7, r3
  32:../src/zxing_lib/zxing/multi/ByQuadrantReader.cpp ****   int height = image->getHeight();
 781              		.loc 1 32 0
 782 001c 000092E5 		ldr	r0, [r2]
 783              	.LVL64:
 784              	.LEHB2:
 785 0020 FEFFFFEB 		bl	_ZNK5zxing12BinaryBitmap8getWidthEv
 786              	.LVL65:
 787 0024 0090A0E1 		mov	r9, r0
 788              	.LVL66:
  33:../src/zxing_lib/zxing/multi/ByQuadrantReader.cpp ****   int halfWidth = width / 2;
 789              		.loc 1 33 0
 790 0028 000096E5 		ldr	r0, [r6]
 791              	.LVL67:
 792 002c FEFFFFEB 		bl	_ZNK5zxing12BinaryBitmap9getHeightEv
 793              	.LVL68:
 794 0030 0080A0E1 		mov	r8, r0
 795              	.LVL69:
  34:../src/zxing_lib/zxing/multi/ByQuadrantReader.cpp ****   int halfHeight = height / 2;
 796              		.loc 1 34 0
 797 0034 A93F89E0 		add	r3, r9, r9, lsr #31
 798 0038 C330A0E1 		asr	r3, r3, #1
 799 003c 10308DE5 		str	r3, [sp, #16]
 800              	.LVL70:
  35:../src/zxing_lib/zxing/multi/ByQuadrantReader.cpp ****   Ref<BinaryBitmap> topLeft = image->crop(0, 0, halfWidth, halfHeight);
 801              		.loc 1 35 0
 802 0040 A05F80E0 		add	r5, r0, r0, lsr #31
 803 0044 C550A0E1 		asr	r5, r5, #1
 804              	.LVL71:
  36:../src/zxing_lib/zxing/multi/ByQuadrantReader.cpp ****   try {
 805              		.loc 1 36 0
 806 0048 04508DE5 		str	r5, [sp, #4]
 807 004c 00308DE5 		str	r3, [sp]
 808 0050 0030A0E3 		mov	r3, #0
 809              	.LVL72:
 810 0054 0320A0E1 		mov	r2, r3
 811 0058 001096E5 		ldr	r1, [r6]
 812 005c 28008DE2 		add	r0, sp, #40
 813              	.LVL73:
 814 0060 FEFFFFEB 		bl	_ZN5zxing12BinaryBitmap4cropEiiii
 815              	.LVL74:
 816              	.LEHE2:
  38:../src/zxing_lib/zxing/multi/ByQuadrantReader.cpp ****   } catch (ReaderException const& re) {
 817              		.loc 1 38 0
 818 0064 08A094E5 		ldr	r10, [r4, #8]
 819 0068 00309AE5 		ldr	r3, [r10]
 820 006c 0CB093E5 		ldr	fp, [r3, #12]
 821              	.LVL75:
 822              	.LBB640:
 823              	.LBB641:
 824              	.LBB642:
  64:/home/zkmike/workspace/RZA2M/rza2m_2d_barcode_sample_freertos_gcc/src/zxing_lib/zxing/common/Counted.h ****     reset(other.object_);
 825              		.loc 3 64 0
 826 0070 0030A0E3 		mov	r3, #0
 827 0074 2C308DE5 		str	r3, [sp, #44]
  65:/home/zkmike/workspace/RZA2M/rza2m_2d_barcode_sample_freertos_gcc/src/zxing_lib/zxing/common/Counted.h ****   }
 828              		.loc 3 65 0
 829 0078 28409DE5 		ldr	r4, [sp, #40]
 830              	.LVL76:
 831              	.LBB643:
 832              	.LBB644:
  81:/home/zkmike/workspace/RZA2M/rza2m_2d_barcode_sample_freertos_gcc/src/zxing_lib/zxing/common/Counted.h ****       o->retain();
 833              		.loc 3 81 0
 834 007c 030054E1 		cmp	r4, r3
 835              	.LVL77:
 836              	.LBB645:
 837              	.LBB646:
  36:/home/zkmike/workspace/RZA2M/rza2m_2d_barcode_sample_freertos_gcc/src/zxing_lib/zxing/common/Counted.h ****     return this;
 838              		.loc 3 36 0
 839 0080 04309415 		ldrne	r3, [r4, #4]
 840 0084 01308312 		addne	r3, r3, #1
 841 0088 04308415 		strne	r3, [r4, #4]
 842              	.LVL78:
 843              	.L44:
 844              	.LBE646:
 845              	.LBE645:
  84:/home/zkmike/workspace/RZA2M/rza2m_2d_barcode_sample_freertos_gcc/src/zxing_lib/zxing/common/Counted.h ****       object_->release();
 846              		.loc 3 84 0
 847 008c 2C009DE5 		ldr	r0, [sp, #44]
 848 0090 000050E3 		cmp	r0, #0
 849 0094 0400000A 		beq	.L45
 850              	.LVL79:
 851              	.LBB647:
 852              	.LBB648:
  40:/home/zkmike/workspace/RZA2M/rza2m_2d_barcode_sample_freertos_gcc/src/zxing_lib/zxing/common/Counted.h ****     if (count_ == 0) {
 853              		.loc 3 40 0
 854 0098 043090E5 		ldr	r3, [r0, #4]
 855 009c 013043E2 		sub	r3, r3, #1
 856 00a0 043080E5 		str	r3, [r0, #4]
  41:/home/zkmike/workspace/RZA2M/rza2m_2d_barcode_sample_freertos_gcc/src/zxing_lib/zxing/common/Counted.h ****       count_ = 0xDEADF001;
 857              		.loc 3 41 0
 858 00a4 000053E3 		cmp	r3, #0
 859 00a8 1800000A 		beq	.L117
 860              	.LVL80:
 861              	.L45:
 862              	.LBE648:
 863              	.LBE647:
 864              		.loc 3 87 0
 865 00ac 2C408DE5 		str	r4, [sp, #44]
 866              	.LVL81:
 867              	.LBE644:
 868              	.LBE643:
 869              	.LBE642:
 870              	.LBE641:
 871              	.LBE640:
 872              	.LBB655:
 873              	.LBB656:
 874              	.LBB657:
 875              		.loc 4 32 0
 876 00b0 003097E5 		ldr	r3, [r7]
 877 00b4 30308DE5 		str	r3, [sp, #48]
 878              	.LVL82:
 879              	.LBB658:
 880              	.LBB659:
 881              	.LBB660:
  64:/home/zkmike/workspace/RZA2M/rza2m_2d_barcode_sample_freertos_gcc/src/zxing_lib/zxing/common/Counted.h ****     reset(other.object_);
 882              		.loc 3 64 0
 883 00b8 0030A0E3 		mov	r3, #0
 884 00bc 34308DE5 		str	r3, [sp, #52]
  65:/home/zkmike/workspace/RZA2M/rza2m_2d_barcode_sample_freertos_gcc/src/zxing_lib/zxing/common/Counted.h ****   }
 885              		.loc 3 65 0
 886 00c0 044097E5 		ldr	r4, [r7, #4]
 887              	.LVL83:
 888              	.LBB661:
 889              	.LBB662:
  81:/home/zkmike/workspace/RZA2M/rza2m_2d_barcode_sample_freertos_gcc/src/zxing_lib/zxing/common/Counted.h ****       o->retain();
 890              		.loc 3 81 0
 891 00c4 030054E1 		cmp	r4, r3
 892              	.LVL84:
 893              	.LBB663:
 894              	.LBB664:
  36:/home/zkmike/workspace/RZA2M/rza2m_2d_barcode_sample_freertos_gcc/src/zxing_lib/zxing/common/Counted.h ****     return this;
 895              		.loc 3 36 0
 896 00c8 04309415 		ldrne	r3, [r4, #4]
 897 00cc 01308312 		addne	r3, r3, #1
 898 00d0 04308415 		strne	r3, [r4, #4]
 899              	.LVL85:
 900              	.L46:
 901              	.LBE664:
 902              	.LBE663:
  84:/home/zkmike/workspace/RZA2M/rza2m_2d_barcode_sample_freertos_gcc/src/zxing_lib/zxing/common/Counted.h ****       object_->release();
 903              		.loc 3 84 0
 904 00d4 34009DE5 		ldr	r0, [sp, #52]
 905 00d8 000050E3 		cmp	r0, #0
 906 00dc 0400000A 		beq	.L47
 907              	.LVL86:
 908              	.LBB665:
 909              	.LBB666:
  40:/home/zkmike/workspace/RZA2M/rza2m_2d_barcode_sample_freertos_gcc/src/zxing_lib/zxing/common/Counted.h ****     if (count_ == 0) {
 910              		.loc 3 40 0
 911 00e0 043090E5 		ldr	r3, [r0, #4]
 912 00e4 013043E2 		sub	r3, r3, #1
 913 00e8 043080E5 		str	r3, [r0, #4]
  41:/home/zkmike/workspace/RZA2M/rza2m_2d_barcode_sample_freertos_gcc/src/zxing_lib/zxing/common/Counted.h ****       count_ = 0xDEADF001;
 914              		.loc 3 41 0
 915 00ec 000053E3 		cmp	r3, #0
 916 00f0 0D00000A 		beq	.L118
 917              	.LVL87:
 918              	.L47:
 919              	.LBE666:
 920              	.LBE665:
 921              		.loc 3 87 0
 922 00f4 34408DE5 		str	r4, [sp, #52]
 923              	.LVL88:
 924              	.LBE662:
 925              	.LBE661:
 926              	.LBE660:
 927              	.LBE659:
 928              	.LBE658:
 929              	.LBE657:
 930              	.LBE656:
 931              	.LBE655:
  38:../src/zxing_lib/zxing/multi/ByQuadrantReader.cpp ****   } catch (ReaderException const& re) {
 932              		.loc 1 38 0
 933 00f8 30308DE2 		add	r3, sp, #48
 934 00fc 2C208DE2 		add	r2, sp, #44
 935 0100 0A10A0E1 		mov	r1, r10
 936 0104 0C009DE5 		ldr	r0, [sp, #12]
 937              	.LEHB3:
 938 0108 3BFF2FE1 		blx	fp
 939              	.LVL89:
 940              	.LEHE3:
 941 010c 0D0000EA 		b	.L119
 942              	.LVL90:
 943              	.L117:
 944              	.LBB676:
 945              	.LBB654:
 946              	.LBB653:
 947              	.LBB652:
 948              	.LBB651:
 949              	.LBB650:
 950              	.LBB649:
  42:/home/zkmike/workspace/RZA2M/rza2m_2d_barcode_sample_freertos_gcc/src/zxing_lib/zxing/common/Counted.h ****       delete this;
 951              		.loc 3 42 0
 952 0110 01300FE3 		movw	r3, #61441
 953 0114 AD3E4DE3 		movt	r3, 57005
 954 0118 043080E5 		str	r3, [r0, #4]
  43:/home/zkmike/workspace/RZA2M/rza2m_2d_barcode_sample_freertos_gcc/src/zxing_lib/zxing/common/Counted.h ****     }
 955              		.loc 3 43 0
 956 011c 003090E5 		ldr	r3, [r0]
 957 0120 043093E5 		ldr	r3, [r3, #4]
 958 0124 33FF2FE1 		blx	r3
 959              	.LVL91:
 960 0128 DFFFFFEA 		b	.L45
 961              	.LVL92:
 962              	.L118:
 963              	.LBE649:
 964              	.LBE650:
 965              	.LBE651:
 966              	.LBE652:
 967              	.LBE653:
 968              	.LBE654:
 969              	.LBE676:
 970              	.LBB677:
 971              	.LBB675:
 972              	.LBB674:
 973              	.LBB673:
 974              	.LBB672:
 975              	.LBB671:
 976              	.LBB670:
 977              	.LBB669:
 978              	.LBB668:
 979              	.LBB667:
  42:/home/zkmike/workspace/RZA2M/rza2m_2d_barcode_sample_freertos_gcc/src/zxing_lib/zxing/common/Counted.h ****       delete this;
 980              		.loc 3 42 0
 981 012c 01300FE3 		movw	r3, #61441
 982 0130 AD3E4DE3 		movt	r3, 57005
 983 0134 043080E5 		str	r3, [r0, #4]
  43:/home/zkmike/workspace/RZA2M/rza2m_2d_barcode_sample_freertos_gcc/src/zxing_lib/zxing/common/Counted.h ****     }
 984              		.loc 3 43 0
 985 0138 003090E5 		ldr	r3, [r0]
 986 013c 043093E5 		ldr	r3, [r3, #4]
 987 0140 33FF2FE1 		blx	r3
 988              	.LVL93:
 989 0144 EAFFFFEA 		b	.L47
 990              	.LVL94:
 991              	.L119:
 992              	.LBE667:
 993              	.LBE668:
 994              	.LBE669:
 995              	.LBE670:
 996              	.LBE671:
 997              	.LBE672:
 998              	.LBE673:
 999              	.LBE674:
 1000              	.LBE675:
 1001              	.LBE677:
 1002              	.LBB678:
 1003              	.LBB679:
 1004              	.LBB680:
  75:/home/zkmike/workspace/RZA2M/rza2m_2d_barcode_sample_freertos_gcc/src/zxing_lib/zxing/common/Counted.h ****       object_->release();
 1005              		.loc 3 75 0
 1006 0148 34009DE5 		ldr	r0, [sp, #52]
 1007 014c 000050E3 		cmp	r0, #0
 1008 0150 0400000A 		beq	.L48
 1009              	.LVL95:
 1010              	.LBB681:
 1011              	.LBB682:
  40:/home/zkmike/workspace/RZA2M/rza2m_2d_barcode_sample_freertos_gcc/src/zxing_lib/zxing/common/Counted.h ****     if (count_ == 0) {
 1012              		.loc 3 40 0
 1013 0154 043090E5 		ldr	r3, [r0, #4]
 1014 0158 013043E2 		sub	r3, r3, #1
 1015 015c 043080E5 		str	r3, [r0, #4]
  41:/home/zkmike/workspace/RZA2M/rza2m_2d_barcode_sample_freertos_gcc/src/zxing_lib/zxing/common/Counted.h ****       count_ = 0xDEADF001;
 1016              		.loc 3 41 0
 1017 0160 000053E3 		cmp	r3, #0
 1018 0164 1200000A 		beq	.L120
 1019              	.LVL96:
 1020              	.L48:
 1021              	.LBE682:
 1022              	.LBE681:
 1023              	.LBE680:
 1024              	.LBE679:
 1025              	.LBE678:
 1026              	.LBB687:
 1027              	.LBB688:
  75:/home/zkmike/workspace/RZA2M/rza2m_2d_barcode_sample_freertos_gcc/src/zxing_lib/zxing/common/Counted.h ****       object_->release();
 1028              		.loc 3 75 0
 1029 0168 2C009DE5 		ldr	r0, [sp, #44]
 1030 016c 000050E3 		cmp	r0, #0
 1031 0170 0400000A 		beq	.L50
 1032              	.LVL97:
 1033              	.LBB689:
 1034              	.LBB690:
  40:/home/zkmike/workspace/RZA2M/rza2m_2d_barcode_sample_freertos_gcc/src/zxing_lib/zxing/common/Counted.h ****     if (count_ == 0) {
 1035              		.loc 3 40 0
 1036 0174 043090E5 		ldr	r3, [r0, #4]
 1037 0178 013043E2 		sub	r3, r3, #1
 1038 017c 043080E5 		str	r3, [r0, #4]
  41:/home/zkmike/workspace/RZA2M/rza2m_2d_barcode_sample_freertos_gcc/src/zxing_lib/zxing/common/Counted.h ****       count_ = 0xDEADF001;
 1039              		.loc 3 41 0
 1040 0180 000053E3 		cmp	r3, #0
 1041 0184 1100000A 		beq	.L121
 1042              	.LVL98:
 1043              	.L50:
 1044              	.LBE690:
 1045              	.LBE689:
 1046              	.LBE688:
 1047              	.LBE687:
 1048              	.LBB694:
 1049              	.LBB695:
  75:/home/zkmike/workspace/RZA2M/rza2m_2d_barcode_sample_freertos_gcc/src/zxing_lib/zxing/common/Counted.h ****       object_->release();
 1050              		.loc 3 75 0
 1051 0188 28009DE5 		ldr	r0, [sp, #40]
 1052 018c 000050E3 		cmp	r0, #0
 1053 0190 0400000A 		beq	.L43
 1054              	.LVL99:
 1055              	.LBB696:
 1056              	.LBB697:
  40:/home/zkmike/workspace/RZA2M/rza2m_2d_barcode_sample_freertos_gcc/src/zxing_lib/zxing/common/Counted.h ****     if (count_ == 0) {
 1057              		.loc 3 40 0
 1058 0194 043090E5 		ldr	r3, [r0, #4]
 1059 0198 013043E2 		sub	r3, r3, #1
 1060 019c 043080E5 		str	r3, [r0, #4]
  41:/home/zkmike/workspace/RZA2M/rza2m_2d_barcode_sample_freertos_gcc/src/zxing_lib/zxing/common/Counted.h ****       count_ = 0xDEADF001;
 1061              		.loc 3 41 0
 1062 01a0 000053E3 		cmp	r3, #0
 1063 01a4 0C01000A 		beq	.L122
 1064              	.LVL100:
 1065              	.L43:
 1066              	.LBE697:
 1067              	.LBE696:
 1068              	.LBE695:
 1069              	.LBE694:
  72:../src/zxing_lib/zxing/multi/ByQuadrantReader.cpp **** 
 1070              		.loc 1 72 0
 1071 01a8 0C009DE5 		ldr	r0, [sp, #12]
 1072 01ac 6CD08DE2 		add	sp, sp, #108
 1073              		.cfi_remember_state
 1074              		.cfi_def_cfa_offset 36
 1075              		@ sp needed
 1076 01b0 F08FBDE8 		pop	{r4, r5, r6, r7, r8, r9, r10, fp, pc}
 1077              	.LVL101:
 1078              	.L120:
 1079              		.cfi_restore_state
 1080              	.LBB701:
 1081              	.LBB686:
 1082              	.LBB685:
 1083              	.LBB684:
 1084              	.LBB683:
  42:/home/zkmike/workspace/RZA2M/rza2m_2d_barcode_sample_freertos_gcc/src/zxing_lib/zxing/common/Counted.h ****       delete this;
 1085              		.loc 3 42 0
 1086 01b4 01300FE3 		movw	r3, #61441
 1087 01b8 AD3E4DE3 		movt	r3, 57005
 1088 01bc 043080E5 		str	r3, [r0, #4]
  43:/home/zkmike/workspace/RZA2M/rza2m_2d_barcode_sample_freertos_gcc/src/zxing_lib/zxing/common/Counted.h ****     }
 1089              		.loc 3 43 0
 1090 01c0 003090E5 		ldr	r3, [r0]
 1091 01c4 043093E5 		ldr	r3, [r3, #4]
 1092 01c8 33FF2FE1 		blx	r3
 1093              	.LVL102:
 1094 01cc E5FFFFEA 		b	.L48
 1095              	.LVL103:
 1096              	.L121:
 1097              	.LBE683:
 1098              	.LBE684:
 1099              	.LBE685:
 1100              	.LBE686:
 1101              	.LBE701:
 1102              	.LBB702:
 1103              	.LBB693:
 1104              	.LBB692:
 1105              	.LBB691:
  42:/home/zkmike/workspace/RZA2M/rza2m_2d_barcode_sample_freertos_gcc/src/zxing_lib/zxing/common/Counted.h ****       delete this;
 1106              		.loc 3 42 0
 1107 01d0 01300FE3 		movw	r3, #61441
 1108 01d4 AD3E4DE3 		movt	r3, 57005
 1109 01d8 043080E5 		str	r3, [r0, #4]
  43:/home/zkmike/workspace/RZA2M/rza2m_2d_barcode_sample_freertos_gcc/src/zxing_lib/zxing/common/Counted.h ****     }
 1110              		.loc 3 43 0
 1111 01dc 003090E5 		ldr	r3, [r0]
 1112 01e0 043093E5 		ldr	r3, [r3, #4]
 1113 01e4 33FF2FE1 		blx	r3
 1114              	.LVL104:
 1115 01e8 E6FFFFEA 		b	.L50
 1116              	.L123:
 1117              	.LBE691:
 1118              	.LBE692:
 1119              	.LBE693:
 1120              	.LBE702:
  46:../src/zxing_lib/zxing/multi/ByQuadrantReader.cpp ****   } catch (ReaderException const& re) {
 1121              		.loc 1 46 0
 1122 01ec 14309DE5 		ldr	r3, [sp, #20]
 1123 01f0 08A093E5 		ldr	r10, [r3, #8]
 1124 01f4 00309AE5 		ldr	r3, [r10]
 1125 01f8 0C4093E5 		ldr	r4, [r3, #12]
 1126              	.LVL105:
 1127              	.LBB703:
 1128              	.LBB704:
 1129              	.LBB705:
  64:/home/zkmike/workspace/RZA2M/rza2m_2d_barcode_sample_freertos_gcc/src/zxing_lib/zxing/common/Counted.h ****     reset(other.object_);
 1130              		.loc 3 64 0
 1131 01fc 00B0A0E3 		mov	fp, #0
 1132 0200 38B08DE5 		str	fp, [sp, #56]
  65:/home/zkmike/workspace/RZA2M/rza2m_2d_barcode_sample_freertos_gcc/src/zxing_lib/zxing/common/Counted.h ****   }
 1133              		.loc 3 65 0
 1134 0204 24109DE5 		ldr	r1, [sp, #36]
 1135 0208 38008DE2 		add	r0, sp, #56
 1136              	.LVL106:
 1137 020c FEFFFFEB 		bl	_ZN5zxing3RefINS_12BinaryBitmapEE5resetEPS1_
 1138              	.LVL107:
 1139              	.LBE705:
 1140              	.LBE704:
 1141              	.LBE703:
 1142              	.LBB706:
 1143              	.LBB707:
 1144              	.LBB708:
 1145              		.loc 4 32 0
 1146 0210 003097E5 		ldr	r3, [r7]
 1147 0214 3C308DE5 		str	r3, [sp, #60]
 1148              	.LVL108:
 1149              	.LBB709:
 1150              	.LBB710:
 1151              	.LBB711:
  64:/home/zkmike/workspace/RZA2M/rza2m_2d_barcode_sample_freertos_gcc/src/zxing_lib/zxing/common/Counted.h ****     reset(other.object_);
 1152              		.loc 3 64 0
 1153 0218 40B08DE5 		str	fp, [sp, #64]
  65:/home/zkmike/workspace/RZA2M/rza2m_2d_barcode_sample_freertos_gcc/src/zxing_lib/zxing/common/Counted.h ****   }
 1154              		.loc 3 65 0
 1155 021c 041097E5 		ldr	r1, [r7, #4]
 1156 0220 40008DE2 		add	r0, sp, #64
 1157              	.LVL109:
 1158 0224 FEFFFFEB 		bl	_ZN5zxing3RefINS_19ResultPointCallbackEE5resetEPS1_
 1159              	.LVL110:
 1160              	.LBE711:
 1161              	.LBE710:
 1162              	.LBE709:
 1163              	.LBE708:
 1164              	.LBE707:
 1165              	.LBE706:
  46:../src/zxing_lib/zxing/multi/ByQuadrantReader.cpp ****   } catch (ReaderException const& re) {
 1166              		.loc 1 46 0
 1167 0228 3C308DE2 		add	r3, sp, #60
 1168 022c 38208DE2 		add	r2, sp, #56
 1169 0230 0A10A0E1 		mov	r1, r10
 1170 0234 0C009DE5 		ldr	r0, [sp, #12]
 1171              	.LEHB4:
 1172 0238 34FF2FE1 		blx	r4
 1173              	.LVL111:
 1174              	.LEHE4:
 1175              	.LBB712:
 1176              	.LBB713:
 1177              	.LBB714:
  75:/home/zkmike/workspace/RZA2M/rza2m_2d_barcode_sample_freertos_gcc/src/zxing_lib/zxing/common/Counted.h ****       object_->release();
 1178              		.loc 3 75 0
 1179 023c 40009DE5 		ldr	r0, [sp, #64]
 1180 0240 0B0050E1 		cmp	r0, fp
 1181 0244 0A00000A 		beq	.L51
 1182              	.LVL112:
 1183              	.LBB715:
 1184              	.LBB716:
  40:/home/zkmike/workspace/RZA2M/rza2m_2d_barcode_sample_freertos_gcc/src/zxing_lib/zxing/common/Counted.h ****     if (count_ == 0) {
 1185              		.loc 3 40 0
 1186 0248 043090E5 		ldr	r3, [r0, #4]
 1187 024c 013043E2 		sub	r3, r3, #1
 1188 0250 043080E5 		str	r3, [r0, #4]
  41:/home/zkmike/workspace/RZA2M/rza2m_2d_barcode_sample_freertos_gcc/src/zxing_lib/zxing/common/Counted.h ****       count_ = 0xDEADF001;
 1189              		.loc 3 41 0
 1190 0254 0B0053E1 		cmp	r3, fp
 1191 0258 0500001A 		bne	.L51
  42:/home/zkmike/workspace/RZA2M/rza2m_2d_barcode_sample_freertos_gcc/src/zxing_lib/zxing/common/Counted.h ****       delete this;
 1192              		.loc 3 42 0
 1193 025c 01300FE3 		movw	r3, #61441
 1194 0260 AD3E4DE3 		movt	r3, 57005
 1195 0264 043080E5 		str	r3, [r0, #4]
  43:/home/zkmike/workspace/RZA2M/rza2m_2d_barcode_sample_freertos_gcc/src/zxing_lib/zxing/common/Counted.h ****     }
 1196              		.loc 3 43 0
 1197 0268 003090E5 		ldr	r3, [r0]
 1198 026c 043093E5 		ldr	r3, [r3, #4]
 1199 0270 33FF2FE1 		blx	r3
 1200              	.LVL113:
 1201              	.L51:
 1202              	.LBE716:
 1203              	.LBE715:
 1204              	.LBE714:
 1205              	.LBE713:
 1206              	.LBE712:
 1207              	.LBB717:
 1208              	.LBB718:
  75:/home/zkmike/workspace/RZA2M/rza2m_2d_barcode_sample_freertos_gcc/src/zxing_lib/zxing/common/Counted.h ****       object_->release();
 1209              		.loc 3 75 0
 1210 0274 38009DE5 		ldr	r0, [sp, #56]
 1211 0278 000050E3 		cmp	r0, #0
 1212 027c 0A00000A 		beq	.L53
 1213              	.LVL114:
 1214              	.LBB719:
 1215              	.LBB720:
  40:/home/zkmike/workspace/RZA2M/rza2m_2d_barcode_sample_freertos_gcc/src/zxing_lib/zxing/common/Counted.h ****     if (count_ == 0) {
 1216              		.loc 3 40 0
 1217 0280 043090E5 		ldr	r3, [r0, #4]
 1218 0284 013043E2 		sub	r3, r3, #1
 1219 0288 043080E5 		str	r3, [r0, #4]
  41:/home/zkmike/workspace/RZA2M/rza2m_2d_barcode_sample_freertos_gcc/src/zxing_lib/zxing/common/Counted.h ****       count_ = 0xDEADF001;
 1220              		.loc 3 41 0
 1221 028c 000053E3 		cmp	r3, #0
 1222 0290 0500001A 		bne	.L53
  42:/home/zkmike/workspace/RZA2M/rza2m_2d_barcode_sample_freertos_gcc/src/zxing_lib/zxing/common/Counted.h ****       delete this;
 1223              		.loc 3 42 0
 1224 0294 01300FE3 		movw	r3, #61441
 1225 0298 AD3E4DE3 		movt	r3, 57005
 1226 029c 043080E5 		str	r3, [r0, #4]
  43:/home/zkmike/workspace/RZA2M/rza2m_2d_barcode_sample_freertos_gcc/src/zxing_lib/zxing/common/Counted.h ****     }
 1227              		.loc 3 43 0
 1228 02a0 003090E5 		ldr	r3, [r0]
 1229 02a4 043093E5 		ldr	r3, [r3, #4]
 1230 02a8 33FF2FE1 		blx	r3
 1231              	.LVL115:
 1232              	.L53:
 1233              	.LBE720:
 1234              	.LBE719:
 1235              	.LBE718:
 1236              	.LBE717:
 1237              	.LBB721:
 1238              	.LBB722:
  75:/home/zkmike/workspace/RZA2M/rza2m_2d_barcode_sample_freertos_gcc/src/zxing_lib/zxing/common/Counted.h ****       object_->release();
 1239              		.loc 3 75 0
 1240 02ac 24009DE5 		ldr	r0, [sp, #36]
 1241 02b0 000050E3 		cmp	r0, #0
 1242 02b4 B3FFFF0A 		beq	.L50
 1243              	.LVL116:
 1244              	.LBB723:
 1245              	.LBB724:
  40:/home/zkmike/workspace/RZA2M/rza2m_2d_barcode_sample_freertos_gcc/src/zxing_lib/zxing/common/Counted.h ****     if (count_ == 0) {
 1246              		.loc 3 40 0
 1247 02b8 043090E5 		ldr	r3, [r0, #4]
 1248 02bc 013043E2 		sub	r3, r3, #1
 1249 02c0 043080E5 		str	r3, [r0, #4]
  41:/home/zkmike/workspace/RZA2M/rza2m_2d_barcode_sample_freertos_gcc/src/zxing_lib/zxing/common/Counted.h ****       count_ = 0xDEADF001;
 1250              		.loc 3 41 0
 1251 02c4 000053E3 		cmp	r3, #0
 1252 02c8 AEFFFF1A 		bne	.L50
  42:/home/zkmike/workspace/RZA2M/rza2m_2d_barcode_sample_freertos_gcc/src/zxing_lib/zxing/common/Counted.h ****       delete this;
 1253              		.loc 3 42 0
 1254 02cc 01300FE3 		movw	r3, #61441
 1255 02d0 AD3E4DE3 		movt	r3, 57005
 1256 02d4 043080E5 		str	r3, [r0, #4]
  43:/home/zkmike/workspace/RZA2M/rza2m_2d_barcode_sample_freertos_gcc/src/zxing_lib/zxing/common/Counted.h ****     }
 1257              		.loc 3 43 0
 1258 02d8 003090E5 		ldr	r3, [r0]
 1259 02dc 043093E5 		ldr	r3, [r3, #4]
 1260 02e0 33FF2FE1 		blx	r3
 1261              	.LVL117:
 1262 02e4 A7FFFFEA 		b	.L50
 1263              	.LVL118:
 1264              	.L124:
 1265              	.LBE724:
 1266              	.LBE723:
 1267              	.LBE722:
 1268              	.LBE721:
  54:../src/zxing_lib/zxing/multi/ByQuadrantReader.cpp ****   } catch (ReaderException const& re) {
 1269              		.loc 1 54 0
 1270 02e8 14309DE5 		ldr	r3, [sp, #20]
 1271 02ec 08A093E5 		ldr	r10, [r3, #8]
 1272 02f0 00309AE5 		ldr	r3, [r10]
 1273 02f4 0C4093E5 		ldr	r4, [r3, #12]
 1274              	.LVL119:
 1275              	.LBB725:
 1276              	.LBB726:
 1277              	.LBB727:
  64:/home/zkmike/workspace/RZA2M/rza2m_2d_barcode_sample_freertos_gcc/src/zxing_lib/zxing/common/Counted.h ****     reset(other.object_);
 1278              		.loc 3 64 0
 1279 02f8 00B0A0E3 		mov	fp, #0
 1280 02fc 44B08DE5 		str	fp, [sp, #68]
  65:/home/zkmike/workspace/RZA2M/rza2m_2d_barcode_sample_freertos_gcc/src/zxing_lib/zxing/common/Counted.h ****   }
 1281              		.loc 3 65 0
 1282 0300 20109DE5 		ldr	r1, [sp, #32]
 1283 0304 44008DE2 		add	r0, sp, #68
 1284              	.LVL120:
 1285 0308 FEFFFFEB 		bl	_ZN5zxing3RefINS_12BinaryBitmapEE5resetEPS1_
 1286              	.LVL121:
 1287              	.LBE727:
 1288              	.LBE726:
 1289              	.LBE725:
 1290              	.LBB728:
 1291              	.LBB729:
 1292              	.LBB730:
 1293              		.loc 4 32 0
 1294 030c 003097E5 		ldr	r3, [r7]
 1295 0310 48308DE5 		str	r3, [sp, #72]
 1296              	.LVL122:
 1297              	.LBB731:
 1298              	.LBB732:
 1299              	.LBB733:
  64:/home/zkmike/workspace/RZA2M/rza2m_2d_barcode_sample_freertos_gcc/src/zxing_lib/zxing/common/Counted.h ****     reset(other.object_);
 1300              		.loc 3 64 0
 1301 0314 4CB08DE5 		str	fp, [sp, #76]
  65:/home/zkmike/workspace/RZA2M/rza2m_2d_barcode_sample_freertos_gcc/src/zxing_lib/zxing/common/Counted.h ****   }
 1302              		.loc 3 65 0
 1303 0318 041097E5 		ldr	r1, [r7, #4]
 1304 031c 4C008DE2 		add	r0, sp, #76
 1305              	.LVL123:
 1306 0320 FEFFFFEB 		bl	_ZN5zxing3RefINS_19ResultPointCallbackEE5resetEPS1_
 1307              	.LVL124:
 1308              	.LBE733:
 1309              	.LBE732:
 1310              	.LBE731:
 1311              	.LBE730:
 1312              	.LBE729:
 1313              	.LBE728:
  54:../src/zxing_lib/zxing/multi/ByQuadrantReader.cpp ****   } catch (ReaderException const& re) {
 1314              		.loc 1 54 0
 1315 0324 48308DE2 		add	r3, sp, #72
 1316 0328 44208DE2 		add	r2, sp, #68
 1317 032c 0A10A0E1 		mov	r1, r10
 1318 0330 0C009DE5 		ldr	r0, [sp, #12]
 1319              	.LEHB5:
 1320 0334 34FF2FE1 		blx	r4
 1321              	.LVL125:
 1322              	.LEHE5:
 1323              	.LBB734:
 1324              	.LBB735:
 1325              	.LBB736:
  75:/home/zkmike/workspace/RZA2M/rza2m_2d_barcode_sample_freertos_gcc/src/zxing_lib/zxing/common/Counted.h ****       object_->release();
 1326              		.loc 3 75 0
 1327 0338 4C009DE5 		ldr	r0, [sp, #76]
 1328 033c 0B0050E1 		cmp	r0, fp
 1329 0340 0A00000A 		beq	.L54
 1330              	.LVL126:
 1331              	.LBB737:
 1332              	.LBB738:
  40:/home/zkmike/workspace/RZA2M/rza2m_2d_barcode_sample_freertos_gcc/src/zxing_lib/zxing/common/Counted.h ****     if (count_ == 0) {
 1333              		.loc 3 40 0
 1334 0344 043090E5 		ldr	r3, [r0, #4]
 1335 0348 013043E2 		sub	r3, r3, #1
 1336 034c 043080E5 		str	r3, [r0, #4]
  41:/home/zkmike/workspace/RZA2M/rza2m_2d_barcode_sample_freertos_gcc/src/zxing_lib/zxing/common/Counted.h ****       count_ = 0xDEADF001;
 1337              		.loc 3 41 0
 1338 0350 0B0053E1 		cmp	r3, fp
 1339 0354 0500001A 		bne	.L54
  42:/home/zkmike/workspace/RZA2M/rza2m_2d_barcode_sample_freertos_gcc/src/zxing_lib/zxing/common/Counted.h ****       delete this;
 1340              		.loc 3 42 0
 1341 0358 01300FE3 		movw	r3, #61441
 1342 035c AD3E4DE3 		movt	r3, 57005
 1343 0360 043080E5 		str	r3, [r0, #4]
  43:/home/zkmike/workspace/RZA2M/rza2m_2d_barcode_sample_freertos_gcc/src/zxing_lib/zxing/common/Counted.h ****     }
 1344              		.loc 3 43 0
 1345 0364 003090E5 		ldr	r3, [r0]
 1346 0368 043093E5 		ldr	r3, [r3, #4]
 1347 036c 33FF2FE1 		blx	r3
 1348              	.LVL127:
 1349              	.L54:
 1350              	.LBE738:
 1351              	.LBE737:
 1352              	.LBE736:
 1353              	.LBE735:
 1354              	.LBE734:
 1355              	.LBB739:
 1356              	.LBB740:
  75:/home/zkmike/workspace/RZA2M/rza2m_2d_barcode_sample_freertos_gcc/src/zxing_lib/zxing/common/Counted.h ****       object_->release();
 1357              		.loc 3 75 0
 1358 0370 44009DE5 		ldr	r0, [sp, #68]
 1359 0374 000050E3 		cmp	r0, #0
 1360 0378 0A00000A 		beq	.L56
 1361              	.LVL128:
 1362              	.LBB741:
 1363              	.LBB742:
  40:/home/zkmike/workspace/RZA2M/rza2m_2d_barcode_sample_freertos_gcc/src/zxing_lib/zxing/common/Counted.h ****     if (count_ == 0) {
 1364              		.loc 3 40 0
 1365 037c 043090E5 		ldr	r3, [r0, #4]
 1366 0380 013043E2 		sub	r3, r3, #1
 1367 0384 043080E5 		str	r3, [r0, #4]
  41:/home/zkmike/workspace/RZA2M/rza2m_2d_barcode_sample_freertos_gcc/src/zxing_lib/zxing/common/Counted.h ****       count_ = 0xDEADF001;
 1368              		.loc 3 41 0
 1369 0388 000053E3 		cmp	r3, #0
 1370 038c 0500001A 		bne	.L56
  42:/home/zkmike/workspace/RZA2M/rza2m_2d_barcode_sample_freertos_gcc/src/zxing_lib/zxing/common/Counted.h ****       delete this;
 1371              		.loc 3 42 0
 1372 0390 01300FE3 		movw	r3, #61441
 1373 0394 AD3E4DE3 		movt	r3, 57005
 1374 0398 043080E5 		str	r3, [r0, #4]
  43:/home/zkmike/workspace/RZA2M/rza2m_2d_barcode_sample_freertos_gcc/src/zxing_lib/zxing/common/Counted.h ****     }
 1375              		.loc 3 43 0
 1376 039c 003090E5 		ldr	r3, [r0]
 1377 03a0 043093E5 		ldr	r3, [r3, #4]
 1378 03a4 33FF2FE1 		blx	r3
 1379              	.LVL129:
 1380              	.L56:
 1381              	.LBE742:
 1382              	.LBE741:
 1383              	.LBE740:
 1384              	.LBE739:
 1385              	.LBB743:
 1386              	.LBB744:
  75:/home/zkmike/workspace/RZA2M/rza2m_2d_barcode_sample_freertos_gcc/src/zxing_lib/zxing/common/Counted.h ****       object_->release();
 1387              		.loc 3 75 0
 1388 03a8 20009DE5 		ldr	r0, [sp, #32]
 1389 03ac 000050E3 		cmp	r0, #0
 1390 03b0 BDFFFF0A 		beq	.L53
 1391              	.LVL130:
 1392              	.LBB745:
 1393              	.LBB746:
  40:/home/zkmike/workspace/RZA2M/rza2m_2d_barcode_sample_freertos_gcc/src/zxing_lib/zxing/common/Counted.h ****     if (count_ == 0) {
 1394              		.loc 3 40 0
 1395 03b4 043090E5 		ldr	r3, [r0, #4]
 1396 03b8 013043E2 		sub	r3, r3, #1
 1397 03bc 043080E5 		str	r3, [r0, #4]
  41:/home/zkmike/workspace/RZA2M/rza2m_2d_barcode_sample_freertos_gcc/src/zxing_lib/zxing/common/Counted.h ****       count_ = 0xDEADF001;
 1398              		.loc 3 41 0
 1399 03c0 000053E3 		cmp	r3, #0
 1400 03c4 B8FFFF1A 		bne	.L53
  42:/home/zkmike/workspace/RZA2M/rza2m_2d_barcode_sample_freertos_gcc/src/zxing_lib/zxing/common/Counted.h ****       delete this;
 1401              		.loc 3 42 0
 1402 03c8 01300FE3 		movw	r3, #61441
 1403 03cc AD3E4DE3 		movt	r3, 57005
 1404 03d0 043080E5 		str	r3, [r0, #4]
  43:/home/zkmike/workspace/RZA2M/rza2m_2d_barcode_sample_freertos_gcc/src/zxing_lib/zxing/common/Counted.h ****     }
 1405              		.loc 3 43 0
 1406 03d4 003090E5 		ldr	r3, [r0]
 1407 03d8 043093E5 		ldr	r3, [r3, #4]
 1408 03dc 33FF2FE1 		blx	r3
 1409              	.LVL131:
 1410 03e0 B1FFFFEA 		b	.L53
 1411              	.LVL132:
 1412              	.L125:
 1413              	.LBE746:
 1414              	.LBE745:
 1415              	.LBE744:
 1416              	.LBE743:
  62:../src/zxing_lib/zxing/multi/ByQuadrantReader.cpp ****   } catch (ReaderException const& re) {
 1417              		.loc 1 62 0
 1418 03e4 14309DE5 		ldr	r3, [sp, #20]
 1419 03e8 08A093E5 		ldr	r10, [r3, #8]
 1420 03ec 00309AE5 		ldr	r3, [r10]
 1421 03f0 0C4093E5 		ldr	r4, [r3, #12]
 1422              	.LVL133:
 1423              	.LBB747:
 1424              	.LBB748:
 1425              	.LBB749:
  64:/home/zkmike/workspace/RZA2M/rza2m_2d_barcode_sample_freertos_gcc/src/zxing_lib/zxing/common/Counted.h ****     reset(other.object_);
 1426              		.loc 3 64 0
 1427 03f4 00B0A0E3 		mov	fp, #0
 1428 03f8 50B08DE5 		str	fp, [sp, #80]
  65:/home/zkmike/workspace/RZA2M/rza2m_2d_barcode_sample_freertos_gcc/src/zxing_lib/zxing/common/Counted.h ****   }
 1429              		.loc 3 65 0
 1430 03fc 1C109DE5 		ldr	r1, [sp, #28]
 1431 0400 50008DE2 		add	r0, sp, #80
 1432              	.LVL134:
 1433 0404 FEFFFFEB 		bl	_ZN5zxing3RefINS_12BinaryBitmapEE5resetEPS1_
 1434              	.LVL135:
 1435              	.LBE749:
 1436              	.LBE748:
 1437              	.LBE747:
 1438              	.LBB750:
 1439              	.LBB751:
 1440              	.LBB752:
 1441              		.loc 4 32 0
 1442 0408 003097E5 		ldr	r3, [r7]
 1443 040c 54308DE5 		str	r3, [sp, #84]
 1444              	.LVL136:
 1445              	.LBB753:
 1446              	.LBB754:
 1447              	.LBB755:
  64:/home/zkmike/workspace/RZA2M/rza2m_2d_barcode_sample_freertos_gcc/src/zxing_lib/zxing/common/Counted.h ****     reset(other.object_);
 1448              		.loc 3 64 0
 1449 0410 58B08DE5 		str	fp, [sp, #88]
  65:/home/zkmike/workspace/RZA2M/rza2m_2d_barcode_sample_freertos_gcc/src/zxing_lib/zxing/common/Counted.h ****   }
 1450              		.loc 3 65 0
 1451 0414 041097E5 		ldr	r1, [r7, #4]
 1452 0418 58008DE2 		add	r0, sp, #88
 1453              	.LVL137:
 1454 041c FEFFFFEB 		bl	_ZN5zxing3RefINS_19ResultPointCallbackEE5resetEPS1_
 1455              	.LVL138:
 1456              	.LBE755:
 1457              	.LBE754:
 1458              	.LBE753:
 1459              	.LBE752:
 1460              	.LBE751:
 1461              	.LBE750:
  62:../src/zxing_lib/zxing/multi/ByQuadrantReader.cpp ****   } catch (ReaderException const& re) {
 1462              		.loc 1 62 0
 1463 0420 54308DE2 		add	r3, sp, #84
 1464 0424 50208DE2 		add	r2, sp, #80
 1465 0428 0A10A0E1 		mov	r1, r10
 1466 042c 0C009DE5 		ldr	r0, [sp, #12]
 1467              	.LEHB6:
 1468 0430 34FF2FE1 		blx	r4
 1469              	.LVL139:
 1470              	.LEHE6:
 1471              	.LBB756:
 1472              	.LBB757:
 1473              	.LBB758:
  75:/home/zkmike/workspace/RZA2M/rza2m_2d_barcode_sample_freertos_gcc/src/zxing_lib/zxing/common/Counted.h ****       object_->release();
 1474              		.loc 3 75 0
 1475 0434 58009DE5 		ldr	r0, [sp, #88]
 1476 0438 0B0050E1 		cmp	r0, fp
 1477 043c 0A00000A 		beq	.L57
 1478              	.LVL140:
 1479              	.LBB759:
 1480              	.LBB760:
  40:/home/zkmike/workspace/RZA2M/rza2m_2d_barcode_sample_freertos_gcc/src/zxing_lib/zxing/common/Counted.h ****     if (count_ == 0) {
 1481              		.loc 3 40 0
 1482 0440 043090E5 		ldr	r3, [r0, #4]
 1483 0444 013043E2 		sub	r3, r3, #1
 1484 0448 043080E5 		str	r3, [r0, #4]
  41:/home/zkmike/workspace/RZA2M/rza2m_2d_barcode_sample_freertos_gcc/src/zxing_lib/zxing/common/Counted.h ****       count_ = 0xDEADF001;
 1485              		.loc 3 41 0
 1486 044c 0B0053E1 		cmp	r3, fp
 1487 0450 0500001A 		bne	.L57
  42:/home/zkmike/workspace/RZA2M/rza2m_2d_barcode_sample_freertos_gcc/src/zxing_lib/zxing/common/Counted.h ****       delete this;
 1488              		.loc 3 42 0
 1489 0454 01300FE3 		movw	r3, #61441
 1490 0458 AD3E4DE3 		movt	r3, 57005
 1491 045c 043080E5 		str	r3, [r0, #4]
  43:/home/zkmike/workspace/RZA2M/rza2m_2d_barcode_sample_freertos_gcc/src/zxing_lib/zxing/common/Counted.h ****     }
 1492              		.loc 3 43 0
 1493 0460 003090E5 		ldr	r3, [r0]
 1494 0464 043093E5 		ldr	r3, [r3, #4]
 1495 0468 33FF2FE1 		blx	r3
 1496              	.LVL141:
 1497              	.L57:
 1498              	.LBE760:
 1499              	.LBE759:
 1500              	.LBE758:
 1501              	.LBE757:
 1502              	.LBE756:
 1503              	.LBB761:
 1504              	.LBB762:
  75:/home/zkmike/workspace/RZA2M/rza2m_2d_barcode_sample_freertos_gcc/src/zxing_lib/zxing/common/Counted.h ****       object_->release();
 1505              		.loc 3 75 0
 1506 046c 50009DE5 		ldr	r0, [sp, #80]
 1507 0470 000050E3 		cmp	r0, #0
 1508 0474 0A00000A 		beq	.L59
 1509              	.LVL142:
 1510              	.LBB763:
 1511              	.LBB764:
  40:/home/zkmike/workspace/RZA2M/rza2m_2d_barcode_sample_freertos_gcc/src/zxing_lib/zxing/common/Counted.h ****     if (count_ == 0) {
 1512              		.loc 3 40 0
 1513 0478 043090E5 		ldr	r3, [r0, #4]
 1514 047c 013043E2 		sub	r3, r3, #1
 1515 0480 043080E5 		str	r3, [r0, #4]
  41:/home/zkmike/workspace/RZA2M/rza2m_2d_barcode_sample_freertos_gcc/src/zxing_lib/zxing/common/Counted.h ****       count_ = 0xDEADF001;
 1516              		.loc 3 41 0
 1517 0484 000053E3 		cmp	r3, #0
 1518 0488 0500001A 		bne	.L59
  42:/home/zkmike/workspace/RZA2M/rza2m_2d_barcode_sample_freertos_gcc/src/zxing_lib/zxing/common/Counted.h ****       delete this;
 1519              		.loc 3 42 0
 1520 048c 01300FE3 		movw	r3, #61441
 1521 0490 AD3E4DE3 		movt	r3, 57005
 1522 0494 043080E5 		str	r3, [r0, #4]
  43:/home/zkmike/workspace/RZA2M/rza2m_2d_barcode_sample_freertos_gcc/src/zxing_lib/zxing/common/Counted.h ****     }
 1523              		.loc 3 43 0
 1524 0498 003090E5 		ldr	r3, [r0]
 1525 049c 043093E5 		ldr	r3, [r3, #4]
 1526 04a0 33FF2FE1 		blx	r3
 1527              	.LVL143:
 1528              	.L59:
 1529              	.LBE764:
 1530              	.LBE763:
 1531              	.LBE762:
 1532              	.LBE761:
 1533              	.LBB765:
 1534              	.LBB766:
  75:/home/zkmike/workspace/RZA2M/rza2m_2d_barcode_sample_freertos_gcc/src/zxing_lib/zxing/common/Counted.h ****       object_->release();
 1535              		.loc 3 75 0
 1536 04a4 1C009DE5 		ldr	r0, [sp, #28]
 1537 04a8 000050E3 		cmp	r0, #0
 1538 04ac BDFFFF0A 		beq	.L56
 1539              	.LVL144:
 1540              	.LBB767:
 1541              	.LBB768:
  40:/home/zkmike/workspace/RZA2M/rza2m_2d_barcode_sample_freertos_gcc/src/zxing_lib/zxing/common/Counted.h ****     if (count_ == 0) {
 1542              		.loc 3 40 0
 1543 04b0 043090E5 		ldr	r3, [r0, #4]
 1544 04b4 013043E2 		sub	r3, r3, #1
 1545 04b8 043080E5 		str	r3, [r0, #4]
  41:/home/zkmike/workspace/RZA2M/rza2m_2d_barcode_sample_freertos_gcc/src/zxing_lib/zxing/common/Counted.h ****       count_ = 0xDEADF001;
 1546              		.loc 3 41 0
 1547 04bc 000053E3 		cmp	r3, #0
 1548 04c0 B8FFFF1A 		bne	.L56
  42:/home/zkmike/workspace/RZA2M/rza2m_2d_barcode_sample_freertos_gcc/src/zxing_lib/zxing/common/Counted.h ****       delete this;
 1549              		.loc 3 42 0
 1550 04c4 01300FE3 		movw	r3, #61441
 1551 04c8 AD3E4DE3 		movt	r3, 57005
 1552 04cc 043080E5 		str	r3, [r0, #4]
  43:/home/zkmike/workspace/RZA2M/rza2m_2d_barcode_sample_freertos_gcc/src/zxing_lib/zxing/common/Counted.h ****     }
 1553              		.loc 3 43 0
 1554 04d0 003090E5 		ldr	r3, [r0]
 1555 04d4 043093E5 		ldr	r3, [r3, #4]
 1556 04d8 33FF2FE1 		blx	r3
 1557              	.LVL145:
 1558 04dc B1FFFFEA 		b	.L56
 1559              	.LVL146:
 1560              	.L126:
 1561              	.LBE768:
 1562              	.LBE767:
 1563              	.LBE766:
 1564              	.LBE765:
  71:../src/zxing_lib/zxing/multi/ByQuadrantReader.cpp **** }
 1565              		.loc 1 71 0
 1566 04e0 14309DE5 		ldr	r3, [sp, #20]
 1567 04e4 084093E5 		ldr	r4, [r3, #8]
 1568 04e8 003094E5 		ldr	r3, [r4]
 1569 04ec 0C6093E5 		ldr	r6, [r3, #12]
 1570              	.LVL147:
 1571              	.LBB769:
 1572              	.LBB770:
 1573              	.LBB771:
  64:/home/zkmike/workspace/RZA2M/rza2m_2d_barcode_sample_freertos_gcc/src/zxing_lib/zxing/common/Counted.h ****     reset(other.object_);
 1574              		.loc 3 64 0
 1575 04f0 0050A0E3 		mov	r5, #0
 1576              	.LVL148:
 1577 04f4 5C508DE5 		str	r5, [sp, #92]
  65:/home/zkmike/workspace/RZA2M/rza2m_2d_barcode_sample_freertos_gcc/src/zxing_lib/zxing/common/Counted.h ****   }
 1578              		.loc 3 65 0
 1579 04f8 18109DE5 		ldr	r1, [sp, #24]
 1580 04fc 5C008DE2 		add	r0, sp, #92
 1581              	.LVL149:
 1582 0500 FEFFFFEB 		bl	_ZN5zxing3RefINS_12BinaryBitmapEE5resetEPS1_
 1583              	.LVL150:
 1584              	.LBE771:
 1585              	.LBE770:
 1586              	.LBE769:
 1587              	.LBB772:
 1588              	.LBB773:
 1589              	.LBB774:
 1590              		.loc 4 32 0
 1591 0504 003097E5 		ldr	r3, [r7]
 1592 0508 60308DE5 		str	r3, [sp, #96]
 1593              	.LVL151:
 1594              	.LBB775:
 1595              	.LBB776:
 1596              	.LBB777:
  64:/home/zkmike/workspace/RZA2M/rza2m_2d_barcode_sample_freertos_gcc/src/zxing_lib/zxing/common/Counted.h ****     reset(other.object_);
 1597              		.loc 3 64 0
 1598 050c 64508DE5 		str	r5, [sp, #100]
  65:/home/zkmike/workspace/RZA2M/rza2m_2d_barcode_sample_freertos_gcc/src/zxing_lib/zxing/common/Counted.h ****   }
 1599              		.loc 3 65 0
 1600 0510 041097E5 		ldr	r1, [r7, #4]
 1601 0514 64008DE2 		add	r0, sp, #100
 1602              	.LVL152:
 1603 0518 FEFFFFEB 		bl	_ZN5zxing3RefINS_19ResultPointCallbackEE5resetEPS1_
 1604              	.LVL153:
 1605              	.LBE777:
 1606              	.LBE776:
 1607              	.LBE775:
 1608              	.LBE774:
 1609              	.LBE773:
 1610              	.LBE772:
  71:../src/zxing_lib/zxing/multi/ByQuadrantReader.cpp **** }
 1611              		.loc 1 71 0
 1612 051c 60308DE2 		add	r3, sp, #96
 1613 0520 5C208DE2 		add	r2, sp, #92
 1614 0524 0410A0E1 		mov	r1, r4
 1615 0528 0C009DE5 		ldr	r0, [sp, #12]
 1616              	.LEHB7:
 1617 052c 36FF2FE1 		blx	r6
 1618              	.LVL154:
 1619              	.LEHE7:
 1620              	.LBB778:
 1621              	.LBB779:
 1622              	.LBB780:
  75:/home/zkmike/workspace/RZA2M/rza2m_2d_barcode_sample_freertos_gcc/src/zxing_lib/zxing/common/Counted.h ****       object_->release();
 1623              		.loc 3 75 0
 1624 0530 64009DE5 		ldr	r0, [sp, #100]
 1625 0534 050050E1 		cmp	r0, r5
 1626 0538 0A00000A 		beq	.L60
 1627              	.LVL155:
 1628              	.LBB781:
 1629              	.LBB782:
  40:/home/zkmike/workspace/RZA2M/rza2m_2d_barcode_sample_freertos_gcc/src/zxing_lib/zxing/common/Counted.h ****     if (count_ == 0) {
 1630              		.loc 3 40 0
 1631 053c 043090E5 		ldr	r3, [r0, #4]
 1632 0540 013043E2 		sub	r3, r3, #1
 1633 0544 043080E5 		str	r3, [r0, #4]
  41:/home/zkmike/workspace/RZA2M/rza2m_2d_barcode_sample_freertos_gcc/src/zxing_lib/zxing/common/Counted.h ****       count_ = 0xDEADF001;
 1634              		.loc 3 41 0
 1635 0548 050053E1 		cmp	r3, r5
 1636 054c 0500001A 		bne	.L60
  42:/home/zkmike/workspace/RZA2M/rza2m_2d_barcode_sample_freertos_gcc/src/zxing_lib/zxing/common/Counted.h ****       delete this;
 1637              		.loc 3 42 0
 1638 0550 01300FE3 		movw	r3, #61441
 1639 0554 AD3E4DE3 		movt	r3, 57005
 1640 0558 043080E5 		str	r3, [r0, #4]
  43:/home/zkmike/workspace/RZA2M/rza2m_2d_barcode_sample_freertos_gcc/src/zxing_lib/zxing/common/Counted.h ****     }
 1641              		.loc 3 43 0
 1642 055c 003090E5 		ldr	r3, [r0]
 1643 0560 043093E5 		ldr	r3, [r3, #4]
 1644 0564 33FF2FE1 		blx	r3
 1645              	.LVL156:
 1646              	.L60:
 1647              	.LBE782:
 1648              	.LBE781:
 1649              	.LBE780:
 1650              	.LBE779:
 1651              	.LBE778:
 1652              	.LBB783:
 1653              	.LBB784:
  75:/home/zkmike/workspace/RZA2M/rza2m_2d_barcode_sample_freertos_gcc/src/zxing_lib/zxing/common/Counted.h ****       object_->release();
 1654              		.loc 3 75 0
 1655 0568 5C009DE5 		ldr	r0, [sp, #92]
 1656 056c 000050E3 		cmp	r0, #0
 1657 0570 0A00000A 		beq	.L61
 1658              	.LVL157:
 1659              	.LBB785:
 1660              	.LBB786:
  40:/home/zkmike/workspace/RZA2M/rza2m_2d_barcode_sample_freertos_gcc/src/zxing_lib/zxing/common/Counted.h ****     if (count_ == 0) {
 1661              		.loc 3 40 0
 1662 0574 043090E5 		ldr	r3, [r0, #4]
 1663 0578 013043E2 		sub	r3, r3, #1
 1664 057c 043080E5 		str	r3, [r0, #4]
  41:/home/zkmike/workspace/RZA2M/rza2m_2d_barcode_sample_freertos_gcc/src/zxing_lib/zxing/common/Counted.h ****       count_ = 0xDEADF001;
 1665              		.loc 3 41 0
 1666 0580 000053E3 		cmp	r3, #0
 1667 0584 0500001A 		bne	.L61
  42:/home/zkmike/workspace/RZA2M/rza2m_2d_barcode_sample_freertos_gcc/src/zxing_lib/zxing/common/Counted.h ****       delete this;
 1668              		.loc 3 42 0
 1669 0588 01300FE3 		movw	r3, #61441
 1670 058c AD3E4DE3 		movt	r3, 57005
 1671 0590 043080E5 		str	r3, [r0, #4]
  43:/home/zkmike/workspace/RZA2M/rza2m_2d_barcode_sample_freertos_gcc/src/zxing_lib/zxing/common/Counted.h ****     }
 1672              		.loc 3 43 0
 1673 0594 003090E5 		ldr	r3, [r0]
 1674 0598 043093E5 		ldr	r3, [r3, #4]
 1675 059c 33FF2FE1 		blx	r3
 1676              	.LVL158:
 1677              	.L61:
 1678              	.LBE786:
 1679              	.LBE785:
 1680              	.LBE784:
 1681              	.LBE783:
 1682              	.LBB787:
 1683              	.LBB788:
  75:/home/zkmike/workspace/RZA2M/rza2m_2d_barcode_sample_freertos_gcc/src/zxing_lib/zxing/common/Counted.h ****       object_->release();
 1684              		.loc 3 75 0
 1685 05a0 18009DE5 		ldr	r0, [sp, #24]
 1686 05a4 000050E3 		cmp	r0, #0
 1687 05a8 BDFFFF0A 		beq	.L59
 1688              	.LVL159:
 1689              	.LBB789:
 1690              	.LBB790:
  40:/home/zkmike/workspace/RZA2M/rza2m_2d_barcode_sample_freertos_gcc/src/zxing_lib/zxing/common/Counted.h ****     if (count_ == 0) {
 1691              		.loc 3 40 0
 1692 05ac 043090E5 		ldr	r3, [r0, #4]
 1693 05b0 013043E2 		sub	r3, r3, #1
 1694 05b4 043080E5 		str	r3, [r0, #4]
  41:/home/zkmike/workspace/RZA2M/rza2m_2d_barcode_sample_freertos_gcc/src/zxing_lib/zxing/common/Counted.h ****       count_ = 0xDEADF001;
 1695              		.loc 3 41 0
 1696 05b8 000053E3 		cmp	r3, #0
 1697 05bc B8FFFF1A 		bne	.L59
  42:/home/zkmike/workspace/RZA2M/rza2m_2d_barcode_sample_freertos_gcc/src/zxing_lib/zxing/common/Counted.h ****       delete this;
 1698              		.loc 3 42 0
 1699 05c0 01300FE3 		movw	r3, #61441
 1700 05c4 AD3E4DE3 		movt	r3, 57005
 1701 05c8 043080E5 		str	r3, [r0, #4]
  43:/home/zkmike/workspace/RZA2M/rza2m_2d_barcode_sample_freertos_gcc/src/zxing_lib/zxing/common/Counted.h ****     }
 1702              		.loc 3 43 0
 1703 05cc 003090E5 		ldr	r3, [r0]
 1704 05d0 043093E5 		ldr	r3, [r3, #4]
 1705 05d4 33FF2FE1 		blx	r3
 1706              	.LVL160:
 1707 05d8 B1FFFFEA 		b	.L59
 1708              	.LVL161:
 1709              	.L122:
 1710              	.LBE790:
 1711              	.LBE789:
 1712              	.LBE788:
 1713              	.LBE787:
 1714              	.LBB791:
 1715              	.LBB700:
 1716              	.LBB699:
 1717              	.LBB698:
  42:/home/zkmike/workspace/RZA2M/rza2m_2d_barcode_sample_freertos_gcc/src/zxing_lib/zxing/common/Counted.h ****       delete this;
 1718              		.loc 3 42 0
 1719 05dc 01300FE3 		movw	r3, #61441
 1720 05e0 AD3E4DE3 		movt	r3, 57005
 1721 05e4 043080E5 		str	r3, [r0, #4]
  43:/home/zkmike/workspace/RZA2M/rza2m_2d_barcode_sample_freertos_gcc/src/zxing_lib/zxing/common/Counted.h ****     }
 1722              		.loc 3 43 0
 1723 05e8 003090E5 		ldr	r3, [r0]
 1724 05ec 043093E5 		ldr	r3, [r3, #4]
 1725 05f0 33FF2FE1 		blx	r3
 1726              	.LVL162:
 1727 05f4 EBFEFFEA 		b	.L43
 1728              	.LVL163:
 1729              	.L103:
 1730 05f8 00A0A0E1 		mov	r10, r0
 1731 05fc 0140A0E1 		mov	r4, r1
 1732              	.LVL164:
 1733              	.LBE698:
 1734              	.LBE699:
 1735              	.LBE700:
 1736              	.LBE791:
 1737              	.LBB792:
 1738              	.LBB793:
 1739              	.LBB794:
  75:/home/zkmike/workspace/RZA2M/rza2m_2d_barcode_sample_freertos_gcc/src/zxing_lib/zxing/common/Counted.h ****       object_->release();
 1740              		.loc 3 75 0
 1741 0600 34009DE5 		ldr	r0, [sp, #52]
 1742 0604 000050E3 		cmp	r0, #0
 1743 0608 0A00000A 		beq	.L68
 1744              	.LVL165:
 1745              	.LBB795:
 1746              	.LBB796:
  40:/home/zkmike/workspace/RZA2M/rza2m_2d_barcode_sample_freertos_gcc/src/zxing_lib/zxing/common/Counted.h ****     if (count_ == 0) {
 1747              		.loc 3 40 0
 1748 060c 043090E5 		ldr	r3, [r0, #4]
 1749 0610 013043E2 		sub	r3, r3, #1
 1750 0614 043080E5 		str	r3, [r0, #4]
  41:/home/zkmike/workspace/RZA2M/rza2m_2d_barcode_sample_freertos_gcc/src/zxing_lib/zxing/common/Counted.h ****       count_ = 0xDEADF001;
 1751              		.loc 3 41 0
 1752 0618 000053E3 		cmp	r3, #0
 1753 061c 0500001A 		bne	.L68
  42:/home/zkmike/workspace/RZA2M/rza2m_2d_barcode_sample_freertos_gcc/src/zxing_lib/zxing/common/Counted.h ****       delete this;
 1754              		.loc 3 42 0
 1755 0620 01300FE3 		movw	r3, #61441
 1756 0624 AD3E4DE3 		movt	r3, 57005
 1757 0628 043080E5 		str	r3, [r0, #4]
  43:/home/zkmike/workspace/RZA2M/rza2m_2d_barcode_sample_freertos_gcc/src/zxing_lib/zxing/common/Counted.h ****     }
 1758              		.loc 3 43 0
 1759 062c 003090E5 		ldr	r3, [r0]
 1760 0630 043093E5 		ldr	r3, [r3, #4]
 1761 0634 33FF2FE1 		blx	r3
 1762              	.LVL166:
 1763              	.L68:
 1764              	.LBE796:
 1765              	.LBE795:
 1766              	.LBE794:
 1767              	.LBE793:
 1768              	.LBE792:
 1769              	.LBB797:
 1770              	.LBB798:
  75:/home/zkmike/workspace/RZA2M/rza2m_2d_barcode_sample_freertos_gcc/src/zxing_lib/zxing/common/Counted.h ****       object_->release();
 1771              		.loc 3 75 0
 1772 0638 2C009DE5 		ldr	r0, [sp, #44]
 1773 063c 000050E3 		cmp	r0, #0
 1774 0640 0A00000A 		beq	.L69
 1775              	.LVL167:
 1776              	.LBB799:
 1777              	.LBB800:
  40:/home/zkmike/workspace/RZA2M/rza2m_2d_barcode_sample_freertos_gcc/src/zxing_lib/zxing/common/Counted.h ****     if (count_ == 0) {
 1778              		.loc 3 40 0
 1779 0644 043090E5 		ldr	r3, [r0, #4]
 1780 0648 013043E2 		sub	r3, r3, #1
 1781 064c 043080E5 		str	r3, [r0, #4]
  41:/home/zkmike/workspace/RZA2M/rza2m_2d_barcode_sample_freertos_gcc/src/zxing_lib/zxing/common/Counted.h ****       count_ = 0xDEADF001;
 1782              		.loc 3 41 0
 1783 0650 000053E3 		cmp	r3, #0
 1784 0654 0500001A 		bne	.L69
  42:/home/zkmike/workspace/RZA2M/rza2m_2d_barcode_sample_freertos_gcc/src/zxing_lib/zxing/common/Counted.h ****       delete this;
 1785              		.loc 3 42 0
 1786 0658 01300FE3 		movw	r3, #61441
 1787 065c AD3E4DE3 		movt	r3, 57005
 1788 0660 043080E5 		str	r3, [r0, #4]
  43:/home/zkmike/workspace/RZA2M/rza2m_2d_barcode_sample_freertos_gcc/src/zxing_lib/zxing/common/Counted.h ****     }
 1789              		.loc 3 43 0
 1790 0664 003090E5 		ldr	r3, [r0]
 1791 0668 043093E5 		ldr	r3, [r3, #4]
 1792 066c 33FF2FE1 		blx	r3
 1793              	.LVL168:
 1794              	.L69:
 1795 0670 010054E3 		cmp	r4, #1
 1796 0674 E700001A 		bne	.L72
 1797              	.LBE800:
 1798              	.LBE799:
 1799              	.LBE798:
 1800              	.LBE797:
 1801              	.LBB801:
  39:../src/zxing_lib/zxing/multi/ByQuadrantReader.cpp ****     (void)re;
 1802              		.loc 1 39 0
 1803 0678 0A00A0E1 		mov	r0, r10
 1804 067c FEFFFFEB 		bl	__cxa_begin_catch
 1805              	.LVL169:
 1806 0680 FEFFFFEB 		bl	__cxa_end_catch
 1807              	.LVL170:
 1808              	.LBE801:
  44:../src/zxing_lib/zxing/multi/ByQuadrantReader.cpp ****   try {
 1809              		.loc 1 44 0
 1810 0684 04508DE5 		str	r5, [sp, #4]
 1811 0688 10209DE5 		ldr	r2, [sp, #16]
 1812 068c 00208DE5 		str	r2, [sp]
 1813 0690 0030A0E3 		mov	r3, #0
 1814 0694 001096E5 		ldr	r1, [r6]
 1815 0698 24008DE2 		add	r0, sp, #36
 1816              	.LEHB8:
 1817 069c FEFFFFEB 		bl	_ZN5zxing12BinaryBitmap4cropEiiii
 1818              	.LVL171:
 1819              	.LEHE8:
 1820 06a0 D1FEFFEA 		b	.L123
 1821              	.L105:
 1822 06a4 00A0A0E1 		mov	r10, r0
 1823 06a8 0140A0E1 		mov	r4, r1
 1824              	.LVL172:
 1825              	.LBB802:
 1826              	.LBB803:
 1827              	.LBB804:
  75:/home/zkmike/workspace/RZA2M/rza2m_2d_barcode_sample_freertos_gcc/src/zxing_lib/zxing/common/Counted.h ****       object_->release();
 1828              		.loc 3 75 0
 1829 06ac 40009DE5 		ldr	r0, [sp, #64]
 1830 06b0 000050E3 		cmp	r0, #0
 1831 06b4 0A00000A 		beq	.L75
 1832              	.LVL173:
 1833              	.LBB805:
 1834              	.LBB806:
  40:/home/zkmike/workspace/RZA2M/rza2m_2d_barcode_sample_freertos_gcc/src/zxing_lib/zxing/common/Counted.h ****     if (count_ == 0) {
 1835              		.loc 3 40 0
 1836 06b8 043090E5 		ldr	r3, [r0, #4]
 1837 06bc 013043E2 		sub	r3, r3, #1
 1838 06c0 043080E5 		str	r3, [r0, #4]
  41:/home/zkmike/workspace/RZA2M/rza2m_2d_barcode_sample_freertos_gcc/src/zxing_lib/zxing/common/Counted.h ****       count_ = 0xDEADF001;
 1839              		.loc 3 41 0
 1840 06c4 000053E3 		cmp	r3, #0
 1841 06c8 0500001A 		bne	.L75
  42:/home/zkmike/workspace/RZA2M/rza2m_2d_barcode_sample_freertos_gcc/src/zxing_lib/zxing/common/Counted.h ****       delete this;
 1842              		.loc 3 42 0
 1843 06cc 01300FE3 		movw	r3, #61441
 1844 06d0 AD3E4DE3 		movt	r3, 57005
 1845 06d4 043080E5 		str	r3, [r0, #4]
  43:/home/zkmike/workspace/RZA2M/rza2m_2d_barcode_sample_freertos_gcc/src/zxing_lib/zxing/common/Counted.h ****     }
 1846              		.loc 3 43 0
 1847 06d8 003090E5 		ldr	r3, [r0]
 1848 06dc 043093E5 		ldr	r3, [r3, #4]
 1849 06e0 33FF2FE1 		blx	r3
 1850              	.LVL174:
 1851              	.L75:
 1852              	.LBE806:
 1853              	.LBE805:
 1854              	.LBE804:
 1855              	.LBE803:
 1856              	.LBE802:
 1857              	.LBB807:
 1858              	.LBB808:
  75:/home/zkmike/workspace/RZA2M/rza2m_2d_barcode_sample_freertos_gcc/src/zxing_lib/zxing/common/Counted.h ****       object_->release();
 1859              		.loc 3 75 0
 1860 06e4 38009DE5 		ldr	r0, [sp, #56]
 1861 06e8 000050E3 		cmp	r0, #0
 1862 06ec 0A00000A 		beq	.L76
 1863              	.LVL175:
 1864              	.LBB809:
 1865              	.LBB810:
  40:/home/zkmike/workspace/RZA2M/rza2m_2d_barcode_sample_freertos_gcc/src/zxing_lib/zxing/common/Counted.h ****     if (count_ == 0) {
 1866              		.loc 3 40 0
 1867 06f0 043090E5 		ldr	r3, [r0, #4]
 1868 06f4 013043E2 		sub	r3, r3, #1
 1869 06f8 043080E5 		str	r3, [r0, #4]
  41:/home/zkmike/workspace/RZA2M/rza2m_2d_barcode_sample_freertos_gcc/src/zxing_lib/zxing/common/Counted.h ****       count_ = 0xDEADF001;
 1870              		.loc 3 41 0
 1871 06fc 000053E3 		cmp	r3, #0
 1872 0700 0500001A 		bne	.L76
  42:/home/zkmike/workspace/RZA2M/rza2m_2d_barcode_sample_freertos_gcc/src/zxing_lib/zxing/common/Counted.h ****       delete this;
 1873              		.loc 3 42 0
 1874 0704 01300FE3 		movw	r3, #61441
 1875 0708 AD3E4DE3 		movt	r3, 57005
 1876 070c 043080E5 		str	r3, [r0, #4]
  43:/home/zkmike/workspace/RZA2M/rza2m_2d_barcode_sample_freertos_gcc/src/zxing_lib/zxing/common/Counted.h ****     }
 1877              		.loc 3 43 0
 1878 0710 003090E5 		ldr	r3, [r0]
 1879 0714 043093E5 		ldr	r3, [r3, #4]
 1880 0718 33FF2FE1 		blx	r3
 1881              	.LVL176:
 1882              	.L76:
 1883 071c 010054E3 		cmp	r4, #1
 1884 0720 AE00001A 		bne	.L79
 1885              	.LBE810:
 1886              	.LBE809:
 1887              	.LBE808:
 1888              	.LBE807:
 1889              	.LBB811:
  47:../src/zxing_lib/zxing/multi/ByQuadrantReader.cpp ****     (void)re;
 1890              		.loc 1 47 0
 1891 0724 0A00A0E1 		mov	r0, r10
 1892 0728 FEFFFFEB 		bl	__cxa_begin_catch
 1893              	.LVL177:
 1894 072c FEFFFFEB 		bl	__cxa_end_catch
 1895              	.LVL178:
 1896              	.LBE811:
  52:../src/zxing_lib/zxing/multi/ByQuadrantReader.cpp ****   try {
 1897              		.loc 1 52 0
 1898 0730 04508DE5 		str	r5, [sp, #4]
 1899 0734 10309DE5 		ldr	r3, [sp, #16]
 1900 0738 00308DE5 		str	r3, [sp]
 1901 073c 0530A0E1 		mov	r3, r5
 1902 0740 0020A0E3 		mov	r2, #0
 1903 0744 001096E5 		ldr	r1, [r6]
 1904 0748 20008DE2 		add	r0, sp, #32
 1905              	.LEHB9:
 1906 074c FEFFFFEB 		bl	_ZN5zxing12BinaryBitmap4cropEiiii
 1907              	.LVL179:
 1908              	.LEHE9:
 1909 0750 E4FEFFEA 		b	.L124
 1910              	.L107:
 1911 0754 00A0A0E1 		mov	r10, r0
 1912 0758 0140A0E1 		mov	r4, r1
 1913              	.LVL180:
 1914              	.LBB812:
 1915              	.LBB813:
 1916              	.LBB814:
  75:/home/zkmike/workspace/RZA2M/rza2m_2d_barcode_sample_freertos_gcc/src/zxing_lib/zxing/common/Counted.h ****       object_->release();
 1917              		.loc 3 75 0
 1918 075c 4C009DE5 		ldr	r0, [sp, #76]
 1919 0760 000050E3 		cmp	r0, #0
 1920 0764 0A00000A 		beq	.L82
 1921              	.LVL181:
 1922              	.LBB815:
 1923              	.LBB816:
  40:/home/zkmike/workspace/RZA2M/rza2m_2d_barcode_sample_freertos_gcc/src/zxing_lib/zxing/common/Counted.h ****     if (count_ == 0) {
 1924              		.loc 3 40 0
 1925 0768 043090E5 		ldr	r3, [r0, #4]
 1926 076c 013043E2 		sub	r3, r3, #1
 1927 0770 043080E5 		str	r3, [r0, #4]
  41:/home/zkmike/workspace/RZA2M/rza2m_2d_barcode_sample_freertos_gcc/src/zxing_lib/zxing/common/Counted.h ****       count_ = 0xDEADF001;
 1928              		.loc 3 41 0
 1929 0774 000053E3 		cmp	r3, #0
 1930 0778 0500001A 		bne	.L82
  42:/home/zkmike/workspace/RZA2M/rza2m_2d_barcode_sample_freertos_gcc/src/zxing_lib/zxing/common/Counted.h ****       delete this;
 1931              		.loc 3 42 0
 1932 077c 01300FE3 		movw	r3, #61441
 1933 0780 AD3E4DE3 		movt	r3, 57005
 1934 0784 043080E5 		str	r3, [r0, #4]
  43:/home/zkmike/workspace/RZA2M/rza2m_2d_barcode_sample_freertos_gcc/src/zxing_lib/zxing/common/Counted.h ****     }
 1935              		.loc 3 43 0
 1936 0788 003090E5 		ldr	r3, [r0]
 1937 078c 043093E5 		ldr	r3, [r3, #4]
 1938 0790 33FF2FE1 		blx	r3
 1939              	.LVL182:
 1940              	.L82:
 1941              	.LBE816:
 1942              	.LBE815:
 1943              	.LBE814:
 1944              	.LBE813:
 1945              	.LBE812:
 1946              	.LBB817:
 1947              	.LBB818:
  75:/home/zkmike/workspace/RZA2M/rza2m_2d_barcode_sample_freertos_gcc/src/zxing_lib/zxing/common/Counted.h ****       object_->release();
 1948              		.loc 3 75 0
 1949 0794 44009DE5 		ldr	r0, [sp, #68]
 1950 0798 000050E3 		cmp	r0, #0
 1951 079c 0A00000A 		beq	.L83
 1952              	.LVL183:
 1953              	.LBB819:
 1954              	.LBB820:
  40:/home/zkmike/workspace/RZA2M/rza2m_2d_barcode_sample_freertos_gcc/src/zxing_lib/zxing/common/Counted.h ****     if (count_ == 0) {
 1955              		.loc 3 40 0
 1956 07a0 043090E5 		ldr	r3, [r0, #4]
 1957 07a4 013043E2 		sub	r3, r3, #1
 1958 07a8 043080E5 		str	r3, [r0, #4]
  41:/home/zkmike/workspace/RZA2M/rza2m_2d_barcode_sample_freertos_gcc/src/zxing_lib/zxing/common/Counted.h ****       count_ = 0xDEADF001;
 1959              		.loc 3 41 0
 1960 07ac 000053E3 		cmp	r3, #0
 1961 07b0 0500001A 		bne	.L83
  42:/home/zkmike/workspace/RZA2M/rza2m_2d_barcode_sample_freertos_gcc/src/zxing_lib/zxing/common/Counted.h ****       delete this;
 1962              		.loc 3 42 0
 1963 07b4 01300FE3 		movw	r3, #61441
 1964 07b8 AD3E4DE3 		movt	r3, 57005
 1965 07bc 043080E5 		str	r3, [r0, #4]
  43:/home/zkmike/workspace/RZA2M/rza2m_2d_barcode_sample_freertos_gcc/src/zxing_lib/zxing/common/Counted.h ****     }
 1966              		.loc 3 43 0
 1967 07c0 003090E5 		ldr	r3, [r0]
 1968 07c4 043093E5 		ldr	r3, [r3, #4]
 1969 07c8 33FF2FE1 		blx	r3
 1970              	.LVL184:
 1971              	.L83:
 1972 07cc 010054E3 		cmp	r4, #1
 1973 07d0 7400001A 		bne	.L86
 1974              	.LBE820:
 1975              	.LBE819:
 1976              	.LBE818:
 1977              	.LBE817:
 1978              	.LBB821:
  55:../src/zxing_lib/zxing/multi/ByQuadrantReader.cpp ****     (void)re;
 1979              		.loc 1 55 0
 1980 07d4 0A00A0E1 		mov	r0, r10
 1981 07d8 FEFFFFEB 		bl	__cxa_begin_catch
 1982              	.LVL185:
 1983 07dc FEFFFFEB 		bl	__cxa_end_catch
 1984              	.LVL186:
 1985              	.LBE821:
  60:../src/zxing_lib/zxing/multi/ByQuadrantReader.cpp ****   try {
 1986              		.loc 1 60 0
 1987 07e0 04508DE5 		str	r5, [sp, #4]
 1988 07e4 10209DE5 		ldr	r2, [sp, #16]
 1989 07e8 00208DE5 		str	r2, [sp]
 1990 07ec 0530A0E1 		mov	r3, r5
 1991 07f0 001096E5 		ldr	r1, [r6]
 1992 07f4 1C008DE2 		add	r0, sp, #28
 1993              	.LEHB10:
 1994 07f8 FEFFFFEB 		bl	_ZN5zxing12BinaryBitmap4cropEiiii
 1995              	.LVL187:
 1996              	.LEHE10:
 1997 07fc F8FEFFEA 		b	.L125
 1998              	.L109:
 1999 0800 00A0A0E1 		mov	r10, r0
 2000 0804 0140A0E1 		mov	r4, r1
 2001              	.LVL188:
 2002              	.LBB822:
 2003              	.LBB823:
 2004              	.LBB824:
  75:/home/zkmike/workspace/RZA2M/rza2m_2d_barcode_sample_freertos_gcc/src/zxing_lib/zxing/common/Counted.h ****       object_->release();
 2005              		.loc 3 75 0
 2006 0808 58009DE5 		ldr	r0, [sp, #88]
 2007 080c 000050E3 		cmp	r0, #0
 2008 0810 0A00000A 		beq	.L89
 2009              	.LVL189:
 2010              	.LBB825:
 2011              	.LBB826:
  40:/home/zkmike/workspace/RZA2M/rza2m_2d_barcode_sample_freertos_gcc/src/zxing_lib/zxing/common/Counted.h ****     if (count_ == 0) {
 2012              		.loc 3 40 0
 2013 0814 043090E5 		ldr	r3, [r0, #4]
 2014 0818 013043E2 		sub	r3, r3, #1
 2015 081c 043080E5 		str	r3, [r0, #4]
  41:/home/zkmike/workspace/RZA2M/rza2m_2d_barcode_sample_freertos_gcc/src/zxing_lib/zxing/common/Counted.h ****       count_ = 0xDEADF001;
 2016              		.loc 3 41 0
 2017 0820 000053E3 		cmp	r3, #0
 2018 0824 0500001A 		bne	.L89
  42:/home/zkmike/workspace/RZA2M/rza2m_2d_barcode_sample_freertos_gcc/src/zxing_lib/zxing/common/Counted.h ****       delete this;
 2019              		.loc 3 42 0
 2020 0828 01300FE3 		movw	r3, #61441
 2021 082c AD3E4DE3 		movt	r3, 57005
 2022 0830 043080E5 		str	r3, [r0, #4]
  43:/home/zkmike/workspace/RZA2M/rza2m_2d_barcode_sample_freertos_gcc/src/zxing_lib/zxing/common/Counted.h ****     }
 2023              		.loc 3 43 0
 2024 0834 003090E5 		ldr	r3, [r0]
 2025 0838 043093E5 		ldr	r3, [r3, #4]
 2026 083c 33FF2FE1 		blx	r3
 2027              	.LVL190:
 2028              	.L89:
 2029              	.LBE826:
 2030              	.LBE825:
 2031              	.LBE824:
 2032              	.LBE823:
 2033              	.LBE822:
 2034              	.LBB827:
 2035              	.LBB828:
  75:/home/zkmike/workspace/RZA2M/rza2m_2d_barcode_sample_freertos_gcc/src/zxing_lib/zxing/common/Counted.h ****       object_->release();
 2036              		.loc 3 75 0
 2037 0840 50009DE5 		ldr	r0, [sp, #80]
 2038 0844 000050E3 		cmp	r0, #0
 2039 0848 0A00000A 		beq	.L90
 2040              	.LVL191:
 2041              	.LBB829:
 2042              	.LBB830:
  40:/home/zkmike/workspace/RZA2M/rza2m_2d_barcode_sample_freertos_gcc/src/zxing_lib/zxing/common/Counted.h ****     if (count_ == 0) {
 2043              		.loc 3 40 0
 2044 084c 043090E5 		ldr	r3, [r0, #4]
 2045 0850 013043E2 		sub	r3, r3, #1
 2046 0854 043080E5 		str	r3, [r0, #4]
  41:/home/zkmike/workspace/RZA2M/rza2m_2d_barcode_sample_freertos_gcc/src/zxing_lib/zxing/common/Counted.h ****       count_ = 0xDEADF001;
 2047              		.loc 3 41 0
 2048 0858 000053E3 		cmp	r3, #0
 2049 085c 0500001A 		bne	.L90
  42:/home/zkmike/workspace/RZA2M/rza2m_2d_barcode_sample_freertos_gcc/src/zxing_lib/zxing/common/Counted.h ****       delete this;
 2050              		.loc 3 42 0
 2051 0860 01300FE3 		movw	r3, #61441
 2052 0864 AD3E4DE3 		movt	r3, 57005
 2053 0868 043080E5 		str	r3, [r0, #4]
  43:/home/zkmike/workspace/RZA2M/rza2m_2d_barcode_sample_freertos_gcc/src/zxing_lib/zxing/common/Counted.h ****     }
 2054              		.loc 3 43 0
 2055 086c 003090E5 		ldr	r3, [r0]
 2056 0870 043093E5 		ldr	r3, [r3, #4]
 2057 0874 33FF2FE1 		blx	r3
 2058              	.LVL192:
 2059              	.L90:
 2060 0878 010054E3 		cmp	r4, #1
 2061 087c 3B00001A 		bne	.L93
 2062              	.LBE830:
 2063              	.LBE829:
 2064              	.LBE828:
 2065              	.LBE827:
 2066              	.LBB831:
  63:../src/zxing_lib/zxing/multi/ByQuadrantReader.cpp ****     (void)re;
 2067              		.loc 1 63 0
 2068 0880 0A00A0E1 		mov	r0, r10
 2069 0884 FEFFFFEB 		bl	__cxa_begin_catch
 2070              	.LVL193:
 2071 0888 FEFFFFEB 		bl	__cxa_end_catch
 2072              	.LVL194:
 2073              	.LBE831:
  68:../src/zxing_lib/zxing/multi/ByQuadrantReader.cpp ****   int quarterHeight = halfHeight / 2;
 2074              		.loc 1 68 0
 2075 088c 032089E2 		add	r2, r9, #3
 2076 0890 000059E3 		cmp	r9, #0
 2077 0894 0920A0A1 		movge	r2, r9
 2078              	.LVL195:
  69:../src/zxing_lib/zxing/multi/ByQuadrantReader.cpp ****   Ref<BinaryBitmap> center = image->crop(quarterWidth, quarterHeight, halfWidth, halfHeight);
 2079              		.loc 1 69 0
 2080 0898 033088E2 		add	r3, r8, #3
 2081 089c 000058E3 		cmp	r8, #0
 2082 08a0 0830A0A1 		movge	r3, r8
 2083              	.LVL196:
 2084              	.LBB832:
 2085              	.LBB833:
  88:/home/zkmike/workspace/RZA2M/rza2m_2d_barcode_sample_freertos_gcc/src/zxing_lib/zxing/common/Counted.h ****   }
  89:/home/zkmike/workspace/RZA2M/rza2m_2d_barcode_sample_freertos_gcc/src/zxing_lib/zxing/common/Counted.h ****   Ref& operator=(const Ref &other) {
  90:/home/zkmike/workspace/RZA2M/rza2m_2d_barcode_sample_freertos_gcc/src/zxing_lib/zxing/common/Counted.h ****     reset(other.object_);
  91:/home/zkmike/workspace/RZA2M/rza2m_2d_barcode_sample_freertos_gcc/src/zxing_lib/zxing/common/Counted.h ****     return *this;
  92:/home/zkmike/workspace/RZA2M/rza2m_2d_barcode_sample_freertos_gcc/src/zxing_lib/zxing/common/Counted.h ****   }
  93:/home/zkmike/workspace/RZA2M/rza2m_2d_barcode_sample_freertos_gcc/src/zxing_lib/zxing/common/Counted.h ****   template<class Y>
  94:/home/zkmike/workspace/RZA2M/rza2m_2d_barcode_sample_freertos_gcc/src/zxing_lib/zxing/common/Counted.h ****   Ref& operator=(const Ref<Y> &other) {
  95:/home/zkmike/workspace/RZA2M/rza2m_2d_barcode_sample_freertos_gcc/src/zxing_lib/zxing/common/Counted.h ****     reset(other.object_);
  96:/home/zkmike/workspace/RZA2M/rza2m_2d_barcode_sample_freertos_gcc/src/zxing_lib/zxing/common/Counted.h ****     return *this;
  97:/home/zkmike/workspace/RZA2M/rza2m_2d_barcode_sample_freertos_gcc/src/zxing_lib/zxing/common/Counted.h ****   }
  98:/home/zkmike/workspace/RZA2M/rza2m_2d_barcode_sample_freertos_gcc/src/zxing_lib/zxing/common/Counted.h ****   Ref& operator=(T* o) {
  99:/home/zkmike/workspace/RZA2M/rza2m_2d_barcode_sample_freertos_gcc/src/zxing_lib/zxing/common/Counted.h ****     reset(o);
 100:/home/zkmike/workspace/RZA2M/rza2m_2d_barcode_sample_freertos_gcc/src/zxing_lib/zxing/common/Counted.h ****     return *this;
 101:/home/zkmike/workspace/RZA2M/rza2m_2d_barcode_sample_freertos_gcc/src/zxing_lib/zxing/common/Counted.h ****   }
 102:/home/zkmike/workspace/RZA2M/rza2m_2d_barcode_sample_freertos_gcc/src/zxing_lib/zxing/common/Counted.h ****   template<class Y>
 103:/home/zkmike/workspace/RZA2M/rza2m_2d_barcode_sample_freertos_gcc/src/zxing_lib/zxing/common/Counted.h ****   Ref& operator=(Y* o) {
 104:/home/zkmike/workspace/RZA2M/rza2m_2d_barcode_sample_freertos_gcc/src/zxing_lib/zxing/common/Counted.h ****     reset(o);
 105:/home/zkmike/workspace/RZA2M/rza2m_2d_barcode_sample_freertos_gcc/src/zxing_lib/zxing/common/Counted.h ****     return *this;
 106:/home/zkmike/workspace/RZA2M/rza2m_2d_barcode_sample_freertos_gcc/src/zxing_lib/zxing/common/Counted.h ****   }
 107:/home/zkmike/workspace/RZA2M/rza2m_2d_barcode_sample_freertos_gcc/src/zxing_lib/zxing/common/Counted.h **** 
 108:/home/zkmike/workspace/RZA2M/rza2m_2d_barcode_sample_freertos_gcc/src/zxing_lib/zxing/common/Counted.h ****   T& operator*() {
 109:/home/zkmike/workspace/RZA2M/rza2m_2d_barcode_sample_freertos_gcc/src/zxing_lib/zxing/common/Counted.h ****     return *object_;
 110:/home/zkmike/workspace/RZA2M/rza2m_2d_barcode_sample_freertos_gcc/src/zxing_lib/zxing/common/Counted.h ****   }
 111:/home/zkmike/workspace/RZA2M/rza2m_2d_barcode_sample_freertos_gcc/src/zxing_lib/zxing/common/Counted.h ****   T* operator->() const {
 112:/home/zkmike/workspace/RZA2M/rza2m_2d_barcode_sample_freertos_gcc/src/zxing_lib/zxing/common/Counted.h ****     return object_;
 2086              		.loc 3 112 0
 2087 08a4 001096E5 		ldr	r1, [r6]
 2088              	.LVL197:
 2089              	.LBE833:
 2090              	.LBE832:
  70:../src/zxing_lib/zxing/multi/ByQuadrantReader.cpp ****   return delegate_.decode(center, hints);
 2091              		.loc 1 70 0
 2092 08a8 04508DE5 		str	r5, [sp, #4]
 2093 08ac 10009DE5 		ldr	r0, [sp, #16]
 2094 08b0 00008DE5 		str	r0, [sp]
 2095 08b4 4331A0E1 		asr	r3, r3, #2
 2096              	.LVL198:
 2097 08b8 4221A0E1 		asr	r2, r2, #2
 2098              	.LVL199:
 2099 08bc 18008DE2 		add	r0, sp, #24
 2100              	.LEHB11:
 2101 08c0 FEFFFFEB 		bl	_ZN5zxing12BinaryBitmap4cropEiiii
 2102              	.LVL200:
 2103              	.LEHE11:
 2104 08c4 05FFFFEA 		b	.L126
 2105              	.LVL201:
 2106              	.L111:
 2107              	.LBB834:
 2108              	.LBB835:
 2109              	.LBB836:
  75:/home/zkmike/workspace/RZA2M/rza2m_2d_barcode_sample_freertos_gcc/src/zxing_lib/zxing/common/Counted.h ****       object_->release();
 2110              		.loc 3 75 0
 2111 08c8 64009DE5 		ldr	r0, [sp, #100]
 2112 08cc 000050E3 		cmp	r0, #0
 2113 08d0 0A00000A 		beq	.L96
 2114              	.LVL202:
 2115              	.LBB837:
 2116              	.LBB838:
  40:/home/zkmike/workspace/RZA2M/rza2m_2d_barcode_sample_freertos_gcc/src/zxing_lib/zxing/common/Counted.h ****     if (count_ == 0) {
 2117              		.loc 3 40 0
 2118 08d4 043090E5 		ldr	r3, [r0, #4]
 2119 08d8 013043E2 		sub	r3, r3, #1
 2120 08dc 043080E5 		str	r3, [r0, #4]
  41:/home/zkmike/workspace/RZA2M/rza2m_2d_barcode_sample_freertos_gcc/src/zxing_lib/zxing/common/Counted.h ****       count_ = 0xDEADF001;
 2121              		.loc 3 41 0
 2122 08e0 000053E3 		cmp	r3, #0
 2123 08e4 0500001A 		bne	.L96
  42:/home/zkmike/workspace/RZA2M/rza2m_2d_barcode_sample_freertos_gcc/src/zxing_lib/zxing/common/Counted.h ****       delete this;
 2124              		.loc 3 42 0
 2125 08e8 01300FE3 		movw	r3, #61441
 2126 08ec AD3E4DE3 		movt	r3, 57005
 2127 08f0 043080E5 		str	r3, [r0, #4]
  43:/home/zkmike/workspace/RZA2M/rza2m_2d_barcode_sample_freertos_gcc/src/zxing_lib/zxing/common/Counted.h ****     }
 2128              		.loc 3 43 0
 2129 08f4 003090E5 		ldr	r3, [r0]
 2130 08f8 043093E5 		ldr	r3, [r3, #4]
 2131 08fc 33FF2FE1 		blx	r3
 2132              	.LVL203:
 2133              	.L96:
 2134              	.LBE838:
 2135              	.LBE837:
 2136              	.LBE836:
 2137              	.LBE835:
 2138              	.LBE834:
 2139              	.LBB839:
 2140              	.LBB840:
  75:/home/zkmike/workspace/RZA2M/rza2m_2d_barcode_sample_freertos_gcc/src/zxing_lib/zxing/common/Counted.h ****       object_->release();
 2141              		.loc 3 75 0
 2142 0900 5C009DE5 		ldr	r0, [sp, #92]
 2143 0904 000050E3 		cmp	r0, #0
 2144 0908 0A00000A 		beq	.L97
 2145              	.LVL204:
 2146              	.LBB841:
 2147              	.LBB842:
  40:/home/zkmike/workspace/RZA2M/rza2m_2d_barcode_sample_freertos_gcc/src/zxing_lib/zxing/common/Counted.h ****     if (count_ == 0) {
 2148              		.loc 3 40 0
 2149 090c 043090E5 		ldr	r3, [r0, #4]
 2150 0910 013043E2 		sub	r3, r3, #1
 2151 0914 043080E5 		str	r3, [r0, #4]
  41:/home/zkmike/workspace/RZA2M/rza2m_2d_barcode_sample_freertos_gcc/src/zxing_lib/zxing/common/Counted.h ****       count_ = 0xDEADF001;
 2152              		.loc 3 41 0
 2153 0918 000053E3 		cmp	r3, #0
 2154 091c 0500001A 		bne	.L97
  42:/home/zkmike/workspace/RZA2M/rza2m_2d_barcode_sample_freertos_gcc/src/zxing_lib/zxing/common/Counted.h ****       delete this;
 2155              		.loc 3 42 0
 2156 0920 01300FE3 		movw	r3, #61441
 2157 0924 AD3E4DE3 		movt	r3, 57005
 2158 0928 043080E5 		str	r3, [r0, #4]
  43:/home/zkmike/workspace/RZA2M/rza2m_2d_barcode_sample_freertos_gcc/src/zxing_lib/zxing/common/Counted.h ****     }
 2159              		.loc 3 43 0
 2160 092c 003090E5 		ldr	r3, [r0]
 2161 0930 043093E5 		ldr	r3, [r3, #4]
 2162 0934 33FF2FE1 		blx	r3
 2163              	.LVL205:
 2164              	.L97:
 2165              	.LBE842:
 2166              	.LBE841:
 2167              	.LBE840:
 2168              	.LBE839:
 2169              	.LBB843:
 2170              	.LBB844:
  75:/home/zkmike/workspace/RZA2M/rza2m_2d_barcode_sample_freertos_gcc/src/zxing_lib/zxing/common/Counted.h ****       object_->release();
 2171              		.loc 3 75 0
 2172 0938 18009DE5 		ldr	r0, [sp, #24]
 2173 093c 000050E3 		cmp	r0, #0
 2174 0940 0A00000A 		beq	.L93
 2175              	.LVL206:
 2176              	.LBB845:
 2177              	.LBB846:
  40:/home/zkmike/workspace/RZA2M/rza2m_2d_barcode_sample_freertos_gcc/src/zxing_lib/zxing/common/Counted.h ****     if (count_ == 0) {
 2178              		.loc 3 40 0
 2179 0944 043090E5 		ldr	r3, [r0, #4]
 2180 0948 013043E2 		sub	r3, r3, #1
 2181 094c 043080E5 		str	r3, [r0, #4]
  41:/home/zkmike/workspace/RZA2M/rza2m_2d_barcode_sample_freertos_gcc/src/zxing_lib/zxing/common/Counted.h ****       count_ = 0xDEADF001;
 2182              		.loc 3 41 0
 2183 0950 000053E3 		cmp	r3, #0
 2184 0954 0500001A 		bne	.L93
  42:/home/zkmike/workspace/RZA2M/rza2m_2d_barcode_sample_freertos_gcc/src/zxing_lib/zxing/common/Counted.h ****       delete this;
 2185              		.loc 3 42 0
 2186 0958 01300FE3 		movw	r3, #61441
 2187 095c AD3E4DE3 		movt	r3, 57005
 2188 0960 043080E5 		str	r3, [r0, #4]
  43:/home/zkmike/workspace/RZA2M/rza2m_2d_barcode_sample_freertos_gcc/src/zxing_lib/zxing/common/Counted.h ****     }
 2189              		.loc 3 43 0
 2190 0964 003090E5 		ldr	r3, [r0]
 2191 0968 043093E5 		ldr	r3, [r3, #4]
 2192 096c 33FF2FE1 		blx	r3
 2193              	.LVL207:
 2194              	.L93:
 2195              	.LBE846:
 2196              	.LBE845:
 2197              	.LBE844:
 2198              	.LBE843:
 2199              	.LBB847:
 2200              	.LBB848:
  75:/home/zkmike/workspace/RZA2M/rza2m_2d_barcode_sample_freertos_gcc/src/zxing_lib/zxing/common/Counted.h ****       object_->release();
 2201              		.loc 3 75 0
 2202 0970 1C009DE5 		ldr	r0, [sp, #28]
 2203 0974 000050E3 		cmp	r0, #0
 2204 0978 0A00000A 		beq	.L86
 2205              	.LVL208:
 2206              	.LBB849:
 2207              	.LBB850:
  40:/home/zkmike/workspace/RZA2M/rza2m_2d_barcode_sample_freertos_gcc/src/zxing_lib/zxing/common/Counted.h ****     if (count_ == 0) {
 2208              		.loc 3 40 0
 2209 097c 043090E5 		ldr	r3, [r0, #4]
 2210 0980 013043E2 		sub	r3, r3, #1
 2211 0984 043080E5 		str	r3, [r0, #4]
  41:/home/zkmike/workspace/RZA2M/rza2m_2d_barcode_sample_freertos_gcc/src/zxing_lib/zxing/common/Counted.h ****       count_ = 0xDEADF001;
 2212              		.loc 3 41 0
 2213 0988 000053E3 		cmp	r3, #0
 2214 098c 0500001A 		bne	.L86
  42:/home/zkmike/workspace/RZA2M/rza2m_2d_barcode_sample_freertos_gcc/src/zxing_lib/zxing/common/Counted.h ****       delete this;
 2215              		.loc 3 42 0
 2216 0990 01300FE3 		movw	r3, #61441
 2217 0994 AD3E4DE3 		movt	r3, 57005
 2218 0998 043080E5 		str	r3, [r0, #4]
  43:/home/zkmike/workspace/RZA2M/rza2m_2d_barcode_sample_freertos_gcc/src/zxing_lib/zxing/common/Counted.h ****     }
 2219              		.loc 3 43 0
 2220 099c 003090E5 		ldr	r3, [r0]
 2221 09a0 043093E5 		ldr	r3, [r3, #4]
 2222 09a4 33FF2FE1 		blx	r3
 2223              	.LVL209:
 2224              	.L86:
 2225              	.LBE850:
 2226              	.LBE849:
 2227              	.LBE848:
 2228              	.LBE847:
 2229              	.LBB851:
 2230              	.LBB852:
  75:/home/zkmike/workspace/RZA2M/rza2m_2d_barcode_sample_freertos_gcc/src/zxing_lib/zxing/common/Counted.h ****       object_->release();
 2231              		.loc 3 75 0
 2232 09a8 20009DE5 		ldr	r0, [sp, #32]
 2233 09ac 000050E3 		cmp	r0, #0
 2234 09b0 0A00000A 		beq	.L79
 2235              	.LVL210:
 2236              	.LBB853:
 2237              	.LBB854:
  40:/home/zkmike/workspace/RZA2M/rza2m_2d_barcode_sample_freertos_gcc/src/zxing_lib/zxing/common/Counted.h ****     if (count_ == 0) {
 2238              		.loc 3 40 0
 2239 09b4 043090E5 		ldr	r3, [r0, #4]
 2240 09b8 013043E2 		sub	r3, r3, #1
 2241 09bc 043080E5 		str	r3, [r0, #4]
  41:/home/zkmike/workspace/RZA2M/rza2m_2d_barcode_sample_freertos_gcc/src/zxing_lib/zxing/common/Counted.h ****       count_ = 0xDEADF001;
 2242              		.loc 3 41 0
 2243 09c0 000053E3 		cmp	r3, #0
 2244 09c4 0500001A 		bne	.L79
  42:/home/zkmike/workspace/RZA2M/rza2m_2d_barcode_sample_freertos_gcc/src/zxing_lib/zxing/common/Counted.h ****       delete this;
 2245              		.loc 3 42 0
 2246 09c8 01300FE3 		movw	r3, #61441
 2247 09cc AD3E4DE3 		movt	r3, 57005
 2248 09d0 043080E5 		str	r3, [r0, #4]
  43:/home/zkmike/workspace/RZA2M/rza2m_2d_barcode_sample_freertos_gcc/src/zxing_lib/zxing/common/Counted.h ****     }
 2249              		.loc 3 43 0
 2250 09d4 003090E5 		ldr	r3, [r0]
 2251 09d8 043093E5 		ldr	r3, [r3, #4]
 2252 09dc 33FF2FE1 		blx	r3
 2253              	.LVL211:
 2254              	.L79:
 2255              	.LBE854:
 2256              	.LBE853:
 2257              	.LBE852:
 2258              	.LBE851:
 2259              	.LBB855:
 2260              	.LBB856:
  75:/home/zkmike/workspace/RZA2M/rza2m_2d_barcode_sample_freertos_gcc/src/zxing_lib/zxing/common/Counted.h ****       object_->release();
 2261              		.loc 3 75 0
 2262 09e0 24009DE5 		ldr	r0, [sp, #36]
 2263 09e4 000050E3 		cmp	r0, #0
 2264 09e8 0A00000A 		beq	.L72
 2265              	.LVL212:
 2266              	.LBB857:
 2267              	.LBB858:
  40:/home/zkmike/workspace/RZA2M/rza2m_2d_barcode_sample_freertos_gcc/src/zxing_lib/zxing/common/Counted.h ****     if (count_ == 0) {
 2268              		.loc 3 40 0
 2269 09ec 043090E5 		ldr	r3, [r0, #4]
 2270 09f0 013043E2 		sub	r3, r3, #1
 2271 09f4 043080E5 		str	r3, [r0, #4]
  41:/home/zkmike/workspace/RZA2M/rza2m_2d_barcode_sample_freertos_gcc/src/zxing_lib/zxing/common/Counted.h ****       count_ = 0xDEADF001;
 2272              		.loc 3 41 0
 2273 09f8 000053E3 		cmp	r3, #0
 2274 09fc 0500001A 		bne	.L72
  42:/home/zkmike/workspace/RZA2M/rza2m_2d_barcode_sample_freertos_gcc/src/zxing_lib/zxing/common/Counted.h ****       delete this;
 2275              		.loc 3 42 0
 2276 0a00 01300FE3 		movw	r3, #61441
 2277 0a04 AD3E4DE3 		movt	r3, 57005
 2278 0a08 043080E5 		str	r3, [r0, #4]
  43:/home/zkmike/workspace/RZA2M/rza2m_2d_barcode_sample_freertos_gcc/src/zxing_lib/zxing/common/Counted.h ****     }
 2279              		.loc 3 43 0
 2280 0a0c 003090E5 		ldr	r3, [r0]
 2281 0a10 043093E5 		ldr	r3, [r3, #4]
 2282 0a14 33FF2FE1 		blx	r3
 2283              	.LVL213:
 2284              	.L72:
 2285              	.LBE858:
 2286              	.LBE857:
 2287              	.LBE856:
 2288              	.LBE855:
 2289              	.LBB859:
 2290              	.LBB860:
  75:/home/zkmike/workspace/RZA2M/rza2m_2d_barcode_sample_freertos_gcc/src/zxing_lib/zxing/common/Counted.h ****       object_->release();
 2291              		.loc 3 75 0
 2292 0a18 28009DE5 		ldr	r0, [sp, #40]
 2293 0a1c 000050E3 		cmp	r0, #0
 2294 0a20 0A00000A 		beq	.L102
 2295              	.LVL214:
 2296              	.LBB861:
 2297              	.LBB862:
  40:/home/zkmike/workspace/RZA2M/rza2m_2d_barcode_sample_freertos_gcc/src/zxing_lib/zxing/common/Counted.h ****     if (count_ == 0) {
 2298              		.loc 3 40 0
 2299 0a24 043090E5 		ldr	r3, [r0, #4]
 2300 0a28 013043E2 		sub	r3, r3, #1
 2301 0a2c 043080E5 		str	r3, [r0, #4]
  41:/home/zkmike/workspace/RZA2M/rza2m_2d_barcode_sample_freertos_gcc/src/zxing_lib/zxing/common/Counted.h ****       count_ = 0xDEADF001;
 2302              		.loc 3 41 0
 2303 0a30 000053E3 		cmp	r3, #0
 2304 0a34 0500001A 		bne	.L102
  42:/home/zkmike/workspace/RZA2M/rza2m_2d_barcode_sample_freertos_gcc/src/zxing_lib/zxing/common/Counted.h ****       delete this;
 2305              		.loc 3 42 0
 2306 0a38 01300FE3 		movw	r3, #61441
 2307 0a3c AD3E4DE3 		movt	r3, 57005
 2308 0a40 043080E5 		str	r3, [r0, #4]
  43:/home/zkmike/workspace/RZA2M/rza2m_2d_barcode_sample_freertos_gcc/src/zxing_lib/zxing/common/Counted.h ****     }
 2309              		.loc 3 43 0
 2310 0a44 003090E5 		ldr	r3, [r0]
 2311 0a48 043093E5 		ldr	r3, [r3, #4]
 2312 0a4c 33FF2FE1 		blx	r3
 2313              	.LVL215:
 2314              	.L102:
 2315              	.LEHB12:
 2316 0a50 FEFFFFEB 		bl	__cxa_end_cleanup
 2317              	.LVL216:
 2318              	.LEHE12:
 2319              	.L110:
 2320 0a54 C5FFFFEA 		b	.L93
 2321              	.LVL217:
 2322              	.L108:
 2323 0a58 D2FFFFEA 		b	.L86
 2324              	.L106:
 2325 0a5c DFFFFFEA 		b	.L79
 2326              	.L104:
 2327 0a60 ECFFFFEA 		b	.L72
 2328              	.LBE862:
 2329              	.LBE861:
 2330              	.LBE860:
 2331              	.LBE859:
 2332              		.cfi_endproc
 2333              	.LFE2277:
 2334              		.personality	__gxx_personality_v0
 2335              		.handlerdata
 2336              		.align	2
 2337              	.LLSDA2277:
 2338 0008 FF       		.byte	0xff
 2339 0009 10       		.byte	0x10
 2340 000a 49       		.uleb128 .LLSDATT2277-.LLSDATTD2277
 2341              	.LLSDATTD2277:
 2342 000b 01       		.byte	0x1
 2343 000c 3F       		.uleb128 .LLSDACSE2277-.LLSDACSB2277
 2344              	.LLSDACSB2277:
 2345 000d 20       		.uleb128 .LEHB2-.LFB2277
 2346 000e 44       		.uleb128 .LEHE2-.LEHB2
 2347 000f 00       		.uleb128 0
 2348 0010 00       		.uleb128 0
 2349 0011 8802     		.uleb128 .LEHB3-.LFB2277
 2350 0013 04       		.uleb128 .LEHE3-.LEHB3
 2351 0014 F80B     		.uleb128 .L103-.LFB2277
 2352 0016 03       		.uleb128 0x3
 2353 0017 B804     		.uleb128 .LEHB4-.LFB2277
 2354 0019 04       		.uleb128 .LEHE4-.LEHB4
 2355 001a A40D     		.uleb128 .L105-.LFB2277
 2356 001c 03       		.uleb128 0x3
 2357 001d B406     		.uleb128 .LEHB5-.LFB2277
 2358 001f 04       		.uleb128 .LEHE5-.LEHB5
 2359 0020 D40E     		.uleb128 .L107-.LFB2277
 2360 0022 03       		.uleb128 0x3
 2361 0023 B008     		.uleb128 .LEHB6-.LFB2277
 2362 0025 04       		.uleb128 .LEHE6-.LEHB6
 2363 0026 8010     		.uleb128 .L109-.LFB2277
 2364 0028 03       		.uleb128 0x3
 2365 0029 AC0A     		.uleb128 .LEHB7-.LFB2277
 2366 002b 04       		.uleb128 .LEHE7-.LEHB7
 2367 002c C811     		.uleb128 .L111-.LFB2277
 2368 002e 00       		.uleb128 0
 2369 002f 9C0D     		.uleb128 .LEHB8-.LFB2277
 2370 0031 04       		.uleb128 .LEHE8-.LEHB8
 2371 0032 E014     		.uleb128 .L104-.LFB2277
 2372 0034 00       		.uleb128 0
 2373 0035 CC0E     		.uleb128 .LEHB9-.LFB2277
 2374 0037 04       		.uleb128 .LEHE9-.LEHB9
 2375 0038 DC14     		.uleb128 .L106-.LFB2277
 2376 003a 00       		.uleb128 0
 2377 003b F80F     		.uleb128 .LEHB10-.LFB2277
 2378 003d 04       		.uleb128 .LEHE10-.LEHB10
 2379 003e D814     		.uleb128 .L108-.LFB2277
 2380 0040 00       		.uleb128 0
 2381 0041 C011     		.uleb128 .LEHB11-.LFB2277
 2382 0043 04       		.uleb128 .LEHE11-.LEHB11
 2383 0044 D414     		.uleb128 .L110-.LFB2277
 2384 0046 00       		.uleb128 0
 2385 0047 D014     		.uleb128 .LEHB12-.LFB2277
 2386 0049 04       		.uleb128 .LEHE12-.LEHB12
 2387 004a 00       		.uleb128 0
 2388 004b 00       		.uleb128 0
 2389              	.LLSDACSE2277:
 2390 004c 00       		.byte	0
 2391 004d 00       		.byte	0
 2392 004e 01       		.byte	0x1
 2393 004f 7D       		.byte	0x7d
 2394              		.align	2
 2395 0050 00000000 		.word	_ZTIN5zxing15ReaderExceptionE(TARGET2)
 2396              	.LLSDATT2277:
 2397              		.section	.text._ZN5zxing5multi16ByQuadrantReader6decodeENS_3RefINS_12BinaryBitmapEEENS_11DecodeHin
 2398              		.fnend
 2400              		.section	.text._GLOBAL__sub_I__ZN5zxing5multi16ByQuadrantReaderC2ERNS_6ReaderE,"ax",%progbits
 2401              		.align	2
 2402              		.syntax unified
 2403              		.arm
 2404              		.fpu neon
 2406              	_GLOBAL__sub_I__ZN5zxing5multi16ByQuadrantReaderC2ERNS_6ReaderE:
 2407              		.fnstart
 2408              	.LFB2743:
 2409              		.loc 1 75 0
 2410              		.cfi_startproc
 2411              		@ args = 0, pretend = 0, frame = 0
 2412              		@ frame_needed = 0, uses_anonymous_args = 0
 2413 0000 10402DE9 		push	{r4, lr}
 2414              		.cfi_def_cfa_offset 8
 2415              		.cfi_offset 4, -8
 2416              		.cfi_offset 14, -4
 2417              		.loc 1 75 0
 2418 0004 FF1F0FE3 		movw	r1, #65535
 2419 0008 0100A0E3 		mov	r0, #1
 2420 000c FEFFFFEB 		bl	_Z41__static_initialization_and_destruction_0ii
 2421              	.LVL218:
 2422 0010 1080BDE8 		pop	{r4, pc}
 2423              		.cfi_endproc
 2424              	.LFE2743:
 2425              		.cantunwind
 2426              		.fnend
 2428              		.section	.init_array,"aw",%init_array
 2429              		.align	2
 2430 0000 00000000 		.word	_GLOBAL__sub_I__ZN5zxing5multi16ByQuadrantReaderC2ERNS_6ReaderE(target1)
 2431              		.weak	_ZTSN5zxing9ExceptionE
 2432              		.section	.rodata._ZTSN5zxing9ExceptionE,"aG",%progbits,_ZTSN5zxing9ExceptionE,comdat
 2433              		.align	2
 2436              	_ZTSN5zxing9ExceptionE:
 2437 0000 4E357A78 		.ascii	"N5zxing9ExceptionE\000"
 2437      696E6739 
 2437      45786365 
 2437      7074696F 
 2437      6E4500
 2438              		.weak	_ZTIN5zxing9ExceptionE
 2439              		.section	.rodata._ZTIN5zxing9ExceptionE,"aG",%progbits,_ZTIN5zxing9ExceptionE,comdat
 2440              		.align	2
 2443              	_ZTIN5zxing9ExceptionE:
 2444 0000 08000000 		.word	_ZTVN10__cxxabiv120__si_class_type_infoE+8
 2445 0004 00000000 		.word	_ZTSN5zxing9ExceptionE
 2446 0008 00000000 		.word	_ZTISt9exception
 2447              		.global	_ZTSN5zxing5multi16ByQuadrantReaderE
 2448              		.global	_ZTIN5zxing5multi16ByQuadrantReaderE
 2449              		.weak	_ZTSN5zxing15ReaderExceptionE
 2450              		.section	.rodata._ZTSN5zxing15ReaderExceptionE,"aG",%progbits,_ZTSN5zxing15ReaderExceptionE,comdat
 2451              		.align	2
 2454              	_ZTSN5zxing15ReaderExceptionE:
 2455 0000 4E357A78 		.ascii	"N5zxing15ReaderExceptionE\000"
 2455      696E6731 
 2455      35526561 
 2455      64657245 
 2455      78636570 
 2456              		.weak	_ZTIN5zxing15ReaderExceptionE
 2457              		.section	.rodata._ZTIN5zxing15ReaderExceptionE,"aG",%progbits,_ZTIN5zxing15ReaderExceptionE,comdat
 2458              		.align	2
 2461              	_ZTIN5zxing15ReaderExceptionE:
 2462 0000 08000000 		.word	_ZTVN10__cxxabiv120__si_class_type_infoE+8
 2463 0004 00000000 		.word	_ZTSN5zxing15ReaderExceptionE
 2464 0008 00000000 		.word	_ZTIN5zxing9ExceptionE
 2465              		.global	_ZTVN5zxing5multi16ByQuadrantReaderE
 2466              		.section	.bss._ZStL8__ioinit,"aw",%nobits
 2467              		.align	2
 2468              		.set	.LANCHOR1,. + 0
 2471              	_ZStL8__ioinit:
 2472 0000 00       		.space	1
 2473              		.section	.rodata._ZTIN5zxing5multi16ByQuadrantReaderE,"a",%progbits
 2474              		.align	2
 2477              	_ZTIN5zxing5multi16ByQuadrantReaderE:
 2478 0000 08000000 		.word	_ZTVN10__cxxabiv120__si_class_type_infoE+8
 2479 0004 00000000 		.word	_ZTSN5zxing5multi16ByQuadrantReaderE
 2480 0008 00000000 		.word	_ZTIN5zxing6ReaderE
 2481              		.section	.rodata._ZTSN5zxing5multi16ByQuadrantReaderE,"a",%progbits
 2482              		.align	2
 2485              	_ZTSN5zxing5multi16ByQuadrantReaderE:
 2486 0000 4E357A78 		.ascii	"N5zxing5multi16ByQuadrantReaderE\000"
 2486      696E6735 
 2486      6D756C74 
 2486      69313642 
 2486      79517561 
 2487              		.section	.rodata._ZTVN5zxing5multi16ByQuadrantReaderE,"a",%progbits
 2488              		.align	2
 2489              		.set	.LANCHOR0,. + 0
 2492              	_ZTVN5zxing5multi16ByQuadrantReaderE:
 2493 0000 00000000 		.word	0
 2494 0004 00000000 		.word	_ZTIN5zxing5multi16ByQuadrantReaderE
 2495 0008 00000000 		.word	_ZN5zxing5multi16ByQuadrantReaderD1Ev
 2496 000c 00000000 		.word	_ZN5zxing5multi16ByQuadrantReaderD0Ev
 2497 0010 00000000 		.word	_ZN5zxing5multi16ByQuadrantReader6decodeENS_3RefINS_12BinaryBitmapEEE
 2498 0014 00000000 		.word	_ZN5zxing5multi16ByQuadrantReader6decodeENS_3RefINS_12BinaryBitmapEEENS_11DecodeHintsE
 2499              		.text
 2500              	.Letext0:
 2501              		.file 5 "/home/zkmike/.local/share/renesas/e2_studio/toolchains/gcc_arm/gcc-arm-none-eabi-6-2017-q
 2502              		.file 6 "/home/zkmike/.local/share/renesas/e2_studio/toolchains/gcc_arm/gcc-arm-none-eabi-6-2017-q
 2503              		.file 7 "/home/zkmike/.local/share/renesas/e2_studio/toolchains/gcc_arm/gcc-arm-none-eabi-6-2017-q
 2504              		.file 8 "/home/zkmike/.local/share/renesas/e2_studio/toolchains/gcc_arm/gcc-arm-none-eabi-6-2017-q
 2505              		.file 9 "/home/zkmike/.local/share/renesas/e2_studio/toolchains/gcc_arm/gcc-arm-none-eabi-6-2017-q
 2506              		.file 10 "/home/zkmike/.local/share/renesas/e2_studio/toolchains/gcc_arm/gcc-arm-none-eabi-6-2017-
 2507              		.file 11 "/home/zkmike/.local/share/renesas/e2_studio/toolchains/gcc_arm/gcc-arm-none-eabi-6-2017-
 2508              		.file 12 "/home/zkmike/.local/share/renesas/e2_studio/toolchains/gcc_arm/gcc-arm-none-eabi-6-2017-
 2509              		.file 13 "/home/zkmike/.local/share/renesas/e2_studio/toolchains/gcc_arm/gcc-arm-none-eabi-6-2017-
 2510              		.file 14 "/home/zkmike/.local/share/renesas/e2_studio/toolchains/gcc_arm/gcc-arm-none-eabi-6-2017-
 2511              		.file 15 "/home/zkmike/.local/share/renesas/e2_studio/toolchains/gcc_arm/gcc-arm-none-eabi-6-2017-
 2512              		.file 16 "/home/zkmike/.local/share/renesas/e2_studio/toolchains/gcc_arm/gcc-arm-none-eabi-6-2017-
 2513              		.file 17 "/home/zkmike/.local/share/renesas/e2_studio/toolchains/gcc_arm/gcc-arm-none-eabi-6-2017-
 2514              		.file 18 "/home/zkmike/.local/share/renesas/e2_studio/toolchains/gcc_arm/gcc-arm-none-eabi-6-2017-
 2515              		.file 19 "/home/zkmike/.local/share/renesas/e2_studio/toolchains/gcc_arm/gcc-arm-none-eabi-6-2017-
 2516              		.file 20 "/home/zkmike/.local/share/renesas/e2_studio/toolchains/gcc_arm/gcc-arm-none-eabi-6-2017-
 2517              		.file 21 "/home/zkmike/.local/share/renesas/e2_studio/toolchains/gcc_arm/gcc-arm-none-eabi-6-2017-
 2518              		.file 22 "/home/zkmike/.local/share/renesas/e2_studio/toolchains/gcc_arm/gcc-arm-none-eabi-6-2017-
 2519              		.file 23 "/home/zkmike/.local/share/renesas/e2_studio/toolchains/gcc_arm/gcc-arm-none-eabi-6-2017-
 2520              		.file 24 "/home/zkmike/.local/share/renesas/e2_studio/toolchains/gcc_arm/gcc-arm-none-eabi-6-2017-
 2521              		.file 25 "/home/zkmike/.local/share/renesas/e2_studio/toolchains/gcc_arm/gcc-arm-none-eabi-6-2017-
 2522              		.file 26 "/home/zkmike/.local/share/renesas/e2_studio/toolchains/gcc_arm/gcc-arm-none-eabi-6-2017-
 2523              		.file 27 "/home/zkmike/.local/share/renesas/e2_studio/toolchains/gcc_arm/gcc-arm-none-eabi-6-2017-
 2524              		.file 28 "/home/zkmike/.local/share/renesas/e2_studio/toolchains/gcc_arm/gcc-arm-none-eabi-6-2017-
 2525              		.file 29 "/home/zkmike/.local/share/renesas/e2_studio/toolchains/gcc_arm/gcc-arm-none-eabi-6-2017-
 2526              		.file 30 "/home/zkmike/.local/share/renesas/e2_studio/toolchains/gcc_arm/gcc-arm-none-eabi-6-2017-
 2527              		.file 31 "/home/zkmike/.local/share/renesas/e2_studio/toolchains/gcc_arm/gcc-arm-none-eabi-6-2017-
 2528              		.file 32 "/home/zkmike/.local/share/renesas/e2_studio/toolchains/gcc_arm/gcc-arm-none-eabi-6-2017-
 2529              		.file 33 "<built-in>"
 2530              		.file 34 "/home/zkmike/.local/share/renesas/e2_studio/toolchains/gcc_arm/gcc-arm-none-eabi-6-2017-
 2531              		.file 35 "/home/zkmike/.local/share/renesas/e2_studio/toolchains/gcc_arm/gcc-arm-none-eabi-6-2017-
 2532              		.file 36 "/home/zkmike/.local/share/renesas/e2_studio/toolchains/gcc_arm/gcc-arm-none-eabi-6-2017-
 2533              		.file 37 "/home/zkmike/.local/share/renesas/e2_studio/toolchains/gcc_arm/gcc-arm-none-eabi-6-2017-
 2534              		.file 38 "/home/zkmike/.local/share/renesas/e2_studio/toolchains/gcc_arm/gcc-arm-none-eabi-6-2017-
 2535              		.file 39 "/home/zkmike/.local/share/renesas/e2_studio/toolchains/gcc_arm/gcc-arm-none-eabi-6-2017-
 2536              		.file 40 "/home/zkmike/.local/share/renesas/e2_studio/toolchains/gcc_arm/gcc-arm-none-eabi-6-2017-
 2537              		.file 41 "/home/zkmike/.local/share/renesas/e2_studio/toolchains/gcc_arm/gcc-arm-none-eabi-6-2017-
 2538              		.file 42 "/home/zkmike/.local/share/renesas/e2_studio/toolchains/gcc_arm/gcc-arm-none-eabi-6-2017-
 2539              		.file 43 "/home/zkmike/.local/share/renesas/e2_studio/toolchains/gcc_arm/gcc-arm-none-eabi-6-2017-
 2540              		.file 44 "/home/zkmike/.local/share/renesas/e2_studio/toolchains/gcc_arm/gcc-arm-none-eabi-6-2017-
 2541              		.file 45 "/home/zkmike/workspace/RZA2M/rza2m_2d_barcode_sample_freertos_gcc/src/zxing_lib/zxing/Ba
 2542              		.file 46 "/home/zkmike/workspace/RZA2M/rza2m_2d_barcode_sample_freertos_gcc/src/zxing_lib/zxing/Bi
 2543              		.file 47 "/home/zkmike/workspace/RZA2M/rza2m_2d_barcode_sample_freertos_gcc/src/zxing_lib/zxing/Re
 2544              		.file 48 "/home/zkmike/workspace/RZA2M/rza2m_2d_barcode_sample_freertos_gcc/src/zxing_lib/zxing/Ex
 2545              		.file 49 "/home/zkmike/workspace/RZA2M/rza2m_2d_barcode_sample_freertos_gcc/src/zxing_lib/zxing/mu
 2546              		.file 50 "/home/zkmike/workspace/RZA2M/rza2m_2d_barcode_sample_freertos_gcc/src/zxing_lib/zxing/Re