   1              		.cpu cortex-a9
   2              		.eabi_attribute 28, 1
   3              		.eabi_attribute 20, 1
   4              		.eabi_attribute 21, 1
   5              		.eabi_attribute 23, 3
   6              		.eabi_attribute 24, 1
   7              		.eabi_attribute 25, 1
   8              		.eabi_attribute 26, 1
   9              		.eabi_attribute 30, 1
  10              		.eabi_attribute 34, 0
  11              		.eabi_attribute 18, 4
  12              		.file	"AlignmentPattern.cpp"
  13              		.text
  14              	.Ltext0:
  15              		.cfi_sections	.debug_frame
  16              		.section	.text._ZN5zxing6qrcode16AlignmentPatternD2Ev,"axG",%progbits,_ZN5zxing6qrcode16AlignmentP
  17              		.align	2
  18              		.weak	_ZN5zxing6qrcode16AlignmentPatternD2Ev
  19              		.syntax unified
  20              		.arm
  21              		.fpu neon
  23              	_ZN5zxing6qrcode16AlignmentPatternD2Ev:
  24              		.fnstart
  25              	.LFB2463:
  26              		.file 1 "/home/zkmike/workspace/RZA2M/rza2m_2d_barcode_sample_freertos_gcc/src/zxing_lib/zxing/qrc
   1:/home/zkmike/workspace/RZA2M/rza2m_2d_barcode_sample_freertos_gcc/src/zxing_lib/zxing/qrcode/detector/AlignmentPattern.h **** // -*- mode:c++; tab-width:2; indent-tabs-mode:nil; c-basic-offset:2 -*-
   2:/home/zkmike/workspace/RZA2M/rza2m_2d_barcode_sample_freertos_gcc/src/zxing_lib/zxing/qrcode/detector/AlignmentPattern.h **** 
   3:/home/zkmike/workspace/RZA2M/rza2m_2d_barcode_sample_freertos_gcc/src/zxing_lib/zxing/qrcode/detector/AlignmentPattern.h **** #ifndef __ALIGNMENT_PATTERN_H__
   4:/home/zkmike/workspace/RZA2M/rza2m_2d_barcode_sample_freertos_gcc/src/zxing_lib/zxing/qrcode/detector/AlignmentPattern.h **** #define __ALIGNMENT_PATTERN_H__
   5:/home/zkmike/workspace/RZA2M/rza2m_2d_barcode_sample_freertos_gcc/src/zxing_lib/zxing/qrcode/detector/AlignmentPattern.h **** 
   6:/home/zkmike/workspace/RZA2M/rza2m_2d_barcode_sample_freertos_gcc/src/zxing_lib/zxing/qrcode/detector/AlignmentPattern.h **** /*
   7:/home/zkmike/workspace/RZA2M/rza2m_2d_barcode_sample_freertos_gcc/src/zxing_lib/zxing/qrcode/detector/AlignmentPattern.h ****  *  AlignmentPattern.h
   8:/home/zkmike/workspace/RZA2M/rza2m_2d_barcode_sample_freertos_gcc/src/zxing_lib/zxing/qrcode/detector/AlignmentPattern.h ****  *  zxing
   9:/home/zkmike/workspace/RZA2M/rza2m_2d_barcode_sample_freertos_gcc/src/zxing_lib/zxing/qrcode/detector/AlignmentPattern.h ****  *
  10:/home/zkmike/workspace/RZA2M/rza2m_2d_barcode_sample_freertos_gcc/src/zxing_lib/zxing/qrcode/detector/AlignmentPattern.h ****  *  Copyright 2010 ZXing authors All rights reserved.
  11:/home/zkmike/workspace/RZA2M/rza2m_2d_barcode_sample_freertos_gcc/src/zxing_lib/zxing/qrcode/detector/AlignmentPattern.h ****  *
  12:/home/zkmike/workspace/RZA2M/rza2m_2d_barcode_sample_freertos_gcc/src/zxing_lib/zxing/qrcode/detector/AlignmentPattern.h ****  * Licensed under the Apache License, Version 2.0 (the "License");
  13:/home/zkmike/workspace/RZA2M/rza2m_2d_barcode_sample_freertos_gcc/src/zxing_lib/zxing/qrcode/detector/AlignmentPattern.h ****  * you may not use this file except in compliance with the License.
  14:/home/zkmike/workspace/RZA2M/rza2m_2d_barcode_sample_freertos_gcc/src/zxing_lib/zxing/qrcode/detector/AlignmentPattern.h ****  * You may obtain a copy of the License at
  15:/home/zkmike/workspace/RZA2M/rza2m_2d_barcode_sample_freertos_gcc/src/zxing_lib/zxing/qrcode/detector/AlignmentPattern.h ****  *
  16:/home/zkmike/workspace/RZA2M/rza2m_2d_barcode_sample_freertos_gcc/src/zxing_lib/zxing/qrcode/detector/AlignmentPattern.h ****  *      http://www.apache.org/licenses/LICENSE-2.0
  17:/home/zkmike/workspace/RZA2M/rza2m_2d_barcode_sample_freertos_gcc/src/zxing_lib/zxing/qrcode/detector/AlignmentPattern.h ****  *
  18:/home/zkmike/workspace/RZA2M/rza2m_2d_barcode_sample_freertos_gcc/src/zxing_lib/zxing/qrcode/detector/AlignmentPattern.h ****  * Unless required by applicable law or agreed to in writing, software
  19:/home/zkmike/workspace/RZA2M/rza2m_2d_barcode_sample_freertos_gcc/src/zxing_lib/zxing/qrcode/detector/AlignmentPattern.h ****  * distributed under the License is distributed on an "AS IS" BASIS,
  20:/home/zkmike/workspace/RZA2M/rza2m_2d_barcode_sample_freertos_gcc/src/zxing_lib/zxing/qrcode/detector/AlignmentPattern.h ****  * WITHOUT WARRANTIES OR CONDITIONS OF ANY KIND, either express or implied.
  21:/home/zkmike/workspace/RZA2M/rza2m_2d_barcode_sample_freertos_gcc/src/zxing_lib/zxing/qrcode/detector/AlignmentPattern.h ****  * See the License for the specific language governing permissions and
  22:/home/zkmike/workspace/RZA2M/rza2m_2d_barcode_sample_freertos_gcc/src/zxing_lib/zxing/qrcode/detector/AlignmentPattern.h ****  * limitations under the License.
  23:/home/zkmike/workspace/RZA2M/rza2m_2d_barcode_sample_freertos_gcc/src/zxing_lib/zxing/qrcode/detector/AlignmentPattern.h ****  */
  24:/home/zkmike/workspace/RZA2M/rza2m_2d_barcode_sample_freertos_gcc/src/zxing_lib/zxing/qrcode/detector/AlignmentPattern.h **** 
  25:/home/zkmike/workspace/RZA2M/rza2m_2d_barcode_sample_freertos_gcc/src/zxing_lib/zxing/qrcode/detector/AlignmentPattern.h **** #include <zxing/ResultPoint.h>
  26:/home/zkmike/workspace/RZA2M/rza2m_2d_barcode_sample_freertos_gcc/src/zxing_lib/zxing/qrcode/detector/AlignmentPattern.h **** #include <cmath>
  27:/home/zkmike/workspace/RZA2M/rza2m_2d_barcode_sample_freertos_gcc/src/zxing_lib/zxing/qrcode/detector/AlignmentPattern.h **** 
  28:/home/zkmike/workspace/RZA2M/rza2m_2d_barcode_sample_freertos_gcc/src/zxing_lib/zxing/qrcode/detector/AlignmentPattern.h **** namespace zxing {
  29:/home/zkmike/workspace/RZA2M/rza2m_2d_barcode_sample_freertos_gcc/src/zxing_lib/zxing/qrcode/detector/AlignmentPattern.h **** 	namespace qrcode {
  30:/home/zkmike/workspace/RZA2M/rza2m_2d_barcode_sample_freertos_gcc/src/zxing_lib/zxing/qrcode/detector/AlignmentPattern.h **** 		
  31:/home/zkmike/workspace/RZA2M/rza2m_2d_barcode_sample_freertos_gcc/src/zxing_lib/zxing/qrcode/detector/AlignmentPattern.h **** 		class AlignmentPattern : public ResultPoint {
  27              		.loc 1 31 0
  28              		.cfi_startproc
  29              		@ args = 0, pretend = 0, frame = 0
  30              		@ frame_needed = 0, uses_anonymous_args = 0
  31              	.LVL0:
  32 0000 10402DE9 		push	{r4, lr}
  33              		.cfi_def_cfa_offset 8
  34              		.cfi_offset 4, -8
  35              		.cfi_offset 14, -4
  36 0004 0040A0E1 		mov	r4, r0
  37              	.LBB20:
  38              		.loc 1 31 0
  39 0008 0C309FE5 		ldr	r3, .L3
  40 000c 003080E5 		str	r3, [r0]
  41 0010 FEFFFFEB 		bl	_ZN5zxing11ResultPointD2Ev
  42              	.LVL1:
  43              	.LBE20:
  44 0014 0400A0E1 		mov	r0, r4
  45 0018 1080BDE8 		pop	{r4, pc}
  46              	.L4:
  47              		.align	2
  48              	.L3:
  49 001c 08000000 		.word	_ZTVN5zxing6qrcode16AlignmentPatternE+8
  50              		.cfi_endproc
  51              	.LFE2463:
  52              		.cantunwind
  53              		.fnend
  55              		.weak	_ZN5zxing6qrcode16AlignmentPatternD1Ev
  56              		.set	_ZN5zxing6qrcode16AlignmentPatternD1Ev,_ZN5zxing6qrcode16AlignmentPatternD2Ev
  57              		.section	.text._ZN5zxing6qrcode16AlignmentPatternD0Ev,"axG",%progbits,_ZN5zxing6qrcode16AlignmentP
  58              		.align	2
  59              		.weak	_ZN5zxing6qrcode16AlignmentPatternD0Ev
  60              		.syntax unified
  61              		.arm
  62              		.fpu neon
  64              	_ZN5zxing6qrcode16AlignmentPatternD0Ev:
  65              		.fnstart
  66              	.LFB2465:
  67              		.loc 1 31 0
  68              		.cfi_startproc
  69              		@ args = 0, pretend = 0, frame = 0
  70              		@ frame_needed = 0, uses_anonymous_args = 0
  71              	.LVL2:
  72 0000 10402DE9 		push	{r4, lr}
  73              		.cfi_def_cfa_offset 8
  74              		.cfi_offset 4, -8
  75              		.cfi_offset 14, -4
  76 0004 0040A0E1 		mov	r4, r0
  77              	.LVL3:
  78              	.LBB21:
  79              	.LBB22:
  80              		.loc 1 31 0
  81 0008 18309FE5 		ldr	r3, .L7
  82 000c 003080E5 		str	r3, [r0]
  83 0010 FEFFFFEB 		bl	_ZN5zxing11ResultPointD2Ev
  84              	.LVL4:
  85              	.LBE22:
  86              	.LBE21:
  87 0014 1410A0E3 		mov	r1, #20
  88 0018 0400A0E1 		mov	r0, r4
  89 001c FEFFFFEB 		bl	_ZdlPvj
  90              	.LVL5:
  91 0020 0400A0E1 		mov	r0, r4
  92 0024 1080BDE8 		pop	{r4, pc}
  93              	.L8:
  94              		.align	2
  95              	.L7:
  96 0028 08000000 		.word	_ZTVN5zxing6qrcode16AlignmentPatternE+8
  97              		.cfi_endproc
  98              	.LFE2465:
  99              		.cantunwind
 100              		.fnend
 102              		.section	.text._Z41__static_initialization_and_destruction_0ii,"ax",%progbits
 103              		.align	2
 104              		.syntax unified
 105              		.arm
 106              		.fpu neon
 108              	_Z41__static_initialization_and_destruction_0ii:
 109              		.fnstart
 110              	.LFB2466:
 111              		.file 2 "../src/zxing_lib/zxing/qrcode/detector/AlignmentPattern.cpp"
   1:../src/zxing_lib/zxing/qrcode/detector/AlignmentPattern.cpp **** // -*- mode:c++; tab-width:2; indent-tabs-mode:nil; c-basic-offset:2 -*-
   2:../src/zxing_lib/zxing/qrcode/detector/AlignmentPattern.cpp **** /*
   3:../src/zxing_lib/zxing/qrcode/detector/AlignmentPattern.cpp ****  *  AlignmentPattern.cpp
   4:../src/zxing_lib/zxing/qrcode/detector/AlignmentPattern.cpp ****  *  zxing
   5:../src/zxing_lib/zxing/qrcode/detector/AlignmentPattern.cpp ****  *
   6:../src/zxing_lib/zxing/qrcode/detector/AlignmentPattern.cpp ****  *  Created by Christian Brunschen on 13/05/2008.
   7:../src/zxing_lib/zxing/qrcode/detector/AlignmentPattern.cpp ****  *  Copyright 2008 ZXing authors All rights reserved.
   8:../src/zxing_lib/zxing/qrcode/detector/AlignmentPattern.cpp ****  *
   9:../src/zxing_lib/zxing/qrcode/detector/AlignmentPattern.cpp ****  * Licensed under the Apache License, Version 2.0 (the "License");
  10:../src/zxing_lib/zxing/qrcode/detector/AlignmentPattern.cpp ****  * you may not use this file except in compliance with the License.
  11:../src/zxing_lib/zxing/qrcode/detector/AlignmentPattern.cpp ****  * You may obtain a copy of the License at
  12:../src/zxing_lib/zxing/qrcode/detector/AlignmentPattern.cpp ****  *
  13:../src/zxing_lib/zxing/qrcode/detector/AlignmentPattern.cpp ****  *      http://www.apache.org/licenses/LICENSE-2.0
  14:../src/zxing_lib/zxing/qrcode/detector/AlignmentPattern.cpp ****  *
  15:../src/zxing_lib/zxing/qrcode/detector/AlignmentPattern.cpp ****  * Unless required by applicable law or agreed to in writing, software
  16:../src/zxing_lib/zxing/qrcode/detector/AlignmentPattern.cpp ****  * distributed under the License is distributed on an "AS IS" BASIS,
  17:../src/zxing_lib/zxing/qrcode/detector/AlignmentPattern.cpp ****  * WITHOUT WARRANTIES OR CONDITIONS OF ANY KIND, either express or implied.
  18:../src/zxing_lib/zxing/qrcode/detector/AlignmentPattern.cpp ****  * See the License for the specific language governing permissions and
  19:../src/zxing_lib/zxing/qrcode/detector/AlignmentPattern.cpp ****  * limitations under the License.
  20:../src/zxing_lib/zxing/qrcode/detector/AlignmentPattern.cpp ****  */
  21:../src/zxing_lib/zxing/qrcode/detector/AlignmentPattern.cpp **** 
  22:../src/zxing_lib/zxing/qrcode/detector/AlignmentPattern.cpp **** #include <zxing/qrcode/detector/AlignmentPattern.h>
  23:../src/zxing_lib/zxing/qrcode/detector/AlignmentPattern.cpp **** 
  24:../src/zxing_lib/zxing/qrcode/detector/AlignmentPattern.cpp **** using std::abs;
  25:../src/zxing_lib/zxing/qrcode/detector/AlignmentPattern.cpp **** using zxing::Ref;
  26:../src/zxing_lib/zxing/qrcode/detector/AlignmentPattern.cpp **** using zxing::qrcode::AlignmentPattern;
  27:../src/zxing_lib/zxing/qrcode/detector/AlignmentPattern.cpp **** 
  28:../src/zxing_lib/zxing/qrcode/detector/AlignmentPattern.cpp **** AlignmentPattern::AlignmentPattern(float posX, float posY, float estimatedModuleSize) :
  29:../src/zxing_lib/zxing/qrcode/detector/AlignmentPattern.cpp ****     ResultPoint(posX,posY), estimatedModuleSize_(estimatedModuleSize) {
  30:../src/zxing_lib/zxing/qrcode/detector/AlignmentPattern.cpp **** }
  31:../src/zxing_lib/zxing/qrcode/detector/AlignmentPattern.cpp **** 
  32:../src/zxing_lib/zxing/qrcode/detector/AlignmentPattern.cpp **** bool AlignmentPattern::aboutEquals(float moduleSize, float i, float j) const {
  33:../src/zxing_lib/zxing/qrcode/detector/AlignmentPattern.cpp ****   if (abs(i - getY()) <= moduleSize && abs(j - getX()) <= moduleSize) {
  34:../src/zxing_lib/zxing/qrcode/detector/AlignmentPattern.cpp ****     float moduleSizeDiff = abs(moduleSize - estimatedModuleSize_);
  35:../src/zxing_lib/zxing/qrcode/detector/AlignmentPattern.cpp ****     return moduleSizeDiff <= 1.0f || moduleSizeDiff <= estimatedModuleSize_;
  36:../src/zxing_lib/zxing/qrcode/detector/AlignmentPattern.cpp ****   }
  37:../src/zxing_lib/zxing/qrcode/detector/AlignmentPattern.cpp ****   return false;
  38:../src/zxing_lib/zxing/qrcode/detector/AlignmentPattern.cpp **** }
  39:../src/zxing_lib/zxing/qrcode/detector/AlignmentPattern.cpp **** 
  40:../src/zxing_lib/zxing/qrcode/detector/AlignmentPattern.cpp **** Ref<AlignmentPattern> AlignmentPattern::combineEstimate(float i, float j, float newModuleSize) cons
  41:../src/zxing_lib/zxing/qrcode/detector/AlignmentPattern.cpp ****   float combinedX = (getX() + j) / 2.0f;
  42:../src/zxing_lib/zxing/qrcode/detector/AlignmentPattern.cpp ****   float combinedY = (getY() + i) / 2.0f;
  43:../src/zxing_lib/zxing/qrcode/detector/AlignmentPattern.cpp ****   float combinedModuleSize = (estimatedModuleSize_ + newModuleSize) / 2.0f;
  44:../src/zxing_lib/zxing/qrcode/detector/AlignmentPattern.cpp ****   Ref<AlignmentPattern> result
  45:../src/zxing_lib/zxing/qrcode/detector/AlignmentPattern.cpp ****       (new AlignmentPattern(combinedX, combinedY, combinedModuleSize));
  46:../src/zxing_lib/zxing/qrcode/detector/AlignmentPattern.cpp ****   return result;
  47:../src/zxing_lib/zxing/qrcode/detector/AlignmentPattern.cpp **** }
 112              		.loc 2 47 0
 113              		.cfi_startproc
 114              		@ args = 0, pretend = 0, frame = 0
 115              		@ frame_needed = 0, uses_anonymous_args = 0
 116              	.LVL6:
 117 0000 010050E3 		cmp	r0, #1
 118 0004 1EFF2F11 		bxne	lr
 119              		.loc 2 47 0 is_stmt 0 discriminator 1
 120 0008 FF3F0FE3 		movw	r3, #65535
 121 000c 030051E1 		cmp	r1, r3
 122 0010 1EFF2F11 		bxne	lr
 123              		.loc 2 47 0
 124 0014 10402DE9 		push	{r4, lr}
 125              		.cfi_def_cfa_offset 8
 126              		.cfi_offset 4, -8
 127              		.cfi_offset 14, -4
 128              		.file 3 "/home/zkmike/.local/share/renesas/e2_studio/toolchains/gcc_arm/gcc-arm-none-eabi-6-2017-q
   1:/home/zkmike/.local/share/renesas/e2_studio/toolchains/gcc_arm/gcc-arm-none-eabi-6-2017-q2-update/arm-none-eabi/include/c++/6.3.1/iostream **** // Standard iostream objects -*- C++ -*-
   2:/home/zkmike/.local/share/renesas/e2_studio/toolchains/gcc_arm/gcc-arm-none-eabi-6-2017-q2-update/arm-none-eabi/include/c++/6.3.1/iostream **** 
   3:/home/zkmike/.local/share/renesas/e2_studio/toolchains/gcc_arm/gcc-arm-none-eabi-6-2017-q2-update/arm-none-eabi/include/c++/6.3.1/iostream **** // Copyright (C) 1997-2016 Free Software Foundation, Inc.
   4:/home/zkmike/.local/share/renesas/e2_studio/toolchains/gcc_arm/gcc-arm-none-eabi-6-2017-q2-update/arm-none-eabi/include/c++/6.3.1/iostream **** //
   5:/home/zkmike/.local/share/renesas/e2_studio/toolchains/gcc_arm/gcc-arm-none-eabi-6-2017-q2-update/arm-none-eabi/include/c++/6.3.1/iostream **** // This file is part of the GNU ISO C++ Library.  This library is free
   6:/home/zkmike/.local/share/renesas/e2_studio/toolchains/gcc_arm/gcc-arm-none-eabi-6-2017-q2-update/arm-none-eabi/include/c++/6.3.1/iostream **** // software; you can redistribute it and/or modify it under the
   7:/home/zkmike/.local/share/renesas/e2_studio/toolchains/gcc_arm/gcc-arm-none-eabi-6-2017-q2-update/arm-none-eabi/include/c++/6.3.1/iostream **** // terms of the GNU General Public License as published by the
   8:/home/zkmike/.local/share/renesas/e2_studio/toolchains/gcc_arm/gcc-arm-none-eabi-6-2017-q2-update/arm-none-eabi/include/c++/6.3.1/iostream **** // Free Software Foundation; either version 3, or (at your option)
   9:/home/zkmike/.local/share/renesas/e2_studio/toolchains/gcc_arm/gcc-arm-none-eabi-6-2017-q2-update/arm-none-eabi/include/c++/6.3.1/iostream **** // any later version.
  10:/home/zkmike/.local/share/renesas/e2_studio/toolchains/gcc_arm/gcc-arm-none-eabi-6-2017-q2-update/arm-none-eabi/include/c++/6.3.1/iostream **** 
  11:/home/zkmike/.local/share/renesas/e2_studio/toolchains/gcc_arm/gcc-arm-none-eabi-6-2017-q2-update/arm-none-eabi/include/c++/6.3.1/iostream **** // This library is distributed in the hope that it will be useful,
  12:/home/zkmike/.local/share/renesas/e2_studio/toolchains/gcc_arm/gcc-arm-none-eabi-6-2017-q2-update/arm-none-eabi/include/c++/6.3.1/iostream **** // but WITHOUT ANY WARRANTY; without even the implied warranty of
  13:/home/zkmike/.local/share/renesas/e2_studio/toolchains/gcc_arm/gcc-arm-none-eabi-6-2017-q2-update/arm-none-eabi/include/c++/6.3.1/iostream **** // MERCHANTABILITY or FITNESS FOR A PARTICULAR PURPOSE.  See the
  14:/home/zkmike/.local/share/renesas/e2_studio/toolchains/gcc_arm/gcc-arm-none-eabi-6-2017-q2-update/arm-none-eabi/include/c++/6.3.1/iostream **** // GNU General Public License for more details.
  15:/home/zkmike/.local/share/renesas/e2_studio/toolchains/gcc_arm/gcc-arm-none-eabi-6-2017-q2-update/arm-none-eabi/include/c++/6.3.1/iostream **** 
  16:/home/zkmike/.local/share/renesas/e2_studio/toolchains/gcc_arm/gcc-arm-none-eabi-6-2017-q2-update/arm-none-eabi/include/c++/6.3.1/iostream **** // Under Section 7 of GPL version 3, you are granted additional
  17:/home/zkmike/.local/share/renesas/e2_studio/toolchains/gcc_arm/gcc-arm-none-eabi-6-2017-q2-update/arm-none-eabi/include/c++/6.3.1/iostream **** // permissions described in the GCC Runtime Library Exception, version
  18:/home/zkmike/.local/share/renesas/e2_studio/toolchains/gcc_arm/gcc-arm-none-eabi-6-2017-q2-update/arm-none-eabi/include/c++/6.3.1/iostream **** // 3.1, as published by the Free Software Foundation.
  19:/home/zkmike/.local/share/renesas/e2_studio/toolchains/gcc_arm/gcc-arm-none-eabi-6-2017-q2-update/arm-none-eabi/include/c++/6.3.1/iostream **** 
  20:/home/zkmike/.local/share/renesas/e2_studio/toolchains/gcc_arm/gcc-arm-none-eabi-6-2017-q2-update/arm-none-eabi/include/c++/6.3.1/iostream **** // You should have received a copy of the GNU General Public License and
  21:/home/zkmike/.local/share/renesas/e2_studio/toolchains/gcc_arm/gcc-arm-none-eabi-6-2017-q2-update/arm-none-eabi/include/c++/6.3.1/iostream **** // a copy of the GCC Runtime Library Exception along with this program;
  22:/home/zkmike/.local/share/renesas/e2_studio/toolchains/gcc_arm/gcc-arm-none-eabi-6-2017-q2-update/arm-none-eabi/include/c++/6.3.1/iostream **** // see the files COPYING3 and COPYING.RUNTIME respectively.  If not, see
  23:/home/zkmike/.local/share/renesas/e2_studio/toolchains/gcc_arm/gcc-arm-none-eabi-6-2017-q2-update/arm-none-eabi/include/c++/6.3.1/iostream **** // <http://www.gnu.org/licenses/>.
  24:/home/zkmike/.local/share/renesas/e2_studio/toolchains/gcc_arm/gcc-arm-none-eabi-6-2017-q2-update/arm-none-eabi/include/c++/6.3.1/iostream **** 
  25:/home/zkmike/.local/share/renesas/e2_studio/toolchains/gcc_arm/gcc-arm-none-eabi-6-2017-q2-update/arm-none-eabi/include/c++/6.3.1/iostream **** /** @file include/iostream
  26:/home/zkmike/.local/share/renesas/e2_studio/toolchains/gcc_arm/gcc-arm-none-eabi-6-2017-q2-update/arm-none-eabi/include/c++/6.3.1/iostream ****  *  This is a Standard C++ Library header.
  27:/home/zkmike/.local/share/renesas/e2_studio/toolchains/gcc_arm/gcc-arm-none-eabi-6-2017-q2-update/arm-none-eabi/include/c++/6.3.1/iostream ****  */
  28:/home/zkmike/.local/share/renesas/e2_studio/toolchains/gcc_arm/gcc-arm-none-eabi-6-2017-q2-update/arm-none-eabi/include/c++/6.3.1/iostream **** 
  29:/home/zkmike/.local/share/renesas/e2_studio/toolchains/gcc_arm/gcc-arm-none-eabi-6-2017-q2-update/arm-none-eabi/include/c++/6.3.1/iostream **** //
  30:/home/zkmike/.local/share/renesas/e2_studio/toolchains/gcc_arm/gcc-arm-none-eabi-6-2017-q2-update/arm-none-eabi/include/c++/6.3.1/iostream **** // ISO C++ 14882: 27.3  Standard iostream objects
  31:/home/zkmike/.local/share/renesas/e2_studio/toolchains/gcc_arm/gcc-arm-none-eabi-6-2017-q2-update/arm-none-eabi/include/c++/6.3.1/iostream **** //
  32:/home/zkmike/.local/share/renesas/e2_studio/toolchains/gcc_arm/gcc-arm-none-eabi-6-2017-q2-update/arm-none-eabi/include/c++/6.3.1/iostream **** 
  33:/home/zkmike/.local/share/renesas/e2_studio/toolchains/gcc_arm/gcc-arm-none-eabi-6-2017-q2-update/arm-none-eabi/include/c++/6.3.1/iostream **** #ifndef _GLIBCXX_IOSTREAM
  34:/home/zkmike/.local/share/renesas/e2_studio/toolchains/gcc_arm/gcc-arm-none-eabi-6-2017-q2-update/arm-none-eabi/include/c++/6.3.1/iostream **** #define _GLIBCXX_IOSTREAM 1
  35:/home/zkmike/.local/share/renesas/e2_studio/toolchains/gcc_arm/gcc-arm-none-eabi-6-2017-q2-update/arm-none-eabi/include/c++/6.3.1/iostream **** 
  36:/home/zkmike/.local/share/renesas/e2_studio/toolchains/gcc_arm/gcc-arm-none-eabi-6-2017-q2-update/arm-none-eabi/include/c++/6.3.1/iostream **** #pragma GCC system_header
  37:/home/zkmike/.local/share/renesas/e2_studio/toolchains/gcc_arm/gcc-arm-none-eabi-6-2017-q2-update/arm-none-eabi/include/c++/6.3.1/iostream **** 
  38:/home/zkmike/.local/share/renesas/e2_studio/toolchains/gcc_arm/gcc-arm-none-eabi-6-2017-q2-update/arm-none-eabi/include/c++/6.3.1/iostream **** #include <bits/c++config.h>
  39:/home/zkmike/.local/share/renesas/e2_studio/toolchains/gcc_arm/gcc-arm-none-eabi-6-2017-q2-update/arm-none-eabi/include/c++/6.3.1/iostream **** #include <ostream>
  40:/home/zkmike/.local/share/renesas/e2_studio/toolchains/gcc_arm/gcc-arm-none-eabi-6-2017-q2-update/arm-none-eabi/include/c++/6.3.1/iostream **** #include <istream>
  41:/home/zkmike/.local/share/renesas/e2_studio/toolchains/gcc_arm/gcc-arm-none-eabi-6-2017-q2-update/arm-none-eabi/include/c++/6.3.1/iostream **** 
  42:/home/zkmike/.local/share/renesas/e2_studio/toolchains/gcc_arm/gcc-arm-none-eabi-6-2017-q2-update/arm-none-eabi/include/c++/6.3.1/iostream **** namespace std _GLIBCXX_VISIBILITY(default)
  43:/home/zkmike/.local/share/renesas/e2_studio/toolchains/gcc_arm/gcc-arm-none-eabi-6-2017-q2-update/arm-none-eabi/include/c++/6.3.1/iostream **** {
  44:/home/zkmike/.local/share/renesas/e2_studio/toolchains/gcc_arm/gcc-arm-none-eabi-6-2017-q2-update/arm-none-eabi/include/c++/6.3.1/iostream **** _GLIBCXX_BEGIN_NAMESPACE_VERSION
  45:/home/zkmike/.local/share/renesas/e2_studio/toolchains/gcc_arm/gcc-arm-none-eabi-6-2017-q2-update/arm-none-eabi/include/c++/6.3.1/iostream **** 
  46:/home/zkmike/.local/share/renesas/e2_studio/toolchains/gcc_arm/gcc-arm-none-eabi-6-2017-q2-update/arm-none-eabi/include/c++/6.3.1/iostream ****   /**
  47:/home/zkmike/.local/share/renesas/e2_studio/toolchains/gcc_arm/gcc-arm-none-eabi-6-2017-q2-update/arm-none-eabi/include/c++/6.3.1/iostream ****    *  @name Standard Stream Objects
  48:/home/zkmike/.local/share/renesas/e2_studio/toolchains/gcc_arm/gcc-arm-none-eabi-6-2017-q2-update/arm-none-eabi/include/c++/6.3.1/iostream ****    *
  49:/home/zkmike/.local/share/renesas/e2_studio/toolchains/gcc_arm/gcc-arm-none-eabi-6-2017-q2-update/arm-none-eabi/include/c++/6.3.1/iostream ****    *  The &lt;iostream&gt; header declares the eight <em>standard stream
  50:/home/zkmike/.local/share/renesas/e2_studio/toolchains/gcc_arm/gcc-arm-none-eabi-6-2017-q2-update/arm-none-eabi/include/c++/6.3.1/iostream ****    *  objects</em>.  For other declarations, see
  51:/home/zkmike/.local/share/renesas/e2_studio/toolchains/gcc_arm/gcc-arm-none-eabi-6-2017-q2-update/arm-none-eabi/include/c++/6.3.1/iostream ****    *  http://gcc.gnu.org/onlinedocs/libstdc++/manual/io.html
  52:/home/zkmike/.local/share/renesas/e2_studio/toolchains/gcc_arm/gcc-arm-none-eabi-6-2017-q2-update/arm-none-eabi/include/c++/6.3.1/iostream ****    *  and the @link iosfwd I/O forward declarations @endlink
  53:/home/zkmike/.local/share/renesas/e2_studio/toolchains/gcc_arm/gcc-arm-none-eabi-6-2017-q2-update/arm-none-eabi/include/c++/6.3.1/iostream ****    *
  54:/home/zkmike/.local/share/renesas/e2_studio/toolchains/gcc_arm/gcc-arm-none-eabi-6-2017-q2-update/arm-none-eabi/include/c++/6.3.1/iostream ****    *  They are required by default to cooperate with the global C
  55:/home/zkmike/.local/share/renesas/e2_studio/toolchains/gcc_arm/gcc-arm-none-eabi-6-2017-q2-update/arm-none-eabi/include/c++/6.3.1/iostream ****    *  library's @c FILE streams, and to be available during program
  56:/home/zkmike/.local/share/renesas/e2_studio/toolchains/gcc_arm/gcc-arm-none-eabi-6-2017-q2-update/arm-none-eabi/include/c++/6.3.1/iostream ****    *  startup and termination. For more information, see the section of the
  57:/home/zkmike/.local/share/renesas/e2_studio/toolchains/gcc_arm/gcc-arm-none-eabi-6-2017-q2-update/arm-none-eabi/include/c++/6.3.1/iostream ****    *  manual linked to above.
  58:/home/zkmike/.local/share/renesas/e2_studio/toolchains/gcc_arm/gcc-arm-none-eabi-6-2017-q2-update/arm-none-eabi/include/c++/6.3.1/iostream ****   */
  59:/home/zkmike/.local/share/renesas/e2_studio/toolchains/gcc_arm/gcc-arm-none-eabi-6-2017-q2-update/arm-none-eabi/include/c++/6.3.1/iostream ****   //@{
  60:/home/zkmike/.local/share/renesas/e2_studio/toolchains/gcc_arm/gcc-arm-none-eabi-6-2017-q2-update/arm-none-eabi/include/c++/6.3.1/iostream ****   extern istream cin;		/// Linked to standard input
  61:/home/zkmike/.local/share/renesas/e2_studio/toolchains/gcc_arm/gcc-arm-none-eabi-6-2017-q2-update/arm-none-eabi/include/c++/6.3.1/iostream ****   extern ostream cout;		/// Linked to standard output
  62:/home/zkmike/.local/share/renesas/e2_studio/toolchains/gcc_arm/gcc-arm-none-eabi-6-2017-q2-update/arm-none-eabi/include/c++/6.3.1/iostream ****   extern ostream cerr;		/// Linked to standard error (unbuffered)
  63:/home/zkmike/.local/share/renesas/e2_studio/toolchains/gcc_arm/gcc-arm-none-eabi-6-2017-q2-update/arm-none-eabi/include/c++/6.3.1/iostream ****   extern ostream clog;		/// Linked to standard error (buffered)
  64:/home/zkmike/.local/share/renesas/e2_studio/toolchains/gcc_arm/gcc-arm-none-eabi-6-2017-q2-update/arm-none-eabi/include/c++/6.3.1/iostream **** 
  65:/home/zkmike/.local/share/renesas/e2_studio/toolchains/gcc_arm/gcc-arm-none-eabi-6-2017-q2-update/arm-none-eabi/include/c++/6.3.1/iostream **** #ifdef _GLIBCXX_USE_WCHAR_T
  66:/home/zkmike/.local/share/renesas/e2_studio/toolchains/gcc_arm/gcc-arm-none-eabi-6-2017-q2-update/arm-none-eabi/include/c++/6.3.1/iostream ****   extern wistream wcin;		/// Linked to standard input
  67:/home/zkmike/.local/share/renesas/e2_studio/toolchains/gcc_arm/gcc-arm-none-eabi-6-2017-q2-update/arm-none-eabi/include/c++/6.3.1/iostream ****   extern wostream wcout;	/// Linked to standard output
  68:/home/zkmike/.local/share/renesas/e2_studio/toolchains/gcc_arm/gcc-arm-none-eabi-6-2017-q2-update/arm-none-eabi/include/c++/6.3.1/iostream ****   extern wostream wcerr;	/// Linked to standard error (unbuffered)
  69:/home/zkmike/.local/share/renesas/e2_studio/toolchains/gcc_arm/gcc-arm-none-eabi-6-2017-q2-update/arm-none-eabi/include/c++/6.3.1/iostream ****   extern wostream wclog;	/// Linked to standard error (buffered)
  70:/home/zkmike/.local/share/renesas/e2_studio/toolchains/gcc_arm/gcc-arm-none-eabi-6-2017-q2-update/arm-none-eabi/include/c++/6.3.1/iostream **** #endif
  71:/home/zkmike/.local/share/renesas/e2_studio/toolchains/gcc_arm/gcc-arm-none-eabi-6-2017-q2-update/arm-none-eabi/include/c++/6.3.1/iostream ****   //@}
  72:/home/zkmike/.local/share/renesas/e2_studio/toolchains/gcc_arm/gcc-arm-none-eabi-6-2017-q2-update/arm-none-eabi/include/c++/6.3.1/iostream **** 
  73:/home/zkmike/.local/share/renesas/e2_studio/toolchains/gcc_arm/gcc-arm-none-eabi-6-2017-q2-update/arm-none-eabi/include/c++/6.3.1/iostream ****   // For construction of filebuffers for cout, cin, cerr, clog et. al.
  74:/home/zkmike/.local/share/renesas/e2_studio/toolchains/gcc_arm/gcc-arm-none-eabi-6-2017-q2-update/arm-none-eabi/include/c++/6.3.1/iostream ****   static ios_base::Init __ioinit;
 129              		.loc 3 74 0 is_stmt 1
 130 0018 004000E3 		movw	r4, #:lower16:.LANCHOR0
 131 001c 004040E3 		movt	r4, #:upper16:.LANCHOR0
 132 0020 0400A0E1 		mov	r0, r4
 133              	.LVL7:
 134 0024 FEFFFFEB 		bl	_ZNSt8ios_base4InitC1Ev
 135              	.LVL8:
 136 0028 002000E3 		movw	r2, #:lower16:__dso_handle
 137 002c 002040E3 		movt	r2, #:upper16:__dso_handle
 138 0030 001000E3 		movw	r1, #:lower16:_ZNSt8ios_base4InitD1Ev
 139 0034 001040E3 		movt	r1, #:upper16:_ZNSt8ios_base4InitD1Ev
 140 0038 0400A0E1 		mov	r0, r4
 141 003c FEFFFFEB 		bl	__aeabi_atexit
 142              	.LVL9:
 143 0040 1080BDE8 		pop	{r4, pc}
 144              		.cfi_endproc
 145              	.LFE2466:
 146              		.cantunwind
 147              		.fnend
 149              		.section	.text._ZN5zxing6qrcode16AlignmentPatternC2Efff,"ax",%progbits
 150              		.align	2
 151              		.global	_ZN5zxing6qrcode16AlignmentPatternC2Efff
 152              		.syntax unified
 153              		.arm
 154              		.fpu neon
 156              	_ZN5zxing6qrcode16AlignmentPatternC2Efff:
 157              		.fnstart
 158              	.LFB2010:
  28:../src/zxing_lib/zxing/qrcode/detector/AlignmentPattern.cpp ****     ResultPoint(posX,posY), estimatedModuleSize_(estimatedModuleSize) {
 159              		.loc 2 28 0
 160              		.cfi_startproc
 161              		@ args = 0, pretend = 0, frame = 0
 162              		@ frame_needed = 0, uses_anonymous_args = 0
 163              	.LVL10:
 164 0000 10402DE9 		push	{r4, lr}
 165              		.save {r4, lr}
 166              		.cfi_def_cfa_offset 8
 167              		.cfi_offset 4, -8
 168              		.cfi_offset 14, -4
 169 0004 028B2DED 		vpush.64	{d8}
 170              		.vsave {d8}
 171              		.cfi_def_cfa_offset 16
 172              		.cfi_offset 80, -16
 173              		.cfi_offset 81, -12
 174 0008 0040A0E1 		mov	r4, r0
 175 000c 418AB0EE 		vmov.f32	s16, s2
 176              	.LBB23:
  29:../src/zxing_lib/zxing/qrcode/detector/AlignmentPattern.cpp **** }
 177              		.loc 2 29 0
 178 0010 FEFFFFEB 		bl	_ZN5zxing11ResultPointC2Eff
 179              	.LVL11:
 180 0014 10309FE5 		ldr	r3, .L17
 181 0018 003084E5 		str	r3, [r4]
 182 001c 048A84ED 		vstr.32	s16, [r4, #16]
 183              	.LBE23:
  30:../src/zxing_lib/zxing/qrcode/detector/AlignmentPattern.cpp **** 
 184              		.loc 2 30 0
 185 0020 0400A0E1 		mov	r0, r4
 186 0024 028BBDEC 		vldm	sp!, {d8}
 187              		.cfi_restore 80
 188              		.cfi_restore 81
 189              		.cfi_def_cfa_offset 8
 190              	.LVL12:
 191 0028 1080BDE8 		pop	{r4, pc}
 192              	.LVL13:
 193              	.L18:
 194              		.align	2
 195              	.L17:
 196 002c 08000000 		.word	_ZTVN5zxing6qrcode16AlignmentPatternE+8
 197              		.cfi_endproc
 198              	.LFE2010:
 199              		.fnend
 201              		.global	_ZN5zxing6qrcode16AlignmentPatternC1Efff
 202              		.set	_ZN5zxing6qrcode16AlignmentPatternC1Efff,_ZN5zxing6qrcode16AlignmentPatternC2Efff
 203              		.section	.text._ZNK5zxing6qrcode16AlignmentPattern11aboutEqualsEfff,"ax",%progbits
 204              		.align	2
 205              		.global	_ZNK5zxing6qrcode16AlignmentPattern11aboutEqualsEfff
 206              		.syntax unified
 207              		.arm
 208              		.fpu neon
 210              	_ZNK5zxing6qrcode16AlignmentPattern11aboutEqualsEfff:
 211              		.fnstart
 212              	.LFB2012:
  32:../src/zxing_lib/zxing/qrcode/detector/AlignmentPattern.cpp ****   if (abs(i - getY()) <= moduleSize && abs(j - getX()) <= moduleSize) {
 213              		.loc 2 32 0
 214              		.cfi_startproc
 215              		@ args = 0, pretend = 0, frame = 0
 216              		@ frame_needed = 0, uses_anonymous_args = 0
 217              	.LVL14:
 218 0000 10402DE9 		push	{r4, lr}
 219              		.save {r4, lr}
 220              		.cfi_def_cfa_offset 8
 221              		.cfi_offset 4, -8
 222              		.cfi_offset 14, -4
 223 0004 048B2DED 		vpush.64	{d8, d9}
 224              		.vsave {d8, d9}
 225              		.cfi_def_cfa_offset 24
 226              		.cfi_offset 80, -24
 227              		.cfi_offset 81, -20
 228              		.cfi_offset 82, -16
 229              		.cfi_offset 83, -12
 230 0008 0040A0E1 		mov	r4, r0
 231 000c 408AF0EE 		vmov.f32	s17, s0
 232 0010 608AB0EE 		vmov.f32	s16, s1
 233 0014 419AB0EE 		vmov.f32	s18, s2
 234              	.LBB24:
  33:../src/zxing_lib/zxing/qrcode/detector/AlignmentPattern.cpp ****     float moduleSizeDiff = abs(moduleSize - estimatedModuleSize_);
 235              		.loc 2 33 0
 236 0018 003090E5 		ldr	r3, [r0]
 237 001c 0C3093E5 		ldr	r3, [r3, #12]
 238 0020 33FF2FE1 		blx	r3
 239              	.LVL15:
 240 0024 400A38EE 		vsub.f32	s0, s16, s0
 241              	.LVL16:
 242              	.LBB25:
 243              	.LBB26:
 244              		.file 4 "/home/zkmike/.local/share/renesas/e2_studio/toolchains/gcc_arm/gcc-arm-none-eabi-6-2017-q
   1:/home/zkmike/.local/share/renesas/e2_studio/toolchains/gcc_arm/gcc-arm-none-eabi-6-2017-q2-update/arm-none-eabi/include/c++/6.3.1/cmath **** // -*- C++ -*- C forwarding header.
   2:/home/zkmike/.local/share/renesas/e2_studio/toolchains/gcc_arm/gcc-arm-none-eabi-6-2017-q2-update/arm-none-eabi/include/c++/6.3.1/cmath **** 
   3:/home/zkmike/.local/share/renesas/e2_studio/toolchains/gcc_arm/gcc-arm-none-eabi-6-2017-q2-update/arm-none-eabi/include/c++/6.3.1/cmath **** // Copyright (C) 1997-2016 Free Software Foundation, Inc.
   4:/home/zkmike/.local/share/renesas/e2_studio/toolchains/gcc_arm/gcc-arm-none-eabi-6-2017-q2-update/arm-none-eabi/include/c++/6.3.1/cmath **** //
   5:/home/zkmike/.local/share/renesas/e2_studio/toolchains/gcc_arm/gcc-arm-none-eabi-6-2017-q2-update/arm-none-eabi/include/c++/6.3.1/cmath **** // This file is part of the GNU ISO C++ Library.  This library is free
   6:/home/zkmike/.local/share/renesas/e2_studio/toolchains/gcc_arm/gcc-arm-none-eabi-6-2017-q2-update/arm-none-eabi/include/c++/6.3.1/cmath **** // software; you can redistribute it and/or modify it under the
   7:/home/zkmike/.local/share/renesas/e2_studio/toolchains/gcc_arm/gcc-arm-none-eabi-6-2017-q2-update/arm-none-eabi/include/c++/6.3.1/cmath **** // terms of the GNU General Public License as published by the
   8:/home/zkmike/.local/share/renesas/e2_studio/toolchains/gcc_arm/gcc-arm-none-eabi-6-2017-q2-update/arm-none-eabi/include/c++/6.3.1/cmath **** // Free Software Foundation; either version 3, or (at your option)
   9:/home/zkmike/.local/share/renesas/e2_studio/toolchains/gcc_arm/gcc-arm-none-eabi-6-2017-q2-update/arm-none-eabi/include/c++/6.3.1/cmath **** // any later version.
  10:/home/zkmike/.local/share/renesas/e2_studio/toolchains/gcc_arm/gcc-arm-none-eabi-6-2017-q2-update/arm-none-eabi/include/c++/6.3.1/cmath **** 
  11:/home/zkmike/.local/share/renesas/e2_studio/toolchains/gcc_arm/gcc-arm-none-eabi-6-2017-q2-update/arm-none-eabi/include/c++/6.3.1/cmath **** // This library is distributed in the hope that it will be useful,
  12:/home/zkmike/.local/share/renesas/e2_studio/toolchains/gcc_arm/gcc-arm-none-eabi-6-2017-q2-update/arm-none-eabi/include/c++/6.3.1/cmath **** // but WITHOUT ANY WARRANTY; without even the implied warranty of
  13:/home/zkmike/.local/share/renesas/e2_studio/toolchains/gcc_arm/gcc-arm-none-eabi-6-2017-q2-update/arm-none-eabi/include/c++/6.3.1/cmath **** // MERCHANTABILITY or FITNESS FOR A PARTICULAR PURPOSE.  See the
  14:/home/zkmike/.local/share/renesas/e2_studio/toolchains/gcc_arm/gcc-arm-none-eabi-6-2017-q2-update/arm-none-eabi/include/c++/6.3.1/cmath **** // GNU General Public License for more details.
  15:/home/zkmike/.local/share/renesas/e2_studio/toolchains/gcc_arm/gcc-arm-none-eabi-6-2017-q2-update/arm-none-eabi/include/c++/6.3.1/cmath **** 
  16:/home/zkmike/.local/share/renesas/e2_studio/toolchains/gcc_arm/gcc-arm-none-eabi-6-2017-q2-update/arm-none-eabi/include/c++/6.3.1/cmath **** // Under Section 7 of GPL version 3, you are granted additional
  17:/home/zkmike/.local/share/renesas/e2_studio/toolchains/gcc_arm/gcc-arm-none-eabi-6-2017-q2-update/arm-none-eabi/include/c++/6.3.1/cmath **** // permissions described in the GCC Runtime Library Exception, version
  18:/home/zkmike/.local/share/renesas/e2_studio/toolchains/gcc_arm/gcc-arm-none-eabi-6-2017-q2-update/arm-none-eabi/include/c++/6.3.1/cmath **** // 3.1, as published by the Free Software Foundation.
  19:/home/zkmike/.local/share/renesas/e2_studio/toolchains/gcc_arm/gcc-arm-none-eabi-6-2017-q2-update/arm-none-eabi/include/c++/6.3.1/cmath **** 
  20:/home/zkmike/.local/share/renesas/e2_studio/toolchains/gcc_arm/gcc-arm-none-eabi-6-2017-q2-update/arm-none-eabi/include/c++/6.3.1/cmath **** // You should have received a copy of the GNU General Public License and
  21:/home/zkmike/.local/share/renesas/e2_studio/toolchains/gcc_arm/gcc-arm-none-eabi-6-2017-q2-update/arm-none-eabi/include/c++/6.3.1/cmath **** // a copy of the GCC Runtime Library Exception along with this program;
  22:/home/zkmike/.local/share/renesas/e2_studio/toolchains/gcc_arm/gcc-arm-none-eabi-6-2017-q2-update/arm-none-eabi/include/c++/6.3.1/cmath **** // see the files COPYING3 and COPYING.RUNTIME respectively.  If not, see
  23:/home/zkmike/.local/share/renesas/e2_studio/toolchains/gcc_arm/gcc-arm-none-eabi-6-2017-q2-update/arm-none-eabi/include/c++/6.3.1/cmath **** // <http://www.gnu.org/licenses/>.
  24:/home/zkmike/.local/share/renesas/e2_studio/toolchains/gcc_arm/gcc-arm-none-eabi-6-2017-q2-update/arm-none-eabi/include/c++/6.3.1/cmath **** 
  25:/home/zkmike/.local/share/renesas/e2_studio/toolchains/gcc_arm/gcc-arm-none-eabi-6-2017-q2-update/arm-none-eabi/include/c++/6.3.1/cmath **** /** @file include/cmath
  26:/home/zkmike/.local/share/renesas/e2_studio/toolchains/gcc_arm/gcc-arm-none-eabi-6-2017-q2-update/arm-none-eabi/include/c++/6.3.1/cmath ****  *  This is a Standard C++ Library file.  You should @c \#include this file
  27:/home/zkmike/.local/share/renesas/e2_studio/toolchains/gcc_arm/gcc-arm-none-eabi-6-2017-q2-update/arm-none-eabi/include/c++/6.3.1/cmath ****  *  in your programs, rather than any of the @a *.h implementation files.
  28:/home/zkmike/.local/share/renesas/e2_studio/toolchains/gcc_arm/gcc-arm-none-eabi-6-2017-q2-update/arm-none-eabi/include/c++/6.3.1/cmath ****  *
  29:/home/zkmike/.local/share/renesas/e2_studio/toolchains/gcc_arm/gcc-arm-none-eabi-6-2017-q2-update/arm-none-eabi/include/c++/6.3.1/cmath ****  *  This is the C++ version of the Standard C Library header @c math.h,
  30:/home/zkmike/.local/share/renesas/e2_studio/toolchains/gcc_arm/gcc-arm-none-eabi-6-2017-q2-update/arm-none-eabi/include/c++/6.3.1/cmath ****  *  and its contents are (mostly) the same as that header, but are all
  31:/home/zkmike/.local/share/renesas/e2_studio/toolchains/gcc_arm/gcc-arm-none-eabi-6-2017-q2-update/arm-none-eabi/include/c++/6.3.1/cmath ****  *  contained in the namespace @c std (except for names which are defined
  32:/home/zkmike/.local/share/renesas/e2_studio/toolchains/gcc_arm/gcc-arm-none-eabi-6-2017-q2-update/arm-none-eabi/include/c++/6.3.1/cmath ****  *  as macros in C).
  33:/home/zkmike/.local/share/renesas/e2_studio/toolchains/gcc_arm/gcc-arm-none-eabi-6-2017-q2-update/arm-none-eabi/include/c++/6.3.1/cmath ****  */
  34:/home/zkmike/.local/share/renesas/e2_studio/toolchains/gcc_arm/gcc-arm-none-eabi-6-2017-q2-update/arm-none-eabi/include/c++/6.3.1/cmath **** 
  35:/home/zkmike/.local/share/renesas/e2_studio/toolchains/gcc_arm/gcc-arm-none-eabi-6-2017-q2-update/arm-none-eabi/include/c++/6.3.1/cmath **** //
  36:/home/zkmike/.local/share/renesas/e2_studio/toolchains/gcc_arm/gcc-arm-none-eabi-6-2017-q2-update/arm-none-eabi/include/c++/6.3.1/cmath **** // ISO C++ 14882: 26.5  C library
  37:/home/zkmike/.local/share/renesas/e2_studio/toolchains/gcc_arm/gcc-arm-none-eabi-6-2017-q2-update/arm-none-eabi/include/c++/6.3.1/cmath **** //
  38:/home/zkmike/.local/share/renesas/e2_studio/toolchains/gcc_arm/gcc-arm-none-eabi-6-2017-q2-update/arm-none-eabi/include/c++/6.3.1/cmath **** 
  39:/home/zkmike/.local/share/renesas/e2_studio/toolchains/gcc_arm/gcc-arm-none-eabi-6-2017-q2-update/arm-none-eabi/include/c++/6.3.1/cmath **** #pragma GCC system_header
  40:/home/zkmike/.local/share/renesas/e2_studio/toolchains/gcc_arm/gcc-arm-none-eabi-6-2017-q2-update/arm-none-eabi/include/c++/6.3.1/cmath **** 
  41:/home/zkmike/.local/share/renesas/e2_studio/toolchains/gcc_arm/gcc-arm-none-eabi-6-2017-q2-update/arm-none-eabi/include/c++/6.3.1/cmath **** #include <bits/c++config.h>
  42:/home/zkmike/.local/share/renesas/e2_studio/toolchains/gcc_arm/gcc-arm-none-eabi-6-2017-q2-update/arm-none-eabi/include/c++/6.3.1/cmath **** #include <bits/cpp_type_traits.h>
  43:/home/zkmike/.local/share/renesas/e2_studio/toolchains/gcc_arm/gcc-arm-none-eabi-6-2017-q2-update/arm-none-eabi/include/c++/6.3.1/cmath **** #include <ext/type_traits.h>
  44:/home/zkmike/.local/share/renesas/e2_studio/toolchains/gcc_arm/gcc-arm-none-eabi-6-2017-q2-update/arm-none-eabi/include/c++/6.3.1/cmath **** #define _GLIBCXX_INCLUDE_NEXT_C_HEADERS
  45:/home/zkmike/.local/share/renesas/e2_studio/toolchains/gcc_arm/gcc-arm-none-eabi-6-2017-q2-update/arm-none-eabi/include/c++/6.3.1/cmath **** #include_next <math.h>
  46:/home/zkmike/.local/share/renesas/e2_studio/toolchains/gcc_arm/gcc-arm-none-eabi-6-2017-q2-update/arm-none-eabi/include/c++/6.3.1/cmath **** #undef _GLIBCXX_INCLUDE_NEXT_C_HEADERS
  47:/home/zkmike/.local/share/renesas/e2_studio/toolchains/gcc_arm/gcc-arm-none-eabi-6-2017-q2-update/arm-none-eabi/include/c++/6.3.1/cmath **** 
  48:/home/zkmike/.local/share/renesas/e2_studio/toolchains/gcc_arm/gcc-arm-none-eabi-6-2017-q2-update/arm-none-eabi/include/c++/6.3.1/cmath **** #ifndef _GLIBCXX_CMATH
  49:/home/zkmike/.local/share/renesas/e2_studio/toolchains/gcc_arm/gcc-arm-none-eabi-6-2017-q2-update/arm-none-eabi/include/c++/6.3.1/cmath **** #define _GLIBCXX_CMATH 1
  50:/home/zkmike/.local/share/renesas/e2_studio/toolchains/gcc_arm/gcc-arm-none-eabi-6-2017-q2-update/arm-none-eabi/include/c++/6.3.1/cmath **** 
  51:/home/zkmike/.local/share/renesas/e2_studio/toolchains/gcc_arm/gcc-arm-none-eabi-6-2017-q2-update/arm-none-eabi/include/c++/6.3.1/cmath **** // Get rid of those macros defined in <math.h> in lieu of real functions.
  52:/home/zkmike/.local/share/renesas/e2_studio/toolchains/gcc_arm/gcc-arm-none-eabi-6-2017-q2-update/arm-none-eabi/include/c++/6.3.1/cmath **** #undef abs
  53:/home/zkmike/.local/share/renesas/e2_studio/toolchains/gcc_arm/gcc-arm-none-eabi-6-2017-q2-update/arm-none-eabi/include/c++/6.3.1/cmath **** #undef div
  54:/home/zkmike/.local/share/renesas/e2_studio/toolchains/gcc_arm/gcc-arm-none-eabi-6-2017-q2-update/arm-none-eabi/include/c++/6.3.1/cmath **** #undef acos
  55:/home/zkmike/.local/share/renesas/e2_studio/toolchains/gcc_arm/gcc-arm-none-eabi-6-2017-q2-update/arm-none-eabi/include/c++/6.3.1/cmath **** #undef asin
  56:/home/zkmike/.local/share/renesas/e2_studio/toolchains/gcc_arm/gcc-arm-none-eabi-6-2017-q2-update/arm-none-eabi/include/c++/6.3.1/cmath **** #undef atan
  57:/home/zkmike/.local/share/renesas/e2_studio/toolchains/gcc_arm/gcc-arm-none-eabi-6-2017-q2-update/arm-none-eabi/include/c++/6.3.1/cmath **** #undef atan2
  58:/home/zkmike/.local/share/renesas/e2_studio/toolchains/gcc_arm/gcc-arm-none-eabi-6-2017-q2-update/arm-none-eabi/include/c++/6.3.1/cmath **** #undef ceil
  59:/home/zkmike/.local/share/renesas/e2_studio/toolchains/gcc_arm/gcc-arm-none-eabi-6-2017-q2-update/arm-none-eabi/include/c++/6.3.1/cmath **** #undef cos
  60:/home/zkmike/.local/share/renesas/e2_studio/toolchains/gcc_arm/gcc-arm-none-eabi-6-2017-q2-update/arm-none-eabi/include/c++/6.3.1/cmath **** #undef cosh
  61:/home/zkmike/.local/share/renesas/e2_studio/toolchains/gcc_arm/gcc-arm-none-eabi-6-2017-q2-update/arm-none-eabi/include/c++/6.3.1/cmath **** #undef exp
  62:/home/zkmike/.local/share/renesas/e2_studio/toolchains/gcc_arm/gcc-arm-none-eabi-6-2017-q2-update/arm-none-eabi/include/c++/6.3.1/cmath **** #undef fabs
  63:/home/zkmike/.local/share/renesas/e2_studio/toolchains/gcc_arm/gcc-arm-none-eabi-6-2017-q2-update/arm-none-eabi/include/c++/6.3.1/cmath **** #undef floor
  64:/home/zkmike/.local/share/renesas/e2_studio/toolchains/gcc_arm/gcc-arm-none-eabi-6-2017-q2-update/arm-none-eabi/include/c++/6.3.1/cmath **** #undef fmod
  65:/home/zkmike/.local/share/renesas/e2_studio/toolchains/gcc_arm/gcc-arm-none-eabi-6-2017-q2-update/arm-none-eabi/include/c++/6.3.1/cmath **** #undef frexp
  66:/home/zkmike/.local/share/renesas/e2_studio/toolchains/gcc_arm/gcc-arm-none-eabi-6-2017-q2-update/arm-none-eabi/include/c++/6.3.1/cmath **** #undef ldexp
  67:/home/zkmike/.local/share/renesas/e2_studio/toolchains/gcc_arm/gcc-arm-none-eabi-6-2017-q2-update/arm-none-eabi/include/c++/6.3.1/cmath **** #undef log
  68:/home/zkmike/.local/share/renesas/e2_studio/toolchains/gcc_arm/gcc-arm-none-eabi-6-2017-q2-update/arm-none-eabi/include/c++/6.3.1/cmath **** #undef log10
  69:/home/zkmike/.local/share/renesas/e2_studio/toolchains/gcc_arm/gcc-arm-none-eabi-6-2017-q2-update/arm-none-eabi/include/c++/6.3.1/cmath **** #undef modf
  70:/home/zkmike/.local/share/renesas/e2_studio/toolchains/gcc_arm/gcc-arm-none-eabi-6-2017-q2-update/arm-none-eabi/include/c++/6.3.1/cmath **** #undef pow
  71:/home/zkmike/.local/share/renesas/e2_studio/toolchains/gcc_arm/gcc-arm-none-eabi-6-2017-q2-update/arm-none-eabi/include/c++/6.3.1/cmath **** #undef sin
  72:/home/zkmike/.local/share/renesas/e2_studio/toolchains/gcc_arm/gcc-arm-none-eabi-6-2017-q2-update/arm-none-eabi/include/c++/6.3.1/cmath **** #undef sinh
  73:/home/zkmike/.local/share/renesas/e2_studio/toolchains/gcc_arm/gcc-arm-none-eabi-6-2017-q2-update/arm-none-eabi/include/c++/6.3.1/cmath **** #undef sqrt
  74:/home/zkmike/.local/share/renesas/e2_studio/toolchains/gcc_arm/gcc-arm-none-eabi-6-2017-q2-update/arm-none-eabi/include/c++/6.3.1/cmath **** #undef tan
  75:/home/zkmike/.local/share/renesas/e2_studio/toolchains/gcc_arm/gcc-arm-none-eabi-6-2017-q2-update/arm-none-eabi/include/c++/6.3.1/cmath **** #undef tanh
  76:/home/zkmike/.local/share/renesas/e2_studio/toolchains/gcc_arm/gcc-arm-none-eabi-6-2017-q2-update/arm-none-eabi/include/c++/6.3.1/cmath **** 
  77:/home/zkmike/.local/share/renesas/e2_studio/toolchains/gcc_arm/gcc-arm-none-eabi-6-2017-q2-update/arm-none-eabi/include/c++/6.3.1/cmath **** extern "C++"
  78:/home/zkmike/.local/share/renesas/e2_studio/toolchains/gcc_arm/gcc-arm-none-eabi-6-2017-q2-update/arm-none-eabi/include/c++/6.3.1/cmath **** {
  79:/home/zkmike/.local/share/renesas/e2_studio/toolchains/gcc_arm/gcc-arm-none-eabi-6-2017-q2-update/arm-none-eabi/include/c++/6.3.1/cmath **** namespace std _GLIBCXX_VISIBILITY(default)
  80:/home/zkmike/.local/share/renesas/e2_studio/toolchains/gcc_arm/gcc-arm-none-eabi-6-2017-q2-update/arm-none-eabi/include/c++/6.3.1/cmath **** {
  81:/home/zkmike/.local/share/renesas/e2_studio/toolchains/gcc_arm/gcc-arm-none-eabi-6-2017-q2-update/arm-none-eabi/include/c++/6.3.1/cmath **** _GLIBCXX_BEGIN_NAMESPACE_VERSION
  82:/home/zkmike/.local/share/renesas/e2_studio/toolchains/gcc_arm/gcc-arm-none-eabi-6-2017-q2-update/arm-none-eabi/include/c++/6.3.1/cmath **** 
  83:/home/zkmike/.local/share/renesas/e2_studio/toolchains/gcc_arm/gcc-arm-none-eabi-6-2017-q2-update/arm-none-eabi/include/c++/6.3.1/cmath **** #ifndef __CORRECT_ISO_CPP_MATH_H_PROTO
  84:/home/zkmike/.local/share/renesas/e2_studio/toolchains/gcc_arm/gcc-arm-none-eabi-6-2017-q2-update/arm-none-eabi/include/c++/6.3.1/cmath ****   inline _GLIBCXX_CONSTEXPR double
  85:/home/zkmike/.local/share/renesas/e2_studio/toolchains/gcc_arm/gcc-arm-none-eabi-6-2017-q2-update/arm-none-eabi/include/c++/6.3.1/cmath ****   abs(double __x)
  86:/home/zkmike/.local/share/renesas/e2_studio/toolchains/gcc_arm/gcc-arm-none-eabi-6-2017-q2-update/arm-none-eabi/include/c++/6.3.1/cmath ****   { return __builtin_fabs(__x); }
  87:/home/zkmike/.local/share/renesas/e2_studio/toolchains/gcc_arm/gcc-arm-none-eabi-6-2017-q2-update/arm-none-eabi/include/c++/6.3.1/cmath **** #endif
  88:/home/zkmike/.local/share/renesas/e2_studio/toolchains/gcc_arm/gcc-arm-none-eabi-6-2017-q2-update/arm-none-eabi/include/c++/6.3.1/cmath **** 
  89:/home/zkmike/.local/share/renesas/e2_studio/toolchains/gcc_arm/gcc-arm-none-eabi-6-2017-q2-update/arm-none-eabi/include/c++/6.3.1/cmath **** #ifndef __CORRECT_ISO_CPP_MATH_H_PROTO
  90:/home/zkmike/.local/share/renesas/e2_studio/toolchains/gcc_arm/gcc-arm-none-eabi-6-2017-q2-update/arm-none-eabi/include/c++/6.3.1/cmath ****   inline _GLIBCXX_CONSTEXPR float
  91:/home/zkmike/.local/share/renesas/e2_studio/toolchains/gcc_arm/gcc-arm-none-eabi-6-2017-q2-update/arm-none-eabi/include/c++/6.3.1/cmath ****   abs(float __x)
  92:/home/zkmike/.local/share/renesas/e2_studio/toolchains/gcc_arm/gcc-arm-none-eabi-6-2017-q2-update/arm-none-eabi/include/c++/6.3.1/cmath ****   { return __builtin_fabsf(__x); }
 245              		.loc 4 92 0
 246 0028 C00AB0EE 		vabs.f32	s0, s0
 247              	.LVL17:
 248              	.LBE26:
 249              	.LBE25:
  33:../src/zxing_lib/zxing/qrcode/detector/AlignmentPattern.cpp ****     float moduleSizeDiff = abs(moduleSize - estimatedModuleSize_);
 250              		.loc 2 33 0
 251 002c C08AF4EE 		vcmpe.f32	s17, s0
 252 0030 10FAF1EE 		vmrs	APSR_nzcv, FPSCR
 253 0034 0E0000AA 		bge	.L33
 254 0038 0000A0E3 		mov	r0, #0
 255              	.L20:
  33:../src/zxing_lib/zxing/qrcode/detector/AlignmentPattern.cpp ****     float moduleSizeDiff = abs(moduleSize - estimatedModuleSize_);
 256              		.loc 2 33 0 is_stmt 0 discriminator 6
 257 003c 000050E3 		cmp	r0, #0
 258 0040 0900000A 		beq	.L23
 259              	.LBB27:
  34:../src/zxing_lib/zxing/qrcode/detector/AlignmentPattern.cpp ****     return moduleSizeDiff <= 1.0f || moduleSizeDiff <= estimatedModuleSize_;
 260              		.loc 2 34 0 is_stmt 1
 261 0044 047AD4ED 		vldr.32	s15, [r4, #16]
 262 0048 E78A78EE 		vsub.f32	s17, s17, s15
 263              	.LVL18:
 264              	.LBB28:
 265              	.LBB29:
 266              		.loc 4 92 0
 267 004c E88AF0EE 		vabs.f32	s17, s17
 268              	.LVL19:
 269              	.LBE29:
 270              	.LBE28:
  35:../src/zxing_lib/zxing/qrcode/detector/AlignmentPattern.cpp ****   }
 271              		.loc 2 35 0
 272 0050 007AB7EE 		vmov.f32	s14, #1.0e+0
 273 0054 C78AF4EE 		vcmpe.f32	s17, s14
 274 0058 10FAF1EE 		vmrs	APSR_nzcv, FPSCR
 275 005c 0200009A 		bls	.L23
  35:../src/zxing_lib/zxing/qrcode/detector/AlignmentPattern.cpp ****   }
 276              		.loc 2 35 0 is_stmt 0 discriminator 2
 277 0060 E78AF4EE 		vcmpe.f32	s17, s15
 278 0064 10FAF1EE 		vmrs	APSR_nzcv, FPSCR
 279 0068 0000A083 		movhi	r0, #0
 280              	.L23:
 281              	.LBE27:
 282              	.LBE24:
  38:../src/zxing_lib/zxing/qrcode/detector/AlignmentPattern.cpp **** 
 283              		.loc 2 38 0 is_stmt 1
 284 006c 048BBDEC 		vldm	sp!, {d8-d9}
 285              		.cfi_remember_state
 286              		.cfi_restore 82
 287              		.cfi_restore 83
 288              		.cfi_restore 80
 289              		.cfi_restore 81
 290              		.cfi_def_cfa_offset 8
 291              	.LVL20:
 292 0070 1080BDE8 		pop	{r4, pc}
 293              	.LVL21:
 294              	.L33:
 295              		.cfi_restore_state
 296              	.LBB32:
  33:../src/zxing_lib/zxing/qrcode/detector/AlignmentPattern.cpp ****     float moduleSizeDiff = abs(moduleSize - estimatedModuleSize_);
 297              		.loc 2 33 0 discriminator 1
 298 0074 003094E5 		ldr	r3, [r4]
 299 0078 083093E5 		ldr	r3, [r3, #8]
 300 007c 0400A0E1 		mov	r0, r4
 301 0080 33FF2FE1 		blx	r3
 302              	.LVL22:
 303 0084 400A39EE 		vsub.f32	s0, s18, s0
 304              	.LVL23:
 305              	.LBB30:
 306              	.LBB31:
 307              		.loc 4 92 0 discriminator 1
 308 0088 C00AB0EE 		vabs.f32	s0, s0
 309              	.LVL24:
 310              	.LBE31:
 311              	.LBE30:
  33:../src/zxing_lib/zxing/qrcode/detector/AlignmentPattern.cpp ****     float moduleSizeDiff = abs(moduleSize - estimatedModuleSize_);
 312              		.loc 2 33 0 discriminator 1
 313 008c C08AF4EE 		vcmpe.f32	s17, s0
 314 0090 10FAF1EE 		vmrs	APSR_nzcv, FPSCR
  33:../src/zxing_lib/zxing/qrcode/detector/AlignmentPattern.cpp ****     float moduleSizeDiff = abs(moduleSize - estimatedModuleSize_);
 315              		.loc 2 33 0 is_stmt 0
 316 0094 0100A0A3 		movge	r0, #1
 317 0098 E7FFFFAA 		bge	.L20
 318              	.L31:
 319 009c 0000A0E3 		mov	r0, #0
 320 00a0 E5FFFFEA 		b	.L20
 321              	.LBE32:
 322              		.cfi_endproc
 323              	.LFE2012:
 324              		.fnend
 326              		.section	.text._ZNK5zxing6qrcode16AlignmentPattern15combineEstimateEfff,"ax",%progbits
 327              		.align	2
 328              		.global	_ZNK5zxing6qrcode16AlignmentPattern15combineEstimateEfff
 329              		.syntax unified
 330              		.arm
 331              		.fpu neon
 333              	_ZNK5zxing6qrcode16AlignmentPattern15combineEstimateEfff:
 334              		.fnstart
 335              	.LFB2013:
  40:../src/zxing_lib/zxing/qrcode/detector/AlignmentPattern.cpp ****   float combinedX = (getX() + j) / 2.0f;
 336              		.loc 2 40 0 is_stmt 1
 337              		.cfi_startproc
 338              		.cfi_personality 0,__gxx_personality_v0
 339              		.cfi_lsda 0,.LLSDA2013
 340              		@ args = 0, pretend = 0, frame = 0
 341              		@ frame_needed = 0, uses_anonymous_args = 0
 342              	.LVL25:
 343 0000 70402DE9 		push	{r4, r5, r6, lr}
 344              		.save {r4, r5, r6, lr}
 345              		.cfi_def_cfa_offset 16
 346              		.cfi_offset 4, -16
 347              		.cfi_offset 5, -12
 348              		.cfi_offset 6, -8
 349              		.cfi_offset 14, -4
 350 0004 068B2DED 		vpush.64	{d8, d9, d10}
 351              		.vsave {d8, d9, d10}
 352              		.cfi_def_cfa_offset 40
 353              		.cfi_offset 80, -40
 354              		.cfi_offset 81, -36
 355              		.cfi_offset 82, -32
 356              		.cfi_offset 83, -28
 357              		.cfi_offset 84, -24
 358              		.cfi_offset 85, -20
 359 0008 0050A0E1 		mov	r5, r0
 360 000c 0140A0E1 		mov	r4, r1
 361 0010 408AF0EE 		vmov.f32	s17, s0
 362 0014 608AB0EE 		vmov.f32	s16, s1
 363 0018 41AAB0EE 		vmov.f32	s20, s2
  41:../src/zxing_lib/zxing/qrcode/detector/AlignmentPattern.cpp ****   float combinedY = (getY() + i) / 2.0f;
 364              		.loc 2 41 0
 365 001c 003091E5 		ldr	r3, [r1]
 366 0020 083093E5 		ldr	r3, [r3, #8]
 367 0024 0100A0E1 		mov	r0, r1
 368              	.LVL26:
 369              	.LEHB0:
 370 0028 33FF2FE1 		blx	r3
 371              	.LVL27:
 372 002c 088A30EE 		vadd.f32	s16, s0, s16
 373              	.LVL28:
 374 0030 009AF6EE 		vmov.f32	s19, #5.0e-1
 375 0034 298A28EE 		vmul.f32	s16, s16, s19
 376              	.LVL29:
  42:../src/zxing_lib/zxing/qrcode/detector/AlignmentPattern.cpp ****   float combinedModuleSize = (estimatedModuleSize_ + newModuleSize) / 2.0f;
 377              		.loc 2 42 0
 378 0038 003094E5 		ldr	r3, [r4]
 379 003c 0C3093E5 		ldr	r3, [r3, #12]
 380 0040 0400A0E1 		mov	r0, r4
 381 0044 33FF2FE1 		blx	r3
 382              	.LVL30:
 383 0048 288A70EE 		vadd.f32	s17, s0, s17
 384              	.LVL31:
 385 004c A98A68EE 		vmul.f32	s17, s17, s19
 386              	.LVL32:
  43:../src/zxing_lib/zxing/qrcode/detector/AlignmentPattern.cpp ****   Ref<AlignmentPattern> result
 387              		.loc 2 43 0
 388 0050 049A94ED 		vldr.32	s18, [r4, #16]
 389 0054 0A9A39EE 		vadd.f32	s18, s18, s20
 390 0058 299A29EE 		vmul.f32	s18, s18, s19
 391              	.LVL33:
  45:../src/zxing_lib/zxing/qrcode/detector/AlignmentPattern.cpp ****   return result;
 392              		.loc 2 45 0
 393 005c 1400A0E3 		mov	r0, #20
 394 0060 FEFFFFEB 		bl	_Znwj
 395              	.LVL34:
 396              	.LEHE0:
 397 0064 0040A0E1 		mov	r4, r0
 398              	.LVL35:
 399 0068 491AB0EE 		vmov.f32	s2, s18
 400 006c 680AF0EE 		vmov.f32	s1, s17
 401 0070 480AB0EE 		vmov.f32	s0, s16
 402              	.LEHB1:
 403 0074 FEFFFFEB 		bl	_ZN5zxing6qrcode16AlignmentPatternC1Efff
 404              	.LVL36:
 405              	.LEHE1:
 406              	.LBB41:
 407              	.LBB42:
 408              		.file 5 "/home/zkmike/workspace/RZA2M/rza2m_2d_barcode_sample_freertos_gcc/src/zxing_lib/zxing/com
   1:/home/zkmike/workspace/RZA2M/rza2m_2d_barcode_sample_freertos_gcc/src/zxing_lib/zxing/common/Counted.h **** // -*- mode:c++; tab-width:2; indent-tabs-mode:nil; c-basic-offset:2 -*-
   2:/home/zkmike/workspace/RZA2M/rza2m_2d_barcode_sample_freertos_gcc/src/zxing_lib/zxing/common/Counted.h **** #ifndef __COUNTED_H__
   3:/home/zkmike/workspace/RZA2M/rza2m_2d_barcode_sample_freertos_gcc/src/zxing_lib/zxing/common/Counted.h **** #define __COUNTED_H__
   4:/home/zkmike/workspace/RZA2M/rza2m_2d_barcode_sample_freertos_gcc/src/zxing_lib/zxing/common/Counted.h **** 
   5:/home/zkmike/workspace/RZA2M/rza2m_2d_barcode_sample_freertos_gcc/src/zxing_lib/zxing/common/Counted.h **** /*
   6:/home/zkmike/workspace/RZA2M/rza2m_2d_barcode_sample_freertos_gcc/src/zxing_lib/zxing/common/Counted.h ****  *  Copyright 2010 ZXing authors All rights reserved.
   7:/home/zkmike/workspace/RZA2M/rza2m_2d_barcode_sample_freertos_gcc/src/zxing_lib/zxing/common/Counted.h ****  *
   8:/home/zkmike/workspace/RZA2M/rza2m_2d_barcode_sample_freertos_gcc/src/zxing_lib/zxing/common/Counted.h ****  * Licensed under the Apache License, Version 2.0 (the "License");
   9:/home/zkmike/workspace/RZA2M/rza2m_2d_barcode_sample_freertos_gcc/src/zxing_lib/zxing/common/Counted.h ****  * you may not use this file except in compliance with the License.
  10:/home/zkmike/workspace/RZA2M/rza2m_2d_barcode_sample_freertos_gcc/src/zxing_lib/zxing/common/Counted.h ****  * You may obtain a copy of the License at
  11:/home/zkmike/workspace/RZA2M/rza2m_2d_barcode_sample_freertos_gcc/src/zxing_lib/zxing/common/Counted.h ****  *
  12:/home/zkmike/workspace/RZA2M/rza2m_2d_barcode_sample_freertos_gcc/src/zxing_lib/zxing/common/Counted.h ****  *      http://www.apache.org/licenses/LICENSE-2.0
  13:/home/zkmike/workspace/RZA2M/rza2m_2d_barcode_sample_freertos_gcc/src/zxing_lib/zxing/common/Counted.h ****  *
  14:/home/zkmike/workspace/RZA2M/rza2m_2d_barcode_sample_freertos_gcc/src/zxing_lib/zxing/common/Counted.h ****  * Unless required by applicable law or agreed to in writing, software
  15:/home/zkmike/workspace/RZA2M/rza2m_2d_barcode_sample_freertos_gcc/src/zxing_lib/zxing/common/Counted.h ****  * distributed under the License is distributed on an "AS IS" BASIS,
  16:/home/zkmike/workspace/RZA2M/rza2m_2d_barcode_sample_freertos_gcc/src/zxing_lib/zxing/common/Counted.h ****  * WITHOUT WARRANTIES OR CONDITIONS OF ANY KIND, either express or implied.
  17:/home/zkmike/workspace/RZA2M/rza2m_2d_barcode_sample_freertos_gcc/src/zxing_lib/zxing/common/Counted.h ****  * See the License for the specific language governing permissions and
  18:/home/zkmike/workspace/RZA2M/rza2m_2d_barcode_sample_freertos_gcc/src/zxing_lib/zxing/common/Counted.h ****  * limitations under the License.
  19:/home/zkmike/workspace/RZA2M/rza2m_2d_barcode_sample_freertos_gcc/src/zxing_lib/zxing/common/Counted.h ****  */
  20:/home/zkmike/workspace/RZA2M/rza2m_2d_barcode_sample_freertos_gcc/src/zxing_lib/zxing/common/Counted.h **** 
  21:/home/zkmike/workspace/RZA2M/rza2m_2d_barcode_sample_freertos_gcc/src/zxing_lib/zxing/common/Counted.h **** #include <iostream>
  22:/home/zkmike/workspace/RZA2M/rza2m_2d_barcode_sample_freertos_gcc/src/zxing_lib/zxing/common/Counted.h **** 
  23:/home/zkmike/workspace/RZA2M/rza2m_2d_barcode_sample_freertos_gcc/src/zxing_lib/zxing/common/Counted.h **** namespace zxing {
  24:/home/zkmike/workspace/RZA2M/rza2m_2d_barcode_sample_freertos_gcc/src/zxing_lib/zxing/common/Counted.h **** 
  25:/home/zkmike/workspace/RZA2M/rza2m_2d_barcode_sample_freertos_gcc/src/zxing_lib/zxing/common/Counted.h **** /* base class for reference-counted objects */
  26:/home/zkmike/workspace/RZA2M/rza2m_2d_barcode_sample_freertos_gcc/src/zxing_lib/zxing/common/Counted.h **** class Counted {
  27:/home/zkmike/workspace/RZA2M/rza2m_2d_barcode_sample_freertos_gcc/src/zxing_lib/zxing/common/Counted.h **** private:
  28:/home/zkmike/workspace/RZA2M/rza2m_2d_barcode_sample_freertos_gcc/src/zxing_lib/zxing/common/Counted.h ****   unsigned int count_;
  29:/home/zkmike/workspace/RZA2M/rza2m_2d_barcode_sample_freertos_gcc/src/zxing_lib/zxing/common/Counted.h **** public:
  30:/home/zkmike/workspace/RZA2M/rza2m_2d_barcode_sample_freertos_gcc/src/zxing_lib/zxing/common/Counted.h ****   Counted() :
  31:/home/zkmike/workspace/RZA2M/rza2m_2d_barcode_sample_freertos_gcc/src/zxing_lib/zxing/common/Counted.h ****       count_(0) {
  32:/home/zkmike/workspace/RZA2M/rza2m_2d_barcode_sample_freertos_gcc/src/zxing_lib/zxing/common/Counted.h ****   }
  33:/home/zkmike/workspace/RZA2M/rza2m_2d_barcode_sample_freertos_gcc/src/zxing_lib/zxing/common/Counted.h ****   virtual ~Counted() {
  34:/home/zkmike/workspace/RZA2M/rza2m_2d_barcode_sample_freertos_gcc/src/zxing_lib/zxing/common/Counted.h ****   }
  35:/home/zkmike/workspace/RZA2M/rza2m_2d_barcode_sample_freertos_gcc/src/zxing_lib/zxing/common/Counted.h ****   Counted *retain() {
  36:/home/zkmike/workspace/RZA2M/rza2m_2d_barcode_sample_freertos_gcc/src/zxing_lib/zxing/common/Counted.h ****     count_++;
  37:/home/zkmike/workspace/RZA2M/rza2m_2d_barcode_sample_freertos_gcc/src/zxing_lib/zxing/common/Counted.h ****     return this;
  38:/home/zkmike/workspace/RZA2M/rza2m_2d_barcode_sample_freertos_gcc/src/zxing_lib/zxing/common/Counted.h ****   }
  39:/home/zkmike/workspace/RZA2M/rza2m_2d_barcode_sample_freertos_gcc/src/zxing_lib/zxing/common/Counted.h ****   void release() {
  40:/home/zkmike/workspace/RZA2M/rza2m_2d_barcode_sample_freertos_gcc/src/zxing_lib/zxing/common/Counted.h ****     count_--;
  41:/home/zkmike/workspace/RZA2M/rza2m_2d_barcode_sample_freertos_gcc/src/zxing_lib/zxing/common/Counted.h ****     if (count_ == 0) {
  42:/home/zkmike/workspace/RZA2M/rza2m_2d_barcode_sample_freertos_gcc/src/zxing_lib/zxing/common/Counted.h ****       count_ = 0xDEADF001;
  43:/home/zkmike/workspace/RZA2M/rza2m_2d_barcode_sample_freertos_gcc/src/zxing_lib/zxing/common/Counted.h ****       delete this;
  44:/home/zkmike/workspace/RZA2M/rza2m_2d_barcode_sample_freertos_gcc/src/zxing_lib/zxing/common/Counted.h ****     }
  45:/home/zkmike/workspace/RZA2M/rza2m_2d_barcode_sample_freertos_gcc/src/zxing_lib/zxing/common/Counted.h ****   }
  46:/home/zkmike/workspace/RZA2M/rza2m_2d_barcode_sample_freertos_gcc/src/zxing_lib/zxing/common/Counted.h **** 
  47:/home/zkmike/workspace/RZA2M/rza2m_2d_barcode_sample_freertos_gcc/src/zxing_lib/zxing/common/Counted.h **** 
  48:/home/zkmike/workspace/RZA2M/rza2m_2d_barcode_sample_freertos_gcc/src/zxing_lib/zxing/common/Counted.h ****   /* return the current count for denugging purposes or similar */
  49:/home/zkmike/workspace/RZA2M/rza2m_2d_barcode_sample_freertos_gcc/src/zxing_lib/zxing/common/Counted.h ****   int count() const {
  50:/home/zkmike/workspace/RZA2M/rza2m_2d_barcode_sample_freertos_gcc/src/zxing_lib/zxing/common/Counted.h ****     return count_;
  51:/home/zkmike/workspace/RZA2M/rza2m_2d_barcode_sample_freertos_gcc/src/zxing_lib/zxing/common/Counted.h ****   }
  52:/home/zkmike/workspace/RZA2M/rza2m_2d_barcode_sample_freertos_gcc/src/zxing_lib/zxing/common/Counted.h **** };
  53:/home/zkmike/workspace/RZA2M/rza2m_2d_barcode_sample_freertos_gcc/src/zxing_lib/zxing/common/Counted.h **** 
  54:/home/zkmike/workspace/RZA2M/rza2m_2d_barcode_sample_freertos_gcc/src/zxing_lib/zxing/common/Counted.h **** /* counting reference to reference-counted objects */
  55:/home/zkmike/workspace/RZA2M/rza2m_2d_barcode_sample_freertos_gcc/src/zxing_lib/zxing/common/Counted.h **** template<typename T> class Ref {
  56:/home/zkmike/workspace/RZA2M/rza2m_2d_barcode_sample_freertos_gcc/src/zxing_lib/zxing/common/Counted.h **** private:
  57:/home/zkmike/workspace/RZA2M/rza2m_2d_barcode_sample_freertos_gcc/src/zxing_lib/zxing/common/Counted.h **** public:
  58:/home/zkmike/workspace/RZA2M/rza2m_2d_barcode_sample_freertos_gcc/src/zxing_lib/zxing/common/Counted.h ****   T *object_;
  59:/home/zkmike/workspace/RZA2M/rza2m_2d_barcode_sample_freertos_gcc/src/zxing_lib/zxing/common/Counted.h ****   explicit Ref(T *o = 0) :
  60:/home/zkmike/workspace/RZA2M/rza2m_2d_barcode_sample_freertos_gcc/src/zxing_lib/zxing/common/Counted.h ****       object_(0) {
 409              		.loc 5 60 0
 410 0078 0030A0E3 		mov	r3, #0
 411 007c 003085E5 		str	r3, [r5]
 412              	.LVL37:
 413              	.LBB43:
 414              	.LBB44:
  61:/home/zkmike/workspace/RZA2M/rza2m_2d_barcode_sample_freertos_gcc/src/zxing_lib/zxing/common/Counted.h ****     reset(o);
  62:/home/zkmike/workspace/RZA2M/rza2m_2d_barcode_sample_freertos_gcc/src/zxing_lib/zxing/common/Counted.h ****   }
  63:/home/zkmike/workspace/RZA2M/rza2m_2d_barcode_sample_freertos_gcc/src/zxing_lib/zxing/common/Counted.h ****   Ref(const Ref &other) :
  64:/home/zkmike/workspace/RZA2M/rza2m_2d_barcode_sample_freertos_gcc/src/zxing_lib/zxing/common/Counted.h ****       object_(0) {
  65:/home/zkmike/workspace/RZA2M/rza2m_2d_barcode_sample_freertos_gcc/src/zxing_lib/zxing/common/Counted.h ****     reset(other.object_);
  66:/home/zkmike/workspace/RZA2M/rza2m_2d_barcode_sample_freertos_gcc/src/zxing_lib/zxing/common/Counted.h ****   }
  67:/home/zkmike/workspace/RZA2M/rza2m_2d_barcode_sample_freertos_gcc/src/zxing_lib/zxing/common/Counted.h **** 
  68:/home/zkmike/workspace/RZA2M/rza2m_2d_barcode_sample_freertos_gcc/src/zxing_lib/zxing/common/Counted.h ****   template<class Y>
  69:/home/zkmike/workspace/RZA2M/rza2m_2d_barcode_sample_freertos_gcc/src/zxing_lib/zxing/common/Counted.h ****   Ref(const Ref<Y> &other) :
  70:/home/zkmike/workspace/RZA2M/rza2m_2d_barcode_sample_freertos_gcc/src/zxing_lib/zxing/common/Counted.h ****       object_(0) {
  71:/home/zkmike/workspace/RZA2M/rza2m_2d_barcode_sample_freertos_gcc/src/zxing_lib/zxing/common/Counted.h ****     reset(other.object_);
  72:/home/zkmike/workspace/RZA2M/rza2m_2d_barcode_sample_freertos_gcc/src/zxing_lib/zxing/common/Counted.h ****   }
  73:/home/zkmike/workspace/RZA2M/rza2m_2d_barcode_sample_freertos_gcc/src/zxing_lib/zxing/common/Counted.h **** 
  74:/home/zkmike/workspace/RZA2M/rza2m_2d_barcode_sample_freertos_gcc/src/zxing_lib/zxing/common/Counted.h ****   ~Ref() {
  75:/home/zkmike/workspace/RZA2M/rza2m_2d_barcode_sample_freertos_gcc/src/zxing_lib/zxing/common/Counted.h ****     if (object_) {
  76:/home/zkmike/workspace/RZA2M/rza2m_2d_barcode_sample_freertos_gcc/src/zxing_lib/zxing/common/Counted.h ****       object_->release();
  77:/home/zkmike/workspace/RZA2M/rza2m_2d_barcode_sample_freertos_gcc/src/zxing_lib/zxing/common/Counted.h ****     }
  78:/home/zkmike/workspace/RZA2M/rza2m_2d_barcode_sample_freertos_gcc/src/zxing_lib/zxing/common/Counted.h ****   }
  79:/home/zkmike/workspace/RZA2M/rza2m_2d_barcode_sample_freertos_gcc/src/zxing_lib/zxing/common/Counted.h **** 
  80:/home/zkmike/workspace/RZA2M/rza2m_2d_barcode_sample_freertos_gcc/src/zxing_lib/zxing/common/Counted.h ****   void reset(T *o) {
  81:/home/zkmike/workspace/RZA2M/rza2m_2d_barcode_sample_freertos_gcc/src/zxing_lib/zxing/common/Counted.h ****     if (o) {
 415              		.loc 5 81 0
 416 0080 030054E1 		cmp	r4, r3
 417              	.LVL38:
 418              	.LBB45:
 419              	.LBB46:
  36:/home/zkmike/workspace/RZA2M/rza2m_2d_barcode_sample_freertos_gcc/src/zxing_lib/zxing/common/Counted.h ****     return this;
 420              		.loc 5 36 0
 421 0084 04309415 		ldrne	r3, [r4, #4]
 422 0088 01308312 		addne	r3, r3, #1
 423 008c 04308415 		strne	r3, [r4, #4]
 424              	.LVL39:
 425              	.L35:
 426              	.LBE46:
 427              	.LBE45:
  82:/home/zkmike/workspace/RZA2M/rza2m_2d_barcode_sample_freertos_gcc/src/zxing_lib/zxing/common/Counted.h ****       o->retain();
  83:/home/zkmike/workspace/RZA2M/rza2m_2d_barcode_sample_freertos_gcc/src/zxing_lib/zxing/common/Counted.h ****     }
  84:/home/zkmike/workspace/RZA2M/rza2m_2d_barcode_sample_freertos_gcc/src/zxing_lib/zxing/common/Counted.h ****     if (object_ != 0) {
 428              		.loc 5 84 0
 429 0090 000095E5 		ldr	r0, [r5]
 430 0094 000050E3 		cmp	r0, #0
 431 0098 0400000A 		beq	.L36
 432              	.LVL40:
 433              	.LBB47:
 434              	.LBB48:
  40:/home/zkmike/workspace/RZA2M/rza2m_2d_barcode_sample_freertos_gcc/src/zxing_lib/zxing/common/Counted.h ****     if (count_ == 0) {
 435              		.loc 5 40 0
 436 009c 043090E5 		ldr	r3, [r0, #4]
 437 00a0 013043E2 		sub	r3, r3, #1
 438 00a4 043080E5 		str	r3, [r0, #4]
  41:/home/zkmike/workspace/RZA2M/rza2m_2d_barcode_sample_freertos_gcc/src/zxing_lib/zxing/common/Counted.h ****       count_ = 0xDEADF001;
 439              		.loc 5 41 0
 440 00a8 000053E3 		cmp	r3, #0
 441 00ac 0300000A 		beq	.L41
 442              	.LVL41:
 443              	.L36:
 444              	.LBE48:
 445              	.LBE47:
  85:/home/zkmike/workspace/RZA2M/rza2m_2d_barcode_sample_freertos_gcc/src/zxing_lib/zxing/common/Counted.h ****       object_->release();
  86:/home/zkmike/workspace/RZA2M/rza2m_2d_barcode_sample_freertos_gcc/src/zxing_lib/zxing/common/Counted.h ****     }
  87:/home/zkmike/workspace/RZA2M/rza2m_2d_barcode_sample_freertos_gcc/src/zxing_lib/zxing/common/Counted.h ****     object_ = o;
 446              		.loc 5 87 0
 447 00b0 004085E5 		str	r4, [r5]
 448              	.LVL42:
 449              	.LBE44:
 450              	.LBE43:
 451              	.LBE42:
 452              	.LBE41:
 453              		.loc 2 47 0
 454 00b4 0500A0E1 		mov	r0, r5
 455 00b8 068BBDEC 		vldm	sp!, {d8-d10}
 456              		.cfi_remember_state
 457              		.cfi_restore 84
 458              		.cfi_restore 85
 459              		.cfi_restore 82
 460              		.cfi_restore 83
 461              		.cfi_restore 80
 462              		.cfi_restore 81
 463              		.cfi_def_cfa_offset 16
 464              	.LVL43:
 465 00bc 7080BDE8 		pop	{r4, r5, r6, pc}
 466              	.LVL44:
 467              	.L41:
 468              		.cfi_restore_state
 469              	.LBB54:
 470              	.LBB53:
 471              	.LBB52:
 472              	.LBB51:
 473              	.LBB50:
 474              	.LBB49:
  42:/home/zkmike/workspace/RZA2M/rza2m_2d_barcode_sample_freertos_gcc/src/zxing_lib/zxing/common/Counted.h ****       delete this;
 475              		.loc 5 42 0
 476 00c0 01300FE3 		movw	r3, #61441
 477 00c4 AD3E4DE3 		movt	r3, 57005
 478 00c8 043080E5 		str	r3, [r0, #4]
  43:/home/zkmike/workspace/RZA2M/rza2m_2d_barcode_sample_freertos_gcc/src/zxing_lib/zxing/common/Counted.h ****     }
 479              		.loc 5 43 0
 480 00cc 003090E5 		ldr	r3, [r0]
 481 00d0 043093E5 		ldr	r3, [r3, #4]
 482 00d4 33FF2FE1 		blx	r3
 483              	.LVL45:
 484 00d8 F4FFFFEA 		b	.L36
 485              	.LVL46:
 486              	.L38:
 487              	.LBE49:
 488              	.LBE50:
 489              	.LBE51:
 490              	.LBE52:
 491              	.LBE53:
 492              	.LBE54:
  45:../src/zxing_lib/zxing/qrcode/detector/AlignmentPattern.cpp ****   return result;
 493              		.loc 2 45 0
 494 00dc 1410A0E3 		mov	r1, #20
 495 00e0 0400A0E1 		mov	r0, r4
 496 00e4 FEFFFFEB 		bl	_ZdlPvj
 497              	.LVL47:
 498              	.LEHB2:
 499 00e8 FEFFFFEB 		bl	__cxa_end_cleanup
 500              	.LVL48:
 501              	.LEHE2:
 502              		.cfi_endproc
 503              	.LFE2013:
 504              		.global	__gxx_personality_v0
 505              		.personality	__gxx_personality_v0
 506              		.handlerdata
 507              	.LLSDA2013:
 508 0008 FF       		.byte	0xff
 509 0009 FF       		.byte	0xff
 510 000a 01       		.byte	0x1
 511 000b 0E       		.uleb128 .LLSDACSE2013-.LLSDACSB2013
 512              	.LLSDACSB2013:
 513 000c 28       		.uleb128 .LEHB0-.LFB2013
 514 000d 3C       		.uleb128 .LEHE0-.LEHB0
 515 000e 00       		.uleb128 0
 516 000f 00       		.uleb128 0
 517 0010 74       		.uleb128 .LEHB1-.LFB2013
 518 0011 04       		.uleb128 .LEHE1-.LEHB1
 519 0012 DC01     		.uleb128 .L38-.LFB2013
 520 0014 00       		.uleb128 0
 521 0015 E801     		.uleb128 .LEHB2-.LFB2013
 522 0017 04       		.uleb128 .LEHE2-.LEHB2
 523 0018 00       		.uleb128 0
 524 0019 00       		.uleb128 0
 525              	.LLSDACSE2013:
 526              		.section	.text._ZNK5zxing6qrcode16AlignmentPattern15combineEstimateEfff
 527              		.fnend
 529              		.section	.text._GLOBAL__sub_I__ZN5zxing6qrcode16AlignmentPatternC2Efff,"ax",%progbits
 530              		.align	2
 531              		.syntax unified
 532              		.arm
 533              		.fpu neon
 535              	_GLOBAL__sub_I__ZN5zxing6qrcode16AlignmentPatternC2Efff:
 536              		.fnstart
 537              	.LFB2467:
 538              		.loc 2 47 0
 539              		.cfi_startproc
 540              		@ args = 0, pretend = 0, frame = 0
 541              		@ frame_needed = 0, uses_anonymous_args = 0
 542 0000 10402DE9 		push	{r4, lr}
 543              		.cfi_def_cfa_offset 8
 544              		.cfi_offset 4, -8
 545              		.cfi_offset 14, -4
 546              		.loc 2 47 0
 547 0004 FF1F0FE3 		movw	r1, #65535
 548 0008 0100A0E3 		mov	r0, #1
 549 000c FEFFFFEB 		bl	_Z41__static_initialization_and_destruction_0ii
 550              	.LVL49:
 551 0010 1080BDE8 		pop	{r4, pc}
 552              		.cfi_endproc
 553              	.LFE2467:
 554              		.cantunwind
 555              		.fnend
 557              		.section	.init_array,"aw",%init_array
 558              		.align	2
 559 0000 00000000 		.word	_GLOBAL__sub_I__ZN5zxing6qrcode16AlignmentPatternC2Efff(target1)
 560              		.weak	_ZTSN5zxing6qrcode16AlignmentPatternE
 561              		.section	.rodata._ZTSN5zxing6qrcode16AlignmentPatternE,"aG",%progbits,_ZTSN5zxing6qrcode16Alignmen
 562              		.align	2
 565              	_ZTSN5zxing6qrcode16AlignmentPatternE:
 566 0000 4E357A78 		.ascii	"N5zxing6qrcode16AlignmentPatternE\000"
 566      696E6736 
 566      7172636F 
 566      64653136 
 566      416C6967 
 567              		.weak	_ZTIN5zxing6qrcode16AlignmentPatternE
 568              		.section	.rodata._ZTIN5zxing6qrcode16AlignmentPatternE,"aG",%progbits,_ZTIN5zxing6qrcode16Alignmen
 569              		.align	2
 572              	_ZTIN5zxing6qrcode16AlignmentPatternE:
 573 0000 08000000 		.word	_ZTVN10__cxxabiv120__si_class_type_infoE+8
 574 0004 00000000 		.word	_ZTSN5zxing6qrcode16AlignmentPatternE
 575 0008 00000000 		.word	_ZTIN5zxing11ResultPointE
 576              		.weak	_ZTVN5zxing6qrcode16AlignmentPatternE
 577              		.section	.rodata._ZTVN5zxing6qrcode16AlignmentPatternE,"aG",%progbits,_ZTVN5zxing6qrcode16Alignmen
 578              		.align	2
 581              	_ZTVN5zxing6qrcode16AlignmentPatternE:
 582 0000 00000000 		.word	0
 583 0004 00000000 		.word	_ZTIN5zxing6qrcode16AlignmentPatternE
 584 0008 00000000 		.word	_ZN5zxing6qrcode16AlignmentPatternD1Ev
 585 000c 00000000 		.word	_ZN5zxing6qrcode16AlignmentPatternD0Ev
 586 0010 00000000 		.word	_ZNK5zxing11ResultPoint4getXEv
 587 0014 00000000 		.word	_ZNK5zxing11ResultPoint4getYEv
 588              		.section	.bss._ZStL8__ioinit,"aw",%nobits
 589              		.align	2
 590              		.set	.LANCHOR0,. + 0
 593              	_ZStL8__ioinit:
 594 0000 00       		.space	1
 595              		.text
 596              	.Letext0:
 597              		.file 6 "/home/zkmike/.local/share/renesas/e2_studio/toolchains/gcc_arm/gcc-arm-none-eabi-6-2017-q
 598              		.file 7 "/home/zkmike/.local/share/renesas/e2_studio/toolchains/gcc_arm/gcc-arm-none-eabi-6-2017-q
 599              		.file 8 "/home/zkmike/.local/share/renesas/e2_studio/toolchains/gcc_arm/gcc-arm-none-eabi-6-2017-q
 600              		.file 9 "/home/zkmike/.local/share/renesas/e2_studio/toolchains/gcc_arm/gcc-arm-none-eabi-6-2017-q
 601              		.file 10 "/home/zkmike/.local/share/renesas/e2_studio/toolchains/gcc_arm/gcc-arm-none-eabi-6-2017-
 602              		.file 11 "/home/zkmike/.local/share/renesas/e2_studio/toolchains/gcc_arm/gcc-arm-none-eabi-6-2017-
 603              		.file 12 "/home/zkmike/.local/share/renesas/e2_studio/toolchains/gcc_arm/gcc-arm-none-eabi-6-2017-
 604              		.file 13 "/home/zkmike/.local/share/renesas/e2_studio/toolchains/gcc_arm/gcc-arm-none-eabi-6-2017-
 605              		.file 14 "/home/zkmike/.local/share/renesas/e2_studio/toolchains/gcc_arm/gcc-arm-none-eabi-6-2017-
 606              		.file 15 "/home/zkmike/.local/share/renesas/e2_studio/toolchains/gcc_arm/gcc-arm-none-eabi-6-2017-
 607              		.file 16 "/home/zkmike/.local/share/renesas/e2_studio/toolchains/gcc_arm/gcc-arm-none-eabi-6-2017-
 608              		.file 17 "/home/zkmike/.local/share/renesas/e2_studio/toolchains/gcc_arm/gcc-arm-none-eabi-6-2017-
 609              		.file 18 "/home/zkmike/.local/share/renesas/e2_studio/toolchains/gcc_arm/gcc-arm-none-eabi-6-2017-
 610              		.file 19 "/home/zkmike/.local/share/renesas/e2_studio/toolchains/gcc_arm/gcc-arm-none-eabi-6-2017-
 611              		.file 20 "/home/zkmike/.local/share/renesas/e2_studio/toolchains/gcc_arm/gcc-arm-none-eabi-6-2017-
 612              		.file 21 "/home/zkmike/.local/share/renesas/e2_studio/toolchains/gcc_arm/gcc-arm-none-eabi-6-2017-
 613              		.file 22 "/home/zkmike/.local/share/renesas/e2_studio/toolchains/gcc_arm/gcc-arm-none-eabi-6-2017-
 614              		.file 23 "/home/zkmike/.local/share/renesas/e2_studio/toolchains/gcc_arm/gcc-arm-none-eabi-6-2017-
 615              		.file 24 "/home/zkmike/.local/share/renesas/e2_studio/toolchains/gcc_arm/gcc-arm-none-eabi-6-2017-
 616              		.file 25 "/home/zkmike/.local/share/renesas/e2_studio/toolchains/gcc_arm/gcc-arm-none-eabi-6-2017-
 617              		.file 26 "/home/zkmike/.local/share/renesas/e2_studio/toolchains/gcc_arm/gcc-arm-none-eabi-6-2017-
 618              		.file 27 "/home/zkmike/.local/share/renesas/e2_studio/toolchains/gcc_arm/gcc-arm-none-eabi-6-2017-
 619              		.file 28 "/home/zkmike/.local/share/renesas/e2_studio/toolchains/gcc_arm/gcc-arm-none-eabi-6-2017-
 620              		.file 29 "/home/zkmike/.local/share/renesas/e2_studio/toolchains/gcc_arm/gcc-arm-none-eabi-6-2017-
 621              		.file 30 "/home/zkmike/.local/share/renesas/e2_studio/toolchains/gcc_arm/gcc-arm-none-eabi-6-2017-
 622              		.file 31 "/home/zkmike/.local/share/renesas/e2_studio/toolchains/gcc_arm/gcc-arm-none-eabi-6-2017-
 623              		.file 32 "/home/zkmike/.local/share/renesas/e2_studio/toolchains/gcc_arm/gcc-arm-none-eabi-6-2017-
 624              		.file 33 "<built-in>"
 625              		.file 34 "/home/zkmike/.local/share/renesas/e2_studio/toolchains/gcc_arm/gcc-arm-none-eabi-6-2017-
 626              		.file 35 "/home/zkmike/.local/share/renesas/e2_studio/toolchains/gcc_arm/gcc-arm-none-eabi-6-2017-
 627              		.file 36 "/home/zkmike/.local/share/renesas/e2_studio/toolchains/gcc_arm/gcc-arm-none-eabi-6-2017-
 628              		.file 37 "/home/zkmike/.local/share/renesas/e2_studio/toolchains/gcc_arm/gcc-arm-none-eabi-6-2017-
 629              		.file 38 "/home/zkmike/.local/share/renesas/e2_studio/toolchains/gcc_arm/gcc-arm-none-eabi-6-2017-
 630              		.file 39 "/home/zkmike/.local/share/renesas/e2_studio/toolchains/gcc_arm/gcc-arm-none-eabi-6-2017-
 631              		.file 40 "/home/zkmike/.local/share/renesas/e2_studio/toolchains/gcc_arm/gcc-arm-none-eabi-6-2017-
 632              		.file 41 "/home/zkmike/.local/share/renesas/e2_studio/toolchains/gcc_arm/gcc-arm-none-eabi-6-2017-
 633              		.file 42 "/home/zkmike/.local/share/renesas/e2_studio/toolchains/gcc_arm/gcc-arm-none-eabi-6-2017-
 634              		.file 43 "/home/zkmike/.local/share/renesas/e2_studio/toolchains/gcc_arm/gcc-arm-none-eabi-6-2017-
 635              		.file 44 "/home/zkmike/.local/share/renesas/e2_studio/toolchains/gcc_arm/gcc-arm-none-eabi-6-2017-
 636              		.file 45 "/home/zkmike/.local/share/renesas/e2_studio/toolchains/gcc_arm/gcc-arm-none-eabi-6-2017-