   1              		.cpu cortex-a9
   2              		.eabi_attribute 28, 1
   3              		.eabi_attribute 20, 1
   4              		.eabi_attribute 21, 1
   5              		.eabi_attribute 23, 3
   6              		.eabi_attribute 24, 1
   7              		.eabi_attribute 25, 1
   8              		.eabi_attribute 26, 1
   9              		.eabi_attribute 30, 1
  10              		.eabi_attribute 34, 0
  11              		.eabi_attribute 18, 4
  12              		.file	"AlignmentPatternFinder.cpp"
  13              		.text
  14              	.Ltext0:
  15              		.cfi_sections	.debug_frame
  16              		.section	.text._ZNK5zxing9Exception4whatEv,"axG",%progbits,_ZNK5zxing9Exception4whatEv,comdat
  17              		.align	2
  18              		.weak	_ZNK5zxing9Exception4whatEv
  19              		.syntax unified
  20              		.arm
  21              		.fpu neon
  23              	_ZNK5zxing9Exception4whatEv:
  24              		.fnstart
  25              	.LFB2199:
  26              		.file 1 "/home/zkmike/workspace/RZA2M/rza2m_2d_barcode_sample_freertos_gcc/src/zxing_lib/zxing/Exc
   1:/home/zkmike/workspace/RZA2M/rza2m_2d_barcode_sample_freertos_gcc/src/zxing_lib/zxing/Exception.h **** // -*- mode:c++; tab-width:2; indent-tabs-mode:nil; c-basic-offset:2 -*-
   2:/home/zkmike/workspace/RZA2M/rza2m_2d_barcode_sample_freertos_gcc/src/zxing_lib/zxing/Exception.h **** #ifndef __EXCEPTION_H__
   3:/home/zkmike/workspace/RZA2M/rza2m_2d_barcode_sample_freertos_gcc/src/zxing_lib/zxing/Exception.h **** #define __EXCEPTION_H__
   4:/home/zkmike/workspace/RZA2M/rza2m_2d_barcode_sample_freertos_gcc/src/zxing_lib/zxing/Exception.h **** 
   5:/home/zkmike/workspace/RZA2M/rza2m_2d_barcode_sample_freertos_gcc/src/zxing_lib/zxing/Exception.h **** /*
   6:/home/zkmike/workspace/RZA2M/rza2m_2d_barcode_sample_freertos_gcc/src/zxing_lib/zxing/Exception.h ****  *  Exception.h
   7:/home/zkmike/workspace/RZA2M/rza2m_2d_barcode_sample_freertos_gcc/src/zxing_lib/zxing/Exception.h ****  *  ZXing
   8:/home/zkmike/workspace/RZA2M/rza2m_2d_barcode_sample_freertos_gcc/src/zxing_lib/zxing/Exception.h ****  *
   9:/home/zkmike/workspace/RZA2M/rza2m_2d_barcode_sample_freertos_gcc/src/zxing_lib/zxing/Exception.h ****  *  Copyright 2010 ZXing authors All rights reserved.
  10:/home/zkmike/workspace/RZA2M/rza2m_2d_barcode_sample_freertos_gcc/src/zxing_lib/zxing/Exception.h ****  *
  11:/home/zkmike/workspace/RZA2M/rza2m_2d_barcode_sample_freertos_gcc/src/zxing_lib/zxing/Exception.h ****  * Licensed under the Apache License, Version 2.0 (the "License");
  12:/home/zkmike/workspace/RZA2M/rza2m_2d_barcode_sample_freertos_gcc/src/zxing_lib/zxing/Exception.h ****  * you may not use this file except in compliance with the License.
  13:/home/zkmike/workspace/RZA2M/rza2m_2d_barcode_sample_freertos_gcc/src/zxing_lib/zxing/Exception.h ****  * You may obtain a copy of the License at
  14:/home/zkmike/workspace/RZA2M/rza2m_2d_barcode_sample_freertos_gcc/src/zxing_lib/zxing/Exception.h ****  *
  15:/home/zkmike/workspace/RZA2M/rza2m_2d_barcode_sample_freertos_gcc/src/zxing_lib/zxing/Exception.h ****  *      http://www.apache.org/licenses/LICENSE-2.0
  16:/home/zkmike/workspace/RZA2M/rza2m_2d_barcode_sample_freertos_gcc/src/zxing_lib/zxing/Exception.h ****  *
  17:/home/zkmike/workspace/RZA2M/rza2m_2d_barcode_sample_freertos_gcc/src/zxing_lib/zxing/Exception.h ****  * Unless required by applicable law or agreed to in writing, software
  18:/home/zkmike/workspace/RZA2M/rza2m_2d_barcode_sample_freertos_gcc/src/zxing_lib/zxing/Exception.h ****  * distributed under the License is distributed on an "AS IS" BASIS,
  19:/home/zkmike/workspace/RZA2M/rza2m_2d_barcode_sample_freertos_gcc/src/zxing_lib/zxing/Exception.h ****  * WITHOUT WARRANTIES OR CONDITIONS OF ANY KIND, either express or implied.
  20:/home/zkmike/workspace/RZA2M/rza2m_2d_barcode_sample_freertos_gcc/src/zxing_lib/zxing/Exception.h ****  * See the License for the specific language governing permissions and
  21:/home/zkmike/workspace/RZA2M/rza2m_2d_barcode_sample_freertos_gcc/src/zxing_lib/zxing/Exception.h ****  * limitations under the License.
  22:/home/zkmike/workspace/RZA2M/rza2m_2d_barcode_sample_freertos_gcc/src/zxing_lib/zxing/Exception.h ****  */
  23:/home/zkmike/workspace/RZA2M/rza2m_2d_barcode_sample_freertos_gcc/src/zxing_lib/zxing/Exception.h **** 
  24:/home/zkmike/workspace/RZA2M/rza2m_2d_barcode_sample_freertos_gcc/src/zxing_lib/zxing/Exception.h **** #include <string>
  25:/home/zkmike/workspace/RZA2M/rza2m_2d_barcode_sample_freertos_gcc/src/zxing_lib/zxing/Exception.h **** #include <exception>
  26:/home/zkmike/workspace/RZA2M/rza2m_2d_barcode_sample_freertos_gcc/src/zxing_lib/zxing/Exception.h **** 
  27:/home/zkmike/workspace/RZA2M/rza2m_2d_barcode_sample_freertos_gcc/src/zxing_lib/zxing/Exception.h **** namespace zxing {
  28:/home/zkmike/workspace/RZA2M/rza2m_2d_barcode_sample_freertos_gcc/src/zxing_lib/zxing/Exception.h **** 
  29:/home/zkmike/workspace/RZA2M/rza2m_2d_barcode_sample_freertos_gcc/src/zxing_lib/zxing/Exception.h **** class Exception : public std::exception {
  30:/home/zkmike/workspace/RZA2M/rza2m_2d_barcode_sample_freertos_gcc/src/zxing_lib/zxing/Exception.h **** private:
  31:/home/zkmike/workspace/RZA2M/rza2m_2d_barcode_sample_freertos_gcc/src/zxing_lib/zxing/Exception.h ****   char const* const message;
  32:/home/zkmike/workspace/RZA2M/rza2m_2d_barcode_sample_freertos_gcc/src/zxing_lib/zxing/Exception.h **** 
  33:/home/zkmike/workspace/RZA2M/rza2m_2d_barcode_sample_freertos_gcc/src/zxing_lib/zxing/Exception.h **** public:
  34:/home/zkmike/workspace/RZA2M/rza2m_2d_barcode_sample_freertos_gcc/src/zxing_lib/zxing/Exception.h ****   Exception() throw() : message(0) {}
  35:/home/zkmike/workspace/RZA2M/rza2m_2d_barcode_sample_freertos_gcc/src/zxing_lib/zxing/Exception.h ****   Exception(const char* msg) throw() : message(copy(msg)) {}
  36:/home/zkmike/workspace/RZA2M/rza2m_2d_barcode_sample_freertos_gcc/src/zxing_lib/zxing/Exception.h ****   Exception(Exception const& that) throw() : std::exception(that), message(copy(that.message)) {}
  37:/home/zkmike/workspace/RZA2M/rza2m_2d_barcode_sample_freertos_gcc/src/zxing_lib/zxing/Exception.h ****   ~Exception() throw() {
  38:/home/zkmike/workspace/RZA2M/rza2m_2d_barcode_sample_freertos_gcc/src/zxing_lib/zxing/Exception.h ****     if(message) {
  39:/home/zkmike/workspace/RZA2M/rza2m_2d_barcode_sample_freertos_gcc/src/zxing_lib/zxing/Exception.h ****       deleteMessage();
  40:/home/zkmike/workspace/RZA2M/rza2m_2d_barcode_sample_freertos_gcc/src/zxing_lib/zxing/Exception.h ****     }
  41:/home/zkmike/workspace/RZA2M/rza2m_2d_barcode_sample_freertos_gcc/src/zxing_lib/zxing/Exception.h ****   }
  42:/home/zkmike/workspace/RZA2M/rza2m_2d_barcode_sample_freertos_gcc/src/zxing_lib/zxing/Exception.h ****   char const* what() const throw() {return message ? message : "";}
  27              		.loc 1 42 0
  28              		.cfi_startproc
  29              		@ args = 0, pretend = 0, frame = 0
  30              		@ frame_needed = 0, uses_anonymous_args = 0
  31              		@ link register save eliminated.
  32              	.LVL0:
  33              		.loc 1 42 0
  34 0000 040090E5 		ldr	r0, [r0, #4]
  35              	.LVL1:
  36 0004 000050E3 		cmp	r0, #0
  37 0008 1EFF2F11 		bxne	lr
  38 000c 000000E3 		movw	r0, #:lower16:.LC0
  39 0010 000040E3 		movt	r0, #:upper16:.LC0
  40 0014 1EFF2FE1 		bx	lr
  41              		.cfi_endproc
  42              	.LFE2199:
  43              		.cantunwind
  44              		.fnend
  46              		.section	.text._ZN5zxing6qrcode22AlignmentPatternFinderD2Ev,"ax",%progbits
  47              		.align	2
  48              		.global	_ZN5zxing6qrcode22AlignmentPatternFinderD2Ev
  49              		.syntax unified
  50              		.arm
  51              		.fpu neon
  53              	_ZN5zxing6qrcode22AlignmentPatternFinderD2Ev:
  54              		.fnstart
  55              	.LFB2260:
  56              		.file 2 "../src/zxing_lib/zxing/qrcode/detector/AlignmentPatternFinder.cpp"
   1:../src/zxing_lib/zxing/qrcode/detector/AlignmentPatternFinder.cpp **** // -*- mode:c++; tab-width:2; indent-tabs-mode:nil; c-basic-offset:2 -*-
   2:../src/zxing_lib/zxing/qrcode/detector/AlignmentPatternFinder.cpp **** /*
   3:../src/zxing_lib/zxing/qrcode/detector/AlignmentPatternFinder.cpp ****  *  Copyright 2008 ZXing authors All rights reserved.
   4:../src/zxing_lib/zxing/qrcode/detector/AlignmentPatternFinder.cpp ****  *
   5:../src/zxing_lib/zxing/qrcode/detector/AlignmentPatternFinder.cpp ****  * Licensed under the Apache License, Version 2.0 (the "License");
   6:../src/zxing_lib/zxing/qrcode/detector/AlignmentPatternFinder.cpp ****  * you may not use this file except in compliance with the License.
   7:../src/zxing_lib/zxing/qrcode/detector/AlignmentPatternFinder.cpp ****  * You may obtain a copy of the License at
   8:../src/zxing_lib/zxing/qrcode/detector/AlignmentPatternFinder.cpp ****  *
   9:../src/zxing_lib/zxing/qrcode/detector/AlignmentPatternFinder.cpp ****  *      http://www.apache.org/licenses/LICENSE-2.0
  10:../src/zxing_lib/zxing/qrcode/detector/AlignmentPatternFinder.cpp ****  *
  11:../src/zxing_lib/zxing/qrcode/detector/AlignmentPatternFinder.cpp ****  * Unless required by applicable law or agreed to in writing, software
  12:../src/zxing_lib/zxing/qrcode/detector/AlignmentPatternFinder.cpp ****  * distributed under the License is distributed on an "AS IS" BASIS,
  13:../src/zxing_lib/zxing/qrcode/detector/AlignmentPatternFinder.cpp ****  * WITHOUT WARRANTIES OR CONDITIONS OF ANY KIND, either express or implied.
  14:../src/zxing_lib/zxing/qrcode/detector/AlignmentPatternFinder.cpp ****  * See the License for the specific language governing permissions and
  15:../src/zxing_lib/zxing/qrcode/detector/AlignmentPatternFinder.cpp ****  * limitations under the License.
  16:../src/zxing_lib/zxing/qrcode/detector/AlignmentPatternFinder.cpp ****  */
  17:../src/zxing_lib/zxing/qrcode/detector/AlignmentPatternFinder.cpp **** 
  18:../src/zxing_lib/zxing/qrcode/detector/AlignmentPatternFinder.cpp **** #include <zxing/qrcode/detector/AlignmentPatternFinder.h>
  19:../src/zxing_lib/zxing/qrcode/detector/AlignmentPatternFinder.cpp **** #include <zxing/ReaderException.h>
  20:../src/zxing_lib/zxing/qrcode/detector/AlignmentPatternFinder.cpp **** #include <zxing/common/BitArray.h>
  21:../src/zxing_lib/zxing/qrcode/detector/AlignmentPatternFinder.cpp **** #include <vector>
  22:../src/zxing_lib/zxing/qrcode/detector/AlignmentPatternFinder.cpp **** #include <cmath>
  23:../src/zxing_lib/zxing/qrcode/detector/AlignmentPatternFinder.cpp **** #include <cstdlib>
  24:../src/zxing_lib/zxing/qrcode/detector/AlignmentPatternFinder.cpp **** 
  25:../src/zxing_lib/zxing/qrcode/detector/AlignmentPatternFinder.cpp **** using std::abs;
  26:../src/zxing_lib/zxing/qrcode/detector/AlignmentPatternFinder.cpp **** using std::vector;
  27:../src/zxing_lib/zxing/qrcode/detector/AlignmentPatternFinder.cpp **** using zxing::Ref;
  28:../src/zxing_lib/zxing/qrcode/detector/AlignmentPatternFinder.cpp **** using zxing::qrcode::AlignmentPatternFinder;
  29:../src/zxing_lib/zxing/qrcode/detector/AlignmentPatternFinder.cpp **** using zxing::qrcode::AlignmentPattern;
  30:../src/zxing_lib/zxing/qrcode/detector/AlignmentPatternFinder.cpp **** 
  31:../src/zxing_lib/zxing/qrcode/detector/AlignmentPatternFinder.cpp **** // VC++
  32:../src/zxing_lib/zxing/qrcode/detector/AlignmentPatternFinder.cpp **** 
  33:../src/zxing_lib/zxing/qrcode/detector/AlignmentPatternFinder.cpp **** using zxing::BitMatrix;
  34:../src/zxing_lib/zxing/qrcode/detector/AlignmentPatternFinder.cpp **** using zxing::ResultPointCallback;
  35:../src/zxing_lib/zxing/qrcode/detector/AlignmentPatternFinder.cpp **** 
  36:../src/zxing_lib/zxing/qrcode/detector/AlignmentPatternFinder.cpp **** float AlignmentPatternFinder::centerFromEnd(vector<int>& stateCount, int end) {
  37:../src/zxing_lib/zxing/qrcode/detector/AlignmentPatternFinder.cpp ****   return (float)(end - stateCount[2]) - stateCount[1] / 2.0f;
  38:../src/zxing_lib/zxing/qrcode/detector/AlignmentPatternFinder.cpp **** }
  39:../src/zxing_lib/zxing/qrcode/detector/AlignmentPatternFinder.cpp **** 
  40:../src/zxing_lib/zxing/qrcode/detector/AlignmentPatternFinder.cpp **** bool AlignmentPatternFinder::foundPatternCross(vector<int> &stateCount) {
  41:../src/zxing_lib/zxing/qrcode/detector/AlignmentPatternFinder.cpp ****   float maxVariance = moduleSize_ / 2.0f;
  42:../src/zxing_lib/zxing/qrcode/detector/AlignmentPatternFinder.cpp ****   for (int i = 0; i < 3; i++) {
  43:../src/zxing_lib/zxing/qrcode/detector/AlignmentPatternFinder.cpp ****     if (abs(moduleSize_ - stateCount[i]) >= maxVariance) {
  44:../src/zxing_lib/zxing/qrcode/detector/AlignmentPatternFinder.cpp ****       return false;
  45:../src/zxing_lib/zxing/qrcode/detector/AlignmentPatternFinder.cpp ****     }
  46:../src/zxing_lib/zxing/qrcode/detector/AlignmentPatternFinder.cpp ****   }
  47:../src/zxing_lib/zxing/qrcode/detector/AlignmentPatternFinder.cpp ****   return true;
  48:../src/zxing_lib/zxing/qrcode/detector/AlignmentPatternFinder.cpp **** }
  49:../src/zxing_lib/zxing/qrcode/detector/AlignmentPatternFinder.cpp **** 
  50:../src/zxing_lib/zxing/qrcode/detector/AlignmentPatternFinder.cpp **** float AlignmentPatternFinder::crossCheckVertical(int startI, int centerJ, int maxCount,
  51:../src/zxing_lib/zxing/qrcode/detector/AlignmentPatternFinder.cpp ****                                                  int originalStateCountTotal) {
  52:../src/zxing_lib/zxing/qrcode/detector/AlignmentPatternFinder.cpp ****   int maxI = image_->getHeight();
  53:../src/zxing_lib/zxing/qrcode/detector/AlignmentPatternFinder.cpp ****   vector<int> stateCount(3, 0);
  54:../src/zxing_lib/zxing/qrcode/detector/AlignmentPatternFinder.cpp **** 
  55:../src/zxing_lib/zxing/qrcode/detector/AlignmentPatternFinder.cpp **** 
  56:../src/zxing_lib/zxing/qrcode/detector/AlignmentPatternFinder.cpp ****   // Start counting up from center
  57:../src/zxing_lib/zxing/qrcode/detector/AlignmentPatternFinder.cpp ****   int i = startI;
  58:../src/zxing_lib/zxing/qrcode/detector/AlignmentPatternFinder.cpp ****   while (i >= 0 && image_->get(centerJ, i) && stateCount[1] <= maxCount) {
  59:../src/zxing_lib/zxing/qrcode/detector/AlignmentPatternFinder.cpp ****     stateCount[1]++;
  60:../src/zxing_lib/zxing/qrcode/detector/AlignmentPatternFinder.cpp ****     i--;
  61:../src/zxing_lib/zxing/qrcode/detector/AlignmentPatternFinder.cpp ****   }
  62:../src/zxing_lib/zxing/qrcode/detector/AlignmentPatternFinder.cpp ****   // If already too many modules in this state or ran off the edge:
  63:../src/zxing_lib/zxing/qrcode/detector/AlignmentPatternFinder.cpp ****   if (i < 0 || stateCount[1] > maxCount) {
  64:../src/zxing_lib/zxing/qrcode/detector/AlignmentPatternFinder.cpp ****     return nan();
  65:../src/zxing_lib/zxing/qrcode/detector/AlignmentPatternFinder.cpp ****   }
  66:../src/zxing_lib/zxing/qrcode/detector/AlignmentPatternFinder.cpp ****   while (i >= 0 && !image_->get(centerJ, i) && stateCount[0] <= maxCount) {
  67:../src/zxing_lib/zxing/qrcode/detector/AlignmentPatternFinder.cpp ****     stateCount[0]++;
  68:../src/zxing_lib/zxing/qrcode/detector/AlignmentPatternFinder.cpp ****     i--;
  69:../src/zxing_lib/zxing/qrcode/detector/AlignmentPatternFinder.cpp ****   }
  70:../src/zxing_lib/zxing/qrcode/detector/AlignmentPatternFinder.cpp ****   if (stateCount[0] > maxCount) {
  71:../src/zxing_lib/zxing/qrcode/detector/AlignmentPatternFinder.cpp ****     return nan();
  72:../src/zxing_lib/zxing/qrcode/detector/AlignmentPatternFinder.cpp ****   }
  73:../src/zxing_lib/zxing/qrcode/detector/AlignmentPatternFinder.cpp **** 
  74:../src/zxing_lib/zxing/qrcode/detector/AlignmentPatternFinder.cpp ****   // Now also count down from center
  75:../src/zxing_lib/zxing/qrcode/detector/AlignmentPatternFinder.cpp ****   i = startI + 1;
  76:../src/zxing_lib/zxing/qrcode/detector/AlignmentPatternFinder.cpp ****   while (i < maxI && image_->get(centerJ, i) && stateCount[1] <= maxCount) {
  77:../src/zxing_lib/zxing/qrcode/detector/AlignmentPatternFinder.cpp ****     stateCount[1]++;
  78:../src/zxing_lib/zxing/qrcode/detector/AlignmentPatternFinder.cpp ****     i++;
  79:../src/zxing_lib/zxing/qrcode/detector/AlignmentPatternFinder.cpp ****   }
  80:../src/zxing_lib/zxing/qrcode/detector/AlignmentPatternFinder.cpp ****   if (i == maxI || stateCount[1] > maxCount) {
  81:../src/zxing_lib/zxing/qrcode/detector/AlignmentPatternFinder.cpp ****     return nan();
  82:../src/zxing_lib/zxing/qrcode/detector/AlignmentPatternFinder.cpp ****   }
  83:../src/zxing_lib/zxing/qrcode/detector/AlignmentPatternFinder.cpp ****   while (i < maxI && !image_->get(centerJ, i) && stateCount[2] <= maxCount) {
  84:../src/zxing_lib/zxing/qrcode/detector/AlignmentPatternFinder.cpp ****     stateCount[2]++;
  85:../src/zxing_lib/zxing/qrcode/detector/AlignmentPatternFinder.cpp ****     i++;
  86:../src/zxing_lib/zxing/qrcode/detector/AlignmentPatternFinder.cpp ****   }
  87:../src/zxing_lib/zxing/qrcode/detector/AlignmentPatternFinder.cpp ****   if (stateCount[2] > maxCount) {
  88:../src/zxing_lib/zxing/qrcode/detector/AlignmentPatternFinder.cpp ****     return nan();
  89:../src/zxing_lib/zxing/qrcode/detector/AlignmentPatternFinder.cpp ****   }
  90:../src/zxing_lib/zxing/qrcode/detector/AlignmentPatternFinder.cpp **** 
  91:../src/zxing_lib/zxing/qrcode/detector/AlignmentPatternFinder.cpp ****   int stateCountTotal = stateCount[0] + stateCount[1] + stateCount[2];
  92:../src/zxing_lib/zxing/qrcode/detector/AlignmentPatternFinder.cpp ****   if (5 * abs(stateCountTotal - originalStateCountTotal) >= 2 * originalStateCountTotal) {
  93:../src/zxing_lib/zxing/qrcode/detector/AlignmentPatternFinder.cpp ****     return nan();
  94:../src/zxing_lib/zxing/qrcode/detector/AlignmentPatternFinder.cpp ****   }
  95:../src/zxing_lib/zxing/qrcode/detector/AlignmentPatternFinder.cpp **** 
  96:../src/zxing_lib/zxing/qrcode/detector/AlignmentPatternFinder.cpp ****   return foundPatternCross(stateCount) ? centerFromEnd(stateCount, i) : nan();
  97:../src/zxing_lib/zxing/qrcode/detector/AlignmentPatternFinder.cpp **** }
  98:../src/zxing_lib/zxing/qrcode/detector/AlignmentPatternFinder.cpp **** 
  99:../src/zxing_lib/zxing/qrcode/detector/AlignmentPatternFinder.cpp **** Ref<AlignmentPattern> AlignmentPatternFinder::handlePossibleCenter(vector<int> &stateCount, int i, 
 100:../src/zxing_lib/zxing/qrcode/detector/AlignmentPatternFinder.cpp ****   int stateCountTotal = stateCount[0] + stateCount[1] + stateCount[2];
 101:../src/zxing_lib/zxing/qrcode/detector/AlignmentPatternFinder.cpp ****   float centerJ = centerFromEnd(stateCount, j);
 102:../src/zxing_lib/zxing/qrcode/detector/AlignmentPatternFinder.cpp ****   float centerI = crossCheckVertical(i, (int)centerJ, 2 * stateCount[1], stateCountTotal);
 103:../src/zxing_lib/zxing/qrcode/detector/AlignmentPatternFinder.cpp ****   if (!isnan(centerI)) {
 104:../src/zxing_lib/zxing/qrcode/detector/AlignmentPatternFinder.cpp ****     float estimatedModuleSize = (float)(stateCount[0] + stateCount[1] + stateCount[2]) / 3.0f;
 105:../src/zxing_lib/zxing/qrcode/detector/AlignmentPatternFinder.cpp ****     int max = possibleCenters_->size();
 106:../src/zxing_lib/zxing/qrcode/detector/AlignmentPatternFinder.cpp ****     for (int index = 0; index < max; index++) {
 107:../src/zxing_lib/zxing/qrcode/detector/AlignmentPatternFinder.cpp ****       Ref<AlignmentPattern> center((*possibleCenters_)[index]);
 108:../src/zxing_lib/zxing/qrcode/detector/AlignmentPatternFinder.cpp ****       // Look for about the same center and module size:
 109:../src/zxing_lib/zxing/qrcode/detector/AlignmentPatternFinder.cpp ****       if (center->aboutEquals(estimatedModuleSize, centerI, centerJ)) {
 110:../src/zxing_lib/zxing/qrcode/detector/AlignmentPatternFinder.cpp ****         return center->combineEstimate(centerI, centerJ, estimatedModuleSize);
 111:../src/zxing_lib/zxing/qrcode/detector/AlignmentPatternFinder.cpp ****       }
 112:../src/zxing_lib/zxing/qrcode/detector/AlignmentPatternFinder.cpp ****     }
 113:../src/zxing_lib/zxing/qrcode/detector/AlignmentPatternFinder.cpp ****     AlignmentPattern *tmp = new AlignmentPattern(centerJ, centerI, estimatedModuleSize);
 114:../src/zxing_lib/zxing/qrcode/detector/AlignmentPatternFinder.cpp ****     // Hadn't found this before; save it
 115:../src/zxing_lib/zxing/qrcode/detector/AlignmentPatternFinder.cpp ****     tmp->retain();
 116:../src/zxing_lib/zxing/qrcode/detector/AlignmentPatternFinder.cpp ****     possibleCenters_->push_back(tmp);
 117:../src/zxing_lib/zxing/qrcode/detector/AlignmentPatternFinder.cpp ****     if (callback_ != 0) {
 118:../src/zxing_lib/zxing/qrcode/detector/AlignmentPatternFinder.cpp ****       callback_->foundPossibleResultPoint(*tmp);
 119:../src/zxing_lib/zxing/qrcode/detector/AlignmentPatternFinder.cpp ****     }
 120:../src/zxing_lib/zxing/qrcode/detector/AlignmentPatternFinder.cpp ****   }
 121:../src/zxing_lib/zxing/qrcode/detector/AlignmentPatternFinder.cpp ****   Ref<AlignmentPattern> result;
 122:../src/zxing_lib/zxing/qrcode/detector/AlignmentPatternFinder.cpp ****   return result;
 123:../src/zxing_lib/zxing/qrcode/detector/AlignmentPatternFinder.cpp **** }
 124:../src/zxing_lib/zxing/qrcode/detector/AlignmentPatternFinder.cpp **** 
 125:../src/zxing_lib/zxing/qrcode/detector/AlignmentPatternFinder.cpp **** AlignmentPatternFinder::AlignmentPatternFinder(Ref<BitMatrix> image, int startX, int startY, int wi
 126:../src/zxing_lib/zxing/qrcode/detector/AlignmentPatternFinder.cpp ****                                                int height, float moduleSize, 
 127:../src/zxing_lib/zxing/qrcode/detector/AlignmentPatternFinder.cpp ****                                                Ref<ResultPointCallback>const& callback) :
 128:../src/zxing_lib/zxing/qrcode/detector/AlignmentPatternFinder.cpp ****     image_(image), possibleCenters_(new vector<AlignmentPattern *> ()), startX_(startX), startY_(st
 129:../src/zxing_lib/zxing/qrcode/detector/AlignmentPatternFinder.cpp ****     width_(width), height_(height), moduleSize_(moduleSize), callback_(callback) {
 130:../src/zxing_lib/zxing/qrcode/detector/AlignmentPatternFinder.cpp **** }
 131:../src/zxing_lib/zxing/qrcode/detector/AlignmentPatternFinder.cpp **** 
 132:../src/zxing_lib/zxing/qrcode/detector/AlignmentPatternFinder.cpp **** AlignmentPatternFinder::~AlignmentPatternFinder() {
  57              		.loc 2 132 0
  58              		.cfi_startproc
  59              		@ args = 0, pretend = 0, frame = 0
  60              		@ frame_needed = 0, uses_anonymous_args = 0
  61              	.LVL2:
  62 0000 70402DE9 		push	{r4, r5, r6, lr}
  63              		.cfi_def_cfa_offset 16
  64              		.cfi_offset 4, -16
  65              		.cfi_offset 5, -12
  66              		.cfi_offset 6, -8
  67              		.cfi_offset 14, -4
  68 0004 0060A0E1 		mov	r6, r0
  69              	.LBB747:
  70              		.loc 2 132 0
  71 0008 0C319FE5 		ldr	r3, .L14
  72 000c 003080E5 		str	r3, [r0]
  73              	.LVL3:
  74              	.LBB748:
  75              	.LBB749:
 133:../src/zxing_lib/zxing/qrcode/detector/AlignmentPatternFinder.cpp ****   for (int i = 0; i < int(possibleCenters_->size()); i++) {
  76              		.loc 2 133 0
  77 0010 0040A0E3 		mov	r4, #0
  78 0014 040000EA 		b	.L6
  79              	.LVL4:
  80              	.L5:
 134:../src/zxing_lib/zxing/qrcode/detector/AlignmentPatternFinder.cpp ****     (*possibleCenters_)[i]->release();
 135:../src/zxing_lib/zxing/qrcode/detector/AlignmentPatternFinder.cpp ****     (*possibleCenters_)[i] = 0;
  81              		.loc 2 135 0 discriminator 2
  82 0018 0C3096E5 		ldr	r3, [r6, #12]
  83              	.LVL5:
  84              	.LBB750:
  85              	.LBB751:
  86              		.file 3 "/home/zkmike/.local/share/renesas/e2_studio/toolchains/gcc_arm/gcc-arm-none-eabi-6-2017-q
   1:/home/zkmike/.local/share/renesas/e2_studio/toolchains/gcc_arm/gcc-arm-none-eabi-6-2017-q2-update/arm-none-eabi/include/c++/6.3.1/bits/stl_vector.h **** // Vector implementation -*- C++ -*-
   2:/home/zkmike/.local/share/renesas/e2_studio/toolchains/gcc_arm/gcc-arm-none-eabi-6-2017-q2-update/arm-none-eabi/include/c++/6.3.1/bits/stl_vector.h **** 
   3:/home/zkmike/.local/share/renesas/e2_studio/toolchains/gcc_arm/gcc-arm-none-eabi-6-2017-q2-update/arm-none-eabi/include/c++/6.3.1/bits/stl_vector.h **** // Copyright (C) 2001-2016 Free Software Foundation, Inc.
   4:/home/zkmike/.local/share/renesas/e2_studio/toolchains/gcc_arm/gcc-arm-none-eabi-6-2017-q2-update/arm-none-eabi/include/c++/6.3.1/bits/stl_vector.h **** //
   5:/home/zkmike/.local/share/renesas/e2_studio/toolchains/gcc_arm/gcc-arm-none-eabi-6-2017-q2-update/arm-none-eabi/include/c++/6.3.1/bits/stl_vector.h **** // This file is part of the GNU ISO C++ Library.  This library is free
   6:/home/zkmike/.local/share/renesas/e2_studio/toolchains/gcc_arm/gcc-arm-none-eabi-6-2017-q2-update/arm-none-eabi/include/c++/6.3.1/bits/stl_vector.h **** // software; you can redistribute it and/or modify it under the
   7:/home/zkmike/.local/share/renesas/e2_studio/toolchains/gcc_arm/gcc-arm-none-eabi-6-2017-q2-update/arm-none-eabi/include/c++/6.3.1/bits/stl_vector.h **** // terms of the GNU General Public License as published by the
   8:/home/zkmike/.local/share/renesas/e2_studio/toolchains/gcc_arm/gcc-arm-none-eabi-6-2017-q2-update/arm-none-eabi/include/c++/6.3.1/bits/stl_vector.h **** // Free Software Foundation; either version 3, or (at your option)
   9:/home/zkmike/.local/share/renesas/e2_studio/toolchains/gcc_arm/gcc-arm-none-eabi-6-2017-q2-update/arm-none-eabi/include/c++/6.3.1/bits/stl_vector.h **** // any later version.
  10:/home/zkmike/.local/share/renesas/e2_studio/toolchains/gcc_arm/gcc-arm-none-eabi-6-2017-q2-update/arm-none-eabi/include/c++/6.3.1/bits/stl_vector.h **** 
  11:/home/zkmike/.local/share/renesas/e2_studio/toolchains/gcc_arm/gcc-arm-none-eabi-6-2017-q2-update/arm-none-eabi/include/c++/6.3.1/bits/stl_vector.h **** // This library is distributed in the hope that it will be useful,
  12:/home/zkmike/.local/share/renesas/e2_studio/toolchains/gcc_arm/gcc-arm-none-eabi-6-2017-q2-update/arm-none-eabi/include/c++/6.3.1/bits/stl_vector.h **** // but WITHOUT ANY WARRANTY; without even the implied warranty of
  13:/home/zkmike/.local/share/renesas/e2_studio/toolchains/gcc_arm/gcc-arm-none-eabi-6-2017-q2-update/arm-none-eabi/include/c++/6.3.1/bits/stl_vector.h **** // MERCHANTABILITY or FITNESS FOR A PARTICULAR PURPOSE.  See the
  14:/home/zkmike/.local/share/renesas/e2_studio/toolchains/gcc_arm/gcc-arm-none-eabi-6-2017-q2-update/arm-none-eabi/include/c++/6.3.1/bits/stl_vector.h **** // GNU General Public License for more details.
  15:/home/zkmike/.local/share/renesas/e2_studio/toolchains/gcc_arm/gcc-arm-none-eabi-6-2017-q2-update/arm-none-eabi/include/c++/6.3.1/bits/stl_vector.h **** 
  16:/home/zkmike/.local/share/renesas/e2_studio/toolchains/gcc_arm/gcc-arm-none-eabi-6-2017-q2-update/arm-none-eabi/include/c++/6.3.1/bits/stl_vector.h **** // Under Section 7 of GPL version 3, you are granted additional
  17:/home/zkmike/.local/share/renesas/e2_studio/toolchains/gcc_arm/gcc-arm-none-eabi-6-2017-q2-update/arm-none-eabi/include/c++/6.3.1/bits/stl_vector.h **** // permissions described in the GCC Runtime Library Exception, version
  18:/home/zkmike/.local/share/renesas/e2_studio/toolchains/gcc_arm/gcc-arm-none-eabi-6-2017-q2-update/arm-none-eabi/include/c++/6.3.1/bits/stl_vector.h **** // 3.1, as published by the Free Software Foundation.
  19:/home/zkmike/.local/share/renesas/e2_studio/toolchains/gcc_arm/gcc-arm-none-eabi-6-2017-q2-update/arm-none-eabi/include/c++/6.3.1/bits/stl_vector.h **** 
  20:/home/zkmike/.local/share/renesas/e2_studio/toolchains/gcc_arm/gcc-arm-none-eabi-6-2017-q2-update/arm-none-eabi/include/c++/6.3.1/bits/stl_vector.h **** // You should have received a copy of the GNU General Public License and
  21:/home/zkmike/.local/share/renesas/e2_studio/toolchains/gcc_arm/gcc-arm-none-eabi-6-2017-q2-update/arm-none-eabi/include/c++/6.3.1/bits/stl_vector.h **** // a copy of the GCC Runtime Library Exception along with this program;
  22:/home/zkmike/.local/share/renesas/e2_studio/toolchains/gcc_arm/gcc-arm-none-eabi-6-2017-q2-update/arm-none-eabi/include/c++/6.3.1/bits/stl_vector.h **** // see the files COPYING3 and COPYING.RUNTIME respectively.  If not, see
  23:/home/zkmike/.local/share/renesas/e2_studio/toolchains/gcc_arm/gcc-arm-none-eabi-6-2017-q2-update/arm-none-eabi/include/c++/6.3.1/bits/stl_vector.h **** // <http://www.gnu.org/licenses/>.
  24:/home/zkmike/.local/share/renesas/e2_studio/toolchains/gcc_arm/gcc-arm-none-eabi-6-2017-q2-update/arm-none-eabi/include/c++/6.3.1/bits/stl_vector.h **** 
  25:/home/zkmike/.local/share/renesas/e2_studio/toolchains/gcc_arm/gcc-arm-none-eabi-6-2017-q2-update/arm-none-eabi/include/c++/6.3.1/bits/stl_vector.h **** /*
  26:/home/zkmike/.local/share/renesas/e2_studio/toolchains/gcc_arm/gcc-arm-none-eabi-6-2017-q2-update/arm-none-eabi/include/c++/6.3.1/bits/stl_vector.h ****  *
  27:/home/zkmike/.local/share/renesas/e2_studio/toolchains/gcc_arm/gcc-arm-none-eabi-6-2017-q2-update/arm-none-eabi/include/c++/6.3.1/bits/stl_vector.h ****  * Copyright (c) 1994
  28:/home/zkmike/.local/share/renesas/e2_studio/toolchains/gcc_arm/gcc-arm-none-eabi-6-2017-q2-update/arm-none-eabi/include/c++/6.3.1/bits/stl_vector.h ****  * Hewlett-Packard Company
  29:/home/zkmike/.local/share/renesas/e2_studio/toolchains/gcc_arm/gcc-arm-none-eabi-6-2017-q2-update/arm-none-eabi/include/c++/6.3.1/bits/stl_vector.h ****  *
  30:/home/zkmike/.local/share/renesas/e2_studio/toolchains/gcc_arm/gcc-arm-none-eabi-6-2017-q2-update/arm-none-eabi/include/c++/6.3.1/bits/stl_vector.h ****  * Permission to use, copy, modify, distribute and sell this software
  31:/home/zkmike/.local/share/renesas/e2_studio/toolchains/gcc_arm/gcc-arm-none-eabi-6-2017-q2-update/arm-none-eabi/include/c++/6.3.1/bits/stl_vector.h ****  * and its documentation for any purpose is hereby granted without fee,
  32:/home/zkmike/.local/share/renesas/e2_studio/toolchains/gcc_arm/gcc-arm-none-eabi-6-2017-q2-update/arm-none-eabi/include/c++/6.3.1/bits/stl_vector.h ****  * provided that the above copyright notice appear in all copies and
  33:/home/zkmike/.local/share/renesas/e2_studio/toolchains/gcc_arm/gcc-arm-none-eabi-6-2017-q2-update/arm-none-eabi/include/c++/6.3.1/bits/stl_vector.h ****  * that both that copyright notice and this permission notice appear
  34:/home/zkmike/.local/share/renesas/e2_studio/toolchains/gcc_arm/gcc-arm-none-eabi-6-2017-q2-update/arm-none-eabi/include/c++/6.3.1/bits/stl_vector.h ****  * in supporting documentation.  Hewlett-Packard Company makes no
  35:/home/zkmike/.local/share/renesas/e2_studio/toolchains/gcc_arm/gcc-arm-none-eabi-6-2017-q2-update/arm-none-eabi/include/c++/6.3.1/bits/stl_vector.h ****  * representations about the suitability of this software for any
  36:/home/zkmike/.local/share/renesas/e2_studio/toolchains/gcc_arm/gcc-arm-none-eabi-6-2017-q2-update/arm-none-eabi/include/c++/6.3.1/bits/stl_vector.h ****  * purpose.  It is provided "as is" without express or implied warranty.
  37:/home/zkmike/.local/share/renesas/e2_studio/toolchains/gcc_arm/gcc-arm-none-eabi-6-2017-q2-update/arm-none-eabi/include/c++/6.3.1/bits/stl_vector.h ****  *
  38:/home/zkmike/.local/share/renesas/e2_studio/toolchains/gcc_arm/gcc-arm-none-eabi-6-2017-q2-update/arm-none-eabi/include/c++/6.3.1/bits/stl_vector.h ****  *
  39:/home/zkmike/.local/share/renesas/e2_studio/toolchains/gcc_arm/gcc-arm-none-eabi-6-2017-q2-update/arm-none-eabi/include/c++/6.3.1/bits/stl_vector.h ****  * Copyright (c) 1996
  40:/home/zkmike/.local/share/renesas/e2_studio/toolchains/gcc_arm/gcc-arm-none-eabi-6-2017-q2-update/arm-none-eabi/include/c++/6.3.1/bits/stl_vector.h ****  * Silicon Graphics Computer Systems, Inc.
  41:/home/zkmike/.local/share/renesas/e2_studio/toolchains/gcc_arm/gcc-arm-none-eabi-6-2017-q2-update/arm-none-eabi/include/c++/6.3.1/bits/stl_vector.h ****  *
  42:/home/zkmike/.local/share/renesas/e2_studio/toolchains/gcc_arm/gcc-arm-none-eabi-6-2017-q2-update/arm-none-eabi/include/c++/6.3.1/bits/stl_vector.h ****  * Permission to use, copy, modify, distribute and sell this software
  43:/home/zkmike/.local/share/renesas/e2_studio/toolchains/gcc_arm/gcc-arm-none-eabi-6-2017-q2-update/arm-none-eabi/include/c++/6.3.1/bits/stl_vector.h ****  * and its documentation for any purpose is hereby granted without fee,
  44:/home/zkmike/.local/share/renesas/e2_studio/toolchains/gcc_arm/gcc-arm-none-eabi-6-2017-q2-update/arm-none-eabi/include/c++/6.3.1/bits/stl_vector.h ****  * provided that the above copyright notice appear in all copies and
  45:/home/zkmike/.local/share/renesas/e2_studio/toolchains/gcc_arm/gcc-arm-none-eabi-6-2017-q2-update/arm-none-eabi/include/c++/6.3.1/bits/stl_vector.h ****  * that both that copyright notice and this permission notice appear
  46:/home/zkmike/.local/share/renesas/e2_studio/toolchains/gcc_arm/gcc-arm-none-eabi-6-2017-q2-update/arm-none-eabi/include/c++/6.3.1/bits/stl_vector.h ****  * in supporting documentation.  Silicon Graphics makes no
  47:/home/zkmike/.local/share/renesas/e2_studio/toolchains/gcc_arm/gcc-arm-none-eabi-6-2017-q2-update/arm-none-eabi/include/c++/6.3.1/bits/stl_vector.h ****  * representations about the suitability of this  software for any
  48:/home/zkmike/.local/share/renesas/e2_studio/toolchains/gcc_arm/gcc-arm-none-eabi-6-2017-q2-update/arm-none-eabi/include/c++/6.3.1/bits/stl_vector.h ****  * purpose.  It is provided "as is" without express or implied warranty.
  49:/home/zkmike/.local/share/renesas/e2_studio/toolchains/gcc_arm/gcc-arm-none-eabi-6-2017-q2-update/arm-none-eabi/include/c++/6.3.1/bits/stl_vector.h ****  */
  50:/home/zkmike/.local/share/renesas/e2_studio/toolchains/gcc_arm/gcc-arm-none-eabi-6-2017-q2-update/arm-none-eabi/include/c++/6.3.1/bits/stl_vector.h **** 
  51:/home/zkmike/.local/share/renesas/e2_studio/toolchains/gcc_arm/gcc-arm-none-eabi-6-2017-q2-update/arm-none-eabi/include/c++/6.3.1/bits/stl_vector.h **** /** @file bits/stl_vector.h
  52:/home/zkmike/.local/share/renesas/e2_studio/toolchains/gcc_arm/gcc-arm-none-eabi-6-2017-q2-update/arm-none-eabi/include/c++/6.3.1/bits/stl_vector.h ****  *  This is an internal header file, included by other library headers.
  53:/home/zkmike/.local/share/renesas/e2_studio/toolchains/gcc_arm/gcc-arm-none-eabi-6-2017-q2-update/arm-none-eabi/include/c++/6.3.1/bits/stl_vector.h ****  *  Do not attempt to use it directly. @headername{vector}
  54:/home/zkmike/.local/share/renesas/e2_studio/toolchains/gcc_arm/gcc-arm-none-eabi-6-2017-q2-update/arm-none-eabi/include/c++/6.3.1/bits/stl_vector.h ****  */
  55:/home/zkmike/.local/share/renesas/e2_studio/toolchains/gcc_arm/gcc-arm-none-eabi-6-2017-q2-update/arm-none-eabi/include/c++/6.3.1/bits/stl_vector.h **** 
  56:/home/zkmike/.local/share/renesas/e2_studio/toolchains/gcc_arm/gcc-arm-none-eabi-6-2017-q2-update/arm-none-eabi/include/c++/6.3.1/bits/stl_vector.h **** #ifndef _STL_VECTOR_H
  57:/home/zkmike/.local/share/renesas/e2_studio/toolchains/gcc_arm/gcc-arm-none-eabi-6-2017-q2-update/arm-none-eabi/include/c++/6.3.1/bits/stl_vector.h **** #define _STL_VECTOR_H 1
  58:/home/zkmike/.local/share/renesas/e2_studio/toolchains/gcc_arm/gcc-arm-none-eabi-6-2017-q2-update/arm-none-eabi/include/c++/6.3.1/bits/stl_vector.h **** 
  59:/home/zkmike/.local/share/renesas/e2_studio/toolchains/gcc_arm/gcc-arm-none-eabi-6-2017-q2-update/arm-none-eabi/include/c++/6.3.1/bits/stl_vector.h **** #include <bits/stl_iterator_base_funcs.h>
  60:/home/zkmike/.local/share/renesas/e2_studio/toolchains/gcc_arm/gcc-arm-none-eabi-6-2017-q2-update/arm-none-eabi/include/c++/6.3.1/bits/stl_vector.h **** #include <bits/functexcept.h>
  61:/home/zkmike/.local/share/renesas/e2_studio/toolchains/gcc_arm/gcc-arm-none-eabi-6-2017-q2-update/arm-none-eabi/include/c++/6.3.1/bits/stl_vector.h **** #include <bits/concept_check.h>
  62:/home/zkmike/.local/share/renesas/e2_studio/toolchains/gcc_arm/gcc-arm-none-eabi-6-2017-q2-update/arm-none-eabi/include/c++/6.3.1/bits/stl_vector.h **** #if __cplusplus >= 201103L
  63:/home/zkmike/.local/share/renesas/e2_studio/toolchains/gcc_arm/gcc-arm-none-eabi-6-2017-q2-update/arm-none-eabi/include/c++/6.3.1/bits/stl_vector.h **** #include <initializer_list>
  64:/home/zkmike/.local/share/renesas/e2_studio/toolchains/gcc_arm/gcc-arm-none-eabi-6-2017-q2-update/arm-none-eabi/include/c++/6.3.1/bits/stl_vector.h **** #endif
  65:/home/zkmike/.local/share/renesas/e2_studio/toolchains/gcc_arm/gcc-arm-none-eabi-6-2017-q2-update/arm-none-eabi/include/c++/6.3.1/bits/stl_vector.h **** 
  66:/home/zkmike/.local/share/renesas/e2_studio/toolchains/gcc_arm/gcc-arm-none-eabi-6-2017-q2-update/arm-none-eabi/include/c++/6.3.1/bits/stl_vector.h **** namespace std _GLIBCXX_VISIBILITY(default)
  67:/home/zkmike/.local/share/renesas/e2_studio/toolchains/gcc_arm/gcc-arm-none-eabi-6-2017-q2-update/arm-none-eabi/include/c++/6.3.1/bits/stl_vector.h **** {
  68:/home/zkmike/.local/share/renesas/e2_studio/toolchains/gcc_arm/gcc-arm-none-eabi-6-2017-q2-update/arm-none-eabi/include/c++/6.3.1/bits/stl_vector.h **** _GLIBCXX_BEGIN_NAMESPACE_CONTAINER
  69:/home/zkmike/.local/share/renesas/e2_studio/toolchains/gcc_arm/gcc-arm-none-eabi-6-2017-q2-update/arm-none-eabi/include/c++/6.3.1/bits/stl_vector.h **** 
  70:/home/zkmike/.local/share/renesas/e2_studio/toolchains/gcc_arm/gcc-arm-none-eabi-6-2017-q2-update/arm-none-eabi/include/c++/6.3.1/bits/stl_vector.h ****   /// See bits/stl_deque.h's _Deque_base for an explanation.
  71:/home/zkmike/.local/share/renesas/e2_studio/toolchains/gcc_arm/gcc-arm-none-eabi-6-2017-q2-update/arm-none-eabi/include/c++/6.3.1/bits/stl_vector.h ****   template<typename _Tp, typename _Alloc>
  72:/home/zkmike/.local/share/renesas/e2_studio/toolchains/gcc_arm/gcc-arm-none-eabi-6-2017-q2-update/arm-none-eabi/include/c++/6.3.1/bits/stl_vector.h ****     struct _Vector_base
  73:/home/zkmike/.local/share/renesas/e2_studio/toolchains/gcc_arm/gcc-arm-none-eabi-6-2017-q2-update/arm-none-eabi/include/c++/6.3.1/bits/stl_vector.h ****     {
  74:/home/zkmike/.local/share/renesas/e2_studio/toolchains/gcc_arm/gcc-arm-none-eabi-6-2017-q2-update/arm-none-eabi/include/c++/6.3.1/bits/stl_vector.h ****       typedef typename __gnu_cxx::__alloc_traits<_Alloc>::template
  75:/home/zkmike/.local/share/renesas/e2_studio/toolchains/gcc_arm/gcc-arm-none-eabi-6-2017-q2-update/arm-none-eabi/include/c++/6.3.1/bits/stl_vector.h ****         rebind<_Tp>::other _Tp_alloc_type;
  76:/home/zkmike/.local/share/renesas/e2_studio/toolchains/gcc_arm/gcc-arm-none-eabi-6-2017-q2-update/arm-none-eabi/include/c++/6.3.1/bits/stl_vector.h ****       typedef typename __gnu_cxx::__alloc_traits<_Tp_alloc_type>::pointer
  77:/home/zkmike/.local/share/renesas/e2_studio/toolchains/gcc_arm/gcc-arm-none-eabi-6-2017-q2-update/arm-none-eabi/include/c++/6.3.1/bits/stl_vector.h ****        	pointer;
  78:/home/zkmike/.local/share/renesas/e2_studio/toolchains/gcc_arm/gcc-arm-none-eabi-6-2017-q2-update/arm-none-eabi/include/c++/6.3.1/bits/stl_vector.h **** 
  79:/home/zkmike/.local/share/renesas/e2_studio/toolchains/gcc_arm/gcc-arm-none-eabi-6-2017-q2-update/arm-none-eabi/include/c++/6.3.1/bits/stl_vector.h ****       struct _Vector_impl 
  80:/home/zkmike/.local/share/renesas/e2_studio/toolchains/gcc_arm/gcc-arm-none-eabi-6-2017-q2-update/arm-none-eabi/include/c++/6.3.1/bits/stl_vector.h ****       : public _Tp_alloc_type
  81:/home/zkmike/.local/share/renesas/e2_studio/toolchains/gcc_arm/gcc-arm-none-eabi-6-2017-q2-update/arm-none-eabi/include/c++/6.3.1/bits/stl_vector.h ****       {
  82:/home/zkmike/.local/share/renesas/e2_studio/toolchains/gcc_arm/gcc-arm-none-eabi-6-2017-q2-update/arm-none-eabi/include/c++/6.3.1/bits/stl_vector.h **** 	pointer _M_start;
  83:/home/zkmike/.local/share/renesas/e2_studio/toolchains/gcc_arm/gcc-arm-none-eabi-6-2017-q2-update/arm-none-eabi/include/c++/6.3.1/bits/stl_vector.h **** 	pointer _M_finish;
  84:/home/zkmike/.local/share/renesas/e2_studio/toolchains/gcc_arm/gcc-arm-none-eabi-6-2017-q2-update/arm-none-eabi/include/c++/6.3.1/bits/stl_vector.h **** 	pointer _M_end_of_storage;
  85:/home/zkmike/.local/share/renesas/e2_studio/toolchains/gcc_arm/gcc-arm-none-eabi-6-2017-q2-update/arm-none-eabi/include/c++/6.3.1/bits/stl_vector.h **** 
  86:/home/zkmike/.local/share/renesas/e2_studio/toolchains/gcc_arm/gcc-arm-none-eabi-6-2017-q2-update/arm-none-eabi/include/c++/6.3.1/bits/stl_vector.h **** 	_Vector_impl()
  87:/home/zkmike/.local/share/renesas/e2_studio/toolchains/gcc_arm/gcc-arm-none-eabi-6-2017-q2-update/arm-none-eabi/include/c++/6.3.1/bits/stl_vector.h **** 	: _Tp_alloc_type(), _M_start(), _M_finish(), _M_end_of_storage()
  88:/home/zkmike/.local/share/renesas/e2_studio/toolchains/gcc_arm/gcc-arm-none-eabi-6-2017-q2-update/arm-none-eabi/include/c++/6.3.1/bits/stl_vector.h **** 	{ }
  89:/home/zkmike/.local/share/renesas/e2_studio/toolchains/gcc_arm/gcc-arm-none-eabi-6-2017-q2-update/arm-none-eabi/include/c++/6.3.1/bits/stl_vector.h **** 
  90:/home/zkmike/.local/share/renesas/e2_studio/toolchains/gcc_arm/gcc-arm-none-eabi-6-2017-q2-update/arm-none-eabi/include/c++/6.3.1/bits/stl_vector.h **** 	_Vector_impl(_Tp_alloc_type const& __a) _GLIBCXX_NOEXCEPT
  91:/home/zkmike/.local/share/renesas/e2_studio/toolchains/gcc_arm/gcc-arm-none-eabi-6-2017-q2-update/arm-none-eabi/include/c++/6.3.1/bits/stl_vector.h **** 	: _Tp_alloc_type(__a), _M_start(), _M_finish(), _M_end_of_storage()
  92:/home/zkmike/.local/share/renesas/e2_studio/toolchains/gcc_arm/gcc-arm-none-eabi-6-2017-q2-update/arm-none-eabi/include/c++/6.3.1/bits/stl_vector.h **** 	{ }
  93:/home/zkmike/.local/share/renesas/e2_studio/toolchains/gcc_arm/gcc-arm-none-eabi-6-2017-q2-update/arm-none-eabi/include/c++/6.3.1/bits/stl_vector.h **** 
  94:/home/zkmike/.local/share/renesas/e2_studio/toolchains/gcc_arm/gcc-arm-none-eabi-6-2017-q2-update/arm-none-eabi/include/c++/6.3.1/bits/stl_vector.h **** #if __cplusplus >= 201103L
  95:/home/zkmike/.local/share/renesas/e2_studio/toolchains/gcc_arm/gcc-arm-none-eabi-6-2017-q2-update/arm-none-eabi/include/c++/6.3.1/bits/stl_vector.h **** 	_Vector_impl(_Tp_alloc_type&& __a) noexcept
  96:/home/zkmike/.local/share/renesas/e2_studio/toolchains/gcc_arm/gcc-arm-none-eabi-6-2017-q2-update/arm-none-eabi/include/c++/6.3.1/bits/stl_vector.h **** 	: _Tp_alloc_type(std::move(__a)),
  97:/home/zkmike/.local/share/renesas/e2_studio/toolchains/gcc_arm/gcc-arm-none-eabi-6-2017-q2-update/arm-none-eabi/include/c++/6.3.1/bits/stl_vector.h **** 	  _M_start(), _M_finish(), _M_end_of_storage()
  98:/home/zkmike/.local/share/renesas/e2_studio/toolchains/gcc_arm/gcc-arm-none-eabi-6-2017-q2-update/arm-none-eabi/include/c++/6.3.1/bits/stl_vector.h **** 	{ }
  99:/home/zkmike/.local/share/renesas/e2_studio/toolchains/gcc_arm/gcc-arm-none-eabi-6-2017-q2-update/arm-none-eabi/include/c++/6.3.1/bits/stl_vector.h **** #endif
 100:/home/zkmike/.local/share/renesas/e2_studio/toolchains/gcc_arm/gcc-arm-none-eabi-6-2017-q2-update/arm-none-eabi/include/c++/6.3.1/bits/stl_vector.h **** 
 101:/home/zkmike/.local/share/renesas/e2_studio/toolchains/gcc_arm/gcc-arm-none-eabi-6-2017-q2-update/arm-none-eabi/include/c++/6.3.1/bits/stl_vector.h **** 	void _M_swap_data(_Vector_impl& __x) _GLIBCXX_NOEXCEPT
 102:/home/zkmike/.local/share/renesas/e2_studio/toolchains/gcc_arm/gcc-arm-none-eabi-6-2017-q2-update/arm-none-eabi/include/c++/6.3.1/bits/stl_vector.h **** 	{
 103:/home/zkmike/.local/share/renesas/e2_studio/toolchains/gcc_arm/gcc-arm-none-eabi-6-2017-q2-update/arm-none-eabi/include/c++/6.3.1/bits/stl_vector.h **** 	  std::swap(_M_start, __x._M_start);
 104:/home/zkmike/.local/share/renesas/e2_studio/toolchains/gcc_arm/gcc-arm-none-eabi-6-2017-q2-update/arm-none-eabi/include/c++/6.3.1/bits/stl_vector.h **** 	  std::swap(_M_finish, __x._M_finish);
 105:/home/zkmike/.local/share/renesas/e2_studio/toolchains/gcc_arm/gcc-arm-none-eabi-6-2017-q2-update/arm-none-eabi/include/c++/6.3.1/bits/stl_vector.h **** 	  std::swap(_M_end_of_storage, __x._M_end_of_storage);
 106:/home/zkmike/.local/share/renesas/e2_studio/toolchains/gcc_arm/gcc-arm-none-eabi-6-2017-q2-update/arm-none-eabi/include/c++/6.3.1/bits/stl_vector.h **** 	}
 107:/home/zkmike/.local/share/renesas/e2_studio/toolchains/gcc_arm/gcc-arm-none-eabi-6-2017-q2-update/arm-none-eabi/include/c++/6.3.1/bits/stl_vector.h ****       };
 108:/home/zkmike/.local/share/renesas/e2_studio/toolchains/gcc_arm/gcc-arm-none-eabi-6-2017-q2-update/arm-none-eabi/include/c++/6.3.1/bits/stl_vector.h ****       
 109:/home/zkmike/.local/share/renesas/e2_studio/toolchains/gcc_arm/gcc-arm-none-eabi-6-2017-q2-update/arm-none-eabi/include/c++/6.3.1/bits/stl_vector.h ****     public:
 110:/home/zkmike/.local/share/renesas/e2_studio/toolchains/gcc_arm/gcc-arm-none-eabi-6-2017-q2-update/arm-none-eabi/include/c++/6.3.1/bits/stl_vector.h ****       typedef _Alloc allocator_type;
 111:/home/zkmike/.local/share/renesas/e2_studio/toolchains/gcc_arm/gcc-arm-none-eabi-6-2017-q2-update/arm-none-eabi/include/c++/6.3.1/bits/stl_vector.h **** 
 112:/home/zkmike/.local/share/renesas/e2_studio/toolchains/gcc_arm/gcc-arm-none-eabi-6-2017-q2-update/arm-none-eabi/include/c++/6.3.1/bits/stl_vector.h ****       _Tp_alloc_type&
 113:/home/zkmike/.local/share/renesas/e2_studio/toolchains/gcc_arm/gcc-arm-none-eabi-6-2017-q2-update/arm-none-eabi/include/c++/6.3.1/bits/stl_vector.h ****       _M_get_Tp_allocator() _GLIBCXX_NOEXCEPT
 114:/home/zkmike/.local/share/renesas/e2_studio/toolchains/gcc_arm/gcc-arm-none-eabi-6-2017-q2-update/arm-none-eabi/include/c++/6.3.1/bits/stl_vector.h ****       { return *static_cast<_Tp_alloc_type*>(&this->_M_impl); }
 115:/home/zkmike/.local/share/renesas/e2_studio/toolchains/gcc_arm/gcc-arm-none-eabi-6-2017-q2-update/arm-none-eabi/include/c++/6.3.1/bits/stl_vector.h **** 
 116:/home/zkmike/.local/share/renesas/e2_studio/toolchains/gcc_arm/gcc-arm-none-eabi-6-2017-q2-update/arm-none-eabi/include/c++/6.3.1/bits/stl_vector.h ****       const _Tp_alloc_type&
 117:/home/zkmike/.local/share/renesas/e2_studio/toolchains/gcc_arm/gcc-arm-none-eabi-6-2017-q2-update/arm-none-eabi/include/c++/6.3.1/bits/stl_vector.h ****       _M_get_Tp_allocator() const _GLIBCXX_NOEXCEPT
 118:/home/zkmike/.local/share/renesas/e2_studio/toolchains/gcc_arm/gcc-arm-none-eabi-6-2017-q2-update/arm-none-eabi/include/c++/6.3.1/bits/stl_vector.h ****       { return *static_cast<const _Tp_alloc_type*>(&this->_M_impl); }
 119:/home/zkmike/.local/share/renesas/e2_studio/toolchains/gcc_arm/gcc-arm-none-eabi-6-2017-q2-update/arm-none-eabi/include/c++/6.3.1/bits/stl_vector.h **** 
 120:/home/zkmike/.local/share/renesas/e2_studio/toolchains/gcc_arm/gcc-arm-none-eabi-6-2017-q2-update/arm-none-eabi/include/c++/6.3.1/bits/stl_vector.h ****       allocator_type
 121:/home/zkmike/.local/share/renesas/e2_studio/toolchains/gcc_arm/gcc-arm-none-eabi-6-2017-q2-update/arm-none-eabi/include/c++/6.3.1/bits/stl_vector.h ****       get_allocator() const _GLIBCXX_NOEXCEPT
 122:/home/zkmike/.local/share/renesas/e2_studio/toolchains/gcc_arm/gcc-arm-none-eabi-6-2017-q2-update/arm-none-eabi/include/c++/6.3.1/bits/stl_vector.h ****       { return allocator_type(_M_get_Tp_allocator()); }
 123:/home/zkmike/.local/share/renesas/e2_studio/toolchains/gcc_arm/gcc-arm-none-eabi-6-2017-q2-update/arm-none-eabi/include/c++/6.3.1/bits/stl_vector.h **** 
 124:/home/zkmike/.local/share/renesas/e2_studio/toolchains/gcc_arm/gcc-arm-none-eabi-6-2017-q2-update/arm-none-eabi/include/c++/6.3.1/bits/stl_vector.h ****       _Vector_base()
 125:/home/zkmike/.local/share/renesas/e2_studio/toolchains/gcc_arm/gcc-arm-none-eabi-6-2017-q2-update/arm-none-eabi/include/c++/6.3.1/bits/stl_vector.h ****       : _M_impl() { }
 126:/home/zkmike/.local/share/renesas/e2_studio/toolchains/gcc_arm/gcc-arm-none-eabi-6-2017-q2-update/arm-none-eabi/include/c++/6.3.1/bits/stl_vector.h **** 
 127:/home/zkmike/.local/share/renesas/e2_studio/toolchains/gcc_arm/gcc-arm-none-eabi-6-2017-q2-update/arm-none-eabi/include/c++/6.3.1/bits/stl_vector.h ****       _Vector_base(const allocator_type& __a) _GLIBCXX_NOEXCEPT
 128:/home/zkmike/.local/share/renesas/e2_studio/toolchains/gcc_arm/gcc-arm-none-eabi-6-2017-q2-update/arm-none-eabi/include/c++/6.3.1/bits/stl_vector.h ****       : _M_impl(__a) { }
 129:/home/zkmike/.local/share/renesas/e2_studio/toolchains/gcc_arm/gcc-arm-none-eabi-6-2017-q2-update/arm-none-eabi/include/c++/6.3.1/bits/stl_vector.h **** 
 130:/home/zkmike/.local/share/renesas/e2_studio/toolchains/gcc_arm/gcc-arm-none-eabi-6-2017-q2-update/arm-none-eabi/include/c++/6.3.1/bits/stl_vector.h ****       _Vector_base(size_t __n)
 131:/home/zkmike/.local/share/renesas/e2_studio/toolchains/gcc_arm/gcc-arm-none-eabi-6-2017-q2-update/arm-none-eabi/include/c++/6.3.1/bits/stl_vector.h ****       : _M_impl()
 132:/home/zkmike/.local/share/renesas/e2_studio/toolchains/gcc_arm/gcc-arm-none-eabi-6-2017-q2-update/arm-none-eabi/include/c++/6.3.1/bits/stl_vector.h ****       { _M_create_storage(__n); }
 133:/home/zkmike/.local/share/renesas/e2_studio/toolchains/gcc_arm/gcc-arm-none-eabi-6-2017-q2-update/arm-none-eabi/include/c++/6.3.1/bits/stl_vector.h **** 
 134:/home/zkmike/.local/share/renesas/e2_studio/toolchains/gcc_arm/gcc-arm-none-eabi-6-2017-q2-update/arm-none-eabi/include/c++/6.3.1/bits/stl_vector.h ****       _Vector_base(size_t __n, const allocator_type& __a)
 135:/home/zkmike/.local/share/renesas/e2_studio/toolchains/gcc_arm/gcc-arm-none-eabi-6-2017-q2-update/arm-none-eabi/include/c++/6.3.1/bits/stl_vector.h ****       : _M_impl(__a)
 136:/home/zkmike/.local/share/renesas/e2_studio/toolchains/gcc_arm/gcc-arm-none-eabi-6-2017-q2-update/arm-none-eabi/include/c++/6.3.1/bits/stl_vector.h ****       { _M_create_storage(__n); }
 137:/home/zkmike/.local/share/renesas/e2_studio/toolchains/gcc_arm/gcc-arm-none-eabi-6-2017-q2-update/arm-none-eabi/include/c++/6.3.1/bits/stl_vector.h **** 
 138:/home/zkmike/.local/share/renesas/e2_studio/toolchains/gcc_arm/gcc-arm-none-eabi-6-2017-q2-update/arm-none-eabi/include/c++/6.3.1/bits/stl_vector.h **** #if __cplusplus >= 201103L
 139:/home/zkmike/.local/share/renesas/e2_studio/toolchains/gcc_arm/gcc-arm-none-eabi-6-2017-q2-update/arm-none-eabi/include/c++/6.3.1/bits/stl_vector.h ****       _Vector_base(_Tp_alloc_type&& __a) noexcept
 140:/home/zkmike/.local/share/renesas/e2_studio/toolchains/gcc_arm/gcc-arm-none-eabi-6-2017-q2-update/arm-none-eabi/include/c++/6.3.1/bits/stl_vector.h ****       : _M_impl(std::move(__a)) { }
 141:/home/zkmike/.local/share/renesas/e2_studio/toolchains/gcc_arm/gcc-arm-none-eabi-6-2017-q2-update/arm-none-eabi/include/c++/6.3.1/bits/stl_vector.h **** 
 142:/home/zkmike/.local/share/renesas/e2_studio/toolchains/gcc_arm/gcc-arm-none-eabi-6-2017-q2-update/arm-none-eabi/include/c++/6.3.1/bits/stl_vector.h ****       _Vector_base(_Vector_base&& __x) noexcept
 143:/home/zkmike/.local/share/renesas/e2_studio/toolchains/gcc_arm/gcc-arm-none-eabi-6-2017-q2-update/arm-none-eabi/include/c++/6.3.1/bits/stl_vector.h ****       : _M_impl(std::move(__x._M_get_Tp_allocator()))
 144:/home/zkmike/.local/share/renesas/e2_studio/toolchains/gcc_arm/gcc-arm-none-eabi-6-2017-q2-update/arm-none-eabi/include/c++/6.3.1/bits/stl_vector.h ****       { this->_M_impl._M_swap_data(__x._M_impl); }
 145:/home/zkmike/.local/share/renesas/e2_studio/toolchains/gcc_arm/gcc-arm-none-eabi-6-2017-q2-update/arm-none-eabi/include/c++/6.3.1/bits/stl_vector.h **** 
 146:/home/zkmike/.local/share/renesas/e2_studio/toolchains/gcc_arm/gcc-arm-none-eabi-6-2017-q2-update/arm-none-eabi/include/c++/6.3.1/bits/stl_vector.h ****       _Vector_base(_Vector_base&& __x, const allocator_type& __a)
 147:/home/zkmike/.local/share/renesas/e2_studio/toolchains/gcc_arm/gcc-arm-none-eabi-6-2017-q2-update/arm-none-eabi/include/c++/6.3.1/bits/stl_vector.h ****       : _M_impl(__a)
 148:/home/zkmike/.local/share/renesas/e2_studio/toolchains/gcc_arm/gcc-arm-none-eabi-6-2017-q2-update/arm-none-eabi/include/c++/6.3.1/bits/stl_vector.h ****       {
 149:/home/zkmike/.local/share/renesas/e2_studio/toolchains/gcc_arm/gcc-arm-none-eabi-6-2017-q2-update/arm-none-eabi/include/c++/6.3.1/bits/stl_vector.h **** 	if (__x.get_allocator() == __a)
 150:/home/zkmike/.local/share/renesas/e2_studio/toolchains/gcc_arm/gcc-arm-none-eabi-6-2017-q2-update/arm-none-eabi/include/c++/6.3.1/bits/stl_vector.h **** 	  this->_M_impl._M_swap_data(__x._M_impl);
 151:/home/zkmike/.local/share/renesas/e2_studio/toolchains/gcc_arm/gcc-arm-none-eabi-6-2017-q2-update/arm-none-eabi/include/c++/6.3.1/bits/stl_vector.h **** 	else
 152:/home/zkmike/.local/share/renesas/e2_studio/toolchains/gcc_arm/gcc-arm-none-eabi-6-2017-q2-update/arm-none-eabi/include/c++/6.3.1/bits/stl_vector.h **** 	  {
 153:/home/zkmike/.local/share/renesas/e2_studio/toolchains/gcc_arm/gcc-arm-none-eabi-6-2017-q2-update/arm-none-eabi/include/c++/6.3.1/bits/stl_vector.h **** 	    size_t __n = __x._M_impl._M_finish - __x._M_impl._M_start;
 154:/home/zkmike/.local/share/renesas/e2_studio/toolchains/gcc_arm/gcc-arm-none-eabi-6-2017-q2-update/arm-none-eabi/include/c++/6.3.1/bits/stl_vector.h **** 	    _M_create_storage(__n);
 155:/home/zkmike/.local/share/renesas/e2_studio/toolchains/gcc_arm/gcc-arm-none-eabi-6-2017-q2-update/arm-none-eabi/include/c++/6.3.1/bits/stl_vector.h **** 	  }
 156:/home/zkmike/.local/share/renesas/e2_studio/toolchains/gcc_arm/gcc-arm-none-eabi-6-2017-q2-update/arm-none-eabi/include/c++/6.3.1/bits/stl_vector.h ****       }
 157:/home/zkmike/.local/share/renesas/e2_studio/toolchains/gcc_arm/gcc-arm-none-eabi-6-2017-q2-update/arm-none-eabi/include/c++/6.3.1/bits/stl_vector.h **** #endif
 158:/home/zkmike/.local/share/renesas/e2_studio/toolchains/gcc_arm/gcc-arm-none-eabi-6-2017-q2-update/arm-none-eabi/include/c++/6.3.1/bits/stl_vector.h **** 
 159:/home/zkmike/.local/share/renesas/e2_studio/toolchains/gcc_arm/gcc-arm-none-eabi-6-2017-q2-update/arm-none-eabi/include/c++/6.3.1/bits/stl_vector.h ****       ~_Vector_base() _GLIBCXX_NOEXCEPT
 160:/home/zkmike/.local/share/renesas/e2_studio/toolchains/gcc_arm/gcc-arm-none-eabi-6-2017-q2-update/arm-none-eabi/include/c++/6.3.1/bits/stl_vector.h ****       { _M_deallocate(this->_M_impl._M_start, this->_M_impl._M_end_of_storage
 161:/home/zkmike/.local/share/renesas/e2_studio/toolchains/gcc_arm/gcc-arm-none-eabi-6-2017-q2-update/arm-none-eabi/include/c++/6.3.1/bits/stl_vector.h **** 		      - this->_M_impl._M_start); }
 162:/home/zkmike/.local/share/renesas/e2_studio/toolchains/gcc_arm/gcc-arm-none-eabi-6-2017-q2-update/arm-none-eabi/include/c++/6.3.1/bits/stl_vector.h **** 
 163:/home/zkmike/.local/share/renesas/e2_studio/toolchains/gcc_arm/gcc-arm-none-eabi-6-2017-q2-update/arm-none-eabi/include/c++/6.3.1/bits/stl_vector.h ****     public:
 164:/home/zkmike/.local/share/renesas/e2_studio/toolchains/gcc_arm/gcc-arm-none-eabi-6-2017-q2-update/arm-none-eabi/include/c++/6.3.1/bits/stl_vector.h ****       _Vector_impl _M_impl;
 165:/home/zkmike/.local/share/renesas/e2_studio/toolchains/gcc_arm/gcc-arm-none-eabi-6-2017-q2-update/arm-none-eabi/include/c++/6.3.1/bits/stl_vector.h **** 
 166:/home/zkmike/.local/share/renesas/e2_studio/toolchains/gcc_arm/gcc-arm-none-eabi-6-2017-q2-update/arm-none-eabi/include/c++/6.3.1/bits/stl_vector.h ****       pointer
 167:/home/zkmike/.local/share/renesas/e2_studio/toolchains/gcc_arm/gcc-arm-none-eabi-6-2017-q2-update/arm-none-eabi/include/c++/6.3.1/bits/stl_vector.h ****       _M_allocate(size_t __n)
 168:/home/zkmike/.local/share/renesas/e2_studio/toolchains/gcc_arm/gcc-arm-none-eabi-6-2017-q2-update/arm-none-eabi/include/c++/6.3.1/bits/stl_vector.h ****       {
 169:/home/zkmike/.local/share/renesas/e2_studio/toolchains/gcc_arm/gcc-arm-none-eabi-6-2017-q2-update/arm-none-eabi/include/c++/6.3.1/bits/stl_vector.h **** 	typedef __gnu_cxx::__alloc_traits<_Tp_alloc_type> _Tr;
 170:/home/zkmike/.local/share/renesas/e2_studio/toolchains/gcc_arm/gcc-arm-none-eabi-6-2017-q2-update/arm-none-eabi/include/c++/6.3.1/bits/stl_vector.h **** 	return __n != 0 ? _Tr::allocate(_M_impl, __n) : pointer();
 171:/home/zkmike/.local/share/renesas/e2_studio/toolchains/gcc_arm/gcc-arm-none-eabi-6-2017-q2-update/arm-none-eabi/include/c++/6.3.1/bits/stl_vector.h ****       }
 172:/home/zkmike/.local/share/renesas/e2_studio/toolchains/gcc_arm/gcc-arm-none-eabi-6-2017-q2-update/arm-none-eabi/include/c++/6.3.1/bits/stl_vector.h **** 
 173:/home/zkmike/.local/share/renesas/e2_studio/toolchains/gcc_arm/gcc-arm-none-eabi-6-2017-q2-update/arm-none-eabi/include/c++/6.3.1/bits/stl_vector.h ****       void
 174:/home/zkmike/.local/share/renesas/e2_studio/toolchains/gcc_arm/gcc-arm-none-eabi-6-2017-q2-update/arm-none-eabi/include/c++/6.3.1/bits/stl_vector.h ****       _M_deallocate(pointer __p, size_t __n)
 175:/home/zkmike/.local/share/renesas/e2_studio/toolchains/gcc_arm/gcc-arm-none-eabi-6-2017-q2-update/arm-none-eabi/include/c++/6.3.1/bits/stl_vector.h ****       {
 176:/home/zkmike/.local/share/renesas/e2_studio/toolchains/gcc_arm/gcc-arm-none-eabi-6-2017-q2-update/arm-none-eabi/include/c++/6.3.1/bits/stl_vector.h **** 	typedef __gnu_cxx::__alloc_traits<_Tp_alloc_type> _Tr;
 177:/home/zkmike/.local/share/renesas/e2_studio/toolchains/gcc_arm/gcc-arm-none-eabi-6-2017-q2-update/arm-none-eabi/include/c++/6.3.1/bits/stl_vector.h **** 	if (__p)
 178:/home/zkmike/.local/share/renesas/e2_studio/toolchains/gcc_arm/gcc-arm-none-eabi-6-2017-q2-update/arm-none-eabi/include/c++/6.3.1/bits/stl_vector.h **** 	  _Tr::deallocate(_M_impl, __p, __n);
 179:/home/zkmike/.local/share/renesas/e2_studio/toolchains/gcc_arm/gcc-arm-none-eabi-6-2017-q2-update/arm-none-eabi/include/c++/6.3.1/bits/stl_vector.h ****       }
 180:/home/zkmike/.local/share/renesas/e2_studio/toolchains/gcc_arm/gcc-arm-none-eabi-6-2017-q2-update/arm-none-eabi/include/c++/6.3.1/bits/stl_vector.h **** 
 181:/home/zkmike/.local/share/renesas/e2_studio/toolchains/gcc_arm/gcc-arm-none-eabi-6-2017-q2-update/arm-none-eabi/include/c++/6.3.1/bits/stl_vector.h ****     private:
 182:/home/zkmike/.local/share/renesas/e2_studio/toolchains/gcc_arm/gcc-arm-none-eabi-6-2017-q2-update/arm-none-eabi/include/c++/6.3.1/bits/stl_vector.h ****       void
 183:/home/zkmike/.local/share/renesas/e2_studio/toolchains/gcc_arm/gcc-arm-none-eabi-6-2017-q2-update/arm-none-eabi/include/c++/6.3.1/bits/stl_vector.h ****       _M_create_storage(size_t __n)
 184:/home/zkmike/.local/share/renesas/e2_studio/toolchains/gcc_arm/gcc-arm-none-eabi-6-2017-q2-update/arm-none-eabi/include/c++/6.3.1/bits/stl_vector.h ****       {
 185:/home/zkmike/.local/share/renesas/e2_studio/toolchains/gcc_arm/gcc-arm-none-eabi-6-2017-q2-update/arm-none-eabi/include/c++/6.3.1/bits/stl_vector.h **** 	this->_M_impl._M_start = this->_M_allocate(__n);
 186:/home/zkmike/.local/share/renesas/e2_studio/toolchains/gcc_arm/gcc-arm-none-eabi-6-2017-q2-update/arm-none-eabi/include/c++/6.3.1/bits/stl_vector.h **** 	this->_M_impl._M_finish = this->_M_impl._M_start;
 187:/home/zkmike/.local/share/renesas/e2_studio/toolchains/gcc_arm/gcc-arm-none-eabi-6-2017-q2-update/arm-none-eabi/include/c++/6.3.1/bits/stl_vector.h **** 	this->_M_impl._M_end_of_storage = this->_M_impl._M_start + __n;
 188:/home/zkmike/.local/share/renesas/e2_studio/toolchains/gcc_arm/gcc-arm-none-eabi-6-2017-q2-update/arm-none-eabi/include/c++/6.3.1/bits/stl_vector.h ****       }
 189:/home/zkmike/.local/share/renesas/e2_studio/toolchains/gcc_arm/gcc-arm-none-eabi-6-2017-q2-update/arm-none-eabi/include/c++/6.3.1/bits/stl_vector.h ****     };
 190:/home/zkmike/.local/share/renesas/e2_studio/toolchains/gcc_arm/gcc-arm-none-eabi-6-2017-q2-update/arm-none-eabi/include/c++/6.3.1/bits/stl_vector.h **** 
 191:/home/zkmike/.local/share/renesas/e2_studio/toolchains/gcc_arm/gcc-arm-none-eabi-6-2017-q2-update/arm-none-eabi/include/c++/6.3.1/bits/stl_vector.h **** 
 192:/home/zkmike/.local/share/renesas/e2_studio/toolchains/gcc_arm/gcc-arm-none-eabi-6-2017-q2-update/arm-none-eabi/include/c++/6.3.1/bits/stl_vector.h ****   /**
 193:/home/zkmike/.local/share/renesas/e2_studio/toolchains/gcc_arm/gcc-arm-none-eabi-6-2017-q2-update/arm-none-eabi/include/c++/6.3.1/bits/stl_vector.h ****    *  @brief A standard container which offers fixed time access to
 194:/home/zkmike/.local/share/renesas/e2_studio/toolchains/gcc_arm/gcc-arm-none-eabi-6-2017-q2-update/arm-none-eabi/include/c++/6.3.1/bits/stl_vector.h ****    *  individual elements in any order.
 195:/home/zkmike/.local/share/renesas/e2_studio/toolchains/gcc_arm/gcc-arm-none-eabi-6-2017-q2-update/arm-none-eabi/include/c++/6.3.1/bits/stl_vector.h ****    *
 196:/home/zkmike/.local/share/renesas/e2_studio/toolchains/gcc_arm/gcc-arm-none-eabi-6-2017-q2-update/arm-none-eabi/include/c++/6.3.1/bits/stl_vector.h ****    *  @ingroup sequences
 197:/home/zkmike/.local/share/renesas/e2_studio/toolchains/gcc_arm/gcc-arm-none-eabi-6-2017-q2-update/arm-none-eabi/include/c++/6.3.1/bits/stl_vector.h ****    *
 198:/home/zkmike/.local/share/renesas/e2_studio/toolchains/gcc_arm/gcc-arm-none-eabi-6-2017-q2-update/arm-none-eabi/include/c++/6.3.1/bits/stl_vector.h ****    *  @tparam _Tp  Type of element.
 199:/home/zkmike/.local/share/renesas/e2_studio/toolchains/gcc_arm/gcc-arm-none-eabi-6-2017-q2-update/arm-none-eabi/include/c++/6.3.1/bits/stl_vector.h ****    *  @tparam _Alloc  Allocator type, defaults to allocator<_Tp>.
 200:/home/zkmike/.local/share/renesas/e2_studio/toolchains/gcc_arm/gcc-arm-none-eabi-6-2017-q2-update/arm-none-eabi/include/c++/6.3.1/bits/stl_vector.h ****    *
 201:/home/zkmike/.local/share/renesas/e2_studio/toolchains/gcc_arm/gcc-arm-none-eabi-6-2017-q2-update/arm-none-eabi/include/c++/6.3.1/bits/stl_vector.h ****    *  Meets the requirements of a <a href="tables.html#65">container</a>, a
 202:/home/zkmike/.local/share/renesas/e2_studio/toolchains/gcc_arm/gcc-arm-none-eabi-6-2017-q2-update/arm-none-eabi/include/c++/6.3.1/bits/stl_vector.h ****    *  <a href="tables.html#66">reversible container</a>, and a
 203:/home/zkmike/.local/share/renesas/e2_studio/toolchains/gcc_arm/gcc-arm-none-eabi-6-2017-q2-update/arm-none-eabi/include/c++/6.3.1/bits/stl_vector.h ****    *  <a href="tables.html#67">sequence</a>, including the
 204:/home/zkmike/.local/share/renesas/e2_studio/toolchains/gcc_arm/gcc-arm-none-eabi-6-2017-q2-update/arm-none-eabi/include/c++/6.3.1/bits/stl_vector.h ****    *  <a href="tables.html#68">optional sequence requirements</a> with the
 205:/home/zkmike/.local/share/renesas/e2_studio/toolchains/gcc_arm/gcc-arm-none-eabi-6-2017-q2-update/arm-none-eabi/include/c++/6.3.1/bits/stl_vector.h ****    *  %exception of @c push_front and @c pop_front.
 206:/home/zkmike/.local/share/renesas/e2_studio/toolchains/gcc_arm/gcc-arm-none-eabi-6-2017-q2-update/arm-none-eabi/include/c++/6.3.1/bits/stl_vector.h ****    *
 207:/home/zkmike/.local/share/renesas/e2_studio/toolchains/gcc_arm/gcc-arm-none-eabi-6-2017-q2-update/arm-none-eabi/include/c++/6.3.1/bits/stl_vector.h ****    *  In some terminology a %vector can be described as a dynamic
 208:/home/zkmike/.local/share/renesas/e2_studio/toolchains/gcc_arm/gcc-arm-none-eabi-6-2017-q2-update/arm-none-eabi/include/c++/6.3.1/bits/stl_vector.h ****    *  C-style array, it offers fast and efficient access to individual
 209:/home/zkmike/.local/share/renesas/e2_studio/toolchains/gcc_arm/gcc-arm-none-eabi-6-2017-q2-update/arm-none-eabi/include/c++/6.3.1/bits/stl_vector.h ****    *  elements in any order and saves the user from worrying about
 210:/home/zkmike/.local/share/renesas/e2_studio/toolchains/gcc_arm/gcc-arm-none-eabi-6-2017-q2-update/arm-none-eabi/include/c++/6.3.1/bits/stl_vector.h ****    *  memory and size allocation.  Subscripting ( @c [] ) access is
 211:/home/zkmike/.local/share/renesas/e2_studio/toolchains/gcc_arm/gcc-arm-none-eabi-6-2017-q2-update/arm-none-eabi/include/c++/6.3.1/bits/stl_vector.h ****    *  also provided as with C-style arrays.
 212:/home/zkmike/.local/share/renesas/e2_studio/toolchains/gcc_arm/gcc-arm-none-eabi-6-2017-q2-update/arm-none-eabi/include/c++/6.3.1/bits/stl_vector.h ****   */
 213:/home/zkmike/.local/share/renesas/e2_studio/toolchains/gcc_arm/gcc-arm-none-eabi-6-2017-q2-update/arm-none-eabi/include/c++/6.3.1/bits/stl_vector.h ****   template<typename _Tp, typename _Alloc = std::allocator<_Tp> >
 214:/home/zkmike/.local/share/renesas/e2_studio/toolchains/gcc_arm/gcc-arm-none-eabi-6-2017-q2-update/arm-none-eabi/include/c++/6.3.1/bits/stl_vector.h ****     class vector : protected _Vector_base<_Tp, _Alloc>
 215:/home/zkmike/.local/share/renesas/e2_studio/toolchains/gcc_arm/gcc-arm-none-eabi-6-2017-q2-update/arm-none-eabi/include/c++/6.3.1/bits/stl_vector.h ****     {
 216:/home/zkmike/.local/share/renesas/e2_studio/toolchains/gcc_arm/gcc-arm-none-eabi-6-2017-q2-update/arm-none-eabi/include/c++/6.3.1/bits/stl_vector.h ****       // Concept requirements.
 217:/home/zkmike/.local/share/renesas/e2_studio/toolchains/gcc_arm/gcc-arm-none-eabi-6-2017-q2-update/arm-none-eabi/include/c++/6.3.1/bits/stl_vector.h ****       typedef typename _Alloc::value_type                _Alloc_value_type;
 218:/home/zkmike/.local/share/renesas/e2_studio/toolchains/gcc_arm/gcc-arm-none-eabi-6-2017-q2-update/arm-none-eabi/include/c++/6.3.1/bits/stl_vector.h **** #if __cplusplus < 201103L
 219:/home/zkmike/.local/share/renesas/e2_studio/toolchains/gcc_arm/gcc-arm-none-eabi-6-2017-q2-update/arm-none-eabi/include/c++/6.3.1/bits/stl_vector.h ****       __glibcxx_class_requires(_Tp, _SGIAssignableConcept)
 220:/home/zkmike/.local/share/renesas/e2_studio/toolchains/gcc_arm/gcc-arm-none-eabi-6-2017-q2-update/arm-none-eabi/include/c++/6.3.1/bits/stl_vector.h **** #endif
 221:/home/zkmike/.local/share/renesas/e2_studio/toolchains/gcc_arm/gcc-arm-none-eabi-6-2017-q2-update/arm-none-eabi/include/c++/6.3.1/bits/stl_vector.h ****       __glibcxx_class_requires2(_Tp, _Alloc_value_type, _SameTypeConcept)
 222:/home/zkmike/.local/share/renesas/e2_studio/toolchains/gcc_arm/gcc-arm-none-eabi-6-2017-q2-update/arm-none-eabi/include/c++/6.3.1/bits/stl_vector.h ****       
 223:/home/zkmike/.local/share/renesas/e2_studio/toolchains/gcc_arm/gcc-arm-none-eabi-6-2017-q2-update/arm-none-eabi/include/c++/6.3.1/bits/stl_vector.h ****       typedef _Vector_base<_Tp, _Alloc>			 _Base;
 224:/home/zkmike/.local/share/renesas/e2_studio/toolchains/gcc_arm/gcc-arm-none-eabi-6-2017-q2-update/arm-none-eabi/include/c++/6.3.1/bits/stl_vector.h ****       typedef typename _Base::_Tp_alloc_type		 _Tp_alloc_type;
 225:/home/zkmike/.local/share/renesas/e2_studio/toolchains/gcc_arm/gcc-arm-none-eabi-6-2017-q2-update/arm-none-eabi/include/c++/6.3.1/bits/stl_vector.h ****       typedef __gnu_cxx::__alloc_traits<_Tp_alloc_type>  _Alloc_traits;
 226:/home/zkmike/.local/share/renesas/e2_studio/toolchains/gcc_arm/gcc-arm-none-eabi-6-2017-q2-update/arm-none-eabi/include/c++/6.3.1/bits/stl_vector.h **** 
 227:/home/zkmike/.local/share/renesas/e2_studio/toolchains/gcc_arm/gcc-arm-none-eabi-6-2017-q2-update/arm-none-eabi/include/c++/6.3.1/bits/stl_vector.h ****     public:
 228:/home/zkmike/.local/share/renesas/e2_studio/toolchains/gcc_arm/gcc-arm-none-eabi-6-2017-q2-update/arm-none-eabi/include/c++/6.3.1/bits/stl_vector.h ****       typedef _Tp					 value_type;
 229:/home/zkmike/.local/share/renesas/e2_studio/toolchains/gcc_arm/gcc-arm-none-eabi-6-2017-q2-update/arm-none-eabi/include/c++/6.3.1/bits/stl_vector.h ****       typedef typename _Base::pointer                    pointer;
 230:/home/zkmike/.local/share/renesas/e2_studio/toolchains/gcc_arm/gcc-arm-none-eabi-6-2017-q2-update/arm-none-eabi/include/c++/6.3.1/bits/stl_vector.h ****       typedef typename _Alloc_traits::const_pointer      const_pointer;
 231:/home/zkmike/.local/share/renesas/e2_studio/toolchains/gcc_arm/gcc-arm-none-eabi-6-2017-q2-update/arm-none-eabi/include/c++/6.3.1/bits/stl_vector.h ****       typedef typename _Alloc_traits::reference          reference;
 232:/home/zkmike/.local/share/renesas/e2_studio/toolchains/gcc_arm/gcc-arm-none-eabi-6-2017-q2-update/arm-none-eabi/include/c++/6.3.1/bits/stl_vector.h ****       typedef typename _Alloc_traits::const_reference    const_reference;
 233:/home/zkmike/.local/share/renesas/e2_studio/toolchains/gcc_arm/gcc-arm-none-eabi-6-2017-q2-update/arm-none-eabi/include/c++/6.3.1/bits/stl_vector.h ****       typedef __gnu_cxx::__normal_iterator<pointer, vector> iterator;
 234:/home/zkmike/.local/share/renesas/e2_studio/toolchains/gcc_arm/gcc-arm-none-eabi-6-2017-q2-update/arm-none-eabi/include/c++/6.3.1/bits/stl_vector.h ****       typedef __gnu_cxx::__normal_iterator<const_pointer, vector>
 235:/home/zkmike/.local/share/renesas/e2_studio/toolchains/gcc_arm/gcc-arm-none-eabi-6-2017-q2-update/arm-none-eabi/include/c++/6.3.1/bits/stl_vector.h ****       const_iterator;
 236:/home/zkmike/.local/share/renesas/e2_studio/toolchains/gcc_arm/gcc-arm-none-eabi-6-2017-q2-update/arm-none-eabi/include/c++/6.3.1/bits/stl_vector.h ****       typedef std::reverse_iterator<const_iterator>  const_reverse_iterator;
 237:/home/zkmike/.local/share/renesas/e2_studio/toolchains/gcc_arm/gcc-arm-none-eabi-6-2017-q2-update/arm-none-eabi/include/c++/6.3.1/bits/stl_vector.h ****       typedef std::reverse_iterator<iterator>		 reverse_iterator;
 238:/home/zkmike/.local/share/renesas/e2_studio/toolchains/gcc_arm/gcc-arm-none-eabi-6-2017-q2-update/arm-none-eabi/include/c++/6.3.1/bits/stl_vector.h ****       typedef size_t					 size_type;
 239:/home/zkmike/.local/share/renesas/e2_studio/toolchains/gcc_arm/gcc-arm-none-eabi-6-2017-q2-update/arm-none-eabi/include/c++/6.3.1/bits/stl_vector.h ****       typedef ptrdiff_t					 difference_type;
 240:/home/zkmike/.local/share/renesas/e2_studio/toolchains/gcc_arm/gcc-arm-none-eabi-6-2017-q2-update/arm-none-eabi/include/c++/6.3.1/bits/stl_vector.h ****       typedef _Alloc                        		 allocator_type;
 241:/home/zkmike/.local/share/renesas/e2_studio/toolchains/gcc_arm/gcc-arm-none-eabi-6-2017-q2-update/arm-none-eabi/include/c++/6.3.1/bits/stl_vector.h **** 
 242:/home/zkmike/.local/share/renesas/e2_studio/toolchains/gcc_arm/gcc-arm-none-eabi-6-2017-q2-update/arm-none-eabi/include/c++/6.3.1/bits/stl_vector.h ****     protected:
 243:/home/zkmike/.local/share/renesas/e2_studio/toolchains/gcc_arm/gcc-arm-none-eabi-6-2017-q2-update/arm-none-eabi/include/c++/6.3.1/bits/stl_vector.h ****       using _Base::_M_allocate;
 244:/home/zkmike/.local/share/renesas/e2_studio/toolchains/gcc_arm/gcc-arm-none-eabi-6-2017-q2-update/arm-none-eabi/include/c++/6.3.1/bits/stl_vector.h ****       using _Base::_M_deallocate;
 245:/home/zkmike/.local/share/renesas/e2_studio/toolchains/gcc_arm/gcc-arm-none-eabi-6-2017-q2-update/arm-none-eabi/include/c++/6.3.1/bits/stl_vector.h ****       using _Base::_M_impl;
 246:/home/zkmike/.local/share/renesas/e2_studio/toolchains/gcc_arm/gcc-arm-none-eabi-6-2017-q2-update/arm-none-eabi/include/c++/6.3.1/bits/stl_vector.h ****       using _Base::_M_get_Tp_allocator;
 247:/home/zkmike/.local/share/renesas/e2_studio/toolchains/gcc_arm/gcc-arm-none-eabi-6-2017-q2-update/arm-none-eabi/include/c++/6.3.1/bits/stl_vector.h **** 
 248:/home/zkmike/.local/share/renesas/e2_studio/toolchains/gcc_arm/gcc-arm-none-eabi-6-2017-q2-update/arm-none-eabi/include/c++/6.3.1/bits/stl_vector.h ****     public:
 249:/home/zkmike/.local/share/renesas/e2_studio/toolchains/gcc_arm/gcc-arm-none-eabi-6-2017-q2-update/arm-none-eabi/include/c++/6.3.1/bits/stl_vector.h ****       // [23.2.4.1] construct/copy/destroy
 250:/home/zkmike/.local/share/renesas/e2_studio/toolchains/gcc_arm/gcc-arm-none-eabi-6-2017-q2-update/arm-none-eabi/include/c++/6.3.1/bits/stl_vector.h ****       // (assign() and get_allocator() are also listed in this section)
 251:/home/zkmike/.local/share/renesas/e2_studio/toolchains/gcc_arm/gcc-arm-none-eabi-6-2017-q2-update/arm-none-eabi/include/c++/6.3.1/bits/stl_vector.h **** 
 252:/home/zkmike/.local/share/renesas/e2_studio/toolchains/gcc_arm/gcc-arm-none-eabi-6-2017-q2-update/arm-none-eabi/include/c++/6.3.1/bits/stl_vector.h ****       /**
 253:/home/zkmike/.local/share/renesas/e2_studio/toolchains/gcc_arm/gcc-arm-none-eabi-6-2017-q2-update/arm-none-eabi/include/c++/6.3.1/bits/stl_vector.h ****        *  @brief  Creates a %vector with no elements.
 254:/home/zkmike/.local/share/renesas/e2_studio/toolchains/gcc_arm/gcc-arm-none-eabi-6-2017-q2-update/arm-none-eabi/include/c++/6.3.1/bits/stl_vector.h ****        */
 255:/home/zkmike/.local/share/renesas/e2_studio/toolchains/gcc_arm/gcc-arm-none-eabi-6-2017-q2-update/arm-none-eabi/include/c++/6.3.1/bits/stl_vector.h ****       vector()
 256:/home/zkmike/.local/share/renesas/e2_studio/toolchains/gcc_arm/gcc-arm-none-eabi-6-2017-q2-update/arm-none-eabi/include/c++/6.3.1/bits/stl_vector.h **** #if __cplusplus >= 201103L
 257:/home/zkmike/.local/share/renesas/e2_studio/toolchains/gcc_arm/gcc-arm-none-eabi-6-2017-q2-update/arm-none-eabi/include/c++/6.3.1/bits/stl_vector.h ****       noexcept(is_nothrow_default_constructible<_Alloc>::value)
 258:/home/zkmike/.local/share/renesas/e2_studio/toolchains/gcc_arm/gcc-arm-none-eabi-6-2017-q2-update/arm-none-eabi/include/c++/6.3.1/bits/stl_vector.h **** #endif
 259:/home/zkmike/.local/share/renesas/e2_studio/toolchains/gcc_arm/gcc-arm-none-eabi-6-2017-q2-update/arm-none-eabi/include/c++/6.3.1/bits/stl_vector.h ****       : _Base() { }
 260:/home/zkmike/.local/share/renesas/e2_studio/toolchains/gcc_arm/gcc-arm-none-eabi-6-2017-q2-update/arm-none-eabi/include/c++/6.3.1/bits/stl_vector.h **** 
 261:/home/zkmike/.local/share/renesas/e2_studio/toolchains/gcc_arm/gcc-arm-none-eabi-6-2017-q2-update/arm-none-eabi/include/c++/6.3.1/bits/stl_vector.h ****       /**
 262:/home/zkmike/.local/share/renesas/e2_studio/toolchains/gcc_arm/gcc-arm-none-eabi-6-2017-q2-update/arm-none-eabi/include/c++/6.3.1/bits/stl_vector.h ****        *  @brief  Creates a %vector with no elements.
 263:/home/zkmike/.local/share/renesas/e2_studio/toolchains/gcc_arm/gcc-arm-none-eabi-6-2017-q2-update/arm-none-eabi/include/c++/6.3.1/bits/stl_vector.h ****        *  @param  __a  An allocator object.
 264:/home/zkmike/.local/share/renesas/e2_studio/toolchains/gcc_arm/gcc-arm-none-eabi-6-2017-q2-update/arm-none-eabi/include/c++/6.3.1/bits/stl_vector.h ****        */
 265:/home/zkmike/.local/share/renesas/e2_studio/toolchains/gcc_arm/gcc-arm-none-eabi-6-2017-q2-update/arm-none-eabi/include/c++/6.3.1/bits/stl_vector.h ****       explicit
 266:/home/zkmike/.local/share/renesas/e2_studio/toolchains/gcc_arm/gcc-arm-none-eabi-6-2017-q2-update/arm-none-eabi/include/c++/6.3.1/bits/stl_vector.h ****       vector(const allocator_type& __a) _GLIBCXX_NOEXCEPT
 267:/home/zkmike/.local/share/renesas/e2_studio/toolchains/gcc_arm/gcc-arm-none-eabi-6-2017-q2-update/arm-none-eabi/include/c++/6.3.1/bits/stl_vector.h ****       : _Base(__a) { }
 268:/home/zkmike/.local/share/renesas/e2_studio/toolchains/gcc_arm/gcc-arm-none-eabi-6-2017-q2-update/arm-none-eabi/include/c++/6.3.1/bits/stl_vector.h **** 
 269:/home/zkmike/.local/share/renesas/e2_studio/toolchains/gcc_arm/gcc-arm-none-eabi-6-2017-q2-update/arm-none-eabi/include/c++/6.3.1/bits/stl_vector.h **** #if __cplusplus >= 201103L
 270:/home/zkmike/.local/share/renesas/e2_studio/toolchains/gcc_arm/gcc-arm-none-eabi-6-2017-q2-update/arm-none-eabi/include/c++/6.3.1/bits/stl_vector.h ****       /**
 271:/home/zkmike/.local/share/renesas/e2_studio/toolchains/gcc_arm/gcc-arm-none-eabi-6-2017-q2-update/arm-none-eabi/include/c++/6.3.1/bits/stl_vector.h ****        *  @brief  Creates a %vector with default constructed elements.
 272:/home/zkmike/.local/share/renesas/e2_studio/toolchains/gcc_arm/gcc-arm-none-eabi-6-2017-q2-update/arm-none-eabi/include/c++/6.3.1/bits/stl_vector.h ****        *  @param  __n  The number of elements to initially create.
 273:/home/zkmike/.local/share/renesas/e2_studio/toolchains/gcc_arm/gcc-arm-none-eabi-6-2017-q2-update/arm-none-eabi/include/c++/6.3.1/bits/stl_vector.h ****        *  @param  __a  An allocator.
 274:/home/zkmike/.local/share/renesas/e2_studio/toolchains/gcc_arm/gcc-arm-none-eabi-6-2017-q2-update/arm-none-eabi/include/c++/6.3.1/bits/stl_vector.h ****        *
 275:/home/zkmike/.local/share/renesas/e2_studio/toolchains/gcc_arm/gcc-arm-none-eabi-6-2017-q2-update/arm-none-eabi/include/c++/6.3.1/bits/stl_vector.h ****        *  This constructor fills the %vector with @a __n default
 276:/home/zkmike/.local/share/renesas/e2_studio/toolchains/gcc_arm/gcc-arm-none-eabi-6-2017-q2-update/arm-none-eabi/include/c++/6.3.1/bits/stl_vector.h ****        *  constructed elements.
 277:/home/zkmike/.local/share/renesas/e2_studio/toolchains/gcc_arm/gcc-arm-none-eabi-6-2017-q2-update/arm-none-eabi/include/c++/6.3.1/bits/stl_vector.h ****        */
 278:/home/zkmike/.local/share/renesas/e2_studio/toolchains/gcc_arm/gcc-arm-none-eabi-6-2017-q2-update/arm-none-eabi/include/c++/6.3.1/bits/stl_vector.h ****       explicit
 279:/home/zkmike/.local/share/renesas/e2_studio/toolchains/gcc_arm/gcc-arm-none-eabi-6-2017-q2-update/arm-none-eabi/include/c++/6.3.1/bits/stl_vector.h ****       vector(size_type __n, const allocator_type& __a = allocator_type())
 280:/home/zkmike/.local/share/renesas/e2_studio/toolchains/gcc_arm/gcc-arm-none-eabi-6-2017-q2-update/arm-none-eabi/include/c++/6.3.1/bits/stl_vector.h ****       : _Base(__n, __a)
 281:/home/zkmike/.local/share/renesas/e2_studio/toolchains/gcc_arm/gcc-arm-none-eabi-6-2017-q2-update/arm-none-eabi/include/c++/6.3.1/bits/stl_vector.h ****       { _M_default_initialize(__n); }
 282:/home/zkmike/.local/share/renesas/e2_studio/toolchains/gcc_arm/gcc-arm-none-eabi-6-2017-q2-update/arm-none-eabi/include/c++/6.3.1/bits/stl_vector.h **** 
 283:/home/zkmike/.local/share/renesas/e2_studio/toolchains/gcc_arm/gcc-arm-none-eabi-6-2017-q2-update/arm-none-eabi/include/c++/6.3.1/bits/stl_vector.h ****       /**
 284:/home/zkmike/.local/share/renesas/e2_studio/toolchains/gcc_arm/gcc-arm-none-eabi-6-2017-q2-update/arm-none-eabi/include/c++/6.3.1/bits/stl_vector.h ****        *  @brief  Creates a %vector with copies of an exemplar element.
 285:/home/zkmike/.local/share/renesas/e2_studio/toolchains/gcc_arm/gcc-arm-none-eabi-6-2017-q2-update/arm-none-eabi/include/c++/6.3.1/bits/stl_vector.h ****        *  @param  __n  The number of elements to initially create.
 286:/home/zkmike/.local/share/renesas/e2_studio/toolchains/gcc_arm/gcc-arm-none-eabi-6-2017-q2-update/arm-none-eabi/include/c++/6.3.1/bits/stl_vector.h ****        *  @param  __value  An element to copy.
 287:/home/zkmike/.local/share/renesas/e2_studio/toolchains/gcc_arm/gcc-arm-none-eabi-6-2017-q2-update/arm-none-eabi/include/c++/6.3.1/bits/stl_vector.h ****        *  @param  __a  An allocator.
 288:/home/zkmike/.local/share/renesas/e2_studio/toolchains/gcc_arm/gcc-arm-none-eabi-6-2017-q2-update/arm-none-eabi/include/c++/6.3.1/bits/stl_vector.h ****        *
 289:/home/zkmike/.local/share/renesas/e2_studio/toolchains/gcc_arm/gcc-arm-none-eabi-6-2017-q2-update/arm-none-eabi/include/c++/6.3.1/bits/stl_vector.h ****        *  This constructor fills the %vector with @a __n copies of @a __value.
 290:/home/zkmike/.local/share/renesas/e2_studio/toolchains/gcc_arm/gcc-arm-none-eabi-6-2017-q2-update/arm-none-eabi/include/c++/6.3.1/bits/stl_vector.h ****        */
 291:/home/zkmike/.local/share/renesas/e2_studio/toolchains/gcc_arm/gcc-arm-none-eabi-6-2017-q2-update/arm-none-eabi/include/c++/6.3.1/bits/stl_vector.h ****       vector(size_type __n, const value_type& __value,
 292:/home/zkmike/.local/share/renesas/e2_studio/toolchains/gcc_arm/gcc-arm-none-eabi-6-2017-q2-update/arm-none-eabi/include/c++/6.3.1/bits/stl_vector.h **** 	     const allocator_type& __a = allocator_type())
 293:/home/zkmike/.local/share/renesas/e2_studio/toolchains/gcc_arm/gcc-arm-none-eabi-6-2017-q2-update/arm-none-eabi/include/c++/6.3.1/bits/stl_vector.h ****       : _Base(__n, __a)
 294:/home/zkmike/.local/share/renesas/e2_studio/toolchains/gcc_arm/gcc-arm-none-eabi-6-2017-q2-update/arm-none-eabi/include/c++/6.3.1/bits/stl_vector.h ****       { _M_fill_initialize(__n, __value); }
 295:/home/zkmike/.local/share/renesas/e2_studio/toolchains/gcc_arm/gcc-arm-none-eabi-6-2017-q2-update/arm-none-eabi/include/c++/6.3.1/bits/stl_vector.h **** #else
 296:/home/zkmike/.local/share/renesas/e2_studio/toolchains/gcc_arm/gcc-arm-none-eabi-6-2017-q2-update/arm-none-eabi/include/c++/6.3.1/bits/stl_vector.h ****       /**
 297:/home/zkmike/.local/share/renesas/e2_studio/toolchains/gcc_arm/gcc-arm-none-eabi-6-2017-q2-update/arm-none-eabi/include/c++/6.3.1/bits/stl_vector.h ****        *  @brief  Creates a %vector with copies of an exemplar element.
 298:/home/zkmike/.local/share/renesas/e2_studio/toolchains/gcc_arm/gcc-arm-none-eabi-6-2017-q2-update/arm-none-eabi/include/c++/6.3.1/bits/stl_vector.h ****        *  @param  __n  The number of elements to initially create.
 299:/home/zkmike/.local/share/renesas/e2_studio/toolchains/gcc_arm/gcc-arm-none-eabi-6-2017-q2-update/arm-none-eabi/include/c++/6.3.1/bits/stl_vector.h ****        *  @param  __value  An element to copy.
 300:/home/zkmike/.local/share/renesas/e2_studio/toolchains/gcc_arm/gcc-arm-none-eabi-6-2017-q2-update/arm-none-eabi/include/c++/6.3.1/bits/stl_vector.h ****        *  @param  __a  An allocator.
 301:/home/zkmike/.local/share/renesas/e2_studio/toolchains/gcc_arm/gcc-arm-none-eabi-6-2017-q2-update/arm-none-eabi/include/c++/6.3.1/bits/stl_vector.h ****        *
 302:/home/zkmike/.local/share/renesas/e2_studio/toolchains/gcc_arm/gcc-arm-none-eabi-6-2017-q2-update/arm-none-eabi/include/c++/6.3.1/bits/stl_vector.h ****        *  This constructor fills the %vector with @a __n copies of @a __value.
 303:/home/zkmike/.local/share/renesas/e2_studio/toolchains/gcc_arm/gcc-arm-none-eabi-6-2017-q2-update/arm-none-eabi/include/c++/6.3.1/bits/stl_vector.h ****        */
 304:/home/zkmike/.local/share/renesas/e2_studio/toolchains/gcc_arm/gcc-arm-none-eabi-6-2017-q2-update/arm-none-eabi/include/c++/6.3.1/bits/stl_vector.h ****       explicit
 305:/home/zkmike/.local/share/renesas/e2_studio/toolchains/gcc_arm/gcc-arm-none-eabi-6-2017-q2-update/arm-none-eabi/include/c++/6.3.1/bits/stl_vector.h ****       vector(size_type __n, const value_type& __value = value_type(),
 306:/home/zkmike/.local/share/renesas/e2_studio/toolchains/gcc_arm/gcc-arm-none-eabi-6-2017-q2-update/arm-none-eabi/include/c++/6.3.1/bits/stl_vector.h **** 	     const allocator_type& __a = allocator_type())
 307:/home/zkmike/.local/share/renesas/e2_studio/toolchains/gcc_arm/gcc-arm-none-eabi-6-2017-q2-update/arm-none-eabi/include/c++/6.3.1/bits/stl_vector.h ****       : _Base(__n, __a)
 308:/home/zkmike/.local/share/renesas/e2_studio/toolchains/gcc_arm/gcc-arm-none-eabi-6-2017-q2-update/arm-none-eabi/include/c++/6.3.1/bits/stl_vector.h ****       { _M_fill_initialize(__n, __value); }
 309:/home/zkmike/.local/share/renesas/e2_studio/toolchains/gcc_arm/gcc-arm-none-eabi-6-2017-q2-update/arm-none-eabi/include/c++/6.3.1/bits/stl_vector.h **** #endif
 310:/home/zkmike/.local/share/renesas/e2_studio/toolchains/gcc_arm/gcc-arm-none-eabi-6-2017-q2-update/arm-none-eabi/include/c++/6.3.1/bits/stl_vector.h **** 
 311:/home/zkmike/.local/share/renesas/e2_studio/toolchains/gcc_arm/gcc-arm-none-eabi-6-2017-q2-update/arm-none-eabi/include/c++/6.3.1/bits/stl_vector.h ****       /**
 312:/home/zkmike/.local/share/renesas/e2_studio/toolchains/gcc_arm/gcc-arm-none-eabi-6-2017-q2-update/arm-none-eabi/include/c++/6.3.1/bits/stl_vector.h ****        *  @brief  %Vector copy constructor.
 313:/home/zkmike/.local/share/renesas/e2_studio/toolchains/gcc_arm/gcc-arm-none-eabi-6-2017-q2-update/arm-none-eabi/include/c++/6.3.1/bits/stl_vector.h ****        *  @param  __x  A %vector of identical element and allocator types.
 314:/home/zkmike/.local/share/renesas/e2_studio/toolchains/gcc_arm/gcc-arm-none-eabi-6-2017-q2-update/arm-none-eabi/include/c++/6.3.1/bits/stl_vector.h ****        *
 315:/home/zkmike/.local/share/renesas/e2_studio/toolchains/gcc_arm/gcc-arm-none-eabi-6-2017-q2-update/arm-none-eabi/include/c++/6.3.1/bits/stl_vector.h ****        *  The newly-created %vector uses a copy of the allocation
 316:/home/zkmike/.local/share/renesas/e2_studio/toolchains/gcc_arm/gcc-arm-none-eabi-6-2017-q2-update/arm-none-eabi/include/c++/6.3.1/bits/stl_vector.h ****        *  object used by @a __x.  All the elements of @a __x are copied,
 317:/home/zkmike/.local/share/renesas/e2_studio/toolchains/gcc_arm/gcc-arm-none-eabi-6-2017-q2-update/arm-none-eabi/include/c++/6.3.1/bits/stl_vector.h ****        *  but any extra memory in
 318:/home/zkmike/.local/share/renesas/e2_studio/toolchains/gcc_arm/gcc-arm-none-eabi-6-2017-q2-update/arm-none-eabi/include/c++/6.3.1/bits/stl_vector.h ****        *  @a __x (for fast expansion) will not be copied.
 319:/home/zkmike/.local/share/renesas/e2_studio/toolchains/gcc_arm/gcc-arm-none-eabi-6-2017-q2-update/arm-none-eabi/include/c++/6.3.1/bits/stl_vector.h ****        */
 320:/home/zkmike/.local/share/renesas/e2_studio/toolchains/gcc_arm/gcc-arm-none-eabi-6-2017-q2-update/arm-none-eabi/include/c++/6.3.1/bits/stl_vector.h ****       vector(const vector& __x)
 321:/home/zkmike/.local/share/renesas/e2_studio/toolchains/gcc_arm/gcc-arm-none-eabi-6-2017-q2-update/arm-none-eabi/include/c++/6.3.1/bits/stl_vector.h ****       : _Base(__x.size(),
 322:/home/zkmike/.local/share/renesas/e2_studio/toolchains/gcc_arm/gcc-arm-none-eabi-6-2017-q2-update/arm-none-eabi/include/c++/6.3.1/bits/stl_vector.h ****         _Alloc_traits::_S_select_on_copy(__x._M_get_Tp_allocator()))
 323:/home/zkmike/.local/share/renesas/e2_studio/toolchains/gcc_arm/gcc-arm-none-eabi-6-2017-q2-update/arm-none-eabi/include/c++/6.3.1/bits/stl_vector.h ****       { this->_M_impl._M_finish =
 324:/home/zkmike/.local/share/renesas/e2_studio/toolchains/gcc_arm/gcc-arm-none-eabi-6-2017-q2-update/arm-none-eabi/include/c++/6.3.1/bits/stl_vector.h **** 	  std::__uninitialized_copy_a(__x.begin(), __x.end(),
 325:/home/zkmike/.local/share/renesas/e2_studio/toolchains/gcc_arm/gcc-arm-none-eabi-6-2017-q2-update/arm-none-eabi/include/c++/6.3.1/bits/stl_vector.h **** 				      this->_M_impl._M_start,
 326:/home/zkmike/.local/share/renesas/e2_studio/toolchains/gcc_arm/gcc-arm-none-eabi-6-2017-q2-update/arm-none-eabi/include/c++/6.3.1/bits/stl_vector.h **** 				      _M_get_Tp_allocator());
 327:/home/zkmike/.local/share/renesas/e2_studio/toolchains/gcc_arm/gcc-arm-none-eabi-6-2017-q2-update/arm-none-eabi/include/c++/6.3.1/bits/stl_vector.h ****       }
 328:/home/zkmike/.local/share/renesas/e2_studio/toolchains/gcc_arm/gcc-arm-none-eabi-6-2017-q2-update/arm-none-eabi/include/c++/6.3.1/bits/stl_vector.h **** 
 329:/home/zkmike/.local/share/renesas/e2_studio/toolchains/gcc_arm/gcc-arm-none-eabi-6-2017-q2-update/arm-none-eabi/include/c++/6.3.1/bits/stl_vector.h **** #if __cplusplus >= 201103L
 330:/home/zkmike/.local/share/renesas/e2_studio/toolchains/gcc_arm/gcc-arm-none-eabi-6-2017-q2-update/arm-none-eabi/include/c++/6.3.1/bits/stl_vector.h ****       /**
 331:/home/zkmike/.local/share/renesas/e2_studio/toolchains/gcc_arm/gcc-arm-none-eabi-6-2017-q2-update/arm-none-eabi/include/c++/6.3.1/bits/stl_vector.h ****        *  @brief  %Vector move constructor.
 332:/home/zkmike/.local/share/renesas/e2_studio/toolchains/gcc_arm/gcc-arm-none-eabi-6-2017-q2-update/arm-none-eabi/include/c++/6.3.1/bits/stl_vector.h ****        *  @param  __x  A %vector of identical element and allocator types.
 333:/home/zkmike/.local/share/renesas/e2_studio/toolchains/gcc_arm/gcc-arm-none-eabi-6-2017-q2-update/arm-none-eabi/include/c++/6.3.1/bits/stl_vector.h ****        *
 334:/home/zkmike/.local/share/renesas/e2_studio/toolchains/gcc_arm/gcc-arm-none-eabi-6-2017-q2-update/arm-none-eabi/include/c++/6.3.1/bits/stl_vector.h ****        *  The newly-created %vector contains the exact contents of @a __x.
 335:/home/zkmike/.local/share/renesas/e2_studio/toolchains/gcc_arm/gcc-arm-none-eabi-6-2017-q2-update/arm-none-eabi/include/c++/6.3.1/bits/stl_vector.h ****        *  The contents of @a __x are a valid, but unspecified %vector.
 336:/home/zkmike/.local/share/renesas/e2_studio/toolchains/gcc_arm/gcc-arm-none-eabi-6-2017-q2-update/arm-none-eabi/include/c++/6.3.1/bits/stl_vector.h ****        */
 337:/home/zkmike/.local/share/renesas/e2_studio/toolchains/gcc_arm/gcc-arm-none-eabi-6-2017-q2-update/arm-none-eabi/include/c++/6.3.1/bits/stl_vector.h ****       vector(vector&& __x) noexcept
 338:/home/zkmike/.local/share/renesas/e2_studio/toolchains/gcc_arm/gcc-arm-none-eabi-6-2017-q2-update/arm-none-eabi/include/c++/6.3.1/bits/stl_vector.h ****       : _Base(std::move(__x)) { }
 339:/home/zkmike/.local/share/renesas/e2_studio/toolchains/gcc_arm/gcc-arm-none-eabi-6-2017-q2-update/arm-none-eabi/include/c++/6.3.1/bits/stl_vector.h **** 
 340:/home/zkmike/.local/share/renesas/e2_studio/toolchains/gcc_arm/gcc-arm-none-eabi-6-2017-q2-update/arm-none-eabi/include/c++/6.3.1/bits/stl_vector.h ****       /// Copy constructor with alternative allocator
 341:/home/zkmike/.local/share/renesas/e2_studio/toolchains/gcc_arm/gcc-arm-none-eabi-6-2017-q2-update/arm-none-eabi/include/c++/6.3.1/bits/stl_vector.h ****       vector(const vector& __x, const allocator_type& __a)
 342:/home/zkmike/.local/share/renesas/e2_studio/toolchains/gcc_arm/gcc-arm-none-eabi-6-2017-q2-update/arm-none-eabi/include/c++/6.3.1/bits/stl_vector.h ****       : _Base(__x.size(), __a)
 343:/home/zkmike/.local/share/renesas/e2_studio/toolchains/gcc_arm/gcc-arm-none-eabi-6-2017-q2-update/arm-none-eabi/include/c++/6.3.1/bits/stl_vector.h ****       { this->_M_impl._M_finish =
 344:/home/zkmike/.local/share/renesas/e2_studio/toolchains/gcc_arm/gcc-arm-none-eabi-6-2017-q2-update/arm-none-eabi/include/c++/6.3.1/bits/stl_vector.h **** 	  std::__uninitialized_copy_a(__x.begin(), __x.end(),
 345:/home/zkmike/.local/share/renesas/e2_studio/toolchains/gcc_arm/gcc-arm-none-eabi-6-2017-q2-update/arm-none-eabi/include/c++/6.3.1/bits/stl_vector.h **** 				      this->_M_impl._M_start,
 346:/home/zkmike/.local/share/renesas/e2_studio/toolchains/gcc_arm/gcc-arm-none-eabi-6-2017-q2-update/arm-none-eabi/include/c++/6.3.1/bits/stl_vector.h **** 				      _M_get_Tp_allocator());
 347:/home/zkmike/.local/share/renesas/e2_studio/toolchains/gcc_arm/gcc-arm-none-eabi-6-2017-q2-update/arm-none-eabi/include/c++/6.3.1/bits/stl_vector.h ****       }
 348:/home/zkmike/.local/share/renesas/e2_studio/toolchains/gcc_arm/gcc-arm-none-eabi-6-2017-q2-update/arm-none-eabi/include/c++/6.3.1/bits/stl_vector.h **** 
 349:/home/zkmike/.local/share/renesas/e2_studio/toolchains/gcc_arm/gcc-arm-none-eabi-6-2017-q2-update/arm-none-eabi/include/c++/6.3.1/bits/stl_vector.h ****       /// Move constructor with alternative allocator
 350:/home/zkmike/.local/share/renesas/e2_studio/toolchains/gcc_arm/gcc-arm-none-eabi-6-2017-q2-update/arm-none-eabi/include/c++/6.3.1/bits/stl_vector.h ****       vector(vector&& __rv, const allocator_type& __m)
 351:/home/zkmike/.local/share/renesas/e2_studio/toolchains/gcc_arm/gcc-arm-none-eabi-6-2017-q2-update/arm-none-eabi/include/c++/6.3.1/bits/stl_vector.h ****       noexcept(_Alloc_traits::_S_always_equal())
 352:/home/zkmike/.local/share/renesas/e2_studio/toolchains/gcc_arm/gcc-arm-none-eabi-6-2017-q2-update/arm-none-eabi/include/c++/6.3.1/bits/stl_vector.h ****       : _Base(std::move(__rv), __m)
 353:/home/zkmike/.local/share/renesas/e2_studio/toolchains/gcc_arm/gcc-arm-none-eabi-6-2017-q2-update/arm-none-eabi/include/c++/6.3.1/bits/stl_vector.h ****       {
 354:/home/zkmike/.local/share/renesas/e2_studio/toolchains/gcc_arm/gcc-arm-none-eabi-6-2017-q2-update/arm-none-eabi/include/c++/6.3.1/bits/stl_vector.h **** 	if (__rv.get_allocator() != __m)
 355:/home/zkmike/.local/share/renesas/e2_studio/toolchains/gcc_arm/gcc-arm-none-eabi-6-2017-q2-update/arm-none-eabi/include/c++/6.3.1/bits/stl_vector.h **** 	  {
 356:/home/zkmike/.local/share/renesas/e2_studio/toolchains/gcc_arm/gcc-arm-none-eabi-6-2017-q2-update/arm-none-eabi/include/c++/6.3.1/bits/stl_vector.h **** 	    this->_M_impl._M_finish =
 357:/home/zkmike/.local/share/renesas/e2_studio/toolchains/gcc_arm/gcc-arm-none-eabi-6-2017-q2-update/arm-none-eabi/include/c++/6.3.1/bits/stl_vector.h **** 	      std::__uninitialized_move_a(__rv.begin(), __rv.end(),
 358:/home/zkmike/.local/share/renesas/e2_studio/toolchains/gcc_arm/gcc-arm-none-eabi-6-2017-q2-update/arm-none-eabi/include/c++/6.3.1/bits/stl_vector.h **** 					  this->_M_impl._M_start,
 359:/home/zkmike/.local/share/renesas/e2_studio/toolchains/gcc_arm/gcc-arm-none-eabi-6-2017-q2-update/arm-none-eabi/include/c++/6.3.1/bits/stl_vector.h **** 					  _M_get_Tp_allocator());
 360:/home/zkmike/.local/share/renesas/e2_studio/toolchains/gcc_arm/gcc-arm-none-eabi-6-2017-q2-update/arm-none-eabi/include/c++/6.3.1/bits/stl_vector.h **** 	    __rv.clear();
 361:/home/zkmike/.local/share/renesas/e2_studio/toolchains/gcc_arm/gcc-arm-none-eabi-6-2017-q2-update/arm-none-eabi/include/c++/6.3.1/bits/stl_vector.h **** 	  }
 362:/home/zkmike/.local/share/renesas/e2_studio/toolchains/gcc_arm/gcc-arm-none-eabi-6-2017-q2-update/arm-none-eabi/include/c++/6.3.1/bits/stl_vector.h ****       }
 363:/home/zkmike/.local/share/renesas/e2_studio/toolchains/gcc_arm/gcc-arm-none-eabi-6-2017-q2-update/arm-none-eabi/include/c++/6.3.1/bits/stl_vector.h **** 
 364:/home/zkmike/.local/share/renesas/e2_studio/toolchains/gcc_arm/gcc-arm-none-eabi-6-2017-q2-update/arm-none-eabi/include/c++/6.3.1/bits/stl_vector.h ****       /**
 365:/home/zkmike/.local/share/renesas/e2_studio/toolchains/gcc_arm/gcc-arm-none-eabi-6-2017-q2-update/arm-none-eabi/include/c++/6.3.1/bits/stl_vector.h ****        *  @brief  Builds a %vector from an initializer list.
 366:/home/zkmike/.local/share/renesas/e2_studio/toolchains/gcc_arm/gcc-arm-none-eabi-6-2017-q2-update/arm-none-eabi/include/c++/6.3.1/bits/stl_vector.h ****        *  @param  __l  An initializer_list.
 367:/home/zkmike/.local/share/renesas/e2_studio/toolchains/gcc_arm/gcc-arm-none-eabi-6-2017-q2-update/arm-none-eabi/include/c++/6.3.1/bits/stl_vector.h ****        *  @param  __a  An allocator.
 368:/home/zkmike/.local/share/renesas/e2_studio/toolchains/gcc_arm/gcc-arm-none-eabi-6-2017-q2-update/arm-none-eabi/include/c++/6.3.1/bits/stl_vector.h ****        *
 369:/home/zkmike/.local/share/renesas/e2_studio/toolchains/gcc_arm/gcc-arm-none-eabi-6-2017-q2-update/arm-none-eabi/include/c++/6.3.1/bits/stl_vector.h ****        *  Create a %vector consisting of copies of the elements in the
 370:/home/zkmike/.local/share/renesas/e2_studio/toolchains/gcc_arm/gcc-arm-none-eabi-6-2017-q2-update/arm-none-eabi/include/c++/6.3.1/bits/stl_vector.h ****        *  initializer_list @a __l.
 371:/home/zkmike/.local/share/renesas/e2_studio/toolchains/gcc_arm/gcc-arm-none-eabi-6-2017-q2-update/arm-none-eabi/include/c++/6.3.1/bits/stl_vector.h ****        *
 372:/home/zkmike/.local/share/renesas/e2_studio/toolchains/gcc_arm/gcc-arm-none-eabi-6-2017-q2-update/arm-none-eabi/include/c++/6.3.1/bits/stl_vector.h ****        *  This will call the element type's copy constructor N times
 373:/home/zkmike/.local/share/renesas/e2_studio/toolchains/gcc_arm/gcc-arm-none-eabi-6-2017-q2-update/arm-none-eabi/include/c++/6.3.1/bits/stl_vector.h ****        *  (where N is @a __l.size()) and do no memory reallocation.
 374:/home/zkmike/.local/share/renesas/e2_studio/toolchains/gcc_arm/gcc-arm-none-eabi-6-2017-q2-update/arm-none-eabi/include/c++/6.3.1/bits/stl_vector.h ****        */
 375:/home/zkmike/.local/share/renesas/e2_studio/toolchains/gcc_arm/gcc-arm-none-eabi-6-2017-q2-update/arm-none-eabi/include/c++/6.3.1/bits/stl_vector.h ****       vector(initializer_list<value_type> __l,
 376:/home/zkmike/.local/share/renesas/e2_studio/toolchains/gcc_arm/gcc-arm-none-eabi-6-2017-q2-update/arm-none-eabi/include/c++/6.3.1/bits/stl_vector.h **** 	     const allocator_type& __a = allocator_type())
 377:/home/zkmike/.local/share/renesas/e2_studio/toolchains/gcc_arm/gcc-arm-none-eabi-6-2017-q2-update/arm-none-eabi/include/c++/6.3.1/bits/stl_vector.h ****       : _Base(__a)
 378:/home/zkmike/.local/share/renesas/e2_studio/toolchains/gcc_arm/gcc-arm-none-eabi-6-2017-q2-update/arm-none-eabi/include/c++/6.3.1/bits/stl_vector.h ****       {
 379:/home/zkmike/.local/share/renesas/e2_studio/toolchains/gcc_arm/gcc-arm-none-eabi-6-2017-q2-update/arm-none-eabi/include/c++/6.3.1/bits/stl_vector.h **** 	_M_range_initialize(__l.begin(), __l.end(),
 380:/home/zkmike/.local/share/renesas/e2_studio/toolchains/gcc_arm/gcc-arm-none-eabi-6-2017-q2-update/arm-none-eabi/include/c++/6.3.1/bits/stl_vector.h **** 			    random_access_iterator_tag());
 381:/home/zkmike/.local/share/renesas/e2_studio/toolchains/gcc_arm/gcc-arm-none-eabi-6-2017-q2-update/arm-none-eabi/include/c++/6.3.1/bits/stl_vector.h ****       }
 382:/home/zkmike/.local/share/renesas/e2_studio/toolchains/gcc_arm/gcc-arm-none-eabi-6-2017-q2-update/arm-none-eabi/include/c++/6.3.1/bits/stl_vector.h **** #endif
 383:/home/zkmike/.local/share/renesas/e2_studio/toolchains/gcc_arm/gcc-arm-none-eabi-6-2017-q2-update/arm-none-eabi/include/c++/6.3.1/bits/stl_vector.h **** 
 384:/home/zkmike/.local/share/renesas/e2_studio/toolchains/gcc_arm/gcc-arm-none-eabi-6-2017-q2-update/arm-none-eabi/include/c++/6.3.1/bits/stl_vector.h ****       /**
 385:/home/zkmike/.local/share/renesas/e2_studio/toolchains/gcc_arm/gcc-arm-none-eabi-6-2017-q2-update/arm-none-eabi/include/c++/6.3.1/bits/stl_vector.h ****        *  @brief  Builds a %vector from a range.
 386:/home/zkmike/.local/share/renesas/e2_studio/toolchains/gcc_arm/gcc-arm-none-eabi-6-2017-q2-update/arm-none-eabi/include/c++/6.3.1/bits/stl_vector.h ****        *  @param  __first  An input iterator.
 387:/home/zkmike/.local/share/renesas/e2_studio/toolchains/gcc_arm/gcc-arm-none-eabi-6-2017-q2-update/arm-none-eabi/include/c++/6.3.1/bits/stl_vector.h ****        *  @param  __last  An input iterator.
 388:/home/zkmike/.local/share/renesas/e2_studio/toolchains/gcc_arm/gcc-arm-none-eabi-6-2017-q2-update/arm-none-eabi/include/c++/6.3.1/bits/stl_vector.h ****        *  @param  __a  An allocator.
 389:/home/zkmike/.local/share/renesas/e2_studio/toolchains/gcc_arm/gcc-arm-none-eabi-6-2017-q2-update/arm-none-eabi/include/c++/6.3.1/bits/stl_vector.h ****        *
 390:/home/zkmike/.local/share/renesas/e2_studio/toolchains/gcc_arm/gcc-arm-none-eabi-6-2017-q2-update/arm-none-eabi/include/c++/6.3.1/bits/stl_vector.h ****        *  Create a %vector consisting of copies of the elements from
 391:/home/zkmike/.local/share/renesas/e2_studio/toolchains/gcc_arm/gcc-arm-none-eabi-6-2017-q2-update/arm-none-eabi/include/c++/6.3.1/bits/stl_vector.h ****        *  [first,last).
 392:/home/zkmike/.local/share/renesas/e2_studio/toolchains/gcc_arm/gcc-arm-none-eabi-6-2017-q2-update/arm-none-eabi/include/c++/6.3.1/bits/stl_vector.h ****        *
 393:/home/zkmike/.local/share/renesas/e2_studio/toolchains/gcc_arm/gcc-arm-none-eabi-6-2017-q2-update/arm-none-eabi/include/c++/6.3.1/bits/stl_vector.h ****        *  If the iterators are forward, bidirectional, or
 394:/home/zkmike/.local/share/renesas/e2_studio/toolchains/gcc_arm/gcc-arm-none-eabi-6-2017-q2-update/arm-none-eabi/include/c++/6.3.1/bits/stl_vector.h ****        *  random-access, then this will call the elements' copy
 395:/home/zkmike/.local/share/renesas/e2_studio/toolchains/gcc_arm/gcc-arm-none-eabi-6-2017-q2-update/arm-none-eabi/include/c++/6.3.1/bits/stl_vector.h ****        *  constructor N times (where N is distance(first,last)) and do
 396:/home/zkmike/.local/share/renesas/e2_studio/toolchains/gcc_arm/gcc-arm-none-eabi-6-2017-q2-update/arm-none-eabi/include/c++/6.3.1/bits/stl_vector.h ****        *  no memory reallocation.  But if only input iterators are
 397:/home/zkmike/.local/share/renesas/e2_studio/toolchains/gcc_arm/gcc-arm-none-eabi-6-2017-q2-update/arm-none-eabi/include/c++/6.3.1/bits/stl_vector.h ****        *  used, then this will do at most 2N calls to the copy
 398:/home/zkmike/.local/share/renesas/e2_studio/toolchains/gcc_arm/gcc-arm-none-eabi-6-2017-q2-update/arm-none-eabi/include/c++/6.3.1/bits/stl_vector.h ****        *  constructor, and logN memory reallocations.
 399:/home/zkmike/.local/share/renesas/e2_studio/toolchains/gcc_arm/gcc-arm-none-eabi-6-2017-q2-update/arm-none-eabi/include/c++/6.3.1/bits/stl_vector.h ****        */
 400:/home/zkmike/.local/share/renesas/e2_studio/toolchains/gcc_arm/gcc-arm-none-eabi-6-2017-q2-update/arm-none-eabi/include/c++/6.3.1/bits/stl_vector.h **** #if __cplusplus >= 201103L
 401:/home/zkmike/.local/share/renesas/e2_studio/toolchains/gcc_arm/gcc-arm-none-eabi-6-2017-q2-update/arm-none-eabi/include/c++/6.3.1/bits/stl_vector.h ****       template<typename _InputIterator,
 402:/home/zkmike/.local/share/renesas/e2_studio/toolchains/gcc_arm/gcc-arm-none-eabi-6-2017-q2-update/arm-none-eabi/include/c++/6.3.1/bits/stl_vector.h **** 	       typename = std::_RequireInputIter<_InputIterator>>
 403:/home/zkmike/.local/share/renesas/e2_studio/toolchains/gcc_arm/gcc-arm-none-eabi-6-2017-q2-update/arm-none-eabi/include/c++/6.3.1/bits/stl_vector.h ****         vector(_InputIterator __first, _InputIterator __last,
 404:/home/zkmike/.local/share/renesas/e2_studio/toolchains/gcc_arm/gcc-arm-none-eabi-6-2017-q2-update/arm-none-eabi/include/c++/6.3.1/bits/stl_vector.h **** 	       const allocator_type& __a = allocator_type())
 405:/home/zkmike/.local/share/renesas/e2_studio/toolchains/gcc_arm/gcc-arm-none-eabi-6-2017-q2-update/arm-none-eabi/include/c++/6.3.1/bits/stl_vector.h **** 	: _Base(__a)
 406:/home/zkmike/.local/share/renesas/e2_studio/toolchains/gcc_arm/gcc-arm-none-eabi-6-2017-q2-update/arm-none-eabi/include/c++/6.3.1/bits/stl_vector.h ****         { _M_initialize_dispatch(__first, __last, __false_type()); }
 407:/home/zkmike/.local/share/renesas/e2_studio/toolchains/gcc_arm/gcc-arm-none-eabi-6-2017-q2-update/arm-none-eabi/include/c++/6.3.1/bits/stl_vector.h **** #else
 408:/home/zkmike/.local/share/renesas/e2_studio/toolchains/gcc_arm/gcc-arm-none-eabi-6-2017-q2-update/arm-none-eabi/include/c++/6.3.1/bits/stl_vector.h ****       template<typename _InputIterator>
 409:/home/zkmike/.local/share/renesas/e2_studio/toolchains/gcc_arm/gcc-arm-none-eabi-6-2017-q2-update/arm-none-eabi/include/c++/6.3.1/bits/stl_vector.h ****         vector(_InputIterator __first, _InputIterator __last,
 410:/home/zkmike/.local/share/renesas/e2_studio/toolchains/gcc_arm/gcc-arm-none-eabi-6-2017-q2-update/arm-none-eabi/include/c++/6.3.1/bits/stl_vector.h **** 	       const allocator_type& __a = allocator_type())
 411:/home/zkmike/.local/share/renesas/e2_studio/toolchains/gcc_arm/gcc-arm-none-eabi-6-2017-q2-update/arm-none-eabi/include/c++/6.3.1/bits/stl_vector.h **** 	: _Base(__a)
 412:/home/zkmike/.local/share/renesas/e2_studio/toolchains/gcc_arm/gcc-arm-none-eabi-6-2017-q2-update/arm-none-eabi/include/c++/6.3.1/bits/stl_vector.h ****         {
 413:/home/zkmike/.local/share/renesas/e2_studio/toolchains/gcc_arm/gcc-arm-none-eabi-6-2017-q2-update/arm-none-eabi/include/c++/6.3.1/bits/stl_vector.h **** 	  // Check whether it's an integral type.  If so, it's not an iterator.
 414:/home/zkmike/.local/share/renesas/e2_studio/toolchains/gcc_arm/gcc-arm-none-eabi-6-2017-q2-update/arm-none-eabi/include/c++/6.3.1/bits/stl_vector.h **** 	  typedef typename std::__is_integer<_InputIterator>::__type _Integral;
 415:/home/zkmike/.local/share/renesas/e2_studio/toolchains/gcc_arm/gcc-arm-none-eabi-6-2017-q2-update/arm-none-eabi/include/c++/6.3.1/bits/stl_vector.h **** 	  _M_initialize_dispatch(__first, __last, _Integral());
 416:/home/zkmike/.local/share/renesas/e2_studio/toolchains/gcc_arm/gcc-arm-none-eabi-6-2017-q2-update/arm-none-eabi/include/c++/6.3.1/bits/stl_vector.h **** 	}
 417:/home/zkmike/.local/share/renesas/e2_studio/toolchains/gcc_arm/gcc-arm-none-eabi-6-2017-q2-update/arm-none-eabi/include/c++/6.3.1/bits/stl_vector.h **** #endif
 418:/home/zkmike/.local/share/renesas/e2_studio/toolchains/gcc_arm/gcc-arm-none-eabi-6-2017-q2-update/arm-none-eabi/include/c++/6.3.1/bits/stl_vector.h **** 
 419:/home/zkmike/.local/share/renesas/e2_studio/toolchains/gcc_arm/gcc-arm-none-eabi-6-2017-q2-update/arm-none-eabi/include/c++/6.3.1/bits/stl_vector.h ****       /**
 420:/home/zkmike/.local/share/renesas/e2_studio/toolchains/gcc_arm/gcc-arm-none-eabi-6-2017-q2-update/arm-none-eabi/include/c++/6.3.1/bits/stl_vector.h ****        *  The dtor only erases the elements, and note that if the
 421:/home/zkmike/.local/share/renesas/e2_studio/toolchains/gcc_arm/gcc-arm-none-eabi-6-2017-q2-update/arm-none-eabi/include/c++/6.3.1/bits/stl_vector.h ****        *  elements themselves are pointers, the pointed-to memory is
 422:/home/zkmike/.local/share/renesas/e2_studio/toolchains/gcc_arm/gcc-arm-none-eabi-6-2017-q2-update/arm-none-eabi/include/c++/6.3.1/bits/stl_vector.h ****        *  not touched in any way.  Managing the pointer is the user's
 423:/home/zkmike/.local/share/renesas/e2_studio/toolchains/gcc_arm/gcc-arm-none-eabi-6-2017-q2-update/arm-none-eabi/include/c++/6.3.1/bits/stl_vector.h ****        *  responsibility.
 424:/home/zkmike/.local/share/renesas/e2_studio/toolchains/gcc_arm/gcc-arm-none-eabi-6-2017-q2-update/arm-none-eabi/include/c++/6.3.1/bits/stl_vector.h ****        */
 425:/home/zkmike/.local/share/renesas/e2_studio/toolchains/gcc_arm/gcc-arm-none-eabi-6-2017-q2-update/arm-none-eabi/include/c++/6.3.1/bits/stl_vector.h ****       ~vector() _GLIBCXX_NOEXCEPT
 426:/home/zkmike/.local/share/renesas/e2_studio/toolchains/gcc_arm/gcc-arm-none-eabi-6-2017-q2-update/arm-none-eabi/include/c++/6.3.1/bits/stl_vector.h ****       { std::_Destroy(this->_M_impl._M_start, this->_M_impl._M_finish,
 427:/home/zkmike/.local/share/renesas/e2_studio/toolchains/gcc_arm/gcc-arm-none-eabi-6-2017-q2-update/arm-none-eabi/include/c++/6.3.1/bits/stl_vector.h **** 		      _M_get_Tp_allocator()); }
 428:/home/zkmike/.local/share/renesas/e2_studio/toolchains/gcc_arm/gcc-arm-none-eabi-6-2017-q2-update/arm-none-eabi/include/c++/6.3.1/bits/stl_vector.h **** 
 429:/home/zkmike/.local/share/renesas/e2_studio/toolchains/gcc_arm/gcc-arm-none-eabi-6-2017-q2-update/arm-none-eabi/include/c++/6.3.1/bits/stl_vector.h ****       /**
 430:/home/zkmike/.local/share/renesas/e2_studio/toolchains/gcc_arm/gcc-arm-none-eabi-6-2017-q2-update/arm-none-eabi/include/c++/6.3.1/bits/stl_vector.h ****        *  @brief  %Vector assignment operator.
 431:/home/zkmike/.local/share/renesas/e2_studio/toolchains/gcc_arm/gcc-arm-none-eabi-6-2017-q2-update/arm-none-eabi/include/c++/6.3.1/bits/stl_vector.h ****        *  @param  __x  A %vector of identical element and allocator types.
 432:/home/zkmike/.local/share/renesas/e2_studio/toolchains/gcc_arm/gcc-arm-none-eabi-6-2017-q2-update/arm-none-eabi/include/c++/6.3.1/bits/stl_vector.h ****        *
 433:/home/zkmike/.local/share/renesas/e2_studio/toolchains/gcc_arm/gcc-arm-none-eabi-6-2017-q2-update/arm-none-eabi/include/c++/6.3.1/bits/stl_vector.h ****        *  All the elements of @a __x are copied, but any extra memory in
 434:/home/zkmike/.local/share/renesas/e2_studio/toolchains/gcc_arm/gcc-arm-none-eabi-6-2017-q2-update/arm-none-eabi/include/c++/6.3.1/bits/stl_vector.h ****        *  @a __x (for fast expansion) will not be copied.  Unlike the
 435:/home/zkmike/.local/share/renesas/e2_studio/toolchains/gcc_arm/gcc-arm-none-eabi-6-2017-q2-update/arm-none-eabi/include/c++/6.3.1/bits/stl_vector.h ****        *  copy constructor, the allocator object is not copied.
 436:/home/zkmike/.local/share/renesas/e2_studio/toolchains/gcc_arm/gcc-arm-none-eabi-6-2017-q2-update/arm-none-eabi/include/c++/6.3.1/bits/stl_vector.h ****        */
 437:/home/zkmike/.local/share/renesas/e2_studio/toolchains/gcc_arm/gcc-arm-none-eabi-6-2017-q2-update/arm-none-eabi/include/c++/6.3.1/bits/stl_vector.h ****       vector&
 438:/home/zkmike/.local/share/renesas/e2_studio/toolchains/gcc_arm/gcc-arm-none-eabi-6-2017-q2-update/arm-none-eabi/include/c++/6.3.1/bits/stl_vector.h ****       operator=(const vector& __x);
 439:/home/zkmike/.local/share/renesas/e2_studio/toolchains/gcc_arm/gcc-arm-none-eabi-6-2017-q2-update/arm-none-eabi/include/c++/6.3.1/bits/stl_vector.h **** 
 440:/home/zkmike/.local/share/renesas/e2_studio/toolchains/gcc_arm/gcc-arm-none-eabi-6-2017-q2-update/arm-none-eabi/include/c++/6.3.1/bits/stl_vector.h **** #if __cplusplus >= 201103L
 441:/home/zkmike/.local/share/renesas/e2_studio/toolchains/gcc_arm/gcc-arm-none-eabi-6-2017-q2-update/arm-none-eabi/include/c++/6.3.1/bits/stl_vector.h ****       /**
 442:/home/zkmike/.local/share/renesas/e2_studio/toolchains/gcc_arm/gcc-arm-none-eabi-6-2017-q2-update/arm-none-eabi/include/c++/6.3.1/bits/stl_vector.h ****        *  @brief  %Vector move assignment operator.
 443:/home/zkmike/.local/share/renesas/e2_studio/toolchains/gcc_arm/gcc-arm-none-eabi-6-2017-q2-update/arm-none-eabi/include/c++/6.3.1/bits/stl_vector.h ****        *  @param  __x  A %vector of identical element and allocator types.
 444:/home/zkmike/.local/share/renesas/e2_studio/toolchains/gcc_arm/gcc-arm-none-eabi-6-2017-q2-update/arm-none-eabi/include/c++/6.3.1/bits/stl_vector.h ****        *
 445:/home/zkmike/.local/share/renesas/e2_studio/toolchains/gcc_arm/gcc-arm-none-eabi-6-2017-q2-update/arm-none-eabi/include/c++/6.3.1/bits/stl_vector.h ****        *  The contents of @a __x are moved into this %vector (without copying,
 446:/home/zkmike/.local/share/renesas/e2_studio/toolchains/gcc_arm/gcc-arm-none-eabi-6-2017-q2-update/arm-none-eabi/include/c++/6.3.1/bits/stl_vector.h ****        *  if the allocators permit it).
 447:/home/zkmike/.local/share/renesas/e2_studio/toolchains/gcc_arm/gcc-arm-none-eabi-6-2017-q2-update/arm-none-eabi/include/c++/6.3.1/bits/stl_vector.h ****        *  @a __x is a valid, but unspecified %vector.
 448:/home/zkmike/.local/share/renesas/e2_studio/toolchains/gcc_arm/gcc-arm-none-eabi-6-2017-q2-update/arm-none-eabi/include/c++/6.3.1/bits/stl_vector.h ****        */
 449:/home/zkmike/.local/share/renesas/e2_studio/toolchains/gcc_arm/gcc-arm-none-eabi-6-2017-q2-update/arm-none-eabi/include/c++/6.3.1/bits/stl_vector.h ****       vector&
 450:/home/zkmike/.local/share/renesas/e2_studio/toolchains/gcc_arm/gcc-arm-none-eabi-6-2017-q2-update/arm-none-eabi/include/c++/6.3.1/bits/stl_vector.h ****       operator=(vector&& __x) noexcept(_Alloc_traits::_S_nothrow_move())
 451:/home/zkmike/.local/share/renesas/e2_studio/toolchains/gcc_arm/gcc-arm-none-eabi-6-2017-q2-update/arm-none-eabi/include/c++/6.3.1/bits/stl_vector.h ****       {
 452:/home/zkmike/.local/share/renesas/e2_studio/toolchains/gcc_arm/gcc-arm-none-eabi-6-2017-q2-update/arm-none-eabi/include/c++/6.3.1/bits/stl_vector.h ****         constexpr bool __move_storage =
 453:/home/zkmike/.local/share/renesas/e2_studio/toolchains/gcc_arm/gcc-arm-none-eabi-6-2017-q2-update/arm-none-eabi/include/c++/6.3.1/bits/stl_vector.h ****           _Alloc_traits::_S_propagate_on_move_assign()
 454:/home/zkmike/.local/share/renesas/e2_studio/toolchains/gcc_arm/gcc-arm-none-eabi-6-2017-q2-update/arm-none-eabi/include/c++/6.3.1/bits/stl_vector.h ****           || _Alloc_traits::_S_always_equal();
 455:/home/zkmike/.local/share/renesas/e2_studio/toolchains/gcc_arm/gcc-arm-none-eabi-6-2017-q2-update/arm-none-eabi/include/c++/6.3.1/bits/stl_vector.h ****         _M_move_assign(std::move(__x), __bool_constant<__move_storage>());
 456:/home/zkmike/.local/share/renesas/e2_studio/toolchains/gcc_arm/gcc-arm-none-eabi-6-2017-q2-update/arm-none-eabi/include/c++/6.3.1/bits/stl_vector.h **** 	return *this;
 457:/home/zkmike/.local/share/renesas/e2_studio/toolchains/gcc_arm/gcc-arm-none-eabi-6-2017-q2-update/arm-none-eabi/include/c++/6.3.1/bits/stl_vector.h ****       }
 458:/home/zkmike/.local/share/renesas/e2_studio/toolchains/gcc_arm/gcc-arm-none-eabi-6-2017-q2-update/arm-none-eabi/include/c++/6.3.1/bits/stl_vector.h **** 
 459:/home/zkmike/.local/share/renesas/e2_studio/toolchains/gcc_arm/gcc-arm-none-eabi-6-2017-q2-update/arm-none-eabi/include/c++/6.3.1/bits/stl_vector.h ****       /**
 460:/home/zkmike/.local/share/renesas/e2_studio/toolchains/gcc_arm/gcc-arm-none-eabi-6-2017-q2-update/arm-none-eabi/include/c++/6.3.1/bits/stl_vector.h ****        *  @brief  %Vector list assignment operator.
 461:/home/zkmike/.local/share/renesas/e2_studio/toolchains/gcc_arm/gcc-arm-none-eabi-6-2017-q2-update/arm-none-eabi/include/c++/6.3.1/bits/stl_vector.h ****        *  @param  __l  An initializer_list.
 462:/home/zkmike/.local/share/renesas/e2_studio/toolchains/gcc_arm/gcc-arm-none-eabi-6-2017-q2-update/arm-none-eabi/include/c++/6.3.1/bits/stl_vector.h ****        *
 463:/home/zkmike/.local/share/renesas/e2_studio/toolchains/gcc_arm/gcc-arm-none-eabi-6-2017-q2-update/arm-none-eabi/include/c++/6.3.1/bits/stl_vector.h ****        *  This function fills a %vector with copies of the elements in the
 464:/home/zkmike/.local/share/renesas/e2_studio/toolchains/gcc_arm/gcc-arm-none-eabi-6-2017-q2-update/arm-none-eabi/include/c++/6.3.1/bits/stl_vector.h ****        *  initializer list @a __l.
 465:/home/zkmike/.local/share/renesas/e2_studio/toolchains/gcc_arm/gcc-arm-none-eabi-6-2017-q2-update/arm-none-eabi/include/c++/6.3.1/bits/stl_vector.h ****        *
 466:/home/zkmike/.local/share/renesas/e2_studio/toolchains/gcc_arm/gcc-arm-none-eabi-6-2017-q2-update/arm-none-eabi/include/c++/6.3.1/bits/stl_vector.h ****        *  Note that the assignment completely changes the %vector and
 467:/home/zkmike/.local/share/renesas/e2_studio/toolchains/gcc_arm/gcc-arm-none-eabi-6-2017-q2-update/arm-none-eabi/include/c++/6.3.1/bits/stl_vector.h ****        *  that the resulting %vector's size is the same as the number
 468:/home/zkmike/.local/share/renesas/e2_studio/toolchains/gcc_arm/gcc-arm-none-eabi-6-2017-q2-update/arm-none-eabi/include/c++/6.3.1/bits/stl_vector.h ****        *  of elements assigned.  Old data may be lost.
 469:/home/zkmike/.local/share/renesas/e2_studio/toolchains/gcc_arm/gcc-arm-none-eabi-6-2017-q2-update/arm-none-eabi/include/c++/6.3.1/bits/stl_vector.h ****        */
 470:/home/zkmike/.local/share/renesas/e2_studio/toolchains/gcc_arm/gcc-arm-none-eabi-6-2017-q2-update/arm-none-eabi/include/c++/6.3.1/bits/stl_vector.h ****       vector&
 471:/home/zkmike/.local/share/renesas/e2_studio/toolchains/gcc_arm/gcc-arm-none-eabi-6-2017-q2-update/arm-none-eabi/include/c++/6.3.1/bits/stl_vector.h ****       operator=(initializer_list<value_type> __l)
 472:/home/zkmike/.local/share/renesas/e2_studio/toolchains/gcc_arm/gcc-arm-none-eabi-6-2017-q2-update/arm-none-eabi/include/c++/6.3.1/bits/stl_vector.h ****       {
 473:/home/zkmike/.local/share/renesas/e2_studio/toolchains/gcc_arm/gcc-arm-none-eabi-6-2017-q2-update/arm-none-eabi/include/c++/6.3.1/bits/stl_vector.h **** 	this->assign(__l.begin(), __l.end());
 474:/home/zkmike/.local/share/renesas/e2_studio/toolchains/gcc_arm/gcc-arm-none-eabi-6-2017-q2-update/arm-none-eabi/include/c++/6.3.1/bits/stl_vector.h **** 	return *this;
 475:/home/zkmike/.local/share/renesas/e2_studio/toolchains/gcc_arm/gcc-arm-none-eabi-6-2017-q2-update/arm-none-eabi/include/c++/6.3.1/bits/stl_vector.h ****       }
 476:/home/zkmike/.local/share/renesas/e2_studio/toolchains/gcc_arm/gcc-arm-none-eabi-6-2017-q2-update/arm-none-eabi/include/c++/6.3.1/bits/stl_vector.h **** #endif
 477:/home/zkmike/.local/share/renesas/e2_studio/toolchains/gcc_arm/gcc-arm-none-eabi-6-2017-q2-update/arm-none-eabi/include/c++/6.3.1/bits/stl_vector.h **** 
 478:/home/zkmike/.local/share/renesas/e2_studio/toolchains/gcc_arm/gcc-arm-none-eabi-6-2017-q2-update/arm-none-eabi/include/c++/6.3.1/bits/stl_vector.h ****       /**
 479:/home/zkmike/.local/share/renesas/e2_studio/toolchains/gcc_arm/gcc-arm-none-eabi-6-2017-q2-update/arm-none-eabi/include/c++/6.3.1/bits/stl_vector.h ****        *  @brief  Assigns a given value to a %vector.
 480:/home/zkmike/.local/share/renesas/e2_studio/toolchains/gcc_arm/gcc-arm-none-eabi-6-2017-q2-update/arm-none-eabi/include/c++/6.3.1/bits/stl_vector.h ****        *  @param  __n  Number of elements to be assigned.
 481:/home/zkmike/.local/share/renesas/e2_studio/toolchains/gcc_arm/gcc-arm-none-eabi-6-2017-q2-update/arm-none-eabi/include/c++/6.3.1/bits/stl_vector.h ****        *  @param  __val  Value to be assigned.
 482:/home/zkmike/.local/share/renesas/e2_studio/toolchains/gcc_arm/gcc-arm-none-eabi-6-2017-q2-update/arm-none-eabi/include/c++/6.3.1/bits/stl_vector.h ****        *
 483:/home/zkmike/.local/share/renesas/e2_studio/toolchains/gcc_arm/gcc-arm-none-eabi-6-2017-q2-update/arm-none-eabi/include/c++/6.3.1/bits/stl_vector.h ****        *  This function fills a %vector with @a __n copies of the given
 484:/home/zkmike/.local/share/renesas/e2_studio/toolchains/gcc_arm/gcc-arm-none-eabi-6-2017-q2-update/arm-none-eabi/include/c++/6.3.1/bits/stl_vector.h ****        *  value.  Note that the assignment completely changes the
 485:/home/zkmike/.local/share/renesas/e2_studio/toolchains/gcc_arm/gcc-arm-none-eabi-6-2017-q2-update/arm-none-eabi/include/c++/6.3.1/bits/stl_vector.h ****        *  %vector and that the resulting %vector's size is the same as
 486:/home/zkmike/.local/share/renesas/e2_studio/toolchains/gcc_arm/gcc-arm-none-eabi-6-2017-q2-update/arm-none-eabi/include/c++/6.3.1/bits/stl_vector.h ****        *  the number of elements assigned.  Old data may be lost.
 487:/home/zkmike/.local/share/renesas/e2_studio/toolchains/gcc_arm/gcc-arm-none-eabi-6-2017-q2-update/arm-none-eabi/include/c++/6.3.1/bits/stl_vector.h ****        */
 488:/home/zkmike/.local/share/renesas/e2_studio/toolchains/gcc_arm/gcc-arm-none-eabi-6-2017-q2-update/arm-none-eabi/include/c++/6.3.1/bits/stl_vector.h ****       void
 489:/home/zkmike/.local/share/renesas/e2_studio/toolchains/gcc_arm/gcc-arm-none-eabi-6-2017-q2-update/arm-none-eabi/include/c++/6.3.1/bits/stl_vector.h ****       assign(size_type __n, const value_type& __val)
 490:/home/zkmike/.local/share/renesas/e2_studio/toolchains/gcc_arm/gcc-arm-none-eabi-6-2017-q2-update/arm-none-eabi/include/c++/6.3.1/bits/stl_vector.h ****       { _M_fill_assign(__n, __val); }
 491:/home/zkmike/.local/share/renesas/e2_studio/toolchains/gcc_arm/gcc-arm-none-eabi-6-2017-q2-update/arm-none-eabi/include/c++/6.3.1/bits/stl_vector.h **** 
 492:/home/zkmike/.local/share/renesas/e2_studio/toolchains/gcc_arm/gcc-arm-none-eabi-6-2017-q2-update/arm-none-eabi/include/c++/6.3.1/bits/stl_vector.h ****       /**
 493:/home/zkmike/.local/share/renesas/e2_studio/toolchains/gcc_arm/gcc-arm-none-eabi-6-2017-q2-update/arm-none-eabi/include/c++/6.3.1/bits/stl_vector.h ****        *  @brief  Assigns a range to a %vector.
 494:/home/zkmike/.local/share/renesas/e2_studio/toolchains/gcc_arm/gcc-arm-none-eabi-6-2017-q2-update/arm-none-eabi/include/c++/6.3.1/bits/stl_vector.h ****        *  @param  __first  An input iterator.
 495:/home/zkmike/.local/share/renesas/e2_studio/toolchains/gcc_arm/gcc-arm-none-eabi-6-2017-q2-update/arm-none-eabi/include/c++/6.3.1/bits/stl_vector.h ****        *  @param  __last   An input iterator.
 496:/home/zkmike/.local/share/renesas/e2_studio/toolchains/gcc_arm/gcc-arm-none-eabi-6-2017-q2-update/arm-none-eabi/include/c++/6.3.1/bits/stl_vector.h ****        *
 497:/home/zkmike/.local/share/renesas/e2_studio/toolchains/gcc_arm/gcc-arm-none-eabi-6-2017-q2-update/arm-none-eabi/include/c++/6.3.1/bits/stl_vector.h ****        *  This function fills a %vector with copies of the elements in the
 498:/home/zkmike/.local/share/renesas/e2_studio/toolchains/gcc_arm/gcc-arm-none-eabi-6-2017-q2-update/arm-none-eabi/include/c++/6.3.1/bits/stl_vector.h ****        *  range [__first,__last).
 499:/home/zkmike/.local/share/renesas/e2_studio/toolchains/gcc_arm/gcc-arm-none-eabi-6-2017-q2-update/arm-none-eabi/include/c++/6.3.1/bits/stl_vector.h ****        *
 500:/home/zkmike/.local/share/renesas/e2_studio/toolchains/gcc_arm/gcc-arm-none-eabi-6-2017-q2-update/arm-none-eabi/include/c++/6.3.1/bits/stl_vector.h ****        *  Note that the assignment completely changes the %vector and
 501:/home/zkmike/.local/share/renesas/e2_studio/toolchains/gcc_arm/gcc-arm-none-eabi-6-2017-q2-update/arm-none-eabi/include/c++/6.3.1/bits/stl_vector.h ****        *  that the resulting %vector's size is the same as the number
 502:/home/zkmike/.local/share/renesas/e2_studio/toolchains/gcc_arm/gcc-arm-none-eabi-6-2017-q2-update/arm-none-eabi/include/c++/6.3.1/bits/stl_vector.h ****        *  of elements assigned.  Old data may be lost.
 503:/home/zkmike/.local/share/renesas/e2_studio/toolchains/gcc_arm/gcc-arm-none-eabi-6-2017-q2-update/arm-none-eabi/include/c++/6.3.1/bits/stl_vector.h ****        */
 504:/home/zkmike/.local/share/renesas/e2_studio/toolchains/gcc_arm/gcc-arm-none-eabi-6-2017-q2-update/arm-none-eabi/include/c++/6.3.1/bits/stl_vector.h **** #if __cplusplus >= 201103L
 505:/home/zkmike/.local/share/renesas/e2_studio/toolchains/gcc_arm/gcc-arm-none-eabi-6-2017-q2-update/arm-none-eabi/include/c++/6.3.1/bits/stl_vector.h ****       template<typename _InputIterator,
 506:/home/zkmike/.local/share/renesas/e2_studio/toolchains/gcc_arm/gcc-arm-none-eabi-6-2017-q2-update/arm-none-eabi/include/c++/6.3.1/bits/stl_vector.h **** 	       typename = std::_RequireInputIter<_InputIterator>>
 507:/home/zkmike/.local/share/renesas/e2_studio/toolchains/gcc_arm/gcc-arm-none-eabi-6-2017-q2-update/arm-none-eabi/include/c++/6.3.1/bits/stl_vector.h ****         void
 508:/home/zkmike/.local/share/renesas/e2_studio/toolchains/gcc_arm/gcc-arm-none-eabi-6-2017-q2-update/arm-none-eabi/include/c++/6.3.1/bits/stl_vector.h ****         assign(_InputIterator __first, _InputIterator __last)
 509:/home/zkmike/.local/share/renesas/e2_studio/toolchains/gcc_arm/gcc-arm-none-eabi-6-2017-q2-update/arm-none-eabi/include/c++/6.3.1/bits/stl_vector.h ****         { _M_assign_dispatch(__first, __last, __false_type()); }
 510:/home/zkmike/.local/share/renesas/e2_studio/toolchains/gcc_arm/gcc-arm-none-eabi-6-2017-q2-update/arm-none-eabi/include/c++/6.3.1/bits/stl_vector.h **** #else
 511:/home/zkmike/.local/share/renesas/e2_studio/toolchains/gcc_arm/gcc-arm-none-eabi-6-2017-q2-update/arm-none-eabi/include/c++/6.3.1/bits/stl_vector.h ****       template<typename _InputIterator>
 512:/home/zkmike/.local/share/renesas/e2_studio/toolchains/gcc_arm/gcc-arm-none-eabi-6-2017-q2-update/arm-none-eabi/include/c++/6.3.1/bits/stl_vector.h ****         void
 513:/home/zkmike/.local/share/renesas/e2_studio/toolchains/gcc_arm/gcc-arm-none-eabi-6-2017-q2-update/arm-none-eabi/include/c++/6.3.1/bits/stl_vector.h ****         assign(_InputIterator __first, _InputIterator __last)
 514:/home/zkmike/.local/share/renesas/e2_studio/toolchains/gcc_arm/gcc-arm-none-eabi-6-2017-q2-update/arm-none-eabi/include/c++/6.3.1/bits/stl_vector.h ****         {
 515:/home/zkmike/.local/share/renesas/e2_studio/toolchains/gcc_arm/gcc-arm-none-eabi-6-2017-q2-update/arm-none-eabi/include/c++/6.3.1/bits/stl_vector.h **** 	  // Check whether it's an integral type.  If so, it's not an iterator.
 516:/home/zkmike/.local/share/renesas/e2_studio/toolchains/gcc_arm/gcc-arm-none-eabi-6-2017-q2-update/arm-none-eabi/include/c++/6.3.1/bits/stl_vector.h **** 	  typedef typename std::__is_integer<_InputIterator>::__type _Integral;
 517:/home/zkmike/.local/share/renesas/e2_studio/toolchains/gcc_arm/gcc-arm-none-eabi-6-2017-q2-update/arm-none-eabi/include/c++/6.3.1/bits/stl_vector.h **** 	  _M_assign_dispatch(__first, __last, _Integral());
 518:/home/zkmike/.local/share/renesas/e2_studio/toolchains/gcc_arm/gcc-arm-none-eabi-6-2017-q2-update/arm-none-eabi/include/c++/6.3.1/bits/stl_vector.h **** 	}
 519:/home/zkmike/.local/share/renesas/e2_studio/toolchains/gcc_arm/gcc-arm-none-eabi-6-2017-q2-update/arm-none-eabi/include/c++/6.3.1/bits/stl_vector.h **** #endif
 520:/home/zkmike/.local/share/renesas/e2_studio/toolchains/gcc_arm/gcc-arm-none-eabi-6-2017-q2-update/arm-none-eabi/include/c++/6.3.1/bits/stl_vector.h **** 
 521:/home/zkmike/.local/share/renesas/e2_studio/toolchains/gcc_arm/gcc-arm-none-eabi-6-2017-q2-update/arm-none-eabi/include/c++/6.3.1/bits/stl_vector.h **** #if __cplusplus >= 201103L
 522:/home/zkmike/.local/share/renesas/e2_studio/toolchains/gcc_arm/gcc-arm-none-eabi-6-2017-q2-update/arm-none-eabi/include/c++/6.3.1/bits/stl_vector.h ****       /**
 523:/home/zkmike/.local/share/renesas/e2_studio/toolchains/gcc_arm/gcc-arm-none-eabi-6-2017-q2-update/arm-none-eabi/include/c++/6.3.1/bits/stl_vector.h ****        *  @brief  Assigns an initializer list to a %vector.
 524:/home/zkmike/.local/share/renesas/e2_studio/toolchains/gcc_arm/gcc-arm-none-eabi-6-2017-q2-update/arm-none-eabi/include/c++/6.3.1/bits/stl_vector.h ****        *  @param  __l  An initializer_list.
 525:/home/zkmike/.local/share/renesas/e2_studio/toolchains/gcc_arm/gcc-arm-none-eabi-6-2017-q2-update/arm-none-eabi/include/c++/6.3.1/bits/stl_vector.h ****        *
 526:/home/zkmike/.local/share/renesas/e2_studio/toolchains/gcc_arm/gcc-arm-none-eabi-6-2017-q2-update/arm-none-eabi/include/c++/6.3.1/bits/stl_vector.h ****        *  This function fills a %vector with copies of the elements in the
 527:/home/zkmike/.local/share/renesas/e2_studio/toolchains/gcc_arm/gcc-arm-none-eabi-6-2017-q2-update/arm-none-eabi/include/c++/6.3.1/bits/stl_vector.h ****        *  initializer list @a __l.
 528:/home/zkmike/.local/share/renesas/e2_studio/toolchains/gcc_arm/gcc-arm-none-eabi-6-2017-q2-update/arm-none-eabi/include/c++/6.3.1/bits/stl_vector.h ****        *
 529:/home/zkmike/.local/share/renesas/e2_studio/toolchains/gcc_arm/gcc-arm-none-eabi-6-2017-q2-update/arm-none-eabi/include/c++/6.3.1/bits/stl_vector.h ****        *  Note that the assignment completely changes the %vector and
 530:/home/zkmike/.local/share/renesas/e2_studio/toolchains/gcc_arm/gcc-arm-none-eabi-6-2017-q2-update/arm-none-eabi/include/c++/6.3.1/bits/stl_vector.h ****        *  that the resulting %vector's size is the same as the number
 531:/home/zkmike/.local/share/renesas/e2_studio/toolchains/gcc_arm/gcc-arm-none-eabi-6-2017-q2-update/arm-none-eabi/include/c++/6.3.1/bits/stl_vector.h ****        *  of elements assigned.  Old data may be lost.
 532:/home/zkmike/.local/share/renesas/e2_studio/toolchains/gcc_arm/gcc-arm-none-eabi-6-2017-q2-update/arm-none-eabi/include/c++/6.3.1/bits/stl_vector.h ****        */
 533:/home/zkmike/.local/share/renesas/e2_studio/toolchains/gcc_arm/gcc-arm-none-eabi-6-2017-q2-update/arm-none-eabi/include/c++/6.3.1/bits/stl_vector.h ****       void
 534:/home/zkmike/.local/share/renesas/e2_studio/toolchains/gcc_arm/gcc-arm-none-eabi-6-2017-q2-update/arm-none-eabi/include/c++/6.3.1/bits/stl_vector.h ****       assign(initializer_list<value_type> __l)
 535:/home/zkmike/.local/share/renesas/e2_studio/toolchains/gcc_arm/gcc-arm-none-eabi-6-2017-q2-update/arm-none-eabi/include/c++/6.3.1/bits/stl_vector.h ****       { this->assign(__l.begin(), __l.end()); }
 536:/home/zkmike/.local/share/renesas/e2_studio/toolchains/gcc_arm/gcc-arm-none-eabi-6-2017-q2-update/arm-none-eabi/include/c++/6.3.1/bits/stl_vector.h **** #endif
 537:/home/zkmike/.local/share/renesas/e2_studio/toolchains/gcc_arm/gcc-arm-none-eabi-6-2017-q2-update/arm-none-eabi/include/c++/6.3.1/bits/stl_vector.h **** 
 538:/home/zkmike/.local/share/renesas/e2_studio/toolchains/gcc_arm/gcc-arm-none-eabi-6-2017-q2-update/arm-none-eabi/include/c++/6.3.1/bits/stl_vector.h ****       /// Get a copy of the memory allocation object.
 539:/home/zkmike/.local/share/renesas/e2_studio/toolchains/gcc_arm/gcc-arm-none-eabi-6-2017-q2-update/arm-none-eabi/include/c++/6.3.1/bits/stl_vector.h ****       using _Base::get_allocator;
 540:/home/zkmike/.local/share/renesas/e2_studio/toolchains/gcc_arm/gcc-arm-none-eabi-6-2017-q2-update/arm-none-eabi/include/c++/6.3.1/bits/stl_vector.h **** 
 541:/home/zkmike/.local/share/renesas/e2_studio/toolchains/gcc_arm/gcc-arm-none-eabi-6-2017-q2-update/arm-none-eabi/include/c++/6.3.1/bits/stl_vector.h ****       // iterators
 542:/home/zkmike/.local/share/renesas/e2_studio/toolchains/gcc_arm/gcc-arm-none-eabi-6-2017-q2-update/arm-none-eabi/include/c++/6.3.1/bits/stl_vector.h ****       /**
 543:/home/zkmike/.local/share/renesas/e2_studio/toolchains/gcc_arm/gcc-arm-none-eabi-6-2017-q2-update/arm-none-eabi/include/c++/6.3.1/bits/stl_vector.h ****        *  Returns a read/write iterator that points to the first
 544:/home/zkmike/.local/share/renesas/e2_studio/toolchains/gcc_arm/gcc-arm-none-eabi-6-2017-q2-update/arm-none-eabi/include/c++/6.3.1/bits/stl_vector.h ****        *  element in the %vector.  Iteration is done in ordinary
 545:/home/zkmike/.local/share/renesas/e2_studio/toolchains/gcc_arm/gcc-arm-none-eabi-6-2017-q2-update/arm-none-eabi/include/c++/6.3.1/bits/stl_vector.h ****        *  element order.
 546:/home/zkmike/.local/share/renesas/e2_studio/toolchains/gcc_arm/gcc-arm-none-eabi-6-2017-q2-update/arm-none-eabi/include/c++/6.3.1/bits/stl_vector.h ****        */
 547:/home/zkmike/.local/share/renesas/e2_studio/toolchains/gcc_arm/gcc-arm-none-eabi-6-2017-q2-update/arm-none-eabi/include/c++/6.3.1/bits/stl_vector.h ****       iterator
 548:/home/zkmike/.local/share/renesas/e2_studio/toolchains/gcc_arm/gcc-arm-none-eabi-6-2017-q2-update/arm-none-eabi/include/c++/6.3.1/bits/stl_vector.h ****       begin() _GLIBCXX_NOEXCEPT
 549:/home/zkmike/.local/share/renesas/e2_studio/toolchains/gcc_arm/gcc-arm-none-eabi-6-2017-q2-update/arm-none-eabi/include/c++/6.3.1/bits/stl_vector.h ****       { return iterator(this->_M_impl._M_start); }
 550:/home/zkmike/.local/share/renesas/e2_studio/toolchains/gcc_arm/gcc-arm-none-eabi-6-2017-q2-update/arm-none-eabi/include/c++/6.3.1/bits/stl_vector.h **** 
 551:/home/zkmike/.local/share/renesas/e2_studio/toolchains/gcc_arm/gcc-arm-none-eabi-6-2017-q2-update/arm-none-eabi/include/c++/6.3.1/bits/stl_vector.h ****       /**
 552:/home/zkmike/.local/share/renesas/e2_studio/toolchains/gcc_arm/gcc-arm-none-eabi-6-2017-q2-update/arm-none-eabi/include/c++/6.3.1/bits/stl_vector.h ****        *  Returns a read-only (constant) iterator that points to the
 553:/home/zkmike/.local/share/renesas/e2_studio/toolchains/gcc_arm/gcc-arm-none-eabi-6-2017-q2-update/arm-none-eabi/include/c++/6.3.1/bits/stl_vector.h ****        *  first element in the %vector.  Iteration is done in ordinary
 554:/home/zkmike/.local/share/renesas/e2_studio/toolchains/gcc_arm/gcc-arm-none-eabi-6-2017-q2-update/arm-none-eabi/include/c++/6.3.1/bits/stl_vector.h ****        *  element order.
 555:/home/zkmike/.local/share/renesas/e2_studio/toolchains/gcc_arm/gcc-arm-none-eabi-6-2017-q2-update/arm-none-eabi/include/c++/6.3.1/bits/stl_vector.h ****        */
 556:/home/zkmike/.local/share/renesas/e2_studio/toolchains/gcc_arm/gcc-arm-none-eabi-6-2017-q2-update/arm-none-eabi/include/c++/6.3.1/bits/stl_vector.h ****       const_iterator
 557:/home/zkmike/.local/share/renesas/e2_studio/toolchains/gcc_arm/gcc-arm-none-eabi-6-2017-q2-update/arm-none-eabi/include/c++/6.3.1/bits/stl_vector.h ****       begin() const _GLIBCXX_NOEXCEPT
 558:/home/zkmike/.local/share/renesas/e2_studio/toolchains/gcc_arm/gcc-arm-none-eabi-6-2017-q2-update/arm-none-eabi/include/c++/6.3.1/bits/stl_vector.h ****       { return const_iterator(this->_M_impl._M_start); }
 559:/home/zkmike/.local/share/renesas/e2_studio/toolchains/gcc_arm/gcc-arm-none-eabi-6-2017-q2-update/arm-none-eabi/include/c++/6.3.1/bits/stl_vector.h **** 
 560:/home/zkmike/.local/share/renesas/e2_studio/toolchains/gcc_arm/gcc-arm-none-eabi-6-2017-q2-update/arm-none-eabi/include/c++/6.3.1/bits/stl_vector.h ****       /**
 561:/home/zkmike/.local/share/renesas/e2_studio/toolchains/gcc_arm/gcc-arm-none-eabi-6-2017-q2-update/arm-none-eabi/include/c++/6.3.1/bits/stl_vector.h ****        *  Returns a read/write iterator that points one past the last
 562:/home/zkmike/.local/share/renesas/e2_studio/toolchains/gcc_arm/gcc-arm-none-eabi-6-2017-q2-update/arm-none-eabi/include/c++/6.3.1/bits/stl_vector.h ****        *  element in the %vector.  Iteration is done in ordinary
 563:/home/zkmike/.local/share/renesas/e2_studio/toolchains/gcc_arm/gcc-arm-none-eabi-6-2017-q2-update/arm-none-eabi/include/c++/6.3.1/bits/stl_vector.h ****        *  element order.
 564:/home/zkmike/.local/share/renesas/e2_studio/toolchains/gcc_arm/gcc-arm-none-eabi-6-2017-q2-update/arm-none-eabi/include/c++/6.3.1/bits/stl_vector.h ****        */
 565:/home/zkmike/.local/share/renesas/e2_studio/toolchains/gcc_arm/gcc-arm-none-eabi-6-2017-q2-update/arm-none-eabi/include/c++/6.3.1/bits/stl_vector.h ****       iterator
 566:/home/zkmike/.local/share/renesas/e2_studio/toolchains/gcc_arm/gcc-arm-none-eabi-6-2017-q2-update/arm-none-eabi/include/c++/6.3.1/bits/stl_vector.h ****       end() _GLIBCXX_NOEXCEPT
 567:/home/zkmike/.local/share/renesas/e2_studio/toolchains/gcc_arm/gcc-arm-none-eabi-6-2017-q2-update/arm-none-eabi/include/c++/6.3.1/bits/stl_vector.h ****       { return iterator(this->_M_impl._M_finish); }
 568:/home/zkmike/.local/share/renesas/e2_studio/toolchains/gcc_arm/gcc-arm-none-eabi-6-2017-q2-update/arm-none-eabi/include/c++/6.3.1/bits/stl_vector.h **** 
 569:/home/zkmike/.local/share/renesas/e2_studio/toolchains/gcc_arm/gcc-arm-none-eabi-6-2017-q2-update/arm-none-eabi/include/c++/6.3.1/bits/stl_vector.h ****       /**
 570:/home/zkmike/.local/share/renesas/e2_studio/toolchains/gcc_arm/gcc-arm-none-eabi-6-2017-q2-update/arm-none-eabi/include/c++/6.3.1/bits/stl_vector.h ****        *  Returns a read-only (constant) iterator that points one past
 571:/home/zkmike/.local/share/renesas/e2_studio/toolchains/gcc_arm/gcc-arm-none-eabi-6-2017-q2-update/arm-none-eabi/include/c++/6.3.1/bits/stl_vector.h ****        *  the last element in the %vector.  Iteration is done in
 572:/home/zkmike/.local/share/renesas/e2_studio/toolchains/gcc_arm/gcc-arm-none-eabi-6-2017-q2-update/arm-none-eabi/include/c++/6.3.1/bits/stl_vector.h ****        *  ordinary element order.
 573:/home/zkmike/.local/share/renesas/e2_studio/toolchains/gcc_arm/gcc-arm-none-eabi-6-2017-q2-update/arm-none-eabi/include/c++/6.3.1/bits/stl_vector.h ****        */
 574:/home/zkmike/.local/share/renesas/e2_studio/toolchains/gcc_arm/gcc-arm-none-eabi-6-2017-q2-update/arm-none-eabi/include/c++/6.3.1/bits/stl_vector.h ****       const_iterator
 575:/home/zkmike/.local/share/renesas/e2_studio/toolchains/gcc_arm/gcc-arm-none-eabi-6-2017-q2-update/arm-none-eabi/include/c++/6.3.1/bits/stl_vector.h ****       end() const _GLIBCXX_NOEXCEPT
 576:/home/zkmike/.local/share/renesas/e2_studio/toolchains/gcc_arm/gcc-arm-none-eabi-6-2017-q2-update/arm-none-eabi/include/c++/6.3.1/bits/stl_vector.h ****       { return const_iterator(this->_M_impl._M_finish); }
 577:/home/zkmike/.local/share/renesas/e2_studio/toolchains/gcc_arm/gcc-arm-none-eabi-6-2017-q2-update/arm-none-eabi/include/c++/6.3.1/bits/stl_vector.h **** 
 578:/home/zkmike/.local/share/renesas/e2_studio/toolchains/gcc_arm/gcc-arm-none-eabi-6-2017-q2-update/arm-none-eabi/include/c++/6.3.1/bits/stl_vector.h ****       /**
 579:/home/zkmike/.local/share/renesas/e2_studio/toolchains/gcc_arm/gcc-arm-none-eabi-6-2017-q2-update/arm-none-eabi/include/c++/6.3.1/bits/stl_vector.h ****        *  Returns a read/write reverse iterator that points to the
 580:/home/zkmike/.local/share/renesas/e2_studio/toolchains/gcc_arm/gcc-arm-none-eabi-6-2017-q2-update/arm-none-eabi/include/c++/6.3.1/bits/stl_vector.h ****        *  last element in the %vector.  Iteration is done in reverse
 581:/home/zkmike/.local/share/renesas/e2_studio/toolchains/gcc_arm/gcc-arm-none-eabi-6-2017-q2-update/arm-none-eabi/include/c++/6.3.1/bits/stl_vector.h ****        *  element order.
 582:/home/zkmike/.local/share/renesas/e2_studio/toolchains/gcc_arm/gcc-arm-none-eabi-6-2017-q2-update/arm-none-eabi/include/c++/6.3.1/bits/stl_vector.h ****        */
 583:/home/zkmike/.local/share/renesas/e2_studio/toolchains/gcc_arm/gcc-arm-none-eabi-6-2017-q2-update/arm-none-eabi/include/c++/6.3.1/bits/stl_vector.h ****       reverse_iterator
 584:/home/zkmike/.local/share/renesas/e2_studio/toolchains/gcc_arm/gcc-arm-none-eabi-6-2017-q2-update/arm-none-eabi/include/c++/6.3.1/bits/stl_vector.h ****       rbegin() _GLIBCXX_NOEXCEPT
 585:/home/zkmike/.local/share/renesas/e2_studio/toolchains/gcc_arm/gcc-arm-none-eabi-6-2017-q2-update/arm-none-eabi/include/c++/6.3.1/bits/stl_vector.h ****       { return reverse_iterator(end()); }
 586:/home/zkmike/.local/share/renesas/e2_studio/toolchains/gcc_arm/gcc-arm-none-eabi-6-2017-q2-update/arm-none-eabi/include/c++/6.3.1/bits/stl_vector.h **** 
 587:/home/zkmike/.local/share/renesas/e2_studio/toolchains/gcc_arm/gcc-arm-none-eabi-6-2017-q2-update/arm-none-eabi/include/c++/6.3.1/bits/stl_vector.h ****       /**
 588:/home/zkmike/.local/share/renesas/e2_studio/toolchains/gcc_arm/gcc-arm-none-eabi-6-2017-q2-update/arm-none-eabi/include/c++/6.3.1/bits/stl_vector.h ****        *  Returns a read-only (constant) reverse iterator that points
 589:/home/zkmike/.local/share/renesas/e2_studio/toolchains/gcc_arm/gcc-arm-none-eabi-6-2017-q2-update/arm-none-eabi/include/c++/6.3.1/bits/stl_vector.h ****        *  to the last element in the %vector.  Iteration is done in
 590:/home/zkmike/.local/share/renesas/e2_studio/toolchains/gcc_arm/gcc-arm-none-eabi-6-2017-q2-update/arm-none-eabi/include/c++/6.3.1/bits/stl_vector.h ****        *  reverse element order.
 591:/home/zkmike/.local/share/renesas/e2_studio/toolchains/gcc_arm/gcc-arm-none-eabi-6-2017-q2-update/arm-none-eabi/include/c++/6.3.1/bits/stl_vector.h ****        */
 592:/home/zkmike/.local/share/renesas/e2_studio/toolchains/gcc_arm/gcc-arm-none-eabi-6-2017-q2-update/arm-none-eabi/include/c++/6.3.1/bits/stl_vector.h ****       const_reverse_iterator
 593:/home/zkmike/.local/share/renesas/e2_studio/toolchains/gcc_arm/gcc-arm-none-eabi-6-2017-q2-update/arm-none-eabi/include/c++/6.3.1/bits/stl_vector.h ****       rbegin() const _GLIBCXX_NOEXCEPT
 594:/home/zkmike/.local/share/renesas/e2_studio/toolchains/gcc_arm/gcc-arm-none-eabi-6-2017-q2-update/arm-none-eabi/include/c++/6.3.1/bits/stl_vector.h ****       { return const_reverse_iterator(end()); }
 595:/home/zkmike/.local/share/renesas/e2_studio/toolchains/gcc_arm/gcc-arm-none-eabi-6-2017-q2-update/arm-none-eabi/include/c++/6.3.1/bits/stl_vector.h **** 
 596:/home/zkmike/.local/share/renesas/e2_studio/toolchains/gcc_arm/gcc-arm-none-eabi-6-2017-q2-update/arm-none-eabi/include/c++/6.3.1/bits/stl_vector.h ****       /**
 597:/home/zkmike/.local/share/renesas/e2_studio/toolchains/gcc_arm/gcc-arm-none-eabi-6-2017-q2-update/arm-none-eabi/include/c++/6.3.1/bits/stl_vector.h ****        *  Returns a read/write reverse iterator that points to one
 598:/home/zkmike/.local/share/renesas/e2_studio/toolchains/gcc_arm/gcc-arm-none-eabi-6-2017-q2-update/arm-none-eabi/include/c++/6.3.1/bits/stl_vector.h ****        *  before the first element in the %vector.  Iteration is done
 599:/home/zkmike/.local/share/renesas/e2_studio/toolchains/gcc_arm/gcc-arm-none-eabi-6-2017-q2-update/arm-none-eabi/include/c++/6.3.1/bits/stl_vector.h ****        *  in reverse element order.
 600:/home/zkmike/.local/share/renesas/e2_studio/toolchains/gcc_arm/gcc-arm-none-eabi-6-2017-q2-update/arm-none-eabi/include/c++/6.3.1/bits/stl_vector.h ****        */
 601:/home/zkmike/.local/share/renesas/e2_studio/toolchains/gcc_arm/gcc-arm-none-eabi-6-2017-q2-update/arm-none-eabi/include/c++/6.3.1/bits/stl_vector.h ****       reverse_iterator
 602:/home/zkmike/.local/share/renesas/e2_studio/toolchains/gcc_arm/gcc-arm-none-eabi-6-2017-q2-update/arm-none-eabi/include/c++/6.3.1/bits/stl_vector.h ****       rend() _GLIBCXX_NOEXCEPT
 603:/home/zkmike/.local/share/renesas/e2_studio/toolchains/gcc_arm/gcc-arm-none-eabi-6-2017-q2-update/arm-none-eabi/include/c++/6.3.1/bits/stl_vector.h ****       { return reverse_iterator(begin()); }
 604:/home/zkmike/.local/share/renesas/e2_studio/toolchains/gcc_arm/gcc-arm-none-eabi-6-2017-q2-update/arm-none-eabi/include/c++/6.3.1/bits/stl_vector.h **** 
 605:/home/zkmike/.local/share/renesas/e2_studio/toolchains/gcc_arm/gcc-arm-none-eabi-6-2017-q2-update/arm-none-eabi/include/c++/6.3.1/bits/stl_vector.h ****       /**
 606:/home/zkmike/.local/share/renesas/e2_studio/toolchains/gcc_arm/gcc-arm-none-eabi-6-2017-q2-update/arm-none-eabi/include/c++/6.3.1/bits/stl_vector.h ****        *  Returns a read-only (constant) reverse iterator that points
 607:/home/zkmike/.local/share/renesas/e2_studio/toolchains/gcc_arm/gcc-arm-none-eabi-6-2017-q2-update/arm-none-eabi/include/c++/6.3.1/bits/stl_vector.h ****        *  to one before the first element in the %vector.  Iteration
 608:/home/zkmike/.local/share/renesas/e2_studio/toolchains/gcc_arm/gcc-arm-none-eabi-6-2017-q2-update/arm-none-eabi/include/c++/6.3.1/bits/stl_vector.h ****        *  is done in reverse element order.
 609:/home/zkmike/.local/share/renesas/e2_studio/toolchains/gcc_arm/gcc-arm-none-eabi-6-2017-q2-update/arm-none-eabi/include/c++/6.3.1/bits/stl_vector.h ****        */
 610:/home/zkmike/.local/share/renesas/e2_studio/toolchains/gcc_arm/gcc-arm-none-eabi-6-2017-q2-update/arm-none-eabi/include/c++/6.3.1/bits/stl_vector.h ****       const_reverse_iterator
 611:/home/zkmike/.local/share/renesas/e2_studio/toolchains/gcc_arm/gcc-arm-none-eabi-6-2017-q2-update/arm-none-eabi/include/c++/6.3.1/bits/stl_vector.h ****       rend() const _GLIBCXX_NOEXCEPT
 612:/home/zkmike/.local/share/renesas/e2_studio/toolchains/gcc_arm/gcc-arm-none-eabi-6-2017-q2-update/arm-none-eabi/include/c++/6.3.1/bits/stl_vector.h ****       { return const_reverse_iterator(begin()); }
 613:/home/zkmike/.local/share/renesas/e2_studio/toolchains/gcc_arm/gcc-arm-none-eabi-6-2017-q2-update/arm-none-eabi/include/c++/6.3.1/bits/stl_vector.h **** 
 614:/home/zkmike/.local/share/renesas/e2_studio/toolchains/gcc_arm/gcc-arm-none-eabi-6-2017-q2-update/arm-none-eabi/include/c++/6.3.1/bits/stl_vector.h **** #if __cplusplus >= 201103L
 615:/home/zkmike/.local/share/renesas/e2_studio/toolchains/gcc_arm/gcc-arm-none-eabi-6-2017-q2-update/arm-none-eabi/include/c++/6.3.1/bits/stl_vector.h ****       /**
 616:/home/zkmike/.local/share/renesas/e2_studio/toolchains/gcc_arm/gcc-arm-none-eabi-6-2017-q2-update/arm-none-eabi/include/c++/6.3.1/bits/stl_vector.h ****        *  Returns a read-only (constant) iterator that points to the
 617:/home/zkmike/.local/share/renesas/e2_studio/toolchains/gcc_arm/gcc-arm-none-eabi-6-2017-q2-update/arm-none-eabi/include/c++/6.3.1/bits/stl_vector.h ****        *  first element in the %vector.  Iteration is done in ordinary
 618:/home/zkmike/.local/share/renesas/e2_studio/toolchains/gcc_arm/gcc-arm-none-eabi-6-2017-q2-update/arm-none-eabi/include/c++/6.3.1/bits/stl_vector.h ****        *  element order.
 619:/home/zkmike/.local/share/renesas/e2_studio/toolchains/gcc_arm/gcc-arm-none-eabi-6-2017-q2-update/arm-none-eabi/include/c++/6.3.1/bits/stl_vector.h ****        */
 620:/home/zkmike/.local/share/renesas/e2_studio/toolchains/gcc_arm/gcc-arm-none-eabi-6-2017-q2-update/arm-none-eabi/include/c++/6.3.1/bits/stl_vector.h ****       const_iterator
 621:/home/zkmike/.local/share/renesas/e2_studio/toolchains/gcc_arm/gcc-arm-none-eabi-6-2017-q2-update/arm-none-eabi/include/c++/6.3.1/bits/stl_vector.h ****       cbegin() const noexcept
 622:/home/zkmike/.local/share/renesas/e2_studio/toolchains/gcc_arm/gcc-arm-none-eabi-6-2017-q2-update/arm-none-eabi/include/c++/6.3.1/bits/stl_vector.h ****       { return const_iterator(this->_M_impl._M_start); }
 623:/home/zkmike/.local/share/renesas/e2_studio/toolchains/gcc_arm/gcc-arm-none-eabi-6-2017-q2-update/arm-none-eabi/include/c++/6.3.1/bits/stl_vector.h **** 
 624:/home/zkmike/.local/share/renesas/e2_studio/toolchains/gcc_arm/gcc-arm-none-eabi-6-2017-q2-update/arm-none-eabi/include/c++/6.3.1/bits/stl_vector.h ****       /**
 625:/home/zkmike/.local/share/renesas/e2_studio/toolchains/gcc_arm/gcc-arm-none-eabi-6-2017-q2-update/arm-none-eabi/include/c++/6.3.1/bits/stl_vector.h ****        *  Returns a read-only (constant) iterator that points one past
 626:/home/zkmike/.local/share/renesas/e2_studio/toolchains/gcc_arm/gcc-arm-none-eabi-6-2017-q2-update/arm-none-eabi/include/c++/6.3.1/bits/stl_vector.h ****        *  the last element in the %vector.  Iteration is done in
 627:/home/zkmike/.local/share/renesas/e2_studio/toolchains/gcc_arm/gcc-arm-none-eabi-6-2017-q2-update/arm-none-eabi/include/c++/6.3.1/bits/stl_vector.h ****        *  ordinary element order.
 628:/home/zkmike/.local/share/renesas/e2_studio/toolchains/gcc_arm/gcc-arm-none-eabi-6-2017-q2-update/arm-none-eabi/include/c++/6.3.1/bits/stl_vector.h ****        */
 629:/home/zkmike/.local/share/renesas/e2_studio/toolchains/gcc_arm/gcc-arm-none-eabi-6-2017-q2-update/arm-none-eabi/include/c++/6.3.1/bits/stl_vector.h ****       const_iterator
 630:/home/zkmike/.local/share/renesas/e2_studio/toolchains/gcc_arm/gcc-arm-none-eabi-6-2017-q2-update/arm-none-eabi/include/c++/6.3.1/bits/stl_vector.h ****       cend() const noexcept
 631:/home/zkmike/.local/share/renesas/e2_studio/toolchains/gcc_arm/gcc-arm-none-eabi-6-2017-q2-update/arm-none-eabi/include/c++/6.3.1/bits/stl_vector.h ****       { return const_iterator(this->_M_impl._M_finish); }
 632:/home/zkmike/.local/share/renesas/e2_studio/toolchains/gcc_arm/gcc-arm-none-eabi-6-2017-q2-update/arm-none-eabi/include/c++/6.3.1/bits/stl_vector.h **** 
 633:/home/zkmike/.local/share/renesas/e2_studio/toolchains/gcc_arm/gcc-arm-none-eabi-6-2017-q2-update/arm-none-eabi/include/c++/6.3.1/bits/stl_vector.h ****       /**
 634:/home/zkmike/.local/share/renesas/e2_studio/toolchains/gcc_arm/gcc-arm-none-eabi-6-2017-q2-update/arm-none-eabi/include/c++/6.3.1/bits/stl_vector.h ****        *  Returns a read-only (constant) reverse iterator that points
 635:/home/zkmike/.local/share/renesas/e2_studio/toolchains/gcc_arm/gcc-arm-none-eabi-6-2017-q2-update/arm-none-eabi/include/c++/6.3.1/bits/stl_vector.h ****        *  to the last element in the %vector.  Iteration is done in
 636:/home/zkmike/.local/share/renesas/e2_studio/toolchains/gcc_arm/gcc-arm-none-eabi-6-2017-q2-update/arm-none-eabi/include/c++/6.3.1/bits/stl_vector.h ****        *  reverse element order.
 637:/home/zkmike/.local/share/renesas/e2_studio/toolchains/gcc_arm/gcc-arm-none-eabi-6-2017-q2-update/arm-none-eabi/include/c++/6.3.1/bits/stl_vector.h ****        */
 638:/home/zkmike/.local/share/renesas/e2_studio/toolchains/gcc_arm/gcc-arm-none-eabi-6-2017-q2-update/arm-none-eabi/include/c++/6.3.1/bits/stl_vector.h ****       const_reverse_iterator
 639:/home/zkmike/.local/share/renesas/e2_studio/toolchains/gcc_arm/gcc-arm-none-eabi-6-2017-q2-update/arm-none-eabi/include/c++/6.3.1/bits/stl_vector.h ****       crbegin() const noexcept
 640:/home/zkmike/.local/share/renesas/e2_studio/toolchains/gcc_arm/gcc-arm-none-eabi-6-2017-q2-update/arm-none-eabi/include/c++/6.3.1/bits/stl_vector.h ****       { return const_reverse_iterator(end()); }
 641:/home/zkmike/.local/share/renesas/e2_studio/toolchains/gcc_arm/gcc-arm-none-eabi-6-2017-q2-update/arm-none-eabi/include/c++/6.3.1/bits/stl_vector.h **** 
 642:/home/zkmike/.local/share/renesas/e2_studio/toolchains/gcc_arm/gcc-arm-none-eabi-6-2017-q2-update/arm-none-eabi/include/c++/6.3.1/bits/stl_vector.h ****       /**
 643:/home/zkmike/.local/share/renesas/e2_studio/toolchains/gcc_arm/gcc-arm-none-eabi-6-2017-q2-update/arm-none-eabi/include/c++/6.3.1/bits/stl_vector.h ****        *  Returns a read-only (constant) reverse iterator that points
 644:/home/zkmike/.local/share/renesas/e2_studio/toolchains/gcc_arm/gcc-arm-none-eabi-6-2017-q2-update/arm-none-eabi/include/c++/6.3.1/bits/stl_vector.h ****        *  to one before the first element in the %vector.  Iteration
 645:/home/zkmike/.local/share/renesas/e2_studio/toolchains/gcc_arm/gcc-arm-none-eabi-6-2017-q2-update/arm-none-eabi/include/c++/6.3.1/bits/stl_vector.h ****        *  is done in reverse element order.
 646:/home/zkmike/.local/share/renesas/e2_studio/toolchains/gcc_arm/gcc-arm-none-eabi-6-2017-q2-update/arm-none-eabi/include/c++/6.3.1/bits/stl_vector.h ****        */
 647:/home/zkmike/.local/share/renesas/e2_studio/toolchains/gcc_arm/gcc-arm-none-eabi-6-2017-q2-update/arm-none-eabi/include/c++/6.3.1/bits/stl_vector.h ****       const_reverse_iterator
 648:/home/zkmike/.local/share/renesas/e2_studio/toolchains/gcc_arm/gcc-arm-none-eabi-6-2017-q2-update/arm-none-eabi/include/c++/6.3.1/bits/stl_vector.h ****       crend() const noexcept
 649:/home/zkmike/.local/share/renesas/e2_studio/toolchains/gcc_arm/gcc-arm-none-eabi-6-2017-q2-update/arm-none-eabi/include/c++/6.3.1/bits/stl_vector.h ****       { return const_reverse_iterator(begin()); }
 650:/home/zkmike/.local/share/renesas/e2_studio/toolchains/gcc_arm/gcc-arm-none-eabi-6-2017-q2-update/arm-none-eabi/include/c++/6.3.1/bits/stl_vector.h **** #endif
 651:/home/zkmike/.local/share/renesas/e2_studio/toolchains/gcc_arm/gcc-arm-none-eabi-6-2017-q2-update/arm-none-eabi/include/c++/6.3.1/bits/stl_vector.h **** 
 652:/home/zkmike/.local/share/renesas/e2_studio/toolchains/gcc_arm/gcc-arm-none-eabi-6-2017-q2-update/arm-none-eabi/include/c++/6.3.1/bits/stl_vector.h ****       // [23.2.4.2] capacity
 653:/home/zkmike/.local/share/renesas/e2_studio/toolchains/gcc_arm/gcc-arm-none-eabi-6-2017-q2-update/arm-none-eabi/include/c++/6.3.1/bits/stl_vector.h ****       /**  Returns the number of elements in the %vector.  */
 654:/home/zkmike/.local/share/renesas/e2_studio/toolchains/gcc_arm/gcc-arm-none-eabi-6-2017-q2-update/arm-none-eabi/include/c++/6.3.1/bits/stl_vector.h ****       size_type
 655:/home/zkmike/.local/share/renesas/e2_studio/toolchains/gcc_arm/gcc-arm-none-eabi-6-2017-q2-update/arm-none-eabi/include/c++/6.3.1/bits/stl_vector.h ****       size() const _GLIBCXX_NOEXCEPT
 656:/home/zkmike/.local/share/renesas/e2_studio/toolchains/gcc_arm/gcc-arm-none-eabi-6-2017-q2-update/arm-none-eabi/include/c++/6.3.1/bits/stl_vector.h ****       { return size_type(this->_M_impl._M_finish - this->_M_impl._M_start); }
 657:/home/zkmike/.local/share/renesas/e2_studio/toolchains/gcc_arm/gcc-arm-none-eabi-6-2017-q2-update/arm-none-eabi/include/c++/6.3.1/bits/stl_vector.h **** 
 658:/home/zkmike/.local/share/renesas/e2_studio/toolchains/gcc_arm/gcc-arm-none-eabi-6-2017-q2-update/arm-none-eabi/include/c++/6.3.1/bits/stl_vector.h ****       /**  Returns the size() of the largest possible %vector.  */
 659:/home/zkmike/.local/share/renesas/e2_studio/toolchains/gcc_arm/gcc-arm-none-eabi-6-2017-q2-update/arm-none-eabi/include/c++/6.3.1/bits/stl_vector.h ****       size_type
 660:/home/zkmike/.local/share/renesas/e2_studio/toolchains/gcc_arm/gcc-arm-none-eabi-6-2017-q2-update/arm-none-eabi/include/c++/6.3.1/bits/stl_vector.h ****       max_size() const _GLIBCXX_NOEXCEPT
 661:/home/zkmike/.local/share/renesas/e2_studio/toolchains/gcc_arm/gcc-arm-none-eabi-6-2017-q2-update/arm-none-eabi/include/c++/6.3.1/bits/stl_vector.h ****       { return _Alloc_traits::max_size(_M_get_Tp_allocator()); }
 662:/home/zkmike/.local/share/renesas/e2_studio/toolchains/gcc_arm/gcc-arm-none-eabi-6-2017-q2-update/arm-none-eabi/include/c++/6.3.1/bits/stl_vector.h **** 
 663:/home/zkmike/.local/share/renesas/e2_studio/toolchains/gcc_arm/gcc-arm-none-eabi-6-2017-q2-update/arm-none-eabi/include/c++/6.3.1/bits/stl_vector.h **** #if __cplusplus >= 201103L
 664:/home/zkmike/.local/share/renesas/e2_studio/toolchains/gcc_arm/gcc-arm-none-eabi-6-2017-q2-update/arm-none-eabi/include/c++/6.3.1/bits/stl_vector.h ****       /**
 665:/home/zkmike/.local/share/renesas/e2_studio/toolchains/gcc_arm/gcc-arm-none-eabi-6-2017-q2-update/arm-none-eabi/include/c++/6.3.1/bits/stl_vector.h ****        *  @brief  Resizes the %vector to the specified number of elements.
 666:/home/zkmike/.local/share/renesas/e2_studio/toolchains/gcc_arm/gcc-arm-none-eabi-6-2017-q2-update/arm-none-eabi/include/c++/6.3.1/bits/stl_vector.h ****        *  @param  __new_size  Number of elements the %vector should contain.
 667:/home/zkmike/.local/share/renesas/e2_studio/toolchains/gcc_arm/gcc-arm-none-eabi-6-2017-q2-update/arm-none-eabi/include/c++/6.3.1/bits/stl_vector.h ****        *
 668:/home/zkmike/.local/share/renesas/e2_studio/toolchains/gcc_arm/gcc-arm-none-eabi-6-2017-q2-update/arm-none-eabi/include/c++/6.3.1/bits/stl_vector.h ****        *  This function will %resize the %vector to the specified
 669:/home/zkmike/.local/share/renesas/e2_studio/toolchains/gcc_arm/gcc-arm-none-eabi-6-2017-q2-update/arm-none-eabi/include/c++/6.3.1/bits/stl_vector.h ****        *  number of elements.  If the number is smaller than the
 670:/home/zkmike/.local/share/renesas/e2_studio/toolchains/gcc_arm/gcc-arm-none-eabi-6-2017-q2-update/arm-none-eabi/include/c++/6.3.1/bits/stl_vector.h ****        *  %vector's current size the %vector is truncated, otherwise
 671:/home/zkmike/.local/share/renesas/e2_studio/toolchains/gcc_arm/gcc-arm-none-eabi-6-2017-q2-update/arm-none-eabi/include/c++/6.3.1/bits/stl_vector.h ****        *  default constructed elements are appended.
 672:/home/zkmike/.local/share/renesas/e2_studio/toolchains/gcc_arm/gcc-arm-none-eabi-6-2017-q2-update/arm-none-eabi/include/c++/6.3.1/bits/stl_vector.h ****        */
 673:/home/zkmike/.local/share/renesas/e2_studio/toolchains/gcc_arm/gcc-arm-none-eabi-6-2017-q2-update/arm-none-eabi/include/c++/6.3.1/bits/stl_vector.h ****       void
 674:/home/zkmike/.local/share/renesas/e2_studio/toolchains/gcc_arm/gcc-arm-none-eabi-6-2017-q2-update/arm-none-eabi/include/c++/6.3.1/bits/stl_vector.h ****       resize(size_type __new_size)
 675:/home/zkmike/.local/share/renesas/e2_studio/toolchains/gcc_arm/gcc-arm-none-eabi-6-2017-q2-update/arm-none-eabi/include/c++/6.3.1/bits/stl_vector.h ****       {
 676:/home/zkmike/.local/share/renesas/e2_studio/toolchains/gcc_arm/gcc-arm-none-eabi-6-2017-q2-update/arm-none-eabi/include/c++/6.3.1/bits/stl_vector.h **** 	if (__new_size > size())
 677:/home/zkmike/.local/share/renesas/e2_studio/toolchains/gcc_arm/gcc-arm-none-eabi-6-2017-q2-update/arm-none-eabi/include/c++/6.3.1/bits/stl_vector.h **** 	  _M_default_append(__new_size - size());
 678:/home/zkmike/.local/share/renesas/e2_studio/toolchains/gcc_arm/gcc-arm-none-eabi-6-2017-q2-update/arm-none-eabi/include/c++/6.3.1/bits/stl_vector.h **** 	else if (__new_size < size())
 679:/home/zkmike/.local/share/renesas/e2_studio/toolchains/gcc_arm/gcc-arm-none-eabi-6-2017-q2-update/arm-none-eabi/include/c++/6.3.1/bits/stl_vector.h **** 	  _M_erase_at_end(this->_M_impl._M_start + __new_size);
 680:/home/zkmike/.local/share/renesas/e2_studio/toolchains/gcc_arm/gcc-arm-none-eabi-6-2017-q2-update/arm-none-eabi/include/c++/6.3.1/bits/stl_vector.h ****       }
 681:/home/zkmike/.local/share/renesas/e2_studio/toolchains/gcc_arm/gcc-arm-none-eabi-6-2017-q2-update/arm-none-eabi/include/c++/6.3.1/bits/stl_vector.h **** 
 682:/home/zkmike/.local/share/renesas/e2_studio/toolchains/gcc_arm/gcc-arm-none-eabi-6-2017-q2-update/arm-none-eabi/include/c++/6.3.1/bits/stl_vector.h ****       /**
 683:/home/zkmike/.local/share/renesas/e2_studio/toolchains/gcc_arm/gcc-arm-none-eabi-6-2017-q2-update/arm-none-eabi/include/c++/6.3.1/bits/stl_vector.h ****        *  @brief  Resizes the %vector to the specified number of elements.
 684:/home/zkmike/.local/share/renesas/e2_studio/toolchains/gcc_arm/gcc-arm-none-eabi-6-2017-q2-update/arm-none-eabi/include/c++/6.3.1/bits/stl_vector.h ****        *  @param  __new_size  Number of elements the %vector should contain.
 685:/home/zkmike/.local/share/renesas/e2_studio/toolchains/gcc_arm/gcc-arm-none-eabi-6-2017-q2-update/arm-none-eabi/include/c++/6.3.1/bits/stl_vector.h ****        *  @param  __x  Data with which new elements should be populated.
 686:/home/zkmike/.local/share/renesas/e2_studio/toolchains/gcc_arm/gcc-arm-none-eabi-6-2017-q2-update/arm-none-eabi/include/c++/6.3.1/bits/stl_vector.h ****        *
 687:/home/zkmike/.local/share/renesas/e2_studio/toolchains/gcc_arm/gcc-arm-none-eabi-6-2017-q2-update/arm-none-eabi/include/c++/6.3.1/bits/stl_vector.h ****        *  This function will %resize the %vector to the specified
 688:/home/zkmike/.local/share/renesas/e2_studio/toolchains/gcc_arm/gcc-arm-none-eabi-6-2017-q2-update/arm-none-eabi/include/c++/6.3.1/bits/stl_vector.h ****        *  number of elements.  If the number is smaller than the
 689:/home/zkmike/.local/share/renesas/e2_studio/toolchains/gcc_arm/gcc-arm-none-eabi-6-2017-q2-update/arm-none-eabi/include/c++/6.3.1/bits/stl_vector.h ****        *  %vector's current size the %vector is truncated, otherwise
 690:/home/zkmike/.local/share/renesas/e2_studio/toolchains/gcc_arm/gcc-arm-none-eabi-6-2017-q2-update/arm-none-eabi/include/c++/6.3.1/bits/stl_vector.h ****        *  the %vector is extended and new elements are populated with
 691:/home/zkmike/.local/share/renesas/e2_studio/toolchains/gcc_arm/gcc-arm-none-eabi-6-2017-q2-update/arm-none-eabi/include/c++/6.3.1/bits/stl_vector.h ****        *  given data.
 692:/home/zkmike/.local/share/renesas/e2_studio/toolchains/gcc_arm/gcc-arm-none-eabi-6-2017-q2-update/arm-none-eabi/include/c++/6.3.1/bits/stl_vector.h ****        */
 693:/home/zkmike/.local/share/renesas/e2_studio/toolchains/gcc_arm/gcc-arm-none-eabi-6-2017-q2-update/arm-none-eabi/include/c++/6.3.1/bits/stl_vector.h ****       void
 694:/home/zkmike/.local/share/renesas/e2_studio/toolchains/gcc_arm/gcc-arm-none-eabi-6-2017-q2-update/arm-none-eabi/include/c++/6.3.1/bits/stl_vector.h ****       resize(size_type __new_size, const value_type& __x)
 695:/home/zkmike/.local/share/renesas/e2_studio/toolchains/gcc_arm/gcc-arm-none-eabi-6-2017-q2-update/arm-none-eabi/include/c++/6.3.1/bits/stl_vector.h ****       {
 696:/home/zkmike/.local/share/renesas/e2_studio/toolchains/gcc_arm/gcc-arm-none-eabi-6-2017-q2-update/arm-none-eabi/include/c++/6.3.1/bits/stl_vector.h **** 	if (__new_size > size())
 697:/home/zkmike/.local/share/renesas/e2_studio/toolchains/gcc_arm/gcc-arm-none-eabi-6-2017-q2-update/arm-none-eabi/include/c++/6.3.1/bits/stl_vector.h **** 	  insert(end(), __new_size - size(), __x);
 698:/home/zkmike/.local/share/renesas/e2_studio/toolchains/gcc_arm/gcc-arm-none-eabi-6-2017-q2-update/arm-none-eabi/include/c++/6.3.1/bits/stl_vector.h **** 	else if (__new_size < size())
 699:/home/zkmike/.local/share/renesas/e2_studio/toolchains/gcc_arm/gcc-arm-none-eabi-6-2017-q2-update/arm-none-eabi/include/c++/6.3.1/bits/stl_vector.h **** 	  _M_erase_at_end(this->_M_impl._M_start + __new_size);
 700:/home/zkmike/.local/share/renesas/e2_studio/toolchains/gcc_arm/gcc-arm-none-eabi-6-2017-q2-update/arm-none-eabi/include/c++/6.3.1/bits/stl_vector.h ****       }
 701:/home/zkmike/.local/share/renesas/e2_studio/toolchains/gcc_arm/gcc-arm-none-eabi-6-2017-q2-update/arm-none-eabi/include/c++/6.3.1/bits/stl_vector.h **** #else
 702:/home/zkmike/.local/share/renesas/e2_studio/toolchains/gcc_arm/gcc-arm-none-eabi-6-2017-q2-update/arm-none-eabi/include/c++/6.3.1/bits/stl_vector.h ****       /**
 703:/home/zkmike/.local/share/renesas/e2_studio/toolchains/gcc_arm/gcc-arm-none-eabi-6-2017-q2-update/arm-none-eabi/include/c++/6.3.1/bits/stl_vector.h ****        *  @brief  Resizes the %vector to the specified number of elements.
 704:/home/zkmike/.local/share/renesas/e2_studio/toolchains/gcc_arm/gcc-arm-none-eabi-6-2017-q2-update/arm-none-eabi/include/c++/6.3.1/bits/stl_vector.h ****        *  @param  __new_size  Number of elements the %vector should contain.
 705:/home/zkmike/.local/share/renesas/e2_studio/toolchains/gcc_arm/gcc-arm-none-eabi-6-2017-q2-update/arm-none-eabi/include/c++/6.3.1/bits/stl_vector.h ****        *  @param  __x  Data with which new elements should be populated.
 706:/home/zkmike/.local/share/renesas/e2_studio/toolchains/gcc_arm/gcc-arm-none-eabi-6-2017-q2-update/arm-none-eabi/include/c++/6.3.1/bits/stl_vector.h ****        *
 707:/home/zkmike/.local/share/renesas/e2_studio/toolchains/gcc_arm/gcc-arm-none-eabi-6-2017-q2-update/arm-none-eabi/include/c++/6.3.1/bits/stl_vector.h ****        *  This function will %resize the %vector to the specified
 708:/home/zkmike/.local/share/renesas/e2_studio/toolchains/gcc_arm/gcc-arm-none-eabi-6-2017-q2-update/arm-none-eabi/include/c++/6.3.1/bits/stl_vector.h ****        *  number of elements.  If the number is smaller than the
 709:/home/zkmike/.local/share/renesas/e2_studio/toolchains/gcc_arm/gcc-arm-none-eabi-6-2017-q2-update/arm-none-eabi/include/c++/6.3.1/bits/stl_vector.h ****        *  %vector's current size the %vector is truncated, otherwise
 710:/home/zkmike/.local/share/renesas/e2_studio/toolchains/gcc_arm/gcc-arm-none-eabi-6-2017-q2-update/arm-none-eabi/include/c++/6.3.1/bits/stl_vector.h ****        *  the %vector is extended and new elements are populated with
 711:/home/zkmike/.local/share/renesas/e2_studio/toolchains/gcc_arm/gcc-arm-none-eabi-6-2017-q2-update/arm-none-eabi/include/c++/6.3.1/bits/stl_vector.h ****        *  given data.
 712:/home/zkmike/.local/share/renesas/e2_studio/toolchains/gcc_arm/gcc-arm-none-eabi-6-2017-q2-update/arm-none-eabi/include/c++/6.3.1/bits/stl_vector.h ****        */
 713:/home/zkmike/.local/share/renesas/e2_studio/toolchains/gcc_arm/gcc-arm-none-eabi-6-2017-q2-update/arm-none-eabi/include/c++/6.3.1/bits/stl_vector.h ****       void
 714:/home/zkmike/.local/share/renesas/e2_studio/toolchains/gcc_arm/gcc-arm-none-eabi-6-2017-q2-update/arm-none-eabi/include/c++/6.3.1/bits/stl_vector.h ****       resize(size_type __new_size, value_type __x = value_type())
 715:/home/zkmike/.local/share/renesas/e2_studio/toolchains/gcc_arm/gcc-arm-none-eabi-6-2017-q2-update/arm-none-eabi/include/c++/6.3.1/bits/stl_vector.h ****       {
 716:/home/zkmike/.local/share/renesas/e2_studio/toolchains/gcc_arm/gcc-arm-none-eabi-6-2017-q2-update/arm-none-eabi/include/c++/6.3.1/bits/stl_vector.h **** 	if (__new_size > size())
 717:/home/zkmike/.local/share/renesas/e2_studio/toolchains/gcc_arm/gcc-arm-none-eabi-6-2017-q2-update/arm-none-eabi/include/c++/6.3.1/bits/stl_vector.h **** 	  insert(end(), __new_size - size(), __x);
 718:/home/zkmike/.local/share/renesas/e2_studio/toolchains/gcc_arm/gcc-arm-none-eabi-6-2017-q2-update/arm-none-eabi/include/c++/6.3.1/bits/stl_vector.h **** 	else if (__new_size < size())
 719:/home/zkmike/.local/share/renesas/e2_studio/toolchains/gcc_arm/gcc-arm-none-eabi-6-2017-q2-update/arm-none-eabi/include/c++/6.3.1/bits/stl_vector.h **** 	  _M_erase_at_end(this->_M_impl._M_start + __new_size);
 720:/home/zkmike/.local/share/renesas/e2_studio/toolchains/gcc_arm/gcc-arm-none-eabi-6-2017-q2-update/arm-none-eabi/include/c++/6.3.1/bits/stl_vector.h ****       }
 721:/home/zkmike/.local/share/renesas/e2_studio/toolchains/gcc_arm/gcc-arm-none-eabi-6-2017-q2-update/arm-none-eabi/include/c++/6.3.1/bits/stl_vector.h **** #endif
 722:/home/zkmike/.local/share/renesas/e2_studio/toolchains/gcc_arm/gcc-arm-none-eabi-6-2017-q2-update/arm-none-eabi/include/c++/6.3.1/bits/stl_vector.h **** 
 723:/home/zkmike/.local/share/renesas/e2_studio/toolchains/gcc_arm/gcc-arm-none-eabi-6-2017-q2-update/arm-none-eabi/include/c++/6.3.1/bits/stl_vector.h **** #if __cplusplus >= 201103L
 724:/home/zkmike/.local/share/renesas/e2_studio/toolchains/gcc_arm/gcc-arm-none-eabi-6-2017-q2-update/arm-none-eabi/include/c++/6.3.1/bits/stl_vector.h ****       /**  A non-binding request to reduce capacity() to size().  */
 725:/home/zkmike/.local/share/renesas/e2_studio/toolchains/gcc_arm/gcc-arm-none-eabi-6-2017-q2-update/arm-none-eabi/include/c++/6.3.1/bits/stl_vector.h ****       void
 726:/home/zkmike/.local/share/renesas/e2_studio/toolchains/gcc_arm/gcc-arm-none-eabi-6-2017-q2-update/arm-none-eabi/include/c++/6.3.1/bits/stl_vector.h ****       shrink_to_fit()
 727:/home/zkmike/.local/share/renesas/e2_studio/toolchains/gcc_arm/gcc-arm-none-eabi-6-2017-q2-update/arm-none-eabi/include/c++/6.3.1/bits/stl_vector.h ****       { _M_shrink_to_fit(); }
 728:/home/zkmike/.local/share/renesas/e2_studio/toolchains/gcc_arm/gcc-arm-none-eabi-6-2017-q2-update/arm-none-eabi/include/c++/6.3.1/bits/stl_vector.h **** #endif
 729:/home/zkmike/.local/share/renesas/e2_studio/toolchains/gcc_arm/gcc-arm-none-eabi-6-2017-q2-update/arm-none-eabi/include/c++/6.3.1/bits/stl_vector.h **** 
 730:/home/zkmike/.local/share/renesas/e2_studio/toolchains/gcc_arm/gcc-arm-none-eabi-6-2017-q2-update/arm-none-eabi/include/c++/6.3.1/bits/stl_vector.h ****       /**
 731:/home/zkmike/.local/share/renesas/e2_studio/toolchains/gcc_arm/gcc-arm-none-eabi-6-2017-q2-update/arm-none-eabi/include/c++/6.3.1/bits/stl_vector.h ****        *  Returns the total number of elements that the %vector can
 732:/home/zkmike/.local/share/renesas/e2_studio/toolchains/gcc_arm/gcc-arm-none-eabi-6-2017-q2-update/arm-none-eabi/include/c++/6.3.1/bits/stl_vector.h ****        *  hold before needing to allocate more memory.
 733:/home/zkmike/.local/share/renesas/e2_studio/toolchains/gcc_arm/gcc-arm-none-eabi-6-2017-q2-update/arm-none-eabi/include/c++/6.3.1/bits/stl_vector.h ****        */
 734:/home/zkmike/.local/share/renesas/e2_studio/toolchains/gcc_arm/gcc-arm-none-eabi-6-2017-q2-update/arm-none-eabi/include/c++/6.3.1/bits/stl_vector.h ****       size_type
 735:/home/zkmike/.local/share/renesas/e2_studio/toolchains/gcc_arm/gcc-arm-none-eabi-6-2017-q2-update/arm-none-eabi/include/c++/6.3.1/bits/stl_vector.h ****       capacity() const _GLIBCXX_NOEXCEPT
 736:/home/zkmike/.local/share/renesas/e2_studio/toolchains/gcc_arm/gcc-arm-none-eabi-6-2017-q2-update/arm-none-eabi/include/c++/6.3.1/bits/stl_vector.h ****       { return size_type(this->_M_impl._M_end_of_storage
 737:/home/zkmike/.local/share/renesas/e2_studio/toolchains/gcc_arm/gcc-arm-none-eabi-6-2017-q2-update/arm-none-eabi/include/c++/6.3.1/bits/stl_vector.h **** 			 - this->_M_impl._M_start); }
 738:/home/zkmike/.local/share/renesas/e2_studio/toolchains/gcc_arm/gcc-arm-none-eabi-6-2017-q2-update/arm-none-eabi/include/c++/6.3.1/bits/stl_vector.h **** 
 739:/home/zkmike/.local/share/renesas/e2_studio/toolchains/gcc_arm/gcc-arm-none-eabi-6-2017-q2-update/arm-none-eabi/include/c++/6.3.1/bits/stl_vector.h ****       /**
 740:/home/zkmike/.local/share/renesas/e2_studio/toolchains/gcc_arm/gcc-arm-none-eabi-6-2017-q2-update/arm-none-eabi/include/c++/6.3.1/bits/stl_vector.h ****        *  Returns true if the %vector is empty.  (Thus begin() would
 741:/home/zkmike/.local/share/renesas/e2_studio/toolchains/gcc_arm/gcc-arm-none-eabi-6-2017-q2-update/arm-none-eabi/include/c++/6.3.1/bits/stl_vector.h ****        *  equal end().)
 742:/home/zkmike/.local/share/renesas/e2_studio/toolchains/gcc_arm/gcc-arm-none-eabi-6-2017-q2-update/arm-none-eabi/include/c++/6.3.1/bits/stl_vector.h ****        */
 743:/home/zkmike/.local/share/renesas/e2_studio/toolchains/gcc_arm/gcc-arm-none-eabi-6-2017-q2-update/arm-none-eabi/include/c++/6.3.1/bits/stl_vector.h ****       bool
 744:/home/zkmike/.local/share/renesas/e2_studio/toolchains/gcc_arm/gcc-arm-none-eabi-6-2017-q2-update/arm-none-eabi/include/c++/6.3.1/bits/stl_vector.h ****       empty() const _GLIBCXX_NOEXCEPT
 745:/home/zkmike/.local/share/renesas/e2_studio/toolchains/gcc_arm/gcc-arm-none-eabi-6-2017-q2-update/arm-none-eabi/include/c++/6.3.1/bits/stl_vector.h ****       { return begin() == end(); }
 746:/home/zkmike/.local/share/renesas/e2_studio/toolchains/gcc_arm/gcc-arm-none-eabi-6-2017-q2-update/arm-none-eabi/include/c++/6.3.1/bits/stl_vector.h **** 
 747:/home/zkmike/.local/share/renesas/e2_studio/toolchains/gcc_arm/gcc-arm-none-eabi-6-2017-q2-update/arm-none-eabi/include/c++/6.3.1/bits/stl_vector.h ****       /**
 748:/home/zkmike/.local/share/renesas/e2_studio/toolchains/gcc_arm/gcc-arm-none-eabi-6-2017-q2-update/arm-none-eabi/include/c++/6.3.1/bits/stl_vector.h ****        *  @brief  Attempt to preallocate enough memory for specified number of
 749:/home/zkmike/.local/share/renesas/e2_studio/toolchains/gcc_arm/gcc-arm-none-eabi-6-2017-q2-update/arm-none-eabi/include/c++/6.3.1/bits/stl_vector.h ****        *          elements.
 750:/home/zkmike/.local/share/renesas/e2_studio/toolchains/gcc_arm/gcc-arm-none-eabi-6-2017-q2-update/arm-none-eabi/include/c++/6.3.1/bits/stl_vector.h ****        *  @param  __n  Number of elements required.
 751:/home/zkmike/.local/share/renesas/e2_studio/toolchains/gcc_arm/gcc-arm-none-eabi-6-2017-q2-update/arm-none-eabi/include/c++/6.3.1/bits/stl_vector.h ****        *  @throw  std::length_error  If @a n exceeds @c max_size().
 752:/home/zkmike/.local/share/renesas/e2_studio/toolchains/gcc_arm/gcc-arm-none-eabi-6-2017-q2-update/arm-none-eabi/include/c++/6.3.1/bits/stl_vector.h ****        *
 753:/home/zkmike/.local/share/renesas/e2_studio/toolchains/gcc_arm/gcc-arm-none-eabi-6-2017-q2-update/arm-none-eabi/include/c++/6.3.1/bits/stl_vector.h ****        *  This function attempts to reserve enough memory for the
 754:/home/zkmike/.local/share/renesas/e2_studio/toolchains/gcc_arm/gcc-arm-none-eabi-6-2017-q2-update/arm-none-eabi/include/c++/6.3.1/bits/stl_vector.h ****        *  %vector to hold the specified number of elements.  If the
 755:/home/zkmike/.local/share/renesas/e2_studio/toolchains/gcc_arm/gcc-arm-none-eabi-6-2017-q2-update/arm-none-eabi/include/c++/6.3.1/bits/stl_vector.h ****        *  number requested is more than max_size(), length_error is
 756:/home/zkmike/.local/share/renesas/e2_studio/toolchains/gcc_arm/gcc-arm-none-eabi-6-2017-q2-update/arm-none-eabi/include/c++/6.3.1/bits/stl_vector.h ****        *  thrown.
 757:/home/zkmike/.local/share/renesas/e2_studio/toolchains/gcc_arm/gcc-arm-none-eabi-6-2017-q2-update/arm-none-eabi/include/c++/6.3.1/bits/stl_vector.h ****        *
 758:/home/zkmike/.local/share/renesas/e2_studio/toolchains/gcc_arm/gcc-arm-none-eabi-6-2017-q2-update/arm-none-eabi/include/c++/6.3.1/bits/stl_vector.h ****        *  The advantage of this function is that if optimal code is a
 759:/home/zkmike/.local/share/renesas/e2_studio/toolchains/gcc_arm/gcc-arm-none-eabi-6-2017-q2-update/arm-none-eabi/include/c++/6.3.1/bits/stl_vector.h ****        *  necessity and the user can determine the number of elements
 760:/home/zkmike/.local/share/renesas/e2_studio/toolchains/gcc_arm/gcc-arm-none-eabi-6-2017-q2-update/arm-none-eabi/include/c++/6.3.1/bits/stl_vector.h ****        *  that will be required, the user can reserve the memory in
 761:/home/zkmike/.local/share/renesas/e2_studio/toolchains/gcc_arm/gcc-arm-none-eabi-6-2017-q2-update/arm-none-eabi/include/c++/6.3.1/bits/stl_vector.h ****        *  %advance, and thus prevent a possible reallocation of memory
 762:/home/zkmike/.local/share/renesas/e2_studio/toolchains/gcc_arm/gcc-arm-none-eabi-6-2017-q2-update/arm-none-eabi/include/c++/6.3.1/bits/stl_vector.h ****        *  and copying of %vector data.
 763:/home/zkmike/.local/share/renesas/e2_studio/toolchains/gcc_arm/gcc-arm-none-eabi-6-2017-q2-update/arm-none-eabi/include/c++/6.3.1/bits/stl_vector.h ****        */
 764:/home/zkmike/.local/share/renesas/e2_studio/toolchains/gcc_arm/gcc-arm-none-eabi-6-2017-q2-update/arm-none-eabi/include/c++/6.3.1/bits/stl_vector.h ****       void
 765:/home/zkmike/.local/share/renesas/e2_studio/toolchains/gcc_arm/gcc-arm-none-eabi-6-2017-q2-update/arm-none-eabi/include/c++/6.3.1/bits/stl_vector.h ****       reserve(size_type __n);
 766:/home/zkmike/.local/share/renesas/e2_studio/toolchains/gcc_arm/gcc-arm-none-eabi-6-2017-q2-update/arm-none-eabi/include/c++/6.3.1/bits/stl_vector.h **** 
 767:/home/zkmike/.local/share/renesas/e2_studio/toolchains/gcc_arm/gcc-arm-none-eabi-6-2017-q2-update/arm-none-eabi/include/c++/6.3.1/bits/stl_vector.h ****       // element access
 768:/home/zkmike/.local/share/renesas/e2_studio/toolchains/gcc_arm/gcc-arm-none-eabi-6-2017-q2-update/arm-none-eabi/include/c++/6.3.1/bits/stl_vector.h ****       /**
 769:/home/zkmike/.local/share/renesas/e2_studio/toolchains/gcc_arm/gcc-arm-none-eabi-6-2017-q2-update/arm-none-eabi/include/c++/6.3.1/bits/stl_vector.h ****        *  @brief  Subscript access to the data contained in the %vector.
 770:/home/zkmike/.local/share/renesas/e2_studio/toolchains/gcc_arm/gcc-arm-none-eabi-6-2017-q2-update/arm-none-eabi/include/c++/6.3.1/bits/stl_vector.h ****        *  @param __n The index of the element for which data should be
 771:/home/zkmike/.local/share/renesas/e2_studio/toolchains/gcc_arm/gcc-arm-none-eabi-6-2017-q2-update/arm-none-eabi/include/c++/6.3.1/bits/stl_vector.h ****        *  accessed.
 772:/home/zkmike/.local/share/renesas/e2_studio/toolchains/gcc_arm/gcc-arm-none-eabi-6-2017-q2-update/arm-none-eabi/include/c++/6.3.1/bits/stl_vector.h ****        *  @return  Read/write reference to data.
 773:/home/zkmike/.local/share/renesas/e2_studio/toolchains/gcc_arm/gcc-arm-none-eabi-6-2017-q2-update/arm-none-eabi/include/c++/6.3.1/bits/stl_vector.h ****        *
 774:/home/zkmike/.local/share/renesas/e2_studio/toolchains/gcc_arm/gcc-arm-none-eabi-6-2017-q2-update/arm-none-eabi/include/c++/6.3.1/bits/stl_vector.h ****        *  This operator allows for easy, array-style, data access.
 775:/home/zkmike/.local/share/renesas/e2_studio/toolchains/gcc_arm/gcc-arm-none-eabi-6-2017-q2-update/arm-none-eabi/include/c++/6.3.1/bits/stl_vector.h ****        *  Note that data access with this operator is unchecked and
 776:/home/zkmike/.local/share/renesas/e2_studio/toolchains/gcc_arm/gcc-arm-none-eabi-6-2017-q2-update/arm-none-eabi/include/c++/6.3.1/bits/stl_vector.h ****        *  out_of_range lookups are not defined. (For checked lookups
 777:/home/zkmike/.local/share/renesas/e2_studio/toolchains/gcc_arm/gcc-arm-none-eabi-6-2017-q2-update/arm-none-eabi/include/c++/6.3.1/bits/stl_vector.h ****        *  see at().)
 778:/home/zkmike/.local/share/renesas/e2_studio/toolchains/gcc_arm/gcc-arm-none-eabi-6-2017-q2-update/arm-none-eabi/include/c++/6.3.1/bits/stl_vector.h ****        */
 779:/home/zkmike/.local/share/renesas/e2_studio/toolchains/gcc_arm/gcc-arm-none-eabi-6-2017-q2-update/arm-none-eabi/include/c++/6.3.1/bits/stl_vector.h ****       reference
 780:/home/zkmike/.local/share/renesas/e2_studio/toolchains/gcc_arm/gcc-arm-none-eabi-6-2017-q2-update/arm-none-eabi/include/c++/6.3.1/bits/stl_vector.h ****       operator[](size_type __n) _GLIBCXX_NOEXCEPT
 781:/home/zkmike/.local/share/renesas/e2_studio/toolchains/gcc_arm/gcc-arm-none-eabi-6-2017-q2-update/arm-none-eabi/include/c++/6.3.1/bits/stl_vector.h ****       { return *(this->_M_impl._M_start + __n); }
  87              		.loc 3 781 0 discriminator 2
  88 001c 003093E5 		ldr	r3, [r3]
  89              	.LVL6:
  90              	.LBE751:
  91              	.LBE750:
  92              		.loc 2 135 0 discriminator 2
  93 0020 0020A0E3 		mov	r2, #0
  94 0024 052083E7 		str	r2, [r3, r5]
 133:../src/zxing_lib/zxing/qrcode/detector/AlignmentPatternFinder.cpp ****     (*possibleCenters_)[i]->release();
  95              		.loc 2 133 0 discriminator 2
  96 0028 014084E2 		add	r4, r4, #1
  97              	.LVL7:
  98              	.L6:
 133:../src/zxing_lib/zxing/qrcode/detector/AlignmentPatternFinder.cpp ****     (*possibleCenters_)[i]->release();
  99              		.loc 2 133 0 is_stmt 0 discriminator 3
 100 002c 0C5096E5 		ldr	r5, [r6, #12]
 101              	.LVL8:
 102              	.LBB752:
 103              	.LBB753:
 656:/home/zkmike/.local/share/renesas/e2_studio/toolchains/gcc_arm/gcc-arm-none-eabi-6-2017-q2-update/arm-none-eabi/include/c++/6.3.1/bits/stl_vector.h **** 
 104              		.loc 3 656 0 is_stmt 1 discriminator 3
 105 0030 043095E5 		ldr	r3, [r5, #4]
 106 0034 000095E5 		ldr	r0, [r5]
 107 0038 003043E0 		sub	r3, r3, r0
 108              	.LVL9:
 109              	.LBE753:
 110              	.LBE752:
 133:../src/zxing_lib/zxing/qrcode/detector/AlignmentPatternFinder.cpp ****     (*possibleCenters_)[i]->release();
 111              		.loc 2 133 0 discriminator 3
 112 003c 430154E1 		cmp	r4, r3, asr #2
 113 0040 0D0000AA 		bge	.L4
 114              	.LVL10:
 115              	.LBB754:
 116              	.LBB755:
 117              		.loc 3 781 0 discriminator 2
 118 0044 0451A0E1 		lsl	r5, r4, #2
 119              	.LVL11:
 120              	.LBE755:
 121              	.LBE754:
 134:../src/zxing_lib/zxing/qrcode/detector/AlignmentPatternFinder.cpp ****     (*possibleCenters_)[i] = 0;
 122              		.loc 2 134 0 discriminator 2
 123 0048 040190E7 		ldr	r0, [r0, r4, lsl #2]
 124              	.LVL12:
 125              	.LBB756:
 126              	.LBB757:
 127              		.file 4 "/home/zkmike/workspace/RZA2M/rza2m_2d_barcode_sample_freertos_gcc/src/zxing_lib/zxing/com
   1:/home/zkmike/workspace/RZA2M/rza2m_2d_barcode_sample_freertos_gcc/src/zxing_lib/zxing/common/Counted.h **** // -*- mode:c++; tab-width:2; indent-tabs-mode:nil; c-basic-offset:2 -*-
   2:/home/zkmike/workspace/RZA2M/rza2m_2d_barcode_sample_freertos_gcc/src/zxing_lib/zxing/common/Counted.h **** #ifndef __COUNTED_H__
   3:/home/zkmike/workspace/RZA2M/rza2m_2d_barcode_sample_freertos_gcc/src/zxing_lib/zxing/common/Counted.h **** #define __COUNTED_H__
   4:/home/zkmike/workspace/RZA2M/rza2m_2d_barcode_sample_freertos_gcc/src/zxing_lib/zxing/common/Counted.h **** 
   5:/home/zkmike/workspace/RZA2M/rza2m_2d_barcode_sample_freertos_gcc/src/zxing_lib/zxing/common/Counted.h **** /*
   6:/home/zkmike/workspace/RZA2M/rza2m_2d_barcode_sample_freertos_gcc/src/zxing_lib/zxing/common/Counted.h ****  *  Copyright 2010 ZXing authors All rights reserved.
   7:/home/zkmike/workspace/RZA2M/rza2m_2d_barcode_sample_freertos_gcc/src/zxing_lib/zxing/common/Counted.h ****  *
   8:/home/zkmike/workspace/RZA2M/rza2m_2d_barcode_sample_freertos_gcc/src/zxing_lib/zxing/common/Counted.h ****  * Licensed under the Apache License, Version 2.0 (the "License");
   9:/home/zkmike/workspace/RZA2M/rza2m_2d_barcode_sample_freertos_gcc/src/zxing_lib/zxing/common/Counted.h ****  * you may not use this file except in compliance with the License.
  10:/home/zkmike/workspace/RZA2M/rza2m_2d_barcode_sample_freertos_gcc/src/zxing_lib/zxing/common/Counted.h ****  * You may obtain a copy of the License at
  11:/home/zkmike/workspace/RZA2M/rza2m_2d_barcode_sample_freertos_gcc/src/zxing_lib/zxing/common/Counted.h ****  *
  12:/home/zkmike/workspace/RZA2M/rza2m_2d_barcode_sample_freertos_gcc/src/zxing_lib/zxing/common/Counted.h ****  *      http://www.apache.org/licenses/LICENSE-2.0
  13:/home/zkmike/workspace/RZA2M/rza2m_2d_barcode_sample_freertos_gcc/src/zxing_lib/zxing/common/Counted.h ****  *
  14:/home/zkmike/workspace/RZA2M/rza2m_2d_barcode_sample_freertos_gcc/src/zxing_lib/zxing/common/Counted.h ****  * Unless required by applicable law or agreed to in writing, software
  15:/home/zkmike/workspace/RZA2M/rza2m_2d_barcode_sample_freertos_gcc/src/zxing_lib/zxing/common/Counted.h ****  * distributed under the License is distributed on an "AS IS" BASIS,
  16:/home/zkmike/workspace/RZA2M/rza2m_2d_barcode_sample_freertos_gcc/src/zxing_lib/zxing/common/Counted.h ****  * WITHOUT WARRANTIES OR CONDITIONS OF ANY KIND, either express or implied.
  17:/home/zkmike/workspace/RZA2M/rza2m_2d_barcode_sample_freertos_gcc/src/zxing_lib/zxing/common/Counted.h ****  * See the License for the specific language governing permissions and
  18:/home/zkmike/workspace/RZA2M/rza2m_2d_barcode_sample_freertos_gcc/src/zxing_lib/zxing/common/Counted.h ****  * limitations under the License.
  19:/home/zkmike/workspace/RZA2M/rza2m_2d_barcode_sample_freertos_gcc/src/zxing_lib/zxing/common/Counted.h ****  */
  20:/home/zkmike/workspace/RZA2M/rza2m_2d_barcode_sample_freertos_gcc/src/zxing_lib/zxing/common/Counted.h **** 
  21:/home/zkmike/workspace/RZA2M/rza2m_2d_barcode_sample_freertos_gcc/src/zxing_lib/zxing/common/Counted.h **** #include <iostream>
  22:/home/zkmike/workspace/RZA2M/rza2m_2d_barcode_sample_freertos_gcc/src/zxing_lib/zxing/common/Counted.h **** 
  23:/home/zkmike/workspace/RZA2M/rza2m_2d_barcode_sample_freertos_gcc/src/zxing_lib/zxing/common/Counted.h **** namespace zxing {
  24:/home/zkmike/workspace/RZA2M/rza2m_2d_barcode_sample_freertos_gcc/src/zxing_lib/zxing/common/Counted.h **** 
  25:/home/zkmike/workspace/RZA2M/rza2m_2d_barcode_sample_freertos_gcc/src/zxing_lib/zxing/common/Counted.h **** /* base class for reference-counted objects */
  26:/home/zkmike/workspace/RZA2M/rza2m_2d_barcode_sample_freertos_gcc/src/zxing_lib/zxing/common/Counted.h **** class Counted {
  27:/home/zkmike/workspace/RZA2M/rza2m_2d_barcode_sample_freertos_gcc/src/zxing_lib/zxing/common/Counted.h **** private:
  28:/home/zkmike/workspace/RZA2M/rza2m_2d_barcode_sample_freertos_gcc/src/zxing_lib/zxing/common/Counted.h ****   unsigned int count_;
  29:/home/zkmike/workspace/RZA2M/rza2m_2d_barcode_sample_freertos_gcc/src/zxing_lib/zxing/common/Counted.h **** public:
  30:/home/zkmike/workspace/RZA2M/rza2m_2d_barcode_sample_freertos_gcc/src/zxing_lib/zxing/common/Counted.h ****   Counted() :
  31:/home/zkmike/workspace/RZA2M/rza2m_2d_barcode_sample_freertos_gcc/src/zxing_lib/zxing/common/Counted.h ****       count_(0) {
  32:/home/zkmike/workspace/RZA2M/rza2m_2d_barcode_sample_freertos_gcc/src/zxing_lib/zxing/common/Counted.h ****   }
  33:/home/zkmike/workspace/RZA2M/rza2m_2d_barcode_sample_freertos_gcc/src/zxing_lib/zxing/common/Counted.h ****   virtual ~Counted() {
  34:/home/zkmike/workspace/RZA2M/rza2m_2d_barcode_sample_freertos_gcc/src/zxing_lib/zxing/common/Counted.h ****   }
  35:/home/zkmike/workspace/RZA2M/rza2m_2d_barcode_sample_freertos_gcc/src/zxing_lib/zxing/common/Counted.h ****   Counted *retain() {
  36:/home/zkmike/workspace/RZA2M/rza2m_2d_barcode_sample_freertos_gcc/src/zxing_lib/zxing/common/Counted.h ****     count_++;
  37:/home/zkmike/workspace/RZA2M/rza2m_2d_barcode_sample_freertos_gcc/src/zxing_lib/zxing/common/Counted.h ****     return this;
  38:/home/zkmike/workspace/RZA2M/rza2m_2d_barcode_sample_freertos_gcc/src/zxing_lib/zxing/common/Counted.h ****   }
  39:/home/zkmike/workspace/RZA2M/rza2m_2d_barcode_sample_freertos_gcc/src/zxing_lib/zxing/common/Counted.h ****   void release() {
  40:/home/zkmike/workspace/RZA2M/rza2m_2d_barcode_sample_freertos_gcc/src/zxing_lib/zxing/common/Counted.h ****     count_--;
 128              		.loc 4 40 0 discriminator 2
 129 004c 043090E5 		ldr	r3, [r0, #4]
 130 0050 013043E2 		sub	r3, r3, #1
 131 0054 043080E5 		str	r3, [r0, #4]
  41:/home/zkmike/workspace/RZA2M/rza2m_2d_barcode_sample_freertos_gcc/src/zxing_lib/zxing/common/Counted.h ****     if (count_ == 0) {
 132              		.loc 4 41 0 discriminator 2
 133 0058 000053E3 		cmp	r3, #0
 134 005c EDFFFF1A 		bne	.L5
  42:/home/zkmike/workspace/RZA2M/rza2m_2d_barcode_sample_freertos_gcc/src/zxing_lib/zxing/common/Counted.h ****       count_ = 0xDEADF001;
 135              		.loc 4 42 0
 136 0060 01300FE3 		movw	r3, #61441
 137 0064 AD3E4DE3 		movt	r3, 57005
 138 0068 043080E5 		str	r3, [r0, #4]
  43:/home/zkmike/workspace/RZA2M/rza2m_2d_barcode_sample_freertos_gcc/src/zxing_lib/zxing/common/Counted.h ****       delete this;
 139              		.loc 4 43 0
 140 006c 003090E5 		ldr	r3, [r0]
 141 0070 043093E5 		ldr	r3, [r3, #4]
 142 0074 33FF2FE1 		blx	r3
 143              	.LVL13:
 144 0078 E6FFFFEA 		b	.L5
 145              	.L4:
 146              	.LBE757:
 147              	.LBE756:
 148              	.LBE749:
 136:../src/zxing_lib/zxing/qrcode/detector/AlignmentPatternFinder.cpp ****   }
 137:../src/zxing_lib/zxing/qrcode/detector/AlignmentPatternFinder.cpp ****   delete possibleCenters_;
 149              		.loc 2 137 0
 150 007c 000055E3 		cmp	r5, #0
 151 0080 0500000A 		beq	.L7
 152              	.LVL14:
 153              	.LBB758:
 154              	.LBB759:
 155              	.LBB760:
 156              	.LBB761:
 177:/home/zkmike/.local/share/renesas/e2_studio/toolchains/gcc_arm/gcc-arm-none-eabi-6-2017-q2-update/arm-none-eabi/include/c++/6.3.1/bits/stl_vector.h **** 	  _Tr::deallocate(_M_impl, __p, __n);
 157              		.loc 3 177 0
 158 0084 000050E3 		cmp	r0, #0
 159 0088 0000000A 		beq	.L8
 160              	.LVL15:
 161              	.LBB762:
 162              	.LBB763:
 163              	.LBB764:
 164              		.file 5 "/home/zkmike/.local/share/renesas/e2_studio/toolchains/gcc_arm/gcc-arm-none-eabi-6-2017-q
   1:/home/zkmike/.local/share/renesas/e2_studio/toolchains/gcc_arm/gcc-arm-none-eabi-6-2017-q2-update/arm-none-eabi/include/c++/6.3.1/ext/new_allocator.h **** // Allocator that wraps operator new -*- C++ -*-
   2:/home/zkmike/.local/share/renesas/e2_studio/toolchains/gcc_arm/gcc-arm-none-eabi-6-2017-q2-update/arm-none-eabi/include/c++/6.3.1/ext/new_allocator.h **** 
   3:/home/zkmike/.local/share/renesas/e2_studio/toolchains/gcc_arm/gcc-arm-none-eabi-6-2017-q2-update/arm-none-eabi/include/c++/6.3.1/ext/new_allocator.h **** // Copyright (C) 2001-2016 Free Software Foundation, Inc.
   4:/home/zkmike/.local/share/renesas/e2_studio/toolchains/gcc_arm/gcc-arm-none-eabi-6-2017-q2-update/arm-none-eabi/include/c++/6.3.1/ext/new_allocator.h **** //
   5:/home/zkmike/.local/share/renesas/e2_studio/toolchains/gcc_arm/gcc-arm-none-eabi-6-2017-q2-update/arm-none-eabi/include/c++/6.3.1/ext/new_allocator.h **** // This file is part of the GNU ISO C++ Library.  This library is free
   6:/home/zkmike/.local/share/renesas/e2_studio/toolchains/gcc_arm/gcc-arm-none-eabi-6-2017-q2-update/arm-none-eabi/include/c++/6.3.1/ext/new_allocator.h **** // software; you can redistribute it and/or modify it under the
   7:/home/zkmike/.local/share/renesas/e2_studio/toolchains/gcc_arm/gcc-arm-none-eabi-6-2017-q2-update/arm-none-eabi/include/c++/6.3.1/ext/new_allocator.h **** // terms of the GNU General Public License as published by the
   8:/home/zkmike/.local/share/renesas/e2_studio/toolchains/gcc_arm/gcc-arm-none-eabi-6-2017-q2-update/arm-none-eabi/include/c++/6.3.1/ext/new_allocator.h **** // Free Software Foundation; either version 3, or (at your option)
   9:/home/zkmike/.local/share/renesas/e2_studio/toolchains/gcc_arm/gcc-arm-none-eabi-6-2017-q2-update/arm-none-eabi/include/c++/6.3.1/ext/new_allocator.h **** // any later version.
  10:/home/zkmike/.local/share/renesas/e2_studio/toolchains/gcc_arm/gcc-arm-none-eabi-6-2017-q2-update/arm-none-eabi/include/c++/6.3.1/ext/new_allocator.h **** 
  11:/home/zkmike/.local/share/renesas/e2_studio/toolchains/gcc_arm/gcc-arm-none-eabi-6-2017-q2-update/arm-none-eabi/include/c++/6.3.1/ext/new_allocator.h **** // This library is distributed in the hope that it will be useful,
  12:/home/zkmike/.local/share/renesas/e2_studio/toolchains/gcc_arm/gcc-arm-none-eabi-6-2017-q2-update/arm-none-eabi/include/c++/6.3.1/ext/new_allocator.h **** // but WITHOUT ANY WARRANTY; without even the implied warranty of
  13:/home/zkmike/.local/share/renesas/e2_studio/toolchains/gcc_arm/gcc-arm-none-eabi-6-2017-q2-update/arm-none-eabi/include/c++/6.3.1/ext/new_allocator.h **** // MERCHANTABILITY or FITNESS FOR A PARTICULAR PURPOSE.  See the
  14:/home/zkmike/.local/share/renesas/e2_studio/toolchains/gcc_arm/gcc-arm-none-eabi-6-2017-q2-update/arm-none-eabi/include/c++/6.3.1/ext/new_allocator.h **** // GNU General Public License for more details.
  15:/home/zkmike/.local/share/renesas/e2_studio/toolchains/gcc_arm/gcc-arm-none-eabi-6-2017-q2-update/arm-none-eabi/include/c++/6.3.1/ext/new_allocator.h **** 
  16:/home/zkmike/.local/share/renesas/e2_studio/toolchains/gcc_arm/gcc-arm-none-eabi-6-2017-q2-update/arm-none-eabi/include/c++/6.3.1/ext/new_allocator.h **** // Under Section 7 of GPL version 3, you are granted additional
  17:/home/zkmike/.local/share/renesas/e2_studio/toolchains/gcc_arm/gcc-arm-none-eabi-6-2017-q2-update/arm-none-eabi/include/c++/6.3.1/ext/new_allocator.h **** // permissions described in the GCC Runtime Library Exception, version
  18:/home/zkmike/.local/share/renesas/e2_studio/toolchains/gcc_arm/gcc-arm-none-eabi-6-2017-q2-update/arm-none-eabi/include/c++/6.3.1/ext/new_allocator.h **** // 3.1, as published by the Free Software Foundation.
  19:/home/zkmike/.local/share/renesas/e2_studio/toolchains/gcc_arm/gcc-arm-none-eabi-6-2017-q2-update/arm-none-eabi/include/c++/6.3.1/ext/new_allocator.h **** 
  20:/home/zkmike/.local/share/renesas/e2_studio/toolchains/gcc_arm/gcc-arm-none-eabi-6-2017-q2-update/arm-none-eabi/include/c++/6.3.1/ext/new_allocator.h **** // You should have received a copy of the GNU General Public License and
  21:/home/zkmike/.local/share/renesas/e2_studio/toolchains/gcc_arm/gcc-arm-none-eabi-6-2017-q2-update/arm-none-eabi/include/c++/6.3.1/ext/new_allocator.h **** // a copy of the GCC Runtime Library Exception along with this program;
  22:/home/zkmike/.local/share/renesas/e2_studio/toolchains/gcc_arm/gcc-arm-none-eabi-6-2017-q2-update/arm-none-eabi/include/c++/6.3.1/ext/new_allocator.h **** // see the files COPYING3 and COPYING.RUNTIME respectively.  If not, see
  23:/home/zkmike/.local/share/renesas/e2_studio/toolchains/gcc_arm/gcc-arm-none-eabi-6-2017-q2-update/arm-none-eabi/include/c++/6.3.1/ext/new_allocator.h **** // <http://www.gnu.org/licenses/>.
  24:/home/zkmike/.local/share/renesas/e2_studio/toolchains/gcc_arm/gcc-arm-none-eabi-6-2017-q2-update/arm-none-eabi/include/c++/6.3.1/ext/new_allocator.h **** 
  25:/home/zkmike/.local/share/renesas/e2_studio/toolchains/gcc_arm/gcc-arm-none-eabi-6-2017-q2-update/arm-none-eabi/include/c++/6.3.1/ext/new_allocator.h **** /** @file ext/new_allocator.h
  26:/home/zkmike/.local/share/renesas/e2_studio/toolchains/gcc_arm/gcc-arm-none-eabi-6-2017-q2-update/arm-none-eabi/include/c++/6.3.1/ext/new_allocator.h ****  *  This file is a GNU extension to the Standard C++ Library.
  27:/home/zkmike/.local/share/renesas/e2_studio/toolchains/gcc_arm/gcc-arm-none-eabi-6-2017-q2-update/arm-none-eabi/include/c++/6.3.1/ext/new_allocator.h ****  */
  28:/home/zkmike/.local/share/renesas/e2_studio/toolchains/gcc_arm/gcc-arm-none-eabi-6-2017-q2-update/arm-none-eabi/include/c++/6.3.1/ext/new_allocator.h **** 
  29:/home/zkmike/.local/share/renesas/e2_studio/toolchains/gcc_arm/gcc-arm-none-eabi-6-2017-q2-update/arm-none-eabi/include/c++/6.3.1/ext/new_allocator.h **** #ifndef _NEW_ALLOCATOR_H
  30:/home/zkmike/.local/share/renesas/e2_studio/toolchains/gcc_arm/gcc-arm-none-eabi-6-2017-q2-update/arm-none-eabi/include/c++/6.3.1/ext/new_allocator.h **** #define _NEW_ALLOCATOR_H 1
  31:/home/zkmike/.local/share/renesas/e2_studio/toolchains/gcc_arm/gcc-arm-none-eabi-6-2017-q2-update/arm-none-eabi/include/c++/6.3.1/ext/new_allocator.h **** 
  32:/home/zkmike/.local/share/renesas/e2_studio/toolchains/gcc_arm/gcc-arm-none-eabi-6-2017-q2-update/arm-none-eabi/include/c++/6.3.1/ext/new_allocator.h **** #include <bits/c++config.h>
  33:/home/zkmike/.local/share/renesas/e2_studio/toolchains/gcc_arm/gcc-arm-none-eabi-6-2017-q2-update/arm-none-eabi/include/c++/6.3.1/ext/new_allocator.h **** #include <new>
  34:/home/zkmike/.local/share/renesas/e2_studio/toolchains/gcc_arm/gcc-arm-none-eabi-6-2017-q2-update/arm-none-eabi/include/c++/6.3.1/ext/new_allocator.h **** #include <bits/functexcept.h>
  35:/home/zkmike/.local/share/renesas/e2_studio/toolchains/gcc_arm/gcc-arm-none-eabi-6-2017-q2-update/arm-none-eabi/include/c++/6.3.1/ext/new_allocator.h **** #include <bits/move.h>
  36:/home/zkmike/.local/share/renesas/e2_studio/toolchains/gcc_arm/gcc-arm-none-eabi-6-2017-q2-update/arm-none-eabi/include/c++/6.3.1/ext/new_allocator.h **** #if __cplusplus >= 201103L
  37:/home/zkmike/.local/share/renesas/e2_studio/toolchains/gcc_arm/gcc-arm-none-eabi-6-2017-q2-update/arm-none-eabi/include/c++/6.3.1/ext/new_allocator.h **** #include <type_traits>
  38:/home/zkmike/.local/share/renesas/e2_studio/toolchains/gcc_arm/gcc-arm-none-eabi-6-2017-q2-update/arm-none-eabi/include/c++/6.3.1/ext/new_allocator.h **** #endif
  39:/home/zkmike/.local/share/renesas/e2_studio/toolchains/gcc_arm/gcc-arm-none-eabi-6-2017-q2-update/arm-none-eabi/include/c++/6.3.1/ext/new_allocator.h **** 
  40:/home/zkmike/.local/share/renesas/e2_studio/toolchains/gcc_arm/gcc-arm-none-eabi-6-2017-q2-update/arm-none-eabi/include/c++/6.3.1/ext/new_allocator.h **** namespace __gnu_cxx _GLIBCXX_VISIBILITY(default)
  41:/home/zkmike/.local/share/renesas/e2_studio/toolchains/gcc_arm/gcc-arm-none-eabi-6-2017-q2-update/arm-none-eabi/include/c++/6.3.1/ext/new_allocator.h **** {
  42:/home/zkmike/.local/share/renesas/e2_studio/toolchains/gcc_arm/gcc-arm-none-eabi-6-2017-q2-update/arm-none-eabi/include/c++/6.3.1/ext/new_allocator.h **** _GLIBCXX_BEGIN_NAMESPACE_VERSION
  43:/home/zkmike/.local/share/renesas/e2_studio/toolchains/gcc_arm/gcc-arm-none-eabi-6-2017-q2-update/arm-none-eabi/include/c++/6.3.1/ext/new_allocator.h **** 
  44:/home/zkmike/.local/share/renesas/e2_studio/toolchains/gcc_arm/gcc-arm-none-eabi-6-2017-q2-update/arm-none-eabi/include/c++/6.3.1/ext/new_allocator.h ****   using std::size_t;
  45:/home/zkmike/.local/share/renesas/e2_studio/toolchains/gcc_arm/gcc-arm-none-eabi-6-2017-q2-update/arm-none-eabi/include/c++/6.3.1/ext/new_allocator.h ****   using std::ptrdiff_t;
  46:/home/zkmike/.local/share/renesas/e2_studio/toolchains/gcc_arm/gcc-arm-none-eabi-6-2017-q2-update/arm-none-eabi/include/c++/6.3.1/ext/new_allocator.h **** 
  47:/home/zkmike/.local/share/renesas/e2_studio/toolchains/gcc_arm/gcc-arm-none-eabi-6-2017-q2-update/arm-none-eabi/include/c++/6.3.1/ext/new_allocator.h ****   /**
  48:/home/zkmike/.local/share/renesas/e2_studio/toolchains/gcc_arm/gcc-arm-none-eabi-6-2017-q2-update/arm-none-eabi/include/c++/6.3.1/ext/new_allocator.h ****    *  @brief  An allocator that uses global new, as per [20.4].
  49:/home/zkmike/.local/share/renesas/e2_studio/toolchains/gcc_arm/gcc-arm-none-eabi-6-2017-q2-update/arm-none-eabi/include/c++/6.3.1/ext/new_allocator.h ****    *  @ingroup allocators
  50:/home/zkmike/.local/share/renesas/e2_studio/toolchains/gcc_arm/gcc-arm-none-eabi-6-2017-q2-update/arm-none-eabi/include/c++/6.3.1/ext/new_allocator.h ****    *
  51:/home/zkmike/.local/share/renesas/e2_studio/toolchains/gcc_arm/gcc-arm-none-eabi-6-2017-q2-update/arm-none-eabi/include/c++/6.3.1/ext/new_allocator.h ****    *  This is precisely the allocator defined in the C++ Standard. 
  52:/home/zkmike/.local/share/renesas/e2_studio/toolchains/gcc_arm/gcc-arm-none-eabi-6-2017-q2-update/arm-none-eabi/include/c++/6.3.1/ext/new_allocator.h ****    *    - all allocation calls operator new
  53:/home/zkmike/.local/share/renesas/e2_studio/toolchains/gcc_arm/gcc-arm-none-eabi-6-2017-q2-update/arm-none-eabi/include/c++/6.3.1/ext/new_allocator.h ****    *    - all deallocation calls operator delete
  54:/home/zkmike/.local/share/renesas/e2_studio/toolchains/gcc_arm/gcc-arm-none-eabi-6-2017-q2-update/arm-none-eabi/include/c++/6.3.1/ext/new_allocator.h ****    *
  55:/home/zkmike/.local/share/renesas/e2_studio/toolchains/gcc_arm/gcc-arm-none-eabi-6-2017-q2-update/arm-none-eabi/include/c++/6.3.1/ext/new_allocator.h ****    *  @tparam  _Tp  Type of allocated object.
  56:/home/zkmike/.local/share/renesas/e2_studio/toolchains/gcc_arm/gcc-arm-none-eabi-6-2017-q2-update/arm-none-eabi/include/c++/6.3.1/ext/new_allocator.h ****    */
  57:/home/zkmike/.local/share/renesas/e2_studio/toolchains/gcc_arm/gcc-arm-none-eabi-6-2017-q2-update/arm-none-eabi/include/c++/6.3.1/ext/new_allocator.h ****   template<typename _Tp>
  58:/home/zkmike/.local/share/renesas/e2_studio/toolchains/gcc_arm/gcc-arm-none-eabi-6-2017-q2-update/arm-none-eabi/include/c++/6.3.1/ext/new_allocator.h ****     class new_allocator
  59:/home/zkmike/.local/share/renesas/e2_studio/toolchains/gcc_arm/gcc-arm-none-eabi-6-2017-q2-update/arm-none-eabi/include/c++/6.3.1/ext/new_allocator.h ****     {
  60:/home/zkmike/.local/share/renesas/e2_studio/toolchains/gcc_arm/gcc-arm-none-eabi-6-2017-q2-update/arm-none-eabi/include/c++/6.3.1/ext/new_allocator.h ****     public:
  61:/home/zkmike/.local/share/renesas/e2_studio/toolchains/gcc_arm/gcc-arm-none-eabi-6-2017-q2-update/arm-none-eabi/include/c++/6.3.1/ext/new_allocator.h ****       typedef size_t     size_type;
  62:/home/zkmike/.local/share/renesas/e2_studio/toolchains/gcc_arm/gcc-arm-none-eabi-6-2017-q2-update/arm-none-eabi/include/c++/6.3.1/ext/new_allocator.h ****       typedef ptrdiff_t  difference_type;
  63:/home/zkmike/.local/share/renesas/e2_studio/toolchains/gcc_arm/gcc-arm-none-eabi-6-2017-q2-update/arm-none-eabi/include/c++/6.3.1/ext/new_allocator.h ****       typedef _Tp*       pointer;
  64:/home/zkmike/.local/share/renesas/e2_studio/toolchains/gcc_arm/gcc-arm-none-eabi-6-2017-q2-update/arm-none-eabi/include/c++/6.3.1/ext/new_allocator.h ****       typedef const _Tp* const_pointer;
  65:/home/zkmike/.local/share/renesas/e2_studio/toolchains/gcc_arm/gcc-arm-none-eabi-6-2017-q2-update/arm-none-eabi/include/c++/6.3.1/ext/new_allocator.h ****       typedef _Tp&       reference;
  66:/home/zkmike/.local/share/renesas/e2_studio/toolchains/gcc_arm/gcc-arm-none-eabi-6-2017-q2-update/arm-none-eabi/include/c++/6.3.1/ext/new_allocator.h ****       typedef const _Tp& const_reference;
  67:/home/zkmike/.local/share/renesas/e2_studio/toolchains/gcc_arm/gcc-arm-none-eabi-6-2017-q2-update/arm-none-eabi/include/c++/6.3.1/ext/new_allocator.h ****       typedef _Tp        value_type;
  68:/home/zkmike/.local/share/renesas/e2_studio/toolchains/gcc_arm/gcc-arm-none-eabi-6-2017-q2-update/arm-none-eabi/include/c++/6.3.1/ext/new_allocator.h **** 
  69:/home/zkmike/.local/share/renesas/e2_studio/toolchains/gcc_arm/gcc-arm-none-eabi-6-2017-q2-update/arm-none-eabi/include/c++/6.3.1/ext/new_allocator.h ****       template<typename _Tp1>
  70:/home/zkmike/.local/share/renesas/e2_studio/toolchains/gcc_arm/gcc-arm-none-eabi-6-2017-q2-update/arm-none-eabi/include/c++/6.3.1/ext/new_allocator.h ****         struct rebind
  71:/home/zkmike/.local/share/renesas/e2_studio/toolchains/gcc_arm/gcc-arm-none-eabi-6-2017-q2-update/arm-none-eabi/include/c++/6.3.1/ext/new_allocator.h ****         { typedef new_allocator<_Tp1> other; };
  72:/home/zkmike/.local/share/renesas/e2_studio/toolchains/gcc_arm/gcc-arm-none-eabi-6-2017-q2-update/arm-none-eabi/include/c++/6.3.1/ext/new_allocator.h **** 
  73:/home/zkmike/.local/share/renesas/e2_studio/toolchains/gcc_arm/gcc-arm-none-eabi-6-2017-q2-update/arm-none-eabi/include/c++/6.3.1/ext/new_allocator.h **** #if __cplusplus >= 201103L
  74:/home/zkmike/.local/share/renesas/e2_studio/toolchains/gcc_arm/gcc-arm-none-eabi-6-2017-q2-update/arm-none-eabi/include/c++/6.3.1/ext/new_allocator.h ****       // _GLIBCXX_RESOLVE_LIB_DEFECTS
  75:/home/zkmike/.local/share/renesas/e2_studio/toolchains/gcc_arm/gcc-arm-none-eabi-6-2017-q2-update/arm-none-eabi/include/c++/6.3.1/ext/new_allocator.h ****       // 2103. propagate_on_container_move_assignment
  76:/home/zkmike/.local/share/renesas/e2_studio/toolchains/gcc_arm/gcc-arm-none-eabi-6-2017-q2-update/arm-none-eabi/include/c++/6.3.1/ext/new_allocator.h ****       typedef std::true_type propagate_on_container_move_assignment;
  77:/home/zkmike/.local/share/renesas/e2_studio/toolchains/gcc_arm/gcc-arm-none-eabi-6-2017-q2-update/arm-none-eabi/include/c++/6.3.1/ext/new_allocator.h **** #endif
  78:/home/zkmike/.local/share/renesas/e2_studio/toolchains/gcc_arm/gcc-arm-none-eabi-6-2017-q2-update/arm-none-eabi/include/c++/6.3.1/ext/new_allocator.h **** 
  79:/home/zkmike/.local/share/renesas/e2_studio/toolchains/gcc_arm/gcc-arm-none-eabi-6-2017-q2-update/arm-none-eabi/include/c++/6.3.1/ext/new_allocator.h ****       new_allocator() _GLIBCXX_USE_NOEXCEPT { }
  80:/home/zkmike/.local/share/renesas/e2_studio/toolchains/gcc_arm/gcc-arm-none-eabi-6-2017-q2-update/arm-none-eabi/include/c++/6.3.1/ext/new_allocator.h **** 
  81:/home/zkmike/.local/share/renesas/e2_studio/toolchains/gcc_arm/gcc-arm-none-eabi-6-2017-q2-update/arm-none-eabi/include/c++/6.3.1/ext/new_allocator.h ****       new_allocator(const new_allocator&) _GLIBCXX_USE_NOEXCEPT { }
  82:/home/zkmike/.local/share/renesas/e2_studio/toolchains/gcc_arm/gcc-arm-none-eabi-6-2017-q2-update/arm-none-eabi/include/c++/6.3.1/ext/new_allocator.h **** 
  83:/home/zkmike/.local/share/renesas/e2_studio/toolchains/gcc_arm/gcc-arm-none-eabi-6-2017-q2-update/arm-none-eabi/include/c++/6.3.1/ext/new_allocator.h ****       template<typename _Tp1>
  84:/home/zkmike/.local/share/renesas/e2_studio/toolchains/gcc_arm/gcc-arm-none-eabi-6-2017-q2-update/arm-none-eabi/include/c++/6.3.1/ext/new_allocator.h ****         new_allocator(const new_allocator<_Tp1>&) _GLIBCXX_USE_NOEXCEPT { }
  85:/home/zkmike/.local/share/renesas/e2_studio/toolchains/gcc_arm/gcc-arm-none-eabi-6-2017-q2-update/arm-none-eabi/include/c++/6.3.1/ext/new_allocator.h **** 
  86:/home/zkmike/.local/share/renesas/e2_studio/toolchains/gcc_arm/gcc-arm-none-eabi-6-2017-q2-update/arm-none-eabi/include/c++/6.3.1/ext/new_allocator.h ****       ~new_allocator() _GLIBCXX_USE_NOEXCEPT { }
  87:/home/zkmike/.local/share/renesas/e2_studio/toolchains/gcc_arm/gcc-arm-none-eabi-6-2017-q2-update/arm-none-eabi/include/c++/6.3.1/ext/new_allocator.h **** 
  88:/home/zkmike/.local/share/renesas/e2_studio/toolchains/gcc_arm/gcc-arm-none-eabi-6-2017-q2-update/arm-none-eabi/include/c++/6.3.1/ext/new_allocator.h ****       pointer
  89:/home/zkmike/.local/share/renesas/e2_studio/toolchains/gcc_arm/gcc-arm-none-eabi-6-2017-q2-update/arm-none-eabi/include/c++/6.3.1/ext/new_allocator.h ****       address(reference __x) const _GLIBCXX_NOEXCEPT
  90:/home/zkmike/.local/share/renesas/e2_studio/toolchains/gcc_arm/gcc-arm-none-eabi-6-2017-q2-update/arm-none-eabi/include/c++/6.3.1/ext/new_allocator.h ****       { return std::__addressof(__x); }
  91:/home/zkmike/.local/share/renesas/e2_studio/toolchains/gcc_arm/gcc-arm-none-eabi-6-2017-q2-update/arm-none-eabi/include/c++/6.3.1/ext/new_allocator.h **** 
  92:/home/zkmike/.local/share/renesas/e2_studio/toolchains/gcc_arm/gcc-arm-none-eabi-6-2017-q2-update/arm-none-eabi/include/c++/6.3.1/ext/new_allocator.h ****       const_pointer
  93:/home/zkmike/.local/share/renesas/e2_studio/toolchains/gcc_arm/gcc-arm-none-eabi-6-2017-q2-update/arm-none-eabi/include/c++/6.3.1/ext/new_allocator.h ****       address(const_reference __x) const _GLIBCXX_NOEXCEPT
  94:/home/zkmike/.local/share/renesas/e2_studio/toolchains/gcc_arm/gcc-arm-none-eabi-6-2017-q2-update/arm-none-eabi/include/c++/6.3.1/ext/new_allocator.h ****       { return std::__addressof(__x); }
  95:/home/zkmike/.local/share/renesas/e2_studio/toolchains/gcc_arm/gcc-arm-none-eabi-6-2017-q2-update/arm-none-eabi/include/c++/6.3.1/ext/new_allocator.h **** 
  96:/home/zkmike/.local/share/renesas/e2_studio/toolchains/gcc_arm/gcc-arm-none-eabi-6-2017-q2-update/arm-none-eabi/include/c++/6.3.1/ext/new_allocator.h ****       // NB: __n is permitted to be 0.  The C++ standard says nothing
  97:/home/zkmike/.local/share/renesas/e2_studio/toolchains/gcc_arm/gcc-arm-none-eabi-6-2017-q2-update/arm-none-eabi/include/c++/6.3.1/ext/new_allocator.h ****       // about what the return value is when __n == 0.
  98:/home/zkmike/.local/share/renesas/e2_studio/toolchains/gcc_arm/gcc-arm-none-eabi-6-2017-q2-update/arm-none-eabi/include/c++/6.3.1/ext/new_allocator.h ****       pointer
  99:/home/zkmike/.local/share/renesas/e2_studio/toolchains/gcc_arm/gcc-arm-none-eabi-6-2017-q2-update/arm-none-eabi/include/c++/6.3.1/ext/new_allocator.h ****       allocate(size_type __n, const void* = 0)
 100:/home/zkmike/.local/share/renesas/e2_studio/toolchains/gcc_arm/gcc-arm-none-eabi-6-2017-q2-update/arm-none-eabi/include/c++/6.3.1/ext/new_allocator.h ****       { 
 101:/home/zkmike/.local/share/renesas/e2_studio/toolchains/gcc_arm/gcc-arm-none-eabi-6-2017-q2-update/arm-none-eabi/include/c++/6.3.1/ext/new_allocator.h **** 	if (__n > this->max_size())
 102:/home/zkmike/.local/share/renesas/e2_studio/toolchains/gcc_arm/gcc-arm-none-eabi-6-2017-q2-update/arm-none-eabi/include/c++/6.3.1/ext/new_allocator.h **** 	  std::__throw_bad_alloc();
 103:/home/zkmike/.local/share/renesas/e2_studio/toolchains/gcc_arm/gcc-arm-none-eabi-6-2017-q2-update/arm-none-eabi/include/c++/6.3.1/ext/new_allocator.h **** 
 104:/home/zkmike/.local/share/renesas/e2_studio/toolchains/gcc_arm/gcc-arm-none-eabi-6-2017-q2-update/arm-none-eabi/include/c++/6.3.1/ext/new_allocator.h **** 	return static_cast<_Tp*>(::operator new(__n * sizeof(_Tp)));
 105:/home/zkmike/.local/share/renesas/e2_studio/toolchains/gcc_arm/gcc-arm-none-eabi-6-2017-q2-update/arm-none-eabi/include/c++/6.3.1/ext/new_allocator.h ****       }
 106:/home/zkmike/.local/share/renesas/e2_studio/toolchains/gcc_arm/gcc-arm-none-eabi-6-2017-q2-update/arm-none-eabi/include/c++/6.3.1/ext/new_allocator.h **** 
 107:/home/zkmike/.local/share/renesas/e2_studio/toolchains/gcc_arm/gcc-arm-none-eabi-6-2017-q2-update/arm-none-eabi/include/c++/6.3.1/ext/new_allocator.h ****       // __p is not permitted to be a null pointer.
 108:/home/zkmike/.local/share/renesas/e2_studio/toolchains/gcc_arm/gcc-arm-none-eabi-6-2017-q2-update/arm-none-eabi/include/c++/6.3.1/ext/new_allocator.h ****       void
 109:/home/zkmike/.local/share/renesas/e2_studio/toolchains/gcc_arm/gcc-arm-none-eabi-6-2017-q2-update/arm-none-eabi/include/c++/6.3.1/ext/new_allocator.h ****       deallocate(pointer __p, size_type)
 110:/home/zkmike/.local/share/renesas/e2_studio/toolchains/gcc_arm/gcc-arm-none-eabi-6-2017-q2-update/arm-none-eabi/include/c++/6.3.1/ext/new_allocator.h ****       { ::operator delete(__p); }
 165              		.loc 5 110 0
 166 008c FEFFFFEB 		bl	_ZdlPv
 167              	.LVL16:
 168              	.L8:
 169              	.LBE764:
 170              	.LBE763:
 171              	.LBE762:
 172              	.LBE761:
 173              	.LBE760:
 174              	.LBE759:
 175              	.LBE758:
 176              		.loc 2 137 0
 177 0090 0C10A0E3 		mov	r1, #12
 178 0094 0500A0E1 		mov	r0, r5
 179 0098 FEFFFFEB 		bl	_ZdlPvj
 180              	.LVL17:
 181              	.L7:
 182              	.LBE748:
 183              	.LBB765:
 184              	.LBB766:
  44:/home/zkmike/workspace/RZA2M/rza2m_2d_barcode_sample_freertos_gcc/src/zxing_lib/zxing/common/Counted.h ****     }
  45:/home/zkmike/workspace/RZA2M/rza2m_2d_barcode_sample_freertos_gcc/src/zxing_lib/zxing/common/Counted.h ****   }
  46:/home/zkmike/workspace/RZA2M/rza2m_2d_barcode_sample_freertos_gcc/src/zxing_lib/zxing/common/Counted.h **** 
  47:/home/zkmike/workspace/RZA2M/rza2m_2d_barcode_sample_freertos_gcc/src/zxing_lib/zxing/common/Counted.h **** 
  48:/home/zkmike/workspace/RZA2M/rza2m_2d_barcode_sample_freertos_gcc/src/zxing_lib/zxing/common/Counted.h ****   /* return the current count for denugging purposes or similar */
  49:/home/zkmike/workspace/RZA2M/rza2m_2d_barcode_sample_freertos_gcc/src/zxing_lib/zxing/common/Counted.h ****   int count() const {
  50:/home/zkmike/workspace/RZA2M/rza2m_2d_barcode_sample_freertos_gcc/src/zxing_lib/zxing/common/Counted.h ****     return count_;
  51:/home/zkmike/workspace/RZA2M/rza2m_2d_barcode_sample_freertos_gcc/src/zxing_lib/zxing/common/Counted.h ****   }
  52:/home/zkmike/workspace/RZA2M/rza2m_2d_barcode_sample_freertos_gcc/src/zxing_lib/zxing/common/Counted.h **** };
  53:/home/zkmike/workspace/RZA2M/rza2m_2d_barcode_sample_freertos_gcc/src/zxing_lib/zxing/common/Counted.h **** 
  54:/home/zkmike/workspace/RZA2M/rza2m_2d_barcode_sample_freertos_gcc/src/zxing_lib/zxing/common/Counted.h **** /* counting reference to reference-counted objects */
  55:/home/zkmike/workspace/RZA2M/rza2m_2d_barcode_sample_freertos_gcc/src/zxing_lib/zxing/common/Counted.h **** template<typename T> class Ref {
  56:/home/zkmike/workspace/RZA2M/rza2m_2d_barcode_sample_freertos_gcc/src/zxing_lib/zxing/common/Counted.h **** private:
  57:/home/zkmike/workspace/RZA2M/rza2m_2d_barcode_sample_freertos_gcc/src/zxing_lib/zxing/common/Counted.h **** public:
  58:/home/zkmike/workspace/RZA2M/rza2m_2d_barcode_sample_freertos_gcc/src/zxing_lib/zxing/common/Counted.h ****   T *object_;
  59:/home/zkmike/workspace/RZA2M/rza2m_2d_barcode_sample_freertos_gcc/src/zxing_lib/zxing/common/Counted.h ****   explicit Ref(T *o = 0) :
  60:/home/zkmike/workspace/RZA2M/rza2m_2d_barcode_sample_freertos_gcc/src/zxing_lib/zxing/common/Counted.h ****       object_(0) {
  61:/home/zkmike/workspace/RZA2M/rza2m_2d_barcode_sample_freertos_gcc/src/zxing_lib/zxing/common/Counted.h ****     reset(o);
  62:/home/zkmike/workspace/RZA2M/rza2m_2d_barcode_sample_freertos_gcc/src/zxing_lib/zxing/common/Counted.h ****   }
  63:/home/zkmike/workspace/RZA2M/rza2m_2d_barcode_sample_freertos_gcc/src/zxing_lib/zxing/common/Counted.h ****   Ref(const Ref &other) :
  64:/home/zkmike/workspace/RZA2M/rza2m_2d_barcode_sample_freertos_gcc/src/zxing_lib/zxing/common/Counted.h ****       object_(0) {
  65:/home/zkmike/workspace/RZA2M/rza2m_2d_barcode_sample_freertos_gcc/src/zxing_lib/zxing/common/Counted.h ****     reset(other.object_);
  66:/home/zkmike/workspace/RZA2M/rza2m_2d_barcode_sample_freertos_gcc/src/zxing_lib/zxing/common/Counted.h ****   }
  67:/home/zkmike/workspace/RZA2M/rza2m_2d_barcode_sample_freertos_gcc/src/zxing_lib/zxing/common/Counted.h **** 
  68:/home/zkmike/workspace/RZA2M/rza2m_2d_barcode_sample_freertos_gcc/src/zxing_lib/zxing/common/Counted.h ****   template<class Y>
  69:/home/zkmike/workspace/RZA2M/rza2m_2d_barcode_sample_freertos_gcc/src/zxing_lib/zxing/common/Counted.h ****   Ref(const Ref<Y> &other) :
  70:/home/zkmike/workspace/RZA2M/rza2m_2d_barcode_sample_freertos_gcc/src/zxing_lib/zxing/common/Counted.h ****       object_(0) {
  71:/home/zkmike/workspace/RZA2M/rza2m_2d_barcode_sample_freertos_gcc/src/zxing_lib/zxing/common/Counted.h ****     reset(other.object_);
  72:/home/zkmike/workspace/RZA2M/rza2m_2d_barcode_sample_freertos_gcc/src/zxing_lib/zxing/common/Counted.h ****   }
  73:/home/zkmike/workspace/RZA2M/rza2m_2d_barcode_sample_freertos_gcc/src/zxing_lib/zxing/common/Counted.h **** 
  74:/home/zkmike/workspace/RZA2M/rza2m_2d_barcode_sample_freertos_gcc/src/zxing_lib/zxing/common/Counted.h ****   ~Ref() {
  75:/home/zkmike/workspace/RZA2M/rza2m_2d_barcode_sample_freertos_gcc/src/zxing_lib/zxing/common/Counted.h ****     if (object_) {
 185              		.loc 4 75 0
 186 009c 240096E5 		ldr	r0, [r6, #36]
 187 00a0 000050E3 		cmp	r0, #0
 188 00a4 0400000A 		beq	.L9
 189              	.LVL18:
 190              	.LBB767:
 191              	.LBB768:
  40:/home/zkmike/workspace/RZA2M/rza2m_2d_barcode_sample_freertos_gcc/src/zxing_lib/zxing/common/Counted.h ****     if (count_ == 0) {
 192              		.loc 4 40 0
 193 00a8 043090E5 		ldr	r3, [r0, #4]
 194 00ac 013043E2 		sub	r3, r3, #1
 195 00b0 043080E5 		str	r3, [r0, #4]
  41:/home/zkmike/workspace/RZA2M/rza2m_2d_barcode_sample_freertos_gcc/src/zxing_lib/zxing/common/Counted.h ****       count_ = 0xDEADF001;
 196              		.loc 4 41 0
 197 00b4 000053E3 		cmp	r3, #0
 198 00b8 0900000A 		beq	.L12
 199              	.LVL19:
 200              	.L9:
 201              	.LBE768:
 202              	.LBE767:
 203              	.LBE766:
 204              	.LBE765:
 205              	.LBB772:
 206              	.LBB773:
 207              		.loc 4 75 0
 208 00bc 080096E5 		ldr	r0, [r6, #8]
 209 00c0 000050E3 		cmp	r0, #0
 210 00c4 0400000A 		beq	.L10
 211              	.LVL20:
 212              	.LBB774:
 213              	.LBB775:
  40:/home/zkmike/workspace/RZA2M/rza2m_2d_barcode_sample_freertos_gcc/src/zxing_lib/zxing/common/Counted.h ****     if (count_ == 0) {
 214              		.loc 4 40 0
 215 00c8 043090E5 		ldr	r3, [r0, #4]
 216 00cc 013043E2 		sub	r3, r3, #1
 217 00d0 043080E5 		str	r3, [r0, #4]
  41:/home/zkmike/workspace/RZA2M/rza2m_2d_barcode_sample_freertos_gcc/src/zxing_lib/zxing/common/Counted.h ****       count_ = 0xDEADF001;
 218              		.loc 4 41 0
 219 00d4 000053E3 		cmp	r3, #0
 220 00d8 0800000A 		beq	.L13
 221              	.LVL21:
 222              	.L10:
 223              	.LBE775:
 224              	.LBE774:
 225              	.LBE773:
 226              	.LBE772:
 227              	.LBE747:
 138:../src/zxing_lib/zxing/qrcode/detector/AlignmentPatternFinder.cpp **** }
 228              		.loc 2 138 0
 229 00dc 0600A0E1 		mov	r0, r6
 230 00e0 7080BDE8 		pop	{r4, r5, r6, pc}
 231              	.LVL22:
 232              	.L12:
 233              	.LBB781:
 234              	.LBB779:
 235              	.LBB771:
 236              	.LBB770:
 237              	.LBB769:
  42:/home/zkmike/workspace/RZA2M/rza2m_2d_barcode_sample_freertos_gcc/src/zxing_lib/zxing/common/Counted.h ****       delete this;
 238              		.loc 4 42 0
 239 00e4 01300FE3 		movw	r3, #61441
 240 00e8 AD3E4DE3 		movt	r3, 57005
 241 00ec 043080E5 		str	r3, [r0, #4]
  43:/home/zkmike/workspace/RZA2M/rza2m_2d_barcode_sample_freertos_gcc/src/zxing_lib/zxing/common/Counted.h ****     }
 242              		.loc 4 43 0
 243 00f0 003090E5 		ldr	r3, [r0]
 244 00f4 043093E5 		ldr	r3, [r3, #4]
 245 00f8 33FF2FE1 		blx	r3
 246              	.LVL23:
 247 00fc EEFFFFEA 		b	.L9
 248              	.LVL24:
 249              	.L13:
 250              	.LBE769:
 251              	.LBE770:
 252              	.LBE771:
 253              	.LBE779:
 254              	.LBB780:
 255              	.LBB778:
 256              	.LBB777:
 257              	.LBB776:
  42:/home/zkmike/workspace/RZA2M/rza2m_2d_barcode_sample_freertos_gcc/src/zxing_lib/zxing/common/Counted.h ****       delete this;
 258              		.loc 4 42 0
 259 0100 01300FE3 		movw	r3, #61441
 260 0104 AD3E4DE3 		movt	r3, 57005
 261 0108 043080E5 		str	r3, [r0, #4]
  43:/home/zkmike/workspace/RZA2M/rza2m_2d_barcode_sample_freertos_gcc/src/zxing_lib/zxing/common/Counted.h ****     }
 262              		.loc 4 43 0
 263 010c 003090E5 		ldr	r3, [r0]
 264 0110 043093E5 		ldr	r3, [r3, #4]
 265 0114 33FF2FE1 		blx	r3
 266              	.LVL25:
 267 0118 EFFFFFEA 		b	.L10
 268              	.L15:
 269              		.align	2
 270              	.L14:
 271 011c 08000000 		.word	.LANCHOR0+8
 272              	.LBE776:
 273              	.LBE777:
 274              	.LBE778:
 275              	.LBE780:
 276              	.LBE781:
 277              		.cfi_endproc
 278              	.LFE2260:
 279              		.cantunwind
 280              		.fnend
 282              		.global	_ZN5zxing6qrcode22AlignmentPatternFinderD1Ev
 283              		.set	_ZN5zxing6qrcode22AlignmentPatternFinderD1Ev,_ZN5zxing6qrcode22AlignmentPatternFinderD2Ev
 284              		.section	.text._ZN5zxing6qrcode22AlignmentPatternFinderD0Ev,"ax",%progbits
 285              		.align	2
 286              		.global	_ZN5zxing6qrcode22AlignmentPatternFinderD0Ev
 287              		.syntax unified
 288              		.arm
 289              		.fpu neon
 291              	_ZN5zxing6qrcode22AlignmentPatternFinderD0Ev:
 292              		.fnstart
 293              	.LFB2262:
 132:../src/zxing_lib/zxing/qrcode/detector/AlignmentPatternFinder.cpp ****   for (int i = 0; i < int(possibleCenters_->size()); i++) {
 294              		.loc 2 132 0
 295              		.cfi_startproc
 296              		@ args = 0, pretend = 0, frame = 0
 297              		@ frame_needed = 0, uses_anonymous_args = 0
 298              	.LVL26:
 299 0000 10402DE9 		push	{r4, lr}
 300              		.cfi_def_cfa_offset 8
 301              		.cfi_offset 4, -8
 302              		.cfi_offset 14, -4
 303 0004 0040A0E1 		mov	r4, r0
 304              		.loc 2 138 0
 305 0008 FEFFFFEB 		bl	_ZN5zxing6qrcode22AlignmentPatternFinderD1Ev
 306              	.LVL27:
 307 000c 2810A0E3 		mov	r1, #40
 308 0010 0400A0E1 		mov	r0, r4
 309 0014 FEFFFFEB 		bl	_ZdlPvj
 310              	.LVL28:
 311 0018 0400A0E1 		mov	r0, r4
 312 001c 1080BDE8 		pop	{r4, pc}
 313              		.cfi_endproc
 314              	.LFE2262:
 315              		.cantunwind
 316              		.fnend
 318              		.section	.text._ZN5zxing9ExceptionD2Ev,"axG",%progbits,_ZN5zxing9ExceptionD5Ev,comdat
 319              		.align	2
 320              		.weak	_ZN5zxing9ExceptionD2Ev
 321              		.syntax unified
 322              		.arm
 323              		.fpu neon
 325              	_ZN5zxing9ExceptionD2Ev:
 326              		.fnstart
 327              	.LFB2196:
  37:/home/zkmike/workspace/RZA2M/rza2m_2d_barcode_sample_freertos_gcc/src/zxing_lib/zxing/Exception.h ****     if(message) {
 328              		.loc 1 37 0
 329              		.cfi_startproc
 330              		.cfi_personality 0,__gxx_personality_v0
 331              		.cfi_lsda 0,.LLSDA2196
 332              		@ args = 0, pretend = 0, frame = 0
 333              		@ frame_needed = 0, uses_anonymous_args = 0
 334              	.LVL29:
 335 0000 70402DE9 		push	{r4, r5, r6, lr}
 336              		.save {r4, r5, r6, lr}
 337              		.cfi_def_cfa_offset 16
 338              		.cfi_offset 4, -16
 339              		.cfi_offset 5, -12
 340              		.cfi_offset 6, -8
 341              		.cfi_offset 14, -4
 342 0004 0040A0E1 		mov	r4, r0
 343              	.LBB783:
  37:/home/zkmike/workspace/RZA2M/rza2m_2d_barcode_sample_freertos_gcc/src/zxing_lib/zxing/Exception.h ****     if(message) {
 344              		.loc 1 37 0
 345 0008 48309FE5 		ldr	r3, .L25
 346 000c 003080E5 		str	r3, [r0]
  38:/home/zkmike/workspace/RZA2M/rza2m_2d_barcode_sample_freertos_gcc/src/zxing_lib/zxing/Exception.h ****       deleteMessage();
 347              		.loc 1 38 0
 348 0010 043090E5 		ldr	r3, [r0, #4]
 349 0014 000053E3 		cmp	r3, #0
 350 0018 0A00000A 		beq	.L19
 351              	.LEHB0:
  39:/home/zkmike/workspace/RZA2M/rza2m_2d_barcode_sample_freertos_gcc/src/zxing_lib/zxing/Exception.h ****     }
 352              		.loc 1 39 0
 353 001c FEFFFFEB 		bl	_ZN5zxing9Exception13deleteMessageEv
 354              	.LVL30:
 355              	.LEHE0:
 356 0020 080000EA 		b	.L19
 357              	.L22:
 358 0024 0050A0E1 		mov	r5, r0
 359 0028 0160A0E1 		mov	r6, r1
  37:/home/zkmike/workspace/RZA2M/rza2m_2d_barcode_sample_freertos_gcc/src/zxing_lib/zxing/Exception.h ****     if(message) {
 360              		.loc 1 37 0
 361 002c 0400A0E1 		mov	r0, r4
 362 0030 FEFFFFEB 		bl	_ZNSt9exceptionD2Ev
 363              	.LVL31:
 364 0034 010076E3 		cmn	r6, #1
 365 0038 0000000A 		beq	.L21
 366              	.LEHB1:
 367 003c FEFFFFEB 		bl	__cxa_end_cleanup
 368              	.LVL32:
 369              	.L21:
 370              	.LBE783:
 371 0040 0500A0E1 		mov	r0, r5
 372 0044 FEFFFFEB 		bl	__cxa_call_unexpected
 373              	.LVL33:
 374              	.LEHE1:
 375              	.L19:
 376              	.LBB784:
 377 0048 0400A0E1 		mov	r0, r4
 378 004c FEFFFFEB 		bl	_ZNSt9exceptionD2Ev
 379              	.LVL34:
 380              	.LBE784:
  41:/home/zkmike/workspace/RZA2M/rza2m_2d_barcode_sample_freertos_gcc/src/zxing_lib/zxing/Exception.h ****   char const* what() const throw() {return message ? message : "";}
 381              		.loc 1 41 0
 382 0050 0400A0E1 		mov	r0, r4
 383 0054 7080BDE8 		pop	{r4, r5, r6, pc}
 384              	.L26:
 385              		.align	2
 386              	.L25:
 387 0058 08000000 		.word	_ZTVN5zxing9ExceptionE+8
 388              		.cfi_endproc
 389              	.LFE2196:
 390              		.global	__gxx_personality_v0
 391              		.personality	__gxx_personality_v0
 392              		.handlerdata
 393              		.align	2
 394              	.LLSDA2196:
 395 0008 FF       		.byte	0xff
 396 0009 10       		.byte	0x10
 397 000a 11       		.uleb128 .LLSDATT2196-.LLSDATTD2196
 398              	.LLSDATTD2196:
 399 000b 01       		.byte	0x1
 400 000c 08       		.uleb128 .LLSDACSE2196-.LLSDACSB2196
 401              	.LLSDACSB2196:
 402 000d 1C       		.uleb128 .LEHB0-.LFB2196
 403 000e 04       		.uleb128 .LEHE0-.LEHB0
 404 000f 24       		.uleb128 .L22-.LFB2196
 405 0010 03       		.uleb128 0x3
 406 0011 3C       		.uleb128 .LEHB1-.LFB2196
 407 0012 0C       		.uleb128 .LEHE1-.LEHB1
 408 0013 00       		.uleb128 0
 409 0014 00       		.uleb128 0
 410              	.LLSDACSE2196:
 411 0015 7F       		.byte	0x7f
 412 0016 00       		.byte	0
 413 0017 00       		.byte	0
 414 0018 7D       		.byte	0x7d
 415 0019 000000   		.align	2
 416              	.LLSDATT2196:
 417 001c 00000000 		.word	0
 418              		.section	.text._ZN5zxing9ExceptionD2Ev,"axG",%progbits,_ZN5zxing9ExceptionD5Ev,comdat
 419              		.fnend
 421              		.weak	_ZN5zxing9ExceptionD1Ev
 422              		.set	_ZN5zxing9ExceptionD1Ev,_ZN5zxing9ExceptionD2Ev
 423              		.section	.text._Z41__static_initialization_and_destruction_0ii,"ax",%progbits
 424              		.align	2
 425              		.syntax unified
 426              		.arm
 427              		.fpu neon
 429              	_Z41__static_initialization_and_destruction_0ii:
 430              		.fnstart
 431              	.LFB2866:
 139:../src/zxing_lib/zxing/qrcode/detector/AlignmentPatternFinder.cpp **** 
 140:../src/zxing_lib/zxing/qrcode/detector/AlignmentPatternFinder.cpp **** Ref<AlignmentPattern> AlignmentPatternFinder::find() {
 141:../src/zxing_lib/zxing/qrcode/detector/AlignmentPatternFinder.cpp ****   int maxJ = startX_ + width_;
 142:../src/zxing_lib/zxing/qrcode/detector/AlignmentPatternFinder.cpp ****   int middleI = startY_ + (height_ >> 1);
 143:../src/zxing_lib/zxing/qrcode/detector/AlignmentPatternFinder.cpp ****   //      Ref<BitArray> luminanceRow(new BitArray(width_));
 144:../src/zxing_lib/zxing/qrcode/detector/AlignmentPatternFinder.cpp ****   // We are looking for black/white/black modules in 1:1:1 ratio;
 145:../src/zxing_lib/zxing/qrcode/detector/AlignmentPatternFinder.cpp ****   // this tracks the number of black/white/black modules seen so far
 146:../src/zxing_lib/zxing/qrcode/detector/AlignmentPatternFinder.cpp ****   vector<int> stateCount(3, 0);
 147:../src/zxing_lib/zxing/qrcode/detector/AlignmentPatternFinder.cpp ****   for (int iGen = 0; iGen < height_; iGen++) {
 148:../src/zxing_lib/zxing/qrcode/detector/AlignmentPatternFinder.cpp ****     // Search from middle outwards
 149:../src/zxing_lib/zxing/qrcode/detector/AlignmentPatternFinder.cpp ****     int i = middleI + ((iGen & 0x01) == 0 ? ((iGen + 1) >> 1) : -((iGen + 1) >> 1));
 150:../src/zxing_lib/zxing/qrcode/detector/AlignmentPatternFinder.cpp ****     //        image_->getBlackRow(i, luminanceRow, startX_, width_);
 151:../src/zxing_lib/zxing/qrcode/detector/AlignmentPatternFinder.cpp ****     stateCount[0] = 0;
 152:../src/zxing_lib/zxing/qrcode/detector/AlignmentPatternFinder.cpp ****     stateCount[1] = 0;
 153:../src/zxing_lib/zxing/qrcode/detector/AlignmentPatternFinder.cpp ****     stateCount[2] = 0;
 154:../src/zxing_lib/zxing/qrcode/detector/AlignmentPatternFinder.cpp ****     int j = startX_;
 155:../src/zxing_lib/zxing/qrcode/detector/AlignmentPatternFinder.cpp ****     // Burn off leading white pixels before anything else; if we start in the middle of
 156:../src/zxing_lib/zxing/qrcode/detector/AlignmentPatternFinder.cpp ****     // a white run, it doesn't make sense to count its length, since we don't know if the
 157:../src/zxing_lib/zxing/qrcode/detector/AlignmentPatternFinder.cpp ****     // white run continued to the left of the start point
 158:../src/zxing_lib/zxing/qrcode/detector/AlignmentPatternFinder.cpp ****     while (j < maxJ && !image_->get(j, i)) {
 159:../src/zxing_lib/zxing/qrcode/detector/AlignmentPatternFinder.cpp ****       j++;
 160:../src/zxing_lib/zxing/qrcode/detector/AlignmentPatternFinder.cpp ****     }
 161:../src/zxing_lib/zxing/qrcode/detector/AlignmentPatternFinder.cpp ****     int currentState = 0;
 162:../src/zxing_lib/zxing/qrcode/detector/AlignmentPatternFinder.cpp ****     while (j < maxJ) {
 163:../src/zxing_lib/zxing/qrcode/detector/AlignmentPatternFinder.cpp ****       if (image_->get(j, i)) {
 164:../src/zxing_lib/zxing/qrcode/detector/AlignmentPatternFinder.cpp ****         // Black pixel
 165:../src/zxing_lib/zxing/qrcode/detector/AlignmentPatternFinder.cpp ****         if (currentState == 1) { // Counting black pixels
 166:../src/zxing_lib/zxing/qrcode/detector/AlignmentPatternFinder.cpp ****           stateCount[currentState]++;
 167:../src/zxing_lib/zxing/qrcode/detector/AlignmentPatternFinder.cpp ****         } else { // Counting white pixels
 168:../src/zxing_lib/zxing/qrcode/detector/AlignmentPatternFinder.cpp ****           if (currentState == 2) { // A winner?
 169:../src/zxing_lib/zxing/qrcode/detector/AlignmentPatternFinder.cpp ****             if (foundPatternCross(stateCount)) { // Yes
 170:../src/zxing_lib/zxing/qrcode/detector/AlignmentPatternFinder.cpp ****               Ref<AlignmentPattern> confirmed(handlePossibleCenter(stateCount, i, j));
 171:../src/zxing_lib/zxing/qrcode/detector/AlignmentPatternFinder.cpp ****               if (confirmed != 0) {
 172:../src/zxing_lib/zxing/qrcode/detector/AlignmentPatternFinder.cpp ****                 return confirmed;
 173:../src/zxing_lib/zxing/qrcode/detector/AlignmentPatternFinder.cpp ****               }
 174:../src/zxing_lib/zxing/qrcode/detector/AlignmentPatternFinder.cpp ****             }
 175:../src/zxing_lib/zxing/qrcode/detector/AlignmentPatternFinder.cpp ****             stateCount[0] = stateCount[2];
 176:../src/zxing_lib/zxing/qrcode/detector/AlignmentPatternFinder.cpp ****             stateCount[1] = 1;
 177:../src/zxing_lib/zxing/qrcode/detector/AlignmentPatternFinder.cpp ****             stateCount[2] = 0;
 178:../src/zxing_lib/zxing/qrcode/detector/AlignmentPatternFinder.cpp ****             currentState = 1;
 179:../src/zxing_lib/zxing/qrcode/detector/AlignmentPatternFinder.cpp ****           } else {
 180:../src/zxing_lib/zxing/qrcode/detector/AlignmentPatternFinder.cpp ****             stateCount[++currentState]++;
 181:../src/zxing_lib/zxing/qrcode/detector/AlignmentPatternFinder.cpp ****           }
 182:../src/zxing_lib/zxing/qrcode/detector/AlignmentPatternFinder.cpp ****         }
 183:../src/zxing_lib/zxing/qrcode/detector/AlignmentPatternFinder.cpp ****       } else { // White pixel
 184:../src/zxing_lib/zxing/qrcode/detector/AlignmentPatternFinder.cpp ****         if (currentState == 1) { // Counting black pixels
 185:../src/zxing_lib/zxing/qrcode/detector/AlignmentPatternFinder.cpp ****           currentState++;
 186:../src/zxing_lib/zxing/qrcode/detector/AlignmentPatternFinder.cpp ****         }
 187:../src/zxing_lib/zxing/qrcode/detector/AlignmentPatternFinder.cpp ****         stateCount[currentState]++;
 188:../src/zxing_lib/zxing/qrcode/detector/AlignmentPatternFinder.cpp ****       }
 189:../src/zxing_lib/zxing/qrcode/detector/AlignmentPatternFinder.cpp ****       j++;
 190:../src/zxing_lib/zxing/qrcode/detector/AlignmentPatternFinder.cpp ****     }
 191:../src/zxing_lib/zxing/qrcode/detector/AlignmentPatternFinder.cpp ****     if (foundPatternCross(stateCount)) {
 192:../src/zxing_lib/zxing/qrcode/detector/AlignmentPatternFinder.cpp ****       Ref<AlignmentPattern> confirmed(handlePossibleCenter(stateCount, i, maxJ));
 193:../src/zxing_lib/zxing/qrcode/detector/AlignmentPatternFinder.cpp ****       if (confirmed != 0) {
 194:../src/zxing_lib/zxing/qrcode/detector/AlignmentPatternFinder.cpp ****         return confirmed;
 195:../src/zxing_lib/zxing/qrcode/detector/AlignmentPatternFinder.cpp ****       }
 196:../src/zxing_lib/zxing/qrcode/detector/AlignmentPatternFinder.cpp ****     }
 197:../src/zxing_lib/zxing/qrcode/detector/AlignmentPatternFinder.cpp **** 
 198:../src/zxing_lib/zxing/qrcode/detector/AlignmentPatternFinder.cpp ****   }
 199:../src/zxing_lib/zxing/qrcode/detector/AlignmentPatternFinder.cpp **** 
 200:../src/zxing_lib/zxing/qrcode/detector/AlignmentPatternFinder.cpp ****   // Hmm, nothing we saw was observed and confirmed twice. If we had
 201:../src/zxing_lib/zxing/qrcode/detector/AlignmentPatternFinder.cpp ****   // any guess at all, return it.
 202:../src/zxing_lib/zxing/qrcode/detector/AlignmentPatternFinder.cpp ****   if (possibleCenters_->size() > 0) {
 203:../src/zxing_lib/zxing/qrcode/detector/AlignmentPatternFinder.cpp ****     Ref<AlignmentPattern> center((*possibleCenters_)[0]);
 204:../src/zxing_lib/zxing/qrcode/detector/AlignmentPatternFinder.cpp ****     return center;
 205:../src/zxing_lib/zxing/qrcode/detector/AlignmentPatternFinder.cpp ****   }
 206:../src/zxing_lib/zxing/qrcode/detector/AlignmentPatternFinder.cpp **** 
 207:../src/zxing_lib/zxing/qrcode/detector/AlignmentPatternFinder.cpp ****   throw zxing::ReaderException("Could not find alignment pattern");
 208:../src/zxing_lib/zxing/qrcode/detector/AlignmentPatternFinder.cpp **** }
 432              		.loc 2 208 0
 433              		.cfi_startproc
 434              		@ args = 0, pretend = 0, frame = 0
 435              		@ frame_needed = 0, uses_anonymous_args = 0
 436              	.LVL35:
 437 0000 010050E3 		cmp	r0, #1
 438 0004 1EFF2F11 		bxne	lr
 439              		.loc 2 208 0 is_stmt 0 discriminator 1
 440 0008 FF3F0FE3 		movw	r3, #65535
 441 000c 030051E1 		cmp	r1, r3
 442 0010 1EFF2F11 		bxne	lr
 443              		.loc 2 208 0
 444 0014 10402DE9 		push	{r4, lr}
 445              		.cfi_def_cfa_offset 8
 446              		.cfi_offset 4, -8
 447              		.cfi_offset 14, -4
 448              		.file 6 "/home/zkmike/.local/share/renesas/e2_studio/toolchains/gcc_arm/gcc-arm-none-eabi-6-2017-q
   1:/home/zkmike/.local/share/renesas/e2_studio/toolchains/gcc_arm/gcc-arm-none-eabi-6-2017-q2-update/arm-none-eabi/include/c++/6.3.1/iostream **** // Standard iostream objects -*- C++ -*-
   2:/home/zkmike/.local/share/renesas/e2_studio/toolchains/gcc_arm/gcc-arm-none-eabi-6-2017-q2-update/arm-none-eabi/include/c++/6.3.1/iostream **** 
   3:/home/zkmike/.local/share/renesas/e2_studio/toolchains/gcc_arm/gcc-arm-none-eabi-6-2017-q2-update/arm-none-eabi/include/c++/6.3.1/iostream **** // Copyright (C) 1997-2016 Free Software Foundation, Inc.
   4:/home/zkmike/.local/share/renesas/e2_studio/toolchains/gcc_arm/gcc-arm-none-eabi-6-2017-q2-update/arm-none-eabi/include/c++/6.3.1/iostream **** //
   5:/home/zkmike/.local/share/renesas/e2_studio/toolchains/gcc_arm/gcc-arm-none-eabi-6-2017-q2-update/arm-none-eabi/include/c++/6.3.1/iostream **** // This file is part of the GNU ISO C++ Library.  This library is free
   6:/home/zkmike/.local/share/renesas/e2_studio/toolchains/gcc_arm/gcc-arm-none-eabi-6-2017-q2-update/arm-none-eabi/include/c++/6.3.1/iostream **** // software; you can redistribute it and/or modify it under the
   7:/home/zkmike/.local/share/renesas/e2_studio/toolchains/gcc_arm/gcc-arm-none-eabi-6-2017-q2-update/arm-none-eabi/include/c++/6.3.1/iostream **** // terms of the GNU General Public License as published by the
   8:/home/zkmike/.local/share/renesas/e2_studio/toolchains/gcc_arm/gcc-arm-none-eabi-6-2017-q2-update/arm-none-eabi/include/c++/6.3.1/iostream **** // Free Software Foundation; either version 3, or (at your option)
   9:/home/zkmike/.local/share/renesas/e2_studio/toolchains/gcc_arm/gcc-arm-none-eabi-6-2017-q2-update/arm-none-eabi/include/c++/6.3.1/iostream **** // any later version.
  10:/home/zkmike/.local/share/renesas/e2_studio/toolchains/gcc_arm/gcc-arm-none-eabi-6-2017-q2-update/arm-none-eabi/include/c++/6.3.1/iostream **** 
  11:/home/zkmike/.local/share/renesas/e2_studio/toolchains/gcc_arm/gcc-arm-none-eabi-6-2017-q2-update/arm-none-eabi/include/c++/6.3.1/iostream **** // This library is distributed in the hope that it will be useful,
  12:/home/zkmike/.local/share/renesas/e2_studio/toolchains/gcc_arm/gcc-arm-none-eabi-6-2017-q2-update/arm-none-eabi/include/c++/6.3.1/iostream **** // but WITHOUT ANY WARRANTY; without even the implied warranty of
  13:/home/zkmike/.local/share/renesas/e2_studio/toolchains/gcc_arm/gcc-arm-none-eabi-6-2017-q2-update/arm-none-eabi/include/c++/6.3.1/iostream **** // MERCHANTABILITY or FITNESS FOR A PARTICULAR PURPOSE.  See the
  14:/home/zkmike/.local/share/renesas/e2_studio/toolchains/gcc_arm/gcc-arm-none-eabi-6-2017-q2-update/arm-none-eabi/include/c++/6.3.1/iostream **** // GNU General Public License for more details.
  15:/home/zkmike/.local/share/renesas/e2_studio/toolchains/gcc_arm/gcc-arm-none-eabi-6-2017-q2-update/arm-none-eabi/include/c++/6.3.1/iostream **** 
  16:/home/zkmike/.local/share/renesas/e2_studio/toolchains/gcc_arm/gcc-arm-none-eabi-6-2017-q2-update/arm-none-eabi/include/c++/6.3.1/iostream **** // Under Section 7 of GPL version 3, you are granted additional
  17:/home/zkmike/.local/share/renesas/e2_studio/toolchains/gcc_arm/gcc-arm-none-eabi-6-2017-q2-update/arm-none-eabi/include/c++/6.3.1/iostream **** // permissions described in the GCC Runtime Library Exception, version
  18:/home/zkmike/.local/share/renesas/e2_studio/toolchains/gcc_arm/gcc-arm-none-eabi-6-2017-q2-update/arm-none-eabi/include/c++/6.3.1/iostream **** // 3.1, as published by the Free Software Foundation.
  19:/home/zkmike/.local/share/renesas/e2_studio/toolchains/gcc_arm/gcc-arm-none-eabi-6-2017-q2-update/arm-none-eabi/include/c++/6.3.1/iostream **** 
  20:/home/zkmike/.local/share/renesas/e2_studio/toolchains/gcc_arm/gcc-arm-none-eabi-6-2017-q2-update/arm-none-eabi/include/c++/6.3.1/iostream **** // You should have received a copy of the GNU General Public License and
  21:/home/zkmike/.local/share/renesas/e2_studio/toolchains/gcc_arm/gcc-arm-none-eabi-6-2017-q2-update/arm-none-eabi/include/c++/6.3.1/iostream **** // a copy of the GCC Runtime Library Exception along with this program;
  22:/home/zkmike/.local/share/renesas/e2_studio/toolchains/gcc_arm/gcc-arm-none-eabi-6-2017-q2-update/arm-none-eabi/include/c++/6.3.1/iostream **** // see the files COPYING3 and COPYING.RUNTIME respectively.  If not, see
  23:/home/zkmike/.local/share/renesas/e2_studio/toolchains/gcc_arm/gcc-arm-none-eabi-6-2017-q2-update/arm-none-eabi/include/c++/6.3.1/iostream **** // <http://www.gnu.org/licenses/>.
  24:/home/zkmike/.local/share/renesas/e2_studio/toolchains/gcc_arm/gcc-arm-none-eabi-6-2017-q2-update/arm-none-eabi/include/c++/6.3.1/iostream **** 
  25:/home/zkmike/.local/share/renesas/e2_studio/toolchains/gcc_arm/gcc-arm-none-eabi-6-2017-q2-update/arm-none-eabi/include/c++/6.3.1/iostream **** /** @file include/iostream
  26:/home/zkmike/.local/share/renesas/e2_studio/toolchains/gcc_arm/gcc-arm-none-eabi-6-2017-q2-update/arm-none-eabi/include/c++/6.3.1/iostream ****  *  This is a Standard C++ Library header.
  27:/home/zkmike/.local/share/renesas/e2_studio/toolchains/gcc_arm/gcc-arm-none-eabi-6-2017-q2-update/arm-none-eabi/include/c++/6.3.1/iostream ****  */
  28:/home/zkmike/.local/share/renesas/e2_studio/toolchains/gcc_arm/gcc-arm-none-eabi-6-2017-q2-update/arm-none-eabi/include/c++/6.3.1/iostream **** 
  29:/home/zkmike/.local/share/renesas/e2_studio/toolchains/gcc_arm/gcc-arm-none-eabi-6-2017-q2-update/arm-none-eabi/include/c++/6.3.1/iostream **** //
  30:/home/zkmike/.local/share/renesas/e2_studio/toolchains/gcc_arm/gcc-arm-none-eabi-6-2017-q2-update/arm-none-eabi/include/c++/6.3.1/iostream **** // ISO C++ 14882: 27.3  Standard iostream objects
  31:/home/zkmike/.local/share/renesas/e2_studio/toolchains/gcc_arm/gcc-arm-none-eabi-6-2017-q2-update/arm-none-eabi/include/c++/6.3.1/iostream **** //
  32:/home/zkmike/.local/share/renesas/e2_studio/toolchains/gcc_arm/gcc-arm-none-eabi-6-2017-q2-update/arm-none-eabi/include/c++/6.3.1/iostream **** 
  33:/home/zkmike/.local/share/renesas/e2_studio/toolchains/gcc_arm/gcc-arm-none-eabi-6-2017-q2-update/arm-none-eabi/include/c++/6.3.1/iostream **** #ifndef _GLIBCXX_IOSTREAM
  34:/home/zkmike/.local/share/renesas/e2_studio/toolchains/gcc_arm/gcc-arm-none-eabi-6-2017-q2-update/arm-none-eabi/include/c++/6.3.1/iostream **** #define _GLIBCXX_IOSTREAM 1
  35:/home/zkmike/.local/share/renesas/e2_studio/toolchains/gcc_arm/gcc-arm-none-eabi-6-2017-q2-update/arm-none-eabi/include/c++/6.3.1/iostream **** 
  36:/home/zkmike/.local/share/renesas/e2_studio/toolchains/gcc_arm/gcc-arm-none-eabi-6-2017-q2-update/arm-none-eabi/include/c++/6.3.1/iostream **** #pragma GCC system_header
  37:/home/zkmike/.local/share/renesas/e2_studio/toolchains/gcc_arm/gcc-arm-none-eabi-6-2017-q2-update/arm-none-eabi/include/c++/6.3.1/iostream **** 
  38:/home/zkmike/.local/share/renesas/e2_studio/toolchains/gcc_arm/gcc-arm-none-eabi-6-2017-q2-update/arm-none-eabi/include/c++/6.3.1/iostream **** #include <bits/c++config.h>
  39:/home/zkmike/.local/share/renesas/e2_studio/toolchains/gcc_arm/gcc-arm-none-eabi-6-2017-q2-update/arm-none-eabi/include/c++/6.3.1/iostream **** #include <ostream>
  40:/home/zkmike/.local/share/renesas/e2_studio/toolchains/gcc_arm/gcc-arm-none-eabi-6-2017-q2-update/arm-none-eabi/include/c++/6.3.1/iostream **** #include <istream>
  41:/home/zkmike/.local/share/renesas/e2_studio/toolchains/gcc_arm/gcc-arm-none-eabi-6-2017-q2-update/arm-none-eabi/include/c++/6.3.1/iostream **** 
  42:/home/zkmike/.local/share/renesas/e2_studio/toolchains/gcc_arm/gcc-arm-none-eabi-6-2017-q2-update/arm-none-eabi/include/c++/6.3.1/iostream **** namespace std _GLIBCXX_VISIBILITY(default)
  43:/home/zkmike/.local/share/renesas/e2_studio/toolchains/gcc_arm/gcc-arm-none-eabi-6-2017-q2-update/arm-none-eabi/include/c++/6.3.1/iostream **** {
  44:/home/zkmike/.local/share/renesas/e2_studio/toolchains/gcc_arm/gcc-arm-none-eabi-6-2017-q2-update/arm-none-eabi/include/c++/6.3.1/iostream **** _GLIBCXX_BEGIN_NAMESPACE_VERSION
  45:/home/zkmike/.local/share/renesas/e2_studio/toolchains/gcc_arm/gcc-arm-none-eabi-6-2017-q2-update/arm-none-eabi/include/c++/6.3.1/iostream **** 
  46:/home/zkmike/.local/share/renesas/e2_studio/toolchains/gcc_arm/gcc-arm-none-eabi-6-2017-q2-update/arm-none-eabi/include/c++/6.3.1/iostream ****   /**
  47:/home/zkmike/.local/share/renesas/e2_studio/toolchains/gcc_arm/gcc-arm-none-eabi-6-2017-q2-update/arm-none-eabi/include/c++/6.3.1/iostream ****    *  @name Standard Stream Objects
  48:/home/zkmike/.local/share/renesas/e2_studio/toolchains/gcc_arm/gcc-arm-none-eabi-6-2017-q2-update/arm-none-eabi/include/c++/6.3.1/iostream ****    *
  49:/home/zkmike/.local/share/renesas/e2_studio/toolchains/gcc_arm/gcc-arm-none-eabi-6-2017-q2-update/arm-none-eabi/include/c++/6.3.1/iostream ****    *  The &lt;iostream&gt; header declares the eight <em>standard stream
  50:/home/zkmike/.local/share/renesas/e2_studio/toolchains/gcc_arm/gcc-arm-none-eabi-6-2017-q2-update/arm-none-eabi/include/c++/6.3.1/iostream ****    *  objects</em>.  For other declarations, see
  51:/home/zkmike/.local/share/renesas/e2_studio/toolchains/gcc_arm/gcc-arm-none-eabi-6-2017-q2-update/arm-none-eabi/include/c++/6.3.1/iostream ****    *  http://gcc.gnu.org/onlinedocs/libstdc++/manual/io.html
  52:/home/zkmike/.local/share/renesas/e2_studio/toolchains/gcc_arm/gcc-arm-none-eabi-6-2017-q2-update/arm-none-eabi/include/c++/6.3.1/iostream ****    *  and the @link iosfwd I/O forward declarations @endlink
  53:/home/zkmike/.local/share/renesas/e2_studio/toolchains/gcc_arm/gcc-arm-none-eabi-6-2017-q2-update/arm-none-eabi/include/c++/6.3.1/iostream ****    *
  54:/home/zkmike/.local/share/renesas/e2_studio/toolchains/gcc_arm/gcc-arm-none-eabi-6-2017-q2-update/arm-none-eabi/include/c++/6.3.1/iostream ****    *  They are required by default to cooperate with the global C
  55:/home/zkmike/.local/share/renesas/e2_studio/toolchains/gcc_arm/gcc-arm-none-eabi-6-2017-q2-update/arm-none-eabi/include/c++/6.3.1/iostream ****    *  library's @c FILE streams, and to be available during program
  56:/home/zkmike/.local/share/renesas/e2_studio/toolchains/gcc_arm/gcc-arm-none-eabi-6-2017-q2-update/arm-none-eabi/include/c++/6.3.1/iostream ****    *  startup and termination. For more information, see the section of the
  57:/home/zkmike/.local/share/renesas/e2_studio/toolchains/gcc_arm/gcc-arm-none-eabi-6-2017-q2-update/arm-none-eabi/include/c++/6.3.1/iostream ****    *  manual linked to above.
  58:/home/zkmike/.local/share/renesas/e2_studio/toolchains/gcc_arm/gcc-arm-none-eabi-6-2017-q2-update/arm-none-eabi/include/c++/6.3.1/iostream ****   */
  59:/home/zkmike/.local/share/renesas/e2_studio/toolchains/gcc_arm/gcc-arm-none-eabi-6-2017-q2-update/arm-none-eabi/include/c++/6.3.1/iostream ****   //@{
  60:/home/zkmike/.local/share/renesas/e2_studio/toolchains/gcc_arm/gcc-arm-none-eabi-6-2017-q2-update/arm-none-eabi/include/c++/6.3.1/iostream ****   extern istream cin;		/// Linked to standard input
  61:/home/zkmike/.local/share/renesas/e2_studio/toolchains/gcc_arm/gcc-arm-none-eabi-6-2017-q2-update/arm-none-eabi/include/c++/6.3.1/iostream ****   extern ostream cout;		/// Linked to standard output
  62:/home/zkmike/.local/share/renesas/e2_studio/toolchains/gcc_arm/gcc-arm-none-eabi-6-2017-q2-update/arm-none-eabi/include/c++/6.3.1/iostream ****   extern ostream cerr;		/// Linked to standard error (unbuffered)
  63:/home/zkmike/.local/share/renesas/e2_studio/toolchains/gcc_arm/gcc-arm-none-eabi-6-2017-q2-update/arm-none-eabi/include/c++/6.3.1/iostream ****   extern ostream clog;		/// Linked to standard error (buffered)
  64:/home/zkmike/.local/share/renesas/e2_studio/toolchains/gcc_arm/gcc-arm-none-eabi-6-2017-q2-update/arm-none-eabi/include/c++/6.3.1/iostream **** 
  65:/home/zkmike/.local/share/renesas/e2_studio/toolchains/gcc_arm/gcc-arm-none-eabi-6-2017-q2-update/arm-none-eabi/include/c++/6.3.1/iostream **** #ifdef _GLIBCXX_USE_WCHAR_T
  66:/home/zkmike/.local/share/renesas/e2_studio/toolchains/gcc_arm/gcc-arm-none-eabi-6-2017-q2-update/arm-none-eabi/include/c++/6.3.1/iostream ****   extern wistream wcin;		/// Linked to standard input
  67:/home/zkmike/.local/share/renesas/e2_studio/toolchains/gcc_arm/gcc-arm-none-eabi-6-2017-q2-update/arm-none-eabi/include/c++/6.3.1/iostream ****   extern wostream wcout;	/// Linked to standard output
  68:/home/zkmike/.local/share/renesas/e2_studio/toolchains/gcc_arm/gcc-arm-none-eabi-6-2017-q2-update/arm-none-eabi/include/c++/6.3.1/iostream ****   extern wostream wcerr;	/// Linked to standard error (unbuffered)
  69:/home/zkmike/.local/share/renesas/e2_studio/toolchains/gcc_arm/gcc-arm-none-eabi-6-2017-q2-update/arm-none-eabi/include/c++/6.3.1/iostream ****   extern wostream wclog;	/// Linked to standard error (buffered)
  70:/home/zkmike/.local/share/renesas/e2_studio/toolchains/gcc_arm/gcc-arm-none-eabi-6-2017-q2-update/arm-none-eabi/include/c++/6.3.1/iostream **** #endif
  71:/home/zkmike/.local/share/renesas/e2_studio/toolchains/gcc_arm/gcc-arm-none-eabi-6-2017-q2-update/arm-none-eabi/include/c++/6.3.1/iostream ****   //@}
  72:/home/zkmike/.local/share/renesas/e2_studio/toolchains/gcc_arm/gcc-arm-none-eabi-6-2017-q2-update/arm-none-eabi/include/c++/6.3.1/iostream **** 
  73:/home/zkmike/.local/share/renesas/e2_studio/toolchains/gcc_arm/gcc-arm-none-eabi-6-2017-q2-update/arm-none-eabi/include/c++/6.3.1/iostream ****   // For construction of filebuffers for cout, cin, cerr, clog et. al.
  74:/home/zkmike/.local/share/renesas/e2_studio/toolchains/gcc_arm/gcc-arm-none-eabi-6-2017-q2-update/arm-none-eabi/include/c++/6.3.1/iostream ****   static ios_base::Init __ioinit;
 449              		.loc 6 74 0 is_stmt 1
 450 0018 004000E3 		movw	r4, #:lower16:.LANCHOR1
 451 001c 004040E3 		movt	r4, #:upper16:.LANCHOR1
 452 0020 0400A0E1 		mov	r0, r4
 453              	.LVL36:
 454 0024 FEFFFFEB 		bl	_ZNSt8ios_base4InitC1Ev
 455              	.LVL37:
 456 0028 002000E3 		movw	r2, #:lower16:__dso_handle
 457 002c 002040E3 		movt	r2, #:upper16:__dso_handle
 458 0030 001000E3 		movw	r1, #:lower16:_ZNSt8ios_base4InitD1Ev
 459 0034 001040E3 		movt	r1, #:upper16:_ZNSt8ios_base4InitD1Ev
 460 0038 0400A0E1 		mov	r0, r4
 461 003c FEFFFFEB 		bl	__aeabi_atexit
 462              	.LVL38:
 463 0040 1080BDE8 		pop	{r4, pc}
 464              		.cfi_endproc
 465              	.LFE2866:
 466              		.cantunwind
 467              		.fnend
 469              		.section	.text._ZN5zxing15ReaderExceptionD2Ev,"axG",%progbits,_ZN5zxing15ReaderExceptionD5Ev,comda
 470              		.align	2
 471              		.weak	_ZN5zxing15ReaderExceptionD2Ev
 472              		.syntax unified
 473              		.arm
 474              		.fpu neon
 476              	_ZN5zxing15ReaderExceptionD2Ev:
 477              		.fnstart
 478              	.LFB2249:
 479              		.file 7 "/home/zkmike/workspace/RZA2M/rza2m_2d_barcode_sample_freertos_gcc/src/zxing_lib/zxing/Rea
   1:/home/zkmike/workspace/RZA2M/rza2m_2d_barcode_sample_freertos_gcc/src/zxing_lib/zxing/ReaderException.h **** // -*- mode:c++; tab-width:2; indent-tabs-mode:nil; c-basic-offset:2 -*-
   2:/home/zkmike/workspace/RZA2M/rza2m_2d_barcode_sample_freertos_gcc/src/zxing_lib/zxing/ReaderException.h **** #ifndef __READER_EXCEPTION_H__
   3:/home/zkmike/workspace/RZA2M/rza2m_2d_barcode_sample_freertos_gcc/src/zxing_lib/zxing/ReaderException.h **** #define __READER_EXCEPTION_H__
   4:/home/zkmike/workspace/RZA2M/rza2m_2d_barcode_sample_freertos_gcc/src/zxing_lib/zxing/ReaderException.h **** 
   5:/home/zkmike/workspace/RZA2M/rza2m_2d_barcode_sample_freertos_gcc/src/zxing_lib/zxing/ReaderException.h **** /*
   6:/home/zkmike/workspace/RZA2M/rza2m_2d_barcode_sample_freertos_gcc/src/zxing_lib/zxing/ReaderException.h ****  *  ReaderException.h
   7:/home/zkmike/workspace/RZA2M/rza2m_2d_barcode_sample_freertos_gcc/src/zxing_lib/zxing/ReaderException.h ****  *  zxing
   8:/home/zkmike/workspace/RZA2M/rza2m_2d_barcode_sample_freertos_gcc/src/zxing_lib/zxing/ReaderException.h ****  *
   9:/home/zkmike/workspace/RZA2M/rza2m_2d_barcode_sample_freertos_gcc/src/zxing_lib/zxing/ReaderException.h ****  *  Copyright 2010 ZXing authors All rights reserved.
  10:/home/zkmike/workspace/RZA2M/rza2m_2d_barcode_sample_freertos_gcc/src/zxing_lib/zxing/ReaderException.h ****  *
  11:/home/zkmike/workspace/RZA2M/rza2m_2d_barcode_sample_freertos_gcc/src/zxing_lib/zxing/ReaderException.h ****  * Licensed under the Apache License, Version 2.0 (the "License");
  12:/home/zkmike/workspace/RZA2M/rza2m_2d_barcode_sample_freertos_gcc/src/zxing_lib/zxing/ReaderException.h ****  * you may not use this file except in compliance with the License.
  13:/home/zkmike/workspace/RZA2M/rza2m_2d_barcode_sample_freertos_gcc/src/zxing_lib/zxing/ReaderException.h ****  * You may obtain a copy of the License at
  14:/home/zkmike/workspace/RZA2M/rza2m_2d_barcode_sample_freertos_gcc/src/zxing_lib/zxing/ReaderException.h ****  *
  15:/home/zkmike/workspace/RZA2M/rza2m_2d_barcode_sample_freertos_gcc/src/zxing_lib/zxing/ReaderException.h ****  *      http://www.apache.org/licenses/LICENSE-2.0
  16:/home/zkmike/workspace/RZA2M/rza2m_2d_barcode_sample_freertos_gcc/src/zxing_lib/zxing/ReaderException.h ****  *
  17:/home/zkmike/workspace/RZA2M/rza2m_2d_barcode_sample_freertos_gcc/src/zxing_lib/zxing/ReaderException.h ****  * Unless required by applicable law or agreed to in writing, software
  18:/home/zkmike/workspace/RZA2M/rza2m_2d_barcode_sample_freertos_gcc/src/zxing_lib/zxing/ReaderException.h ****  * distributed under the License is distributed on an "AS IS" BASIS,
  19:/home/zkmike/workspace/RZA2M/rza2m_2d_barcode_sample_freertos_gcc/src/zxing_lib/zxing/ReaderException.h ****  * WITHOUT WARRANTIES OR CONDITIONS OF ANY KIND, either express or implied.
  20:/home/zkmike/workspace/RZA2M/rza2m_2d_barcode_sample_freertos_gcc/src/zxing_lib/zxing/ReaderException.h ****  * See the License for the specific language governing permissions and
  21:/home/zkmike/workspace/RZA2M/rza2m_2d_barcode_sample_freertos_gcc/src/zxing_lib/zxing/ReaderException.h ****  * limitations under the License.
  22:/home/zkmike/workspace/RZA2M/rza2m_2d_barcode_sample_freertos_gcc/src/zxing_lib/zxing/ReaderException.h ****  */
  23:/home/zkmike/workspace/RZA2M/rza2m_2d_barcode_sample_freertos_gcc/src/zxing_lib/zxing/ReaderException.h **** 
  24:/home/zkmike/workspace/RZA2M/rza2m_2d_barcode_sample_freertos_gcc/src/zxing_lib/zxing/ReaderException.h **** #include <zxing/Exception.h>
  25:/home/zkmike/workspace/RZA2M/rza2m_2d_barcode_sample_freertos_gcc/src/zxing_lib/zxing/ReaderException.h **** 
  26:/home/zkmike/workspace/RZA2M/rza2m_2d_barcode_sample_freertos_gcc/src/zxing_lib/zxing/ReaderException.h **** namespace zxing {
  27:/home/zkmike/workspace/RZA2M/rza2m_2d_barcode_sample_freertos_gcc/src/zxing_lib/zxing/ReaderException.h **** 
  28:/home/zkmike/workspace/RZA2M/rza2m_2d_barcode_sample_freertos_gcc/src/zxing_lib/zxing/ReaderException.h **** class ReaderException : public Exception {
  29:/home/zkmike/workspace/RZA2M/rza2m_2d_barcode_sample_freertos_gcc/src/zxing_lib/zxing/ReaderException.h ****  public:
  30:/home/zkmike/workspace/RZA2M/rza2m_2d_barcode_sample_freertos_gcc/src/zxing_lib/zxing/ReaderException.h ****   ReaderException() throw() {}
  31:/home/zkmike/workspace/RZA2M/rza2m_2d_barcode_sample_freertos_gcc/src/zxing_lib/zxing/ReaderException.h ****   ReaderException(char const* msg) throw() : Exception(msg) {}
  32:/home/zkmike/workspace/RZA2M/rza2m_2d_barcode_sample_freertos_gcc/src/zxing_lib/zxing/ReaderException.h ****   ~ReaderException() throw() {}
 480              		.loc 7 32 0
 481              		.cfi_startproc
 482              		.cfi_personality 0,__gxx_personality_v0
 483              		.cfi_lsda 0,.LLSDA2249
 484              		@ args = 0, pretend = 0, frame = 0
 485              		@ frame_needed = 0, uses_anonymous_args = 0
 486              	.LVL39:
 487 0000 70402DE9 		push	{r4, r5, r6, lr}
 488              		.save {r4, r5, r6, lr}
 489              		.cfi_def_cfa_offset 16
 490              		.cfi_offset 4, -16
 491              		.cfi_offset 5, -12
 492              		.cfi_offset 6, -8
 493              		.cfi_offset 14, -4
 494 0004 0040A0E1 		mov	r4, r0
 495              	.LVL40:
 496              	.LBB789:
 497              	.LBB790:
 498              	.LBB791:
 499              	.LBB792:
  37:/home/zkmike/workspace/RZA2M/rza2m_2d_barcode_sample_freertos_gcc/src/zxing_lib/zxing/Exception.h ****     if(message) {
 500              		.loc 1 37 0
 501 0008 48309FE5 		ldr	r3, .L40
 502 000c 003080E5 		str	r3, [r0]
  38:/home/zkmike/workspace/RZA2M/rza2m_2d_barcode_sample_freertos_gcc/src/zxing_lib/zxing/Exception.h ****       deleteMessage();
 503              		.loc 1 38 0
 504 0010 043090E5 		ldr	r3, [r0, #4]
 505 0014 000053E3 		cmp	r3, #0
 506 0018 0A00000A 		beq	.L34
 507              	.LEHB2:
