   1              		.cpu cortex-a9
   2              		.eabi_attribute 28, 1
   3              		.eabi_attribute 20, 1
   4              		.eabi_attribute 21, 1
   5              		.eabi_attribute 23, 3
   6              		.eabi_attribute 24, 1
   7              		.eabi_attribute 25, 1
   8              		.eabi_attribute 26, 1
   9              		.eabi_attribute 30, 1
  10              		.eabi_attribute 34, 0
  11              		.eabi_attribute 18, 4
  12              		.file	"FinderPatternFinder.cpp"
  13              		.text
  14              	.Ltext0:
  15              		.cfi_sections	.debug_frame
  16              		.section	.text._ZNK5zxing9Exception4whatEv,"axG",%progbits,_ZNK5zxing9Exception4whatEv,comdat
  17              		.align	2
  18              		.weak	_ZNK5zxing9Exception4whatEv
  19              		.syntax unified
  20              		.arm
  21              		.fpu neon
  23              	_ZNK5zxing9Exception4whatEv:
  24              		.fnstart
  25              	.LFB2488:
  26              		.file 1 "/home/zkmike/workspace/RZA2M/rza2m_2d_barcode_sample_freertos_gcc/src/zxing_lib/zxing/Exc
   1:/home/zkmike/workspace/RZA2M/rza2m_2d_barcode_sample_freertos_gcc/src/zxing_lib/zxing/Exception.h **** // -*- mode:c++; tab-width:2; indent-tabs-mode:nil; c-basic-offset:2 -*-
   2:/home/zkmike/workspace/RZA2M/rza2m_2d_barcode_sample_freertos_gcc/src/zxing_lib/zxing/Exception.h **** #ifndef __EXCEPTION_H__
   3:/home/zkmike/workspace/RZA2M/rza2m_2d_barcode_sample_freertos_gcc/src/zxing_lib/zxing/Exception.h **** #define __EXCEPTION_H__
   4:/home/zkmike/workspace/RZA2M/rza2m_2d_barcode_sample_freertos_gcc/src/zxing_lib/zxing/Exception.h **** 
   5:/home/zkmike/workspace/RZA2M/rza2m_2d_barcode_sample_freertos_gcc/src/zxing_lib/zxing/Exception.h **** /*
   6:/home/zkmike/workspace/RZA2M/rza2m_2d_barcode_sample_freertos_gcc/src/zxing_lib/zxing/Exception.h ****  *  Exception.h
   7:/home/zkmike/workspace/RZA2M/rza2m_2d_barcode_sample_freertos_gcc/src/zxing_lib/zxing/Exception.h ****  *  ZXing
   8:/home/zkmike/workspace/RZA2M/rza2m_2d_barcode_sample_freertos_gcc/src/zxing_lib/zxing/Exception.h ****  *
   9:/home/zkmike/workspace/RZA2M/rza2m_2d_barcode_sample_freertos_gcc/src/zxing_lib/zxing/Exception.h ****  *  Copyright 2010 ZXing authors All rights reserved.
  10:/home/zkmike/workspace/RZA2M/rza2m_2d_barcode_sample_freertos_gcc/src/zxing_lib/zxing/Exception.h ****  *
  11:/home/zkmike/workspace/RZA2M/rza2m_2d_barcode_sample_freertos_gcc/src/zxing_lib/zxing/Exception.h ****  * Licensed under the Apache License, Version 2.0 (the "License");
  12:/home/zkmike/workspace/RZA2M/rza2m_2d_barcode_sample_freertos_gcc/src/zxing_lib/zxing/Exception.h ****  * you may not use this file except in compliance with the License.
  13:/home/zkmike/workspace/RZA2M/rza2m_2d_barcode_sample_freertos_gcc/src/zxing_lib/zxing/Exception.h ****  * You may obtain a copy of the License at
  14:/home/zkmike/workspace/RZA2M/rza2m_2d_barcode_sample_freertos_gcc/src/zxing_lib/zxing/Exception.h ****  *
  15:/home/zkmike/workspace/RZA2M/rza2m_2d_barcode_sample_freertos_gcc/src/zxing_lib/zxing/Exception.h ****  *      http://www.apache.org/licenses/LICENSE-2.0
  16:/home/zkmike/workspace/RZA2M/rza2m_2d_barcode_sample_freertos_gcc/src/zxing_lib/zxing/Exception.h ****  *
  17:/home/zkmike/workspace/RZA2M/rza2m_2d_barcode_sample_freertos_gcc/src/zxing_lib/zxing/Exception.h ****  * Unless required by applicable law or agreed to in writing, software
  18:/home/zkmike/workspace/RZA2M/rza2m_2d_barcode_sample_freertos_gcc/src/zxing_lib/zxing/Exception.h ****  * distributed under the License is distributed on an "AS IS" BASIS,
  19:/home/zkmike/workspace/RZA2M/rza2m_2d_barcode_sample_freertos_gcc/src/zxing_lib/zxing/Exception.h ****  * WITHOUT WARRANTIES OR CONDITIONS OF ANY KIND, either express or implied.
  20:/home/zkmike/workspace/RZA2M/rza2m_2d_barcode_sample_freertos_gcc/src/zxing_lib/zxing/Exception.h ****  * See the License for the specific language governing permissions and
  21:/home/zkmike/workspace/RZA2M/rza2m_2d_barcode_sample_freertos_gcc/src/zxing_lib/zxing/Exception.h ****  * limitations under the License.
  22:/home/zkmike/workspace/RZA2M/rza2m_2d_barcode_sample_freertos_gcc/src/zxing_lib/zxing/Exception.h ****  */
  23:/home/zkmike/workspace/RZA2M/rza2m_2d_barcode_sample_freertos_gcc/src/zxing_lib/zxing/Exception.h **** 
  24:/home/zkmike/workspace/RZA2M/rza2m_2d_barcode_sample_freertos_gcc/src/zxing_lib/zxing/Exception.h **** #include <string>
  25:/home/zkmike/workspace/RZA2M/rza2m_2d_barcode_sample_freertos_gcc/src/zxing_lib/zxing/Exception.h **** #include <exception>
  26:/home/zkmike/workspace/RZA2M/rza2m_2d_barcode_sample_freertos_gcc/src/zxing_lib/zxing/Exception.h **** 
  27:/home/zkmike/workspace/RZA2M/rza2m_2d_barcode_sample_freertos_gcc/src/zxing_lib/zxing/Exception.h **** namespace zxing {
  28:/home/zkmike/workspace/RZA2M/rza2m_2d_barcode_sample_freertos_gcc/src/zxing_lib/zxing/Exception.h **** 
  29:/home/zkmike/workspace/RZA2M/rza2m_2d_barcode_sample_freertos_gcc/src/zxing_lib/zxing/Exception.h **** class Exception : public std::exception {
  30:/home/zkmike/workspace/RZA2M/rza2m_2d_barcode_sample_freertos_gcc/src/zxing_lib/zxing/Exception.h **** private:
  31:/home/zkmike/workspace/RZA2M/rza2m_2d_barcode_sample_freertos_gcc/src/zxing_lib/zxing/Exception.h ****   char const* const message;
  32:/home/zkmike/workspace/RZA2M/rza2m_2d_barcode_sample_freertos_gcc/src/zxing_lib/zxing/Exception.h **** 
  33:/home/zkmike/workspace/RZA2M/rza2m_2d_barcode_sample_freertos_gcc/src/zxing_lib/zxing/Exception.h **** public:
  34:/home/zkmike/workspace/RZA2M/rza2m_2d_barcode_sample_freertos_gcc/src/zxing_lib/zxing/Exception.h ****   Exception() throw() : message(0) {}
  35:/home/zkmike/workspace/RZA2M/rza2m_2d_barcode_sample_freertos_gcc/src/zxing_lib/zxing/Exception.h ****   Exception(const char* msg) throw() : message(copy(msg)) {}
  36:/home/zkmike/workspace/RZA2M/rza2m_2d_barcode_sample_freertos_gcc/src/zxing_lib/zxing/Exception.h ****   Exception(Exception const& that) throw() : std::exception(that), message(copy(that.message)) {}
  37:/home/zkmike/workspace/RZA2M/rza2m_2d_barcode_sample_freertos_gcc/src/zxing_lib/zxing/Exception.h ****   ~Exception() throw() {
  38:/home/zkmike/workspace/RZA2M/rza2m_2d_barcode_sample_freertos_gcc/src/zxing_lib/zxing/Exception.h ****     if(message) {
  39:/home/zkmike/workspace/RZA2M/rza2m_2d_barcode_sample_freertos_gcc/src/zxing_lib/zxing/Exception.h ****       deleteMessage();
  40:/home/zkmike/workspace/RZA2M/rza2m_2d_barcode_sample_freertos_gcc/src/zxing_lib/zxing/Exception.h ****     }
  41:/home/zkmike/workspace/RZA2M/rza2m_2d_barcode_sample_freertos_gcc/src/zxing_lib/zxing/Exception.h ****   }
  42:/home/zkmike/workspace/RZA2M/rza2m_2d_barcode_sample_freertos_gcc/src/zxing_lib/zxing/Exception.h ****   char const* what() const throw() {return message ? message : "";}
  27              		.loc 1 42 0
  28              		.cfi_startproc
  29              		@ args = 0, pretend = 0, frame = 0
  30              		@ frame_needed = 0, uses_anonymous_args = 0
  31              		@ link register save eliminated.
  32              	.LVL0:
  33              		.loc 1 42 0
  34 0000 040090E5 		ldr	r0, [r0, #4]
  35              	.LVL1:
  36 0004 000050E3 		cmp	r0, #0
  37 0008 1EFF2F11 		bxne	lr
  38 000c 000000E3 		movw	r0, #:lower16:.LC0
  39 0010 000040E3 		movt	r0, #:upper16:.LC0
  40 0014 1EFF2FE1 		bx	lr
  41              		.cfi_endproc
  42              	.LFE2488:
  43              		.cantunwind
  44              		.fnend
  46              		.section	.text._ZN5zxing9ExceptionD2Ev,"axG",%progbits,_ZN5zxing9ExceptionD5Ev,comdat
  47              		.align	2
  48              		.weak	_ZN5zxing9ExceptionD2Ev
  49              		.syntax unified
  50              		.arm
  51              		.fpu neon
  53              	_ZN5zxing9ExceptionD2Ev:
  54              		.fnstart
  55              	.LFB2485:
  37:/home/zkmike/workspace/RZA2M/rza2m_2d_barcode_sample_freertos_gcc/src/zxing_lib/zxing/Exception.h ****     if(message) {
  56              		.loc 1 37 0
  57              		.cfi_startproc
  58              		.cfi_personality 0,__gxx_personality_v0
  59              		.cfi_lsda 0,.LLSDA2485
  60              		@ args = 0, pretend = 0, frame = 0
  61              		@ frame_needed = 0, uses_anonymous_args = 0
  62              	.LVL2:
  63 0000 70402DE9 		push	{r4, r5, r6, lr}
  64              		.save {r4, r5, r6, lr}
  65              		.cfi_def_cfa_offset 16
  66              		.cfi_offset 4, -16
  67              		.cfi_offset 5, -12
  68              		.cfi_offset 6, -8
  69              		.cfi_offset 14, -4
  70 0004 0040A0E1 		mov	r4, r0
  71              	.LBB2461:
  37:/home/zkmike/workspace/RZA2M/rza2m_2d_barcode_sample_freertos_gcc/src/zxing_lib/zxing/Exception.h ****     if(message) {
  72              		.loc 1 37 0
  73 0008 48309FE5 		ldr	r3, .L10
  74 000c 003080E5 		str	r3, [r0]
  38:/home/zkmike/workspace/RZA2M/rza2m_2d_barcode_sample_freertos_gcc/src/zxing_lib/zxing/Exception.h ****       deleteMessage();
  75              		.loc 1 38 0
  76 0010 043090E5 		ldr	r3, [r0, #4]
  77 0014 000053E3 		cmp	r3, #0
  78 0018 0A00000A 		beq	.L4
  79              	.LEHB0:
  39:/home/zkmike/workspace/RZA2M/rza2m_2d_barcode_sample_freertos_gcc/src/zxing_lib/zxing/Exception.h ****     }
  80              		.loc 1 39 0
  81 001c FEFFFFEB 		bl	_ZN5zxing9Exception13deleteMessageEv
  82              	.LVL3:
  83              	.LEHE0:
  84 0020 080000EA 		b	.L4
  85              	.L7:
  86 0024 0050A0E1 		mov	r5, r0
  87 0028 0160A0E1 		mov	r6, r1
  37:/home/zkmike/workspace/RZA2M/rza2m_2d_barcode_sample_freertos_gcc/src/zxing_lib/zxing/Exception.h ****     if(message) {
  88              		.loc 1 37 0
  89 002c 0400A0E1 		mov	r0, r4
  90 0030 FEFFFFEB 		bl	_ZNSt9exceptionD2Ev
  91              	.LVL4:
  92 0034 010076E3 		cmn	r6, #1
  93 0038 0000000A 		beq	.L6
  94              	.LEHB1:
  95 003c FEFFFFEB 		bl	__cxa_end_cleanup
  96              	.LVL5:
  97              	.L6:
  98              	.LBE2461:
  99 0040 0500A0E1 		mov	r0, r5
 100 0044 FEFFFFEB 		bl	__cxa_call_unexpected
 101              	.LVL6:
 102              	.LEHE1:
 103              	.L4:
 104              	.LBB2462:
 105 0048 0400A0E1 		mov	r0, r4
 106 004c FEFFFFEB 		bl	_ZNSt9exceptionD2Ev
 107              	.LVL7:
 108              	.LBE2462:
  41:/home/zkmike/workspace/RZA2M/rza2m_2d_barcode_sample_freertos_gcc/src/zxing_lib/zxing/Exception.h ****   char const* what() const throw() {return message ? message : "";}
 109              		.loc 1 41 0
 110 0050 0400A0E1 		mov	r0, r4
 111 0054 7080BDE8 		pop	{r4, r5, r6, pc}
 112              	.L11:
 113              		.align	2
 114              	.L10:
 115 0058 08000000 		.word	_ZTVN5zxing9ExceptionE+8
 116              		.cfi_endproc
 117              	.LFE2485:
 118              		.global	__gxx_personality_v0
 119              		.personality	__gxx_personality_v0
 120              		.handlerdata
 121              		.align	2
 122              	.LLSDA2485:
 123 0008 FF       		.byte	0xff
 124 0009 10       		.byte	0x10
 125 000a 11       		.uleb128 .LLSDATT2485-.LLSDATTD2485
 126              	.LLSDATTD2485:
 127 000b 01       		.byte	0x1
 128 000c 08       		.uleb128 .LLSDACSE2485-.LLSDACSB2485
 129              	.LLSDACSB2485:
 130 000d 1C       		.uleb128 .LEHB0-.LFB2485
 131 000e 04       		.uleb128 .LEHE0-.LEHB0
 132 000f 24       		.uleb128 .L7-.LFB2485
 133 0010 03       		.uleb128 0x3
 134 0011 3C       		.uleb128 .LEHB1-.LFB2485
 135 0012 0C       		.uleb128 .LEHE1-.LEHB1
 136 0013 00       		.uleb128 0
 137 0014 00       		.uleb128 0
 138              	.LLSDACSE2485:
 139 0015 7F       		.byte	0x7f
 140 0016 00       		.byte	0
 141 0017 00       		.byte	0
 142 0018 7D       		.byte	0x7d
 143 0019 000000   		.align	2
 144              	.LLSDATT2485:
 145 001c 00000000 		.word	0
 146              		.section	.text._ZN5zxing9ExceptionD2Ev,"axG",%progbits,_ZN5zxing9ExceptionD5Ev,comdat
 147              		.fnend
 149              		.weak	_ZN5zxing9ExceptionD1Ev
 150              		.set	_ZN5zxing9ExceptionD1Ev,_ZN5zxing9ExceptionD2Ev
 151              		.section	.text._Z41__static_initialization_and_destruction_0ii,"ax",%progbits
 152              		.align	2
 153              		.syntax unified
 154              		.arm
 155              		.fpu neon
 157              	_Z41__static_initialization_and_destruction_0ii:
 158              		.fnstart
 159              	.LFB3268:
 160              		.file 2 "../src/zxing_lib/zxing/qrcode/detector/FinderPatternFinder.cpp"
   1:../src/zxing_lib/zxing/qrcode/detector/FinderPatternFinder.cpp **** // -*- mode:c++; tab-width:2; indent-tabs-mode:nil; c-basic-offset:2 -*-
   2:../src/zxing_lib/zxing/qrcode/detector/FinderPatternFinder.cpp **** /*
   3:../src/zxing_lib/zxing/qrcode/detector/FinderPatternFinder.cpp ****  *  FinderPatternFinder.cpp
   4:../src/zxing_lib/zxing/qrcode/detector/FinderPatternFinder.cpp ****  *  zxing
   5:../src/zxing_lib/zxing/qrcode/detector/FinderPatternFinder.cpp ****  *
   6:../src/zxing_lib/zxing/qrcode/detector/FinderPatternFinder.cpp ****  *  Created by Christian Brunschen on 13/05/2008.
   7:../src/zxing_lib/zxing/qrcode/detector/FinderPatternFinder.cpp ****  *  Copyright 2008 ZXing authors All rights reserved.
   8:../src/zxing_lib/zxing/qrcode/detector/FinderPatternFinder.cpp ****  *
   9:../src/zxing_lib/zxing/qrcode/detector/FinderPatternFinder.cpp ****  * Licensed under the Apache License, Version 2.0 (the "License");
  10:../src/zxing_lib/zxing/qrcode/detector/FinderPatternFinder.cpp ****  * you may not use this file except in compliance with the License.
  11:../src/zxing_lib/zxing/qrcode/detector/FinderPatternFinder.cpp ****  * You may obtain a copy of the License at
  12:../src/zxing_lib/zxing/qrcode/detector/FinderPatternFinder.cpp ****  *
  13:../src/zxing_lib/zxing/qrcode/detector/FinderPatternFinder.cpp ****  *      http://www.apache.org/licenses/LICENSE-2.0
  14:../src/zxing_lib/zxing/qrcode/detector/FinderPatternFinder.cpp ****  *
  15:../src/zxing_lib/zxing/qrcode/detector/FinderPatternFinder.cpp ****  * Unless required by applicable law or agreed to in writing, software
  16:../src/zxing_lib/zxing/qrcode/detector/FinderPatternFinder.cpp ****  * distributed under the License is distributed on an "AS IS" BASIS,
  17:../src/zxing_lib/zxing/qrcode/detector/FinderPatternFinder.cpp ****  * WITHOUT WARRANTIES OR CONDITIONS OF ANY KIND, either express or implied.
  18:../src/zxing_lib/zxing/qrcode/detector/FinderPatternFinder.cpp ****  * See the License for the specific language governing permissions and
  19:../src/zxing_lib/zxing/qrcode/detector/FinderPatternFinder.cpp ****  * limitations under the License.
  20:../src/zxing_lib/zxing/qrcode/detector/FinderPatternFinder.cpp ****  */
  21:../src/zxing_lib/zxing/qrcode/detector/FinderPatternFinder.cpp **** 
  22:../src/zxing_lib/zxing/qrcode/detector/FinderPatternFinder.cpp **** #include <algorithm>
  23:../src/zxing_lib/zxing/qrcode/detector/FinderPatternFinder.cpp **** #include <zxing/qrcode/detector/FinderPatternFinder.h>
  24:../src/zxing_lib/zxing/qrcode/detector/FinderPatternFinder.cpp **** #include <zxing/ReaderException.h>
  25:../src/zxing_lib/zxing/qrcode/detector/FinderPatternFinder.cpp **** #include <zxing/DecodeHints.h>
  26:../src/zxing_lib/zxing/qrcode/detector/FinderPatternFinder.cpp **** 
  27:../src/zxing_lib/zxing/qrcode/detector/FinderPatternFinder.cpp **** using std::sort;
  28:../src/zxing_lib/zxing/qrcode/detector/FinderPatternFinder.cpp **** using std::max;
  29:../src/zxing_lib/zxing/qrcode/detector/FinderPatternFinder.cpp **** using std::abs;
  30:../src/zxing_lib/zxing/qrcode/detector/FinderPatternFinder.cpp **** using std::vector;
  31:../src/zxing_lib/zxing/qrcode/detector/FinderPatternFinder.cpp **** using zxing::Ref;
  32:../src/zxing_lib/zxing/qrcode/detector/FinderPatternFinder.cpp **** using zxing::qrcode::FinderPatternFinder;
  33:../src/zxing_lib/zxing/qrcode/detector/FinderPatternFinder.cpp **** using zxing::qrcode::FinderPattern;
  34:../src/zxing_lib/zxing/qrcode/detector/FinderPatternFinder.cpp **** using zxing::qrcode::FinderPatternInfo;
  35:../src/zxing_lib/zxing/qrcode/detector/FinderPatternFinder.cpp **** 
  36:../src/zxing_lib/zxing/qrcode/detector/FinderPatternFinder.cpp **** // VC++
  37:../src/zxing_lib/zxing/qrcode/detector/FinderPatternFinder.cpp **** 
  38:../src/zxing_lib/zxing/qrcode/detector/FinderPatternFinder.cpp **** using zxing::BitMatrix;
  39:../src/zxing_lib/zxing/qrcode/detector/FinderPatternFinder.cpp **** using zxing::ResultPointCallback;
  40:../src/zxing_lib/zxing/qrcode/detector/FinderPatternFinder.cpp **** using zxing::ResultPoint;
  41:../src/zxing_lib/zxing/qrcode/detector/FinderPatternFinder.cpp **** using zxing::DecodeHints;
  42:../src/zxing_lib/zxing/qrcode/detector/FinderPatternFinder.cpp **** 
  43:../src/zxing_lib/zxing/qrcode/detector/FinderPatternFinder.cpp **** namespace {
  44:../src/zxing_lib/zxing/qrcode/detector/FinderPatternFinder.cpp **** 
  45:../src/zxing_lib/zxing/qrcode/detector/FinderPatternFinder.cpp **** class FurthestFromAverageComparator {
  46:../src/zxing_lib/zxing/qrcode/detector/FinderPatternFinder.cpp **** private:
  47:../src/zxing_lib/zxing/qrcode/detector/FinderPatternFinder.cpp ****   const float averageModuleSize_;
  48:../src/zxing_lib/zxing/qrcode/detector/FinderPatternFinder.cpp **** public:
  49:../src/zxing_lib/zxing/qrcode/detector/FinderPatternFinder.cpp ****   FurthestFromAverageComparator(float averageModuleSize) :
  50:../src/zxing_lib/zxing/qrcode/detector/FinderPatternFinder.cpp ****     averageModuleSize_(averageModuleSize) {
  51:../src/zxing_lib/zxing/qrcode/detector/FinderPatternFinder.cpp ****   }
  52:../src/zxing_lib/zxing/qrcode/detector/FinderPatternFinder.cpp ****   bool operator()(Ref<FinderPattern> a, Ref<FinderPattern> b) {
  53:../src/zxing_lib/zxing/qrcode/detector/FinderPatternFinder.cpp ****     float dA = abs(a->getEstimatedModuleSize() - averageModuleSize_);
  54:../src/zxing_lib/zxing/qrcode/detector/FinderPatternFinder.cpp ****     float dB = abs(b->getEstimatedModuleSize() - averageModuleSize_);
  55:../src/zxing_lib/zxing/qrcode/detector/FinderPatternFinder.cpp ****     return dA > dB;
  56:../src/zxing_lib/zxing/qrcode/detector/FinderPatternFinder.cpp ****   }
  57:../src/zxing_lib/zxing/qrcode/detector/FinderPatternFinder.cpp **** };
  58:../src/zxing_lib/zxing/qrcode/detector/FinderPatternFinder.cpp **** 
  59:../src/zxing_lib/zxing/qrcode/detector/FinderPatternFinder.cpp **** class CenterComparator {
  60:../src/zxing_lib/zxing/qrcode/detector/FinderPatternFinder.cpp ****   const float averageModuleSize_;
  61:../src/zxing_lib/zxing/qrcode/detector/FinderPatternFinder.cpp **** public:
  62:../src/zxing_lib/zxing/qrcode/detector/FinderPatternFinder.cpp ****   CenterComparator(float averageModuleSize) :
  63:../src/zxing_lib/zxing/qrcode/detector/FinderPatternFinder.cpp ****     averageModuleSize_(averageModuleSize) {
  64:../src/zxing_lib/zxing/qrcode/detector/FinderPatternFinder.cpp ****   }
  65:../src/zxing_lib/zxing/qrcode/detector/FinderPatternFinder.cpp ****   bool operator()(Ref<FinderPattern> a, Ref<FinderPattern> b) {
  66:../src/zxing_lib/zxing/qrcode/detector/FinderPatternFinder.cpp ****     // N.B.: we want the result in descending order ...
  67:../src/zxing_lib/zxing/qrcode/detector/FinderPatternFinder.cpp ****     if (a->getCount() != b->getCount()) {
  68:../src/zxing_lib/zxing/qrcode/detector/FinderPatternFinder.cpp ****       return a->getCount() > b->getCount();
  69:../src/zxing_lib/zxing/qrcode/detector/FinderPatternFinder.cpp ****     } else {
  70:../src/zxing_lib/zxing/qrcode/detector/FinderPatternFinder.cpp ****       float dA = abs(a->getEstimatedModuleSize() - averageModuleSize_);
  71:../src/zxing_lib/zxing/qrcode/detector/FinderPatternFinder.cpp ****       float dB = abs(b->getEstimatedModuleSize() - averageModuleSize_);
  72:../src/zxing_lib/zxing/qrcode/detector/FinderPatternFinder.cpp ****       return dA < dB;
  73:../src/zxing_lib/zxing/qrcode/detector/FinderPatternFinder.cpp ****     }
  74:../src/zxing_lib/zxing/qrcode/detector/FinderPatternFinder.cpp ****   }
  75:../src/zxing_lib/zxing/qrcode/detector/FinderPatternFinder.cpp **** };
  76:../src/zxing_lib/zxing/qrcode/detector/FinderPatternFinder.cpp **** 
  77:../src/zxing_lib/zxing/qrcode/detector/FinderPatternFinder.cpp **** }
  78:../src/zxing_lib/zxing/qrcode/detector/FinderPatternFinder.cpp **** 
  79:../src/zxing_lib/zxing/qrcode/detector/FinderPatternFinder.cpp **** int FinderPatternFinder::CENTER_QUORUM = 2;
  80:../src/zxing_lib/zxing/qrcode/detector/FinderPatternFinder.cpp **** int FinderPatternFinder::MIN_SKIP = 3;
  81:../src/zxing_lib/zxing/qrcode/detector/FinderPatternFinder.cpp **** int FinderPatternFinder::MAX_MODULES = 57;
  82:../src/zxing_lib/zxing/qrcode/detector/FinderPatternFinder.cpp **** 
  83:../src/zxing_lib/zxing/qrcode/detector/FinderPatternFinder.cpp **** float FinderPatternFinder::centerFromEnd(int* stateCount, int end) {
  84:../src/zxing_lib/zxing/qrcode/detector/FinderPatternFinder.cpp ****   return (float)(end - stateCount[4] - stateCount[3]) - stateCount[2] / 2.0f;
  85:../src/zxing_lib/zxing/qrcode/detector/FinderPatternFinder.cpp **** }
  86:../src/zxing_lib/zxing/qrcode/detector/FinderPatternFinder.cpp **** 
  87:../src/zxing_lib/zxing/qrcode/detector/FinderPatternFinder.cpp **** bool FinderPatternFinder::foundPatternCross(int* stateCount) {
  88:../src/zxing_lib/zxing/qrcode/detector/FinderPatternFinder.cpp ****   int totalModuleSize = 0;
  89:../src/zxing_lib/zxing/qrcode/detector/FinderPatternFinder.cpp ****   for (int i = 0; i < 5; i++) {
  90:../src/zxing_lib/zxing/qrcode/detector/FinderPatternFinder.cpp ****     if (stateCount[i] == 0) {
  91:../src/zxing_lib/zxing/qrcode/detector/FinderPatternFinder.cpp ****       return false;
  92:../src/zxing_lib/zxing/qrcode/detector/FinderPatternFinder.cpp ****     }
  93:../src/zxing_lib/zxing/qrcode/detector/FinderPatternFinder.cpp ****     totalModuleSize += stateCount[i];
  94:../src/zxing_lib/zxing/qrcode/detector/FinderPatternFinder.cpp ****   }
  95:../src/zxing_lib/zxing/qrcode/detector/FinderPatternFinder.cpp ****   if (totalModuleSize < 7) {
  96:../src/zxing_lib/zxing/qrcode/detector/FinderPatternFinder.cpp ****     return false;
  97:../src/zxing_lib/zxing/qrcode/detector/FinderPatternFinder.cpp ****   }
  98:../src/zxing_lib/zxing/qrcode/detector/FinderPatternFinder.cpp ****   float moduleSize = (float)totalModuleSize / 7.0f;
  99:../src/zxing_lib/zxing/qrcode/detector/FinderPatternFinder.cpp ****   float maxVariance = moduleSize / 2.0f;
 100:../src/zxing_lib/zxing/qrcode/detector/FinderPatternFinder.cpp ****   // Allow less than 50% variance from 1-1-3-1-1 proportions
 101:../src/zxing_lib/zxing/qrcode/detector/FinderPatternFinder.cpp ****   return abs(moduleSize - stateCount[0]) < maxVariance && abs(moduleSize - stateCount[1]) < maxVari
 102:../src/zxing_lib/zxing/qrcode/detector/FinderPatternFinder.cpp ****          * moduleSize - stateCount[2]) < 3.0f * maxVariance && abs(moduleSize - stateCount[3]) < ma
 103:../src/zxing_lib/zxing/qrcode/detector/FinderPatternFinder.cpp ****            moduleSize - stateCount[4]) < maxVariance;
 104:../src/zxing_lib/zxing/qrcode/detector/FinderPatternFinder.cpp **** }
 105:../src/zxing_lib/zxing/qrcode/detector/FinderPatternFinder.cpp **** 
 106:../src/zxing_lib/zxing/qrcode/detector/FinderPatternFinder.cpp **** float FinderPatternFinder::crossCheckVertical(size_t startI, size_t centerJ, int maxCount, int orig
 107:../src/zxing_lib/zxing/qrcode/detector/FinderPatternFinder.cpp **** 
 108:../src/zxing_lib/zxing/qrcode/detector/FinderPatternFinder.cpp ****   int maxI = image_->getHeight();
 109:../src/zxing_lib/zxing/qrcode/detector/FinderPatternFinder.cpp ****   int stateCount[5];
 110:../src/zxing_lib/zxing/qrcode/detector/FinderPatternFinder.cpp ****   for (int i = 0; i < 5; i++)
 111:../src/zxing_lib/zxing/qrcode/detector/FinderPatternFinder.cpp ****     stateCount[i] = 0;
 112:../src/zxing_lib/zxing/qrcode/detector/FinderPatternFinder.cpp **** 
 113:../src/zxing_lib/zxing/qrcode/detector/FinderPatternFinder.cpp **** 
 114:../src/zxing_lib/zxing/qrcode/detector/FinderPatternFinder.cpp ****   // Start counting up from center
 115:../src/zxing_lib/zxing/qrcode/detector/FinderPatternFinder.cpp ****   int i = startI;
 116:../src/zxing_lib/zxing/qrcode/detector/FinderPatternFinder.cpp ****   while (i >= 0 && image_->get(centerJ, i)) {
 117:../src/zxing_lib/zxing/qrcode/detector/FinderPatternFinder.cpp ****     stateCount[2]++;
 118:../src/zxing_lib/zxing/qrcode/detector/FinderPatternFinder.cpp ****     i--;
 119:../src/zxing_lib/zxing/qrcode/detector/FinderPatternFinder.cpp ****   }
 120:../src/zxing_lib/zxing/qrcode/detector/FinderPatternFinder.cpp ****   if (i < 0) {
 121:../src/zxing_lib/zxing/qrcode/detector/FinderPatternFinder.cpp ****     return nan();
 122:../src/zxing_lib/zxing/qrcode/detector/FinderPatternFinder.cpp ****   }
 123:../src/zxing_lib/zxing/qrcode/detector/FinderPatternFinder.cpp ****   while (i >= 0 && !image_->get(centerJ, i) && stateCount[1] <= maxCount) {
 124:../src/zxing_lib/zxing/qrcode/detector/FinderPatternFinder.cpp ****     stateCount[1]++;
 125:../src/zxing_lib/zxing/qrcode/detector/FinderPatternFinder.cpp ****     i--;
 126:../src/zxing_lib/zxing/qrcode/detector/FinderPatternFinder.cpp ****   }
 127:../src/zxing_lib/zxing/qrcode/detector/FinderPatternFinder.cpp ****   // If already too many modules in this state or ran off the edge:
 128:../src/zxing_lib/zxing/qrcode/detector/FinderPatternFinder.cpp ****   if (i < 0 || stateCount[1] > maxCount) {
 129:../src/zxing_lib/zxing/qrcode/detector/FinderPatternFinder.cpp ****     return nan();
 130:../src/zxing_lib/zxing/qrcode/detector/FinderPatternFinder.cpp ****   }
 131:../src/zxing_lib/zxing/qrcode/detector/FinderPatternFinder.cpp ****   while (i >= 0 && image_->get(centerJ, i) && stateCount[0] <= maxCount) {
 132:../src/zxing_lib/zxing/qrcode/detector/FinderPatternFinder.cpp ****     stateCount[0]++;
 133:../src/zxing_lib/zxing/qrcode/detector/FinderPatternFinder.cpp ****     i--;
 134:../src/zxing_lib/zxing/qrcode/detector/FinderPatternFinder.cpp ****   }
 135:../src/zxing_lib/zxing/qrcode/detector/FinderPatternFinder.cpp ****   if (stateCount[0] > maxCount) {
 136:../src/zxing_lib/zxing/qrcode/detector/FinderPatternFinder.cpp ****     return nan();
 137:../src/zxing_lib/zxing/qrcode/detector/FinderPatternFinder.cpp ****   }
 138:../src/zxing_lib/zxing/qrcode/detector/FinderPatternFinder.cpp **** 
 139:../src/zxing_lib/zxing/qrcode/detector/FinderPatternFinder.cpp ****   // Now also count down from center
 140:../src/zxing_lib/zxing/qrcode/detector/FinderPatternFinder.cpp ****   i = startI + 1;
 141:../src/zxing_lib/zxing/qrcode/detector/FinderPatternFinder.cpp ****   while (i < maxI && image_->get(centerJ, i)) {
 142:../src/zxing_lib/zxing/qrcode/detector/FinderPatternFinder.cpp ****     stateCount[2]++;
 143:../src/zxing_lib/zxing/qrcode/detector/FinderPatternFinder.cpp ****     i++;
 144:../src/zxing_lib/zxing/qrcode/detector/FinderPatternFinder.cpp ****   }
 145:../src/zxing_lib/zxing/qrcode/detector/FinderPatternFinder.cpp ****   if (i == maxI) {
 146:../src/zxing_lib/zxing/qrcode/detector/FinderPatternFinder.cpp ****     return nan();
 147:../src/zxing_lib/zxing/qrcode/detector/FinderPatternFinder.cpp ****   }
 148:../src/zxing_lib/zxing/qrcode/detector/FinderPatternFinder.cpp ****   while (i < maxI && !image_->get(centerJ, i) && stateCount[3] < maxCount) {
 149:../src/zxing_lib/zxing/qrcode/detector/FinderPatternFinder.cpp ****     stateCount[3]++;
 150:../src/zxing_lib/zxing/qrcode/detector/FinderPatternFinder.cpp ****     i++;
 151:../src/zxing_lib/zxing/qrcode/detector/FinderPatternFinder.cpp ****   }
 152:../src/zxing_lib/zxing/qrcode/detector/FinderPatternFinder.cpp ****   if (i == maxI || stateCount[3] >= maxCount) {
 153:../src/zxing_lib/zxing/qrcode/detector/FinderPatternFinder.cpp ****     return nan();
 154:../src/zxing_lib/zxing/qrcode/detector/FinderPatternFinder.cpp ****   }
 155:../src/zxing_lib/zxing/qrcode/detector/FinderPatternFinder.cpp ****   while (i < maxI && image_->get(centerJ, i) && stateCount[4] < maxCount) {
 156:../src/zxing_lib/zxing/qrcode/detector/FinderPatternFinder.cpp ****     stateCount[4]++;
 157:../src/zxing_lib/zxing/qrcode/detector/FinderPatternFinder.cpp ****     i++;
 158:../src/zxing_lib/zxing/qrcode/detector/FinderPatternFinder.cpp ****   }
 159:../src/zxing_lib/zxing/qrcode/detector/FinderPatternFinder.cpp ****   if (stateCount[4] >= maxCount) {
 160:../src/zxing_lib/zxing/qrcode/detector/FinderPatternFinder.cpp ****     return nan();
 161:../src/zxing_lib/zxing/qrcode/detector/FinderPatternFinder.cpp ****   }
 162:../src/zxing_lib/zxing/qrcode/detector/FinderPatternFinder.cpp **** 
 163:../src/zxing_lib/zxing/qrcode/detector/FinderPatternFinder.cpp ****   // If we found a finder-pattern-like section, but its size is more than 40% different than
 164:../src/zxing_lib/zxing/qrcode/detector/FinderPatternFinder.cpp ****   // the original, assume it's a false positive
 165:../src/zxing_lib/zxing/qrcode/detector/FinderPatternFinder.cpp ****   int stateCountTotal = stateCount[0] + stateCount[1] + stateCount[2] + stateCount[3] + stateCount[
 166:../src/zxing_lib/zxing/qrcode/detector/FinderPatternFinder.cpp ****   if (5 * abs(stateCountTotal - originalStateCountTotal) >= 2 * originalStateCountTotal) {
 167:../src/zxing_lib/zxing/qrcode/detector/FinderPatternFinder.cpp ****     return nan();
 168:../src/zxing_lib/zxing/qrcode/detector/FinderPatternFinder.cpp ****   }
 169:../src/zxing_lib/zxing/qrcode/detector/FinderPatternFinder.cpp **** 
 170:../src/zxing_lib/zxing/qrcode/detector/FinderPatternFinder.cpp ****   return foundPatternCross(stateCount) ? centerFromEnd(stateCount, i) : nan();
 171:../src/zxing_lib/zxing/qrcode/detector/FinderPatternFinder.cpp **** }
 172:../src/zxing_lib/zxing/qrcode/detector/FinderPatternFinder.cpp **** 
 173:../src/zxing_lib/zxing/qrcode/detector/FinderPatternFinder.cpp **** float FinderPatternFinder::crossCheckHorizontal(size_t startJ, size_t centerI, int maxCount,
 174:../src/zxing_lib/zxing/qrcode/detector/FinderPatternFinder.cpp ****     int originalStateCountTotal) {
 175:../src/zxing_lib/zxing/qrcode/detector/FinderPatternFinder.cpp **** 
 176:../src/zxing_lib/zxing/qrcode/detector/FinderPatternFinder.cpp ****   int maxJ = image_->getWidth();
 177:../src/zxing_lib/zxing/qrcode/detector/FinderPatternFinder.cpp ****   int stateCount[5];
 178:../src/zxing_lib/zxing/qrcode/detector/FinderPatternFinder.cpp ****   for (int i = 0; i < 5; i++)
 179:../src/zxing_lib/zxing/qrcode/detector/FinderPatternFinder.cpp ****     stateCount[i] = 0;
 180:../src/zxing_lib/zxing/qrcode/detector/FinderPatternFinder.cpp **** 
 181:../src/zxing_lib/zxing/qrcode/detector/FinderPatternFinder.cpp ****   int j = startJ;
 182:../src/zxing_lib/zxing/qrcode/detector/FinderPatternFinder.cpp ****   while (j >= 0 && image_->get(j, centerI)) {
 183:../src/zxing_lib/zxing/qrcode/detector/FinderPatternFinder.cpp ****     stateCount[2]++;
 184:../src/zxing_lib/zxing/qrcode/detector/FinderPatternFinder.cpp ****     j--;
 185:../src/zxing_lib/zxing/qrcode/detector/FinderPatternFinder.cpp ****   }
 186:../src/zxing_lib/zxing/qrcode/detector/FinderPatternFinder.cpp ****   if (j < 0) {
 187:../src/zxing_lib/zxing/qrcode/detector/FinderPatternFinder.cpp ****     return nan();
 188:../src/zxing_lib/zxing/qrcode/detector/FinderPatternFinder.cpp ****   }
 189:../src/zxing_lib/zxing/qrcode/detector/FinderPatternFinder.cpp ****   while (j >= 0 && !image_->get(j, centerI) && stateCount[1] <= maxCount) {
 190:../src/zxing_lib/zxing/qrcode/detector/FinderPatternFinder.cpp ****     stateCount[1]++;
 191:../src/zxing_lib/zxing/qrcode/detector/FinderPatternFinder.cpp ****     j--;
 192:../src/zxing_lib/zxing/qrcode/detector/FinderPatternFinder.cpp ****   }
 193:../src/zxing_lib/zxing/qrcode/detector/FinderPatternFinder.cpp ****   if (j < 0 || stateCount[1] > maxCount) {
 194:../src/zxing_lib/zxing/qrcode/detector/FinderPatternFinder.cpp ****     return nan();
 195:../src/zxing_lib/zxing/qrcode/detector/FinderPatternFinder.cpp ****   }
 196:../src/zxing_lib/zxing/qrcode/detector/FinderPatternFinder.cpp ****   while (j >= 0 && image_->get(j, centerI) && stateCount[0] <= maxCount) {
 197:../src/zxing_lib/zxing/qrcode/detector/FinderPatternFinder.cpp ****     stateCount[0]++;
 198:../src/zxing_lib/zxing/qrcode/detector/FinderPatternFinder.cpp ****     j--;
 199:../src/zxing_lib/zxing/qrcode/detector/FinderPatternFinder.cpp ****   }
 200:../src/zxing_lib/zxing/qrcode/detector/FinderPatternFinder.cpp ****   if (stateCount[0] > maxCount) {
 201:../src/zxing_lib/zxing/qrcode/detector/FinderPatternFinder.cpp ****     return nan();
 202:../src/zxing_lib/zxing/qrcode/detector/FinderPatternFinder.cpp ****   }
 203:../src/zxing_lib/zxing/qrcode/detector/FinderPatternFinder.cpp **** 
 204:../src/zxing_lib/zxing/qrcode/detector/FinderPatternFinder.cpp ****   j = startJ + 1;
 205:../src/zxing_lib/zxing/qrcode/detector/FinderPatternFinder.cpp ****   while (j < maxJ && image_->get(j, centerI)) {
 206:../src/zxing_lib/zxing/qrcode/detector/FinderPatternFinder.cpp ****     stateCount[2]++;
 207:../src/zxing_lib/zxing/qrcode/detector/FinderPatternFinder.cpp ****     j++;
 208:../src/zxing_lib/zxing/qrcode/detector/FinderPatternFinder.cpp ****   }
 209:../src/zxing_lib/zxing/qrcode/detector/FinderPatternFinder.cpp ****   if (j == maxJ) {
 210:../src/zxing_lib/zxing/qrcode/detector/FinderPatternFinder.cpp ****     return nan();
 211:../src/zxing_lib/zxing/qrcode/detector/FinderPatternFinder.cpp ****   }
 212:../src/zxing_lib/zxing/qrcode/detector/FinderPatternFinder.cpp ****   while (j < maxJ && !image_->get(j, centerI) && stateCount[3] < maxCount) {
 213:../src/zxing_lib/zxing/qrcode/detector/FinderPatternFinder.cpp ****     stateCount[3]++;
 214:../src/zxing_lib/zxing/qrcode/detector/FinderPatternFinder.cpp ****     j++;
 215:../src/zxing_lib/zxing/qrcode/detector/FinderPatternFinder.cpp ****   }
 216:../src/zxing_lib/zxing/qrcode/detector/FinderPatternFinder.cpp ****   if (j == maxJ || stateCount[3] >= maxCount) {
 217:../src/zxing_lib/zxing/qrcode/detector/FinderPatternFinder.cpp ****     return nan();
 218:../src/zxing_lib/zxing/qrcode/detector/FinderPatternFinder.cpp ****   }
 219:../src/zxing_lib/zxing/qrcode/detector/FinderPatternFinder.cpp ****   while (j < maxJ && image_->get(j, centerI) && stateCount[4] < maxCount) {
 220:../src/zxing_lib/zxing/qrcode/detector/FinderPatternFinder.cpp ****     stateCount[4]++;
 221:../src/zxing_lib/zxing/qrcode/detector/FinderPatternFinder.cpp ****     j++;
 222:../src/zxing_lib/zxing/qrcode/detector/FinderPatternFinder.cpp ****   }
 223:../src/zxing_lib/zxing/qrcode/detector/FinderPatternFinder.cpp ****   if (stateCount[4] >= maxCount) {
 224:../src/zxing_lib/zxing/qrcode/detector/FinderPatternFinder.cpp ****     return nan();
 225:../src/zxing_lib/zxing/qrcode/detector/FinderPatternFinder.cpp ****   }
 226:../src/zxing_lib/zxing/qrcode/detector/FinderPatternFinder.cpp **** 
 227:../src/zxing_lib/zxing/qrcode/detector/FinderPatternFinder.cpp ****   // If we found a finder-pattern-like section, but its size is significantly different than
 228:../src/zxing_lib/zxing/qrcode/detector/FinderPatternFinder.cpp ****   // the original, assume it's a false positive
 229:../src/zxing_lib/zxing/qrcode/detector/FinderPatternFinder.cpp ****   int stateCountTotal = stateCount[0] + stateCount[1] + stateCount[2] + stateCount[3] + stateCount[
 230:../src/zxing_lib/zxing/qrcode/detector/FinderPatternFinder.cpp ****   if (5 * abs(stateCountTotal - originalStateCountTotal) >= originalStateCountTotal) {
 231:../src/zxing_lib/zxing/qrcode/detector/FinderPatternFinder.cpp ****     return nan();
 232:../src/zxing_lib/zxing/qrcode/detector/FinderPatternFinder.cpp ****   }
 233:../src/zxing_lib/zxing/qrcode/detector/FinderPatternFinder.cpp **** 
 234:../src/zxing_lib/zxing/qrcode/detector/FinderPatternFinder.cpp ****   return foundPatternCross(stateCount) ? centerFromEnd(stateCount, j) : nan();
 235:../src/zxing_lib/zxing/qrcode/detector/FinderPatternFinder.cpp **** }
 236:../src/zxing_lib/zxing/qrcode/detector/FinderPatternFinder.cpp **** 
 237:../src/zxing_lib/zxing/qrcode/detector/FinderPatternFinder.cpp **** bool FinderPatternFinder::handlePossibleCenter(int* stateCount, size_t i, size_t j) {
 238:../src/zxing_lib/zxing/qrcode/detector/FinderPatternFinder.cpp ****   int stateCountTotal = stateCount[0] + stateCount[1] + stateCount[2] + stateCount[3] + stateCount[
 239:../src/zxing_lib/zxing/qrcode/detector/FinderPatternFinder.cpp ****   float centerJ = centerFromEnd(stateCount, j);
 240:../src/zxing_lib/zxing/qrcode/detector/FinderPatternFinder.cpp ****   float centerI = crossCheckVertical(i, (size_t)centerJ, stateCount[2], stateCountTotal);
 241:../src/zxing_lib/zxing/qrcode/detector/FinderPatternFinder.cpp ****   if (!isnan(centerI)) {
 242:../src/zxing_lib/zxing/qrcode/detector/FinderPatternFinder.cpp ****     // Re-cross check
 243:../src/zxing_lib/zxing/qrcode/detector/FinderPatternFinder.cpp ****     centerJ = crossCheckHorizontal((size_t)centerJ, (size_t)centerI, stateCount[2], stateCountTotal
 244:../src/zxing_lib/zxing/qrcode/detector/FinderPatternFinder.cpp ****     if (!isnan(centerJ)) {
 245:../src/zxing_lib/zxing/qrcode/detector/FinderPatternFinder.cpp ****       float estimatedModuleSize = (float)stateCountTotal / 7.0f;
 246:../src/zxing_lib/zxing/qrcode/detector/FinderPatternFinder.cpp ****       bool found = false;
 247:../src/zxing_lib/zxing/qrcode/detector/FinderPatternFinder.cpp ****       size_t max = possibleCenters_.size();
 248:../src/zxing_lib/zxing/qrcode/detector/FinderPatternFinder.cpp ****       for (size_t index = 0; index < max; index++) {
 249:../src/zxing_lib/zxing/qrcode/detector/FinderPatternFinder.cpp ****         Ref<FinderPattern> center = possibleCenters_[index];
 250:../src/zxing_lib/zxing/qrcode/detector/FinderPatternFinder.cpp ****         // Look for about the same center and module size:
 251:../src/zxing_lib/zxing/qrcode/detector/FinderPatternFinder.cpp ****         if (center->aboutEquals(estimatedModuleSize, centerI, centerJ)) {
 252:../src/zxing_lib/zxing/qrcode/detector/FinderPatternFinder.cpp ****           possibleCenters_[index] = center->combineEstimate(centerI, centerJ, estimatedModuleSize);
 253:../src/zxing_lib/zxing/qrcode/detector/FinderPatternFinder.cpp ****           found = true;
 254:../src/zxing_lib/zxing/qrcode/detector/FinderPatternFinder.cpp ****           break;
 255:../src/zxing_lib/zxing/qrcode/detector/FinderPatternFinder.cpp ****         }
 256:../src/zxing_lib/zxing/qrcode/detector/FinderPatternFinder.cpp ****       }
 257:../src/zxing_lib/zxing/qrcode/detector/FinderPatternFinder.cpp ****       if (!found) {
 258:../src/zxing_lib/zxing/qrcode/detector/FinderPatternFinder.cpp ****         Ref<FinderPattern> newPattern(new FinderPattern(centerJ, centerI, estimatedModuleSize));
 259:../src/zxing_lib/zxing/qrcode/detector/FinderPatternFinder.cpp ****         possibleCenters_.push_back(newPattern);
 260:../src/zxing_lib/zxing/qrcode/detector/FinderPatternFinder.cpp ****         if (callback_ != 0) {
 261:../src/zxing_lib/zxing/qrcode/detector/FinderPatternFinder.cpp ****           callback_->foundPossibleResultPoint(*newPattern);
 262:../src/zxing_lib/zxing/qrcode/detector/FinderPatternFinder.cpp ****         }
 263:../src/zxing_lib/zxing/qrcode/detector/FinderPatternFinder.cpp ****       }
 264:../src/zxing_lib/zxing/qrcode/detector/FinderPatternFinder.cpp ****       return true;
 265:../src/zxing_lib/zxing/qrcode/detector/FinderPatternFinder.cpp ****     }
 266:../src/zxing_lib/zxing/qrcode/detector/FinderPatternFinder.cpp ****   }
 267:../src/zxing_lib/zxing/qrcode/detector/FinderPatternFinder.cpp ****   return false;
 268:../src/zxing_lib/zxing/qrcode/detector/FinderPatternFinder.cpp **** }
 269:../src/zxing_lib/zxing/qrcode/detector/FinderPatternFinder.cpp **** 
 270:../src/zxing_lib/zxing/qrcode/detector/FinderPatternFinder.cpp **** int FinderPatternFinder::findRowSkip() {
 271:../src/zxing_lib/zxing/qrcode/detector/FinderPatternFinder.cpp ****   size_t max = possibleCenters_.size();
 272:../src/zxing_lib/zxing/qrcode/detector/FinderPatternFinder.cpp ****   if (max <= 1) {
 273:../src/zxing_lib/zxing/qrcode/detector/FinderPatternFinder.cpp ****     return 0;
 274:../src/zxing_lib/zxing/qrcode/detector/FinderPatternFinder.cpp ****   }
 275:../src/zxing_lib/zxing/qrcode/detector/FinderPatternFinder.cpp ****   Ref<FinderPattern> firstConfirmedCenter;
 276:../src/zxing_lib/zxing/qrcode/detector/FinderPatternFinder.cpp ****   for (size_t i = 0; i < max; i++) {
 277:../src/zxing_lib/zxing/qrcode/detector/FinderPatternFinder.cpp ****     Ref<FinderPattern> center = possibleCenters_[i];
 278:../src/zxing_lib/zxing/qrcode/detector/FinderPatternFinder.cpp ****     if (center->getCount() >= CENTER_QUORUM) {
 279:../src/zxing_lib/zxing/qrcode/detector/FinderPatternFinder.cpp ****       if (firstConfirmedCenter == 0) {
 280:../src/zxing_lib/zxing/qrcode/detector/FinderPatternFinder.cpp ****         firstConfirmedCenter = center;
 281:../src/zxing_lib/zxing/qrcode/detector/FinderPatternFinder.cpp ****       } else {
 282:../src/zxing_lib/zxing/qrcode/detector/FinderPatternFinder.cpp ****         // We have two confirmed centers
 283:../src/zxing_lib/zxing/qrcode/detector/FinderPatternFinder.cpp ****         // How far down can we skip before resuming looking for the next
 284:../src/zxing_lib/zxing/qrcode/detector/FinderPatternFinder.cpp ****         // pattern? In the worst case, only the difference between the
 285:../src/zxing_lib/zxing/qrcode/detector/FinderPatternFinder.cpp ****         // difference in the x / y coordinates of the two centers.
 286:../src/zxing_lib/zxing/qrcode/detector/FinderPatternFinder.cpp ****         // This is the case where you find top left first. Draw it out.
 287:../src/zxing_lib/zxing/qrcode/detector/FinderPatternFinder.cpp ****         hasSkipped_ = true;
 288:../src/zxing_lib/zxing/qrcode/detector/FinderPatternFinder.cpp ****         return (int)(abs(firstConfirmedCenter->getX() - center->getX()) - abs(firstConfirmedCenter-
 289:../src/zxing_lib/zxing/qrcode/detector/FinderPatternFinder.cpp ****                      - center->getY()))/2;
 290:../src/zxing_lib/zxing/qrcode/detector/FinderPatternFinder.cpp ****       }
 291:../src/zxing_lib/zxing/qrcode/detector/FinderPatternFinder.cpp ****     }
 292:../src/zxing_lib/zxing/qrcode/detector/FinderPatternFinder.cpp ****   }
 293:../src/zxing_lib/zxing/qrcode/detector/FinderPatternFinder.cpp ****   return 0;
 294:../src/zxing_lib/zxing/qrcode/detector/FinderPatternFinder.cpp **** }
 295:../src/zxing_lib/zxing/qrcode/detector/FinderPatternFinder.cpp **** 
 296:../src/zxing_lib/zxing/qrcode/detector/FinderPatternFinder.cpp **** bool FinderPatternFinder::haveMultiplyConfirmedCenters() {
 297:../src/zxing_lib/zxing/qrcode/detector/FinderPatternFinder.cpp ****   int confirmedCount = 0;
 298:../src/zxing_lib/zxing/qrcode/detector/FinderPatternFinder.cpp ****   float totalModuleSize = 0.0f;
 299:../src/zxing_lib/zxing/qrcode/detector/FinderPatternFinder.cpp ****   size_t max = possibleCenters_.size();
 300:../src/zxing_lib/zxing/qrcode/detector/FinderPatternFinder.cpp ****   for (size_t i = 0; i < max; i++) {
 301:../src/zxing_lib/zxing/qrcode/detector/FinderPatternFinder.cpp ****     Ref<FinderPattern> pattern = possibleCenters_[i];
 302:../src/zxing_lib/zxing/qrcode/detector/FinderPatternFinder.cpp ****     if (pattern->getCount() >= CENTER_QUORUM) {
 303:../src/zxing_lib/zxing/qrcode/detector/FinderPatternFinder.cpp ****       confirmedCount++;
 304:../src/zxing_lib/zxing/qrcode/detector/FinderPatternFinder.cpp ****       totalModuleSize += pattern->getEstimatedModuleSize();
 305:../src/zxing_lib/zxing/qrcode/detector/FinderPatternFinder.cpp ****     }
 306:../src/zxing_lib/zxing/qrcode/detector/FinderPatternFinder.cpp ****   }
 307:../src/zxing_lib/zxing/qrcode/detector/FinderPatternFinder.cpp ****   if (confirmedCount < 3) {
 308:../src/zxing_lib/zxing/qrcode/detector/FinderPatternFinder.cpp ****     return false;
 309:../src/zxing_lib/zxing/qrcode/detector/FinderPatternFinder.cpp ****   }
 310:../src/zxing_lib/zxing/qrcode/detector/FinderPatternFinder.cpp ****   // OK, we have at least 3 confirmed centers, but, it's possible that one is a "false positive"
 311:../src/zxing_lib/zxing/qrcode/detector/FinderPatternFinder.cpp ****   // and that we need to keep looking. We detect this by asking if the estimated module sizes
 312:../src/zxing_lib/zxing/qrcode/detector/FinderPatternFinder.cpp ****   // vary too much. We arbitrarily say that when the total deviation from average exceeds
 313:../src/zxing_lib/zxing/qrcode/detector/FinderPatternFinder.cpp ****   // 5% of the total module size estimates, it's too much.
 314:../src/zxing_lib/zxing/qrcode/detector/FinderPatternFinder.cpp ****   float average = totalModuleSize / max;
 315:../src/zxing_lib/zxing/qrcode/detector/FinderPatternFinder.cpp ****   float totalDeviation = 0.0f;
 316:../src/zxing_lib/zxing/qrcode/detector/FinderPatternFinder.cpp ****   for (size_t i = 0; i < max; i++) {
 317:../src/zxing_lib/zxing/qrcode/detector/FinderPatternFinder.cpp ****     Ref<FinderPattern> pattern = possibleCenters_[i];
 318:../src/zxing_lib/zxing/qrcode/detector/FinderPatternFinder.cpp ****     totalDeviation += abs(pattern->getEstimatedModuleSize() - average);
 319:../src/zxing_lib/zxing/qrcode/detector/FinderPatternFinder.cpp ****   }
 320:../src/zxing_lib/zxing/qrcode/detector/FinderPatternFinder.cpp ****   return totalDeviation <= 0.05f * totalModuleSize;
 321:../src/zxing_lib/zxing/qrcode/detector/FinderPatternFinder.cpp **** }
 322:../src/zxing_lib/zxing/qrcode/detector/FinderPatternFinder.cpp **** 
 323:../src/zxing_lib/zxing/qrcode/detector/FinderPatternFinder.cpp **** vector< Ref<FinderPattern> > FinderPatternFinder::selectBestPatterns() {
 324:../src/zxing_lib/zxing/qrcode/detector/FinderPatternFinder.cpp ****   size_t startSize = possibleCenters_.size();
 325:../src/zxing_lib/zxing/qrcode/detector/FinderPatternFinder.cpp **** 
 326:../src/zxing_lib/zxing/qrcode/detector/FinderPatternFinder.cpp ****   if (startSize < 3) {
 327:../src/zxing_lib/zxing/qrcode/detector/FinderPatternFinder.cpp ****     // Couldn't find enough finder patterns
 328:../src/zxing_lib/zxing/qrcode/detector/FinderPatternFinder.cpp ****     throw zxing::ReaderException("Could not find three finder patterns");
 329:../src/zxing_lib/zxing/qrcode/detector/FinderPatternFinder.cpp ****   }
 330:../src/zxing_lib/zxing/qrcode/detector/FinderPatternFinder.cpp **** 
 331:../src/zxing_lib/zxing/qrcode/detector/FinderPatternFinder.cpp ****   // Filter outlier possibilities whose module size is too different
 332:../src/zxing_lib/zxing/qrcode/detector/FinderPatternFinder.cpp ****   if (startSize > 3) {
 333:../src/zxing_lib/zxing/qrcode/detector/FinderPatternFinder.cpp ****     // But we can only afford to do so if we have at least 4 possibilities to choose from
 334:../src/zxing_lib/zxing/qrcode/detector/FinderPatternFinder.cpp ****     float totalModuleSize = 0.0f;
 335:../src/zxing_lib/zxing/qrcode/detector/FinderPatternFinder.cpp ****     float square = 0.0f;
 336:../src/zxing_lib/zxing/qrcode/detector/FinderPatternFinder.cpp ****     for (size_t i = 0; i < startSize; i++) {
 337:../src/zxing_lib/zxing/qrcode/detector/FinderPatternFinder.cpp ****       float size = possibleCenters_[i]->getEstimatedModuleSize();
 338:../src/zxing_lib/zxing/qrcode/detector/FinderPatternFinder.cpp ****       totalModuleSize += size;
 339:../src/zxing_lib/zxing/qrcode/detector/FinderPatternFinder.cpp ****       square += size * size;
 340:../src/zxing_lib/zxing/qrcode/detector/FinderPatternFinder.cpp ****     }
 341:../src/zxing_lib/zxing/qrcode/detector/FinderPatternFinder.cpp ****     float average = totalModuleSize / (float) startSize;
 342:../src/zxing_lib/zxing/qrcode/detector/FinderPatternFinder.cpp ****     float stdDev = (float)sqrt(square / startSize - average * average);
 343:../src/zxing_lib/zxing/qrcode/detector/FinderPatternFinder.cpp **** 
 344:../src/zxing_lib/zxing/qrcode/detector/FinderPatternFinder.cpp ****     sort(possibleCenters_.begin(), possibleCenters_.end(), FurthestFromAverageComparator(average));
 345:../src/zxing_lib/zxing/qrcode/detector/FinderPatternFinder.cpp ****     
 346:../src/zxing_lib/zxing/qrcode/detector/FinderPatternFinder.cpp ****     float limit = max(0.2f * average, stdDev);
 347:../src/zxing_lib/zxing/qrcode/detector/FinderPatternFinder.cpp **** 
 348:../src/zxing_lib/zxing/qrcode/detector/FinderPatternFinder.cpp ****     for (size_t i = 0; i < possibleCenters_.size() && possibleCenters_.size() > 3; i++) {
 349:../src/zxing_lib/zxing/qrcode/detector/FinderPatternFinder.cpp ****       if (abs(possibleCenters_[i]->getEstimatedModuleSize() - average) > limit) {
 350:../src/zxing_lib/zxing/qrcode/detector/FinderPatternFinder.cpp ****         possibleCenters_.erase(possibleCenters_.begin()+i);
 351:../src/zxing_lib/zxing/qrcode/detector/FinderPatternFinder.cpp ****         i--;
 352:../src/zxing_lib/zxing/qrcode/detector/FinderPatternFinder.cpp ****       }
 353:../src/zxing_lib/zxing/qrcode/detector/FinderPatternFinder.cpp ****     }
 354:../src/zxing_lib/zxing/qrcode/detector/FinderPatternFinder.cpp ****   }
 355:../src/zxing_lib/zxing/qrcode/detector/FinderPatternFinder.cpp **** 
 356:../src/zxing_lib/zxing/qrcode/detector/FinderPatternFinder.cpp ****   if (possibleCenters_.size() > 3) {
 357:../src/zxing_lib/zxing/qrcode/detector/FinderPatternFinder.cpp ****     // Throw away all but those first size candidate points we found.
 358:../src/zxing_lib/zxing/qrcode/detector/FinderPatternFinder.cpp ****     float totalModuleSize = 0.0f;
 359:../src/zxing_lib/zxing/qrcode/detector/FinderPatternFinder.cpp ****     for (size_t i = 0; i < possibleCenters_.size(); i++) {
 360:../src/zxing_lib/zxing/qrcode/detector/FinderPatternFinder.cpp ****       float size = possibleCenters_[i]->getEstimatedModuleSize();
 361:../src/zxing_lib/zxing/qrcode/detector/FinderPatternFinder.cpp ****       totalModuleSize += size;
 362:../src/zxing_lib/zxing/qrcode/detector/FinderPatternFinder.cpp ****     }
 363:../src/zxing_lib/zxing/qrcode/detector/FinderPatternFinder.cpp ****     float average = totalModuleSize / (float) possibleCenters_.size();
 364:../src/zxing_lib/zxing/qrcode/detector/FinderPatternFinder.cpp ****     sort(possibleCenters_.begin(), possibleCenters_.end(), CenterComparator(average));
 365:../src/zxing_lib/zxing/qrcode/detector/FinderPatternFinder.cpp ****   }
 366:../src/zxing_lib/zxing/qrcode/detector/FinderPatternFinder.cpp **** 
 367:../src/zxing_lib/zxing/qrcode/detector/FinderPatternFinder.cpp ****   if (possibleCenters_.size() > 3) {
 368:../src/zxing_lib/zxing/qrcode/detector/FinderPatternFinder.cpp ****     possibleCenters_.erase(possibleCenters_.begin()+3,possibleCenters_.end());
 369:../src/zxing_lib/zxing/qrcode/detector/FinderPatternFinder.cpp ****   }
 370:../src/zxing_lib/zxing/qrcode/detector/FinderPatternFinder.cpp **** 
 371:../src/zxing_lib/zxing/qrcode/detector/FinderPatternFinder.cpp ****   vector<Ref<FinderPattern> > result(3);
 372:../src/zxing_lib/zxing/qrcode/detector/FinderPatternFinder.cpp ****   result[0] = possibleCenters_[0];
 373:../src/zxing_lib/zxing/qrcode/detector/FinderPatternFinder.cpp ****   result[1] = possibleCenters_[1];
 374:../src/zxing_lib/zxing/qrcode/detector/FinderPatternFinder.cpp ****   result[2] = possibleCenters_[2];
 375:../src/zxing_lib/zxing/qrcode/detector/FinderPatternFinder.cpp ****   return result;
 376:../src/zxing_lib/zxing/qrcode/detector/FinderPatternFinder.cpp **** }
 377:../src/zxing_lib/zxing/qrcode/detector/FinderPatternFinder.cpp **** 
 378:../src/zxing_lib/zxing/qrcode/detector/FinderPatternFinder.cpp **** vector<Ref<FinderPattern> > FinderPatternFinder::orderBestPatterns(vector<Ref<FinderPattern> > patt
 379:../src/zxing_lib/zxing/qrcode/detector/FinderPatternFinder.cpp ****   // Find distances between pattern centers
 380:../src/zxing_lib/zxing/qrcode/detector/FinderPatternFinder.cpp ****   float abDistance = distance(patterns[0], patterns[1]);
 381:../src/zxing_lib/zxing/qrcode/detector/FinderPatternFinder.cpp ****   float bcDistance = distance(patterns[1], patterns[2]);
 382:../src/zxing_lib/zxing/qrcode/detector/FinderPatternFinder.cpp ****   float acDistance = distance(patterns[0], patterns[2]);
 383:../src/zxing_lib/zxing/qrcode/detector/FinderPatternFinder.cpp **** 
 384:../src/zxing_lib/zxing/qrcode/detector/FinderPatternFinder.cpp ****   Ref<FinderPattern> topLeft;
 385:../src/zxing_lib/zxing/qrcode/detector/FinderPatternFinder.cpp ****   Ref<FinderPattern> topRight;
 386:../src/zxing_lib/zxing/qrcode/detector/FinderPatternFinder.cpp ****   Ref<FinderPattern> bottomLeft;
 387:../src/zxing_lib/zxing/qrcode/detector/FinderPatternFinder.cpp ****   // Assume one closest to other two is top left;
 388:../src/zxing_lib/zxing/qrcode/detector/FinderPatternFinder.cpp ****   // topRight and bottomLeft will just be guesses below at first
 389:../src/zxing_lib/zxing/qrcode/detector/FinderPatternFinder.cpp ****   if (bcDistance >= abDistance && bcDistance >= acDistance) {
 390:../src/zxing_lib/zxing/qrcode/detector/FinderPatternFinder.cpp ****     topLeft = patterns[0];
 391:../src/zxing_lib/zxing/qrcode/detector/FinderPatternFinder.cpp ****     topRight = patterns[1];
 392:../src/zxing_lib/zxing/qrcode/detector/FinderPatternFinder.cpp ****     bottomLeft = patterns[2];
 393:../src/zxing_lib/zxing/qrcode/detector/FinderPatternFinder.cpp ****   } else if (acDistance >= bcDistance && acDistance >= abDistance) {
 394:../src/zxing_lib/zxing/qrcode/detector/FinderPatternFinder.cpp ****     topLeft = patterns[1];
 395:../src/zxing_lib/zxing/qrcode/detector/FinderPatternFinder.cpp ****     topRight = patterns[0];
 396:../src/zxing_lib/zxing/qrcode/detector/FinderPatternFinder.cpp ****     bottomLeft = patterns[2];
 397:../src/zxing_lib/zxing/qrcode/detector/FinderPatternFinder.cpp ****   } else {
 398:../src/zxing_lib/zxing/qrcode/detector/FinderPatternFinder.cpp ****     topLeft = patterns[2];
 399:../src/zxing_lib/zxing/qrcode/detector/FinderPatternFinder.cpp ****     topRight = patterns[0];
 400:../src/zxing_lib/zxing/qrcode/detector/FinderPatternFinder.cpp ****     bottomLeft = patterns[1];
 401:../src/zxing_lib/zxing/qrcode/detector/FinderPatternFinder.cpp ****   }
 402:../src/zxing_lib/zxing/qrcode/detector/FinderPatternFinder.cpp **** 
 403:../src/zxing_lib/zxing/qrcode/detector/FinderPatternFinder.cpp ****   // Use cross product to figure out which of other1/2 is the bottom left
 404:../src/zxing_lib/zxing/qrcode/detector/FinderPatternFinder.cpp ****   // pattern. The vector "top-left -> bottom-left" x "top-left -> top-right"
 405:../src/zxing_lib/zxing/qrcode/detector/FinderPatternFinder.cpp ****   // should yield a vector with positive z component
 406:../src/zxing_lib/zxing/qrcode/detector/FinderPatternFinder.cpp ****   if ((bottomLeft->getY() - topLeft->getY()) * (topRight->getX() - topLeft->getX()) < (bottomLeft->
 407:../src/zxing_lib/zxing/qrcode/detector/FinderPatternFinder.cpp ****       - topLeft->getX()) * (topRight->getY() - topLeft->getY())) {
 408:../src/zxing_lib/zxing/qrcode/detector/FinderPatternFinder.cpp ****     Ref<FinderPattern> temp = topRight;
 409:../src/zxing_lib/zxing/qrcode/detector/FinderPatternFinder.cpp ****     topRight = bottomLeft;
 410:../src/zxing_lib/zxing/qrcode/detector/FinderPatternFinder.cpp ****     bottomLeft = temp;
 411:../src/zxing_lib/zxing/qrcode/detector/FinderPatternFinder.cpp ****   }
 412:../src/zxing_lib/zxing/qrcode/detector/FinderPatternFinder.cpp **** 
 413:../src/zxing_lib/zxing/qrcode/detector/FinderPatternFinder.cpp ****   vector<Ref<FinderPattern> > results(3);
 414:../src/zxing_lib/zxing/qrcode/detector/FinderPatternFinder.cpp ****   results[0] = bottomLeft;
 415:../src/zxing_lib/zxing/qrcode/detector/FinderPatternFinder.cpp ****   results[1] = topLeft;
 416:../src/zxing_lib/zxing/qrcode/detector/FinderPatternFinder.cpp ****   results[2] = topRight;
 417:../src/zxing_lib/zxing/qrcode/detector/FinderPatternFinder.cpp ****   return results;
 418:../src/zxing_lib/zxing/qrcode/detector/FinderPatternFinder.cpp **** }
 419:../src/zxing_lib/zxing/qrcode/detector/FinderPatternFinder.cpp **** 
 420:../src/zxing_lib/zxing/qrcode/detector/FinderPatternFinder.cpp **** float FinderPatternFinder::distance(Ref<ResultPoint> p1, Ref<ResultPoint> p2) {
 421:../src/zxing_lib/zxing/qrcode/detector/FinderPatternFinder.cpp ****   float dx = p1->getX() - p2->getX();
 422:../src/zxing_lib/zxing/qrcode/detector/FinderPatternFinder.cpp ****   float dy = p1->getY() - p2->getY();
 423:../src/zxing_lib/zxing/qrcode/detector/FinderPatternFinder.cpp ****   return (float)sqrt(dx * dx + dy * dy);
 424:../src/zxing_lib/zxing/qrcode/detector/FinderPatternFinder.cpp **** }
 425:../src/zxing_lib/zxing/qrcode/detector/FinderPatternFinder.cpp **** 
 426:../src/zxing_lib/zxing/qrcode/detector/FinderPatternFinder.cpp **** FinderPatternFinder::FinderPatternFinder(Ref<BitMatrix> image,
 427:../src/zxing_lib/zxing/qrcode/detector/FinderPatternFinder.cpp ****                                            Ref<ResultPointCallback>const& callback) :
 428:../src/zxing_lib/zxing/qrcode/detector/FinderPatternFinder.cpp ****     image_(image), possibleCenters_(), hasSkipped_(false), callback_(callback) {
 429:../src/zxing_lib/zxing/qrcode/detector/FinderPatternFinder.cpp **** }
 430:../src/zxing_lib/zxing/qrcode/detector/FinderPatternFinder.cpp **** 
 431:../src/zxing_lib/zxing/qrcode/detector/FinderPatternFinder.cpp **** Ref<FinderPatternInfo> FinderPatternFinder::find(DecodeHints const& hints) {
 432:../src/zxing_lib/zxing/qrcode/detector/FinderPatternFinder.cpp ****   bool tryHarder = hints.getTryHarder();
 433:../src/zxing_lib/zxing/qrcode/detector/FinderPatternFinder.cpp **** 
 434:../src/zxing_lib/zxing/qrcode/detector/FinderPatternFinder.cpp ****   size_t maxI = image_->getHeight();
 435:../src/zxing_lib/zxing/qrcode/detector/FinderPatternFinder.cpp ****   size_t maxJ = image_->getWidth();
 436:../src/zxing_lib/zxing/qrcode/detector/FinderPatternFinder.cpp **** 
 437:../src/zxing_lib/zxing/qrcode/detector/FinderPatternFinder.cpp **** 
 438:../src/zxing_lib/zxing/qrcode/detector/FinderPatternFinder.cpp ****   // We are looking for black/white/black/white/black modules in
 439:../src/zxing_lib/zxing/qrcode/detector/FinderPatternFinder.cpp ****   // 1:1:3:1:1 ratio; this tracks the number of such modules seen so far
 440:../src/zxing_lib/zxing/qrcode/detector/FinderPatternFinder.cpp **** 
 441:../src/zxing_lib/zxing/qrcode/detector/FinderPatternFinder.cpp ****   // As this is used often, we use an integer array instead of vector
 442:../src/zxing_lib/zxing/qrcode/detector/FinderPatternFinder.cpp ****   int stateCount[5];
 443:../src/zxing_lib/zxing/qrcode/detector/FinderPatternFinder.cpp ****   bool done = false;
 444:../src/zxing_lib/zxing/qrcode/detector/FinderPatternFinder.cpp **** 
 445:../src/zxing_lib/zxing/qrcode/detector/FinderPatternFinder.cpp **** 
 446:../src/zxing_lib/zxing/qrcode/detector/FinderPatternFinder.cpp ****   // Let's assume that the maximum version QR Code we support takes up 1/4
 447:../src/zxing_lib/zxing/qrcode/detector/FinderPatternFinder.cpp ****   // the height of the image, and then account for the center being 3
 448:../src/zxing_lib/zxing/qrcode/detector/FinderPatternFinder.cpp ****   // modules in size. This gives the smallest number of pixels the center
 449:../src/zxing_lib/zxing/qrcode/detector/FinderPatternFinder.cpp ****   // could be, so skip this often. When trying harder, look for all
 450:../src/zxing_lib/zxing/qrcode/detector/FinderPatternFinder.cpp ****   // QR versions regardless of how dense they are.
 451:../src/zxing_lib/zxing/qrcode/detector/FinderPatternFinder.cpp ****   int iSkip = (3 * maxI) / (4 * MAX_MODULES);
 452:../src/zxing_lib/zxing/qrcode/detector/FinderPatternFinder.cpp ****   if (iSkip < MIN_SKIP || tryHarder) {
 453:../src/zxing_lib/zxing/qrcode/detector/FinderPatternFinder.cpp ****       iSkip = MIN_SKIP;
 454:../src/zxing_lib/zxing/qrcode/detector/FinderPatternFinder.cpp ****   }
 455:../src/zxing_lib/zxing/qrcode/detector/FinderPatternFinder.cpp **** 
 456:../src/zxing_lib/zxing/qrcode/detector/FinderPatternFinder.cpp ****   // This is slightly faster than using the Ref. Efficiency is important here
 457:../src/zxing_lib/zxing/qrcode/detector/FinderPatternFinder.cpp ****   BitMatrix& matrix = *image_;
 458:../src/zxing_lib/zxing/qrcode/detector/FinderPatternFinder.cpp **** 
 459:../src/zxing_lib/zxing/qrcode/detector/FinderPatternFinder.cpp ****   for (size_t i = iSkip - 1; i < maxI && !done; i += iSkip) {
 460:../src/zxing_lib/zxing/qrcode/detector/FinderPatternFinder.cpp ****     // Get a row of black/white values
 461:../src/zxing_lib/zxing/qrcode/detector/FinderPatternFinder.cpp **** 
 462:../src/zxing_lib/zxing/qrcode/detector/FinderPatternFinder.cpp ****     stateCount[0] = 0;
 463:../src/zxing_lib/zxing/qrcode/detector/FinderPatternFinder.cpp ****     stateCount[1] = 0;
 464:../src/zxing_lib/zxing/qrcode/detector/FinderPatternFinder.cpp ****     stateCount[2] = 0;
 465:../src/zxing_lib/zxing/qrcode/detector/FinderPatternFinder.cpp ****     stateCount[3] = 0;
 466:../src/zxing_lib/zxing/qrcode/detector/FinderPatternFinder.cpp ****     stateCount[4] = 0;
 467:../src/zxing_lib/zxing/qrcode/detector/FinderPatternFinder.cpp ****     int currentState = 0;
 468:../src/zxing_lib/zxing/qrcode/detector/FinderPatternFinder.cpp ****     for (size_t j = 0; j < maxJ; j++) {
 469:../src/zxing_lib/zxing/qrcode/detector/FinderPatternFinder.cpp ****       if (matrix.get(j, i)) {
 470:../src/zxing_lib/zxing/qrcode/detector/FinderPatternFinder.cpp ****         // Black pixel
 471:../src/zxing_lib/zxing/qrcode/detector/FinderPatternFinder.cpp ****         if ((currentState & 1) == 1) { // Counting white pixels
 472:../src/zxing_lib/zxing/qrcode/detector/FinderPatternFinder.cpp ****           currentState++;
 473:../src/zxing_lib/zxing/qrcode/detector/FinderPatternFinder.cpp ****         }
 474:../src/zxing_lib/zxing/qrcode/detector/FinderPatternFinder.cpp ****         stateCount[currentState]++;
 475:../src/zxing_lib/zxing/qrcode/detector/FinderPatternFinder.cpp ****       } else { // White pixel
 476:../src/zxing_lib/zxing/qrcode/detector/FinderPatternFinder.cpp ****         if ((currentState & 1) == 0) { // Counting black pixels
 477:../src/zxing_lib/zxing/qrcode/detector/FinderPatternFinder.cpp ****           if (currentState == 4) { // A winner?
 478:../src/zxing_lib/zxing/qrcode/detector/FinderPatternFinder.cpp ****             if (foundPatternCross(stateCount)) { // Yes
 479:../src/zxing_lib/zxing/qrcode/detector/FinderPatternFinder.cpp ****               bool confirmed = handlePossibleCenter(stateCount, i, j);
 480:../src/zxing_lib/zxing/qrcode/detector/FinderPatternFinder.cpp ****               if (confirmed) {
 481:../src/zxing_lib/zxing/qrcode/detector/FinderPatternFinder.cpp ****                 // Start examining every other line. Checking each line turned out to be too
 482:../src/zxing_lib/zxing/qrcode/detector/FinderPatternFinder.cpp ****                 // expensive and didn't improve performance.
 483:../src/zxing_lib/zxing/qrcode/detector/FinderPatternFinder.cpp ****                 iSkip = 2;
 484:../src/zxing_lib/zxing/qrcode/detector/FinderPatternFinder.cpp ****                 if (hasSkipped_) {
 485:../src/zxing_lib/zxing/qrcode/detector/FinderPatternFinder.cpp ****                   done = haveMultiplyConfirmedCenters();
 486:../src/zxing_lib/zxing/qrcode/detector/FinderPatternFinder.cpp ****                 } else {
 487:../src/zxing_lib/zxing/qrcode/detector/FinderPatternFinder.cpp ****                   int rowSkip = findRowSkip();
 488:../src/zxing_lib/zxing/qrcode/detector/FinderPatternFinder.cpp ****                   if (rowSkip > stateCount[2]) {
 489:../src/zxing_lib/zxing/qrcode/detector/FinderPatternFinder.cpp ****                     // Skip rows between row of lower confirmed center
 490:../src/zxing_lib/zxing/qrcode/detector/FinderPatternFinder.cpp ****                     // and top of presumed third confirmed center
 491:../src/zxing_lib/zxing/qrcode/detector/FinderPatternFinder.cpp ****                     // but back up a bit to get a full chance of detecting
 492:../src/zxing_lib/zxing/qrcode/detector/FinderPatternFinder.cpp ****                     // it, entire width of center of finder pattern
 493:../src/zxing_lib/zxing/qrcode/detector/FinderPatternFinder.cpp **** 
 494:../src/zxing_lib/zxing/qrcode/detector/FinderPatternFinder.cpp ****                     // Skip by rowSkip, but back off by stateCount[2] (size
 495:../src/zxing_lib/zxing/qrcode/detector/FinderPatternFinder.cpp ****                     // of last center of pattern we saw) to be conservative,
 496:../src/zxing_lib/zxing/qrcode/detector/FinderPatternFinder.cpp ****                     // and also back off by iSkip which is about to be
 497:../src/zxing_lib/zxing/qrcode/detector/FinderPatternFinder.cpp ****                     // re-added
 498:../src/zxing_lib/zxing/qrcode/detector/FinderPatternFinder.cpp ****                     i += rowSkip - stateCount[2] - iSkip;
 499:../src/zxing_lib/zxing/qrcode/detector/FinderPatternFinder.cpp ****                     j = maxJ - 1;
 500:../src/zxing_lib/zxing/qrcode/detector/FinderPatternFinder.cpp ****                   }
 501:../src/zxing_lib/zxing/qrcode/detector/FinderPatternFinder.cpp ****                 }
 502:../src/zxing_lib/zxing/qrcode/detector/FinderPatternFinder.cpp ****               } else {
 503:../src/zxing_lib/zxing/qrcode/detector/FinderPatternFinder.cpp ****                 stateCount[0] = stateCount[2];
 504:../src/zxing_lib/zxing/qrcode/detector/FinderPatternFinder.cpp ****                 stateCount[1] = stateCount[3];
 505:../src/zxing_lib/zxing/qrcode/detector/FinderPatternFinder.cpp ****                 stateCount[2] = stateCount[4];
 506:../src/zxing_lib/zxing/qrcode/detector/FinderPatternFinder.cpp ****                 stateCount[3] = 1;
 507:../src/zxing_lib/zxing/qrcode/detector/FinderPatternFinder.cpp ****                 stateCount[4] = 0;
 508:../src/zxing_lib/zxing/qrcode/detector/FinderPatternFinder.cpp ****                 currentState = 3;
 509:../src/zxing_lib/zxing/qrcode/detector/FinderPatternFinder.cpp ****                 continue;
 510:../src/zxing_lib/zxing/qrcode/detector/FinderPatternFinder.cpp ****               }
 511:../src/zxing_lib/zxing/qrcode/detector/FinderPatternFinder.cpp ****               // Clear state to start looking again
 512:../src/zxing_lib/zxing/qrcode/detector/FinderPatternFinder.cpp ****               currentState = 0;
 513:../src/zxing_lib/zxing/qrcode/detector/FinderPatternFinder.cpp ****               stateCount[0] = 0;
 514:../src/zxing_lib/zxing/qrcode/detector/FinderPatternFinder.cpp ****               stateCount[1] = 0;
 515:../src/zxing_lib/zxing/qrcode/detector/FinderPatternFinder.cpp ****               stateCount[2] = 0;
 516:../src/zxing_lib/zxing/qrcode/detector/FinderPatternFinder.cpp ****               stateCount[3] = 0;
 517:../src/zxing_lib/zxing/qrcode/detector/FinderPatternFinder.cpp ****               stateCount[4] = 0;
 518:../src/zxing_lib/zxing/qrcode/detector/FinderPatternFinder.cpp ****             } else { // No, shift counts back by two
 519:../src/zxing_lib/zxing/qrcode/detector/FinderPatternFinder.cpp ****               stateCount[0] = stateCount[2];
 520:../src/zxing_lib/zxing/qrcode/detector/FinderPatternFinder.cpp ****               stateCount[1] = stateCount[3];
 521:../src/zxing_lib/zxing/qrcode/detector/FinderPatternFinder.cpp ****               stateCount[2] = stateCount[4];
 522:../src/zxing_lib/zxing/qrcode/detector/FinderPatternFinder.cpp ****               stateCount[3] = 1;
 523:../src/zxing_lib/zxing/qrcode/detector/FinderPatternFinder.cpp ****               stateCount[4] = 0;
 524:../src/zxing_lib/zxing/qrcode/detector/FinderPatternFinder.cpp ****               currentState = 3;
 525:../src/zxing_lib/zxing/qrcode/detector/FinderPatternFinder.cpp ****             }
 526:../src/zxing_lib/zxing/qrcode/detector/FinderPatternFinder.cpp ****           } else {
 527:../src/zxing_lib/zxing/qrcode/detector/FinderPatternFinder.cpp ****             stateCount[++currentState]++;
 528:../src/zxing_lib/zxing/qrcode/detector/FinderPatternFinder.cpp ****           }
 529:../src/zxing_lib/zxing/qrcode/detector/FinderPatternFinder.cpp ****         } else { // Counting white pixels
 530:../src/zxing_lib/zxing/qrcode/detector/FinderPatternFinder.cpp ****           stateCount[currentState]++;
 531:../src/zxing_lib/zxing/qrcode/detector/FinderPatternFinder.cpp ****         }
 532:../src/zxing_lib/zxing/qrcode/detector/FinderPatternFinder.cpp ****       }
 533:../src/zxing_lib/zxing/qrcode/detector/FinderPatternFinder.cpp ****     }
 534:../src/zxing_lib/zxing/qrcode/detector/FinderPatternFinder.cpp ****     if (foundPatternCross(stateCount)) {
 535:../src/zxing_lib/zxing/qrcode/detector/FinderPatternFinder.cpp ****       bool confirmed = handlePossibleCenter(stateCount, i, maxJ);
 536:../src/zxing_lib/zxing/qrcode/detector/FinderPatternFinder.cpp ****       if (confirmed) {
 537:../src/zxing_lib/zxing/qrcode/detector/FinderPatternFinder.cpp ****         iSkip = stateCount[0];
 538:../src/zxing_lib/zxing/qrcode/detector/FinderPatternFinder.cpp ****         if (hasSkipped_) {
 539:../src/zxing_lib/zxing/qrcode/detector/FinderPatternFinder.cpp ****           // Found a third one
 540:../src/zxing_lib/zxing/qrcode/detector/FinderPatternFinder.cpp ****           done = haveMultiplyConfirmedCenters();
 541:../src/zxing_lib/zxing/qrcode/detector/FinderPatternFinder.cpp ****         }
 542:../src/zxing_lib/zxing/qrcode/detector/FinderPatternFinder.cpp ****       }
 543:../src/zxing_lib/zxing/qrcode/detector/FinderPatternFinder.cpp ****     }
 544:../src/zxing_lib/zxing/qrcode/detector/FinderPatternFinder.cpp ****   }
 545:../src/zxing_lib/zxing/qrcode/detector/FinderPatternFinder.cpp **** 
 546:../src/zxing_lib/zxing/qrcode/detector/FinderPatternFinder.cpp ****   vector<Ref<FinderPattern> > patternInfo = selectBestPatterns();
 547:../src/zxing_lib/zxing/qrcode/detector/FinderPatternFinder.cpp ****   patternInfo = orderBestPatterns(patternInfo);
 548:../src/zxing_lib/zxing/qrcode/detector/FinderPatternFinder.cpp **** 
 549:../src/zxing_lib/zxing/qrcode/detector/FinderPatternFinder.cpp ****   Ref<FinderPatternInfo> result(new FinderPatternInfo(patternInfo));
 550:../src/zxing_lib/zxing/qrcode/detector/FinderPatternFinder.cpp ****   return result;
 551:../src/zxing_lib/zxing/qrcode/detector/FinderPatternFinder.cpp **** }
 552:../src/zxing_lib/zxing/qrcode/detector/FinderPatternFinder.cpp **** 
 553:../src/zxing_lib/zxing/qrcode/detector/FinderPatternFinder.cpp **** Ref<BitMatrix> FinderPatternFinder::getImage() {
 554:../src/zxing_lib/zxing/qrcode/detector/FinderPatternFinder.cpp ****   return image_;
 555:../src/zxing_lib/zxing/qrcode/detector/FinderPatternFinder.cpp **** }
 556:../src/zxing_lib/zxing/qrcode/detector/FinderPatternFinder.cpp **** 
 557:../src/zxing_lib/zxing/qrcode/detector/FinderPatternFinder.cpp **** vector<Ref<FinderPattern> >& FinderPatternFinder::getPossibleCenters() {
 558:../src/zxing_lib/zxing/qrcode/detector/FinderPatternFinder.cpp ****   return possibleCenters_;
 559:../src/zxing_lib/zxing/qrcode/detector/FinderPatternFinder.cpp **** }
 161              		.loc 2 559 0
 162              		.cfi_startproc
 163              		@ args = 0, pretend = 0, frame = 0
 164              		@ frame_needed = 0, uses_anonymous_args = 0
 165              	.LVL8:
 166 0000 010050E3 		cmp	r0, #1
 167 0004 1EFF2F11 		bxne	lr
 168              		.loc 2 559 0 is_stmt 0 discriminator 1
 169 0008 FF3F0FE3 		movw	r3, #65535
 170 000c 030051E1 		cmp	r1, r3
 171 0010 1EFF2F11 		bxne	lr
 172              		.loc 2 559 0
 173 0014 10402DE9 		push	{r4, lr}
 174              		.cfi_def_cfa_offset 8
 175              		.cfi_offset 4, -8
 176              		.cfi_offset 14, -4
 177              		.file 3 "/home/zkmike/.local/share/renesas/e2_studio/toolchains/gcc_arm/gcc-arm-none-eabi-6-2017-q
   1:/home/zkmike/.local/share/renesas/e2_studio/toolchains/gcc_arm/gcc-arm-none-eabi-6-2017-q2-update/arm-none-eabi/include/c++/6.3.1/iostream **** // Standard iostream objects -*- C++ -*-
   2:/home/zkmike/.local/share/renesas/e2_studio/toolchains/gcc_arm/gcc-arm-none-eabi-6-2017-q2-update/arm-none-eabi/include/c++/6.3.1/iostream **** 
   3:/home/zkmike/.local/share/renesas/e2_studio/toolchains/gcc_arm/gcc-arm-none-eabi-6-2017-q2-update/arm-none-eabi/include/c++/6.3.1/iostream **** // Copyright (C) 1997-2016 Free Software Foundation, Inc.
   4:/home/zkmike/.local/share/renesas/e2_studio/toolchains/gcc_arm/gcc-arm-none-eabi-6-2017-q2-update/arm-none-eabi/include/c++/6.3.1/iostream **** //
   5:/home/zkmike/.local/share/renesas/e2_studio/toolchains/gcc_arm/gcc-arm-none-eabi-6-2017-q2-update/arm-none-eabi/include/c++/6.3.1/iostream **** // This file is part of the GNU ISO C++ Library.  This library is free
   6:/home/zkmike/.local/share/renesas/e2_studio/toolchains/gcc_arm/gcc-arm-none-eabi-6-2017-q2-update/arm-none-eabi/include/c++/6.3.1/iostream **** // software; you can redistribute it and/or modify it under the
   7:/home/zkmike/.local/share/renesas/e2_studio/toolchains/gcc_arm/gcc-arm-none-eabi-6-2017-q2-update/arm-none-eabi/include/c++/6.3.1/iostream **** // terms of the GNU General Public License as published by the
   8:/home/zkmike/.local/share/renesas/e2_studio/toolchains/gcc_arm/gcc-arm-none-eabi-6-2017-q2-update/arm-none-eabi/include/c++/6.3.1/iostream **** // Free Software Foundation; either version 3, or (at your option)
   9:/home/zkmike/.local/share/renesas/e2_studio/toolchains/gcc_arm/gcc-arm-none-eabi-6-2017-q2-update/arm-none-eabi/include/c++/6.3.1/iostream **** // any later version.
  10:/home/zkmike/.local/share/renesas/e2_studio/toolchains/gcc_arm/gcc-arm-none-eabi-6-2017-q2-update/arm-none-eabi/include/c++/6.3.1/iostream **** 
  11:/home/zkmike/.local/share/renesas/e2_studio/toolchains/gcc_arm/gcc-arm-none-eabi-6-2017-q2-update/arm-none-eabi/include/c++/6.3.1/iostream **** // This library is distributed in the hope that it will be useful,
  12:/home/zkmike/.local/share/renesas/e2_studio/toolchains/gcc_arm/gcc-arm-none-eabi-6-2017-q2-update/arm-none-eabi/include/c++/6.3.1/iostream **** // but WITHOUT ANY WARRANTY; without even the implied warranty of
  13:/home/zkmike/.local/share/renesas/e2_studio/toolchains/gcc_arm/gcc-arm-none-eabi-6-2017-q2-update/arm-none-eabi/include/c++/6.3.1/iostream **** // MERCHANTABILITY or FITNESS FOR A PARTICULAR PURPOSE.  See the
  14:/home/zkmike/.local/share/renesas/e2_studio/toolchains/gcc_arm/gcc-arm-none-eabi-6-2017-q2-update/arm-none-eabi/include/c++/6.3.1/iostream **** // GNU General Public License for more details.
  15:/home/zkmike/.local/share/renesas/e2_studio/toolchains/gcc_arm/gcc-arm-none-eabi-6-2017-q2-update/arm-none-eabi/include/c++/6.3.1/iostream **** 
  16:/home/zkmike/.local/share/renesas/e2_studio/toolchains/gcc_arm/gcc-arm-none-eabi-6-2017-q2-update/arm-none-eabi/include/c++/6.3.1/iostream **** // Under Section 7 of GPL version 3, you are granted additional
  17:/home/zkmike/.local/share/renesas/e2_studio/toolchains/gcc_arm/gcc-arm-none-eabi-6-2017-q2-update/arm-none-eabi/include/c++/6.3.1/iostream **** // permissions described in the GCC Runtime Library Exception, version
  18:/home/zkmike/.local/share/renesas/e2_studio/toolchains/gcc_arm/gcc-arm-none-eabi-6-2017-q2-update/arm-none-eabi/include/c++/6.3.1/iostream **** // 3.1, as published by the Free Software Foundation.
  19:/home/zkmike/.local/share/renesas/e2_studio/toolchains/gcc_arm/gcc-arm-none-eabi-6-2017-q2-update/arm-none-eabi/include/c++/6.3.1/iostream **** 
  20:/home/zkmike/.local/share/renesas/e2_studio/toolchains/gcc_arm/gcc-arm-none-eabi-6-2017-q2-update/arm-none-eabi/include/c++/6.3.1/iostream **** // You should have received a copy of the GNU General Public License and
  21:/home/zkmike/.local/share/renesas/e2_studio/toolchains/gcc_arm/gcc-arm-none-eabi-6-2017-q2-update/arm-none-eabi/include/c++/6.3.1/iostream **** // a copy of the GCC Runtime Library Exception along with this program;
  22:/home/zkmike/.local/share/renesas/e2_studio/toolchains/gcc_arm/gcc-arm-none-eabi-6-2017-q2-update/arm-none-eabi/include/c++/6.3.1/iostream **** // see the files COPYING3 and COPYING.RUNTIME respectively.  If not, see
  23:/home/zkmike/.local/share/renesas/e2_studio/toolchains/gcc_arm/gcc-arm-none-eabi-6-2017-q2-update/arm-none-eabi/include/c++/6.3.1/iostream **** // <http://www.gnu.org/licenses/>.
  24:/home/zkmike/.local/share/renesas/e2_studio/toolchains/gcc_arm/gcc-arm-none-eabi-6-2017-q2-update/arm-none-eabi/include/c++/6.3.1/iostream **** 
  25:/home/zkmike/.local/share/renesas/e2_studio/toolchains/gcc_arm/gcc-arm-none-eabi-6-2017-q2-update/arm-none-eabi/include/c++/6.3.1/iostream **** /** @file include/iostream
  26:/home/zkmike/.local/share/renesas/e2_studio/toolchains/gcc_arm/gcc-arm-none-eabi-6-2017-q2-update/arm-none-eabi/include/c++/6.3.1/iostream ****  *  This is a Standard C++ Library header.
  27:/home/zkmike/.local/share/renesas/e2_studio/toolchains/gcc_arm/gcc-arm-none-eabi-6-2017-q2-update/arm-none-eabi/include/c++/6.3.1/iostream ****  */
  28:/home/zkmike/.local/share/renesas/e2_studio/toolchains/gcc_arm/gcc-arm-none-eabi-6-2017-q2-update/arm-none-eabi/include/c++/6.3.1/iostream **** 
  29:/home/zkmike/.local/share/renesas/e2_studio/toolchains/gcc_arm/gcc-arm-none-eabi-6-2017-q2-update/arm-none-eabi/include/c++/6.3.1/iostream **** //
  30:/home/zkmike/.local/share/renesas/e2_studio/toolchains/gcc_arm/gcc-arm-none-eabi-6-2017-q2-update/arm-none-eabi/include/c++/6.3.1/iostream **** // ISO C++ 14882: 27.3  Standard iostream objects
  31:/home/zkmike/.local/share/renesas/e2_studio/toolchains/gcc_arm/gcc-arm-none-eabi-6-2017-q2-update/arm-none-eabi/include/c++/6.3.1/iostream **** //
  32:/home/zkmike/.local/share/renesas/e2_studio/toolchains/gcc_arm/gcc-arm-none-eabi-6-2017-q2-update/arm-none-eabi/include/c++/6.3.1/iostream **** 
  33:/home/zkmike/.local/share/renesas/e2_studio/toolchains/gcc_arm/gcc-arm-none-eabi-6-2017-q2-update/arm-none-eabi/include/c++/6.3.1/iostream **** #ifndef _GLIBCXX_IOSTREAM
  34:/home/zkmike/.local/share/renesas/e2_studio/toolchains/gcc_arm/gcc-arm-none-eabi-6-2017-q2-update/arm-none-eabi/include/c++/6.3.1/iostream **** #define _GLIBCXX_IOSTREAM 1
  35:/home/zkmike/.local/share/renesas/e2_studio/toolchains/gcc_arm/gcc-arm-none-eabi-6-2017-q2-update/arm-none-eabi/include/c++/6.3.1/iostream **** 
  36:/home/zkmike/.local/share/renesas/e2_studio/toolchains/gcc_arm/gcc-arm-none-eabi-6-2017-q2-update/arm-none-eabi/include/c++/6.3.1/iostream **** #pragma GCC system_header
  37:/home/zkmike/.local/share/renesas/e2_studio/toolchains/gcc_arm/gcc-arm-none-eabi-6-2017-q2-update/arm-none-eabi/include/c++/6.3.1/iostream **** 
  38:/home/zkmike/.local/share/renesas/e2_studio/toolchains/gcc_arm/gcc-arm-none-eabi-6-2017-q2-update/arm-none-eabi/include/c++/6.3.1/iostream **** #include <bits/c++config.h>
  39:/home/zkmike/.local/share/renesas/e2_studio/toolchains/gcc_arm/gcc-arm-none-eabi-6-2017-q2-update/arm-none-eabi/include/c++/6.3.1/iostream **** #include <ostream>
  40:/home/zkmike/.local/share/renesas/e2_studio/toolchains/gcc_arm/gcc-arm-none-eabi-6-2017-q2-update/arm-none-eabi/include/c++/6.3.1/iostream **** #include <istream>
  41:/home/zkmike/.local/share/renesas/e2_studio/toolchains/gcc_arm/gcc-arm-none-eabi-6-2017-q2-update/arm-none-eabi/include/c++/6.3.1/iostream **** 
  42:/home/zkmike/.local/share/renesas/e2_studio/toolchains/gcc_arm/gcc-arm-none-eabi-6-2017-q2-update/arm-none-eabi/include/c++/6.3.1/iostream **** namespace std _GLIBCXX_VISIBILITY(default)
  43:/home/zkmike/.local/share/renesas/e2_studio/toolchains/gcc_arm/gcc-arm-none-eabi-6-2017-q2-update/arm-none-eabi/include/c++/6.3.1/iostream **** {
  44:/home/zkmike/.local/share/renesas/e2_studio/toolchains/gcc_arm/gcc-arm-none-eabi-6-2017-q2-update/arm-none-eabi/include/c++/6.3.1/iostream **** _GLIBCXX_BEGIN_NAMESPACE_VERSION
  45:/home/zkmike/.local/share/renesas/e2_studio/toolchains/gcc_arm/gcc-arm-none-eabi-6-2017-q2-update/arm-none-eabi/include/c++/6.3.1/iostream **** 
  46:/home/zkmike/.local/share/renesas/e2_studio/toolchains/gcc_arm/gcc-arm-none-eabi-6-2017-q2-update/arm-none-eabi/include/c++/6.3.1/iostream ****   /**
  47:/home/zkmike/.local/share/renesas/e2_studio/toolchains/gcc_arm/gcc-arm-none-eabi-6-2017-q2-update/arm-none-eabi/include/c++/6.3.1/iostream ****    *  @name Standard Stream Objects
  48:/home/zkmike/.local/share/renesas/e2_studio/toolchains/gcc_arm/gcc-arm-none-eabi-6-2017-q2-update/arm-none-eabi/include/c++/6.3.1/iostream ****    *
  49:/home/zkmike/.local/share/renesas/e2_studio/toolchains/gcc_arm/gcc-arm-none-eabi-6-2017-q2-update/arm-none-eabi/include/c++/6.3.1/iostream ****    *  The &lt;iostream&gt; header declares the eight <em>standard stream
  50:/home/zkmike/.local/share/renesas/e2_studio/toolchains/gcc_arm/gcc-arm-none-eabi-6-2017-q2-update/arm-none-eabi/include/c++/6.3.1/iostream ****    *  objects</em>.  For other declarations, see
  51:/home/zkmike/.local/share/renesas/e2_studio/toolchains/gcc_arm/gcc-arm-none-eabi-6-2017-q2-update/arm-none-eabi/include/c++/6.3.1/iostream ****    *  http://gcc.gnu.org/onlinedocs/libstdc++/manual/io.html
  52:/home/zkmike/.local/share/renesas/e2_studio/toolchains/gcc_arm/gcc-arm-none-eabi-6-2017-q2-update/arm-none-eabi/include/c++/6.3.1/iostream ****    *  and the @link iosfwd I/O forward declarations @endlink
  53:/home/zkmike/.local/share/renesas/e2_studio/toolchains/gcc_arm/gcc-arm-none-eabi-6-2017-q2-update/arm-none-eabi/include/c++/6.3.1/iostream ****    *
  54:/home/zkmike/.local/share/renesas/e2_studio/toolchains/gcc_arm/gcc-arm-none-eabi-6-2017-q2-update/arm-none-eabi/include/c++/6.3.1/iostream ****    *  They are required by default to cooperate with the global C
  55:/home/zkmike/.local/share/renesas/e2_studio/toolchains/gcc_arm/gcc-arm-none-eabi-6-2017-q2-update/arm-none-eabi/include/c++/6.3.1/iostream ****    *  library's @c FILE streams, and to be available during program
  56:/home/zkmike/.local/share/renesas/e2_studio/toolchains/gcc_arm/gcc-arm-none-eabi-6-2017-q2-update/arm-none-eabi/include/c++/6.3.1/iostream ****    *  startup and termination. For more information, see the section of the
  57:/home/zkmike/.local/share/renesas/e2_studio/toolchains/gcc_arm/gcc-arm-none-eabi-6-2017-q2-update/arm-none-eabi/include/c++/6.3.1/iostream ****    *  manual linked to above.
  58:/home/zkmike/.local/share/renesas/e2_studio/toolchains/gcc_arm/gcc-arm-none-eabi-6-2017-q2-update/arm-none-eabi/include/c++/6.3.1/iostream ****   */
  59:/home/zkmike/.local/share/renesas/e2_studio/toolchains/gcc_arm/gcc-arm-none-eabi-6-2017-q2-update/arm-none-eabi/include/c++/6.3.1/iostream ****   //@{
  60:/home/zkmike/.local/share/renesas/e2_studio/toolchains/gcc_arm/gcc-arm-none-eabi-6-2017-q2-update/arm-none-eabi/include/c++/6.3.1/iostream ****   extern istream cin;		/// Linked to standard input
  61:/home/zkmike/.local/share/renesas/e2_studio/toolchains/gcc_arm/gcc-arm-none-eabi-6-2017-q2-update/arm-none-eabi/include/c++/6.3.1/iostream ****   extern ostream cout;		/// Linked to standard output
  62:/home/zkmike/.local/share/renesas/e2_studio/toolchains/gcc_arm/gcc-arm-none-eabi-6-2017-q2-update/arm-none-eabi/include/c++/6.3.1/iostream ****   extern ostream cerr;		/// Linked to standard error (unbuffered)
  63:/home/zkmike/.local/share/renesas/e2_studio/toolchains/gcc_arm/gcc-arm-none-eabi-6-2017-q2-update/arm-none-eabi/include/c++/6.3.1/iostream ****   extern ostream clog;		/// Linked to standard error (buffered)
  64:/home/zkmike/.local/share/renesas/e2_studio/toolchains/gcc_arm/gcc-arm-none-eabi-6-2017-q2-update/arm-none-eabi/include/c++/6.3.1/iostream **** 
  65:/home/zkmike/.local/share/renesas/e2_studio/toolchains/gcc_arm/gcc-arm-none-eabi-6-2017-q2-update/arm-none-eabi/include/c++/6.3.1/iostream **** #ifdef _GLIBCXX_USE_WCHAR_T
  66:/home/zkmike/.local/share/renesas/e2_studio/toolchains/gcc_arm/gcc-arm-none-eabi-6-2017-q2-update/arm-none-eabi/include/c++/6.3.1/iostream ****   extern wistream wcin;		/// Linked to standard input
  67:/home/zkmike/.local/share/renesas/e2_studio/toolchains/gcc_arm/gcc-arm-none-eabi-6-2017-q2-update/arm-none-eabi/include/c++/6.3.1/iostream ****   extern wostream wcout;	/// Linked to standard output
  68:/home/zkmike/.local/share/renesas/e2_studio/toolchains/gcc_arm/gcc-arm-none-eabi-6-2017-q2-update/arm-none-eabi/include/c++/6.3.1/iostream ****   extern wostream wcerr;	/// Linked to standard error (unbuffered)
  69:/home/zkmike/.local/share/renesas/e2_studio/toolchains/gcc_arm/gcc-arm-none-eabi-6-2017-q2-update/arm-none-eabi/include/c++/6.3.1/iostream ****   extern wostream wclog;	/// Linked to standard error (buffered)
  70:/home/zkmike/.local/share/renesas/e2_studio/toolchains/gcc_arm/gcc-arm-none-eabi-6-2017-q2-update/arm-none-eabi/include/c++/6.3.1/iostream **** #endif
  71:/home/zkmike/.local/share/renesas/e2_studio/toolchains/gcc_arm/gcc-arm-none-eabi-6-2017-q2-update/arm-none-eabi/include/c++/6.3.1/iostream ****   //@}
  72:/home/zkmike/.local/share/renesas/e2_studio/toolchains/gcc_arm/gcc-arm-none-eabi-6-2017-q2-update/arm-none-eabi/include/c++/6.3.1/iostream **** 
  73:/home/zkmike/.local/share/renesas/e2_studio/toolchains/gcc_arm/gcc-arm-none-eabi-6-2017-q2-update/arm-none-eabi/include/c++/6.3.1/iostream ****   // For construction of filebuffers for cout, cin, cerr, clog et. al.
  74:/home/zkmike/.local/share/renesas/e2_studio/toolchains/gcc_arm/gcc-arm-none-eabi-6-2017-q2-update/arm-none-eabi/include/c++/6.3.1/iostream ****   static ios_base::Init __ioinit;
 178              		.loc 3 74 0 is_stmt 1
 179 0018 004000E3 		movw	r4, #:lower16:.LANCHOR0
 180 001c 004040E3 		movt	r4, #:upper16:.LANCHOR0
 181 0020 0400A0E1 		mov	r0, r4
 182              	.LVL9:
 183 0024 FEFFFFEB 		bl	_ZNSt8ios_base4InitC1Ev
 184              	.LVL10:
 185 0028 002000E3 		movw	r2, #:lower16:__dso_handle
 186 002c 002040E3 		movt	r2, #:upper16:__dso_handle
 187 0030 001000E3 		movw	r1, #:lower16:_ZNSt8ios_base4InitD1Ev
 188 0034 001040E3 		movt	r1, #:upper16:_ZNSt8ios_base4InitD1Ev
 189 0038 0400A0E1 		mov	r0, r4
 190 003c FEFFFFEB 		bl	__aeabi_atexit
 191              	.LVL11:
 192 0040 1080BDE8 		pop	{r4, pc}
 193              		.cfi_endproc
 194              	.LFE3268:
 195              		.cantunwind
 196              		.fnend
 198              		.section	.text._ZN5zxing15ReaderExceptionD2Ev,"axG",%progbits,_ZN5zxing15ReaderExceptionD5Ev,comda
 199              		.align	2
 200              		.weak	_ZN5zxing15ReaderExceptionD2Ev
 201              		.syntax unified
 202              		.arm
 203              		.fpu neon
 205              	_ZN5zxing15ReaderExceptionD2Ev:
 206              		.fnstart
 207              	.LFB2504:
 208              		.file 4 "/home/zkmike/workspace/RZA2M/rza2m_2d_barcode_sample_freertos_gcc/src/zxing_lib/zxing/Rea
   1:/home/zkmike/workspace/RZA2M/rza2m_2d_barcode_sample_freertos_gcc/src/zxing_lib/zxing/ReaderException.h **** // -*- mode:c++; tab-width:2; indent-tabs-mode:nil; c-basic-offset:2 -*-
   2:/home/zkmike/workspace/RZA2M/rza2m_2d_barcode_sample_freertos_gcc/src/zxing_lib/zxing/ReaderException.h **** #ifndef __READER_EXCEPTION_H__
   3:/home/zkmike/workspace/RZA2M/rza2m_2d_barcode_sample_freertos_gcc/src/zxing_lib/zxing/ReaderException.h **** #define __READER_EXCEPTION_H__
   4:/home/zkmike/workspace/RZA2M/rza2m_2d_barcode_sample_freertos_gcc/src/zxing_lib/zxing/ReaderException.h **** 
   5:/home/zkmike/workspace/RZA2M/rza2m_2d_barcode_sample_freertos_gcc/src/zxing_lib/zxing/ReaderException.h **** /*
   6:/home/zkmike/workspace/RZA2M/rza2m_2d_barcode_sample_freertos_gcc/src/zxing_lib/zxing/ReaderException.h ****  *  ReaderException.h
   7:/home/zkmike/workspace/RZA2M/rza2m_2d_barcode_sample_freertos_gcc/src/zxing_lib/zxing/ReaderException.h ****  *  zxing
   8:/home/zkmike/workspace/RZA2M/rza2m_2d_barcode_sample_freertos_gcc/src/zxing_lib/zxing/ReaderException.h ****  *
   9:/home/zkmike/workspace/RZA2M/rza2m_2d_barcode_sample_freertos_gcc/src/zxing_lib/zxing/ReaderException.h ****  *  Copyright 2010 ZXing authors All rights reserved.
  10:/home/zkmike/workspace/RZA2M/rza2m_2d_barcode_sample_freertos_gcc/src/zxing_lib/zxing/ReaderException.h ****  *
  11:/home/zkmike/workspace/RZA2M/rza2m_2d_barcode_sample_freertos_gcc/src/zxing_lib/zxing/ReaderException.h ****  * Licensed under the Apache License, Version 2.0 (the "License");
  12:/home/zkmike/workspace/RZA2M/rza2m_2d_barcode_sample_freertos_gcc/src/zxing_lib/zxing/ReaderException.h ****  * you may not use this file except in compliance with the License.
  13:/home/zkmike/workspace/RZA2M/rza2m_2d_barcode_sample_freertos_gcc/src/zxing_lib/zxing/ReaderException.h ****  * You may obtain a copy of the License at
  14:/home/zkmike/workspace/RZA2M/rza2m_2d_barcode_sample_freertos_gcc/src/zxing_lib/zxing/ReaderException.h ****  *
  15:/home/zkmike/workspace/RZA2M/rza2m_2d_barcode_sample_freertos_gcc/src/zxing_lib/zxing/ReaderException.h ****  *      http://www.apache.org/licenses/LICENSE-2.0
  16:/home/zkmike/workspace/RZA2M/rza2m_2d_barcode_sample_freertos_gcc/src/zxing_lib/zxing/ReaderException.h ****  *
  17:/home/zkmike/workspace/RZA2M/rza2m_2d_barcode_sample_freertos_gcc/src/zxing_lib/zxing/ReaderException.h ****  * Unless required by applicable law or agreed to in writing, software
  18:/home/zkmike/workspace/RZA2M/rza2m_2d_barcode_sample_freertos_gcc/src/zxing_lib/zxing/ReaderException.h ****  * distributed under the License is distributed on an "AS IS" BASIS,
  19:/home/zkmike/workspace/RZA2M/rza2m_2d_barcode_sample_freertos_gcc/src/zxing_lib/zxing/ReaderException.h ****  * WITHOUT WARRANTIES OR CONDITIONS OF ANY KIND, either express or implied.
  20:/home/zkmike/workspace/RZA2M/rza2m_2d_barcode_sample_freertos_gcc/src/zxing_lib/zxing/ReaderException.h ****  * See the License for the specific language governing permissions and
  21:/home/zkmike/workspace/RZA2M/rza2m_2d_barcode_sample_freertos_gcc/src/zxing_lib/zxing/ReaderException.h ****  * limitations under the License.
  22:/home/zkmike/workspace/RZA2M/rza2m_2d_barcode_sample_freertos_gcc/src/zxing_lib/zxing/ReaderException.h ****  */
  23:/home/zkmike/workspace/RZA2M/rza2m_2d_barcode_sample_freertos_gcc/src/zxing_lib/zxing/ReaderException.h **** 
  24:/home/zkmike/workspace/RZA2M/rza2m_2d_barcode_sample_freertos_gcc/src/zxing_lib/zxing/ReaderException.h **** #include <zxing/Exception.h>
  25:/home/zkmike/workspace/RZA2M/rza2m_2d_barcode_sample_freertos_gcc/src/zxing_lib/zxing/ReaderException.h **** 
  26:/home/zkmike/workspace/RZA2M/rza2m_2d_barcode_sample_freertos_gcc/src/zxing_lib/zxing/ReaderException.h **** namespace zxing {
  27:/home/zkmike/workspace/RZA2M/rza2m_2d_barcode_sample_freertos_gcc/src/zxing_lib/zxing/ReaderException.h **** 
  28:/home/zkmike/workspace/RZA2M/rza2m_2d_barcode_sample_freertos_gcc/src/zxing_lib/zxing/ReaderException.h **** class ReaderException : public Exception {
  29:/home/zkmike/workspace/RZA2M/rza2m_2d_barcode_sample_freertos_gcc/src/zxing_lib/zxing/ReaderException.h ****  public:
  30:/home/zkmike/workspace/RZA2M/rza2m_2d_barcode_sample_freertos_gcc/src/zxing_lib/zxing/ReaderException.h ****   ReaderException() throw() {}
  31:/home/zkmike/workspace/RZA2M/rza2m_2d_barcode_sample_freertos_gcc/src/zxing_lib/zxing/ReaderException.h ****   ReaderException(char const* msg) throw() : Exception(msg) {}
  32:/home/zkmike/workspace/RZA2M/rza2m_2d_barcode_sample_freertos_gcc/src/zxing_lib/zxing/ReaderException.h ****   ~ReaderException() throw() {}
 209              		.loc 4 32 0
 210              		.cfi_startproc
 211              		.cfi_personality 0,__gxx_personality_v0
 212              		.cfi_lsda 0,.LLSDA2504
 213              		@ args = 0, pretend = 0, frame = 0
 214              		@ frame_needed = 0, uses_anonymous_args = 0
 215              	.LVL12:
 216 0000 70402DE9 		push	{r4, r5, r6, lr}
 217              		.save {r4, r5, r6, lr}
 218              		.cfi_def_cfa_offset 16
 219              		.cfi_offset 4, -16
 220              		.cfi_offset 5, -12
 221              		.cfi_offset 6, -8
 222              		.cfi_offset 14, -4
 223 0004 0040A0E1 		mov	r4, r0
 224              	.LVL13:
 225              	.LBB2467:
 226              	.LBB2468:
 227              	.LBB2469:
 228              	.LBB2470:
  37:/home/zkmike/workspace/RZA2M/rza2m_2d_barcode_sample_freertos_gcc/src/zxing_lib/zxing/Exception.h ****     if(message) {
 229              		.loc 1 37 0
 230 0008 48309FE5 		ldr	r3, .L25
 231 000c 003080E5 		str	r3, [r0]
  38:/home/zkmike/workspace/RZA2M/rza2m_2d_barcode_sample_freertos_gcc/src/zxing_lib/zxing/Exception.h ****       deleteMessage();
 232              		.loc 1 38 0
 233 0010 043090E5 		ldr	r3, [r0, #4]
 234 0014 000053E3 		cmp	r3, #0
 235 0018 0A00000A 		beq	.L19
 236              	.LEHB2:
  39:/home/zkmike/workspace/RZA2M/rza2m_2d_barcode_sample_freertos_gcc/src/zxing_lib/zxing/Exception.h ****     }
 237              		.loc 1 39 0
 238 001c FEFFFFEB 		bl	_ZN5zxing9Exception13deleteMessageEv
 239              	.LVL14:
 240              	.LEHE2:
 241 0020 080000EA 		b	.L19
 242              	.L22:
 243 0024 0050A0E1 		mov	r5, r0
 244 0028 0160A0E1 		mov	r6, r1
  37:/home/zkmike/workspace/RZA2M/rza2m_2d_barcode_sample_freertos_gcc/src/zxing_lib/zxing/Exception.h ****     if(message) {
 245              		.loc 1 37 0
 246 002c 0400A0E1 		mov	r0, r4
 247 0030 FEFFFFEB 		bl	_ZNSt9exceptionD2Ev
 248              	.LVL15:
 249 0034 010076E3 		cmn	r6, #1
 250 0038 0000000A 		beq	.L21
 251              	.LEHB3:
 252 003c FEFFFFEB 		bl	__cxa_end_cleanup
 253              	.LVL16:
 254              	.L21:
 255              	.LBE2470:
 256 0040 0500A0E1 		mov	r0, r5
 257 0044 FEFFFFEB 		bl	__cxa_call_unexpected
 258              	.LVL17:
 259              	.LEHE3:
 260              	.L19:
 261              	.LBB2471:
 262 0048 0400A0E1 		mov	r0, r4
 263 004c FEFFFFEB 		bl	_ZNSt9exceptionD2Ev
 264              	.LVL18:
 265              	.LBE2471:
 266              	.LBE2469:
 267              	.LBE2468:
 268              	.LBE2467:
 269              		.loc 4 32 0
 270 0050 0400A0E1 		mov	r0, r4
 271 0054 7080BDE8 		pop	{r4, r5, r6, pc}
 272              	.L26:
 273              		.align	2
 274              	.L25:
 275 0058 08000000 		.word	_ZTVN5zxing9ExceptionE+8
 276              		.cfi_endproc
 277              	.LFE2504:
 278              		.personality	__gxx_personality_v0
 279              		.handlerdata
 280              		.align	2
 281              	.LLSDA2504:
 282 0008 FF       		.byte	0xff
 283 0009 10       		.byte	0x10
 284 000a 11       		.uleb128 .LLSDATT2504-.LLSDATTD2504
 285              	.LLSDATTD2504:
 286 000b 01       		.byte	0x1
 287 000c 08       		.uleb128 .LLSDACSE2504-.LLSDACSB2504
 288              	.LLSDACSB2504:
 289 000d 1C       		.uleb128 .LEHB2-.LFB2504
 290 000e 04       		.uleb128 .LEHE2-.LEHB2
 291 000f 24       		.uleb128 .L22-.LFB2504
 292 0010 03       		.uleb128 0x3
 293 0011 3C       		.uleb128 .LEHB3-.LFB2504
 294 0012 0C       		.uleb128 .LEHE3-.LEHB3
 295 0013 00       		.uleb128 0
 296 0014 00       		.uleb128 0
 297              	.LLSDACSE2504:
 298 0015 7F       		.byte	0x7f
 299 0016 00       		.byte	0
 300 0017 00       		.byte	0
 301 0018 7D       		.byte	0x7d
 302 0019 000000   		.align	2
 303              	.LLSDATT2504:
 304 001c 00000000 		.word	0
 305              		.section	.text._ZN5zxing15ReaderExceptionD2Ev,"axG",%progbits,_ZN5zxing15ReaderExceptionD5Ev,comda
 306              		.fnend
 308              		.weak	_ZN5zxing15ReaderExceptionD1Ev
 309              		.set	_ZN5zxing15ReaderExceptionD1Ev,_ZN5zxing15ReaderExceptionD2Ev
 310              		.section	.text._ZN5zxing9ExceptionD0Ev,"axG",%progbits,_ZN5zxing9ExceptionD5Ev,comdat
 311              		.align	2
 312              		.weak	_ZN5zxing9ExceptionD0Ev
 313              		.syntax unified
 314              		.arm
 315              		.fpu neon
 317              	_ZN5zxing9ExceptionD0Ev:
 318              		.fnstart
 319              	.LFB2487:
  37:/home/zkmike/workspace/RZA2M/rza2m_2d_barcode_sample_freertos_gcc/src/zxing_lib/zxing/Exception.h ****     if(message) {
 320              		.loc 1 37 0
 321              		.cfi_startproc
 322              		.cfi_personality 0,__gxx_personality_v0
 323              		.cfi_lsda 0,.LLSDA2487
 324              		@ args = 0, pretend = 0, frame = 0
 325              		@ frame_needed = 0, uses_anonymous_args = 0
 326              	.LVL19:
 327 0000 70402DE9 		push	{r4, r5, r6, lr}
 328              		.save {r4, r5, r6, lr}
 329              		.cfi_def_cfa_offset 16
 330              		.cfi_offset 4, -16
 331              		.cfi_offset 5, -12
 332              		.cfi_offset 6, -8
 333              		.cfi_offset 14, -4
 334 0004 0040A0E1 		mov	r4, r0
 335              	.LVL20:
 336              	.LBB2475:
 337              	.LBB2476:
 338              	.LBB2477:
  37:/home/zkmike/workspace/RZA2M/rza2m_2d_barcode_sample_freertos_gcc/src/zxing_lib/zxing/Exception.h ****     if(message) {
 339              		.loc 1 37 0
 340 0008 54309FE5 		ldr	r3, .L34
 341 000c 003080E5 		str	r3, [r0]
  38:/home/zkmike/workspace/RZA2M/rza2m_2d_barcode_sample_freertos_gcc/src/zxing_lib/zxing/Exception.h ****       deleteMessage();
 342              		.loc 1 38 0
 343 0010 043090E5 		ldr	r3, [r0, #4]
 344 0014 000053E3 		cmp	r3, #0
 345 0018 0A00000A 		beq	.L28
 346              	.LEHB4:
  39:/home/zkmike/workspace/RZA2M/rza2m_2d_barcode_sample_freertos_gcc/src/zxing_lib/zxing/Exception.h ****     }
 347              		.loc 1 39 0
 348 001c FEFFFFEB 		bl	_ZN5zxing9Exception13deleteMessageEv
 349              	.LVL21:
 350              	.LEHE4:
 351 0020 080000EA 		b	.L28
 352              	.L31:
 353 0024 0050A0E1 		mov	r5, r0
 354 0028 0160A0E1 		mov	r6, r1
  37:/home/zkmike/workspace/RZA2M/rza2m_2d_barcode_sample_freertos_gcc/src/zxing_lib/zxing/Exception.h ****     if(message) {
 355              		.loc 1 37 0
 356 002c 0400A0E1 		mov	r0, r4
 357 0030 FEFFFFEB 		bl	_ZNSt9exceptionD2Ev
 358              	.LVL22:
 359 0034 010076E3 		cmn	r6, #1
 360 0038 0000000A 		beq	.L30
 361              	.LEHB5:
 362 003c FEFFFFEB 		bl	__cxa_end_cleanup
 363              	.LVL23:
 364              	.L30:
 365              	.LBE2477:
 366 0040 0500A0E1 		mov	r0, r5
 367 0044 FEFFFFEB 		bl	__cxa_call_unexpected
 368              	.LVL24:
 369              	.LEHE5:
 370              	.L28:
 371              	.LBB2478:
 372 0048 0400A0E1 		mov	r0, r4
 373 004c FEFFFFEB 		bl	_ZNSt9exceptionD2Ev
 374              	.LVL25:
 375              	.LBE2478:
 376              	.LBE2476:
 377              	.LBE2475:
  41:/home/zkmike/workspace/RZA2M/rza2m_2d_barcode_sample_freertos_gcc/src/zxing_lib/zxing/Exception.h ****   char const* what() const throw() {return message ? message : "";}
 378              		.loc 1 41 0
 379 0050 0810A0E3 		mov	r1, #8
 380 0054 0400A0E1 		mov	r0, r4
 381 0058 FEFFFFEB 		bl	_ZdlPvj
 382              	.LVL26:
 383 005c 0400A0E1 		mov	r0, r4
 384 0060 7080BDE8 		pop	{r4, r5, r6, pc}
 385              	.L35:
 386              		.align	2
 387              	.L34:
 388 0064 08000000 		.word	_ZTVN5zxing9ExceptionE+8
 389              		.cfi_endproc
 390              	.LFE2487:
 391              		.personality	__gxx_personality_v0
 392              		.handlerdata
 393              		.align	2
 394              	.LLSDA2487:
 395 0008 FF       		.byte	0xff
 396 0009 10       		.byte	0x10
 397 000a 11       		.uleb128 .LLSDATT2487-.LLSDATTD2487
 398              	.LLSDATTD2487:
 399 000b 01       		.byte	0x1
 400 000c 08       		.uleb128 .LLSDACSE2487-.LLSDACSB2487
 401              	.LLSDACSB2487:
 402 000d 1C       		.uleb128 .LEHB4-.LFB2487
 403 000e 04       		.uleb128 .LEHE4-.LEHB4
 404 000f 24       		.uleb128 .L31-.LFB2487
 405 0010 03       		.uleb128 0x3
 406 0011 3C       		.uleb128 .LEHB5-.LFB2487
 407 0012 0C       		.uleb128 .LEHE5-.LEHB5
 408 0013 00       		.uleb128 0
 409 0014 00       		.uleb128 0
 410              	.LLSDACSE2487:
 411 0015 7F       		.byte	0x7f
 412 0016 00       		.byte	0
 413 0017 00       		.byte	0
 414 0018 7D       		.byte	0x7d
 415 0019 000000   		.align	2
 416              	.LLSDATT2487:
 417 001c 00000000 		.word	0
 418              		.section	.text._ZN5zxing9ExceptionD0Ev,"axG",%progbits,_ZN5zxing9ExceptionD5Ev,comdat
 419              		.fnend
 421              		.section	.text._ZN5zxing15ReaderExceptionD0Ev,"axG",%progbits,_ZN5zxing15ReaderExceptionD5Ev,comda
 422              		.align	2
 423              		.weak	_ZN5zxing15ReaderExceptionD0Ev
 424              		.syntax unified
 425              		.arm
 426              		.fpu neon
 428              	_ZN5zxing15ReaderExceptionD0Ev:
 429              		.fnstart
 430              	.LFB2506:
 431              		.loc 4 32 0
 432              		.cfi_startproc
 433              		.cfi_personality 0,__gxx_personality_v0
 434              		.cfi_lsda 0,.LLSDA2506
 435              		@ args = 0, pretend = 0, frame = 0
 436              		@ frame_needed = 0, uses_anonymous_args = 0
 437              	.LVL27:
 438 0000 70402DE9 		push	{r4, r5, r6, lr}
 439              		.save {r4, r5, r6, lr}
 440              		.cfi_def_cfa_offset 16
 441              		.cfi_offset 4, -16
 442              		.cfi_offset 5, -12
 443              		.cfi_offset 6, -8
 444              		.cfi_offset 14, -4
 445 0004 0040A0E1 		mov	r4, r0
 446              	.LVL28:
 447              	.LBB2484:
 448              	.LBB2485:
 449              	.LBB2486:
 450              	.LBB2487:
 451              	.LBB2488:
  37:/home/zkmike/workspace/RZA2M/rza2m_2d_barcode_sample_freertos_gcc/src/zxing_lib/zxing/Exception.h ****     if(message) {
 452              		.loc 1 37 0
 453 0008 54309FE5 		ldr	r3, .L43
 454 000c 003080E5 		str	r3, [r0]
  38:/home/zkmike/workspace/RZA2M/rza2m_2d_barcode_sample_freertos_gcc/src/zxing_lib/zxing/Exception.h ****       deleteMessage();
 455              		.loc 1 38 0
 456 0010 043090E5 		ldr	r3, [r0, #4]
 457 0014 000053E3 		cmp	r3, #0
 458 0018 0A00000A 		beq	.L37
 459              	.LEHB6:
  39:/home/zkmike/workspace/RZA2M/rza2m_2d_barcode_sample_freertos_gcc/src/zxing_lib/zxing/Exception.h ****     }
 460              		.loc 1 39 0
 461 001c FEFFFFEB 		bl	_ZN5zxing9Exception13deleteMessageEv
 462              	.LVL29:
 463              	.LEHE6:
 464 0020 080000EA 		b	.L37
 465              	.L40:
 466 0024 0050A0E1 		mov	r5, r0
 467 0028 0160A0E1 		mov	r6, r1
  37:/home/zkmike/workspace/RZA2M/rza2m_2d_barcode_sample_freertos_gcc/src/zxing_lib/zxing/Exception.h ****     if(message) {
 468              		.loc 1 37 0
 469 002c 0400A0E1 		mov	r0, r4
 470 0030 FEFFFFEB 		bl	_ZNSt9exceptionD2Ev
 471              	.LVL30:
 472 0034 010076E3 		cmn	r6, #1
 473 0038 0000000A 		beq	.L39
 474              	.LEHB7:
 475 003c FEFFFFEB 		bl	__cxa_end_cleanup
 476              	.LVL31:
 477              	.L39:
 478              	.LBE2488:
 479 0040 0500A0E1 		mov	r0, r5
 480 0044 FEFFFFEB 		bl	__cxa_call_unexpected
 481              	.LVL32:
 482              	.LEHE7:
 483              	.L37:
 484              	.LBB2489:
 485 0048 0400A0E1 		mov	r0, r4
 486 004c FEFFFFEB 		bl	_ZNSt9exceptionD2Ev
 487              	.LVL33:
 488              	.LBE2489:
 489              	.LBE2487:
 490              	.LBE2486:
 491              	.LBE2485:
 492              	.LBE2484:
 493              		.loc 4 32 0
 494 0050 0810A0E3 		mov	r1, #8
 495 0054 0400A0E1 		mov	r0, r4
 496 0058 FEFFFFEB 		bl	_ZdlPvj
 497              	.LVL34:
 498 005c 0400A0E1 		mov	r0, r4
 499 0060 7080BDE8 		pop	{r4, r5, r6, pc}
 500              	.L44:
 501              		.align	2
 502              	.L43:
 503 0064 08000000 		.word	_ZTVN5zxing9ExceptionE+8
 504              		.cfi_endproc
 505              	.LFE2506:
 506              		.personality	__gxx_personality_v0
 507              		.handlerdata
 508              		.align	2
 509              	.LLSDA2506:
 510 0008 FF       		.byte	0xff
 511 0009 10       		.byte	0x10
 512 000a 11       		.uleb128 .LLSDATT2506-.LLSDATTD2506
 513              	.LLSDATTD2506:
 514 000b 01       		.byte	0x1
 515 000c 08       		.uleb128 .LLSDACSE2506-.LLSDACSB2506
 516              	.LLSDACSB2506:
 517 000d 1C       		.uleb128 .LEHB6-.LFB2506
 518 000e 04       		.uleb128 .LEHE6-.LEHB6
 519 000f 24       		.uleb128 .L40-.LFB2506
 520 0010 03       		.uleb128 0x3
 521 0011 3C       		.uleb128 .LEHB7-.LFB2506
 522 0012 0C       		.uleb128 .LEHE7-.LEHB7
 523 0013 00       		.uleb128 0
 524 0014 00       		.uleb128 0
 525              	.LLSDACSE2506:
 526 0015 7F       		.byte	0x7f
 527 0016 00       		.byte	0
 528 0017 00       		.byte	0
 529 0018 7D       		.byte	0x7d
 530 0019 000000   		.align	2
 531              	.LLSDATT2506:
 532 001c 00000000 		.word	0
 533              		.section	.text._ZN5zxing15ReaderExceptionD0Ev,"axG",%progbits,_ZN5zxing15ReaderExceptionD5Ev,comda
 534              		.fnend
 536              		.section	.text._ZSt21__unguarded_partitionIN9__gnu_cxx17__normal_iteratorIPN5zxing3RefINS2_6qrcode
 537              		.align	2
 538              		.syntax unified
 539              		.arm
 540              		.fpu neon
 542              	_ZSt21__unguarded_partitionIN9__gnu_cxx17__normal_iteratorIPN5zxing3RefINS2_6qrcode13FinderPatternE
 543              		.fnstart
 544              	.LFB3170:
 545              		.file 5 "/home/zkmike/.local/share/renesas/e2_studio/toolchains/gcc_arm/gcc-arm-none-eabi-6-2017-q
   1:/home/zkmike/.local/share/renesas/e2_studio/toolchains/gcc_arm/gcc-arm-none-eabi-6-2017-q2-update/arm-none-eabi/include/c++/6.3.1/bits/stl_algo.h **** // Algorithm implementation -*- C++ -*-
   2:/home/zkmike/.local/share/renesas/e2_studio/toolchains/gcc_arm/gcc-arm-none-eabi-6-2017-q2-update/arm-none-eabi/include/c++/6.3.1/bits/stl_algo.h **** 
   3:/home/zkmike/.local/share/renesas/e2_studio/toolchains/gcc_arm/gcc-arm-none-eabi-6-2017-q2-update/arm-none-eabi/include/c++/6.3.1/bits/stl_algo.h **** // Copyright (C) 2001-2016 Free Software Foundation, Inc.
   4:/home/zkmike/.local/share/renesas/e2_studio/toolchains/gcc_arm/gcc-arm-none-eabi-6-2017-q2-update/arm-none-eabi/include/c++/6.3.1/bits/stl_algo.h **** //
   5:/home/zkmike/.local/share/renesas/e2_studio/toolchains/gcc_arm/gcc-arm-none-eabi-6-2017-q2-update/arm-none-eabi/include/c++/6.3.1/bits/stl_algo.h **** // This file is part of the GNU ISO C++ Library.  This library is free
   6:/home/zkmike/.local/share/renesas/e2_studio/toolchains/gcc_arm/gcc-arm-none-eabi-6-2017-q2-update/arm-none-eabi/include/c++/6.3.1/bits/stl_algo.h **** // software; you can redistribute it and/or modify it under the
   7:/home/zkmike/.local/share/renesas/e2_studio/toolchains/gcc_arm/gcc-arm-none-eabi-6-2017-q2-update/arm-none-eabi/include/c++/6.3.1/bits/stl_algo.h **** // terms of the GNU General Public License as published by the
   8:/home/zkmike/.local/share/renesas/e2_studio/toolchains/gcc_arm/gcc-arm-none-eabi-6-2017-q2-update/arm-none-eabi/include/c++/6.3.1/bits/stl_algo.h **** // Free Software Foundation; either version 3, or (at your option)
   9:/home/zkmike/.local/share/renesas/e2_studio/toolchains/gcc_arm/gcc-arm-none-eabi-6-2017-q2-update/arm-none-eabi/include/c++/6.3.1/bits/stl_algo.h **** // any later version.
  10:/home/zkmike/.local/share/renesas/e2_studio/toolchains/gcc_arm/gcc-arm-none-eabi-6-2017-q2-update/arm-none-eabi/include/c++/6.3.1/bits/stl_algo.h **** 
  11:/home/zkmike/.local/share/renesas/e2_studio/toolchains/gcc_arm/gcc-arm-none-eabi-6-2017-q2-update/arm-none-eabi/include/c++/6.3.1/bits/stl_algo.h **** // This library is distributed in the hope that it will be useful,
  12:/home/zkmike/.local/share/renesas/e2_studio/toolchains/gcc_arm/gcc-arm-none-eabi-6-2017-q2-update/arm-none-eabi/include/c++/6.3.1/bits/stl_algo.h **** // but WITHOUT ANY WARRANTY; without even the implied warranty of
  13:/home/zkmike/.local/share/renesas/e2_studio/toolchains/gcc_arm/gcc-arm-none-eabi-6-2017-q2-update/arm-none-eabi/include/c++/6.3.1/bits/stl_algo.h **** // MERCHANTABILITY or FITNESS FOR A PARTICULAR PURPOSE.  See the
  14:/home/zkmike/.local/share/renesas/e2_studio/toolchains/gcc_arm/gcc-arm-none-eabi-6-2017-q2-update/arm-none-eabi/include/c++/6.3.1/bits/stl_algo.h **** // GNU General Public License for more details.
  15:/home/zkmike/.local/share/renesas/e2_studio/toolchains/gcc_arm/gcc-arm-none-eabi-6-2017-q2-update/arm-none-eabi/include/c++/6.3.1/bits/stl_algo.h **** 
  16:/home/zkmike/.local/share/renesas/e2_studio/toolchains/gcc_arm/gcc-arm-none-eabi-6-2017-q2-update/arm-none-eabi/include/c++/6.3.1/bits/stl_algo.h **** // Under Section 7 of GPL version 3, you are granted additional
  17:/home/zkmike/.local/share/renesas/e2_studio/toolchains/gcc_arm/gcc-arm-none-eabi-6-2017-q2-update/arm-none-eabi/include/c++/6.3.1/bits/stl_algo.h **** // permissions described in the GCC Runtime Library Exception, version
  18:/home/zkmike/.local/share/renesas/e2_studio/toolchains/gcc_arm/gcc-arm-none-eabi-6-2017-q2-update/arm-none-eabi/include/c++/6.3.1/bits/stl_algo.h **** // 3.1, as published by the Free Software Foundation.
  19:/home/zkmike/.local/share/renesas/e2_studio/toolchains/gcc_arm/gcc-arm-none-eabi-6-2017-q2-update/arm-none-eabi/include/c++/6.3.1/bits/stl_algo.h **** 
  20:/home/zkmike/.local/share/renesas/e2_studio/toolchains/gcc_arm/gcc-arm-none-eabi-6-2017-q2-update/arm-none-eabi/include/c++/6.3.1/bits/stl_algo.h **** // You should have received a copy of the GNU General Public License and
  21:/home/zkmike/.local/share/renesas/e2_studio/toolchains/gcc_arm/gcc-arm-none-eabi-6-2017-q2-update/arm-none-eabi/include/c++/6.3.1/bits/stl_algo.h **** // a copy of the GCC Runtime Library Exception along with this program;
  22:/home/zkmike/.local/share/renesas/e2_studio/toolchains/gcc_arm/gcc-arm-none-eabi-6-2017-q2-update/arm-none-eabi/include/c++/6.3.1/bits/stl_algo.h **** // see the files COPYING3 and COPYING.RUNTIME respectively.  If not, see
  23:/home/zkmike/.local/share/renesas/e2_studio/toolchains/gcc_arm/gcc-arm-none-eabi-6-2017-q2-update/arm-none-eabi/include/c++/6.3.1/bits/stl_algo.h **** // <http://www.gnu.org/licenses/>.
  24:/home/zkmike/.local/share/renesas/e2_studio/toolchains/gcc_arm/gcc-arm-none-eabi-6-2017-q2-update/arm-none-eabi/include/c++/6.3.1/bits/stl_algo.h **** 
  25:/home/zkmike/.local/share/renesas/e2_studio/toolchains/gcc_arm/gcc-arm-none-eabi-6-2017-q2-update/arm-none-eabi/include/c++/6.3.1/bits/stl_algo.h **** /*
  26:/home/zkmike/.local/share/renesas/e2_studio/toolchains/gcc_arm/gcc-arm-none-eabi-6-2017-q2-update/arm-none-eabi/include/c++/6.3.1/bits/stl_algo.h ****  *
  27:/home/zkmike/.local/share/renesas/e2_studio/toolchains/gcc_arm/gcc-arm-none-eabi-6-2017-q2-update/arm-none-eabi/include/c++/6.3.1/bits/stl_algo.h ****  * Copyright (c) 1994
  28:/home/zkmike/.local/share/renesas/e2_studio/toolchains/gcc_arm/gcc-arm-none-eabi-6-2017-q2-update/arm-none-eabi/include/c++/6.3.1/bits/stl_algo.h ****  * Hewlett-Packard Company
  29:/home/zkmike/.local/share/renesas/e2_studio/toolchains/gcc_arm/gcc-arm-none-eabi-6-2017-q2-update/arm-none-eabi/include/c++/6.3.1/bits/stl_algo.h ****  *
  30:/home/zkmike/.local/share/renesas/e2_studio/toolchains/gcc_arm/gcc-arm-none-eabi-6-2017-q2-update/arm-none-eabi/include/c++/6.3.1/bits/stl_algo.h ****  * Permission to use, copy, modify, distribute and sell this software
  31:/home/zkmike/.local/share/renesas/e2_studio/toolchains/gcc_arm/gcc-arm-none-eabi-6-2017-q2-update/arm-none-eabi/include/c++/6.3.1/bits/stl_algo.h ****  * and its documentation for any purpose is hereby granted without fee,
  32:/home/zkmike/.local/share/renesas/e2_studio/toolchains/gcc_arm/gcc-arm-none-eabi-6-2017-q2-update/arm-none-eabi/include/c++/6.3.1/bits/stl_algo.h ****  * provided that the above copyright notice appear in all copies and
  33:/home/zkmike/.local/share/renesas/e2_studio/toolchains/gcc_arm/gcc-arm-none-eabi-6-2017-q2-update/arm-none-eabi/include/c++/6.3.1/bits/stl_algo.h ****  * that both that copyright notice and this permission notice appear
  34:/home/zkmike/.local/share/renesas/e2_studio/toolchains/gcc_arm/gcc-arm-none-eabi-6-2017-q2-update/arm-none-eabi/include/c++/6.3.1/bits/stl_algo.h ****  * in supporting documentation.  Hewlett-Packard Company makes no
  35:/home/zkmike/.local/share/renesas/e2_studio/toolchains/gcc_arm/gcc-arm-none-eabi-6-2017-q2-update/arm-none-eabi/include/c++/6.3.1/bits/stl_algo.h ****  * representations about the suitability of this software for any
  36:/home/zkmike/.local/share/renesas/e2_studio/toolchains/gcc_arm/gcc-arm-none-eabi-6-2017-q2-update/arm-none-eabi/include/c++/6.3.1/bits/stl_algo.h ****  * purpose.  It is provided "as is" without express or implied warranty.
  37:/home/zkmike/.local/share/renesas/e2_studio/toolchains/gcc_arm/gcc-arm-none-eabi-6-2017-q2-update/arm-none-eabi/include/c++/6.3.1/bits/stl_algo.h ****  *
  38:/home/zkmike/.local/share/renesas/e2_studio/toolchains/gcc_arm/gcc-arm-none-eabi-6-2017-q2-update/arm-none-eabi/include/c++/6.3.1/bits/stl_algo.h ****  *
  39:/home/zkmike/.local/share/renesas/e2_studio/toolchains/gcc_arm/gcc-arm-none-eabi-6-2017-q2-update/arm-none-eabi/include/c++/6.3.1/bits/stl_algo.h ****  * Copyright (c) 1996
  40:/home/zkmike/.local/share/renesas/e2_studio/toolchains/gcc_arm/gcc-arm-none-eabi-6-2017-q2-update/arm-none-eabi/include/c++/6.3.1/bits/stl_algo.h ****  * Silicon Graphics Computer Systems, Inc.
  41:/home/zkmike/.local/share/renesas/e2_studio/toolchains/gcc_arm/gcc-arm-none-eabi-6-2017-q2-update/arm-none-eabi/include/c++/6.3.1/bits/stl_algo.h ****  *
  42:/home/zkmike/.local/share/renesas/e2_studio/toolchains/gcc_arm/gcc-arm-none-eabi-6-2017-q2-update/arm-none-eabi/include/c++/6.3.1/bits/stl_algo.h ****  * Permission to use, copy, modify, distribute and sell this software
  43:/home/zkmike/.local/share/renesas/e2_studio/toolchains/gcc_arm/gcc-arm-none-eabi-6-2017-q2-update/arm-none-eabi/include/c++/6.3.1/bits/stl_algo.h ****  * and its documentation for any purpose is hereby granted without fee,
  44:/home/zkmike/.local/share/renesas/e2_studio/toolchains/gcc_arm/gcc-arm-none-eabi-6-2017-q2-update/arm-none-eabi/include/c++/6.3.1/bits/stl_algo.h ****  * provided that the above copyright notice appear in all copies and
  45:/home/zkmike/.local/share/renesas/e2_studio/toolchains/gcc_arm/gcc-arm-none-eabi-6-2017-q2-update/arm-none-eabi/include/c++/6.3.1/bits/stl_algo.h ****  * that both that copyright notice and this permission notice appear
  46:/home/zkmike/.local/share/renesas/e2_studio/toolchains/gcc_arm/gcc-arm-none-eabi-6-2017-q2-update/arm-none-eabi/include/c++/6.3.1/bits/stl_algo.h ****  * in supporting documentation.  Silicon Graphics makes no
  47:/home/zkmike/.local/share/renesas/e2_studio/toolchains/gcc_arm/gcc-arm-none-eabi-6-2017-q2-update/arm-none-eabi/include/c++/6.3.1/bits/stl_algo.h ****  * representations about the suitability of this software for any
  48:/home/zkmike/.local/share/renesas/e2_studio/toolchains/gcc_arm/gcc-arm-none-eabi-6-2017-q2-update/arm-none-eabi/include/c++/6.3.1/bits/stl_algo.h ****  * purpose.  It is provided "as is" without express or implied warranty.
  49:/home/zkmike/.local/share/renesas/e2_studio/toolchains/gcc_arm/gcc-arm-none-eabi-6-2017-q2-update/arm-none-eabi/include/c++/6.3.1/bits/stl_algo.h ****  */
  50:/home/zkmike/.local/share/renesas/e2_studio/toolchains/gcc_arm/gcc-arm-none-eabi-6-2017-q2-update/arm-none-eabi/include/c++/6.3.1/bits/stl_algo.h **** 
  51:/home/zkmike/.local/share/renesas/e2_studio/toolchains/gcc_arm/gcc-arm-none-eabi-6-2017-q2-update/arm-none-eabi/include/c++/6.3.1/bits/stl_algo.h **** /** @file bits/stl_algo.h
  52:/home/zkmike/.local/share/renesas/e2_studio/toolchains/gcc_arm/gcc-arm-none-eabi-6-2017-q2-update/arm-none-eabi/include/c++/6.3.1/bits/stl_algo.h ****  *  This is an internal header file, included by other library headers.
  53:/home/zkmike/.local/share/renesas/e2_studio/toolchains/gcc_arm/gcc-arm-none-eabi-6-2017-q2-update/arm-none-eabi/include/c++/6.3.1/bits/stl_algo.h ****  *  Do not attempt to use it directly. @headername{algorithm}
  54:/home/zkmike/.local/share/renesas/e2_studio/toolchains/gcc_arm/gcc-arm-none-eabi-6-2017-q2-update/arm-none-eabi/include/c++/6.3.1/bits/stl_algo.h ****  */
  55:/home/zkmike/.local/share/renesas/e2_studio/toolchains/gcc_arm/gcc-arm-none-eabi-6-2017-q2-update/arm-none-eabi/include/c++/6.3.1/bits/stl_algo.h **** 
  56:/home/zkmike/.local/share/renesas/e2_studio/toolchains/gcc_arm/gcc-arm-none-eabi-6-2017-q2-update/arm-none-eabi/include/c++/6.3.1/bits/stl_algo.h **** #ifndef _STL_ALGO_H
  57:/home/zkmike/.local/share/renesas/e2_studio/toolchains/gcc_arm/gcc-arm-none-eabi-6-2017-q2-update/arm-none-eabi/include/c++/6.3.1/bits/stl_algo.h **** #define _STL_ALGO_H 1
  58:/home/zkmike/.local/share/renesas/e2_studio/toolchains/gcc_arm/gcc-arm-none-eabi-6-2017-q2-update/arm-none-eabi/include/c++/6.3.1/bits/stl_algo.h **** 
  59:/home/zkmike/.local/share/renesas/e2_studio/toolchains/gcc_arm/gcc-arm-none-eabi-6-2017-q2-update/arm-none-eabi/include/c++/6.3.1/bits/stl_algo.h **** #include <cstdlib>	     // for rand
  60:/home/zkmike/.local/share/renesas/e2_studio/toolchains/gcc_arm/gcc-arm-none-eabi-6-2017-q2-update/arm-none-eabi/include/c++/6.3.1/bits/stl_algo.h **** #include <bits/algorithmfwd.h>
  61:/home/zkmike/.local/share/renesas/e2_studio/toolchains/gcc_arm/gcc-arm-none-eabi-6-2017-q2-update/arm-none-eabi/include/c++/6.3.1/bits/stl_algo.h **** #include <bits/stl_heap.h>
  62:/home/zkmike/.local/share/renesas/e2_studio/toolchains/gcc_arm/gcc-arm-none-eabi-6-2017-q2-update/arm-none-eabi/include/c++/6.3.1/bits/stl_algo.h **** #include <bits/stl_tempbuf.h>  // for _Temporary_buffer
  63:/home/zkmike/.local/share/renesas/e2_studio/toolchains/gcc_arm/gcc-arm-none-eabi-6-2017-q2-update/arm-none-eabi/include/c++/6.3.1/bits/stl_algo.h **** #include <bits/predefined_ops.h>
  64:/home/zkmike/.local/share/renesas/e2_studio/toolchains/gcc_arm/gcc-arm-none-eabi-6-2017-q2-update/arm-none-eabi/include/c++/6.3.1/bits/stl_algo.h **** 
  65:/home/zkmike/.local/share/renesas/e2_studio/toolchains/gcc_arm/gcc-arm-none-eabi-6-2017-q2-update/arm-none-eabi/include/c++/6.3.1/bits/stl_algo.h **** #if __cplusplus >= 201103L
  66:/home/zkmike/.local/share/renesas/e2_studio/toolchains/gcc_arm/gcc-arm-none-eabi-6-2017-q2-update/arm-none-eabi/include/c++/6.3.1/bits/stl_algo.h **** #include <bits/uniform_int_dist.h>
  67:/home/zkmike/.local/share/renesas/e2_studio/toolchains/gcc_arm/gcc-arm-none-eabi-6-2017-q2-update/arm-none-eabi/include/c++/6.3.1/bits/stl_algo.h **** #endif
  68:/home/zkmike/.local/share/renesas/e2_studio/toolchains/gcc_arm/gcc-arm-none-eabi-6-2017-q2-update/arm-none-eabi/include/c++/6.3.1/bits/stl_algo.h **** 
  69:/home/zkmike/.local/share/renesas/e2_studio/toolchains/gcc_arm/gcc-arm-none-eabi-6-2017-q2-update/arm-none-eabi/include/c++/6.3.1/bits/stl_algo.h **** // See concept_check.h for the __glibcxx_*_requires macros.
  70:/home/zkmike/.local/share/renesas/e2_studio/toolchains/gcc_arm/gcc-arm-none-eabi-6-2017-q2-update/arm-none-eabi/include/c++/6.3.1/bits/stl_algo.h **** 
  71:/home/zkmike/.local/share/renesas/e2_studio/toolchains/gcc_arm/gcc-arm-none-eabi-6-2017-q2-update/arm-none-eabi/include/c++/6.3.1/bits/stl_algo.h **** namespace std _GLIBCXX_VISIBILITY(default)
  72:/home/zkmike/.local/share/renesas/e2_studio/toolchains/gcc_arm/gcc-arm-none-eabi-6-2017-q2-update/arm-none-eabi/include/c++/6.3.1/bits/stl_algo.h **** {
  73:/home/zkmike/.local/share/renesas/e2_studio/toolchains/gcc_arm/gcc-arm-none-eabi-6-2017-q2-update/arm-none-eabi/include/c++/6.3.1/bits/stl_algo.h **** _GLIBCXX_BEGIN_NAMESPACE_VERSION
  74:/home/zkmike/.local/share/renesas/e2_studio/toolchains/gcc_arm/gcc-arm-none-eabi-6-2017-q2-update/arm-none-eabi/include/c++/6.3.1/bits/stl_algo.h **** 
  75:/home/zkmike/.local/share/renesas/e2_studio/toolchains/gcc_arm/gcc-arm-none-eabi-6-2017-q2-update/arm-none-eabi/include/c++/6.3.1/bits/stl_algo.h ****   /// Swaps the median value of *__a, *__b and *__c under __comp to *__result
  76:/home/zkmike/.local/share/renesas/e2_studio/toolchains/gcc_arm/gcc-arm-none-eabi-6-2017-q2-update/arm-none-eabi/include/c++/6.3.1/bits/stl_algo.h ****   template<typename _Iterator, typename _Compare>
  77:/home/zkmike/.local/share/renesas/e2_studio/toolchains/gcc_arm/gcc-arm-none-eabi-6-2017-q2-update/arm-none-eabi/include/c++/6.3.1/bits/stl_algo.h ****     void
  78:/home/zkmike/.local/share/renesas/e2_studio/toolchains/gcc_arm/gcc-arm-none-eabi-6-2017-q2-update/arm-none-eabi/include/c++/6.3.1/bits/stl_algo.h ****     __move_median_to_first(_Iterator __result,_Iterator __a, _Iterator __b,
  79:/home/zkmike/.local/share/renesas/e2_studio/toolchains/gcc_arm/gcc-arm-none-eabi-6-2017-q2-update/arm-none-eabi/include/c++/6.3.1/bits/stl_algo.h **** 			   _Iterator __c, _Compare __comp)
  80:/home/zkmike/.local/share/renesas/e2_studio/toolchains/gcc_arm/gcc-arm-none-eabi-6-2017-q2-update/arm-none-eabi/include/c++/6.3.1/bits/stl_algo.h ****     {
  81:/home/zkmike/.local/share/renesas/e2_studio/toolchains/gcc_arm/gcc-arm-none-eabi-6-2017-q2-update/arm-none-eabi/include/c++/6.3.1/bits/stl_algo.h ****       if (__comp(__a, __b))
  82:/home/zkmike/.local/share/renesas/e2_studio/toolchains/gcc_arm/gcc-arm-none-eabi-6-2017-q2-update/arm-none-eabi/include/c++/6.3.1/bits/stl_algo.h **** 	{
  83:/home/zkmike/.local/share/renesas/e2_studio/toolchains/gcc_arm/gcc-arm-none-eabi-6-2017-q2-update/arm-none-eabi/include/c++/6.3.1/bits/stl_algo.h **** 	  if (__comp(__b, __c))
  84:/home/zkmike/.local/share/renesas/e2_studio/toolchains/gcc_arm/gcc-arm-none-eabi-6-2017-q2-update/arm-none-eabi/include/c++/6.3.1/bits/stl_algo.h **** 	    std::iter_swap(__result, __b);
  85:/home/zkmike/.local/share/renesas/e2_studio/toolchains/gcc_arm/gcc-arm-none-eabi-6-2017-q2-update/arm-none-eabi/include/c++/6.3.1/bits/stl_algo.h **** 	  else if (__comp(__a, __c))
  86:/home/zkmike/.local/share/renesas/e2_studio/toolchains/gcc_arm/gcc-arm-none-eabi-6-2017-q2-update/arm-none-eabi/include/c++/6.3.1/bits/stl_algo.h **** 	    std::iter_swap(__result, __c);
  87:/home/zkmike/.local/share/renesas/e2_studio/toolchains/gcc_arm/gcc-arm-none-eabi-6-2017-q2-update/arm-none-eabi/include/c++/6.3.1/bits/stl_algo.h **** 	  else
  88:/home/zkmike/.local/share/renesas/e2_studio/toolchains/gcc_arm/gcc-arm-none-eabi-6-2017-q2-update/arm-none-eabi/include/c++/6.3.1/bits/stl_algo.h **** 	    std::iter_swap(__result, __a);
  89:/home/zkmike/.local/share/renesas/e2_studio/toolchains/gcc_arm/gcc-arm-none-eabi-6-2017-q2-update/arm-none-eabi/include/c++/6.3.1/bits/stl_algo.h **** 	}
  90:/home/zkmike/.local/share/renesas/e2_studio/toolchains/gcc_arm/gcc-arm-none-eabi-6-2017-q2-update/arm-none-eabi/include/c++/6.3.1/bits/stl_algo.h ****       else if (__comp(__a, __c))
  91:/home/zkmike/.local/share/renesas/e2_studio/toolchains/gcc_arm/gcc-arm-none-eabi-6-2017-q2-update/arm-none-eabi/include/c++/6.3.1/bits/stl_algo.h **** 	std::iter_swap(__result, __a);
  92:/home/zkmike/.local/share/renesas/e2_studio/toolchains/gcc_arm/gcc-arm-none-eabi-6-2017-q2-update/arm-none-eabi/include/c++/6.3.1/bits/stl_algo.h ****       else if (__comp(__b, __c))
  93:/home/zkmike/.local/share/renesas/e2_studio/toolchains/gcc_arm/gcc-arm-none-eabi-6-2017-q2-update/arm-none-eabi/include/c++/6.3.1/bits/stl_algo.h **** 	std::iter_swap(__result, __c);
  94:/home/zkmike/.local/share/renesas/e2_studio/toolchains/gcc_arm/gcc-arm-none-eabi-6-2017-q2-update/arm-none-eabi/include/c++/6.3.1/bits/stl_algo.h ****       else
  95:/home/zkmike/.local/share/renesas/e2_studio/toolchains/gcc_arm/gcc-arm-none-eabi-6-2017-q2-update/arm-none-eabi/include/c++/6.3.1/bits/stl_algo.h **** 	std::iter_swap(__result, __b);
  96:/home/zkmike/.local/share/renesas/e2_studio/toolchains/gcc_arm/gcc-arm-none-eabi-6-2017-q2-update/arm-none-eabi/include/c++/6.3.1/bits/stl_algo.h ****     }
  97:/home/zkmike/.local/share/renesas/e2_studio/toolchains/gcc_arm/gcc-arm-none-eabi-6-2017-q2-update/arm-none-eabi/include/c++/6.3.1/bits/stl_algo.h **** 
  98:/home/zkmike/.local/share/renesas/e2_studio/toolchains/gcc_arm/gcc-arm-none-eabi-6-2017-q2-update/arm-none-eabi/include/c++/6.3.1/bits/stl_algo.h ****   /// This is an overload used by find algos for the Input Iterator case.
  99:/home/zkmike/.local/share/renesas/e2_studio/toolchains/gcc_arm/gcc-arm-none-eabi-6-2017-q2-update/arm-none-eabi/include/c++/6.3.1/bits/stl_algo.h ****   template<typename _InputIterator, typename _Predicate>
 100:/home/zkmike/.local/share/renesas/e2_studio/toolchains/gcc_arm/gcc-arm-none-eabi-6-2017-q2-update/arm-none-eabi/include/c++/6.3.1/bits/stl_algo.h ****     inline _InputIterator
 101:/home/zkmike/.local/share/renesas/e2_studio/toolchains/gcc_arm/gcc-arm-none-eabi-6-2017-q2-update/arm-none-eabi/include/c++/6.3.1/bits/stl_algo.h ****     __find_if(_InputIterator __first, _InputIterator __last,
 102:/home/zkmike/.local/share/renesas/e2_studio/toolchains/gcc_arm/gcc-arm-none-eabi-6-2017-q2-update/arm-none-eabi/include/c++/6.3.1/bits/stl_algo.h **** 	      _Predicate __pred, input_iterator_tag)
 103:/home/zkmike/.local/share/renesas/e2_studio/toolchains/gcc_arm/gcc-arm-none-eabi-6-2017-q2-update/arm-none-eabi/include/c++/6.3.1/bits/stl_algo.h ****     {
 104:/home/zkmike/.local/share/renesas/e2_studio/toolchains/gcc_arm/gcc-arm-none-eabi-6-2017-q2-update/arm-none-eabi/include/c++/6.3.1/bits/stl_algo.h ****       while (__first != __last && !__pred(__first))
 105:/home/zkmike/.local/share/renesas/e2_studio/toolchains/gcc_arm/gcc-arm-none-eabi-6-2017-q2-update/arm-none-eabi/include/c++/6.3.1/bits/stl_algo.h **** 	++__first;
 106:/home/zkmike/.local/share/renesas/e2_studio/toolchains/gcc_arm/gcc-arm-none-eabi-6-2017-q2-update/arm-none-eabi/include/c++/6.3.1/bits/stl_algo.h ****       return __first;
 107:/home/zkmike/.local/share/renesas/e2_studio/toolchains/gcc_arm/gcc-arm-none-eabi-6-2017-q2-update/arm-none-eabi/include/c++/6.3.1/bits/stl_algo.h ****     }
 108:/home/zkmike/.local/share/renesas/e2_studio/toolchains/gcc_arm/gcc-arm-none-eabi-6-2017-q2-update/arm-none-eabi/include/c++/6.3.1/bits/stl_algo.h **** 
 109:/home/zkmike/.local/share/renesas/e2_studio/toolchains/gcc_arm/gcc-arm-none-eabi-6-2017-q2-update/arm-none-eabi/include/c++/6.3.1/bits/stl_algo.h ****   /// This is an overload used by find algos for the RAI case.
 110:/home/zkmike/.local/share/renesas/e2_studio/toolchains/gcc_arm/gcc-arm-none-eabi-6-2017-q2-update/arm-none-eabi/include/c++/6.3.1/bits/stl_algo.h ****   template<typename _RandomAccessIterator, typename _Predicate>
 111:/home/zkmike/.local/share/renesas/e2_studio/toolchains/gcc_arm/gcc-arm-none-eabi-6-2017-q2-update/arm-none-eabi/include/c++/6.3.1/bits/stl_algo.h ****     _RandomAccessIterator
 112:/home/zkmike/.local/share/renesas/e2_studio/toolchains/gcc_arm/gcc-arm-none-eabi-6-2017-q2-update/arm-none-eabi/include/c++/6.3.1/bits/stl_algo.h ****     __find_if(_RandomAccessIterator __first, _RandomAccessIterator __last,
 113:/home/zkmike/.local/share/renesas/e2_studio/toolchains/gcc_arm/gcc-arm-none-eabi-6-2017-q2-update/arm-none-eabi/include/c++/6.3.1/bits/stl_algo.h **** 	      _Predicate __pred, random_access_iterator_tag)
 114:/home/zkmike/.local/share/renesas/e2_studio/toolchains/gcc_arm/gcc-arm-none-eabi-6-2017-q2-update/arm-none-eabi/include/c++/6.3.1/bits/stl_algo.h ****     {
 115:/home/zkmike/.local/share/renesas/e2_studio/toolchains/gcc_arm/gcc-arm-none-eabi-6-2017-q2-update/arm-none-eabi/include/c++/6.3.1/bits/stl_algo.h ****       typename iterator_traits<_RandomAccessIterator>::difference_type
 116:/home/zkmike/.local/share/renesas/e2_studio/toolchains/gcc_arm/gcc-arm-none-eabi-6-2017-q2-update/arm-none-eabi/include/c++/6.3.1/bits/stl_algo.h **** 	__trip_count = (__last - __first) >> 2;
 117:/home/zkmike/.local/share/renesas/e2_studio/toolchains/gcc_arm/gcc-arm-none-eabi-6-2017-q2-update/arm-none-eabi/include/c++/6.3.1/bits/stl_algo.h **** 
 118:/home/zkmike/.local/share/renesas/e2_studio/toolchains/gcc_arm/gcc-arm-none-eabi-6-2017-q2-update/arm-none-eabi/include/c++/6.3.1/bits/stl_algo.h ****       for (; __trip_count > 0; --__trip_count)
 119:/home/zkmike/.local/share/renesas/e2_studio/toolchains/gcc_arm/gcc-arm-none-eabi-6-2017-q2-update/arm-none-eabi/include/c++/6.3.1/bits/stl_algo.h **** 	{
 120:/home/zkmike/.local/share/renesas/e2_studio/toolchains/gcc_arm/gcc-arm-none-eabi-6-2017-q2-update/arm-none-eabi/include/c++/6.3.1/bits/stl_algo.h **** 	  if (__pred(__first))
 121:/home/zkmike/.local/share/renesas/e2_studio/toolchains/gcc_arm/gcc-arm-none-eabi-6-2017-q2-update/arm-none-eabi/include/c++/6.3.1/bits/stl_algo.h **** 	    return __first;
 122:/home/zkmike/.local/share/renesas/e2_studio/toolchains/gcc_arm/gcc-arm-none-eabi-6-2017-q2-update/arm-none-eabi/include/c++/6.3.1/bits/stl_algo.h **** 	  ++__first;
 123:/home/zkmike/.local/share/renesas/e2_studio/toolchains/gcc_arm/gcc-arm-none-eabi-6-2017-q2-update/arm-none-eabi/include/c++/6.3.1/bits/stl_algo.h **** 
 124:/home/zkmike/.local/share/renesas/e2_studio/toolchains/gcc_arm/gcc-arm-none-eabi-6-2017-q2-update/arm-none-eabi/include/c++/6.3.1/bits/stl_algo.h **** 	  if (__pred(__first))
 125:/home/zkmike/.local/share/renesas/e2_studio/toolchains/gcc_arm/gcc-arm-none-eabi-6-2017-q2-update/arm-none-eabi/include/c++/6.3.1/bits/stl_algo.h **** 	    return __first;
 126:/home/zkmike/.local/share/renesas/e2_studio/toolchains/gcc_arm/gcc-arm-none-eabi-6-2017-q2-update/arm-none-eabi/include/c++/6.3.1/bits/stl_algo.h **** 	  ++__first;
 127:/home/zkmike/.local/share/renesas/e2_studio/toolchains/gcc_arm/gcc-arm-none-eabi-6-2017-q2-update/arm-none-eabi/include/c++/6.3.1/bits/stl_algo.h **** 
 128:/home/zkmike/.local/share/renesas/e2_studio/toolchains/gcc_arm/gcc-arm-none-eabi-6-2017-q2-update/arm-none-eabi/include/c++/6.3.1/bits/stl_algo.h **** 	  if (__pred(__first))
 129:/home/zkmike/.local/share/renesas/e2_studio/toolchains/gcc_arm/gcc-arm-none-eabi-6-2017-q2-update/arm-none-eabi/include/c++/6.3.1/bits/stl_algo.h **** 	    return __first;
 130:/home/zkmike/.local/share/renesas/e2_studio/toolchains/gcc_arm/gcc-arm-none-eabi-6-2017-q2-update/arm-none-eabi/include/c++/6.3.1/bits/stl_algo.h **** 	  ++__first;
 131:/home/zkmike/.local/share/renesas/e2_studio/toolchains/gcc_arm/gcc-arm-none-eabi-6-2017-q2-update/arm-none-eabi/include/c++/6.3.1/bits/stl_algo.h **** 
 132:/home/zkmike/.local/share/renesas/e2_studio/toolchains/gcc_arm/gcc-arm-none-eabi-6-2017-q2-update/arm-none-eabi/include/c++/6.3.1/bits/stl_algo.h **** 	  if (__pred(__first))
 133:/home/zkmike/.local/share/renesas/e2_studio/toolchains/gcc_arm/gcc-arm-none-eabi-6-2017-q2-update/arm-none-eabi/include/c++/6.3.1/bits/stl_algo.h **** 	    return __first;
 134:/home/zkmike/.local/share/renesas/e2_studio/toolchains/gcc_arm/gcc-arm-none-eabi-6-2017-q2-update/arm-none-eabi/include/c++/6.3.1/bits/stl_algo.h **** 	  ++__first;
 135:/home/zkmike/.local/share/renesas/e2_studio/toolchains/gcc_arm/gcc-arm-none-eabi-6-2017-q2-update/arm-none-eabi/include/c++/6.3.1/bits/stl_algo.h **** 	}
 136:/home/zkmike/.local/share/renesas/e2_studio/toolchains/gcc_arm/gcc-arm-none-eabi-6-2017-q2-update/arm-none-eabi/include/c++/6.3.1/bits/stl_algo.h **** 
 137:/home/zkmike/.local/share/renesas/e2_studio/toolchains/gcc_arm/gcc-arm-none-eabi-6-2017-q2-update/arm-none-eabi/include/c++/6.3.1/bits/stl_algo.h ****       switch (__last - __first)
 138:/home/zkmike/.local/share/renesas/e2_studio/toolchains/gcc_arm/gcc-arm-none-eabi-6-2017-q2-update/arm-none-eabi/include/c++/6.3.1/bits/stl_algo.h **** 	{
 139:/home/zkmike/.local/share/renesas/e2_studio/toolchains/gcc_arm/gcc-arm-none-eabi-6-2017-q2-update/arm-none-eabi/include/c++/6.3.1/bits/stl_algo.h **** 	case 3:
 140:/home/zkmike/.local/share/renesas/e2_studio/toolchains/gcc_arm/gcc-arm-none-eabi-6-2017-q2-update/arm-none-eabi/include/c++/6.3.1/bits/stl_algo.h **** 	  if (__pred(__first))
 141:/home/zkmike/.local/share/renesas/e2_studio/toolchains/gcc_arm/gcc-arm-none-eabi-6-2017-q2-update/arm-none-eabi/include/c++/6.3.1/bits/stl_algo.h **** 	    return __first;
 142:/home/zkmike/.local/share/renesas/e2_studio/toolchains/gcc_arm/gcc-arm-none-eabi-6-2017-q2-update/arm-none-eabi/include/c++/6.3.1/bits/stl_algo.h **** 	  ++__first;
 143:/home/zkmike/.local/share/renesas/e2_studio/toolchains/gcc_arm/gcc-arm-none-eabi-6-2017-q2-update/arm-none-eabi/include/c++/6.3.1/bits/stl_algo.h **** 	case 2:
 144:/home/zkmike/.local/share/renesas/e2_studio/toolchains/gcc_arm/gcc-arm-none-eabi-6-2017-q2-update/arm-none-eabi/include/c++/6.3.1/bits/stl_algo.h **** 	  if (__pred(__first))
 145:/home/zkmike/.local/share/renesas/e2_studio/toolchains/gcc_arm/gcc-arm-none-eabi-6-2017-q2-update/arm-none-eabi/include/c++/6.3.1/bits/stl_algo.h **** 	    return __first;
 146:/home/zkmike/.local/share/renesas/e2_studio/toolchains/gcc_arm/gcc-arm-none-eabi-6-2017-q2-update/arm-none-eabi/include/c++/6.3.1/bits/stl_algo.h **** 	  ++__first;
 147:/home/zkmike/.local/share/renesas/e2_studio/toolchains/gcc_arm/gcc-arm-none-eabi-6-2017-q2-update/arm-none-eabi/include/c++/6.3.1/bits/stl_algo.h **** 	case 1:
 148:/home/zkmike/.local/share/renesas/e2_studio/toolchains/gcc_arm/gcc-arm-none-eabi-6-2017-q2-update/arm-none-eabi/include/c++/6.3.1/bits/stl_algo.h **** 	  if (__pred(__first))
 149:/home/zkmike/.local/share/renesas/e2_studio/toolchains/gcc_arm/gcc-arm-none-eabi-6-2017-q2-update/arm-none-eabi/include/c++/6.3.1/bits/stl_algo.h **** 	    return __first;
 150:/home/zkmike/.local/share/renesas/e2_studio/toolchains/gcc_arm/gcc-arm-none-eabi-6-2017-q2-update/arm-none-eabi/include/c++/6.3.1/bits/stl_algo.h **** 	  ++__first;
 151:/home/zkmike/.local/share/renesas/e2_studio/toolchains/gcc_arm/gcc-arm-none-eabi-6-2017-q2-update/arm-none-eabi/include/c++/6.3.1/bits/stl_algo.h **** 	case 0:
 152:/home/zkmike/.local/share/renesas/e2_studio/toolchains/gcc_arm/gcc-arm-none-eabi-6-2017-q2-update/arm-none-eabi/include/c++/6.3.1/bits/stl_algo.h **** 	default:
 153:/home/zkmike/.local/share/renesas/e2_studio/toolchains/gcc_arm/gcc-arm-none-eabi-6-2017-q2-update/arm-none-eabi/include/c++/6.3.1/bits/stl_algo.h **** 	  return __last;
 154:/home/zkmike/.local/share/renesas/e2_studio/toolchains/gcc_arm/gcc-arm-none-eabi-6-2017-q2-update/arm-none-eabi/include/c++/6.3.1/bits/stl_algo.h **** 	}
 155:/home/zkmike/.local/share/renesas/e2_studio/toolchains/gcc_arm/gcc-arm-none-eabi-6-2017-q2-update/arm-none-eabi/include/c++/6.3.1/bits/stl_algo.h ****     }
 156:/home/zkmike/.local/share/renesas/e2_studio/toolchains/gcc_arm/gcc-arm-none-eabi-6-2017-q2-update/arm-none-eabi/include/c++/6.3.1/bits/stl_algo.h **** 
 157:/home/zkmike/.local/share/renesas/e2_studio/toolchains/gcc_arm/gcc-arm-none-eabi-6-2017-q2-update/arm-none-eabi/include/c++/6.3.1/bits/stl_algo.h ****   template<typename _Iterator, typename _Predicate>
 158:/home/zkmike/.local/share/renesas/e2_studio/toolchains/gcc_arm/gcc-arm-none-eabi-6-2017-q2-update/arm-none-eabi/include/c++/6.3.1/bits/stl_algo.h ****     inline _Iterator
 159:/home/zkmike/.local/share/renesas/e2_studio/toolchains/gcc_arm/gcc-arm-none-eabi-6-2017-q2-update/arm-none-eabi/include/c++/6.3.1/bits/stl_algo.h ****     __find_if(_Iterator __first, _Iterator __last, _Predicate __pred)
 160:/home/zkmike/.local/share/renesas/e2_studio/toolchains/gcc_arm/gcc-arm-none-eabi-6-2017-q2-update/arm-none-eabi/include/c++/6.3.1/bits/stl_algo.h ****     {
 161:/home/zkmike/.local/share/renesas/e2_studio/toolchains/gcc_arm/gcc-arm-none-eabi-6-2017-q2-update/arm-none-eabi/include/c++/6.3.1/bits/stl_algo.h ****       return __find_if(__first, __last, __pred,
 162:/home/zkmike/.local/share/renesas/e2_studio/toolchains/gcc_arm/gcc-arm-none-eabi-6-2017-q2-update/arm-none-eabi/include/c++/6.3.1/bits/stl_algo.h **** 		       std::__iterator_category(__first));
 163:/home/zkmike/.local/share/renesas/e2_studio/toolchains/gcc_arm/gcc-arm-none-eabi-6-2017-q2-update/arm-none-eabi/include/c++/6.3.1/bits/stl_algo.h ****     }
 164:/home/zkmike/.local/share/renesas/e2_studio/toolchains/gcc_arm/gcc-arm-none-eabi-6-2017-q2-update/arm-none-eabi/include/c++/6.3.1/bits/stl_algo.h **** 
 165:/home/zkmike/.local/share/renesas/e2_studio/toolchains/gcc_arm/gcc-arm-none-eabi-6-2017-q2-update/arm-none-eabi/include/c++/6.3.1/bits/stl_algo.h ****   /// Provided for stable_partition to use.
 166:/home/zkmike/.local/share/renesas/e2_studio/toolchains/gcc_arm/gcc-arm-none-eabi-6-2017-q2-update/arm-none-eabi/include/c++/6.3.1/bits/stl_algo.h ****   template<typename _InputIterator, typename _Predicate>
 167:/home/zkmike/.local/share/renesas/e2_studio/toolchains/gcc_arm/gcc-arm-none-eabi-6-2017-q2-update/arm-none-eabi/include/c++/6.3.1/bits/stl_algo.h ****     inline _InputIterator
 168:/home/zkmike/.local/share/renesas/e2_studio/toolchains/gcc_arm/gcc-arm-none-eabi-6-2017-q2-update/arm-none-eabi/include/c++/6.3.1/bits/stl_algo.h ****     __find_if_not(_InputIterator __first, _InputIterator __last,
 169:/home/zkmike/.local/share/renesas/e2_studio/toolchains/gcc_arm/gcc-arm-none-eabi-6-2017-q2-update/arm-none-eabi/include/c++/6.3.1/bits/stl_algo.h **** 		  _Predicate __pred)
 170:/home/zkmike/.local/share/renesas/e2_studio/toolchains/gcc_arm/gcc-arm-none-eabi-6-2017-q2-update/arm-none-eabi/include/c++/6.3.1/bits/stl_algo.h ****     {
 171:/home/zkmike/.local/share/renesas/e2_studio/toolchains/gcc_arm/gcc-arm-none-eabi-6-2017-q2-update/arm-none-eabi/include/c++/6.3.1/bits/stl_algo.h ****       return std::__find_if(__first, __last,
 172:/home/zkmike/.local/share/renesas/e2_studio/toolchains/gcc_arm/gcc-arm-none-eabi-6-2017-q2-update/arm-none-eabi/include/c++/6.3.1/bits/stl_algo.h **** 			    __gnu_cxx::__ops::__negate(__pred),
 173:/home/zkmike/.local/share/renesas/e2_studio/toolchains/gcc_arm/gcc-arm-none-eabi-6-2017-q2-update/arm-none-eabi/include/c++/6.3.1/bits/stl_algo.h **** 			    std::__iterator_category(__first));
 174:/home/zkmike/.local/share/renesas/e2_studio/toolchains/gcc_arm/gcc-arm-none-eabi-6-2017-q2-update/arm-none-eabi/include/c++/6.3.1/bits/stl_algo.h ****     }
 175:/home/zkmike/.local/share/renesas/e2_studio/toolchains/gcc_arm/gcc-arm-none-eabi-6-2017-q2-update/arm-none-eabi/include/c++/6.3.1/bits/stl_algo.h **** 
 176:/home/zkmike/.local/share/renesas/e2_studio/toolchains/gcc_arm/gcc-arm-none-eabi-6-2017-q2-update/arm-none-eabi/include/c++/6.3.1/bits/stl_algo.h ****   /// Like find_if_not(), but uses and updates a count of the
 177:/home/zkmike/.local/share/renesas/e2_studio/toolchains/gcc_arm/gcc-arm-none-eabi-6-2017-q2-update/arm-none-eabi/include/c++/6.3.1/bits/stl_algo.h ****   /// remaining range length instead of comparing against an end
 178:/home/zkmike/.local/share/renesas/e2_studio/toolchains/gcc_arm/gcc-arm-none-eabi-6-2017-q2-update/arm-none-eabi/include/c++/6.3.1/bits/stl_algo.h ****   /// iterator.
 179:/home/zkmike/.local/share/renesas/e2_studio/toolchains/gcc_arm/gcc-arm-none-eabi-6-2017-q2-update/arm-none-eabi/include/c++/6.3.1/bits/stl_algo.h ****   template<typename _InputIterator, typename _Predicate, typename _Distance>
 180:/home/zkmike/.local/share/renesas/e2_studio/toolchains/gcc_arm/gcc-arm-none-eabi-6-2017-q2-update/arm-none-eabi/include/c++/6.3.1/bits/stl_algo.h ****     _InputIterator
 181:/home/zkmike/.local/share/renesas/e2_studio/toolchains/gcc_arm/gcc-arm-none-eabi-6-2017-q2-update/arm-none-eabi/include/c++/6.3.1/bits/stl_algo.h ****     __find_if_not_n(_InputIterator __first, _Distance& __len, _Predicate __pred)
 182:/home/zkmike/.local/share/renesas/e2_studio/toolchains/gcc_arm/gcc-arm-none-eabi-6-2017-q2-update/arm-none-eabi/include/c++/6.3.1/bits/stl_algo.h ****     {
 183:/home/zkmike/.local/share/renesas/e2_studio/toolchains/gcc_arm/gcc-arm-none-eabi-6-2017-q2-update/arm-none-eabi/include/c++/6.3.1/bits/stl_algo.h ****       for (; __len; --__len, ++__first)
 184:/home/zkmike/.local/share/renesas/e2_studio/toolchains/gcc_arm/gcc-arm-none-eabi-6-2017-q2-update/arm-none-eabi/include/c++/6.3.1/bits/stl_algo.h **** 	if (!__pred(__first))
 185:/home/zkmike/.local/share/renesas/e2_studio/toolchains/gcc_arm/gcc-arm-none-eabi-6-2017-q2-update/arm-none-eabi/include/c++/6.3.1/bits/stl_algo.h **** 	  break;
 186:/home/zkmike/.local/share/renesas/e2_studio/toolchains/gcc_arm/gcc-arm-none-eabi-6-2017-q2-update/arm-none-eabi/include/c++/6.3.1/bits/stl_algo.h ****       return __first;
 187:/home/zkmike/.local/share/renesas/e2_studio/toolchains/gcc_arm/gcc-arm-none-eabi-6-2017-q2-update/arm-none-eabi/include/c++/6.3.1/bits/stl_algo.h ****     }
 188:/home/zkmike/.local/share/renesas/e2_studio/toolchains/gcc_arm/gcc-arm-none-eabi-6-2017-q2-update/arm-none-eabi/include/c++/6.3.1/bits/stl_algo.h **** 
 189:/home/zkmike/.local/share/renesas/e2_studio/toolchains/gcc_arm/gcc-arm-none-eabi-6-2017-q2-update/arm-none-eabi/include/c++/6.3.1/bits/stl_algo.h ****   // set_difference
 190:/home/zkmike/.local/share/renesas/e2_studio/toolchains/gcc_arm/gcc-arm-none-eabi-6-2017-q2-update/arm-none-eabi/include/c++/6.3.1/bits/stl_algo.h ****   // set_intersection
 191:/home/zkmike/.local/share/renesas/e2_studio/toolchains/gcc_arm/gcc-arm-none-eabi-6-2017-q2-update/arm-none-eabi/include/c++/6.3.1/bits/stl_algo.h ****   // set_symmetric_difference
 192:/home/zkmike/.local/share/renesas/e2_studio/toolchains/gcc_arm/gcc-arm-none-eabi-6-2017-q2-update/arm-none-eabi/include/c++/6.3.1/bits/stl_algo.h ****   // set_union
 193:/home/zkmike/.local/share/renesas/e2_studio/toolchains/gcc_arm/gcc-arm-none-eabi-6-2017-q2-update/arm-none-eabi/include/c++/6.3.1/bits/stl_algo.h ****   // for_each
 194:/home/zkmike/.local/share/renesas/e2_studio/toolchains/gcc_arm/gcc-arm-none-eabi-6-2017-q2-update/arm-none-eabi/include/c++/6.3.1/bits/stl_algo.h ****   // find
 195:/home/zkmike/.local/share/renesas/e2_studio/toolchains/gcc_arm/gcc-arm-none-eabi-6-2017-q2-update/arm-none-eabi/include/c++/6.3.1/bits/stl_algo.h ****   // find_if
 196:/home/zkmike/.local/share/renesas/e2_studio/toolchains/gcc_arm/gcc-arm-none-eabi-6-2017-q2-update/arm-none-eabi/include/c++/6.3.1/bits/stl_algo.h ****   // find_first_of
 197:/home/zkmike/.local/share/renesas/e2_studio/toolchains/gcc_arm/gcc-arm-none-eabi-6-2017-q2-update/arm-none-eabi/include/c++/6.3.1/bits/stl_algo.h ****   // adjacent_find
 198:/home/zkmike/.local/share/renesas/e2_studio/toolchains/gcc_arm/gcc-arm-none-eabi-6-2017-q2-update/arm-none-eabi/include/c++/6.3.1/bits/stl_algo.h ****   // count
 199:/home/zkmike/.local/share/renesas/e2_studio/toolchains/gcc_arm/gcc-arm-none-eabi-6-2017-q2-update/arm-none-eabi/include/c++/6.3.1/bits/stl_algo.h ****   // count_if
 200:/home/zkmike/.local/share/renesas/e2_studio/toolchains/gcc_arm/gcc-arm-none-eabi-6-2017-q2-update/arm-none-eabi/include/c++/6.3.1/bits/stl_algo.h ****   // search
 201:/home/zkmike/.local/share/renesas/e2_studio/toolchains/gcc_arm/gcc-arm-none-eabi-6-2017-q2-update/arm-none-eabi/include/c++/6.3.1/bits/stl_algo.h **** 
 202:/home/zkmike/.local/share/renesas/e2_studio/toolchains/gcc_arm/gcc-arm-none-eabi-6-2017-q2-update/arm-none-eabi/include/c++/6.3.1/bits/stl_algo.h ****   template<typename _ForwardIterator1, typename _ForwardIterator2,
 203:/home/zkmike/.local/share/renesas/e2_studio/toolchains/gcc_arm/gcc-arm-none-eabi-6-2017-q2-update/arm-none-eabi/include/c++/6.3.1/bits/stl_algo.h **** 	   typename _BinaryPredicate>
 204:/home/zkmike/.local/share/renesas/e2_studio/toolchains/gcc_arm/gcc-arm-none-eabi-6-2017-q2-update/arm-none-eabi/include/c++/6.3.1/bits/stl_algo.h ****     _ForwardIterator1
 205:/home/zkmike/.local/share/renesas/e2_studio/toolchains/gcc_arm/gcc-arm-none-eabi-6-2017-q2-update/arm-none-eabi/include/c++/6.3.1/bits/stl_algo.h ****     __search(_ForwardIterator1 __first1, _ForwardIterator1 __last1,
 206:/home/zkmike/.local/share/renesas/e2_studio/toolchains/gcc_arm/gcc-arm-none-eabi-6-2017-q2-update/arm-none-eabi/include/c++/6.3.1/bits/stl_algo.h **** 	     _ForwardIterator2 __first2, _ForwardIterator2 __last2,
 207:/home/zkmike/.local/share/renesas/e2_studio/toolchains/gcc_arm/gcc-arm-none-eabi-6-2017-q2-update/arm-none-eabi/include/c++/6.3.1/bits/stl_algo.h **** 	     _BinaryPredicate  __predicate)
 208:/home/zkmike/.local/share/renesas/e2_studio/toolchains/gcc_arm/gcc-arm-none-eabi-6-2017-q2-update/arm-none-eabi/include/c++/6.3.1/bits/stl_algo.h ****     {
 209:/home/zkmike/.local/share/renesas/e2_studio/toolchains/gcc_arm/gcc-arm-none-eabi-6-2017-q2-update/arm-none-eabi/include/c++/6.3.1/bits/stl_algo.h ****       // Test for empty ranges
 210:/home/zkmike/.local/share/renesas/e2_studio/toolchains/gcc_arm/gcc-arm-none-eabi-6-2017-q2-update/arm-none-eabi/include/c++/6.3.1/bits/stl_algo.h ****       if (__first1 == __last1 || __first2 == __last2)
 211:/home/zkmike/.local/share/renesas/e2_studio/toolchains/gcc_arm/gcc-arm-none-eabi-6-2017-q2-update/arm-none-eabi/include/c++/6.3.1/bits/stl_algo.h **** 	return __first1;
 212:/home/zkmike/.local/share/renesas/e2_studio/toolchains/gcc_arm/gcc-arm-none-eabi-6-2017-q2-update/arm-none-eabi/include/c++/6.3.1/bits/stl_algo.h **** 
 213:/home/zkmike/.local/share/renesas/e2_studio/toolchains/gcc_arm/gcc-arm-none-eabi-6-2017-q2-update/arm-none-eabi/include/c++/6.3.1/bits/stl_algo.h ****       // Test for a pattern of length 1.
 214:/home/zkmike/.local/share/renesas/e2_studio/toolchains/gcc_arm/gcc-arm-none-eabi-6-2017-q2-update/arm-none-eabi/include/c++/6.3.1/bits/stl_algo.h ****       _ForwardIterator2 __p1(__first2);
 215:/home/zkmike/.local/share/renesas/e2_studio/toolchains/gcc_arm/gcc-arm-none-eabi-6-2017-q2-update/arm-none-eabi/include/c++/6.3.1/bits/stl_algo.h ****       if (++__p1 == __last2)
 216:/home/zkmike/.local/share/renesas/e2_studio/toolchains/gcc_arm/gcc-arm-none-eabi-6-2017-q2-update/arm-none-eabi/include/c++/6.3.1/bits/stl_algo.h **** 	return std::__find_if(__first1, __last1,
 217:/home/zkmike/.local/share/renesas/e2_studio/toolchains/gcc_arm/gcc-arm-none-eabi-6-2017-q2-update/arm-none-eabi/include/c++/6.3.1/bits/stl_algo.h **** 		__gnu_cxx::__ops::__iter_comp_iter(__predicate, __first2));
 218:/home/zkmike/.local/share/renesas/e2_studio/toolchains/gcc_arm/gcc-arm-none-eabi-6-2017-q2-update/arm-none-eabi/include/c++/6.3.1/bits/stl_algo.h **** 
 219:/home/zkmike/.local/share/renesas/e2_studio/toolchains/gcc_arm/gcc-arm-none-eabi-6-2017-q2-update/arm-none-eabi/include/c++/6.3.1/bits/stl_algo.h ****       // General case.
 220:/home/zkmike/.local/share/renesas/e2_studio/toolchains/gcc_arm/gcc-arm-none-eabi-6-2017-q2-update/arm-none-eabi/include/c++/6.3.1/bits/stl_algo.h ****       _ForwardIterator2 __p;
 221:/home/zkmike/.local/share/renesas/e2_studio/toolchains/gcc_arm/gcc-arm-none-eabi-6-2017-q2-update/arm-none-eabi/include/c++/6.3.1/bits/stl_algo.h ****       _ForwardIterator1 __current = __first1;
 222:/home/zkmike/.local/share/renesas/e2_studio/toolchains/gcc_arm/gcc-arm-none-eabi-6-2017-q2-update/arm-none-eabi/include/c++/6.3.1/bits/stl_algo.h **** 
 223:/home/zkmike/.local/share/renesas/e2_studio/toolchains/gcc_arm/gcc-arm-none-eabi-6-2017-q2-update/arm-none-eabi/include/c++/6.3.1/bits/stl_algo.h ****       for (;;)
 224:/home/zkmike/.local/share/renesas/e2_studio/toolchains/gcc_arm/gcc-arm-none-eabi-6-2017-q2-update/arm-none-eabi/include/c++/6.3.1/bits/stl_algo.h **** 	{
 225:/home/zkmike/.local/share/renesas/e2_studio/toolchains/gcc_arm/gcc-arm-none-eabi-6-2017-q2-update/arm-none-eabi/include/c++/6.3.1/bits/stl_algo.h **** 	  __first1 =
 226:/home/zkmike/.local/share/renesas/e2_studio/toolchains/gcc_arm/gcc-arm-none-eabi-6-2017-q2-update/arm-none-eabi/include/c++/6.3.1/bits/stl_algo.h **** 	    std::__find_if(__first1, __last1,
 227:/home/zkmike/.local/share/renesas/e2_studio/toolchains/gcc_arm/gcc-arm-none-eabi-6-2017-q2-update/arm-none-eabi/include/c++/6.3.1/bits/stl_algo.h **** 		__gnu_cxx::__ops::__iter_comp_iter(__predicate, __first2));
 228:/home/zkmike/.local/share/renesas/e2_studio/toolchains/gcc_arm/gcc-arm-none-eabi-6-2017-q2-update/arm-none-eabi/include/c++/6.3.1/bits/stl_algo.h **** 
 229:/home/zkmike/.local/share/renesas/e2_studio/toolchains/gcc_arm/gcc-arm-none-eabi-6-2017-q2-update/arm-none-eabi/include/c++/6.3.1/bits/stl_algo.h **** 	  if (__first1 == __last1)
 230:/home/zkmike/.local/share/renesas/e2_studio/toolchains/gcc_arm/gcc-arm-none-eabi-6-2017-q2-update/arm-none-eabi/include/c++/6.3.1/bits/stl_algo.h **** 	    return __last1;
 231:/home/zkmike/.local/share/renesas/e2_studio/toolchains/gcc_arm/gcc-arm-none-eabi-6-2017-q2-update/arm-none-eabi/include/c++/6.3.1/bits/stl_algo.h **** 
 232:/home/zkmike/.local/share/renesas/e2_studio/toolchains/gcc_arm/gcc-arm-none-eabi-6-2017-q2-update/arm-none-eabi/include/c++/6.3.1/bits/stl_algo.h **** 	  __p = __p1;
 233:/home/zkmike/.local/share/renesas/e2_studio/toolchains/gcc_arm/gcc-arm-none-eabi-6-2017-q2-update/arm-none-eabi/include/c++/6.3.1/bits/stl_algo.h **** 	  __current = __first1;
 234:/home/zkmike/.local/share/renesas/e2_studio/toolchains/gcc_arm/gcc-arm-none-eabi-6-2017-q2-update/arm-none-eabi/include/c++/6.3.1/bits/stl_algo.h **** 	  if (++__current == __last1)
 235:/home/zkmike/.local/share/renesas/e2_studio/toolchains/gcc_arm/gcc-arm-none-eabi-6-2017-q2-update/arm-none-eabi/include/c++/6.3.1/bits/stl_algo.h **** 	    return __last1;
 236:/home/zkmike/.local/share/renesas/e2_studio/toolchains/gcc_arm/gcc-arm-none-eabi-6-2017-q2-update/arm-none-eabi/include/c++/6.3.1/bits/stl_algo.h **** 
 237:/home/zkmike/.local/share/renesas/e2_studio/toolchains/gcc_arm/gcc-arm-none-eabi-6-2017-q2-update/arm-none-eabi/include/c++/6.3.1/bits/stl_algo.h **** 	  while (__predicate(__current, __p))
 238:/home/zkmike/.local/share/renesas/e2_studio/toolchains/gcc_arm/gcc-arm-none-eabi-6-2017-q2-update/arm-none-eabi/include/c++/6.3.1/bits/stl_algo.h **** 	    {
 239:/home/zkmike/.local/share/renesas/e2_studio/toolchains/gcc_arm/gcc-arm-none-eabi-6-2017-q2-update/arm-none-eabi/include/c++/6.3.1/bits/stl_algo.h **** 	      if (++__p == __last2)
 240:/home/zkmike/.local/share/renesas/e2_studio/toolchains/gcc_arm/gcc-arm-none-eabi-6-2017-q2-update/arm-none-eabi/include/c++/6.3.1/bits/stl_algo.h **** 		return __first1;
 241:/home/zkmike/.local/share/renesas/e2_studio/toolchains/gcc_arm/gcc-arm-none-eabi-6-2017-q2-update/arm-none-eabi/include/c++/6.3.1/bits/stl_algo.h **** 	      if (++__current == __last1)
 242:/home/zkmike/.local/share/renesas/e2_studio/toolchains/gcc_arm/gcc-arm-none-eabi-6-2017-q2-update/arm-none-eabi/include/c++/6.3.1/bits/stl_algo.h **** 		return __last1;
 243:/home/zkmike/.local/share/renesas/e2_studio/toolchains/gcc_arm/gcc-arm-none-eabi-6-2017-q2-update/arm-none-eabi/include/c++/6.3.1/bits/stl_algo.h **** 	    }
 244:/home/zkmike/.local/share/renesas/e2_studio/toolchains/gcc_arm/gcc-arm-none-eabi-6-2017-q2-update/arm-none-eabi/include/c++/6.3.1/bits/stl_algo.h **** 	  ++__first1;
 245:/home/zkmike/.local/share/renesas/e2_studio/toolchains/gcc_arm/gcc-arm-none-eabi-6-2017-q2-update/arm-none-eabi/include/c++/6.3.1/bits/stl_algo.h **** 	}
 246:/home/zkmike/.local/share/renesas/e2_studio/toolchains/gcc_arm/gcc-arm-none-eabi-6-2017-q2-update/arm-none-eabi/include/c++/6.3.1/bits/stl_algo.h ****       return __first1;
 247:/home/zkmike/.local/share/renesas/e2_studio/toolchains/gcc_arm/gcc-arm-none-eabi-6-2017-q2-update/arm-none-eabi/include/c++/6.3.1/bits/stl_algo.h ****     }
 248:/home/zkmike/.local/share/renesas/e2_studio/toolchains/gcc_arm/gcc-arm-none-eabi-6-2017-q2-update/arm-none-eabi/include/c++/6.3.1/bits/stl_algo.h **** 
 249:/home/zkmike/.local/share/renesas/e2_studio/toolchains/gcc_arm/gcc-arm-none-eabi-6-2017-q2-update/arm-none-eabi/include/c++/6.3.1/bits/stl_algo.h ****   // search_n
 250:/home/zkmike/.local/share/renesas/e2_studio/toolchains/gcc_arm/gcc-arm-none-eabi-6-2017-q2-update/arm-none-eabi/include/c++/6.3.1/bits/stl_algo.h **** 
 251:/home/zkmike/.local/share/renesas/e2_studio/toolchains/gcc_arm/gcc-arm-none-eabi-6-2017-q2-update/arm-none-eabi/include/c++/6.3.1/bits/stl_algo.h ****   /**
 252:/home/zkmike/.local/share/renesas/e2_studio/toolchains/gcc_arm/gcc-arm-none-eabi-6-2017-q2-update/arm-none-eabi/include/c++/6.3.1/bits/stl_algo.h ****    *  This is an helper function for search_n overloaded for forward iterators.
 253:/home/zkmike/.local/share/renesas/e2_studio/toolchains/gcc_arm/gcc-arm-none-eabi-6-2017-q2-update/arm-none-eabi/include/c++/6.3.1/bits/stl_algo.h ****   */
 254:/home/zkmike/.local/share/renesas/e2_studio/toolchains/gcc_arm/gcc-arm-none-eabi-6-2017-q2-update/arm-none-eabi/include/c++/6.3.1/bits/stl_algo.h ****   template<typename _ForwardIterator, typename _Integer,
 255:/home/zkmike/.local/share/renesas/e2_studio/toolchains/gcc_arm/gcc-arm-none-eabi-6-2017-q2-update/arm-none-eabi/include/c++/6.3.1/bits/stl_algo.h **** 	   typename _UnaryPredicate>
 256:/home/zkmike/.local/share/renesas/e2_studio/toolchains/gcc_arm/gcc-arm-none-eabi-6-2017-q2-update/arm-none-eabi/include/c++/6.3.1/bits/stl_algo.h ****     _ForwardIterator
 257:/home/zkmike/.local/share/renesas/e2_studio/toolchains/gcc_arm/gcc-arm-none-eabi-6-2017-q2-update/arm-none-eabi/include/c++/6.3.1/bits/stl_algo.h ****     __search_n_aux(_ForwardIterator __first, _ForwardIterator __last,
 258:/home/zkmike/.local/share/renesas/e2_studio/toolchains/gcc_arm/gcc-arm-none-eabi-6-2017-q2-update/arm-none-eabi/include/c++/6.3.1/bits/stl_algo.h **** 		   _Integer __count, _UnaryPredicate __unary_pred,
 259:/home/zkmike/.local/share/renesas/e2_studio/toolchains/gcc_arm/gcc-arm-none-eabi-6-2017-q2-update/arm-none-eabi/include/c++/6.3.1/bits/stl_algo.h **** 		   std::forward_iterator_tag)
 260:/home/zkmike/.local/share/renesas/e2_studio/toolchains/gcc_arm/gcc-arm-none-eabi-6-2017-q2-update/arm-none-eabi/include/c++/6.3.1/bits/stl_algo.h ****     {
 261:/home/zkmike/.local/share/renesas/e2_studio/toolchains/gcc_arm/gcc-arm-none-eabi-6-2017-q2-update/arm-none-eabi/include/c++/6.3.1/bits/stl_algo.h ****       __first = std::__find_if(__first, __last, __unary_pred);
 262:/home/zkmike/.local/share/renesas/e2_studio/toolchains/gcc_arm/gcc-arm-none-eabi-6-2017-q2-update/arm-none-eabi/include/c++/6.3.1/bits/stl_algo.h ****       while (__first != __last)
 263:/home/zkmike/.local/share/renesas/e2_studio/toolchains/gcc_arm/gcc-arm-none-eabi-6-2017-q2-update/arm-none-eabi/include/c++/6.3.1/bits/stl_algo.h **** 	{
 264:/home/zkmike/.local/share/renesas/e2_studio/toolchains/gcc_arm/gcc-arm-none-eabi-6-2017-q2-update/arm-none-eabi/include/c++/6.3.1/bits/stl_algo.h **** 	  typename iterator_traits<_ForwardIterator>::difference_type
 265:/home/zkmike/.local/share/renesas/e2_studio/toolchains/gcc_arm/gcc-arm-none-eabi-6-2017-q2-update/arm-none-eabi/include/c++/6.3.1/bits/stl_algo.h **** 	    __n = __count;
 266:/home/zkmike/.local/share/renesas/e2_studio/toolchains/gcc_arm/gcc-arm-none-eabi-6-2017-q2-update/arm-none-eabi/include/c++/6.3.1/bits/stl_algo.h **** 	  _ForwardIterator __i = __first;
 267:/home/zkmike/.local/share/renesas/e2_studio/toolchains/gcc_arm/gcc-arm-none-eabi-6-2017-q2-update/arm-none-eabi/include/c++/6.3.1/bits/stl_algo.h **** 	  ++__i;
 268:/home/zkmike/.local/share/renesas/e2_studio/toolchains/gcc_arm/gcc-arm-none-eabi-6-2017-q2-update/arm-none-eabi/include/c++/6.3.1/bits/stl_algo.h **** 	  while (__i != __last && __n != 1 && __unary_pred(__i))
 269:/home/zkmike/.local/share/renesas/e2_studio/toolchains/gcc_arm/gcc-arm-none-eabi-6-2017-q2-update/arm-none-eabi/include/c++/6.3.1/bits/stl_algo.h **** 	    {
 270:/home/zkmike/.local/share/renesas/e2_studio/toolchains/gcc_arm/gcc-arm-none-eabi-6-2017-q2-update/arm-none-eabi/include/c++/6.3.1/bits/stl_algo.h **** 	      ++__i;
 271:/home/zkmike/.local/share/renesas/e2_studio/toolchains/gcc_arm/gcc-arm-none-eabi-6-2017-q2-update/arm-none-eabi/include/c++/6.3.1/bits/stl_algo.h **** 	      --__n;
 272:/home/zkmike/.local/share/renesas/e2_studio/toolchains/gcc_arm/gcc-arm-none-eabi-6-2017-q2-update/arm-none-eabi/include/c++/6.3.1/bits/stl_algo.h **** 	    }
 273:/home/zkmike/.local/share/renesas/e2_studio/toolchains/gcc_arm/gcc-arm-none-eabi-6-2017-q2-update/arm-none-eabi/include/c++/6.3.1/bits/stl_algo.h **** 	  if (__n == 1)
 274:/home/zkmike/.local/share/renesas/e2_studio/toolchains/gcc_arm/gcc-arm-none-eabi-6-2017-q2-update/arm-none-eabi/include/c++/6.3.1/bits/stl_algo.h **** 	    return __first;
 275:/home/zkmike/.local/share/renesas/e2_studio/toolchains/gcc_arm/gcc-arm-none-eabi-6-2017-q2-update/arm-none-eabi/include/c++/6.3.1/bits/stl_algo.h **** 	  if (__i == __last)
 276:/home/zkmike/.local/share/renesas/e2_studio/toolchains/gcc_arm/gcc-arm-none-eabi-6-2017-q2-update/arm-none-eabi/include/c++/6.3.1/bits/stl_algo.h **** 	    return __last;
 277:/home/zkmike/.local/share/renesas/e2_studio/toolchains/gcc_arm/gcc-arm-none-eabi-6-2017-q2-update/arm-none-eabi/include/c++/6.3.1/bits/stl_algo.h **** 	  __first = std::__find_if(++__i, __last, __unary_pred);
 278:/home/zkmike/.local/share/renesas/e2_studio/toolchains/gcc_arm/gcc-arm-none-eabi-6-2017-q2-update/arm-none-eabi/include/c++/6.3.1/bits/stl_algo.h **** 	}
 279:/home/zkmike/.local/share/renesas/e2_studio/toolchains/gcc_arm/gcc-arm-none-eabi-6-2017-q2-update/arm-none-eabi/include/c++/6.3.1/bits/stl_algo.h ****       return __last;
 280:/home/zkmike/.local/share/renesas/e2_studio/toolchains/gcc_arm/gcc-arm-none-eabi-6-2017-q2-update/arm-none-eabi/include/c++/6.3.1/bits/stl_algo.h ****     }
 281:/home/zkmike/.local/share/renesas/e2_studio/toolchains/gcc_arm/gcc-arm-none-eabi-6-2017-q2-update/arm-none-eabi/include/c++/6.3.1/bits/stl_algo.h **** 
 282:/home/zkmike/.local/share/renesas/e2_studio/toolchains/gcc_arm/gcc-arm-none-eabi-6-2017-q2-update/arm-none-eabi/include/c++/6.3.1/bits/stl_algo.h ****   /**
 283:/home/zkmike/.local/share/renesas/e2_studio/toolchains/gcc_arm/gcc-arm-none-eabi-6-2017-q2-update/arm-none-eabi/include/c++/6.3.1/bits/stl_algo.h ****    *  This is an helper function for search_n overloaded for random access
 284:/home/zkmike/.local/share/renesas/e2_studio/toolchains/gcc_arm/gcc-arm-none-eabi-6-2017-q2-update/arm-none-eabi/include/c++/6.3.1/bits/stl_algo.h ****    *  iterators.
 285:/home/zkmike/.local/share/renesas/e2_studio/toolchains/gcc_arm/gcc-arm-none-eabi-6-2017-q2-update/arm-none-eabi/include/c++/6.3.1/bits/stl_algo.h ****   */
 286:/home/zkmike/.local/share/renesas/e2_studio/toolchains/gcc_arm/gcc-arm-none-eabi-6-2017-q2-update/arm-none-eabi/include/c++/6.3.1/bits/stl_algo.h ****   template<typename _RandomAccessIter, typename _Integer,
 287:/home/zkmike/.local/share/renesas/e2_studio/toolchains/gcc_arm/gcc-arm-none-eabi-6-2017-q2-update/arm-none-eabi/include/c++/6.3.1/bits/stl_algo.h **** 	   typename _UnaryPredicate>
 288:/home/zkmike/.local/share/renesas/e2_studio/toolchains/gcc_arm/gcc-arm-none-eabi-6-2017-q2-update/arm-none-eabi/include/c++/6.3.1/bits/stl_algo.h ****     _RandomAccessIter
 289:/home/zkmike/.local/share/renesas/e2_studio/toolchains/gcc_arm/gcc-arm-none-eabi-6-2017-q2-update/arm-none-eabi/include/c++/6.3.1/bits/stl_algo.h ****     __search_n_aux(_RandomAccessIter __first, _RandomAccessIter __last,
 290:/home/zkmike/.local/share/renesas/e2_studio/toolchains/gcc_arm/gcc-arm-none-eabi-6-2017-q2-update/arm-none-eabi/include/c++/6.3.1/bits/stl_algo.h **** 		   _Integer __count, _UnaryPredicate __unary_pred,
 291:/home/zkmike/.local/share/renesas/e2_studio/toolchains/gcc_arm/gcc-arm-none-eabi-6-2017-q2-update/arm-none-eabi/include/c++/6.3.1/bits/stl_algo.h **** 		   std::random_access_iterator_tag)
 292:/home/zkmike/.local/share/renesas/e2_studio/toolchains/gcc_arm/gcc-arm-none-eabi-6-2017-q2-update/arm-none-eabi/include/c++/6.3.1/bits/stl_algo.h ****     {
 293:/home/zkmike/.local/share/renesas/e2_studio/toolchains/gcc_arm/gcc-arm-none-eabi-6-2017-q2-update/arm-none-eabi/include/c++/6.3.1/bits/stl_algo.h ****       typedef typename std::iterator_traits<_RandomAccessIter>::difference_type
 294:/home/zkmike/.local/share/renesas/e2_studio/toolchains/gcc_arm/gcc-arm-none-eabi-6-2017-q2-update/arm-none-eabi/include/c++/6.3.1/bits/stl_algo.h **** 	_DistanceType;
 295:/home/zkmike/.local/share/renesas/e2_studio/toolchains/gcc_arm/gcc-arm-none-eabi-6-2017-q2-update/arm-none-eabi/include/c++/6.3.1/bits/stl_algo.h **** 
 296:/home/zkmike/.local/share/renesas/e2_studio/toolchains/gcc_arm/gcc-arm-none-eabi-6-2017-q2-update/arm-none-eabi/include/c++/6.3.1/bits/stl_algo.h ****       _DistanceType __tailSize = __last - __first;
 297:/home/zkmike/.local/share/renesas/e2_studio/toolchains/gcc_arm/gcc-arm-none-eabi-6-2017-q2-update/arm-none-eabi/include/c++/6.3.1/bits/stl_algo.h ****       _DistanceType __remainder = __count;
 298:/home/zkmike/.local/share/renesas/e2_studio/toolchains/gcc_arm/gcc-arm-none-eabi-6-2017-q2-update/arm-none-eabi/include/c++/6.3.1/bits/stl_algo.h **** 
 299:/home/zkmike/.local/share/renesas/e2_studio/toolchains/gcc_arm/gcc-arm-none-eabi-6-2017-q2-update/arm-none-eabi/include/c++/6.3.1/bits/stl_algo.h ****       while (__remainder <= __tailSize) // the main loop...
 300:/home/zkmike/.local/share/renesas/e2_studio/toolchains/gcc_arm/gcc-arm-none-eabi-6-2017-q2-update/arm-none-eabi/include/c++/6.3.1/bits/stl_algo.h **** 	{
 301:/home/zkmike/.local/share/renesas/e2_studio/toolchains/gcc_arm/gcc-arm-none-eabi-6-2017-q2-update/arm-none-eabi/include/c++/6.3.1/bits/stl_algo.h **** 	  __first += __remainder;
 302:/home/zkmike/.local/share/renesas/e2_studio/toolchains/gcc_arm/gcc-arm-none-eabi-6-2017-q2-update/arm-none-eabi/include/c++/6.3.1/bits/stl_algo.h **** 	  __tailSize -= __remainder;
 303:/home/zkmike/.local/share/renesas/e2_studio/toolchains/gcc_arm/gcc-arm-none-eabi-6-2017-q2-update/arm-none-eabi/include/c++/6.3.1/bits/stl_algo.h **** 	  // __first here is always pointing to one past the last element of
 304:/home/zkmike/.local/share/renesas/e2_studio/toolchains/gcc_arm/gcc-arm-none-eabi-6-2017-q2-update/arm-none-eabi/include/c++/6.3.1/bits/stl_algo.h **** 	  // next possible match.
 305:/home/zkmike/.local/share/renesas/e2_studio/toolchains/gcc_arm/gcc-arm-none-eabi-6-2017-q2-update/arm-none-eabi/include/c++/6.3.1/bits/stl_algo.h **** 	  _RandomAccessIter __backTrack = __first; 
 306:/home/zkmike/.local/share/renesas/e2_studio/toolchains/gcc_arm/gcc-arm-none-eabi-6-2017-q2-update/arm-none-eabi/include/c++/6.3.1/bits/stl_algo.h **** 	  while (__unary_pred(--__backTrack))
 307:/home/zkmike/.local/share/renesas/e2_studio/toolchains/gcc_arm/gcc-arm-none-eabi-6-2017-q2-update/arm-none-eabi/include/c++/6.3.1/bits/stl_algo.h **** 	    {
 308:/home/zkmike/.local/share/renesas/e2_studio/toolchains/gcc_arm/gcc-arm-none-eabi-6-2017-q2-update/arm-none-eabi/include/c++/6.3.1/bits/stl_algo.h **** 	      if (--__remainder == 0)
 309:/home/zkmike/.local/share/renesas/e2_studio/toolchains/gcc_arm/gcc-arm-none-eabi-6-2017-q2-update/arm-none-eabi/include/c++/6.3.1/bits/stl_algo.h **** 		return (__first - __count); // Success
 310:/home/zkmike/.local/share/renesas/e2_studio/toolchains/gcc_arm/gcc-arm-none-eabi-6-2017-q2-update/arm-none-eabi/include/c++/6.3.1/bits/stl_algo.h **** 	    }
 311:/home/zkmike/.local/share/renesas/e2_studio/toolchains/gcc_arm/gcc-arm-none-eabi-6-2017-q2-update/arm-none-eabi/include/c++/6.3.1/bits/stl_algo.h **** 	  __remainder = __count + 1 - (__first - __backTrack);
 312:/home/zkmike/.local/share/renesas/e2_studio/toolchains/gcc_arm/gcc-arm-none-eabi-6-2017-q2-update/arm-none-eabi/include/c++/6.3.1/bits/stl_algo.h **** 	}
 313:/home/zkmike/.local/share/renesas/e2_studio/toolchains/gcc_arm/gcc-arm-none-eabi-6-2017-q2-update/arm-none-eabi/include/c++/6.3.1/bits/stl_algo.h ****       return __last; // Failure
 314:/home/zkmike/.local/share/renesas/e2_studio/toolchains/gcc_arm/gcc-arm-none-eabi-6-2017-q2-update/arm-none-eabi/include/c++/6.3.1/bits/stl_algo.h ****     }
 315:/home/zkmike/.local/share/renesas/e2_studio/toolchains/gcc_arm/gcc-arm-none-eabi-6-2017-q2-update/arm-none-eabi/include/c++/6.3.1/bits/stl_algo.h **** 
 316:/home/zkmike/.local/share/renesas/e2_studio/toolchains/gcc_arm/gcc-arm-none-eabi-6-2017-q2-update/arm-none-eabi/include/c++/6.3.1/bits/stl_algo.h ****   template<typename _ForwardIterator, typename _Integer,
 317:/home/zkmike/.local/share/renesas/e2_studio/toolchains/gcc_arm/gcc-arm-none-eabi-6-2017-q2-update/arm-none-eabi/include/c++/6.3.1/bits/stl_algo.h **** 	   typename _UnaryPredicate>
 318:/home/zkmike/.local/share/renesas/e2_studio/toolchains/gcc_arm/gcc-arm-none-eabi-6-2017-q2-update/arm-none-eabi/include/c++/6.3.1/bits/stl_algo.h ****     _ForwardIterator
 319:/home/zkmike/.local/share/renesas/e2_studio/toolchains/gcc_arm/gcc-arm-none-eabi-6-2017-q2-update/arm-none-eabi/include/c++/6.3.1/bits/stl_algo.h ****     __search_n(_ForwardIterator __first, _ForwardIterator __last,
 320:/home/zkmike/.local/share/renesas/e2_studio/toolchains/gcc_arm/gcc-arm-none-eabi-6-2017-q2-update/arm-none-eabi/include/c++/6.3.1/bits/stl_algo.h **** 	       _Integer __count,
 321:/home/zkmike/.local/share/renesas/e2_studio/toolchains/gcc_arm/gcc-arm-none-eabi-6-2017-q2-update/arm-none-eabi/include/c++/6.3.1/bits/stl_algo.h **** 	       _UnaryPredicate __unary_pred)
 322:/home/zkmike/.local/share/renesas/e2_studio/toolchains/gcc_arm/gcc-arm-none-eabi-6-2017-q2-update/arm-none-eabi/include/c++/6.3.1/bits/stl_algo.h ****     {
 323:/home/zkmike/.local/share/renesas/e2_studio/toolchains/gcc_arm/gcc-arm-none-eabi-6-2017-q2-update/arm-none-eabi/include/c++/6.3.1/bits/stl_algo.h ****       if (__count <= 0)
 324:/home/zkmike/.local/share/renesas/e2_studio/toolchains/gcc_arm/gcc-arm-none-eabi-6-2017-q2-update/arm-none-eabi/include/c++/6.3.1/bits/stl_algo.h **** 	return __first;
 325:/home/zkmike/.local/share/renesas/e2_studio/toolchains/gcc_arm/gcc-arm-none-eabi-6-2017-q2-update/arm-none-eabi/include/c++/6.3.1/bits/stl_algo.h **** 
 326:/home/zkmike/.local/share/renesas/e2_studio/toolchains/gcc_arm/gcc-arm-none-eabi-6-2017-q2-update/arm-none-eabi/include/c++/6.3.1/bits/stl_algo.h ****       if (__count == 1)
 327:/home/zkmike/.local/share/renesas/e2_studio/toolchains/gcc_arm/gcc-arm-none-eabi-6-2017-q2-update/arm-none-eabi/include/c++/6.3.1/bits/stl_algo.h **** 	return std::__find_if(__first, __last, __unary_pred);
 328:/home/zkmike/.local/share/renesas/e2_studio/toolchains/gcc_arm/gcc-arm-none-eabi-6-2017-q2-update/arm-none-eabi/include/c++/6.3.1/bits/stl_algo.h **** 
 329:/home/zkmike/.local/share/renesas/e2_studio/toolchains/gcc_arm/gcc-arm-none-eabi-6-2017-q2-update/arm-none-eabi/include/c++/6.3.1/bits/stl_algo.h ****       return std::__search_n_aux(__first, __last, __count, __unary_pred,
 330:/home/zkmike/.local/share/renesas/e2_studio/toolchains/gcc_arm/gcc-arm-none-eabi-6-2017-q2-update/arm-none-eabi/include/c++/6.3.1/bits/stl_algo.h **** 				 std::__iterator_category(__first));
 331:/home/zkmike/.local/share/renesas/e2_studio/toolchains/gcc_arm/gcc-arm-none-eabi-6-2017-q2-update/arm-none-eabi/include/c++/6.3.1/bits/stl_algo.h ****     }
 332:/home/zkmike/.local/share/renesas/e2_studio/toolchains/gcc_arm/gcc-arm-none-eabi-6-2017-q2-update/arm-none-eabi/include/c++/6.3.1/bits/stl_algo.h **** 
 333:/home/zkmike/.local/share/renesas/e2_studio/toolchains/gcc_arm/gcc-arm-none-eabi-6-2017-q2-update/arm-none-eabi/include/c++/6.3.1/bits/stl_algo.h ****   // find_end for forward iterators.
 334:/home/zkmike/.local/share/renesas/e2_studio/toolchains/gcc_arm/gcc-arm-none-eabi-6-2017-q2-update/arm-none-eabi/include/c++/6.3.1/bits/stl_algo.h ****   template<typename _ForwardIterator1, typename _ForwardIterator2,
 335:/home/zkmike/.local/share/renesas/e2_studio/toolchains/gcc_arm/gcc-arm-none-eabi-6-2017-q2-update/arm-none-eabi/include/c++/6.3.1/bits/stl_algo.h **** 	   typename _BinaryPredicate>
 336:/home/zkmike/.local/share/renesas/e2_studio/toolchains/gcc_arm/gcc-arm-none-eabi-6-2017-q2-update/arm-none-eabi/include/c++/6.3.1/bits/stl_algo.h ****     _ForwardIterator1
 337:/home/zkmike/.local/share/renesas/e2_studio/toolchains/gcc_arm/gcc-arm-none-eabi-6-2017-q2-update/arm-none-eabi/include/c++/6.3.1/bits/stl_algo.h ****     __find_end(_ForwardIterator1 __first1, _ForwardIterator1 __last1,
 338:/home/zkmike/.local/share/renesas/e2_studio/toolchains/gcc_arm/gcc-arm-none-eabi-6-2017-q2-update/arm-none-eabi/include/c++/6.3.1/bits/stl_algo.h **** 	       _ForwardIterator2 __first2, _ForwardIterator2 __last2,
 339:/home/zkmike/.local/share/renesas/e2_studio/toolchains/gcc_arm/gcc-arm-none-eabi-6-2017-q2-update/arm-none-eabi/include/c++/6.3.1/bits/stl_algo.h **** 	       forward_iterator_tag, forward_iterator_tag,
 340:/home/zkmike/.local/share/renesas/e2_studio/toolchains/gcc_arm/gcc-arm-none-eabi-6-2017-q2-update/arm-none-eabi/include/c++/6.3.1/bits/stl_algo.h **** 	       _BinaryPredicate __comp)
 341:/home/zkmike/.local/share/renesas/e2_studio/toolchains/gcc_arm/gcc-arm-none-eabi-6-2017-q2-update/arm-none-eabi/include/c++/6.3.1/bits/stl_algo.h ****     {
 342:/home/zkmike/.local/share/renesas/e2_studio/toolchains/gcc_arm/gcc-arm-none-eabi-6-2017-q2-update/arm-none-eabi/include/c++/6.3.1/bits/stl_algo.h ****       if (__first2 == __last2)
 343:/home/zkmike/.local/share/renesas/e2_studio/toolchains/gcc_arm/gcc-arm-none-eabi-6-2017-q2-update/arm-none-eabi/include/c++/6.3.1/bits/stl_algo.h **** 	return __last1;
 344:/home/zkmike/.local/share/renesas/e2_studio/toolchains/gcc_arm/gcc-arm-none-eabi-6-2017-q2-update/arm-none-eabi/include/c++/6.3.1/bits/stl_algo.h **** 
 345:/home/zkmike/.local/share/renesas/e2_studio/toolchains/gcc_arm/gcc-arm-none-eabi-6-2017-q2-update/arm-none-eabi/include/c++/6.3.1/bits/stl_algo.h ****       _ForwardIterator1 __result = __last1;
 346:/home/zkmike/.local/share/renesas/e2_studio/toolchains/gcc_arm/gcc-arm-none-eabi-6-2017-q2-update/arm-none-eabi/include/c++/6.3.1/bits/stl_algo.h ****       while (1)
 347:/home/zkmike/.local/share/renesas/e2_studio/toolchains/gcc_arm/gcc-arm-none-eabi-6-2017-q2-update/arm-none-eabi/include/c++/6.3.1/bits/stl_algo.h **** 	{
 348:/home/zkmike/.local/share/renesas/e2_studio/toolchains/gcc_arm/gcc-arm-none-eabi-6-2017-q2-update/arm-none-eabi/include/c++/6.3.1/bits/stl_algo.h **** 	  _ForwardIterator1 __new_result
 349:/home/zkmike/.local/share/renesas/e2_studio/toolchains/gcc_arm/gcc-arm-none-eabi-6-2017-q2-update/arm-none-eabi/include/c++/6.3.1/bits/stl_algo.h **** 	    = std::__search(__first1, __last1, __first2, __last2, __comp);
 350:/home/zkmike/.local/share/renesas/e2_studio/toolchains/gcc_arm/gcc-arm-none-eabi-6-2017-q2-update/arm-none-eabi/include/c++/6.3.1/bits/stl_algo.h **** 	  if (__new_result == __last1)
 351:/home/zkmike/.local/share/renesas/e2_studio/toolchains/gcc_arm/gcc-arm-none-eabi-6-2017-q2-update/arm-none-eabi/include/c++/6.3.1/bits/stl_algo.h **** 	    return __result;
 352:/home/zkmike/.local/share/renesas/e2_studio/toolchains/gcc_arm/gcc-arm-none-eabi-6-2017-q2-update/arm-none-eabi/include/c++/6.3.1/bits/stl_algo.h **** 	  else
 353:/home/zkmike/.local/share/renesas/e2_studio/toolchains/gcc_arm/gcc-arm-none-eabi-6-2017-q2-update/arm-none-eabi/include/c++/6.3.1/bits/stl_algo.h **** 	    {
 354:/home/zkmike/.local/share/renesas/e2_studio/toolchains/gcc_arm/gcc-arm-none-eabi-6-2017-q2-update/arm-none-eabi/include/c++/6.3.1/bits/stl_algo.h **** 	      __result = __new_result;
 355:/home/zkmike/.local/share/renesas/e2_studio/toolchains/gcc_arm/gcc-arm-none-eabi-6-2017-q2-update/arm-none-eabi/include/c++/6.3.1/bits/stl_algo.h **** 	      __first1 = __new_result;
 356:/home/zkmike/.local/share/renesas/e2_studio/toolchains/gcc_arm/gcc-arm-none-eabi-6-2017-q2-update/arm-none-eabi/include/c++/6.3.1/bits/stl_algo.h **** 	      ++__first1;
 357:/home/zkmike/.local/share/renesas/e2_studio/toolchains/gcc_arm/gcc-arm-none-eabi-6-2017-q2-update/arm-none-eabi/include/c++/6.3.1/bits/stl_algo.h **** 	    }
 358:/home/zkmike/.local/share/renesas/e2_studio/toolchains/gcc_arm/gcc-arm-none-eabi-6-2017-q2-update/arm-none-eabi/include/c++/6.3.1/bits/stl_algo.h **** 	}
 359:/home/zkmike/.local/share/renesas/e2_studio/toolchains/gcc_arm/gcc-arm-none-eabi-6-2017-q2-update/arm-none-eabi/include/c++/6.3.1/bits/stl_algo.h ****     }
 360:/home/zkmike/.local/share/renesas/e2_studio/toolchains/gcc_arm/gcc-arm-none-eabi-6-2017-q2-update/arm-none-eabi/include/c++/6.3.1/bits/stl_algo.h **** 
 361:/home/zkmike/.local/share/renesas/e2_studio/toolchains/gcc_arm/gcc-arm-none-eabi-6-2017-q2-update/arm-none-eabi/include/c++/6.3.1/bits/stl_algo.h ****   // find_end for bidirectional iterators (much faster).
 362:/home/zkmike/.local/share/renesas/e2_studio/toolchains/gcc_arm/gcc-arm-none-eabi-6-2017-q2-update/arm-none-eabi/include/c++/6.3.1/bits/stl_algo.h ****   template<typename _BidirectionalIterator1, typename _BidirectionalIterator2,
 363:/home/zkmike/.local/share/renesas/e2_studio/toolchains/gcc_arm/gcc-arm-none-eabi-6-2017-q2-update/arm-none-eabi/include/c++/6.3.1/bits/stl_algo.h **** 	   typename _BinaryPredicate>
 364:/home/zkmike/.local/share/renesas/e2_studio/toolchains/gcc_arm/gcc-arm-none-eabi-6-2017-q2-update/arm-none-eabi/include/c++/6.3.1/bits/stl_algo.h ****     _BidirectionalIterator1
 365:/home/zkmike/.local/share/renesas/e2_studio/toolchains/gcc_arm/gcc-arm-none-eabi-6-2017-q2-update/arm-none-eabi/include/c++/6.3.1/bits/stl_algo.h ****     __find_end(_BidirectionalIterator1 __first1,
 366:/home/zkmike/.local/share/renesas/e2_studio/toolchains/gcc_arm/gcc-arm-none-eabi-6-2017-q2-update/arm-none-eabi/include/c++/6.3.1/bits/stl_algo.h **** 	       _BidirectionalIterator1 __last1,
 367:/home/zkmike/.local/share/renesas/e2_studio/toolchains/gcc_arm/gcc-arm-none-eabi-6-2017-q2-update/arm-none-eabi/include/c++/6.3.1/bits/stl_algo.h **** 	       _BidirectionalIterator2 __first2,
 368:/home/zkmike/.local/share/renesas/e2_studio/toolchains/gcc_arm/gcc-arm-none-eabi-6-2017-q2-update/arm-none-eabi/include/c++/6.3.1/bits/stl_algo.h **** 	       _BidirectionalIterator2 __last2,
 369:/home/zkmike/.local/share/renesas/e2_studio/toolchains/gcc_arm/gcc-arm-none-eabi-6-2017-q2-update/arm-none-eabi/include/c++/6.3.1/bits/stl_algo.h **** 	       bidirectional_iterator_tag, bidirectional_iterator_tag,
 370:/home/zkmike/.local/share/renesas/e2_studio/toolchains/gcc_arm/gcc-arm-none-eabi-6-2017-q2-update/arm-none-eabi/include/c++/6.3.1/bits/stl_algo.h **** 	       _BinaryPredicate __comp)
 371:/home/zkmike/.local/share/renesas/e2_studio/toolchains/gcc_arm/gcc-arm-none-eabi-6-2017-q2-update/arm-none-eabi/include/c++/6.3.1/bits/stl_algo.h ****     {
 372:/home/zkmike/.local/share/renesas/e2_studio/toolchains/gcc_arm/gcc-arm-none-eabi-6-2017-q2-update/arm-none-eabi/include/c++/6.3.1/bits/stl_algo.h ****       // concept requirements
 373:/home/zkmike/.local/share/renesas/e2_studio/toolchains/gcc_arm/gcc-arm-none-eabi-6-2017-q2-update/arm-none-eabi/include/c++/6.3.1/bits/stl_algo.h ****       __glibcxx_function_requires(_BidirectionalIteratorConcept<
 374:/home/zkmike/.local/share/renesas/e2_studio/toolchains/gcc_arm/gcc-arm-none-eabi-6-2017-q2-update/arm-none-eabi/include/c++/6.3.1/bits/stl_algo.h **** 				  _BidirectionalIterator1>)
 375:/home/zkmike/.local/share/renesas/e2_studio/toolchains/gcc_arm/gcc-arm-none-eabi-6-2017-q2-update/arm-none-eabi/include/c++/6.3.1/bits/stl_algo.h ****       __glibcxx_function_requires(_BidirectionalIteratorConcept<
 376:/home/zkmike/.local/share/renesas/e2_studio/toolchains/gcc_arm/gcc-arm-none-eabi-6-2017-q2-update/arm-none-eabi/include/c++/6.3.1/bits/stl_algo.h **** 				  _BidirectionalIterator2>)
 377:/home/zkmike/.local/share/renesas/e2_studio/toolchains/gcc_arm/gcc-arm-none-eabi-6-2017-q2-update/arm-none-eabi/include/c++/6.3.1/bits/stl_algo.h **** 
 378:/home/zkmike/.local/share/renesas/e2_studio/toolchains/gcc_arm/gcc-arm-none-eabi-6-2017-q2-update/arm-none-eabi/include/c++/6.3.1/bits/stl_algo.h ****       typedef reverse_iterator<_BidirectionalIterator1> _RevIterator1;
 379:/home/zkmike/.local/share/renesas/e2_studio/toolchains/gcc_arm/gcc-arm-none-eabi-6-2017-q2-update/arm-none-eabi/include/c++/6.3.1/bits/stl_algo.h ****       typedef reverse_iterator<_BidirectionalIterator2> _RevIterator2;
 380:/home/zkmike/.local/share/renesas/e2_studio/toolchains/gcc_arm/gcc-arm-none-eabi-6-2017-q2-update/arm-none-eabi/include/c++/6.3.1/bits/stl_algo.h **** 
 381:/home/zkmike/.local/share/renesas/e2_studio/toolchains/gcc_arm/gcc-arm-none-eabi-6-2017-q2-update/arm-none-eabi/include/c++/6.3.1/bits/stl_algo.h ****       _RevIterator1 __rlast1(__first1);
 382:/home/zkmike/.local/share/renesas/e2_studio/toolchains/gcc_arm/gcc-arm-none-eabi-6-2017-q2-update/arm-none-eabi/include/c++/6.3.1/bits/stl_algo.h ****       _RevIterator2 __rlast2(__first2);
 383:/home/zkmike/.local/share/renesas/e2_studio/toolchains/gcc_arm/gcc-arm-none-eabi-6-2017-q2-update/arm-none-eabi/include/c++/6.3.1/bits/stl_algo.h ****       _RevIterator1 __rresult = std::__search(_RevIterator1(__last1), __rlast1,
 384:/home/zkmike/.local/share/renesas/e2_studio/toolchains/gcc_arm/gcc-arm-none-eabi-6-2017-q2-update/arm-none-eabi/include/c++/6.3.1/bits/stl_algo.h **** 					      _RevIterator2(__last2), __rlast2,
 385:/home/zkmike/.local/share/renesas/e2_studio/toolchains/gcc_arm/gcc-arm-none-eabi-6-2017-q2-update/arm-none-eabi/include/c++/6.3.1/bits/stl_algo.h **** 					      __comp);
 386:/home/zkmike/.local/share/renesas/e2_studio/toolchains/gcc_arm/gcc-arm-none-eabi-6-2017-q2-update/arm-none-eabi/include/c++/6.3.1/bits/stl_algo.h **** 
 387:/home/zkmike/.local/share/renesas/e2_studio/toolchains/gcc_arm/gcc-arm-none-eabi-6-2017-q2-update/arm-none-eabi/include/c++/6.3.1/bits/stl_algo.h ****       if (__rresult == __rlast1)
 388:/home/zkmike/.local/share/renesas/e2_studio/toolchains/gcc_arm/gcc-arm-none-eabi-6-2017-q2-update/arm-none-eabi/include/c++/6.3.1/bits/stl_algo.h **** 	return __last1;
 389:/home/zkmike/.local/share/renesas/e2_studio/toolchains/gcc_arm/gcc-arm-none-eabi-6-2017-q2-update/arm-none-eabi/include/c++/6.3.1/bits/stl_algo.h ****       else
 390:/home/zkmike/.local/share/renesas/e2_studio/toolchains/gcc_arm/gcc-arm-none-eabi-6-2017-q2-update/arm-none-eabi/include/c++/6.3.1/bits/stl_algo.h **** 	{
 391:/home/zkmike/.local/share/renesas/e2_studio/toolchains/gcc_arm/gcc-arm-none-eabi-6-2017-q2-update/arm-none-eabi/include/c++/6.3.1/bits/stl_algo.h **** 	  _BidirectionalIterator1 __result = __rresult.base();
 392:/home/zkmike/.local/share/renesas/e2_studio/toolchains/gcc_arm/gcc-arm-none-eabi-6-2017-q2-update/arm-none-eabi/include/c++/6.3.1/bits/stl_algo.h **** 	  std::advance(__result, -std::distance(__first2, __last2));
 393:/home/zkmike/.local/share/renesas/e2_studio/toolchains/gcc_arm/gcc-arm-none-eabi-6-2017-q2-update/arm-none-eabi/include/c++/6.3.1/bits/stl_algo.h **** 	  return __result;
 394:/home/zkmike/.local/share/renesas/e2_studio/toolchains/gcc_arm/gcc-arm-none-eabi-6-2017-q2-update/arm-none-eabi/include/c++/6.3.1/bits/stl_algo.h **** 	}
 395:/home/zkmike/.local/share/renesas/e2_studio/toolchains/gcc_arm/gcc-arm-none-eabi-6-2017-q2-update/arm-none-eabi/include/c++/6.3.1/bits/stl_algo.h ****     }
 396:/home/zkmike/.local/share/renesas/e2_studio/toolchains/gcc_arm/gcc-arm-none-eabi-6-2017-q2-update/arm-none-eabi/include/c++/6.3.1/bits/stl_algo.h **** 
 397:/home/zkmike/.local/share/renesas/e2_studio/toolchains/gcc_arm/gcc-arm-none-eabi-6-2017-q2-update/arm-none-eabi/include/c++/6.3.1/bits/stl_algo.h ****   /**
 398:/home/zkmike/.local/share/renesas/e2_studio/toolchains/gcc_arm/gcc-arm-none-eabi-6-2017-q2-update/arm-none-eabi/include/c++/6.3.1/bits/stl_algo.h ****    *  @brief  Find last matching subsequence in a sequence.
 399:/home/zkmike/.local/share/renesas/e2_studio/toolchains/gcc_arm/gcc-arm-none-eabi-6-2017-q2-update/arm-none-eabi/include/c++/6.3.1/bits/stl_algo.h ****    *  @ingroup non_mutating_algorithms
 400:/home/zkmike/.local/share/renesas/e2_studio/toolchains/gcc_arm/gcc-arm-none-eabi-6-2017-q2-update/arm-none-eabi/include/c++/6.3.1/bits/stl_algo.h ****    *  @param  __first1  Start of range to search.
 401:/home/zkmike/.local/share/renesas/e2_studio/toolchains/gcc_arm/gcc-arm-none-eabi-6-2017-q2-update/arm-none-eabi/include/c++/6.3.1/bits/stl_algo.h ****    *  @param  __last1   End of range to search.
 402:/home/zkmike/.local/share/renesas/e2_studio/toolchains/gcc_arm/gcc-arm-none-eabi-6-2017-q2-update/arm-none-eabi/include/c++/6.3.1/bits/stl_algo.h ****    *  @param  __first2  Start of sequence to match.
 403:/home/zkmike/.local/share/renesas/e2_studio/toolchains/gcc_arm/gcc-arm-none-eabi-6-2017-q2-update/arm-none-eabi/include/c++/6.3.1/bits/stl_algo.h ****    *  @param  __last2   End of sequence to match.
 404:/home/zkmike/.local/share/renesas/e2_studio/toolchains/gcc_arm/gcc-arm-none-eabi-6-2017-q2-update/arm-none-eabi/include/c++/6.3.1/bits/stl_algo.h ****    *  @return   The last iterator @c i in the range
 405:/home/zkmike/.local/share/renesas/e2_studio/toolchains/gcc_arm/gcc-arm-none-eabi-6-2017-q2-update/arm-none-eabi/include/c++/6.3.1/bits/stl_algo.h ****    *  @p [__first1,__last1-(__last2-__first2)) such that @c *(i+N) ==
 406:/home/zkmike/.local/share/renesas/e2_studio/toolchains/gcc_arm/gcc-arm-none-eabi-6-2017-q2-update/arm-none-eabi/include/c++/6.3.1/bits/stl_algo.h ****    *  @p *(__first2+N) for each @c N in the range @p
 407:/home/zkmike/.local/share/renesas/e2_studio/toolchains/gcc_arm/gcc-arm-none-eabi-6-2017-q2-update/arm-none-eabi/include/c++/6.3.1/bits/stl_algo.h ****    *  [0,__last2-__first2), or @p __last1 if no such iterator exists.
 408:/home/zkmike/.local/share/renesas/e2_studio/toolchains/gcc_arm/gcc-arm-none-eabi-6-2017-q2-update/arm-none-eabi/include/c++/6.3.1/bits/stl_algo.h ****    *
 409:/home/zkmike/.local/share/renesas/e2_studio/toolchains/gcc_arm/gcc-arm-none-eabi-6-2017-q2-update/arm-none-eabi/include/c++/6.3.1/bits/stl_algo.h ****    *  Searches the range @p [__first1,__last1) for a sub-sequence that
 410:/home/zkmike/.local/share/renesas/e2_studio/toolchains/gcc_arm/gcc-arm-none-eabi-6-2017-q2-update/arm-none-eabi/include/c++/6.3.1/bits/stl_algo.h ****    *  compares equal value-by-value with the sequence given by @p
 411:/home/zkmike/.local/share/renesas/e2_studio/toolchains/gcc_arm/gcc-arm-none-eabi-6-2017-q2-update/arm-none-eabi/include/c++/6.3.1/bits/stl_algo.h ****    *  [__first2,__last2) and returns an iterator to the __first
 412:/home/zkmike/.local/share/renesas/e2_studio/toolchains/gcc_arm/gcc-arm-none-eabi-6-2017-q2-update/arm-none-eabi/include/c++/6.3.1/bits/stl_algo.h ****    *  element of the sub-sequence, or @p __last1 if the sub-sequence
 413:/home/zkmike/.local/share/renesas/e2_studio/toolchains/gcc_arm/gcc-arm-none-eabi-6-2017-q2-update/arm-none-eabi/include/c++/6.3.1/bits/stl_algo.h ****    *  is not found.  The sub-sequence will be the last such
 414:/home/zkmike/.local/share/renesas/e2_studio/toolchains/gcc_arm/gcc-arm-none-eabi-6-2017-q2-update/arm-none-eabi/include/c++/6.3.1/bits/stl_algo.h ****    *  subsequence contained in [__first1,__last1).
 415:/home/zkmike/.local/share/renesas/e2_studio/toolchains/gcc_arm/gcc-arm-none-eabi-6-2017-q2-update/arm-none-eabi/include/c++/6.3.1/bits/stl_algo.h ****    *
 416:/home/zkmike/.local/share/renesas/e2_studio/toolchains/gcc_arm/gcc-arm-none-eabi-6-2017-q2-update/arm-none-eabi/include/c++/6.3.1/bits/stl_algo.h ****    *  Because the sub-sequence must lie completely within the range @p
 417:/home/zkmike/.local/share/renesas/e2_studio/toolchains/gcc_arm/gcc-arm-none-eabi-6-2017-q2-update/arm-none-eabi/include/c++/6.3.1/bits/stl_algo.h ****    *  [__first1,__last1) it must start at a position less than @p
 418:/home/zkmike/.local/share/renesas/e2_studio/toolchains/gcc_arm/gcc-arm-none-eabi-6-2017-q2-update/arm-none-eabi/include/c++/6.3.1/bits/stl_algo.h ****    *  __last1-(__last2-__first2) where @p __last2-__first2 is the
 419:/home/zkmike/.local/share/renesas/e2_studio/toolchains/gcc_arm/gcc-arm-none-eabi-6-2017-q2-update/arm-none-eabi/include/c++/6.3.1/bits/stl_algo.h ****    *  length of the sub-sequence.  This means that the returned
 420:/home/zkmike/.local/share/renesas/e2_studio/toolchains/gcc_arm/gcc-arm-none-eabi-6-2017-q2-update/arm-none-eabi/include/c++/6.3.1/bits/stl_algo.h ****    *  iterator @c i will be in the range @p
 421:/home/zkmike/.local/share/renesas/e2_studio/toolchains/gcc_arm/gcc-arm-none-eabi-6-2017-q2-update/arm-none-eabi/include/c++/6.3.1/bits/stl_algo.h ****    *  [__first1,__last1-(__last2-__first2))
 422:/home/zkmike/.local/share/renesas/e2_studio/toolchains/gcc_arm/gcc-arm-none-eabi-6-2017-q2-update/arm-none-eabi/include/c++/6.3.1/bits/stl_algo.h ****   */
 423:/home/zkmike/.local/share/renesas/e2_studio/toolchains/gcc_arm/gcc-arm-none-eabi-6-2017-q2-update/arm-none-eabi/include/c++/6.3.1/bits/stl_algo.h ****   template<typename _ForwardIterator1, typename _ForwardIterator2>
 424:/home/zkmike/.local/share/renesas/e2_studio/toolchains/gcc_arm/gcc-arm-none-eabi-6-2017-q2-update/arm-none-eabi/include/c++/6.3.1/bits/stl_algo.h ****     inline _ForwardIterator1
 425:/home/zkmike/.local/share/renesas/e2_studio/toolchains/gcc_arm/gcc-arm-none-eabi-6-2017-q2-update/arm-none-eabi/include/c++/6.3.1/bits/stl_algo.h ****     find_end(_ForwardIterator1 __first1, _ForwardIterator1 __last1,
 426:/home/zkmike/.local/share/renesas/e2_studio/toolchains/gcc_arm/gcc-arm-none-eabi-6-2017-q2-update/arm-none-eabi/include/c++/6.3.1/bits/stl_algo.h **** 	     _ForwardIterator2 __first2, _ForwardIterator2 __last2)
 427:/home/zkmike/.local/share/renesas/e2_studio/toolchains/gcc_arm/gcc-arm-none-eabi-6-2017-q2-update/arm-none-eabi/include/c++/6.3.1/bits/stl_algo.h ****     {
 428:/home/zkmike/.local/share/renesas/e2_studio/toolchains/gcc_arm/gcc-arm-none-eabi-6-2017-q2-update/arm-none-eabi/include/c++/6.3.1/bits/stl_algo.h ****       // concept requirements
 429:/home/zkmike/.local/share/renesas/e2_studio/toolchains/gcc_arm/gcc-arm-none-eabi-6-2017-q2-update/arm-none-eabi/include/c++/6.3.1/bits/stl_algo.h ****       __glibcxx_function_requires(_ForwardIteratorConcept<_ForwardIterator1>)
 430:/home/zkmike/.local/share/renesas/e2_studio/toolchains/gcc_arm/gcc-arm-none-eabi-6-2017-q2-update/arm-none-eabi/include/c++/6.3.1/bits/stl_algo.h ****       __glibcxx_function_requires(_ForwardIteratorConcept<_ForwardIterator2>)
 431:/home/zkmike/.local/share/renesas/e2_studio/toolchains/gcc_arm/gcc-arm-none-eabi-6-2017-q2-update/arm-none-eabi/include/c++/6.3.1/bits/stl_algo.h ****       __glibcxx_function_requires(_EqualOpConcept<
 432:/home/zkmike/.local/share/renesas/e2_studio/toolchains/gcc_arm/gcc-arm-none-eabi-6-2017-q2-update/arm-none-eabi/include/c++/6.3.1/bits/stl_algo.h **** 	    typename iterator_traits<_ForwardIterator1>::value_type,
 433:/home/zkmike/.local/share/renesas/e2_studio/toolchains/gcc_arm/gcc-arm-none-eabi-6-2017-q2-update/arm-none-eabi/include/c++/6.3.1/bits/stl_algo.h **** 	    typename iterator_traits<_ForwardIterator2>::value_type>)
 434:/home/zkmike/.local/share/renesas/e2_studio/toolchains/gcc_arm/gcc-arm-none-eabi-6-2017-q2-update/arm-none-eabi/include/c++/6.3.1/bits/stl_algo.h ****       __glibcxx_requires_valid_range(__first1, __last1);
 435:/home/zkmike/.local/share/renesas/e2_studio/toolchains/gcc_arm/gcc-arm-none-eabi-6-2017-q2-update/arm-none-eabi/include/c++/6.3.1/bits/stl_algo.h ****       __glibcxx_requires_valid_range(__first2, __last2);
 436:/home/zkmike/.local/share/renesas/e2_studio/toolchains/gcc_arm/gcc-arm-none-eabi-6-2017-q2-update/arm-none-eabi/include/c++/6.3.1/bits/stl_algo.h **** 
 437:/home/zkmike/.local/share/renesas/e2_studio/toolchains/gcc_arm/gcc-arm-none-eabi-6-2017-q2-update/arm-none-eabi/include/c++/6.3.1/bits/stl_algo.h ****       return std::__find_end(__first1, __last1, __first2, __last2,
 438:/home/zkmike/.local/share/renesas/e2_studio/toolchains/gcc_arm/gcc-arm-none-eabi-6-2017-q2-update/arm-none-eabi/include/c++/6.3.1/bits/stl_algo.h **** 			     std::__iterator_category(__first1),
 439:/home/zkmike/.local/share/renesas/e2_studio/toolchains/gcc_arm/gcc-arm-none-eabi-6-2017-q2-update/arm-none-eabi/include/c++/6.3.1/bits/stl_algo.h **** 			     std::__iterator_category(__first2),
 440:/home/zkmike/.local/share/renesas/e2_studio/toolchains/gcc_arm/gcc-arm-none-eabi-6-2017-q2-update/arm-none-eabi/include/c++/6.3.1/bits/stl_algo.h **** 			     __gnu_cxx::__ops::__iter_equal_to_iter());
 441:/home/zkmike/.local/share/renesas/e2_studio/toolchains/gcc_arm/gcc-arm-none-eabi-6-2017-q2-update/arm-none-eabi/include/c++/6.3.1/bits/stl_algo.h ****     }
 442:/home/zkmike/.local/share/renesas/e2_studio/toolchains/gcc_arm/gcc-arm-none-eabi-6-2017-q2-update/arm-none-eabi/include/c++/6.3.1/bits/stl_algo.h **** 
 443:/home/zkmike/.local/share/renesas/e2_studio/toolchains/gcc_arm/gcc-arm-none-eabi-6-2017-q2-update/arm-none-eabi/include/c++/6.3.1/bits/stl_algo.h ****   /**
 444:/home/zkmike/.local/share/renesas/e2_studio/toolchains/gcc_arm/gcc-arm-none-eabi-6-2017-q2-update/arm-none-eabi/include/c++/6.3.1/bits/stl_algo.h ****    *  @brief  Find last matching subsequence in a sequence using a predicate.
 445:/home/zkmike/.local/share/renesas/e2_studio/toolchains/gcc_arm/gcc-arm-none-eabi-6-2017-q2-update/arm-none-eabi/include/c++/6.3.1/bits/stl_algo.h ****    *  @ingroup non_mutating_algorithms
 446:/home/zkmike/.local/share/renesas/e2_studio/toolchains/gcc_arm/gcc-arm-none-eabi-6-2017-q2-update/arm-none-eabi/include/c++/6.3.1/bits/stl_algo.h ****    *  @param  __first1  Start of range to search.
 447:/home/zkmike/.local/share/renesas/e2_studio/toolchains/gcc_arm/gcc-arm-none-eabi-6-2017-q2-update/arm-none-eabi/include/c++/6.3.1/bits/stl_algo.h ****    *  @param  __last1   End of range to search.
 448:/home/zkmike/.local/share/renesas/e2_studio/toolchains/gcc_arm/gcc-arm-none-eabi-6-2017-q2-update/arm-none-eabi/include/c++/6.3.1/bits/stl_algo.h ****    *  @param  __first2  Start of sequence to match.
 449:/home/zkmike/.local/share/renesas/e2_studio/toolchains/gcc_arm/gcc-arm-none-eabi-6-2017-q2-update/arm-none-eabi/include/c++/6.3.1/bits/stl_algo.h ****    *  @param  __last2   End of sequence to match.
 450:/home/zkmike/.local/share/renesas/e2_studio/toolchains/gcc_arm/gcc-arm-none-eabi-6-2017-q2-update/arm-none-eabi/include/c++/6.3.1/bits/stl_algo.h ****    *  @param  __comp    The predicate to use.
 451:/home/zkmike/.local/share/renesas/e2_studio/toolchains/gcc_arm/gcc-arm-none-eabi-6-2017-q2-update/arm-none-eabi/include/c++/6.3.1/bits/stl_algo.h ****    *  @return The last iterator @c i in the range @p
 452:/home/zkmike/.local/share/renesas/e2_studio/toolchains/gcc_arm/gcc-arm-none-eabi-6-2017-q2-update/arm-none-eabi/include/c++/6.3.1/bits/stl_algo.h ****    *  [__first1,__last1-(__last2-__first2)) such that @c
 453:/home/zkmike/.local/share/renesas/e2_studio/toolchains/gcc_arm/gcc-arm-none-eabi-6-2017-q2-update/arm-none-eabi/include/c++/6.3.1/bits/stl_algo.h ****    *  predicate(*(i+N), @p (__first2+N)) is true for each @c N in the
 454:/home/zkmike/.local/share/renesas/e2_studio/toolchains/gcc_arm/gcc-arm-none-eabi-6-2017-q2-update/arm-none-eabi/include/c++/6.3.1/bits/stl_algo.h ****    *  range @p [0,__last2-__first2), or @p __last1 if no such iterator
 455:/home/zkmike/.local/share/renesas/e2_studio/toolchains/gcc_arm/gcc-arm-none-eabi-6-2017-q2-update/arm-none-eabi/include/c++/6.3.1/bits/stl_algo.h ****    *  exists.
 456:/home/zkmike/.local/share/renesas/e2_studio/toolchains/gcc_arm/gcc-arm-none-eabi-6-2017-q2-update/arm-none-eabi/include/c++/6.3.1/bits/stl_algo.h ****    *
 457:/home/zkmike/.local/share/renesas/e2_studio/toolchains/gcc_arm/gcc-arm-none-eabi-6-2017-q2-update/arm-none-eabi/include/c++/6.3.1/bits/stl_algo.h ****    *  Searches the range @p [__first1,__last1) for a sub-sequence that
 458:/home/zkmike/.local/share/renesas/e2_studio/toolchains/gcc_arm/gcc-arm-none-eabi-6-2017-q2-update/arm-none-eabi/include/c++/6.3.1/bits/stl_algo.h ****    *  compares equal value-by-value with the sequence given by @p
 459:/home/zkmike/.local/share/renesas/e2_studio/toolchains/gcc_arm/gcc-arm-none-eabi-6-2017-q2-update/arm-none-eabi/include/c++/6.3.1/bits/stl_algo.h ****    *  [__first2,__last2) using comp as a predicate and returns an
 460:/home/zkmike/.local/share/renesas/e2_studio/toolchains/gcc_arm/gcc-arm-none-eabi-6-2017-q2-update/arm-none-eabi/include/c++/6.3.1/bits/stl_algo.h ****    *  iterator to the first element of the sub-sequence, or @p __last1
 461:/home/zkmike/.local/share/renesas/e2_studio/toolchains/gcc_arm/gcc-arm-none-eabi-6-2017-q2-update/arm-none-eabi/include/c++/6.3.1/bits/stl_algo.h ****    *  if the sub-sequence is not found.  The sub-sequence will be the
 462:/home/zkmike/.local/share/renesas/e2_studio/toolchains/gcc_arm/gcc-arm-none-eabi-6-2017-q2-update/arm-none-eabi/include/c++/6.3.1/bits/stl_algo.h ****    *  last such subsequence contained in [__first,__last1).
 463:/home/zkmike/.local/share/renesas/e2_studio/toolchains/gcc_arm/gcc-arm-none-eabi-6-2017-q2-update/arm-none-eabi/include/c++/6.3.1/bits/stl_algo.h ****    *
 464:/home/zkmike/.local/share/renesas/e2_studio/toolchains/gcc_arm/gcc-arm-none-eabi-6-2017-q2-update/arm-none-eabi/include/c++/6.3.1/bits/stl_algo.h ****    *  Because the sub-sequence must lie completely within the range @p
 465:/home/zkmike/.local/share/renesas/e2_studio/toolchains/gcc_arm/gcc-arm-none-eabi-6-2017-q2-update/arm-none-eabi/include/c++/6.3.1/bits/stl_algo.h ****    *  [__first1,__last1) it must start at a position less than @p
 466:/home/zkmike/.local/share/renesas/e2_studio/toolchains/gcc_arm/gcc-arm-none-eabi-6-2017-q2-update/arm-none-eabi/include/c++/6.3.1/bits/stl_algo.h ****    *  __last1-(__last2-__first2) where @p __last2-__first2 is the
 467:/home/zkmike/.local/share/renesas/e2_studio/toolchains/gcc_arm/gcc-arm-none-eabi-6-2017-q2-update/arm-none-eabi/include/c++/6.3.1/bits/stl_algo.h ****    *  length of the sub-sequence.  This means that the returned
 468:/home/zkmike/.local/share/renesas/e2_studio/toolchains/gcc_arm/gcc-arm-none-eabi-6-2017-q2-update/arm-none-eabi/include/c++/6.3.1/bits/stl_algo.h ****    *  iterator @c i will be in the range @p
 469:/home/zkmike/.local/share/renesas/e2_studio/toolchains/gcc_arm/gcc-arm-none-eabi-6-2017-q2-update/arm-none-eabi/include/c++/6.3.1/bits/stl_algo.h ****    *  [__first1,__last1-(__last2-__first2))
 470:/home/zkmike/.local/share/renesas/e2_studio/toolchains/gcc_arm/gcc-arm-none-eabi-6-2017-q2-update/arm-none-eabi/include/c++/6.3.1/bits/stl_algo.h ****   */
 471:/home/zkmike/.local/share/renesas/e2_studio/toolchains/gcc_arm/gcc-arm-none-eabi-6-2017-q2-update/arm-none-eabi/include/c++/6.3.1/bits/stl_algo.h ****   template<typename _ForwardIterator1, typename _ForwardIterator2,
 472:/home/zkmike/.local/share/renesas/e2_studio/toolchains/gcc_arm/gcc-arm-none-eabi-6-2017-q2-update/arm-none-eabi/include/c++/6.3.1/bits/stl_algo.h **** 	   typename _BinaryPredicate>
 473:/home/zkmike/.local/share/renesas/e2_studio/toolchains/gcc_arm/gcc-arm-none-eabi-6-2017-q2-update/arm-none-eabi/include/c++/6.3.1/bits/stl_algo.h ****     inline _ForwardIterator1
 474:/home/zkmike/.local/share/renesas/e2_studio/toolchains/gcc_arm/gcc-arm-none-eabi-6-2017-q2-update/arm-none-eabi/include/c++/6.3.1/bits/stl_algo.h ****     find_end(_ForwardIterator1 __first1, _ForwardIterator1 __last1,
 475:/home/zkmike/.local/share/renesas/e2_studio/toolchains/gcc_arm/gcc-arm-none-eabi-6-2017-q2-update/arm-none-eabi/include/c++/6.3.1/bits/stl_algo.h **** 	     _ForwardIterator2 __first2, _ForwardIterator2 __last2,
 476:/home/zkmike/.local/share/renesas/e2_studio/toolchains/gcc_arm/gcc-arm-none-eabi-6-2017-q2-update/arm-none-eabi/include/c++/6.3.1/bits/stl_algo.h **** 	     _BinaryPredicate __comp)
 477:/home/zkmike/.local/share/renesas/e2_studio/toolchains/gcc_arm/gcc-arm-none-eabi-6-2017-q2-update/arm-none-eabi/include/c++/6.3.1/bits/stl_algo.h ****     {
 478:/home/zkmike/.local/share/renesas/e2_studio/toolchains/gcc_arm/gcc-arm-none-eabi-6-2017-q2-update/arm-none-eabi/include/c++/6.3.1/bits/stl_algo.h ****       // concept requirements
 479:/home/zkmike/.local/share/renesas/e2_studio/toolchains/gcc_arm/gcc-arm-none-eabi-6-2017-q2-update/arm-none-eabi/include/c++/6.3.1/bits/stl_algo.h ****       __glibcxx_function_requires(_ForwardIteratorConcept<_ForwardIterator1>)
 480:/home/zkmike/.local/share/renesas/e2_studio/toolchains/gcc_arm/gcc-arm-none-eabi-6-2017-q2-update/arm-none-eabi/include/c++/6.3.1/bits/stl_algo.h ****       __glibcxx_function_requires(_ForwardIteratorConcept<_ForwardIterator2>)
 481:/home/zkmike/.local/share/renesas/e2_studio/toolchains/gcc_arm/gcc-arm-none-eabi-6-2017-q2-update/arm-none-eabi/include/c++/6.3.1/bits/stl_algo.h ****       __glibcxx_function_requires(_BinaryPredicateConcept<_BinaryPredicate,
 482:/home/zkmike/.local/share/renesas/e2_studio/toolchains/gcc_arm/gcc-arm-none-eabi-6-2017-q2-update/arm-none-eabi/include/c++/6.3.1/bits/stl_algo.h **** 	    typename iterator_traits<_ForwardIterator1>::value_type,
 483:/home/zkmike/.local/share/renesas/e2_studio/toolchains/gcc_arm/gcc-arm-none-eabi-6-2017-q2-update/arm-none-eabi/include/c++/6.3.1/bits/stl_algo.h **** 	    typename iterator_traits<_ForwardIterator2>::value_type>)
 484:/home/zkmike/.local/share/renesas/e2_studio/toolchains/gcc_arm/gcc-arm-none-eabi-6-2017-q2-update/arm-none-eabi/include/c++/6.3.1/bits/stl_algo.h ****       __glibcxx_requires_valid_range(__first1, __last1);
 485:/home/zkmike/.local/share/renesas/e2_studio/toolchains/gcc_arm/gcc-arm-none-eabi-6-2017-q2-update/arm-none-eabi/include/c++/6.3.1/bits/stl_algo.h ****       __glibcxx_requires_valid_range(__first2, __last2);
 486:/home/zkmike/.local/share/renesas/e2_studio/toolchains/gcc_arm/gcc-arm-none-eabi-6-2017-q2-update/arm-none-eabi/include/c++/6.3.1/bits/stl_algo.h **** 
 487:/home/zkmike/.local/share/renesas/e2_studio/toolchains/gcc_arm/gcc-arm-none-eabi-6-2017-q2-update/arm-none-eabi/include/c++/6.3.1/bits/stl_algo.h ****       return std::__find_end(__first1, __last1, __first2, __last2,
 488:/home/zkmike/.local/share/renesas/e2_studio/toolchains/gcc_arm/gcc-arm-none-eabi-6-2017-q2-update/arm-none-eabi/include/c++/6.3.1/bits/stl_algo.h **** 			     std::__iterator_category(__first1),
 489:/home/zkmike/.local/share/renesas/e2_studio/toolchains/gcc_arm/gcc-arm-none-eabi-6-2017-q2-update/arm-none-eabi/include/c++/6.3.1/bits/stl_algo.h **** 			     std::__iterator_category(__first2),
 490:/home/zkmike/.local/share/renesas/e2_studio/toolchains/gcc_arm/gcc-arm-none-eabi-6-2017-q2-update/arm-none-eabi/include/c++/6.3.1/bits/stl_algo.h **** 			     __gnu_cxx::__ops::__iter_comp_iter(__comp));
 491:/home/zkmike/.local/share/renesas/e2_studio/toolchains/gcc_arm/gcc-arm-none-eabi-6-2017-q2-update/arm-none-eabi/include/c++/6.3.1/bits/stl_algo.h ****     }
 492:/home/zkmike/.local/share/renesas/e2_studio/toolchains/gcc_arm/gcc-arm-none-eabi-6-2017-q2-update/arm-none-eabi/include/c++/6.3.1/bits/stl_algo.h **** 
 493:/home/zkmike/.local/share/renesas/e2_studio/toolchains/gcc_arm/gcc-arm-none-eabi-6-2017-q2-update/arm-none-eabi/include/c++/6.3.1/bits/stl_algo.h **** #if __cplusplus >= 201103L
 494:/home/zkmike/.local/share/renesas/e2_studio/toolchains/gcc_arm/gcc-arm-none-eabi-6-2017-q2-update/arm-none-eabi/include/c++/6.3.1/bits/stl_algo.h ****   /**
 495:/home/zkmike/.local/share/renesas/e2_studio/toolchains/gcc_arm/gcc-arm-none-eabi-6-2017-q2-update/arm-none-eabi/include/c++/6.3.1/bits/stl_algo.h ****    *  @brief  Checks that a predicate is true for all the elements
 496:/home/zkmike/.local/share/renesas/e2_studio/toolchains/gcc_arm/gcc-arm-none-eabi-6-2017-q2-update/arm-none-eabi/include/c++/6.3.1/bits/stl_algo.h ****    *          of a sequence.
 497:/home/zkmike/.local/share/renesas/e2_studio/toolchains/gcc_arm/gcc-arm-none-eabi-6-2017-q2-update/arm-none-eabi/include/c++/6.3.1/bits/stl_algo.h ****    *  @ingroup non_mutating_algorithms
 498:/home/zkmike/.local/share/renesas/e2_studio/toolchains/gcc_arm/gcc-arm-none-eabi-6-2017-q2-update/arm-none-eabi/include/c++/6.3.1/bits/stl_algo.h ****    *  @param  __first   An input iterator.
 499:/home/zkmike/.local/share/renesas/e2_studio/toolchains/gcc_arm/gcc-arm-none-eabi-6-2017-q2-update/arm-none-eabi/include/c++/6.3.1/bits/stl_algo.h ****    *  @param  __last    An input iterator.
 500:/home/zkmike/.local/share/renesas/e2_studio/toolchains/gcc_arm/gcc-arm-none-eabi-6-2017-q2-update/arm-none-eabi/include/c++/6.3.1/bits/stl_algo.h ****    *  @param  __pred    A predicate.
 501:/home/zkmike/.local/share/renesas/e2_studio/toolchains/gcc_arm/gcc-arm-none-eabi-6-2017-q2-update/arm-none-eabi/include/c++/6.3.1/bits/stl_algo.h ****    *  @return  True if the check is true, false otherwise.
 502:/home/zkmike/.local/share/renesas/e2_studio/toolchains/gcc_arm/gcc-arm-none-eabi-6-2017-q2-update/arm-none-eabi/include/c++/6.3.1/bits/stl_algo.h ****    *
 503:/home/zkmike/.local/share/renesas/e2_studio/toolchains/gcc_arm/gcc-arm-none-eabi-6-2017-q2-update/arm-none-eabi/include/c++/6.3.1/bits/stl_algo.h ****    *  Returns true if @p __pred is true for each element in the range
 504:/home/zkmike/.local/share/renesas/e2_studio/toolchains/gcc_arm/gcc-arm-none-eabi-6-2017-q2-update/arm-none-eabi/include/c++/6.3.1/bits/stl_algo.h ****    *  @p [__first,__last), and false otherwise.
 505:/home/zkmike/.local/share/renesas/e2_studio/toolchains/gcc_arm/gcc-arm-none-eabi-6-2017-q2-update/arm-none-eabi/include/c++/6.3.1/bits/stl_algo.h ****   */
 506:/home/zkmike/.local/share/renesas/e2_studio/toolchains/gcc_arm/gcc-arm-none-eabi-6-2017-q2-update/arm-none-eabi/include/c++/6.3.1/bits/stl_algo.h ****   template<typename _InputIterator, typename _Predicate>
 507:/home/zkmike/.local/share/renesas/e2_studio/toolchains/gcc_arm/gcc-arm-none-eabi-6-2017-q2-update/arm-none-eabi/include/c++/6.3.1/bits/stl_algo.h ****     inline bool
 508:/home/zkmike/.local/share/renesas/e2_studio/toolchains/gcc_arm/gcc-arm-none-eabi-6-2017-q2-update/arm-none-eabi/include/c++/6.3.1/bits/stl_algo.h ****     all_of(_InputIterator __first, _InputIterator __last, _Predicate __pred)
 509:/home/zkmike/.local/share/renesas/e2_studio/toolchains/gcc_arm/gcc-arm-none-eabi-6-2017-q2-update/arm-none-eabi/include/c++/6.3.1/bits/stl_algo.h ****     { return __last == std::find_if_not(__first, __last, __pred); }
 510:/home/zkmike/.local/share/renesas/e2_studio/toolchains/gcc_arm/gcc-arm-none-eabi-6-2017-q2-update/arm-none-eabi/include/c++/6.3.1/bits/stl_algo.h **** 
 511:/home/zkmike/.local/share/renesas/e2_studio/toolchains/gcc_arm/gcc-arm-none-eabi-6-2017-q2-update/arm-none-eabi/include/c++/6.3.1/bits/stl_algo.h ****   /**
 512:/home/zkmike/.local/share/renesas/e2_studio/toolchains/gcc_arm/gcc-arm-none-eabi-6-2017-q2-update/arm-none-eabi/include/c++/6.3.1/bits/stl_algo.h ****    *  @brief  Checks that a predicate is false for all the elements
 513:/home/zkmike/.local/share/renesas/e2_studio/toolchains/gcc_arm/gcc-arm-none-eabi-6-2017-q2-update/arm-none-eabi/include/c++/6.3.1/bits/stl_algo.h ****    *          of a sequence.
 514:/home/zkmike/.local/share/renesas/e2_studio/toolchains/gcc_arm/gcc-arm-none-eabi-6-2017-q2-update/arm-none-eabi/include/c++/6.3.1/bits/stl_algo.h ****    *  @ingroup non_mutating_algorithms
 515:/home/zkmike/.local/share/renesas/e2_studio/toolchains/gcc_arm/gcc-arm-none-eabi-6-2017-q2-update/arm-none-eabi/include/c++/6.3.1/bits/stl_algo.h ****    *  @param  __first   An input iterator.
 516:/home/zkmike/.local/share/renesas/e2_studio/toolchains/gcc_arm/gcc-arm-none-eabi-6-2017-q2-update/arm-none-eabi/include/c++/6.3.1/bits/stl_algo.h ****    *  @param  __last    An input iterator.
 517:/home/zkmike/.local/share/renesas/e2_studio/toolchains/gcc_arm/gcc-arm-none-eabi-6-2017-q2-update/arm-none-eabi/include/c++/6.3.1/bits/stl_algo.h ****    *  @param  __pred    A predicate.
 518:/home/zkmike/.local/share/renesas/e2_studio/toolchains/gcc_arm/gcc-arm-none-eabi-6-2017-q2-update/arm-none-eabi/include/c++/6.3.1/bits/stl_algo.h ****    *  @return  True if the check is true, false otherwise.
 519:/home/zkmike/.local/share/renesas/e2_studio/toolchains/gcc_arm/gcc-arm-none-eabi-6-2017-q2-update/arm-none-eabi/include/c++/6.3.1/bits/stl_algo.h ****    *
 520:/home/zkmike/.local/share/renesas/e2_studio/toolchains/gcc_arm/gcc-arm-none-eabi-6-2017-q2-update/arm-none-eabi/include/c++/6.3.1/bits/stl_algo.h ****    *  Returns true if @p __pred is false for each element in the range
 521:/home/zkmike/.local/share/renesas/e2_studio/toolchains/gcc_arm/gcc-arm-none-eabi-6-2017-q2-update/arm-none-eabi/include/c++/6.3.1/bits/stl_algo.h ****    *  @p [__first,__last), and false otherwise.
 522:/home/zkmike/.local/share/renesas/e2_studio/toolchains/gcc_arm/gcc-arm-none-eabi-6-2017-q2-update/arm-none-eabi/include/c++/6.3.1/bits/stl_algo.h ****   */
 523:/home/zkmike/.local/share/renesas/e2_studio/toolchains/gcc_arm/gcc-arm-none-eabi-6-2017-q2-update/arm-none-eabi/include/c++/6.3.1/bits/stl_algo.h ****   template<typename _InputIterator, typename _Predicate>
 524:/home/zkmike/.local/share/renesas/e2_studio/toolchains/gcc_arm/gcc-arm-none-eabi-6-2017-q2-update/arm-none-eabi/include/c++/6.3.1/bits/stl_algo.h ****     inline bool
 525:/home/zkmike/.local/share/renesas/e2_studio/toolchains/gcc_arm/gcc-arm-none-eabi-6-2017-q2-update/arm-none-eabi/include/c++/6.3.1/bits/stl_algo.h ****     none_of(_InputIterator __first, _InputIterator __last, _Predicate __pred)
 526:/home/zkmike/.local/share/renesas/e2_studio/toolchains/gcc_arm/gcc-arm-none-eabi-6-2017-q2-update/arm-none-eabi/include/c++/6.3.1/bits/stl_algo.h ****     { return __last == _GLIBCXX_STD_A::find_if(__first, __last, __pred); }
 527:/home/zkmike/.local/share/renesas/e2_studio/toolchains/gcc_arm/gcc-arm-none-eabi-6-2017-q2-update/arm-none-eabi/include/c++/6.3.1/bits/stl_algo.h **** 
 528:/home/zkmike/.local/share/renesas/e2_studio/toolchains/gcc_arm/gcc-arm-none-eabi-6-2017-q2-update/arm-none-eabi/include/c++/6.3.1/bits/stl_algo.h ****   /**
 529:/home/zkmike/.local/share/renesas/e2_studio/toolchains/gcc_arm/gcc-arm-none-eabi-6-2017-q2-update/arm-none-eabi/include/c++/6.3.1/bits/stl_algo.h ****    *  @brief  Checks that a predicate is false for at least an element
 530:/home/zkmike/.local/share/renesas/e2_studio/toolchains/gcc_arm/gcc-arm-none-eabi-6-2017-q2-update/arm-none-eabi/include/c++/6.3.1/bits/stl_algo.h ****    *          of a sequence.
 531:/home/zkmike/.local/share/renesas/e2_studio/toolchains/gcc_arm/gcc-arm-none-eabi-6-2017-q2-update/arm-none-eabi/include/c++/6.3.1/bits/stl_algo.h ****    *  @ingroup non_mutating_algorithms
 532:/home/zkmike/.local/share/renesas/e2_studio/toolchains/gcc_arm/gcc-arm-none-eabi-6-2017-q2-update/arm-none-eabi/include/c++/6.3.1/bits/stl_algo.h ****    *  @param  __first   An input iterator.
 533:/home/zkmike/.local/share/renesas/e2_studio/toolchains/gcc_arm/gcc-arm-none-eabi-6-2017-q2-update/arm-none-eabi/include/c++/6.3.1/bits/stl_algo.h ****    *  @param  __last    An input iterator.
 534:/home/zkmike/.local/share/renesas/e2_studio/toolchains/gcc_arm/gcc-arm-none-eabi-6-2017-q2-update/arm-none-eabi/include/c++/6.3.1/bits/stl_algo.h ****    *  @param  __pred    A predicate.
 535:/home/zkmike/.local/share/renesas/e2_studio/toolchains/gcc_arm/gcc-arm-none-eabi-6-2017-q2-update/arm-none-eabi/include/c++/6.3.1/bits/stl_algo.h ****    *  @return  True if the check is true, false otherwise.
 536:/home/zkmike/.local/share/renesas/e2_studio/toolchains/gcc_arm/gcc-arm-none-eabi-6-2017-q2-update/arm-none-eabi/include/c++/6.3.1/bits/stl_algo.h ****    *
 537:/home/zkmike/.local/share/renesas/e2_studio/toolchains/gcc_arm/gcc-arm-none-eabi-6-2017-q2-update/arm-none-eabi/include/c++/6.3.1/bits/stl_algo.h ****    *  Returns true if an element exists in the range @p
 538:/home/zkmike/.local/share/renesas/e2_studio/toolchains/gcc_arm/gcc-arm-none-eabi-6-2017-q2-update/arm-none-eabi/include/c++/6.3.1/bits/stl_algo.h ****    *  [__first,__last) such that @p __pred is true, and false
 539:/home/zkmike/.local/share/renesas/e2_studio/toolchains/gcc_arm/gcc-arm-none-eabi-6-2017-q2-update/arm-none-eabi/include/c++/6.3.1/bits/stl_algo.h ****    *  otherwise.
 540:/home/zkmike/.local/share/renesas/e2_studio/toolchains/gcc_arm/gcc-arm-none-eabi-6-2017-q2-update/arm-none-eabi/include/c++/6.3.1/bits/stl_algo.h ****   */
 541:/home/zkmike/.local/share/renesas/e2_studio/toolchains/gcc_arm/gcc-arm-none-eabi-6-2017-q2-update/arm-none-eabi/include/c++/6.3.1/bits/stl_algo.h ****   template<typename _InputIterator, typename _Predicate>
 542:/home/zkmike/.local/share/renesas/e2_studio/toolchains/gcc_arm/gcc-arm-none-eabi-6-2017-q2-update/arm-none-eabi/include/c++/6.3.1/bits/stl_algo.h ****     inline bool
 543:/home/zkmike/.local/share/renesas/e2_studio/toolchains/gcc_arm/gcc-arm-none-eabi-6-2017-q2-update/arm-none-eabi/include/c++/6.3.1/bits/stl_algo.h ****     any_of(_InputIterator __first, _InputIterator __last, _Predicate __pred)
 544:/home/zkmike/.local/share/renesas/e2_studio/toolchains/gcc_arm/gcc-arm-none-eabi-6-2017-q2-update/arm-none-eabi/include/c++/6.3.1/bits/stl_algo.h ****     { return !std::none_of(__first, __last, __pred); }
 545:/home/zkmike/.local/share/renesas/e2_studio/toolchains/gcc_arm/gcc-arm-none-eabi-6-2017-q2-update/arm-none-eabi/include/c++/6.3.1/bits/stl_algo.h **** 
 546:/home/zkmike/.local/share/renesas/e2_studio/toolchains/gcc_arm/gcc-arm-none-eabi-6-2017-q2-update/arm-none-eabi/include/c++/6.3.1/bits/stl_algo.h ****   /**
 547:/home/zkmike/.local/share/renesas/e2_studio/toolchains/gcc_arm/gcc-arm-none-eabi-6-2017-q2-update/arm-none-eabi/include/c++/6.3.1/bits/stl_algo.h ****    *  @brief  Find the first element in a sequence for which a
 548:/home/zkmike/.local/share/renesas/e2_studio/toolchains/gcc_arm/gcc-arm-none-eabi-6-2017-q2-update/arm-none-eabi/include/c++/6.3.1/bits/stl_algo.h ****    *          predicate is false.
 549:/home/zkmike/.local/share/renesas/e2_studio/toolchains/gcc_arm/gcc-arm-none-eabi-6-2017-q2-update/arm-none-eabi/include/c++/6.3.1/bits/stl_algo.h ****    *  @ingroup non_mutating_algorithms
 550:/home/zkmike/.local/share/renesas/e2_studio/toolchains/gcc_arm/gcc-arm-none-eabi-6-2017-q2-update/arm-none-eabi/include/c++/6.3.1/bits/stl_algo.h ****    *  @param  __first  An input iterator.
 551:/home/zkmike/.local/share/renesas/e2_studio/toolchains/gcc_arm/gcc-arm-none-eabi-6-2017-q2-update/arm-none-eabi/include/c++/6.3.1/bits/stl_algo.h ****    *  @param  __last   An input iterator.
 552:/home/zkmike/.local/share/renesas/e2_studio/toolchains/gcc_arm/gcc-arm-none-eabi-6-2017-q2-update/arm-none-eabi/include/c++/6.3.1/bits/stl_algo.h ****    *  @param  __pred   A predicate.
 553:/home/zkmike/.local/share/renesas/e2_studio/toolchains/gcc_arm/gcc-arm-none-eabi-6-2017-q2-update/arm-none-eabi/include/c++/6.3.1/bits/stl_algo.h ****    *  @return   The first iterator @c i in the range @p [__first,__last)
 554:/home/zkmike/.local/share/renesas/e2_studio/toolchains/gcc_arm/gcc-arm-none-eabi-6-2017-q2-update/arm-none-eabi/include/c++/6.3.1/bits/stl_algo.h ****    *  such that @p __pred(*i) is false, or @p __last if no such iterator exists.
 555:/home/zkmike/.local/share/renesas/e2_studio/toolchains/gcc_arm/gcc-arm-none-eabi-6-2017-q2-update/arm-none-eabi/include/c++/6.3.1/bits/stl_algo.h ****   */
 556:/home/zkmike/.local/share/renesas/e2_studio/toolchains/gcc_arm/gcc-arm-none-eabi-6-2017-q2-update/arm-none-eabi/include/c++/6.3.1/bits/stl_algo.h ****   template<typename _InputIterator, typename _Predicate>
 557:/home/zkmike/.local/share/renesas/e2_studio/toolchains/gcc_arm/gcc-arm-none-eabi-6-2017-q2-update/arm-none-eabi/include/c++/6.3.1/bits/stl_algo.h ****     inline _InputIterator
 558:/home/zkmike/.local/share/renesas/e2_studio/toolchains/gcc_arm/gcc-arm-none-eabi-6-2017-q2-update/arm-none-eabi/include/c++/6.3.1/bits/stl_algo.h ****     find_if_not(_InputIterator __first, _InputIterator __last,
 559:/home/zkmike/.local/share/renesas/e2_studio/toolchains/gcc_arm/gcc-arm-none-eabi-6-2017-q2-update/arm-none-eabi/include/c++/6.3.1/bits/stl_algo.h **** 		_Predicate __pred)
 560:/home/zkmike/.local/share/renesas/e2_studio/toolchains/gcc_arm/gcc-arm-none-eabi-6-2017-q2-update/arm-none-eabi/include/c++/6.3.1/bits/stl_algo.h ****     {
 561:/home/zkmike/.local/share/renesas/e2_studio/toolchains/gcc_arm/gcc-arm-none-eabi-6-2017-q2-update/arm-none-eabi/include/c++/6.3.1/bits/stl_algo.h ****       // concept requirements
 562:/home/zkmike/.local/share/renesas/e2_studio/toolchains/gcc_arm/gcc-arm-none-eabi-6-2017-q2-update/arm-none-eabi/include/c++/6.3.1/bits/stl_algo.h ****       __glibcxx_function_requires(_InputIteratorConcept<_InputIterator>)
 563:/home/zkmike/.local/share/renesas/e2_studio/toolchains/gcc_arm/gcc-arm-none-eabi-6-2017-q2-update/arm-none-eabi/include/c++/6.3.1/bits/stl_algo.h ****       __glibcxx_function_requires(_UnaryPredicateConcept<_Predicate,
 564:/home/zkmike/.local/share/renesas/e2_studio/toolchains/gcc_arm/gcc-arm-none-eabi-6-2017-q2-update/arm-none-eabi/include/c++/6.3.1/bits/stl_algo.h **** 	      typename iterator_traits<_InputIterator>::value_type>)
 565:/home/zkmike/.local/share/renesas/e2_studio/toolchains/gcc_arm/gcc-arm-none-eabi-6-2017-q2-update/arm-none-eabi/include/c++/6.3.1/bits/stl_algo.h ****       __glibcxx_requires_valid_range(__first, __last);
 566:/home/zkmike/.local/share/renesas/e2_studio/toolchains/gcc_arm/gcc-arm-none-eabi-6-2017-q2-update/arm-none-eabi/include/c++/6.3.1/bits/stl_algo.h ****       return std::__find_if_not(__first, __last,
 567:/home/zkmike/.local/share/renesas/e2_studio/toolchains/gcc_arm/gcc-arm-none-eabi-6-2017-q2-update/arm-none-eabi/include/c++/6.3.1/bits/stl_algo.h **** 				__gnu_cxx::__ops::__pred_iter(__pred));
 568:/home/zkmike/.local/share/renesas/e2_studio/toolchains/gcc_arm/gcc-arm-none-eabi-6-2017-q2-update/arm-none-eabi/include/c++/6.3.1/bits/stl_algo.h ****     }
 569:/home/zkmike/.local/share/renesas/e2_studio/toolchains/gcc_arm/gcc-arm-none-eabi-6-2017-q2-update/arm-none-eabi/include/c++/6.3.1/bits/stl_algo.h **** 
 570:/home/zkmike/.local/share/renesas/e2_studio/toolchains/gcc_arm/gcc-arm-none-eabi-6-2017-q2-update/arm-none-eabi/include/c++/6.3.1/bits/stl_algo.h ****   /**
 571:/home/zkmike/.local/share/renesas/e2_studio/toolchains/gcc_arm/gcc-arm-none-eabi-6-2017-q2-update/arm-none-eabi/include/c++/6.3.1/bits/stl_algo.h ****    *  @brief  Checks whether the sequence is partitioned.
 572:/home/zkmike/.local/share/renesas/e2_studio/toolchains/gcc_arm/gcc-arm-none-eabi-6-2017-q2-update/arm-none-eabi/include/c++/6.3.1/bits/stl_algo.h ****    *  @ingroup mutating_algorithms
 573:/home/zkmike/.local/share/renesas/e2_studio/toolchains/gcc_arm/gcc-arm-none-eabi-6-2017-q2-update/arm-none-eabi/include/c++/6.3.1/bits/stl_algo.h ****    *  @param  __first  An input iterator.
 574:/home/zkmike/.local/share/renesas/e2_studio/toolchains/gcc_arm/gcc-arm-none-eabi-6-2017-q2-update/arm-none-eabi/include/c++/6.3.1/bits/stl_algo.h ****    *  @param  __last   An input iterator.
 575:/home/zkmike/.local/share/renesas/e2_studio/toolchains/gcc_arm/gcc-arm-none-eabi-6-2017-q2-update/arm-none-eabi/include/c++/6.3.1/bits/stl_algo.h ****    *  @param  __pred   A predicate.
 576:/home/zkmike/.local/share/renesas/e2_studio/toolchains/gcc_arm/gcc-arm-none-eabi-6-2017-q2-update/arm-none-eabi/include/c++/6.3.1/bits/stl_algo.h ****    *  @return  True if the range @p [__first,__last) is partioned by @p __pred,
 577:/home/zkmike/.local/share/renesas/e2_studio/toolchains/gcc_arm/gcc-arm-none-eabi-6-2017-q2-update/arm-none-eabi/include/c++/6.3.1/bits/stl_algo.h ****    *  i.e. if all elements that satisfy @p __pred appear before those that
 578:/home/zkmike/.local/share/renesas/e2_studio/toolchains/gcc_arm/gcc-arm-none-eabi-6-2017-q2-update/arm-none-eabi/include/c++/6.3.1/bits/stl_algo.h ****    *  do not.
 579:/home/zkmike/.local/share/renesas/e2_studio/toolchains/gcc_arm/gcc-arm-none-eabi-6-2017-q2-update/arm-none-eabi/include/c++/6.3.1/bits/stl_algo.h ****   */
 580:/home/zkmike/.local/share/renesas/e2_studio/toolchains/gcc_arm/gcc-arm-none-eabi-6-2017-q2-update/arm-none-eabi/include/c++/6.3.1/bits/stl_algo.h ****   template<typename _InputIterator, typename _Predicate>
 581:/home/zkmike/.local/share/renesas/e2_studio/toolchains/gcc_arm/gcc-arm-none-eabi-6-2017-q2-update/arm-none-eabi/include/c++/6.3.1/bits/stl_algo.h ****     inline bool
 582:/home/zkmike/.local/share/renesas/e2_studio/toolchains/gcc_arm/gcc-arm-none-eabi-6-2017-q2-update/arm-none-eabi/include/c++/6.3.1/bits/stl_algo.h ****     is_partitioned(_InputIterator __first, _InputIterator __last,
 583:/home/zkmike/.local/share/renesas/e2_studio/toolchains/gcc_arm/gcc-arm-none-eabi-6-2017-q2-update/arm-none-eabi/include/c++/6.3.1/bits/stl_algo.h **** 		   _Predicate __pred)
 584:/home/zkmike/.local/share/renesas/e2_studio/toolchains/gcc_arm/gcc-arm-none-eabi-6-2017-q2-update/arm-none-eabi/include/c++/6.3.1/bits/stl_algo.h ****     {
 585:/home/zkmike/.local/share/renesas/e2_studio/toolchains/gcc_arm/gcc-arm-none-eabi-6-2017-q2-update/arm-none-eabi/include/c++/6.3.1/bits/stl_algo.h ****       __first = std::find_if_not(__first, __last, __pred);
 586:/home/zkmike/.local/share/renesas/e2_studio/toolchains/gcc_arm/gcc-arm-none-eabi-6-2017-q2-update/arm-none-eabi/include/c++/6.3.1/bits/stl_algo.h ****       return std::none_of(__first, __last, __pred);
 587:/home/zkmike/.local/share/renesas/e2_studio/toolchains/gcc_arm/gcc-arm-none-eabi-6-2017-q2-update/arm-none-eabi/include/c++/6.3.1/bits/stl_algo.h ****     }
 588:/home/zkmike/.local/share/renesas/e2_studio/toolchains/gcc_arm/gcc-arm-none-eabi-6-2017-q2-update/arm-none-eabi/include/c++/6.3.1/bits/stl_algo.h **** 
 589:/home/zkmike/.local/share/renesas/e2_studio/toolchains/gcc_arm/gcc-arm-none-eabi-6-2017-q2-update/arm-none-eabi/include/c++/6.3.1/bits/stl_algo.h ****   /**
 590:/home/zkmike/.local/share/renesas/e2_studio/toolchains/gcc_arm/gcc-arm-none-eabi-6-2017-q2-update/arm-none-eabi/include/c++/6.3.1/bits/stl_algo.h ****    *  @brief  Find the partition point of a partitioned range.
 591:/home/zkmike/.local/share/renesas/e2_studio/toolchains/gcc_arm/gcc-arm-none-eabi-6-2017-q2-update/arm-none-eabi/include/c++/6.3.1/bits/stl_algo.h ****    *  @ingroup mutating_algorithms
 592:/home/zkmike/.local/share/renesas/e2_studio/toolchains/gcc_arm/gcc-arm-none-eabi-6-2017-q2-update/arm-none-eabi/include/c++/6.3.1/bits/stl_algo.h ****    *  @param  __first   An iterator.
 593:/home/zkmike/.local/share/renesas/e2_studio/toolchains/gcc_arm/gcc-arm-none-eabi-6-2017-q2-update/arm-none-eabi/include/c++/6.3.1/bits/stl_algo.h ****    *  @param  __last    Another iterator.
 594:/home/zkmike/.local/share/renesas/e2_studio/toolchains/gcc_arm/gcc-arm-none-eabi-6-2017-q2-update/arm-none-eabi/include/c++/6.3.1/bits/stl_algo.h ****    *  @param  __pred    A predicate.
 595:/home/zkmike/.local/share/renesas/e2_studio/toolchains/gcc_arm/gcc-arm-none-eabi-6-2017-q2-update/arm-none-eabi/include/c++/6.3.1/bits/stl_algo.h ****    *  @return  An iterator @p mid such that @p all_of(__first, mid, __pred)
 596:/home/zkmike/.local/share/renesas/e2_studio/toolchains/gcc_arm/gcc-arm-none-eabi-6-2017-q2-update/arm-none-eabi/include/c++/6.3.1/bits/stl_algo.h ****    *           and @p none_of(mid, __last, __pred) are both true.
 597:/home/zkmike/.local/share/renesas/e2_studio/toolchains/gcc_arm/gcc-arm-none-eabi-6-2017-q2-update/arm-none-eabi/include/c++/6.3.1/bits/stl_algo.h ****   */
 598:/home/zkmike/.local/share/renesas/e2_studio/toolchains/gcc_arm/gcc-arm-none-eabi-6-2017-q2-update/arm-none-eabi/include/c++/6.3.1/bits/stl_algo.h ****   template<typename _ForwardIterator, typename _Predicate>
 599:/home/zkmike/.local/share/renesas/e2_studio/toolchains/gcc_arm/gcc-arm-none-eabi-6-2017-q2-update/arm-none-eabi/include/c++/6.3.1/bits/stl_algo.h ****     _ForwardIterator
 600:/home/zkmike/.local/share/renesas/e2_studio/toolchains/gcc_arm/gcc-arm-none-eabi-6-2017-q2-update/arm-none-eabi/include/c++/6.3.1/bits/stl_algo.h ****     partition_point(_ForwardIterator __first, _ForwardIterator __last,
 601:/home/zkmike/.local/share/renesas/e2_studio/toolchains/gcc_arm/gcc-arm-none-eabi-6-2017-q2-update/arm-none-eabi/include/c++/6.3.1/bits/stl_algo.h **** 		    _Predicate __pred)
 602:/home/zkmike/.local/share/renesas/e2_studio/toolchains/gcc_arm/gcc-arm-none-eabi-6-2017-q2-update/arm-none-eabi/include/c++/6.3.1/bits/stl_algo.h ****     {
 603:/home/zkmike/.local/share/renesas/e2_studio/toolchains/gcc_arm/gcc-arm-none-eabi-6-2017-q2-update/arm-none-eabi/include/c++/6.3.1/bits/stl_algo.h ****       // concept requirements
 604:/home/zkmike/.local/share/renesas/e2_studio/toolchains/gcc_arm/gcc-arm-none-eabi-6-2017-q2-update/arm-none-eabi/include/c++/6.3.1/bits/stl_algo.h ****       __glibcxx_function_requires(_ForwardIteratorConcept<_ForwardIterator>)
 605:/home/zkmike/.local/share/renesas/e2_studio/toolchains/gcc_arm/gcc-arm-none-eabi-6-2017-q2-update/arm-none-eabi/include/c++/6.3.1/bits/stl_algo.h ****       __glibcxx_function_requires(_UnaryPredicateConcept<_Predicate,
 606:/home/zkmike/.local/share/renesas/e2_studio/toolchains/gcc_arm/gcc-arm-none-eabi-6-2017-q2-update/arm-none-eabi/include/c++/6.3.1/bits/stl_algo.h **** 	      typename iterator_traits<_ForwardIterator>::value_type>)
 607:/home/zkmike/.local/share/renesas/e2_studio/toolchains/gcc_arm/gcc-arm-none-eabi-6-2017-q2-update/arm-none-eabi/include/c++/6.3.1/bits/stl_algo.h **** 
 608:/home/zkmike/.local/share/renesas/e2_studio/toolchains/gcc_arm/gcc-arm-none-eabi-6-2017-q2-update/arm-none-eabi/include/c++/6.3.1/bits/stl_algo.h ****       // A specific debug-mode test will be necessary...
 609:/home/zkmike/.local/share/renesas/e2_studio/toolchains/gcc_arm/gcc-arm-none-eabi-6-2017-q2-update/arm-none-eabi/include/c++/6.3.1/bits/stl_algo.h ****       __glibcxx_requires_valid_range(__first, __last);
 610:/home/zkmike/.local/share/renesas/e2_studio/toolchains/gcc_arm/gcc-arm-none-eabi-6-2017-q2-update/arm-none-eabi/include/c++/6.3.1/bits/stl_algo.h **** 
 611:/home/zkmike/.local/share/renesas/e2_studio/toolchains/gcc_arm/gcc-arm-none-eabi-6-2017-q2-update/arm-none-eabi/include/c++/6.3.1/bits/stl_algo.h ****       typedef typename iterator_traits<_ForwardIterator>::difference_type
 612:/home/zkmike/.local/share/renesas/e2_studio/toolchains/gcc_arm/gcc-arm-none-eabi-6-2017-q2-update/arm-none-eabi/include/c++/6.3.1/bits/stl_algo.h **** 	_DistanceType;
 613:/home/zkmike/.local/share/renesas/e2_studio/toolchains/gcc_arm/gcc-arm-none-eabi-6-2017-q2-update/arm-none-eabi/include/c++/6.3.1/bits/stl_algo.h **** 
 614:/home/zkmike/.local/share/renesas/e2_studio/toolchains/gcc_arm/gcc-arm-none-eabi-6-2017-q2-update/arm-none-eabi/include/c++/6.3.1/bits/stl_algo.h ****       _DistanceType __len = std::distance(__first, __last);
 615:/home/zkmike/.local/share/renesas/e2_studio/toolchains/gcc_arm/gcc-arm-none-eabi-6-2017-q2-update/arm-none-eabi/include/c++/6.3.1/bits/stl_algo.h ****       _DistanceType __half;
 616:/home/zkmike/.local/share/renesas/e2_studio/toolchains/gcc_arm/gcc-arm-none-eabi-6-2017-q2-update/arm-none-eabi/include/c++/6.3.1/bits/stl_algo.h ****       _ForwardIterator __middle;
 617:/home/zkmike/.local/share/renesas/e2_studio/toolchains/gcc_arm/gcc-arm-none-eabi-6-2017-q2-update/arm-none-eabi/include/c++/6.3.1/bits/stl_algo.h **** 
 618:/home/zkmike/.local/share/renesas/e2_studio/toolchains/gcc_arm/gcc-arm-none-eabi-6-2017-q2-update/arm-none-eabi/include/c++/6.3.1/bits/stl_algo.h ****       while (__len > 0)
 619:/home/zkmike/.local/share/renesas/e2_studio/toolchains/gcc_arm/gcc-arm-none-eabi-6-2017-q2-update/arm-none-eabi/include/c++/6.3.1/bits/stl_algo.h **** 	{
 620:/home/zkmike/.local/share/renesas/e2_studio/toolchains/gcc_arm/gcc-arm-none-eabi-6-2017-q2-update/arm-none-eabi/include/c++/6.3.1/bits/stl_algo.h **** 	  __half = __len >> 1;
 621:/home/zkmike/.local/share/renesas/e2_studio/toolchains/gcc_arm/gcc-arm-none-eabi-6-2017-q2-update/arm-none-eabi/include/c++/6.3.1/bits/stl_algo.h **** 	  __middle = __first;
 622:/home/zkmike/.local/share/renesas/e2_studio/toolchains/gcc_arm/gcc-arm-none-eabi-6-2017-q2-update/arm-none-eabi/include/c++/6.3.1/bits/stl_algo.h **** 	  std::advance(__middle, __half);
 623:/home/zkmike/.local/share/renesas/e2_studio/toolchains/gcc_arm/gcc-arm-none-eabi-6-2017-q2-update/arm-none-eabi/include/c++/6.3.1/bits/stl_algo.h **** 	  if (__pred(*__middle))
 624:/home/zkmike/.local/share/renesas/e2_studio/toolchains/gcc_arm/gcc-arm-none-eabi-6-2017-q2-update/arm-none-eabi/include/c++/6.3.1/bits/stl_algo.h **** 	    {
 625:/home/zkmike/.local/share/renesas/e2_studio/toolchains/gcc_arm/gcc-arm-none-eabi-6-2017-q2-update/arm-none-eabi/include/c++/6.3.1/bits/stl_algo.h **** 	      __first = __middle;
 626:/home/zkmike/.local/share/renesas/e2_studio/toolchains/gcc_arm/gcc-arm-none-eabi-6-2017-q2-update/arm-none-eabi/include/c++/6.3.1/bits/stl_algo.h **** 	      ++__first;
 627:/home/zkmike/.local/share/renesas/e2_studio/toolchains/gcc_arm/gcc-arm-none-eabi-6-2017-q2-update/arm-none-eabi/include/c++/6.3.1/bits/stl_algo.h **** 	      __len = __len - __half - 1;
 628:/home/zkmike/.local/share/renesas/e2_studio/toolchains/gcc_arm/gcc-arm-none-eabi-6-2017-q2-update/arm-none-eabi/include/c++/6.3.1/bits/stl_algo.h **** 	    }
 629:/home/zkmike/.local/share/renesas/e2_studio/toolchains/gcc_arm/gcc-arm-none-eabi-6-2017-q2-update/arm-none-eabi/include/c++/6.3.1/bits/stl_algo.h **** 	  else
 630:/home/zkmike/.local/share/renesas/e2_studio/toolchains/gcc_arm/gcc-arm-none-eabi-6-2017-q2-update/arm-none-eabi/include/c++/6.3.1/bits/stl_algo.h **** 	    __len = __half;
 631:/home/zkmike/.local/share/renesas/e2_studio/toolchains/gcc_arm/gcc-arm-none-eabi-6-2017-q2-update/arm-none-eabi/include/c++/6.3.1/bits/stl_algo.h **** 	}
 632:/home/zkmike/.local/share/renesas/e2_studio/toolchains/gcc_arm/gcc-arm-none-eabi-6-2017-q2-update/arm-none-eabi/include/c++/6.3.1/bits/stl_algo.h ****       return __first;
 633:/home/zkmike/.local/share/renesas/e2_studio/toolchains/gcc_arm/gcc-arm-none-eabi-6-2017-q2-update/arm-none-eabi/include/c++/6.3.1/bits/stl_algo.h ****     }
 634:/home/zkmike/.local/share/renesas/e2_studio/toolchains/gcc_arm/gcc-arm-none-eabi-6-2017-q2-update/arm-none-eabi/include/c++/6.3.1/bits/stl_algo.h **** #endif
 635:/home/zkmike/.local/share/renesas/e2_studio/toolchains/gcc_arm/gcc-arm-none-eabi-6-2017-q2-update/arm-none-eabi/include/c++/6.3.1/bits/stl_algo.h **** 
 636:/home/zkmike/.local/share/renesas/e2_studio/toolchains/gcc_arm/gcc-arm-none-eabi-6-2017-q2-update/arm-none-eabi/include/c++/6.3.1/bits/stl_algo.h ****   template<typename _InputIterator, typename _OutputIterator,
 637:/home/zkmike/.local/share/renesas/e2_studio/toolchains/gcc_arm/gcc-arm-none-eabi-6-2017-q2-update/arm-none-eabi/include/c++/6.3.1/bits/stl_algo.h **** 	   typename _Predicate>
 638:/home/zkmike/.local/share/renesas/e2_studio/toolchains/gcc_arm/gcc-arm-none-eabi-6-2017-q2-update/arm-none-eabi/include/c++/6.3.1/bits/stl_algo.h ****     _OutputIterator
 639:/home/zkmike/.local/share/renesas/e2_studio/toolchains/gcc_arm/gcc-arm-none-eabi-6-2017-q2-update/arm-none-eabi/include/c++/6.3.1/bits/stl_algo.h ****     __remove_copy_if(_InputIterator __first, _InputIterator __last,
 640:/home/zkmike/.local/share/renesas/e2_studio/toolchains/gcc_arm/gcc-arm-none-eabi-6-2017-q2-update/arm-none-eabi/include/c++/6.3.1/bits/stl_algo.h **** 		     _OutputIterator __result, _Predicate __pred)
 641:/home/zkmike/.local/share/renesas/e2_studio/toolchains/gcc_arm/gcc-arm-none-eabi-6-2017-q2-update/arm-none-eabi/include/c++/6.3.1/bits/stl_algo.h ****     {
 642:/home/zkmike/.local/share/renesas/e2_studio/toolchains/gcc_arm/gcc-arm-none-eabi-6-2017-q2-update/arm-none-eabi/include/c++/6.3.1/bits/stl_algo.h ****       for (; __first != __last; ++__first)
 643:/home/zkmike/.local/share/renesas/e2_studio/toolchains/gcc_arm/gcc-arm-none-eabi-6-2017-q2-update/arm-none-eabi/include/c++/6.3.1/bits/stl_algo.h **** 	if (!__pred(__first))
 644:/home/zkmike/.local/share/renesas/e2_studio/toolchains/gcc_arm/gcc-arm-none-eabi-6-2017-q2-update/arm-none-eabi/include/c++/6.3.1/bits/stl_algo.h **** 	  {
 645:/home/zkmike/.local/share/renesas/e2_studio/toolchains/gcc_arm/gcc-arm-none-eabi-6-2017-q2-update/arm-none-eabi/include/c++/6.3.1/bits/stl_algo.h **** 	    *__result = *__first;
 646:/home/zkmike/.local/share/renesas/e2_studio/toolchains/gcc_arm/gcc-arm-none-eabi-6-2017-q2-update/arm-none-eabi/include/c++/6.3.1/bits/stl_algo.h **** 	    ++__result;
 647:/home/zkmike/.local/share/renesas/e2_studio/toolchains/gcc_arm/gcc-arm-none-eabi-6-2017-q2-update/arm-none-eabi/include/c++/6.3.1/bits/stl_algo.h **** 	  }
 648:/home/zkmike/.local/share/renesas/e2_studio/toolchains/gcc_arm/gcc-arm-none-eabi-6-2017-q2-update/arm-none-eabi/include/c++/6.3.1/bits/stl_algo.h ****       return __result;
 649:/home/zkmike/.local/share/renesas/e2_studio/toolchains/gcc_arm/gcc-arm-none-eabi-6-2017-q2-update/arm-none-eabi/include/c++/6.3.1/bits/stl_algo.h ****     }
 650:/home/zkmike/.local/share/renesas/e2_studio/toolchains/gcc_arm/gcc-arm-none-eabi-6-2017-q2-update/arm-none-eabi/include/c++/6.3.1/bits/stl_algo.h **** 
 651:/home/zkmike/.local/share/renesas/e2_studio/toolchains/gcc_arm/gcc-arm-none-eabi-6-2017-q2-update/arm-none-eabi/include/c++/6.3.1/bits/stl_algo.h ****   /**
 652:/home/zkmike/.local/share/renesas/e2_studio/toolchains/gcc_arm/gcc-arm-none-eabi-6-2017-q2-update/arm-none-eabi/include/c++/6.3.1/bits/stl_algo.h ****    *  @brief Copy a sequence, removing elements of a given value.
 653:/home/zkmike/.local/share/renesas/e2_studio/toolchains/gcc_arm/gcc-arm-none-eabi-6-2017-q2-update/arm-none-eabi/include/c++/6.3.1/bits/stl_algo.h ****    *  @ingroup mutating_algorithms
 654:/home/zkmike/.local/share/renesas/e2_studio/toolchains/gcc_arm/gcc-arm-none-eabi-6-2017-q2-update/arm-none-eabi/include/c++/6.3.1/bits/stl_algo.h ****    *  @param  __first   An input iterator.
 655:/home/zkmike/.local/share/renesas/e2_studio/toolchains/gcc_arm/gcc-arm-none-eabi-6-2017-q2-update/arm-none-eabi/include/c++/6.3.1/bits/stl_algo.h ****    *  @param  __last    An input iterator.
 656:/home/zkmike/.local/share/renesas/e2_studio/toolchains/gcc_arm/gcc-arm-none-eabi-6-2017-q2-update/arm-none-eabi/include/c++/6.3.1/bits/stl_algo.h ****    *  @param  __result  An output iterator.
 657:/home/zkmike/.local/share/renesas/e2_studio/toolchains/gcc_arm/gcc-arm-none-eabi-6-2017-q2-update/arm-none-eabi/include/c++/6.3.1/bits/stl_algo.h ****    *  @param  __value   The value to be removed.
 658:/home/zkmike/.local/share/renesas/e2_studio/toolchains/gcc_arm/gcc-arm-none-eabi-6-2017-q2-update/arm-none-eabi/include/c++/6.3.1/bits/stl_algo.h ****    *  @return   An iterator designating the end of the resulting sequence.
 659:/home/zkmike/.local/share/renesas/e2_studio/toolchains/gcc_arm/gcc-arm-none-eabi-6-2017-q2-update/arm-none-eabi/include/c++/6.3.1/bits/stl_algo.h ****    *
 660:/home/zkmike/.local/share/renesas/e2_studio/toolchains/gcc_arm/gcc-arm-none-eabi-6-2017-q2-update/arm-none-eabi/include/c++/6.3.1/bits/stl_algo.h ****    *  Copies each element in the range @p [__first,__last) not equal
 661:/home/zkmike/.local/share/renesas/e2_studio/toolchains/gcc_arm/gcc-arm-none-eabi-6-2017-q2-update/arm-none-eabi/include/c++/6.3.1/bits/stl_algo.h ****    *  to @p __value to the range beginning at @p __result.
 662:/home/zkmike/.local/share/renesas/e2_studio/toolchains/gcc_arm/gcc-arm-none-eabi-6-2017-q2-update/arm-none-eabi/include/c++/6.3.1/bits/stl_algo.h ****    *  remove_copy() is stable, so the relative order of elements that
 663:/home/zkmike/.local/share/renesas/e2_studio/toolchains/gcc_arm/gcc-arm-none-eabi-6-2017-q2-update/arm-none-eabi/include/c++/6.3.1/bits/stl_algo.h ****    *  are copied is unchanged.
 664:/home/zkmike/.local/share/renesas/e2_studio/toolchains/gcc_arm/gcc-arm-none-eabi-6-2017-q2-update/arm-none-eabi/include/c++/6.3.1/bits/stl_algo.h ****   */
 665:/home/zkmike/.local/share/renesas/e2_studio/toolchains/gcc_arm/gcc-arm-none-eabi-6-2017-q2-update/arm-none-eabi/include/c++/6.3.1/bits/stl_algo.h ****   template<typename _InputIterator, typename _OutputIterator, typename _Tp>
 666:/home/zkmike/.local/share/renesas/e2_studio/toolchains/gcc_arm/gcc-arm-none-eabi-6-2017-q2-update/arm-none-eabi/include/c++/6.3.1/bits/stl_algo.h ****     inline _OutputIterator
 667:/home/zkmike/.local/share/renesas/e2_studio/toolchains/gcc_arm/gcc-arm-none-eabi-6-2017-q2-update/arm-none-eabi/include/c++/6.3.1/bits/stl_algo.h ****     remove_copy(_InputIterator __first, _InputIterator __last,
 668:/home/zkmike/.local/share/renesas/e2_studio/toolchains/gcc_arm/gcc-arm-none-eabi-6-2017-q2-update/arm-none-eabi/include/c++/6.3.1/bits/stl_algo.h **** 		_OutputIterator __result, const _Tp& __value)
 669:/home/zkmike/.local/share/renesas/e2_studio/toolchains/gcc_arm/gcc-arm-none-eabi-6-2017-q2-update/arm-none-eabi/include/c++/6.3.1/bits/stl_algo.h ****     {
 670:/home/zkmike/.local/share/renesas/e2_studio/toolchains/gcc_arm/gcc-arm-none-eabi-6-2017-q2-update/arm-none-eabi/include/c++/6.3.1/bits/stl_algo.h ****       // concept requirements
 671:/home/zkmike/.local/share/renesas/e2_studio/toolchains/gcc_arm/gcc-arm-none-eabi-6-2017-q2-update/arm-none-eabi/include/c++/6.3.1/bits/stl_algo.h ****       __glibcxx_function_requires(_InputIteratorConcept<_InputIterator>)
 672:/home/zkmike/.local/share/renesas/e2_studio/toolchains/gcc_arm/gcc-arm-none-eabi-6-2017-q2-update/arm-none-eabi/include/c++/6.3.1/bits/stl_algo.h ****       __glibcxx_function_requires(_OutputIteratorConcept<_OutputIterator,
 673:/home/zkmike/.local/share/renesas/e2_studio/toolchains/gcc_arm/gcc-arm-none-eabi-6-2017-q2-update/arm-none-eabi/include/c++/6.3.1/bits/stl_algo.h **** 	    typename iterator_traits<_InputIterator>::value_type>)
 674:/home/zkmike/.local/share/renesas/e2_studio/toolchains/gcc_arm/gcc-arm-none-eabi-6-2017-q2-update/arm-none-eabi/include/c++/6.3.1/bits/stl_algo.h ****       __glibcxx_function_requires(_EqualOpConcept<
 675:/home/zkmike/.local/share/renesas/e2_studio/toolchains/gcc_arm/gcc-arm-none-eabi-6-2017-q2-update/arm-none-eabi/include/c++/6.3.1/bits/stl_algo.h **** 	    typename iterator_traits<_InputIterator>::value_type, _Tp>)
 676:/home/zkmike/.local/share/renesas/e2_studio/toolchains/gcc_arm/gcc-arm-none-eabi-6-2017-q2-update/arm-none-eabi/include/c++/6.3.1/bits/stl_algo.h ****       __glibcxx_requires_valid_range(__first, __last);
 677:/home/zkmike/.local/share/renesas/e2_studio/toolchains/gcc_arm/gcc-arm-none-eabi-6-2017-q2-update/arm-none-eabi/include/c++/6.3.1/bits/stl_algo.h **** 
 678:/home/zkmike/.local/share/renesas/e2_studio/toolchains/gcc_arm/gcc-arm-none-eabi-6-2017-q2-update/arm-none-eabi/include/c++/6.3.1/bits/stl_algo.h ****       return std::__remove_copy_if(__first, __last, __result,
 679:/home/zkmike/.local/share/renesas/e2_studio/toolchains/gcc_arm/gcc-arm-none-eabi-6-2017-q2-update/arm-none-eabi/include/c++/6.3.1/bits/stl_algo.h **** 	__gnu_cxx::__ops::__iter_equals_val(__value));
 680:/home/zkmike/.local/share/renesas/e2_studio/toolchains/gcc_arm/gcc-arm-none-eabi-6-2017-q2-update/arm-none-eabi/include/c++/6.3.1/bits/stl_algo.h ****     }
 681:/home/zkmike/.local/share/renesas/e2_studio/toolchains/gcc_arm/gcc-arm-none-eabi-6-2017-q2-update/arm-none-eabi/include/c++/6.3.1/bits/stl_algo.h **** 
 682:/home/zkmike/.local/share/renesas/e2_studio/toolchains/gcc_arm/gcc-arm-none-eabi-6-2017-q2-update/arm-none-eabi/include/c++/6.3.1/bits/stl_algo.h ****   /**
 683:/home/zkmike/.local/share/renesas/e2_studio/toolchains/gcc_arm/gcc-arm-none-eabi-6-2017-q2-update/arm-none-eabi/include/c++/6.3.1/bits/stl_algo.h ****    *  @brief Copy a sequence, removing elements for which a predicate is true.
 684:/home/zkmike/.local/share/renesas/e2_studio/toolchains/gcc_arm/gcc-arm-none-eabi-6-2017-q2-update/arm-none-eabi/include/c++/6.3.1/bits/stl_algo.h ****    *  @ingroup mutating_algorithms
 685:/home/zkmike/.local/share/renesas/e2_studio/toolchains/gcc_arm/gcc-arm-none-eabi-6-2017-q2-update/arm-none-eabi/include/c++/6.3.1/bits/stl_algo.h ****    *  @param  __first   An input iterator.
 686:/home/zkmike/.local/share/renesas/e2_studio/toolchains/gcc_arm/gcc-arm-none-eabi-6-2017-q2-update/arm-none-eabi/include/c++/6.3.1/bits/stl_algo.h ****    *  @param  __last    An input iterator.
 687:/home/zkmike/.local/share/renesas/e2_studio/toolchains/gcc_arm/gcc-arm-none-eabi-6-2017-q2-update/arm-none-eabi/include/c++/6.3.1/bits/stl_algo.h ****    *  @param  __result  An output iterator.
 688:/home/zkmike/.local/share/renesas/e2_studio/toolchains/gcc_arm/gcc-arm-none-eabi-6-2017-q2-update/arm-none-eabi/include/c++/6.3.1/bits/stl_algo.h ****    *  @param  __pred    A predicate.
 689:/home/zkmike/.local/share/renesas/e2_studio/toolchains/gcc_arm/gcc-arm-none-eabi-6-2017-q2-update/arm-none-eabi/include/c++/6.3.1/bits/stl_algo.h ****    *  @return   An iterator designating the end of the resulting sequence.
 690:/home/zkmike/.local/share/renesas/e2_studio/toolchains/gcc_arm/gcc-arm-none-eabi-6-2017-q2-update/arm-none-eabi/include/c++/6.3.1/bits/stl_algo.h ****    *
 691:/home/zkmike/.local/share/renesas/e2_studio/toolchains/gcc_arm/gcc-arm-none-eabi-6-2017-q2-update/arm-none-eabi/include/c++/6.3.1/bits/stl_algo.h ****    *  Copies each element in the range @p [__first,__last) for which
 692:/home/zkmike/.local/share/renesas/e2_studio/toolchains/gcc_arm/gcc-arm-none-eabi-6-2017-q2-update/arm-none-eabi/include/c++/6.3.1/bits/stl_algo.h ****    *  @p __pred returns false to the range beginning at @p __result.
 693:/home/zkmike/.local/share/renesas/e2_studio/toolchains/gcc_arm/gcc-arm-none-eabi-6-2017-q2-update/arm-none-eabi/include/c++/6.3.1/bits/stl_algo.h ****    *
 694:/home/zkmike/.local/share/renesas/e2_studio/toolchains/gcc_arm/gcc-arm-none-eabi-6-2017-q2-update/arm-none-eabi/include/c++/6.3.1/bits/stl_algo.h ****    *  remove_copy_if() is stable, so the relative order of elements that are
 695:/home/zkmike/.local/share/renesas/e2_studio/toolchains/gcc_arm/gcc-arm-none-eabi-6-2017-q2-update/arm-none-eabi/include/c++/6.3.1/bits/stl_algo.h ****    *  copied is unchanged.
 696:/home/zkmike/.local/share/renesas/e2_studio/toolchains/gcc_arm/gcc-arm-none-eabi-6-2017-q2-update/arm-none-eabi/include/c++/6.3.1/bits/stl_algo.h ****   */
 697:/home/zkmike/.local/share/renesas/e2_studio/toolchains/gcc_arm/gcc-arm-none-eabi-6-2017-q2-update/arm-none-eabi/include/c++/6.3.1/bits/stl_algo.h ****   template<typename _InputIterator, typename _OutputIterator,
 698:/home/zkmike/.local/share/renesas/e2_studio/toolchains/gcc_arm/gcc-arm-none-eabi-6-2017-q2-update/arm-none-eabi/include/c++/6.3.1/bits/stl_algo.h **** 	   typename _Predicate>
 699:/home/zkmike/.local/share/renesas/e2_studio/toolchains/gcc_arm/gcc-arm-none-eabi-6-2017-q2-update/arm-none-eabi/include/c++/6.3.1/bits/stl_algo.h ****     inline _OutputIterator
 700:/home/zkmike/.local/share/renesas/e2_studio/toolchains/gcc_arm/gcc-arm-none-eabi-6-2017-q2-update/arm-none-eabi/include/c++/6.3.1/bits/stl_algo.h ****     remove_copy_if(_InputIterator __first, _InputIterator __last,
 701:/home/zkmike/.local/share/renesas/e2_studio/toolchains/gcc_arm/gcc-arm-none-eabi-6-2017-q2-update/arm-none-eabi/include/c++/6.3.1/bits/stl_algo.h **** 		   _OutputIterator __result, _Predicate __pred)
 702:/home/zkmike/.local/share/renesas/e2_studio/toolchains/gcc_arm/gcc-arm-none-eabi-6-2017-q2-update/arm-none-eabi/include/c++/6.3.1/bits/stl_algo.h ****     {
 703:/home/zkmike/.local/share/renesas/e2_studio/toolchains/gcc_arm/gcc-arm-none-eabi-6-2017-q2-update/arm-none-eabi/include/c++/6.3.1/bits/stl_algo.h ****       // concept requirements
 704:/home/zkmike/.local/share/renesas/e2_studio/toolchains/gcc_arm/gcc-arm-none-eabi-6-2017-q2-update/arm-none-eabi/include/c++/6.3.1/bits/stl_algo.h ****       __glibcxx_function_requires(_InputIteratorConcept<_InputIterator>)
 705:/home/zkmike/.local/share/renesas/e2_studio/toolchains/gcc_arm/gcc-arm-none-eabi-6-2017-q2-update/arm-none-eabi/include/c++/6.3.1/bits/stl_algo.h ****       __glibcxx_function_requires(_OutputIteratorConcept<_OutputIterator,
 706:/home/zkmike/.local/share/renesas/e2_studio/toolchains/gcc_arm/gcc-arm-none-eabi-6-2017-q2-update/arm-none-eabi/include/c++/6.3.1/bits/stl_algo.h **** 	    typename iterator_traits<_InputIterator>::value_type>)
 707:/home/zkmike/.local/share/renesas/e2_studio/toolchains/gcc_arm/gcc-arm-none-eabi-6-2017-q2-update/arm-none-eabi/include/c++/6.3.1/bits/stl_algo.h ****       __glibcxx_function_requires(_UnaryPredicateConcept<_Predicate,
 708:/home/zkmike/.local/share/renesas/e2_studio/toolchains/gcc_arm/gcc-arm-none-eabi-6-2017-q2-update/arm-none-eabi/include/c++/6.3.1/bits/stl_algo.h **** 	    typename iterator_traits<_InputIterator>::value_type>)
 709:/home/zkmike/.local/share/renesas/e2_studio/toolchains/gcc_arm/gcc-arm-none-eabi-6-2017-q2-update/arm-none-eabi/include/c++/6.3.1/bits/stl_algo.h ****       __glibcxx_requires_valid_range(__first, __last);
 710:/home/zkmike/.local/share/renesas/e2_studio/toolchains/gcc_arm/gcc-arm-none-eabi-6-2017-q2-update/arm-none-eabi/include/c++/6.3.1/bits/stl_algo.h **** 
 711:/home/zkmike/.local/share/renesas/e2_studio/toolchains/gcc_arm/gcc-arm-none-eabi-6-2017-q2-update/arm-none-eabi/include/c++/6.3.1/bits/stl_algo.h ****       return std::__remove_copy_if(__first, __last, __result,
 712:/home/zkmike/.local/share/renesas/e2_studio/toolchains/gcc_arm/gcc-arm-none-eabi-6-2017-q2-update/arm-none-eabi/include/c++/6.3.1/bits/stl_algo.h **** 				   __gnu_cxx::__ops::__pred_iter(__pred));
 713:/home/zkmike/.local/share/renesas/e2_studio/toolchains/gcc_arm/gcc-arm-none-eabi-6-2017-q2-update/arm-none-eabi/include/c++/6.3.1/bits/stl_algo.h ****     }
 714:/home/zkmike/.local/share/renesas/e2_studio/toolchains/gcc_arm/gcc-arm-none-eabi-6-2017-q2-update/arm-none-eabi/include/c++/6.3.1/bits/stl_algo.h **** 
 715:/home/zkmike/.local/share/renesas/e2_studio/toolchains/gcc_arm/gcc-arm-none-eabi-6-2017-q2-update/arm-none-eabi/include/c++/6.3.1/bits/stl_algo.h **** #if __cplusplus >= 201103L
 716:/home/zkmike/.local/share/renesas/e2_studio/toolchains/gcc_arm/gcc-arm-none-eabi-6-2017-q2-update/arm-none-eabi/include/c++/6.3.1/bits/stl_algo.h ****   /**
 717:/home/zkmike/.local/share/renesas/e2_studio/toolchains/gcc_arm/gcc-arm-none-eabi-6-2017-q2-update/arm-none-eabi/include/c++/6.3.1/bits/stl_algo.h ****    *  @brief Copy the elements of a sequence for which a predicate is true.
 718:/home/zkmike/.local/share/renesas/e2_studio/toolchains/gcc_arm/gcc-arm-none-eabi-6-2017-q2-update/arm-none-eabi/include/c++/6.3.1/bits/stl_algo.h ****    *  @ingroup mutating_algorithms
 719:/home/zkmike/.local/share/renesas/e2_studio/toolchains/gcc_arm/gcc-arm-none-eabi-6-2017-q2-update/arm-none-eabi/include/c++/6.3.1/bits/stl_algo.h ****    *  @param  __first   An input iterator.
 720:/home/zkmike/.local/share/renesas/e2_studio/toolchains/gcc_arm/gcc-arm-none-eabi-6-2017-q2-update/arm-none-eabi/include/c++/6.3.1/bits/stl_algo.h ****    *  @param  __last    An input iterator.
 721:/home/zkmike/.local/share/renesas/e2_studio/toolchains/gcc_arm/gcc-arm-none-eabi-6-2017-q2-update/arm-none-eabi/include/c++/6.3.1/bits/stl_algo.h ****    *  @param  __result  An output iterator.
 722:/home/zkmike/.local/share/renesas/e2_studio/toolchains/gcc_arm/gcc-arm-none-eabi-6-2017-q2-update/arm-none-eabi/include/c++/6.3.1/bits/stl_algo.h ****    *  @param  __pred    A predicate.
 723:/home/zkmike/.local/share/renesas/e2_studio/toolchains/gcc_arm/gcc-arm-none-eabi-6-2017-q2-update/arm-none-eabi/include/c++/6.3.1/bits/stl_algo.h ****    *  @return   An iterator designating the end of the resulting sequence.
 724:/home/zkmike/.local/share/renesas/e2_studio/toolchains/gcc_arm/gcc-arm-none-eabi-6-2017-q2-update/arm-none-eabi/include/c++/6.3.1/bits/stl_algo.h ****    *
 725:/home/zkmike/.local/share/renesas/e2_studio/toolchains/gcc_arm/gcc-arm-none-eabi-6-2017-q2-update/arm-none-eabi/include/c++/6.3.1/bits/stl_algo.h ****    *  Copies each element in the range @p [__first,__last) for which
 726:/home/zkmike/.local/share/renesas/e2_studio/toolchains/gcc_arm/gcc-arm-none-eabi-6-2017-q2-update/arm-none-eabi/include/c++/6.3.1/bits/stl_algo.h ****    *  @p __pred returns true to the range beginning at @p __result.
 727:/home/zkmike/.local/share/renesas/e2_studio/toolchains/gcc_arm/gcc-arm-none-eabi-6-2017-q2-update/arm-none-eabi/include/c++/6.3.1/bits/stl_algo.h ****    *
 728:/home/zkmike/.local/share/renesas/e2_studio/toolchains/gcc_arm/gcc-arm-none-eabi-6-2017-q2-update/arm-none-eabi/include/c++/6.3.1/bits/stl_algo.h ****    *  copy_if() is stable, so the relative order of elements that are
 729:/home/zkmike/.local/share/renesas/e2_studio/toolchains/gcc_arm/gcc-arm-none-eabi-6-2017-q2-update/arm-none-eabi/include/c++/6.3.1/bits/stl_algo.h ****    *  copied is unchanged.
 730:/home/zkmike/.local/share/renesas/e2_studio/toolchains/gcc_arm/gcc-arm-none-eabi-6-2017-q2-update/arm-none-eabi/include/c++/6.3.1/bits/stl_algo.h ****   */
 731:/home/zkmike/.local/share/renesas/e2_studio/toolchains/gcc_arm/gcc-arm-none-eabi-6-2017-q2-update/arm-none-eabi/include/c++/6.3.1/bits/stl_algo.h ****   template<typename _InputIterator, typename _OutputIterator,
 732:/home/zkmike/.local/share/renesas/e2_studio/toolchains/gcc_arm/gcc-arm-none-eabi-6-2017-q2-update/arm-none-eabi/include/c++/6.3.1/bits/stl_algo.h **** 	   typename _Predicate>
 733:/home/zkmike/.local/share/renesas/e2_studio/toolchains/gcc_arm/gcc-arm-none-eabi-6-2017-q2-update/arm-none-eabi/include/c++/6.3.1/bits/stl_algo.h ****     _OutputIterator
 734:/home/zkmike/.local/share/renesas/e2_studio/toolchains/gcc_arm/gcc-arm-none-eabi-6-2017-q2-update/arm-none-eabi/include/c++/6.3.1/bits/stl_algo.h ****     copy_if(_InputIterator __first, _InputIterator __last,
 735:/home/zkmike/.local/share/renesas/e2_studio/toolchains/gcc_arm/gcc-arm-none-eabi-6-2017-q2-update/arm-none-eabi/include/c++/6.3.1/bits/stl_algo.h **** 	    _OutputIterator __result, _Predicate __pred)
 736:/home/zkmike/.local/share/renesas/e2_studio/toolchains/gcc_arm/gcc-arm-none-eabi-6-2017-q2-update/arm-none-eabi/include/c++/6.3.1/bits/stl_algo.h ****     {
 737:/home/zkmike/.local/share/renesas/e2_studio/toolchains/gcc_arm/gcc-arm-none-eabi-6-2017-q2-update/arm-none-eabi/include/c++/6.3.1/bits/stl_algo.h ****       // concept requirements
 738:/home/zkmike/.local/share/renesas/e2_studio/toolchains/gcc_arm/gcc-arm-none-eabi-6-2017-q2-update/arm-none-eabi/include/c++/6.3.1/bits/stl_algo.h ****       __glibcxx_function_requires(_InputIteratorConcept<_InputIterator>)
 739:/home/zkmike/.local/share/renesas/e2_studio/toolchains/gcc_arm/gcc-arm-none-eabi-6-2017-q2-update/arm-none-eabi/include/c++/6.3.1/bits/stl_algo.h ****       __glibcxx_function_requires(_OutputIteratorConcept<_OutputIterator,
 740:/home/zkmike/.local/share/renesas/e2_studio/toolchains/gcc_arm/gcc-arm-none-eabi-6-2017-q2-update/arm-none-eabi/include/c++/6.3.1/bits/stl_algo.h **** 	    typename iterator_traits<_InputIterator>::value_type>)
 741:/home/zkmike/.local/share/renesas/e2_studio/toolchains/gcc_arm/gcc-arm-none-eabi-6-2017-q2-update/arm-none-eabi/include/c++/6.3.1/bits/stl_algo.h ****       __glibcxx_function_requires(_UnaryPredicateConcept<_Predicate,
 742:/home/zkmike/.local/share/renesas/e2_studio/toolchains/gcc_arm/gcc-arm-none-eabi-6-2017-q2-update/arm-none-eabi/include/c++/6.3.1/bits/stl_algo.h **** 	    typename iterator_traits<_InputIterator>::value_type>)
 743:/home/zkmike/.local/share/renesas/e2_studio/toolchains/gcc_arm/gcc-arm-none-eabi-6-2017-q2-update/arm-none-eabi/include/c++/6.3.1/bits/stl_algo.h ****       __glibcxx_requires_valid_range(__first, __last);
 744:/home/zkmike/.local/share/renesas/e2_studio/toolchains/gcc_arm/gcc-arm-none-eabi-6-2017-q2-update/arm-none-eabi/include/c++/6.3.1/bits/stl_algo.h **** 
 745:/home/zkmike/.local/share/renesas/e2_studio/toolchains/gcc_arm/gcc-arm-none-eabi-6-2017-q2-update/arm-none-eabi/include/c++/6.3.1/bits/stl_algo.h ****       for (; __first != __last; ++__first)
 746:/home/zkmike/.local/share/renesas/e2_studio/toolchains/gcc_arm/gcc-arm-none-eabi-6-2017-q2-update/arm-none-eabi/include/c++/6.3.1/bits/stl_algo.h **** 	if (__pred(*__first))
 747:/home/zkmike/.local/share/renesas/e2_studio/toolchains/gcc_arm/gcc-arm-none-eabi-6-2017-q2-update/arm-none-eabi/include/c++/6.3.1/bits/stl_algo.h **** 	  {
 748:/home/zkmike/.local/share/renesas/e2_studio/toolchains/gcc_arm/gcc-arm-none-eabi-6-2017-q2-update/arm-none-eabi/include/c++/6.3.1/bits/stl_algo.h **** 	    *__result = *__first;
 749:/home/zkmike/.local/share/renesas/e2_studio/toolchains/gcc_arm/gcc-arm-none-eabi-6-2017-q2-update/arm-none-eabi/include/c++/6.3.1/bits/stl_algo.h **** 	    ++__result;
 750:/home/zkmike/.local/share/renesas/e2_studio/toolchains/gcc_arm/gcc-arm-none-eabi-6-2017-q2-update/arm-none-eabi/include/c++/6.3.1/bits/stl_algo.h **** 	  }
 751:/home/zkmike/.local/share/renesas/e2_studio/toolchains/gcc_arm/gcc-arm-none-eabi-6-2017-q2-update/arm-none-eabi/include/c++/6.3.1/bits/stl_algo.h ****       return __result;
 752:/home/zkmike/.local/share/renesas/e2_studio/toolchains/gcc_arm/gcc-arm-none-eabi-6-2017-q2-update/arm-none-eabi/include/c++/6.3.1/bits/stl_algo.h ****     }
 753:/home/zkmike/.local/share/renesas/e2_studio/toolchains/gcc_arm/gcc-arm-none-eabi-6-2017-q2-update/arm-none-eabi/include/c++/6.3.1/bits/stl_algo.h **** 
 754:/home/zkmike/.local/share/renesas/e2_studio/toolchains/gcc_arm/gcc-arm-none-eabi-6-2017-q2-update/arm-none-eabi/include/c++/6.3.1/bits/stl_algo.h ****   template<typename _InputIterator, typename _Size, typename _OutputIterator>
