   1              		.cpu cortex-a9
   2              		.eabi_attribute 28, 1
   3              		.eabi_attribute 20, 1
   4              		.eabi_attribute 21, 1
   5              		.eabi_attribute 23, 3
   6              		.eabi_attribute 24, 1
   7              		.eabi_attribute 25, 1
   8              		.eabi_attribute 26, 1
   9              		.eabi_attribute 30, 1
  10              		.eabi_attribute 34, 0
  11              		.eabi_attribute 18, 4
  12              		.file	"WhiteRectangleDetector.cpp"
  13              		.text
  14              	.Ltext0:
  15              		.cfi_sections	.debug_frame
  16              		.section	.text._ZNK5zxing9Exception4whatEv,"axG",%progbits,_ZNK5zxing9Exception4whatEv,comdat
  17              		.align	2
  18              		.weak	_ZNK5zxing9Exception4whatEv
  19              		.syntax unified
  20              		.arm
  21              		.fpu neon
  23              	_ZNK5zxing9Exception4whatEv:
  24              		.fnstart
  25              	.LFB941:
  26              		.file 1 "/home/zkmike/workspace/RZA2M/rza2m_2d_barcode_sample_freertos_gcc/src/zxing_lib/zxing/Exc
   1:/home/zkmike/workspace/RZA2M/rza2m_2d_barcode_sample_freertos_gcc/src/zxing_lib/zxing/Exception.h **** // -*- mode:c++; tab-width:2; indent-tabs-mode:nil; c-basic-offset:2 -*-
   2:/home/zkmike/workspace/RZA2M/rza2m_2d_barcode_sample_freertos_gcc/src/zxing_lib/zxing/Exception.h **** #ifndef __EXCEPTION_H__
   3:/home/zkmike/workspace/RZA2M/rza2m_2d_barcode_sample_freertos_gcc/src/zxing_lib/zxing/Exception.h **** #define __EXCEPTION_H__
   4:/home/zkmike/workspace/RZA2M/rza2m_2d_barcode_sample_freertos_gcc/src/zxing_lib/zxing/Exception.h **** 
   5:/home/zkmike/workspace/RZA2M/rza2m_2d_barcode_sample_freertos_gcc/src/zxing_lib/zxing/Exception.h **** /*
   6:/home/zkmike/workspace/RZA2M/rza2m_2d_barcode_sample_freertos_gcc/src/zxing_lib/zxing/Exception.h ****  *  Exception.h
   7:/home/zkmike/workspace/RZA2M/rza2m_2d_barcode_sample_freertos_gcc/src/zxing_lib/zxing/Exception.h ****  *  ZXing
   8:/home/zkmike/workspace/RZA2M/rza2m_2d_barcode_sample_freertos_gcc/src/zxing_lib/zxing/Exception.h ****  *
   9:/home/zkmike/workspace/RZA2M/rza2m_2d_barcode_sample_freertos_gcc/src/zxing_lib/zxing/Exception.h ****  *  Copyright 2010 ZXing authors All rights reserved.
  10:/home/zkmike/workspace/RZA2M/rza2m_2d_barcode_sample_freertos_gcc/src/zxing_lib/zxing/Exception.h ****  *
  11:/home/zkmike/workspace/RZA2M/rza2m_2d_barcode_sample_freertos_gcc/src/zxing_lib/zxing/Exception.h ****  * Licensed under the Apache License, Version 2.0 (the "License");
  12:/home/zkmike/workspace/RZA2M/rza2m_2d_barcode_sample_freertos_gcc/src/zxing_lib/zxing/Exception.h ****  * you may not use this file except in compliance with the License.
  13:/home/zkmike/workspace/RZA2M/rza2m_2d_barcode_sample_freertos_gcc/src/zxing_lib/zxing/Exception.h ****  * You may obtain a copy of the License at
  14:/home/zkmike/workspace/RZA2M/rza2m_2d_barcode_sample_freertos_gcc/src/zxing_lib/zxing/Exception.h ****  *
  15:/home/zkmike/workspace/RZA2M/rza2m_2d_barcode_sample_freertos_gcc/src/zxing_lib/zxing/Exception.h ****  *      http://www.apache.org/licenses/LICENSE-2.0
  16:/home/zkmike/workspace/RZA2M/rza2m_2d_barcode_sample_freertos_gcc/src/zxing_lib/zxing/Exception.h ****  *
  17:/home/zkmike/workspace/RZA2M/rza2m_2d_barcode_sample_freertos_gcc/src/zxing_lib/zxing/Exception.h ****  * Unless required by applicable law or agreed to in writing, software
  18:/home/zkmike/workspace/RZA2M/rza2m_2d_barcode_sample_freertos_gcc/src/zxing_lib/zxing/Exception.h ****  * distributed under the License is distributed on an "AS IS" BASIS,
  19:/home/zkmike/workspace/RZA2M/rza2m_2d_barcode_sample_freertos_gcc/src/zxing_lib/zxing/Exception.h ****  * WITHOUT WARRANTIES OR CONDITIONS OF ANY KIND, either express or implied.
  20:/home/zkmike/workspace/RZA2M/rza2m_2d_barcode_sample_freertos_gcc/src/zxing_lib/zxing/Exception.h ****  * See the License for the specific language governing permissions and
  21:/home/zkmike/workspace/RZA2M/rza2m_2d_barcode_sample_freertos_gcc/src/zxing_lib/zxing/Exception.h ****  * limitations under the License.
  22:/home/zkmike/workspace/RZA2M/rza2m_2d_barcode_sample_freertos_gcc/src/zxing_lib/zxing/Exception.h ****  */
  23:/home/zkmike/workspace/RZA2M/rza2m_2d_barcode_sample_freertos_gcc/src/zxing_lib/zxing/Exception.h **** 
  24:/home/zkmike/workspace/RZA2M/rza2m_2d_barcode_sample_freertos_gcc/src/zxing_lib/zxing/Exception.h **** #include <string>
  25:/home/zkmike/workspace/RZA2M/rza2m_2d_barcode_sample_freertos_gcc/src/zxing_lib/zxing/Exception.h **** #include <exception>
  26:/home/zkmike/workspace/RZA2M/rza2m_2d_barcode_sample_freertos_gcc/src/zxing_lib/zxing/Exception.h **** 
  27:/home/zkmike/workspace/RZA2M/rza2m_2d_barcode_sample_freertos_gcc/src/zxing_lib/zxing/Exception.h **** namespace zxing {
  28:/home/zkmike/workspace/RZA2M/rza2m_2d_barcode_sample_freertos_gcc/src/zxing_lib/zxing/Exception.h **** 
  29:/home/zkmike/workspace/RZA2M/rza2m_2d_barcode_sample_freertos_gcc/src/zxing_lib/zxing/Exception.h **** class Exception : public std::exception {
  30:/home/zkmike/workspace/RZA2M/rza2m_2d_barcode_sample_freertos_gcc/src/zxing_lib/zxing/Exception.h **** private:
  31:/home/zkmike/workspace/RZA2M/rza2m_2d_barcode_sample_freertos_gcc/src/zxing_lib/zxing/Exception.h ****   char const* const message;
  32:/home/zkmike/workspace/RZA2M/rza2m_2d_barcode_sample_freertos_gcc/src/zxing_lib/zxing/Exception.h **** 
  33:/home/zkmike/workspace/RZA2M/rza2m_2d_barcode_sample_freertos_gcc/src/zxing_lib/zxing/Exception.h **** public:
  34:/home/zkmike/workspace/RZA2M/rza2m_2d_barcode_sample_freertos_gcc/src/zxing_lib/zxing/Exception.h ****   Exception() throw() : message(0) {}
  35:/home/zkmike/workspace/RZA2M/rza2m_2d_barcode_sample_freertos_gcc/src/zxing_lib/zxing/Exception.h ****   Exception(const char* msg) throw() : message(copy(msg)) {}
  36:/home/zkmike/workspace/RZA2M/rza2m_2d_barcode_sample_freertos_gcc/src/zxing_lib/zxing/Exception.h ****   Exception(Exception const& that) throw() : std::exception(that), message(copy(that.message)) {}
  37:/home/zkmike/workspace/RZA2M/rza2m_2d_barcode_sample_freertos_gcc/src/zxing_lib/zxing/Exception.h ****   ~Exception() throw() {
  38:/home/zkmike/workspace/RZA2M/rza2m_2d_barcode_sample_freertos_gcc/src/zxing_lib/zxing/Exception.h ****     if(message) {
  39:/home/zkmike/workspace/RZA2M/rza2m_2d_barcode_sample_freertos_gcc/src/zxing_lib/zxing/Exception.h ****       deleteMessage();
  40:/home/zkmike/workspace/RZA2M/rza2m_2d_barcode_sample_freertos_gcc/src/zxing_lib/zxing/Exception.h ****     }
  41:/home/zkmike/workspace/RZA2M/rza2m_2d_barcode_sample_freertos_gcc/src/zxing_lib/zxing/Exception.h ****   }
  42:/home/zkmike/workspace/RZA2M/rza2m_2d_barcode_sample_freertos_gcc/src/zxing_lib/zxing/Exception.h ****   char const* what() const throw() {return message ? message : "";}
  27              		.loc 1 42 0
  28              		.cfi_startproc
  29              		@ args = 0, pretend = 0, frame = 0
  30              		@ frame_needed = 0, uses_anonymous_args = 0
  31              		@ link register save eliminated.
  32              	.LVL0:
  33              		.loc 1 42 0
  34 0000 040090E5 		ldr	r0, [r0, #4]
  35              	.LVL1:
  36 0004 000050E3 		cmp	r0, #0
  37 0008 1EFF2F11 		bxne	lr
  38 000c 000000E3 		movw	r0, #:lower16:.LC0
  39 0010 000040E3 		movt	r0, #:upper16:.LC0
  40 0014 1EFF2FE1 		bx	lr
  41              		.cfi_endproc
  42              	.LFE941:
  43              		.cantunwind
  44              		.fnend
  46              		.section	.text._ZN5zxing22WhiteRectangleDetectorD2Ev,"axG",%progbits,_ZN5zxing22WhiteRectangleDete
  47              		.align	2
  48              		.weak	_ZN5zxing22WhiteRectangleDetectorD2Ev
  49              		.syntax unified
  50              		.arm
  51              		.fpu neon
  53              	_ZN5zxing22WhiteRectangleDetectorD2Ev:
  54              		.fnstart
  55              	.LFB2866:
  56              		.file 2 "/home/zkmike/workspace/RZA2M/rza2m_2d_barcode_sample_freertos_gcc/src/zxing_lib/zxing/com
   1:/home/zkmike/workspace/RZA2M/rza2m_2d_barcode_sample_freertos_gcc/src/zxing_lib/zxing/common/detector/WhiteRectangleDetector.h **** #ifndef __WHITERECTANGLEDETECTOR_H__
   2:/home/zkmike/workspace/RZA2M/rza2m_2d_barcode_sample_freertos_gcc/src/zxing_lib/zxing/common/detector/WhiteRectangleDetector.h **** #define __WHITERECTANGLEDETECTOR_H__
   3:/home/zkmike/workspace/RZA2M/rza2m_2d_barcode_sample_freertos_gcc/src/zxing_lib/zxing/common/detector/WhiteRectangleDetector.h **** 
   4:/home/zkmike/workspace/RZA2M/rza2m_2d_barcode_sample_freertos_gcc/src/zxing_lib/zxing/common/detector/WhiteRectangleDetector.h **** /*
   5:/home/zkmike/workspace/RZA2M/rza2m_2d_barcode_sample_freertos_gcc/src/zxing_lib/zxing/common/detector/WhiteRectangleDetector.h ****  *  WhiteRectangleDetector.h
   6:/home/zkmike/workspace/RZA2M/rza2m_2d_barcode_sample_freertos_gcc/src/zxing_lib/zxing/common/detector/WhiteRectangleDetector.h ****  *
   7:/home/zkmike/workspace/RZA2M/rza2m_2d_barcode_sample_freertos_gcc/src/zxing_lib/zxing/common/detector/WhiteRectangleDetector.h ****  *
   8:/home/zkmike/workspace/RZA2M/rza2m_2d_barcode_sample_freertos_gcc/src/zxing_lib/zxing/common/detector/WhiteRectangleDetector.h ****  *  Created by Luiz Silva on 09/02/2010.
   9:/home/zkmike/workspace/RZA2M/rza2m_2d_barcode_sample_freertos_gcc/src/zxing_lib/zxing/common/detector/WhiteRectangleDetector.h ****  *  Copyright 2010  authors All rights reserved.
  10:/home/zkmike/workspace/RZA2M/rza2m_2d_barcode_sample_freertos_gcc/src/zxing_lib/zxing/common/detector/WhiteRectangleDetector.h ****  *
  11:/home/zkmike/workspace/RZA2M/rza2m_2d_barcode_sample_freertos_gcc/src/zxing_lib/zxing/common/detector/WhiteRectangleDetector.h ****  * Licensed under the Apache License, Version 2.0 (the "License");
  12:/home/zkmike/workspace/RZA2M/rza2m_2d_barcode_sample_freertos_gcc/src/zxing_lib/zxing/common/detector/WhiteRectangleDetector.h ****  * you may not use this file except in compliance with the License.
  13:/home/zkmike/workspace/RZA2M/rza2m_2d_barcode_sample_freertos_gcc/src/zxing_lib/zxing/common/detector/WhiteRectangleDetector.h ****  * You may obtain a copy of the License at
  14:/home/zkmike/workspace/RZA2M/rza2m_2d_barcode_sample_freertos_gcc/src/zxing_lib/zxing/common/detector/WhiteRectangleDetector.h ****  *
  15:/home/zkmike/workspace/RZA2M/rza2m_2d_barcode_sample_freertos_gcc/src/zxing_lib/zxing/common/detector/WhiteRectangleDetector.h ****  *      http://www.apache.org/licenses/LICENSE-2.0
  16:/home/zkmike/workspace/RZA2M/rza2m_2d_barcode_sample_freertos_gcc/src/zxing_lib/zxing/common/detector/WhiteRectangleDetector.h ****  *
  17:/home/zkmike/workspace/RZA2M/rza2m_2d_barcode_sample_freertos_gcc/src/zxing_lib/zxing/common/detector/WhiteRectangleDetector.h ****  * Unless required by applicable law or agreed to in writing, software
  18:/home/zkmike/workspace/RZA2M/rza2m_2d_barcode_sample_freertos_gcc/src/zxing_lib/zxing/common/detector/WhiteRectangleDetector.h ****  * distributed under the License is distributed on an "AS IS" BASIS,
  19:/home/zkmike/workspace/RZA2M/rza2m_2d_barcode_sample_freertos_gcc/src/zxing_lib/zxing/common/detector/WhiteRectangleDetector.h ****  * WITHOUT WARRANTIES OR CONDITIONS OF ANY KIND, either express or implied.
  20:/home/zkmike/workspace/RZA2M/rza2m_2d_barcode_sample_freertos_gcc/src/zxing_lib/zxing/common/detector/WhiteRectangleDetector.h ****  * See the License for the specific language governing permissions and
  21:/home/zkmike/workspace/RZA2M/rza2m_2d_barcode_sample_freertos_gcc/src/zxing_lib/zxing/common/detector/WhiteRectangleDetector.h ****  * limitations under the License.
  22:/home/zkmike/workspace/RZA2M/rza2m_2d_barcode_sample_freertos_gcc/src/zxing_lib/zxing/common/detector/WhiteRectangleDetector.h ****  */
  23:/home/zkmike/workspace/RZA2M/rza2m_2d_barcode_sample_freertos_gcc/src/zxing_lib/zxing/common/detector/WhiteRectangleDetector.h **** 
  24:/home/zkmike/workspace/RZA2M/rza2m_2d_barcode_sample_freertos_gcc/src/zxing_lib/zxing/common/detector/WhiteRectangleDetector.h **** #include <vector>
  25:/home/zkmike/workspace/RZA2M/rza2m_2d_barcode_sample_freertos_gcc/src/zxing_lib/zxing/common/detector/WhiteRectangleDetector.h **** #include <zxing/ReaderException.h>
  26:/home/zkmike/workspace/RZA2M/rza2m_2d_barcode_sample_freertos_gcc/src/zxing_lib/zxing/common/detector/WhiteRectangleDetector.h **** #include <zxing/ResultPoint.h>
  27:/home/zkmike/workspace/RZA2M/rza2m_2d_barcode_sample_freertos_gcc/src/zxing_lib/zxing/common/detector/WhiteRectangleDetector.h **** #include <zxing/common/BitMatrix.h>
  28:/home/zkmike/workspace/RZA2M/rza2m_2d_barcode_sample_freertos_gcc/src/zxing_lib/zxing/common/detector/WhiteRectangleDetector.h **** #include <zxing/common/Counted.h>
  29:/home/zkmike/workspace/RZA2M/rza2m_2d_barcode_sample_freertos_gcc/src/zxing_lib/zxing/common/detector/WhiteRectangleDetector.h **** #include <zxing/ResultPoint.h>
  30:/home/zkmike/workspace/RZA2M/rza2m_2d_barcode_sample_freertos_gcc/src/zxing_lib/zxing/common/detector/WhiteRectangleDetector.h **** 
  31:/home/zkmike/workspace/RZA2M/rza2m_2d_barcode_sample_freertos_gcc/src/zxing_lib/zxing/common/detector/WhiteRectangleDetector.h **** 
  32:/home/zkmike/workspace/RZA2M/rza2m_2d_barcode_sample_freertos_gcc/src/zxing_lib/zxing/common/detector/WhiteRectangleDetector.h **** namespace zxing {
  33:/home/zkmike/workspace/RZA2M/rza2m_2d_barcode_sample_freertos_gcc/src/zxing_lib/zxing/common/detector/WhiteRectangleDetector.h **** 
  34:/home/zkmike/workspace/RZA2M/rza2m_2d_barcode_sample_freertos_gcc/src/zxing_lib/zxing/common/detector/WhiteRectangleDetector.h **** class WhiteRectangleDetector : public Counted {
  57              		.loc 2 34 0
  58              		.cfi_startproc
  59              		@ args = 0, pretend = 0, frame = 0
  60              		@ frame_needed = 0, uses_anonymous_args = 0
  61              	.LVL2:
  62 0000 10402DE9 		push	{r4, lr}
  63              		.cfi_def_cfa_offset 8
  64              		.cfi_offset 4, -8
  65              		.cfi_offset 14, -4
  66 0004 0040A0E1 		mov	r4, r0
  67              	.LBB677:
  68              		.loc 2 34 0
  69 0008 44309FE5 		ldr	r3, .L7
  70 000c 003080E5 		str	r3, [r0]
  71              	.LVL3:
  72              	.LBB678:
  73              	.LBB679:
  74              		.file 3 "/home/zkmike/workspace/RZA2M/rza2m_2d_barcode_sample_freertos_gcc/src/zxing_lib/zxing/com
   1:/home/zkmike/workspace/RZA2M/rza2m_2d_barcode_sample_freertos_gcc/src/zxing_lib/zxing/common/Counted.h **** // -*- mode:c++; tab-width:2; indent-tabs-mode:nil; c-basic-offset:2 -*-
   2:/home/zkmike/workspace/RZA2M/rza2m_2d_barcode_sample_freertos_gcc/src/zxing_lib/zxing/common/Counted.h **** #ifndef __COUNTED_H__
   3:/home/zkmike/workspace/RZA2M/rza2m_2d_barcode_sample_freertos_gcc/src/zxing_lib/zxing/common/Counted.h **** #define __COUNTED_H__
   4:/home/zkmike/workspace/RZA2M/rza2m_2d_barcode_sample_freertos_gcc/src/zxing_lib/zxing/common/Counted.h **** 
   5:/home/zkmike/workspace/RZA2M/rza2m_2d_barcode_sample_freertos_gcc/src/zxing_lib/zxing/common/Counted.h **** /*
   6:/home/zkmike/workspace/RZA2M/rza2m_2d_barcode_sample_freertos_gcc/src/zxing_lib/zxing/common/Counted.h ****  *  Copyright 2010 ZXing authors All rights reserved.
   7:/home/zkmike/workspace/RZA2M/rza2m_2d_barcode_sample_freertos_gcc/src/zxing_lib/zxing/common/Counted.h ****  *
   8:/home/zkmike/workspace/RZA2M/rza2m_2d_barcode_sample_freertos_gcc/src/zxing_lib/zxing/common/Counted.h ****  * Licensed under the Apache License, Version 2.0 (the "License");
   9:/home/zkmike/workspace/RZA2M/rza2m_2d_barcode_sample_freertos_gcc/src/zxing_lib/zxing/common/Counted.h ****  * you may not use this file except in compliance with the License.
  10:/home/zkmike/workspace/RZA2M/rza2m_2d_barcode_sample_freertos_gcc/src/zxing_lib/zxing/common/Counted.h ****  * You may obtain a copy of the License at
  11:/home/zkmike/workspace/RZA2M/rza2m_2d_barcode_sample_freertos_gcc/src/zxing_lib/zxing/common/Counted.h ****  *
  12:/home/zkmike/workspace/RZA2M/rza2m_2d_barcode_sample_freertos_gcc/src/zxing_lib/zxing/common/Counted.h ****  *      http://www.apache.org/licenses/LICENSE-2.0
  13:/home/zkmike/workspace/RZA2M/rza2m_2d_barcode_sample_freertos_gcc/src/zxing_lib/zxing/common/Counted.h ****  *
  14:/home/zkmike/workspace/RZA2M/rza2m_2d_barcode_sample_freertos_gcc/src/zxing_lib/zxing/common/Counted.h ****  * Unless required by applicable law or agreed to in writing, software
  15:/home/zkmike/workspace/RZA2M/rza2m_2d_barcode_sample_freertos_gcc/src/zxing_lib/zxing/common/Counted.h ****  * distributed under the License is distributed on an "AS IS" BASIS,
  16:/home/zkmike/workspace/RZA2M/rza2m_2d_barcode_sample_freertos_gcc/src/zxing_lib/zxing/common/Counted.h ****  * WITHOUT WARRANTIES OR CONDITIONS OF ANY KIND, either express or implied.
  17:/home/zkmike/workspace/RZA2M/rza2m_2d_barcode_sample_freertos_gcc/src/zxing_lib/zxing/common/Counted.h ****  * See the License for the specific language governing permissions and
  18:/home/zkmike/workspace/RZA2M/rza2m_2d_barcode_sample_freertos_gcc/src/zxing_lib/zxing/common/Counted.h ****  * limitations under the License.
  19:/home/zkmike/workspace/RZA2M/rza2m_2d_barcode_sample_freertos_gcc/src/zxing_lib/zxing/common/Counted.h ****  */
  20:/home/zkmike/workspace/RZA2M/rza2m_2d_barcode_sample_freertos_gcc/src/zxing_lib/zxing/common/Counted.h **** 
  21:/home/zkmike/workspace/RZA2M/rza2m_2d_barcode_sample_freertos_gcc/src/zxing_lib/zxing/common/Counted.h **** #include <iostream>
  22:/home/zkmike/workspace/RZA2M/rza2m_2d_barcode_sample_freertos_gcc/src/zxing_lib/zxing/common/Counted.h **** 
  23:/home/zkmike/workspace/RZA2M/rza2m_2d_barcode_sample_freertos_gcc/src/zxing_lib/zxing/common/Counted.h **** namespace zxing {
  24:/home/zkmike/workspace/RZA2M/rza2m_2d_barcode_sample_freertos_gcc/src/zxing_lib/zxing/common/Counted.h **** 
  25:/home/zkmike/workspace/RZA2M/rza2m_2d_barcode_sample_freertos_gcc/src/zxing_lib/zxing/common/Counted.h **** /* base class for reference-counted objects */
  26:/home/zkmike/workspace/RZA2M/rza2m_2d_barcode_sample_freertos_gcc/src/zxing_lib/zxing/common/Counted.h **** class Counted {
  27:/home/zkmike/workspace/RZA2M/rza2m_2d_barcode_sample_freertos_gcc/src/zxing_lib/zxing/common/Counted.h **** private:
  28:/home/zkmike/workspace/RZA2M/rza2m_2d_barcode_sample_freertos_gcc/src/zxing_lib/zxing/common/Counted.h ****   unsigned int count_;
  29:/home/zkmike/workspace/RZA2M/rza2m_2d_barcode_sample_freertos_gcc/src/zxing_lib/zxing/common/Counted.h **** public:
  30:/home/zkmike/workspace/RZA2M/rza2m_2d_barcode_sample_freertos_gcc/src/zxing_lib/zxing/common/Counted.h ****   Counted() :
  31:/home/zkmike/workspace/RZA2M/rza2m_2d_barcode_sample_freertos_gcc/src/zxing_lib/zxing/common/Counted.h ****       count_(0) {
  32:/home/zkmike/workspace/RZA2M/rza2m_2d_barcode_sample_freertos_gcc/src/zxing_lib/zxing/common/Counted.h ****   }
  33:/home/zkmike/workspace/RZA2M/rza2m_2d_barcode_sample_freertos_gcc/src/zxing_lib/zxing/common/Counted.h ****   virtual ~Counted() {
  34:/home/zkmike/workspace/RZA2M/rza2m_2d_barcode_sample_freertos_gcc/src/zxing_lib/zxing/common/Counted.h ****   }
  35:/home/zkmike/workspace/RZA2M/rza2m_2d_barcode_sample_freertos_gcc/src/zxing_lib/zxing/common/Counted.h ****   Counted *retain() {
  36:/home/zkmike/workspace/RZA2M/rza2m_2d_barcode_sample_freertos_gcc/src/zxing_lib/zxing/common/Counted.h ****     count_++;
  37:/home/zkmike/workspace/RZA2M/rza2m_2d_barcode_sample_freertos_gcc/src/zxing_lib/zxing/common/Counted.h ****     return this;
  38:/home/zkmike/workspace/RZA2M/rza2m_2d_barcode_sample_freertos_gcc/src/zxing_lib/zxing/common/Counted.h ****   }
  39:/home/zkmike/workspace/RZA2M/rza2m_2d_barcode_sample_freertos_gcc/src/zxing_lib/zxing/common/Counted.h ****   void release() {
  40:/home/zkmike/workspace/RZA2M/rza2m_2d_barcode_sample_freertos_gcc/src/zxing_lib/zxing/common/Counted.h ****     count_--;
  41:/home/zkmike/workspace/RZA2M/rza2m_2d_barcode_sample_freertos_gcc/src/zxing_lib/zxing/common/Counted.h ****     if (count_ == 0) {
  42:/home/zkmike/workspace/RZA2M/rza2m_2d_barcode_sample_freertos_gcc/src/zxing_lib/zxing/common/Counted.h ****       count_ = 0xDEADF001;
  43:/home/zkmike/workspace/RZA2M/rza2m_2d_barcode_sample_freertos_gcc/src/zxing_lib/zxing/common/Counted.h ****       delete this;
  44:/home/zkmike/workspace/RZA2M/rza2m_2d_barcode_sample_freertos_gcc/src/zxing_lib/zxing/common/Counted.h ****     }
  45:/home/zkmike/workspace/RZA2M/rza2m_2d_barcode_sample_freertos_gcc/src/zxing_lib/zxing/common/Counted.h ****   }
  46:/home/zkmike/workspace/RZA2M/rza2m_2d_barcode_sample_freertos_gcc/src/zxing_lib/zxing/common/Counted.h **** 
  47:/home/zkmike/workspace/RZA2M/rza2m_2d_barcode_sample_freertos_gcc/src/zxing_lib/zxing/common/Counted.h **** 
  48:/home/zkmike/workspace/RZA2M/rza2m_2d_barcode_sample_freertos_gcc/src/zxing_lib/zxing/common/Counted.h ****   /* return the current count for denugging purposes or similar */
  49:/home/zkmike/workspace/RZA2M/rza2m_2d_barcode_sample_freertos_gcc/src/zxing_lib/zxing/common/Counted.h ****   int count() const {
  50:/home/zkmike/workspace/RZA2M/rza2m_2d_barcode_sample_freertos_gcc/src/zxing_lib/zxing/common/Counted.h ****     return count_;
  51:/home/zkmike/workspace/RZA2M/rza2m_2d_barcode_sample_freertos_gcc/src/zxing_lib/zxing/common/Counted.h ****   }
  52:/home/zkmike/workspace/RZA2M/rza2m_2d_barcode_sample_freertos_gcc/src/zxing_lib/zxing/common/Counted.h **** };
  53:/home/zkmike/workspace/RZA2M/rza2m_2d_barcode_sample_freertos_gcc/src/zxing_lib/zxing/common/Counted.h **** 
  54:/home/zkmike/workspace/RZA2M/rza2m_2d_barcode_sample_freertos_gcc/src/zxing_lib/zxing/common/Counted.h **** /* counting reference to reference-counted objects */
  55:/home/zkmike/workspace/RZA2M/rza2m_2d_barcode_sample_freertos_gcc/src/zxing_lib/zxing/common/Counted.h **** template<typename T> class Ref {
  56:/home/zkmike/workspace/RZA2M/rza2m_2d_barcode_sample_freertos_gcc/src/zxing_lib/zxing/common/Counted.h **** private:
  57:/home/zkmike/workspace/RZA2M/rza2m_2d_barcode_sample_freertos_gcc/src/zxing_lib/zxing/common/Counted.h **** public:
  58:/home/zkmike/workspace/RZA2M/rza2m_2d_barcode_sample_freertos_gcc/src/zxing_lib/zxing/common/Counted.h ****   T *object_;
  59:/home/zkmike/workspace/RZA2M/rza2m_2d_barcode_sample_freertos_gcc/src/zxing_lib/zxing/common/Counted.h ****   explicit Ref(T *o = 0) :
  60:/home/zkmike/workspace/RZA2M/rza2m_2d_barcode_sample_freertos_gcc/src/zxing_lib/zxing/common/Counted.h ****       object_(0) {
  61:/home/zkmike/workspace/RZA2M/rza2m_2d_barcode_sample_freertos_gcc/src/zxing_lib/zxing/common/Counted.h ****     reset(o);
  62:/home/zkmike/workspace/RZA2M/rza2m_2d_barcode_sample_freertos_gcc/src/zxing_lib/zxing/common/Counted.h ****   }
  63:/home/zkmike/workspace/RZA2M/rza2m_2d_barcode_sample_freertos_gcc/src/zxing_lib/zxing/common/Counted.h ****   Ref(const Ref &other) :
  64:/home/zkmike/workspace/RZA2M/rza2m_2d_barcode_sample_freertos_gcc/src/zxing_lib/zxing/common/Counted.h ****       object_(0) {
  65:/home/zkmike/workspace/RZA2M/rza2m_2d_barcode_sample_freertos_gcc/src/zxing_lib/zxing/common/Counted.h ****     reset(other.object_);
  66:/home/zkmike/workspace/RZA2M/rza2m_2d_barcode_sample_freertos_gcc/src/zxing_lib/zxing/common/Counted.h ****   }
  67:/home/zkmike/workspace/RZA2M/rza2m_2d_barcode_sample_freertos_gcc/src/zxing_lib/zxing/common/Counted.h **** 
  68:/home/zkmike/workspace/RZA2M/rza2m_2d_barcode_sample_freertos_gcc/src/zxing_lib/zxing/common/Counted.h ****   template<class Y>
  69:/home/zkmike/workspace/RZA2M/rza2m_2d_barcode_sample_freertos_gcc/src/zxing_lib/zxing/common/Counted.h ****   Ref(const Ref<Y> &other) :
  70:/home/zkmike/workspace/RZA2M/rza2m_2d_barcode_sample_freertos_gcc/src/zxing_lib/zxing/common/Counted.h ****       object_(0) {
  71:/home/zkmike/workspace/RZA2M/rza2m_2d_barcode_sample_freertos_gcc/src/zxing_lib/zxing/common/Counted.h ****     reset(other.object_);
  72:/home/zkmike/workspace/RZA2M/rza2m_2d_barcode_sample_freertos_gcc/src/zxing_lib/zxing/common/Counted.h ****   }
  73:/home/zkmike/workspace/RZA2M/rza2m_2d_barcode_sample_freertos_gcc/src/zxing_lib/zxing/common/Counted.h **** 
  74:/home/zkmike/workspace/RZA2M/rza2m_2d_barcode_sample_freertos_gcc/src/zxing_lib/zxing/common/Counted.h ****   ~Ref() {
  75:/home/zkmike/workspace/RZA2M/rza2m_2d_barcode_sample_freertos_gcc/src/zxing_lib/zxing/common/Counted.h ****     if (object_) {
  75              		.loc 3 75 0
  76 0010 080090E5 		ldr	r0, [r0, #8]
  77              	.LVL4:
  78 0014 000050E3 		cmp	r0, #0
  79 0018 0400000A 		beq	.L4
  80              	.LVL5:
  81              	.LBB680:
  82              	.LBB681:
  40:/home/zkmike/workspace/RZA2M/rza2m_2d_barcode_sample_freertos_gcc/src/zxing_lib/zxing/common/Counted.h ****     if (count_ == 0) {
  83              		.loc 3 40 0
  84 001c 043090E5 		ldr	r3, [r0, #4]
  85 0020 013043E2 		sub	r3, r3, #1
  86 0024 043080E5 		str	r3, [r0, #4]
  41:/home/zkmike/workspace/RZA2M/rza2m_2d_barcode_sample_freertos_gcc/src/zxing_lib/zxing/common/Counted.h ****       count_ = 0xDEADF001;
  87              		.loc 3 41 0
  88 0028 000053E3 		cmp	r3, #0
  89 002c 0100000A 		beq	.L6
  90              	.LVL6:
  91              	.L4:
  92              	.LBE681:
  93              	.LBE680:
  94              	.LBE679:
  95              	.LBE678:
  96              	.LBE677:
  97              		.loc 2 34 0
  98 0030 0400A0E1 		mov	r0, r4
  99 0034 1080BDE8 		pop	{r4, pc}
 100              	.LVL7:
 101              	.L6:
 102              	.LBB686:
 103              	.LBB685:
 104              	.LBB684:
 105              	.LBB683:
 106              	.LBB682:
  42:/home/zkmike/workspace/RZA2M/rza2m_2d_barcode_sample_freertos_gcc/src/zxing_lib/zxing/common/Counted.h ****       delete this;
 107              		.loc 3 42 0
 108 0038 01300FE3 		movw	r3, #61441
 109 003c AD3E4DE3 		movt	r3, 57005
 110 0040 043080E5 		str	r3, [r0, #4]
  43:/home/zkmike/workspace/RZA2M/rza2m_2d_barcode_sample_freertos_gcc/src/zxing_lib/zxing/common/Counted.h ****     }
 111              		.loc 3 43 0
 112 0044 003090E5 		ldr	r3, [r0]
 113 0048 043093E5 		ldr	r3, [r3, #4]
 114 004c 33FF2FE1 		blx	r3
 115              	.LVL8:
 116 0050 F6FFFFEA 		b	.L4
 117              	.L8:
 118              		.align	2
 119              	.L7:
 120 0054 08000000 		.word	_ZTVN5zxing22WhiteRectangleDetectorE+8
 121              	.LBE682:
 122              	.LBE683:
 123              	.LBE684:
 124              	.LBE685:
 125              	.LBE686:
 126              		.cfi_endproc
 127              	.LFE2866:
 128              		.cantunwind
 129              		.fnend
 131              		.weak	_ZN5zxing22WhiteRectangleDetectorD1Ev
 132              		.set	_ZN5zxing22WhiteRectangleDetectorD1Ev,_ZN5zxing22WhiteRectangleDetectorD2Ev
 133              		.section	.text._ZN5zxing22WhiteRectangleDetectorD0Ev,"axG",%progbits,_ZN5zxing22WhiteRectangleDete
 134              		.align	2
 135              		.weak	_ZN5zxing22WhiteRectangleDetectorD0Ev
 136              		.syntax unified
 137              		.arm
 138              		.fpu neon
 140              	_ZN5zxing22WhiteRectangleDetectorD0Ev:
 141              		.fnstart
 142              	.LFB2868:
 143              		.loc 2 34 0
 144              		.cfi_startproc
 145              		@ args = 0, pretend = 0, frame = 0
 146              		@ frame_needed = 0, uses_anonymous_args = 0
 147              	.LVL9:
 148 0000 10402DE9 		push	{r4, lr}
 149              		.cfi_def_cfa_offset 8
 150              		.cfi_offset 4, -8
 151              		.cfi_offset 14, -4
 152 0004 0040A0E1 		mov	r4, r0
 153              	.LVL10:
 154              	.LBB687:
 155              	.LBB688:
 156              		.loc 2 34 0
 157 0008 50309FE5 		ldr	r3, .L13
 158 000c 003080E5 		str	r3, [r0]
 159              	.LVL11:
 160              	.LBB689:
 161              	.LBB690:
 162              		.loc 3 75 0
 163 0010 080090E5 		ldr	r0, [r0, #8]
 164              	.LVL12:
 165 0014 000050E3 		cmp	r0, #0
 166 0018 0400000A 		beq	.L10
 167              	.LVL13:
 168              	.LBB691:
 169              	.LBB692:
  40:/home/zkmike/workspace/RZA2M/rza2m_2d_barcode_sample_freertos_gcc/src/zxing_lib/zxing/common/Counted.h ****     if (count_ == 0) {
 170              		.loc 3 40 0
 171 001c 043090E5 		ldr	r3, [r0, #4]
 172 0020 013043E2 		sub	r3, r3, #1
 173 0024 043080E5 		str	r3, [r0, #4]
  41:/home/zkmike/workspace/RZA2M/rza2m_2d_barcode_sample_freertos_gcc/src/zxing_lib/zxing/common/Counted.h ****       count_ = 0xDEADF001;
 174              		.loc 3 41 0
 175 0028 000053E3 		cmp	r3, #0
 176 002c 0400000A 		beq	.L12
 177              	.LVL14:
 178              	.L10:
 179              	.LBE692:
 180              	.LBE691:
 181              	.LBE690:
 182              	.LBE689:
 183              	.LBE688:
 184              	.LBE687:
 185              		.loc 2 34 0
 186 0030 2410A0E3 		mov	r1, #36
 187 0034 0400A0E1 		mov	r0, r4
 188 0038 FEFFFFEB 		bl	_ZdlPvj
 189              	.LVL15:
 190 003c 0400A0E1 		mov	r0, r4
 191 0040 1080BDE8 		pop	{r4, pc}
 192              	.LVL16:
 193              	.L12:
 194              	.LBB698:
 195              	.LBB697:
 196              	.LBB696:
 197              	.LBB695:
 198              	.LBB694:
 199              	.LBB693:
  42:/home/zkmike/workspace/RZA2M/rza2m_2d_barcode_sample_freertos_gcc/src/zxing_lib/zxing/common/Counted.h ****       delete this;
 200              		.loc 3 42 0
 201 0044 01300FE3 		movw	r3, #61441
 202 0048 AD3E4DE3 		movt	r3, 57005
 203 004c 043080E5 		str	r3, [r0, #4]
  43:/home/zkmike/workspace/RZA2M/rza2m_2d_barcode_sample_freertos_gcc/src/zxing_lib/zxing/common/Counted.h ****     }
 204              		.loc 3 43 0
 205 0050 003090E5 		ldr	r3, [r0]
 206 0054 043093E5 		ldr	r3, [r3, #4]
 207 0058 33FF2FE1 		blx	r3
 208              	.LVL17:
 209 005c F3FFFFEA 		b	.L10
 210              	.L14:
 211              		.align	2
 212              	.L13:
 213 0060 08000000 		.word	_ZTVN5zxing22WhiteRectangleDetectorE+8
 214              	.LBE693:
 215              	.LBE694:
 216              	.LBE695:
 217              	.LBE696:
 218              	.LBE697:
 219              	.LBE698:
 220              		.cfi_endproc
 221              	.LFE2868:
 222              		.cantunwind
 223              		.fnend
 225              		.section	.text._ZN5zxing9ExceptionD2Ev,"axG",%progbits,_ZN5zxing9ExceptionD5Ev,comdat
 226              		.align	2
 227              		.weak	_ZN5zxing9ExceptionD2Ev
 228              		.syntax unified
 229              		.arm
 230              		.fpu neon
 232              	_ZN5zxing9ExceptionD2Ev:
 233              		.fnstart
 234              	.LFB938:
  37:/home/zkmike/workspace/RZA2M/rza2m_2d_barcode_sample_freertos_gcc/src/zxing_lib/zxing/Exception.h ****     if(message) {
 235              		.loc 1 37 0
 236              		.cfi_startproc
 237              		.cfi_personality 0,__gxx_personality_v0
 238              		.cfi_lsda 0,.LLSDA938
 239              		@ args = 0, pretend = 0, frame = 0
 240              		@ frame_needed = 0, uses_anonymous_args = 0
 241              	.LVL18:
 242 0000 70402DE9 		push	{r4, r5, r6, lr}
 243              		.save {r4, r5, r6, lr}
 244              		.cfi_def_cfa_offset 16
 245              		.cfi_offset 4, -16
 246              		.cfi_offset 5, -12
 247              		.cfi_offset 6, -8
 248              		.cfi_offset 14, -4
 249 0004 0040A0E1 		mov	r4, r0
 250              	.LBB700:
  37:/home/zkmike/workspace/RZA2M/rza2m_2d_barcode_sample_freertos_gcc/src/zxing_lib/zxing/Exception.h ****     if(message) {
 251              		.loc 1 37 0
 252 0008 48309FE5 		ldr	r3, .L22
 253 000c 003080E5 		str	r3, [r0]
  38:/home/zkmike/workspace/RZA2M/rza2m_2d_barcode_sample_freertos_gcc/src/zxing_lib/zxing/Exception.h ****       deleteMessage();
 254              		.loc 1 38 0
 255 0010 043090E5 		ldr	r3, [r0, #4]
 256 0014 000053E3 		cmp	r3, #0
 257 0018 0A00000A 		beq	.L16
 258              	.LEHB0:
  39:/home/zkmike/workspace/RZA2M/rza2m_2d_barcode_sample_freertos_gcc/src/zxing_lib/zxing/Exception.h ****     }
 259              		.loc 1 39 0
 260 001c FEFFFFEB 		bl	_ZN5zxing9Exception13deleteMessageEv
 261              	.LVL19:
 262              	.LEHE0:
 263 0020 080000EA 		b	.L16
 264              	.L19:
 265 0024 0050A0E1 		mov	r5, r0
 266 0028 0160A0E1 		mov	r6, r1
  37:/home/zkmike/workspace/RZA2M/rza2m_2d_barcode_sample_freertos_gcc/src/zxing_lib/zxing/Exception.h ****     if(message) {
 267              		.loc 1 37 0
 268 002c 0400A0E1 		mov	r0, r4
 269 0030 FEFFFFEB 		bl	_ZNSt9exceptionD2Ev
 270              	.LVL20:
 271 0034 010076E3 		cmn	r6, #1
 272 0038 0000000A 		beq	.L18
 273              	.LEHB1:
 274 003c FEFFFFEB 		bl	__cxa_end_cleanup
 275              	.LVL21:
 276              	.L18:
 277              	.LBE700:
 278 0040 0500A0E1 		mov	r0, r5
 279 0044 FEFFFFEB 		bl	__cxa_call_unexpected
 280              	.LVL22:
 281              	.LEHE1:
 282              	.L16:
 283              	.LBB701:
 284 0048 0400A0E1 		mov	r0, r4
 285 004c FEFFFFEB 		bl	_ZNSt9exceptionD2Ev
 286              	.LVL23:
 287              	.LBE701:
  41:/home/zkmike/workspace/RZA2M/rza2m_2d_barcode_sample_freertos_gcc/src/zxing_lib/zxing/Exception.h ****   char const* what() const throw() {return message ? message : "";}
 288              		.loc 1 41 0
 289 0050 0400A0E1 		mov	r0, r4
 290 0054 7080BDE8 		pop	{r4, r5, r6, pc}
 291              	.L23:
 292              		.align	2
 293              	.L22:
 294 0058 08000000 		.word	_ZTVN5zxing9ExceptionE+8
 295              		.cfi_endproc
 296              	.LFE938:
 297              		.global	__gxx_personality_v0
 298              		.personality	__gxx_personality_v0
 299              		.handlerdata
 300              		.align	2
 301              	.LLSDA938:
 302 0008 FF       		.byte	0xff
 303 0009 10       		.byte	0x10
 304 000a 11       		.uleb128 .LLSDATT938-.LLSDATTD938
 305              	.LLSDATTD938:
 306 000b 01       		.byte	0x1
 307 000c 08       		.uleb128 .LLSDACSE938-.LLSDACSB938
 308              	.LLSDACSB938:
 309 000d 1C       		.uleb128 .LEHB0-.LFB938
 310 000e 04       		.uleb128 .LEHE0-.LEHB0
 311 000f 24       		.uleb128 .L19-.LFB938
 312 0010 03       		.uleb128 0x3
 313 0011 3C       		.uleb128 .LEHB1-.LFB938
 314 0012 0C       		.uleb128 .LEHE1-.LEHB1
 315 0013 00       		.uleb128 0
 316 0014 00       		.uleb128 0
 317              	.LLSDACSE938:
 318 0015 7F       		.byte	0x7f
 319 0016 00       		.byte	0
 320 0017 00       		.byte	0
 321 0018 7D       		.byte	0x7d
 322 0019 000000   		.align	2
 323              	.LLSDATT938:
 324 001c 00000000 		.word	0
 325              		.section	.text._ZN5zxing9ExceptionD2Ev,"axG",%progbits,_ZN5zxing9ExceptionD5Ev,comdat
 326              		.fnend
 328              		.weak	_ZN5zxing9ExceptionD1Ev
 329              		.set	_ZN5zxing9ExceptionD1Ev,_ZN5zxing9ExceptionD2Ev
 330              		.section	.text._Z41__static_initialization_and_destruction_0ii,"ax",%progbits
 331              		.align	2
 332              		.syntax unified
 333              		.arm
 334              		.fpu neon
 336              	_Z41__static_initialization_and_destruction_0ii:
 337              		.fnstart
 338              	.LFB2869:
 339              		.file 4 "../src/zxing_lib/zxing/common/detector/WhiteRectangleDetector.cpp"
   1:../src/zxing_lib/zxing/common/detector/WhiteRectangleDetector.cpp **** // -*- mode:c++; tab-width:2; indent-tabs-mode:nil; c-basic-offset:2 -*-
   2:../src/zxing_lib/zxing/common/detector/WhiteRectangleDetector.cpp **** /*
   3:../src/zxing_lib/zxing/common/detector/WhiteRectangleDetector.cpp ****  *  WhiteRectangleDetector.cpp
   4:../src/zxing_lib/zxing/common/detector/WhiteRectangleDetector.cpp ****  *  y_wmk
   5:../src/zxing_lib/zxing/common/detector/WhiteRectangleDetector.cpp ****  *
   6:../src/zxing_lib/zxing/common/detector/WhiteRectangleDetector.cpp ****  *  Created by Luiz Silva on 09/02/2010.
   7:../src/zxing_lib/zxing/common/detector/WhiteRectangleDetector.cpp ****  *  Copyright 2010 y_wmk authors All rights reserved.
   8:../src/zxing_lib/zxing/common/detector/WhiteRectangleDetector.cpp ****  *
   9:../src/zxing_lib/zxing/common/detector/WhiteRectangleDetector.cpp ****  * Licensed under the Apache License, Version 2.0 (the "License");
  10:../src/zxing_lib/zxing/common/detector/WhiteRectangleDetector.cpp ****  * you may not use this file except in compliance with the License.
  11:../src/zxing_lib/zxing/common/detector/WhiteRectangleDetector.cpp ****  * You may obtain a copy of the License at
  12:../src/zxing_lib/zxing/common/detector/WhiteRectangleDetector.cpp ****  *
  13:../src/zxing_lib/zxing/common/detector/WhiteRectangleDetector.cpp ****  *      http://www.apache.org/licenses/LICENSE-2.0
  14:../src/zxing_lib/zxing/common/detector/WhiteRectangleDetector.cpp ****  *
  15:../src/zxing_lib/zxing/common/detector/WhiteRectangleDetector.cpp ****  * Unless required by applicable law or agreed to in writing, software
  16:../src/zxing_lib/zxing/common/detector/WhiteRectangleDetector.cpp ****  * distributed under the License is distributed on an "AS IS" BASIS,
  17:../src/zxing_lib/zxing/common/detector/WhiteRectangleDetector.cpp ****  * WITHOUT WARRANTIES OR CONDITIONS OF ANY KIND, either express or implied.
  18:../src/zxing_lib/zxing/common/detector/WhiteRectangleDetector.cpp ****  * See the License for the specific language governing permissions and
  19:../src/zxing_lib/zxing/common/detector/WhiteRectangleDetector.cpp ****  * limitations under the License.
  20:../src/zxing_lib/zxing/common/detector/WhiteRectangleDetector.cpp ****  */
  21:../src/zxing_lib/zxing/common/detector/WhiteRectangleDetector.cpp **** 
  22:../src/zxing_lib/zxing/common/detector/WhiteRectangleDetector.cpp **** #include <zxing/NotFoundException.h>
  23:../src/zxing_lib/zxing/common/detector/WhiteRectangleDetector.cpp **** #include <zxing/common/detector/WhiteRectangleDetector.h>
  24:../src/zxing_lib/zxing/common/detector/WhiteRectangleDetector.cpp **** #include <zxing/common/detector/MathUtils.h>
  25:../src/zxing_lib/zxing/common/detector/WhiteRectangleDetector.cpp **** #include <sstream>
  26:../src/zxing_lib/zxing/common/detector/WhiteRectangleDetector.cpp **** 
  27:../src/zxing_lib/zxing/common/detector/WhiteRectangleDetector.cpp **** using std::vector;
  28:../src/zxing_lib/zxing/common/detector/WhiteRectangleDetector.cpp **** using zxing::Ref;
  29:../src/zxing_lib/zxing/common/detector/WhiteRectangleDetector.cpp **** using zxing::ResultPoint;
  30:../src/zxing_lib/zxing/common/detector/WhiteRectangleDetector.cpp **** using zxing::WhiteRectangleDetector;
  31:../src/zxing_lib/zxing/common/detector/WhiteRectangleDetector.cpp **** using zxing::common::detector::MathUtils;
  32:../src/zxing_lib/zxing/common/detector/WhiteRectangleDetector.cpp **** 
  33:../src/zxing_lib/zxing/common/detector/WhiteRectangleDetector.cpp **** // VC++
  34:../src/zxing_lib/zxing/common/detector/WhiteRectangleDetector.cpp **** using zxing::BitMatrix;
  35:../src/zxing_lib/zxing/common/detector/WhiteRectangleDetector.cpp **** 
  36:../src/zxing_lib/zxing/common/detector/WhiteRectangleDetector.cpp **** int WhiteRectangleDetector::INIT_SIZE = 30;
  37:../src/zxing_lib/zxing/common/detector/WhiteRectangleDetector.cpp **** int WhiteRectangleDetector::CORR = 1;
  38:../src/zxing_lib/zxing/common/detector/WhiteRectangleDetector.cpp **** 
  39:../src/zxing_lib/zxing/common/detector/WhiteRectangleDetector.cpp **** WhiteRectangleDetector::WhiteRectangleDetector(Ref<BitMatrix> image) : image_(image) {
  40:../src/zxing_lib/zxing/common/detector/WhiteRectangleDetector.cpp ****   width_ = image->getWidth();
  41:../src/zxing_lib/zxing/common/detector/WhiteRectangleDetector.cpp ****   height_ = image->getHeight();
  42:../src/zxing_lib/zxing/common/detector/WhiteRectangleDetector.cpp ****   
  43:../src/zxing_lib/zxing/common/detector/WhiteRectangleDetector.cpp ****   leftInit_ = (width_ - INIT_SIZE) >> 1;
  44:../src/zxing_lib/zxing/common/detector/WhiteRectangleDetector.cpp ****   rightInit_ = (width_ + INIT_SIZE) >> 1;
  45:../src/zxing_lib/zxing/common/detector/WhiteRectangleDetector.cpp ****   upInit_ = (height_ - INIT_SIZE) >> 1;
  46:../src/zxing_lib/zxing/common/detector/WhiteRectangleDetector.cpp ****   downInit_ = (height_ + INIT_SIZE) >> 1;
  47:../src/zxing_lib/zxing/common/detector/WhiteRectangleDetector.cpp ****   
  48:../src/zxing_lib/zxing/common/detector/WhiteRectangleDetector.cpp ****   if (upInit_ < 0 || leftInit_ < 0 || downInit_ >= height_ || rightInit_ >= width_) {
  49:../src/zxing_lib/zxing/common/detector/WhiteRectangleDetector.cpp ****     throw NotFoundException("Invalid dimensions WhiteRectangleDetector");
  50:../src/zxing_lib/zxing/common/detector/WhiteRectangleDetector.cpp **** }
  51:../src/zxing_lib/zxing/common/detector/WhiteRectangleDetector.cpp **** }
  52:../src/zxing_lib/zxing/common/detector/WhiteRectangleDetector.cpp **** 
  53:../src/zxing_lib/zxing/common/detector/WhiteRectangleDetector.cpp **** WhiteRectangleDetector::WhiteRectangleDetector(Ref<BitMatrix> image, int initSize, int x, int y) : 
  54:../src/zxing_lib/zxing/common/detector/WhiteRectangleDetector.cpp ****   width_ = image->getWidth();
  55:../src/zxing_lib/zxing/common/detector/WhiteRectangleDetector.cpp ****   height_ = image->getHeight();
  56:../src/zxing_lib/zxing/common/detector/WhiteRectangleDetector.cpp ****   
  57:../src/zxing_lib/zxing/common/detector/WhiteRectangleDetector.cpp ****   int halfsize = initSize >> 1;
  58:../src/zxing_lib/zxing/common/detector/WhiteRectangleDetector.cpp ****   leftInit_ = x - halfsize;
  59:../src/zxing_lib/zxing/common/detector/WhiteRectangleDetector.cpp ****   rightInit_ = x + halfsize;
  60:../src/zxing_lib/zxing/common/detector/WhiteRectangleDetector.cpp ****   upInit_ = y - halfsize;
  61:../src/zxing_lib/zxing/common/detector/WhiteRectangleDetector.cpp ****   downInit_ = y + halfsize;
  62:../src/zxing_lib/zxing/common/detector/WhiteRectangleDetector.cpp ****   
  63:../src/zxing_lib/zxing/common/detector/WhiteRectangleDetector.cpp ****   if (upInit_ < 0 || leftInit_ < 0 || downInit_ >= height_ || rightInit_ >= width_) {
  64:../src/zxing_lib/zxing/common/detector/WhiteRectangleDetector.cpp ****     throw NotFoundException("Invalid dimensions WhiteRectangleDetector");
  65:../src/zxing_lib/zxing/common/detector/WhiteRectangleDetector.cpp ****   }
  66:../src/zxing_lib/zxing/common/detector/WhiteRectangleDetector.cpp **** }
  67:../src/zxing_lib/zxing/common/detector/WhiteRectangleDetector.cpp **** 
  68:../src/zxing_lib/zxing/common/detector/WhiteRectangleDetector.cpp **** /**
  69:../src/zxing_lib/zxing/common/detector/WhiteRectangleDetector.cpp ****  * <p>
  70:../src/zxing_lib/zxing/common/detector/WhiteRectangleDetector.cpp ****  * Detects a candidate barcode-like rectangular region within an image. It
  71:../src/zxing_lib/zxing/common/detector/WhiteRectangleDetector.cpp ****  * starts around the center of the image, increases the size of the candidate
  72:../src/zxing_lib/zxing/common/detector/WhiteRectangleDetector.cpp ****  * region until it finds a white rectangular region.
  73:../src/zxing_lib/zxing/common/detector/WhiteRectangleDetector.cpp ****  * </p>
  74:../src/zxing_lib/zxing/common/detector/WhiteRectangleDetector.cpp ****  *
  75:../src/zxing_lib/zxing/common/detector/WhiteRectangleDetector.cpp ****  * @return {@link vector<Ref<ResultPoint> >} describing the corners of the rectangular
  76:../src/zxing_lib/zxing/common/detector/WhiteRectangleDetector.cpp ****  *         region. The first and last points are opposed on the diagonal, as
  77:../src/zxing_lib/zxing/common/detector/WhiteRectangleDetector.cpp ****  *         are the second and third. The first point will be the topmost
  78:../src/zxing_lib/zxing/common/detector/WhiteRectangleDetector.cpp ****  *         point and the last, the bottommost. The second point will be
  79:../src/zxing_lib/zxing/common/detector/WhiteRectangleDetector.cpp ****  *         leftmost and the third, the rightmost
  80:../src/zxing_lib/zxing/common/detector/WhiteRectangleDetector.cpp ****  * @throws NotFoundException if no Data Matrix Code can be found
  81:../src/zxing_lib/zxing/common/detector/WhiteRectangleDetector.cpp **** */
  82:../src/zxing_lib/zxing/common/detector/WhiteRectangleDetector.cpp **** std::vector<Ref<ResultPoint> > WhiteRectangleDetector::detect() {
  83:../src/zxing_lib/zxing/common/detector/WhiteRectangleDetector.cpp ****   int left = leftInit_;
  84:../src/zxing_lib/zxing/common/detector/WhiteRectangleDetector.cpp ****   int right = rightInit_;
  85:../src/zxing_lib/zxing/common/detector/WhiteRectangleDetector.cpp ****   int up = upInit_;
  86:../src/zxing_lib/zxing/common/detector/WhiteRectangleDetector.cpp ****   int down = downInit_;
  87:../src/zxing_lib/zxing/common/detector/WhiteRectangleDetector.cpp **** 
  88:../src/zxing_lib/zxing/common/detector/WhiteRectangleDetector.cpp ****   bool sizeExceeded = false;
  89:../src/zxing_lib/zxing/common/detector/WhiteRectangleDetector.cpp ****   bool aBlackPointFoundOnBorder = true;
  90:../src/zxing_lib/zxing/common/detector/WhiteRectangleDetector.cpp ****   bool atLeastOneBlackPointFoundOnBorder = false;
  91:../src/zxing_lib/zxing/common/detector/WhiteRectangleDetector.cpp **** 
  92:../src/zxing_lib/zxing/common/detector/WhiteRectangleDetector.cpp ****   while (aBlackPointFoundOnBorder) {
  93:../src/zxing_lib/zxing/common/detector/WhiteRectangleDetector.cpp ****     aBlackPointFoundOnBorder = false;
  94:../src/zxing_lib/zxing/common/detector/WhiteRectangleDetector.cpp **** 
  95:../src/zxing_lib/zxing/common/detector/WhiteRectangleDetector.cpp ****     // .....
  96:../src/zxing_lib/zxing/common/detector/WhiteRectangleDetector.cpp ****     // .   |
  97:../src/zxing_lib/zxing/common/detector/WhiteRectangleDetector.cpp ****     // .....
  98:../src/zxing_lib/zxing/common/detector/WhiteRectangleDetector.cpp ****     bool rightBorderNotWhite = true;
  99:../src/zxing_lib/zxing/common/detector/WhiteRectangleDetector.cpp ****     while (rightBorderNotWhite && right < width_) {
 100:../src/zxing_lib/zxing/common/detector/WhiteRectangleDetector.cpp ****       rightBorderNotWhite = containsBlackPoint(up, down, right, false);
 101:../src/zxing_lib/zxing/common/detector/WhiteRectangleDetector.cpp ****       if (rightBorderNotWhite) {
 102:../src/zxing_lib/zxing/common/detector/WhiteRectangleDetector.cpp ****         right++;
 103:../src/zxing_lib/zxing/common/detector/WhiteRectangleDetector.cpp ****         aBlackPointFoundOnBorder = true;
 104:../src/zxing_lib/zxing/common/detector/WhiteRectangleDetector.cpp ****       }
 105:../src/zxing_lib/zxing/common/detector/WhiteRectangleDetector.cpp ****     }
 106:../src/zxing_lib/zxing/common/detector/WhiteRectangleDetector.cpp **** 
 107:../src/zxing_lib/zxing/common/detector/WhiteRectangleDetector.cpp ****     if (right >= width_) {
 108:../src/zxing_lib/zxing/common/detector/WhiteRectangleDetector.cpp ****       sizeExceeded = true;
 109:../src/zxing_lib/zxing/common/detector/WhiteRectangleDetector.cpp ****       break;
 110:../src/zxing_lib/zxing/common/detector/WhiteRectangleDetector.cpp ****     }
 111:../src/zxing_lib/zxing/common/detector/WhiteRectangleDetector.cpp **** 
 112:../src/zxing_lib/zxing/common/detector/WhiteRectangleDetector.cpp ****     // .....
 113:../src/zxing_lib/zxing/common/detector/WhiteRectangleDetector.cpp ****     // .   .
 114:../src/zxing_lib/zxing/common/detector/WhiteRectangleDetector.cpp ****     // .___.
 115:../src/zxing_lib/zxing/common/detector/WhiteRectangleDetector.cpp ****     bool bottomBorderNotWhite = true;
 116:../src/zxing_lib/zxing/common/detector/WhiteRectangleDetector.cpp ****     while (bottomBorderNotWhite && down < height_) {
 117:../src/zxing_lib/zxing/common/detector/WhiteRectangleDetector.cpp ****       bottomBorderNotWhite = containsBlackPoint(left, right, down, true);
 118:../src/zxing_lib/zxing/common/detector/WhiteRectangleDetector.cpp ****       if (bottomBorderNotWhite) {
 119:../src/zxing_lib/zxing/common/detector/WhiteRectangleDetector.cpp ****         down++;
 120:../src/zxing_lib/zxing/common/detector/WhiteRectangleDetector.cpp ****         aBlackPointFoundOnBorder = true;
 121:../src/zxing_lib/zxing/common/detector/WhiteRectangleDetector.cpp ****       }
 122:../src/zxing_lib/zxing/common/detector/WhiteRectangleDetector.cpp ****     }
 123:../src/zxing_lib/zxing/common/detector/WhiteRectangleDetector.cpp **** 
 124:../src/zxing_lib/zxing/common/detector/WhiteRectangleDetector.cpp ****     if (down >= height_) {
 125:../src/zxing_lib/zxing/common/detector/WhiteRectangleDetector.cpp ****       sizeExceeded = true;
 126:../src/zxing_lib/zxing/common/detector/WhiteRectangleDetector.cpp ****       break;
 127:../src/zxing_lib/zxing/common/detector/WhiteRectangleDetector.cpp ****     }
 128:../src/zxing_lib/zxing/common/detector/WhiteRectangleDetector.cpp **** 
 129:../src/zxing_lib/zxing/common/detector/WhiteRectangleDetector.cpp ****     // .....
 130:../src/zxing_lib/zxing/common/detector/WhiteRectangleDetector.cpp ****     // |   .
 131:../src/zxing_lib/zxing/common/detector/WhiteRectangleDetector.cpp ****     // .....
 132:../src/zxing_lib/zxing/common/detector/WhiteRectangleDetector.cpp ****     bool leftBorderNotWhite = true;
 133:../src/zxing_lib/zxing/common/detector/WhiteRectangleDetector.cpp ****     while (leftBorderNotWhite && left >= 0) {
 134:../src/zxing_lib/zxing/common/detector/WhiteRectangleDetector.cpp ****       leftBorderNotWhite = containsBlackPoint(up, down, left, false);
 135:../src/zxing_lib/zxing/common/detector/WhiteRectangleDetector.cpp ****       if (leftBorderNotWhite) {
 136:../src/zxing_lib/zxing/common/detector/WhiteRectangleDetector.cpp ****         left--;
 137:../src/zxing_lib/zxing/common/detector/WhiteRectangleDetector.cpp ****         aBlackPointFoundOnBorder = true;
 138:../src/zxing_lib/zxing/common/detector/WhiteRectangleDetector.cpp ****       }
 139:../src/zxing_lib/zxing/common/detector/WhiteRectangleDetector.cpp ****     }
 140:../src/zxing_lib/zxing/common/detector/WhiteRectangleDetector.cpp **** 
 141:../src/zxing_lib/zxing/common/detector/WhiteRectangleDetector.cpp ****     if (left < 0) {
 142:../src/zxing_lib/zxing/common/detector/WhiteRectangleDetector.cpp ****       sizeExceeded = true;
 143:../src/zxing_lib/zxing/common/detector/WhiteRectangleDetector.cpp ****       break;
 144:../src/zxing_lib/zxing/common/detector/WhiteRectangleDetector.cpp ****     }
 145:../src/zxing_lib/zxing/common/detector/WhiteRectangleDetector.cpp **** 
 146:../src/zxing_lib/zxing/common/detector/WhiteRectangleDetector.cpp ****     // .___.
 147:../src/zxing_lib/zxing/common/detector/WhiteRectangleDetector.cpp ****     // .   .
 148:../src/zxing_lib/zxing/common/detector/WhiteRectangleDetector.cpp ****     // .....
 149:../src/zxing_lib/zxing/common/detector/WhiteRectangleDetector.cpp ****     bool topBorderNotWhite = true;
 150:../src/zxing_lib/zxing/common/detector/WhiteRectangleDetector.cpp ****     while (topBorderNotWhite && up >= 0) {
 151:../src/zxing_lib/zxing/common/detector/WhiteRectangleDetector.cpp ****       topBorderNotWhite = containsBlackPoint(left, right, up, true);
 152:../src/zxing_lib/zxing/common/detector/WhiteRectangleDetector.cpp ****       if (topBorderNotWhite) {
 153:../src/zxing_lib/zxing/common/detector/WhiteRectangleDetector.cpp ****         up--;
 154:../src/zxing_lib/zxing/common/detector/WhiteRectangleDetector.cpp ****         aBlackPointFoundOnBorder = true;
 155:../src/zxing_lib/zxing/common/detector/WhiteRectangleDetector.cpp ****       }
 156:../src/zxing_lib/zxing/common/detector/WhiteRectangleDetector.cpp ****     }
 157:../src/zxing_lib/zxing/common/detector/WhiteRectangleDetector.cpp **** 
 158:../src/zxing_lib/zxing/common/detector/WhiteRectangleDetector.cpp ****     if (up < 0) {
 159:../src/zxing_lib/zxing/common/detector/WhiteRectangleDetector.cpp ****       sizeExceeded = true;
 160:../src/zxing_lib/zxing/common/detector/WhiteRectangleDetector.cpp ****       break;
 161:../src/zxing_lib/zxing/common/detector/WhiteRectangleDetector.cpp ****     }
 162:../src/zxing_lib/zxing/common/detector/WhiteRectangleDetector.cpp **** 
 163:../src/zxing_lib/zxing/common/detector/WhiteRectangleDetector.cpp ****     if (aBlackPointFoundOnBorder) {
 164:../src/zxing_lib/zxing/common/detector/WhiteRectangleDetector.cpp ****       atLeastOneBlackPointFoundOnBorder = true;
 165:../src/zxing_lib/zxing/common/detector/WhiteRectangleDetector.cpp ****     }
 166:../src/zxing_lib/zxing/common/detector/WhiteRectangleDetector.cpp **** 
 167:../src/zxing_lib/zxing/common/detector/WhiteRectangleDetector.cpp ****   }
 168:../src/zxing_lib/zxing/common/detector/WhiteRectangleDetector.cpp ****   if (!sizeExceeded && atLeastOneBlackPointFoundOnBorder) {
 169:../src/zxing_lib/zxing/common/detector/WhiteRectangleDetector.cpp **** 
 170:../src/zxing_lib/zxing/common/detector/WhiteRectangleDetector.cpp ****     int maxSize = right - left;
 171:../src/zxing_lib/zxing/common/detector/WhiteRectangleDetector.cpp **** 
 172:../src/zxing_lib/zxing/common/detector/WhiteRectangleDetector.cpp ****     Ref<ResultPoint> z(NULL);
 173:../src/zxing_lib/zxing/common/detector/WhiteRectangleDetector.cpp ****     //go up right
 174:../src/zxing_lib/zxing/common/detector/WhiteRectangleDetector.cpp ****     for (int i = 1; i < maxSize; i++) {
 175:../src/zxing_lib/zxing/common/detector/WhiteRectangleDetector.cpp ****       z = getBlackPointOnSegment(left, down - i, left + i, down);
 176:../src/zxing_lib/zxing/common/detector/WhiteRectangleDetector.cpp ****       if (z != NULL) {
 177:../src/zxing_lib/zxing/common/detector/WhiteRectangleDetector.cpp ****         break;
 178:../src/zxing_lib/zxing/common/detector/WhiteRectangleDetector.cpp ****       }
 179:../src/zxing_lib/zxing/common/detector/WhiteRectangleDetector.cpp ****     }
 180:../src/zxing_lib/zxing/common/detector/WhiteRectangleDetector.cpp **** 
 181:../src/zxing_lib/zxing/common/detector/WhiteRectangleDetector.cpp ****     if (z == NULL) {
 182:../src/zxing_lib/zxing/common/detector/WhiteRectangleDetector.cpp ****       throw NotFoundException("z == NULL");
 183:../src/zxing_lib/zxing/common/detector/WhiteRectangleDetector.cpp ****     }
 184:../src/zxing_lib/zxing/common/detector/WhiteRectangleDetector.cpp **** 
 185:../src/zxing_lib/zxing/common/detector/WhiteRectangleDetector.cpp ****     Ref<ResultPoint> t(NULL);
 186:../src/zxing_lib/zxing/common/detector/WhiteRectangleDetector.cpp ****     //go down right
 187:../src/zxing_lib/zxing/common/detector/WhiteRectangleDetector.cpp ****     for (int i = 1; i < maxSize; i++) {
 188:../src/zxing_lib/zxing/common/detector/WhiteRectangleDetector.cpp ****       t = getBlackPointOnSegment(left, up + i, left + i, up);
 189:../src/zxing_lib/zxing/common/detector/WhiteRectangleDetector.cpp ****       if (t != NULL) {
 190:../src/zxing_lib/zxing/common/detector/WhiteRectangleDetector.cpp ****         break;
 191:../src/zxing_lib/zxing/common/detector/WhiteRectangleDetector.cpp ****       }
 192:../src/zxing_lib/zxing/common/detector/WhiteRectangleDetector.cpp ****     }
 193:../src/zxing_lib/zxing/common/detector/WhiteRectangleDetector.cpp **** 
 194:../src/zxing_lib/zxing/common/detector/WhiteRectangleDetector.cpp ****     if (t == NULL) {
 195:../src/zxing_lib/zxing/common/detector/WhiteRectangleDetector.cpp ****       throw NotFoundException("t == NULL");
 196:../src/zxing_lib/zxing/common/detector/WhiteRectangleDetector.cpp ****     }
 197:../src/zxing_lib/zxing/common/detector/WhiteRectangleDetector.cpp **** 
 198:../src/zxing_lib/zxing/common/detector/WhiteRectangleDetector.cpp ****     Ref<ResultPoint> x(NULL);
 199:../src/zxing_lib/zxing/common/detector/WhiteRectangleDetector.cpp ****     //go down left
 200:../src/zxing_lib/zxing/common/detector/WhiteRectangleDetector.cpp ****     for (int i = 1; i < maxSize; i++) {
 201:../src/zxing_lib/zxing/common/detector/WhiteRectangleDetector.cpp ****       x = getBlackPointOnSegment(right, up + i, right - i, up);
 202:../src/zxing_lib/zxing/common/detector/WhiteRectangleDetector.cpp ****       if (x != NULL) {
 203:../src/zxing_lib/zxing/common/detector/WhiteRectangleDetector.cpp ****         break;
 204:../src/zxing_lib/zxing/common/detector/WhiteRectangleDetector.cpp ****       }
 205:../src/zxing_lib/zxing/common/detector/WhiteRectangleDetector.cpp ****     }
 206:../src/zxing_lib/zxing/common/detector/WhiteRectangleDetector.cpp **** 
 207:../src/zxing_lib/zxing/common/detector/WhiteRectangleDetector.cpp ****     if (x == NULL) {
 208:../src/zxing_lib/zxing/common/detector/WhiteRectangleDetector.cpp ****       throw NotFoundException("x == NULL");
 209:../src/zxing_lib/zxing/common/detector/WhiteRectangleDetector.cpp ****     }
 210:../src/zxing_lib/zxing/common/detector/WhiteRectangleDetector.cpp **** 
 211:../src/zxing_lib/zxing/common/detector/WhiteRectangleDetector.cpp ****     Ref<ResultPoint> y(NULL);
 212:../src/zxing_lib/zxing/common/detector/WhiteRectangleDetector.cpp ****     //go up left
 213:../src/zxing_lib/zxing/common/detector/WhiteRectangleDetector.cpp ****     for (int i = 1; i < maxSize; i++) {
 214:../src/zxing_lib/zxing/common/detector/WhiteRectangleDetector.cpp ****       y = getBlackPointOnSegment(right, down - i, right - i, down);
 215:../src/zxing_lib/zxing/common/detector/WhiteRectangleDetector.cpp ****       if (y != NULL) {
 216:../src/zxing_lib/zxing/common/detector/WhiteRectangleDetector.cpp ****         break;
 217:../src/zxing_lib/zxing/common/detector/WhiteRectangleDetector.cpp ****       }
 218:../src/zxing_lib/zxing/common/detector/WhiteRectangleDetector.cpp ****     }
 219:../src/zxing_lib/zxing/common/detector/WhiteRectangleDetector.cpp **** 
 220:../src/zxing_lib/zxing/common/detector/WhiteRectangleDetector.cpp ****     if (y == NULL) {
 221:../src/zxing_lib/zxing/common/detector/WhiteRectangleDetector.cpp ****       throw NotFoundException("y == NULL");
 222:../src/zxing_lib/zxing/common/detector/WhiteRectangleDetector.cpp ****     }
 223:../src/zxing_lib/zxing/common/detector/WhiteRectangleDetector.cpp **** 
 224:../src/zxing_lib/zxing/common/detector/WhiteRectangleDetector.cpp ****     return centerEdges(y, z, x, t);
 225:../src/zxing_lib/zxing/common/detector/WhiteRectangleDetector.cpp **** 
 226:../src/zxing_lib/zxing/common/detector/WhiteRectangleDetector.cpp ****   } else {
 227:../src/zxing_lib/zxing/common/detector/WhiteRectangleDetector.cpp ****     throw NotFoundException("No black point found on border");
 228:../src/zxing_lib/zxing/common/detector/WhiteRectangleDetector.cpp ****   }
 229:../src/zxing_lib/zxing/common/detector/WhiteRectangleDetector.cpp **** }
 230:../src/zxing_lib/zxing/common/detector/WhiteRectangleDetector.cpp **** 
 231:../src/zxing_lib/zxing/common/detector/WhiteRectangleDetector.cpp **** Ref<ResultPoint>
 232:../src/zxing_lib/zxing/common/detector/WhiteRectangleDetector.cpp **** WhiteRectangleDetector::getBlackPointOnSegment(int aX_, int aY_, int bX_, int bY_) {
 233:../src/zxing_lib/zxing/common/detector/WhiteRectangleDetector.cpp ****   float aX = float(aX_), aY = float(aY_), bX = float(bX_), bY = float(bY_);
 234:../src/zxing_lib/zxing/common/detector/WhiteRectangleDetector.cpp ****   int dist = MathUtils::round(MathUtils::distance(aX, aY, bX, bY));
 235:../src/zxing_lib/zxing/common/detector/WhiteRectangleDetector.cpp ****   float xStep = (bX - aX) / dist;
 236:../src/zxing_lib/zxing/common/detector/WhiteRectangleDetector.cpp ****   float yStep = (bY - aY) / dist;
 237:../src/zxing_lib/zxing/common/detector/WhiteRectangleDetector.cpp **** 
 238:../src/zxing_lib/zxing/common/detector/WhiteRectangleDetector.cpp ****   for (int i = 0; i < dist; i++) {
 239:../src/zxing_lib/zxing/common/detector/WhiteRectangleDetector.cpp ****     int x = MathUtils::round(aX + i * xStep);
 240:../src/zxing_lib/zxing/common/detector/WhiteRectangleDetector.cpp ****     int y = MathUtils::round(aY + i * yStep);
 241:../src/zxing_lib/zxing/common/detector/WhiteRectangleDetector.cpp ****     if (image_->get(x, y)) {
 242:../src/zxing_lib/zxing/common/detector/WhiteRectangleDetector.cpp ****       Ref<ResultPoint> point(new ResultPoint(float(x), float(y)));
 243:../src/zxing_lib/zxing/common/detector/WhiteRectangleDetector.cpp ****       return point;
 244:../src/zxing_lib/zxing/common/detector/WhiteRectangleDetector.cpp ****     }
 245:../src/zxing_lib/zxing/common/detector/WhiteRectangleDetector.cpp ****   }
 246:../src/zxing_lib/zxing/common/detector/WhiteRectangleDetector.cpp ****   Ref<ResultPoint> point(NULL);
 247:../src/zxing_lib/zxing/common/detector/WhiteRectangleDetector.cpp ****   return point;
 248:../src/zxing_lib/zxing/common/detector/WhiteRectangleDetector.cpp **** }
 249:../src/zxing_lib/zxing/common/detector/WhiteRectangleDetector.cpp **** 
 250:../src/zxing_lib/zxing/common/detector/WhiteRectangleDetector.cpp **** /**
 251:../src/zxing_lib/zxing/common/detector/WhiteRectangleDetector.cpp ****  * recenters the points of a constant distance towards the center
 252:../src/zxing_lib/zxing/common/detector/WhiteRectangleDetector.cpp ****  *
 253:../src/zxing_lib/zxing/common/detector/WhiteRectangleDetector.cpp ****  * @param y bottom most point
 254:../src/zxing_lib/zxing/common/detector/WhiteRectangleDetector.cpp ****  * @param z left most point
 255:../src/zxing_lib/zxing/common/detector/WhiteRectangleDetector.cpp ****  * @param x right most point
 256:../src/zxing_lib/zxing/common/detector/WhiteRectangleDetector.cpp ****  * @param t top most point
 257:../src/zxing_lib/zxing/common/detector/WhiteRectangleDetector.cpp ****  * @return {@link vector<Ref<ResultPoint> >} describing the corners of the rectangular
 258:../src/zxing_lib/zxing/common/detector/WhiteRectangleDetector.cpp ****  *         region. The first and last points are opposed on the diagonal, as
 259:../src/zxing_lib/zxing/common/detector/WhiteRectangleDetector.cpp ****  *         are the second and third. The first point will be the topmost
 260:../src/zxing_lib/zxing/common/detector/WhiteRectangleDetector.cpp ****  *         point and the last, the bottommost. The second point will be
 261:../src/zxing_lib/zxing/common/detector/WhiteRectangleDetector.cpp ****  *         leftmost and the third, the rightmost
 262:../src/zxing_lib/zxing/common/detector/WhiteRectangleDetector.cpp ****  */
 263:../src/zxing_lib/zxing/common/detector/WhiteRectangleDetector.cpp **** vector<Ref<ResultPoint> > WhiteRectangleDetector::centerEdges(Ref<ResultPoint> y, Ref<ResultPoint> 
 264:../src/zxing_lib/zxing/common/detector/WhiteRectangleDetector.cpp ****                                   Ref<ResultPoint> x, Ref<ResultPoint> t) {
 265:../src/zxing_lib/zxing/common/detector/WhiteRectangleDetector.cpp **** 
 266:../src/zxing_lib/zxing/common/detector/WhiteRectangleDetector.cpp ****   //
 267:../src/zxing_lib/zxing/common/detector/WhiteRectangleDetector.cpp ****   //       t            t
 268:../src/zxing_lib/zxing/common/detector/WhiteRectangleDetector.cpp ****   //  z                      x
 269:../src/zxing_lib/zxing/common/detector/WhiteRectangleDetector.cpp ****   //        x    OR    z
 270:../src/zxing_lib/zxing/common/detector/WhiteRectangleDetector.cpp ****   //   y                    y
 271:../src/zxing_lib/zxing/common/detector/WhiteRectangleDetector.cpp ****   //
 272:../src/zxing_lib/zxing/common/detector/WhiteRectangleDetector.cpp **** 
 273:../src/zxing_lib/zxing/common/detector/WhiteRectangleDetector.cpp ****   float yi = y->getX();
 274:../src/zxing_lib/zxing/common/detector/WhiteRectangleDetector.cpp ****   float yj = y->getY();
 275:../src/zxing_lib/zxing/common/detector/WhiteRectangleDetector.cpp ****   float zi = z->getX();
 276:../src/zxing_lib/zxing/common/detector/WhiteRectangleDetector.cpp ****   float zj = z->getY();
 277:../src/zxing_lib/zxing/common/detector/WhiteRectangleDetector.cpp ****   float xi = x->getX();
 278:../src/zxing_lib/zxing/common/detector/WhiteRectangleDetector.cpp ****   float xj = x->getY();
 279:../src/zxing_lib/zxing/common/detector/WhiteRectangleDetector.cpp ****   float ti = t->getX();
 280:../src/zxing_lib/zxing/common/detector/WhiteRectangleDetector.cpp ****   float tj = t->getY();
 281:../src/zxing_lib/zxing/common/detector/WhiteRectangleDetector.cpp **** 
 282:../src/zxing_lib/zxing/common/detector/WhiteRectangleDetector.cpp ****   std::vector<Ref<ResultPoint> > corners(4);
 283:../src/zxing_lib/zxing/common/detector/WhiteRectangleDetector.cpp ****   if (yi < (float)width_/2.0f) {
 284:../src/zxing_lib/zxing/common/detector/WhiteRectangleDetector.cpp ****     Ref<ResultPoint> pointA(new ResultPoint(ti - CORR, tj + CORR));
 285:../src/zxing_lib/zxing/common/detector/WhiteRectangleDetector.cpp ****     Ref<ResultPoint> pointB(new ResultPoint(zi + CORR, zj + CORR));
 286:../src/zxing_lib/zxing/common/detector/WhiteRectangleDetector.cpp ****     Ref<ResultPoint> pointC(new ResultPoint(xi - CORR, xj - CORR));
 287:../src/zxing_lib/zxing/common/detector/WhiteRectangleDetector.cpp ****     Ref<ResultPoint> pointD(new ResultPoint(yi + CORR, yj - CORR));
 288:../src/zxing_lib/zxing/common/detector/WhiteRectangleDetector.cpp **** 	  corners[0].reset(pointA);
 289:../src/zxing_lib/zxing/common/detector/WhiteRectangleDetector.cpp **** 	  corners[1].reset(pointB);
 290:../src/zxing_lib/zxing/common/detector/WhiteRectangleDetector.cpp **** 	  corners[2].reset(pointC);
 291:../src/zxing_lib/zxing/common/detector/WhiteRectangleDetector.cpp **** 	  corners[3].reset(pointD);
 292:../src/zxing_lib/zxing/common/detector/WhiteRectangleDetector.cpp ****   } else {
 293:../src/zxing_lib/zxing/common/detector/WhiteRectangleDetector.cpp ****     Ref<ResultPoint> pointA(new ResultPoint(ti + CORR, tj + CORR));
 294:../src/zxing_lib/zxing/common/detector/WhiteRectangleDetector.cpp ****     Ref<ResultPoint> pointB(new ResultPoint(zi + CORR, zj - CORR));
 295:../src/zxing_lib/zxing/common/detector/WhiteRectangleDetector.cpp ****     Ref<ResultPoint> pointC(new ResultPoint(xi - CORR, xj + CORR));
 296:../src/zxing_lib/zxing/common/detector/WhiteRectangleDetector.cpp ****     Ref<ResultPoint> pointD(new ResultPoint(yi - CORR, yj - CORR));
 297:../src/zxing_lib/zxing/common/detector/WhiteRectangleDetector.cpp **** 	  corners[0].reset(pointA);
 298:../src/zxing_lib/zxing/common/detector/WhiteRectangleDetector.cpp **** 	  corners[1].reset(pointB);
 299:../src/zxing_lib/zxing/common/detector/WhiteRectangleDetector.cpp **** 	  corners[2].reset(pointC);
 300:../src/zxing_lib/zxing/common/detector/WhiteRectangleDetector.cpp **** 	  corners[3].reset(pointD);
 301:../src/zxing_lib/zxing/common/detector/WhiteRectangleDetector.cpp ****   }
 302:../src/zxing_lib/zxing/common/detector/WhiteRectangleDetector.cpp ****   return corners;
 303:../src/zxing_lib/zxing/common/detector/WhiteRectangleDetector.cpp **** }
 304:../src/zxing_lib/zxing/common/detector/WhiteRectangleDetector.cpp **** 
 305:../src/zxing_lib/zxing/common/detector/WhiteRectangleDetector.cpp **** /**
 306:../src/zxing_lib/zxing/common/detector/WhiteRectangleDetector.cpp ****  * Determines whether a segment contains a black point
 307:../src/zxing_lib/zxing/common/detector/WhiteRectangleDetector.cpp ****  *
 308:../src/zxing_lib/zxing/common/detector/WhiteRectangleDetector.cpp ****  * @param a          min value of the scanned coordinate
 309:../src/zxing_lib/zxing/common/detector/WhiteRectangleDetector.cpp ****  * @param b          max value of the scanned coordinate
 310:../src/zxing_lib/zxing/common/detector/WhiteRectangleDetector.cpp ****  * @param fixed      value of fixed coordinate
 311:../src/zxing_lib/zxing/common/detector/WhiteRectangleDetector.cpp ****  * @param horizontal set to true if scan must be horizontal, false if vertical
 312:../src/zxing_lib/zxing/common/detector/WhiteRectangleDetector.cpp ****  * @return true if a black point has been found, else false.
 313:../src/zxing_lib/zxing/common/detector/WhiteRectangleDetector.cpp ****  */
 314:../src/zxing_lib/zxing/common/detector/WhiteRectangleDetector.cpp **** bool WhiteRectangleDetector::containsBlackPoint(int a, int b, int fixed, bool horizontal) {
 315:../src/zxing_lib/zxing/common/detector/WhiteRectangleDetector.cpp ****   if (horizontal) {
 316:../src/zxing_lib/zxing/common/detector/WhiteRectangleDetector.cpp ****     for (int x = a; x <= b; x++) {
 317:../src/zxing_lib/zxing/common/detector/WhiteRectangleDetector.cpp ****       if (image_->get(x, fixed)) {
 318:../src/zxing_lib/zxing/common/detector/WhiteRectangleDetector.cpp ****         return true;
 319:../src/zxing_lib/zxing/common/detector/WhiteRectangleDetector.cpp ****       }
 320:../src/zxing_lib/zxing/common/detector/WhiteRectangleDetector.cpp ****     }
 321:../src/zxing_lib/zxing/common/detector/WhiteRectangleDetector.cpp ****   } else {
 322:../src/zxing_lib/zxing/common/detector/WhiteRectangleDetector.cpp ****     for (int y = a; y <= b; y++) {
 323:../src/zxing_lib/zxing/common/detector/WhiteRectangleDetector.cpp ****       if (image_->get(fixed, y)) {
 324:../src/zxing_lib/zxing/common/detector/WhiteRectangleDetector.cpp ****         return true;
 325:../src/zxing_lib/zxing/common/detector/WhiteRectangleDetector.cpp ****       }
 326:../src/zxing_lib/zxing/common/detector/WhiteRectangleDetector.cpp ****     }
 327:../src/zxing_lib/zxing/common/detector/WhiteRectangleDetector.cpp ****   }
 328:../src/zxing_lib/zxing/common/detector/WhiteRectangleDetector.cpp **** 
 329:../src/zxing_lib/zxing/common/detector/WhiteRectangleDetector.cpp ****   return false;
 330:../src/zxing_lib/zxing/common/detector/WhiteRectangleDetector.cpp **** }
 340              		.loc 4 330 0
 341              		.cfi_startproc
 342              		@ args = 0, pretend = 0, frame = 0
 343              		@ frame_needed = 0, uses_anonymous_args = 0
 344              	.LVL24:
 345 0000 010050E3 		cmp	r0, #1
 346 0004 1EFF2F11 		bxne	lr
 347              		.loc 4 330 0 is_stmt 0 discriminator 1
 348 0008 FF3F0FE3 		movw	r3, #65535
 349 000c 030051E1 		cmp	r1, r3
 350 0010 1EFF2F11 		bxne	lr
 351              		.loc 4 330 0
 352 0014 10402DE9 		push	{r4, lr}
 353              		.cfi_def_cfa_offset 8
 354              		.cfi_offset 4, -8
 355              		.cfi_offset 14, -4
 356              		.file 5 "/home/zkmike/.local/share/renesas/e2_studio/toolchains/gcc_arm/gcc-arm-none-eabi-6-2017-q
   1:/home/zkmike/.local/share/renesas/e2_studio/toolchains/gcc_arm/gcc-arm-none-eabi-6-2017-q2-update/arm-none-eabi/include/c++/6.3.1/iostream **** // Standard iostream objects -*- C++ -*-
   2:/home/zkmike/.local/share/renesas/e2_studio/toolchains/gcc_arm/gcc-arm-none-eabi-6-2017-q2-update/arm-none-eabi/include/c++/6.3.1/iostream **** 
   3:/home/zkmike/.local/share/renesas/e2_studio/toolchains/gcc_arm/gcc-arm-none-eabi-6-2017-q2-update/arm-none-eabi/include/c++/6.3.1/iostream **** // Copyright (C) 1997-2016 Free Software Foundation, Inc.
   4:/home/zkmike/.local/share/renesas/e2_studio/toolchains/gcc_arm/gcc-arm-none-eabi-6-2017-q2-update/arm-none-eabi/include/c++/6.3.1/iostream **** //
   5:/home/zkmike/.local/share/renesas/e2_studio/toolchains/gcc_arm/gcc-arm-none-eabi-6-2017-q2-update/arm-none-eabi/include/c++/6.3.1/iostream **** // This file is part of the GNU ISO C++ Library.  This library is free
   6:/home/zkmike/.local/share/renesas/e2_studio/toolchains/gcc_arm/gcc-arm-none-eabi-6-2017-q2-update/arm-none-eabi/include/c++/6.3.1/iostream **** // software; you can redistribute it and/or modify it under the
   7:/home/zkmike/.local/share/renesas/e2_studio/toolchains/gcc_arm/gcc-arm-none-eabi-6-2017-q2-update/arm-none-eabi/include/c++/6.3.1/iostream **** // terms of the GNU General Public License as published by the
   8:/home/zkmike/.local/share/renesas/e2_studio/toolchains/gcc_arm/gcc-arm-none-eabi-6-2017-q2-update/arm-none-eabi/include/c++/6.3.1/iostream **** // Free Software Foundation; either version 3, or (at your option)
   9:/home/zkmike/.local/share/renesas/e2_studio/toolchains/gcc_arm/gcc-arm-none-eabi-6-2017-q2-update/arm-none-eabi/include/c++/6.3.1/iostream **** // any later version.
  10:/home/zkmike/.local/share/renesas/e2_studio/toolchains/gcc_arm/gcc-arm-none-eabi-6-2017-q2-update/arm-none-eabi/include/c++/6.3.1/iostream **** 
  11:/home/zkmike/.local/share/renesas/e2_studio/toolchains/gcc_arm/gcc-arm-none-eabi-6-2017-q2-update/arm-none-eabi/include/c++/6.3.1/iostream **** // This library is distributed in the hope that it will be useful,
  12:/home/zkmike/.local/share/renesas/e2_studio/toolchains/gcc_arm/gcc-arm-none-eabi-6-2017-q2-update/arm-none-eabi/include/c++/6.3.1/iostream **** // but WITHOUT ANY WARRANTY; without even the implied warranty of
  13:/home/zkmike/.local/share/renesas/e2_studio/toolchains/gcc_arm/gcc-arm-none-eabi-6-2017-q2-update/arm-none-eabi/include/c++/6.3.1/iostream **** // MERCHANTABILITY or FITNESS FOR A PARTICULAR PURPOSE.  See the
  14:/home/zkmike/.local/share/renesas/e2_studio/toolchains/gcc_arm/gcc-arm-none-eabi-6-2017-q2-update/arm-none-eabi/include/c++/6.3.1/iostream **** // GNU General Public License for more details.
  15:/home/zkmike/.local/share/renesas/e2_studio/toolchains/gcc_arm/gcc-arm-none-eabi-6-2017-q2-update/arm-none-eabi/include/c++/6.3.1/iostream **** 
  16:/home/zkmike/.local/share/renesas/e2_studio/toolchains/gcc_arm/gcc-arm-none-eabi-6-2017-q2-update/arm-none-eabi/include/c++/6.3.1/iostream **** // Under Section 7 of GPL version 3, you are granted additional
  17:/home/zkmike/.local/share/renesas/e2_studio/toolchains/gcc_arm/gcc-arm-none-eabi-6-2017-q2-update/arm-none-eabi/include/c++/6.3.1/iostream **** // permissions described in the GCC Runtime Library Exception, version
  18:/home/zkmike/.local/share/renesas/e2_studio/toolchains/gcc_arm/gcc-arm-none-eabi-6-2017-q2-update/arm-none-eabi/include/c++/6.3.1/iostream **** // 3.1, as published by the Free Software Foundation.
  19:/home/zkmike/.local/share/renesas/e2_studio/toolchains/gcc_arm/gcc-arm-none-eabi-6-2017-q2-update/arm-none-eabi/include/c++/6.3.1/iostream **** 
  20:/home/zkmike/.local/share/renesas/e2_studio/toolchains/gcc_arm/gcc-arm-none-eabi-6-2017-q2-update/arm-none-eabi/include/c++/6.3.1/iostream **** // You should have received a copy of the GNU General Public License and
  21:/home/zkmike/.local/share/renesas/e2_studio/toolchains/gcc_arm/gcc-arm-none-eabi-6-2017-q2-update/arm-none-eabi/include/c++/6.3.1/iostream **** // a copy of the GCC Runtime Library Exception along with this program;
  22:/home/zkmike/.local/share/renesas/e2_studio/toolchains/gcc_arm/gcc-arm-none-eabi-6-2017-q2-update/arm-none-eabi/include/c++/6.3.1/iostream **** // see the files COPYING3 and COPYING.RUNTIME respectively.  If not, see
  23:/home/zkmike/.local/share/renesas/e2_studio/toolchains/gcc_arm/gcc-arm-none-eabi-6-2017-q2-update/arm-none-eabi/include/c++/6.3.1/iostream **** // <http://www.gnu.org/licenses/>.
  24:/home/zkmike/.local/share/renesas/e2_studio/toolchains/gcc_arm/gcc-arm-none-eabi-6-2017-q2-update/arm-none-eabi/include/c++/6.3.1/iostream **** 
  25:/home/zkmike/.local/share/renesas/e2_studio/toolchains/gcc_arm/gcc-arm-none-eabi-6-2017-q2-update/arm-none-eabi/include/c++/6.3.1/iostream **** /** @file include/iostream
  26:/home/zkmike/.local/share/renesas/e2_studio/toolchains/gcc_arm/gcc-arm-none-eabi-6-2017-q2-update/arm-none-eabi/include/c++/6.3.1/iostream ****  *  This is a Standard C++ Library header.
  27:/home/zkmike/.local/share/renesas/e2_studio/toolchains/gcc_arm/gcc-arm-none-eabi-6-2017-q2-update/arm-none-eabi/include/c++/6.3.1/iostream ****  */
  28:/home/zkmike/.local/share/renesas/e2_studio/toolchains/gcc_arm/gcc-arm-none-eabi-6-2017-q2-update/arm-none-eabi/include/c++/6.3.1/iostream **** 
  29:/home/zkmike/.local/share/renesas/e2_studio/toolchains/gcc_arm/gcc-arm-none-eabi-6-2017-q2-update/arm-none-eabi/include/c++/6.3.1/iostream **** //
  30:/home/zkmike/.local/share/renesas/e2_studio/toolchains/gcc_arm/gcc-arm-none-eabi-6-2017-q2-update/arm-none-eabi/include/c++/6.3.1/iostream **** // ISO C++ 14882: 27.3  Standard iostream objects
  31:/home/zkmike/.local/share/renesas/e2_studio/toolchains/gcc_arm/gcc-arm-none-eabi-6-2017-q2-update/arm-none-eabi/include/c++/6.3.1/iostream **** //
  32:/home/zkmike/.local/share/renesas/e2_studio/toolchains/gcc_arm/gcc-arm-none-eabi-6-2017-q2-update/arm-none-eabi/include/c++/6.3.1/iostream **** 
  33:/home/zkmike/.local/share/renesas/e2_studio/toolchains/gcc_arm/gcc-arm-none-eabi-6-2017-q2-update/arm-none-eabi/include/c++/6.3.1/iostream **** #ifndef _GLIBCXX_IOSTREAM
  34:/home/zkmike/.local/share/renesas/e2_studio/toolchains/gcc_arm/gcc-arm-none-eabi-6-2017-q2-update/arm-none-eabi/include/c++/6.3.1/iostream **** #define _GLIBCXX_IOSTREAM 1
  35:/home/zkmike/.local/share/renesas/e2_studio/toolchains/gcc_arm/gcc-arm-none-eabi-6-2017-q2-update/arm-none-eabi/include/c++/6.3.1/iostream **** 
  36:/home/zkmike/.local/share/renesas/e2_studio/toolchains/gcc_arm/gcc-arm-none-eabi-6-2017-q2-update/arm-none-eabi/include/c++/6.3.1/iostream **** #pragma GCC system_header
  37:/home/zkmike/.local/share/renesas/e2_studio/toolchains/gcc_arm/gcc-arm-none-eabi-6-2017-q2-update/arm-none-eabi/include/c++/6.3.1/iostream **** 
  38:/home/zkmike/.local/share/renesas/e2_studio/toolchains/gcc_arm/gcc-arm-none-eabi-6-2017-q2-update/arm-none-eabi/include/c++/6.3.1/iostream **** #include <bits/c++config.h>
  39:/home/zkmike/.local/share/renesas/e2_studio/toolchains/gcc_arm/gcc-arm-none-eabi-6-2017-q2-update/arm-none-eabi/include/c++/6.3.1/iostream **** #include <ostream>
  40:/home/zkmike/.local/share/renesas/e2_studio/toolchains/gcc_arm/gcc-arm-none-eabi-6-2017-q2-update/arm-none-eabi/include/c++/6.3.1/iostream **** #include <istream>
  41:/home/zkmike/.local/share/renesas/e2_studio/toolchains/gcc_arm/gcc-arm-none-eabi-6-2017-q2-update/arm-none-eabi/include/c++/6.3.1/iostream **** 
  42:/home/zkmike/.local/share/renesas/e2_studio/toolchains/gcc_arm/gcc-arm-none-eabi-6-2017-q2-update/arm-none-eabi/include/c++/6.3.1/iostream **** namespace std _GLIBCXX_VISIBILITY(default)
  43:/home/zkmike/.local/share/renesas/e2_studio/toolchains/gcc_arm/gcc-arm-none-eabi-6-2017-q2-update/arm-none-eabi/include/c++/6.3.1/iostream **** {
  44:/home/zkmike/.local/share/renesas/e2_studio/toolchains/gcc_arm/gcc-arm-none-eabi-6-2017-q2-update/arm-none-eabi/include/c++/6.3.1/iostream **** _GLIBCXX_BEGIN_NAMESPACE_VERSION
  45:/home/zkmike/.local/share/renesas/e2_studio/toolchains/gcc_arm/gcc-arm-none-eabi-6-2017-q2-update/arm-none-eabi/include/c++/6.3.1/iostream **** 
  46:/home/zkmike/.local/share/renesas/e2_studio/toolchains/gcc_arm/gcc-arm-none-eabi-6-2017-q2-update/arm-none-eabi/include/c++/6.3.1/iostream ****   /**
  47:/home/zkmike/.local/share/renesas/e2_studio/toolchains/gcc_arm/gcc-arm-none-eabi-6-2017-q2-update/arm-none-eabi/include/c++/6.3.1/iostream ****    *  @name Standard Stream Objects
  48:/home/zkmike/.local/share/renesas/e2_studio/toolchains/gcc_arm/gcc-arm-none-eabi-6-2017-q2-update/arm-none-eabi/include/c++/6.3.1/iostream ****    *
  49:/home/zkmike/.local/share/renesas/e2_studio/toolchains/gcc_arm/gcc-arm-none-eabi-6-2017-q2-update/arm-none-eabi/include/c++/6.3.1/iostream ****    *  The &lt;iostream&gt; header declares the eight <em>standard stream
  50:/home/zkmike/.local/share/renesas/e2_studio/toolchains/gcc_arm/gcc-arm-none-eabi-6-2017-q2-update/arm-none-eabi/include/c++/6.3.1/iostream ****    *  objects</em>.  For other declarations, see
  51:/home/zkmike/.local/share/renesas/e2_studio/toolchains/gcc_arm/gcc-arm-none-eabi-6-2017-q2-update/arm-none-eabi/include/c++/6.3.1/iostream ****    *  http://gcc.gnu.org/onlinedocs/libstdc++/manual/io.html
  52:/home/zkmike/.local/share/renesas/e2_studio/toolchains/gcc_arm/gcc-arm-none-eabi-6-2017-q2-update/arm-none-eabi/include/c++/6.3.1/iostream ****    *  and the @link iosfwd I/O forward declarations @endlink
  53:/home/zkmike/.local/share/renesas/e2_studio/toolchains/gcc_arm/gcc-arm-none-eabi-6-2017-q2-update/arm-none-eabi/include/c++/6.3.1/iostream ****    *
  54:/home/zkmike/.local/share/renesas/e2_studio/toolchains/gcc_arm/gcc-arm-none-eabi-6-2017-q2-update/arm-none-eabi/include/c++/6.3.1/iostream ****    *  They are required by default to cooperate with the global C
  55:/home/zkmike/.local/share/renesas/e2_studio/toolchains/gcc_arm/gcc-arm-none-eabi-6-2017-q2-update/arm-none-eabi/include/c++/6.3.1/iostream ****    *  library's @c FILE streams, and to be available during program
  56:/home/zkmike/.local/share/renesas/e2_studio/toolchains/gcc_arm/gcc-arm-none-eabi-6-2017-q2-update/arm-none-eabi/include/c++/6.3.1/iostream ****    *  startup and termination. For more information, see the section of the
  57:/home/zkmike/.local/share/renesas/e2_studio/toolchains/gcc_arm/gcc-arm-none-eabi-6-2017-q2-update/arm-none-eabi/include/c++/6.3.1/iostream ****    *  manual linked to above.
  58:/home/zkmike/.local/share/renesas/e2_studio/toolchains/gcc_arm/gcc-arm-none-eabi-6-2017-q2-update/arm-none-eabi/include/c++/6.3.1/iostream ****   */
  59:/home/zkmike/.local/share/renesas/e2_studio/toolchains/gcc_arm/gcc-arm-none-eabi-6-2017-q2-update/arm-none-eabi/include/c++/6.3.1/iostream ****   //@{
  60:/home/zkmike/.local/share/renesas/e2_studio/toolchains/gcc_arm/gcc-arm-none-eabi-6-2017-q2-update/arm-none-eabi/include/c++/6.3.1/iostream ****   extern istream cin;		/// Linked to standard input
  61:/home/zkmike/.local/share/renesas/e2_studio/toolchains/gcc_arm/gcc-arm-none-eabi-6-2017-q2-update/arm-none-eabi/include/c++/6.3.1/iostream ****   extern ostream cout;		/// Linked to standard output
  62:/home/zkmike/.local/share/renesas/e2_studio/toolchains/gcc_arm/gcc-arm-none-eabi-6-2017-q2-update/arm-none-eabi/include/c++/6.3.1/iostream ****   extern ostream cerr;		/// Linked to standard error (unbuffered)
  63:/home/zkmike/.local/share/renesas/e2_studio/toolchains/gcc_arm/gcc-arm-none-eabi-6-2017-q2-update/arm-none-eabi/include/c++/6.3.1/iostream ****   extern ostream clog;		/// Linked to standard error (buffered)
  64:/home/zkmike/.local/share/renesas/e2_studio/toolchains/gcc_arm/gcc-arm-none-eabi-6-2017-q2-update/arm-none-eabi/include/c++/6.3.1/iostream **** 
  65:/home/zkmike/.local/share/renesas/e2_studio/toolchains/gcc_arm/gcc-arm-none-eabi-6-2017-q2-update/arm-none-eabi/include/c++/6.3.1/iostream **** #ifdef _GLIBCXX_USE_WCHAR_T
  66:/home/zkmike/.local/share/renesas/e2_studio/toolchains/gcc_arm/gcc-arm-none-eabi-6-2017-q2-update/arm-none-eabi/include/c++/6.3.1/iostream ****   extern wistream wcin;		/// Linked to standard input
  67:/home/zkmike/.local/share/renesas/e2_studio/toolchains/gcc_arm/gcc-arm-none-eabi-6-2017-q2-update/arm-none-eabi/include/c++/6.3.1/iostream ****   extern wostream wcout;	/// Linked to standard output
  68:/home/zkmike/.local/share/renesas/e2_studio/toolchains/gcc_arm/gcc-arm-none-eabi-6-2017-q2-update/arm-none-eabi/include/c++/6.3.1/iostream ****   extern wostream wcerr;	/// Linked to standard error (unbuffered)
  69:/home/zkmike/.local/share/renesas/e2_studio/toolchains/gcc_arm/gcc-arm-none-eabi-6-2017-q2-update/arm-none-eabi/include/c++/6.3.1/iostream ****   extern wostream wclog;	/// Linked to standard error (buffered)
  70:/home/zkmike/.local/share/renesas/e2_studio/toolchains/gcc_arm/gcc-arm-none-eabi-6-2017-q2-update/arm-none-eabi/include/c++/6.3.1/iostream **** #endif
  71:/home/zkmike/.local/share/renesas/e2_studio/toolchains/gcc_arm/gcc-arm-none-eabi-6-2017-q2-update/arm-none-eabi/include/c++/6.3.1/iostream ****   //@}
  72:/home/zkmike/.local/share/renesas/e2_studio/toolchains/gcc_arm/gcc-arm-none-eabi-6-2017-q2-update/arm-none-eabi/include/c++/6.3.1/iostream **** 
  73:/home/zkmike/.local/share/renesas/e2_studio/toolchains/gcc_arm/gcc-arm-none-eabi-6-2017-q2-update/arm-none-eabi/include/c++/6.3.1/iostream ****   // For construction of filebuffers for cout, cin, cerr, clog et. al.
  74:/home/zkmike/.local/share/renesas/e2_studio/toolchains/gcc_arm/gcc-arm-none-eabi-6-2017-q2-update/arm-none-eabi/include/c++/6.3.1/iostream ****   static ios_base::Init __ioinit;
 357              		.loc 5 74 0 is_stmt 1
 358 0018 004000E3 		movw	r4, #:lower16:.LANCHOR0
 359 001c 004040E3 		movt	r4, #:upper16:.LANCHOR0
 360 0020 0400A0E1 		mov	r0, r4
 361              	.LVL25:
 362 0024 FEFFFFEB 		bl	_ZNSt8ios_base4InitC1Ev
 363              	.LVL26:
 364 0028 002000E3 		movw	r2, #:lower16:__dso_handle
 365 002c 002040E3 		movt	r2, #:upper16:__dso_handle
 366 0030 001000E3 		movw	r1, #:lower16:_ZNSt8ios_base4InitD1Ev
 367 0034 001040E3 		movt	r1, #:upper16:_ZNSt8ios_base4InitD1Ev
 368 0038 0400A0E1 		mov	r0, r4
 369 003c FEFFFFEB 		bl	__aeabi_atexit
 370              	.LVL27:
 371 0040 1080BDE8 		pop	{r4, pc}
 372              		.cfi_endproc
 373              	.LFE2869:
 374              		.cantunwind
 375              		.fnend
 377              		.section	.text._ZN5zxing17NotFoundExceptionD2Ev,"axG",%progbits,_ZN5zxing17NotFoundExceptionD5Ev,c
 378              		.align	2
 379              		.weak	_ZN5zxing17NotFoundExceptionD2Ev
 380              		.syntax unified
 381              		.arm
 382              		.fpu neon
 384              	_ZN5zxing17NotFoundExceptionD2Ev:
 385              		.fnstart
 386              	.LFB959:
 387              		.file 6 "/home/zkmike/workspace/RZA2M/rza2m_2d_barcode_sample_freertos_gcc/src/zxing_lib/zxing/Not
   1:/home/zkmike/workspace/RZA2M/rza2m_2d_barcode_sample_freertos_gcc/src/zxing_lib/zxing/NotFoundException.h **** // -*- mode:c++; tab-width:2; indent-tabs-mode:nil; c-basic-offset:2 -*-
   2:/home/zkmike/workspace/RZA2M/rza2m_2d_barcode_sample_freertos_gcc/src/zxing_lib/zxing/NotFoundException.h **** 
   3:/home/zkmike/workspace/RZA2M/rza2m_2d_barcode_sample_freertos_gcc/src/zxing_lib/zxing/NotFoundException.h **** #ifndef __NOT_FOUND_EXCEPTION_H__
   4:/home/zkmike/workspace/RZA2M/rza2m_2d_barcode_sample_freertos_gcc/src/zxing_lib/zxing/NotFoundException.h **** #define __NOT_FOUND_EXCEPTION_H__
   5:/home/zkmike/workspace/RZA2M/rza2m_2d_barcode_sample_freertos_gcc/src/zxing_lib/zxing/NotFoundException.h **** 
   6:/home/zkmike/workspace/RZA2M/rza2m_2d_barcode_sample_freertos_gcc/src/zxing_lib/zxing/NotFoundException.h **** /*
   7:/home/zkmike/workspace/RZA2M/rza2m_2d_barcode_sample_freertos_gcc/src/zxing_lib/zxing/NotFoundException.h ****  * Copyright 20011 ZXing authors
   8:/home/zkmike/workspace/RZA2M/rza2m_2d_barcode_sample_freertos_gcc/src/zxing_lib/zxing/NotFoundException.h ****  *
   9:/home/zkmike/workspace/RZA2M/rza2m_2d_barcode_sample_freertos_gcc/src/zxing_lib/zxing/NotFoundException.h ****  * Licensed under the Apache License, Version 2.0 (the "License");
  10:/home/zkmike/workspace/RZA2M/rza2m_2d_barcode_sample_freertos_gcc/src/zxing_lib/zxing/NotFoundException.h ****  * you may not use this file except in compliance with the License.
  11:/home/zkmike/workspace/RZA2M/rza2m_2d_barcode_sample_freertos_gcc/src/zxing_lib/zxing/NotFoundException.h ****  * You may obtain a copy of the License at
  12:/home/zkmike/workspace/RZA2M/rza2m_2d_barcode_sample_freertos_gcc/src/zxing_lib/zxing/NotFoundException.h ****  *
  13:/home/zkmike/workspace/RZA2M/rza2m_2d_barcode_sample_freertos_gcc/src/zxing_lib/zxing/NotFoundException.h ****  *      http://www.apache.org/licenses/LICENSE-2.0
  14:/home/zkmike/workspace/RZA2M/rza2m_2d_barcode_sample_freertos_gcc/src/zxing_lib/zxing/NotFoundException.h ****  *
  15:/home/zkmike/workspace/RZA2M/rza2m_2d_barcode_sample_freertos_gcc/src/zxing_lib/zxing/NotFoundException.h ****  * Unless required by applicable law or agreed to in writing, software
  16:/home/zkmike/workspace/RZA2M/rza2m_2d_barcode_sample_freertos_gcc/src/zxing_lib/zxing/NotFoundException.h ****  * distributed under the License is distributed on an "AS IS" BASIS,
  17:/home/zkmike/workspace/RZA2M/rza2m_2d_barcode_sample_freertos_gcc/src/zxing_lib/zxing/NotFoundException.h ****  * WITHOUT WARRANTIES OR CONDITIONS OF ANY KIND, either express or implied.
  18:/home/zkmike/workspace/RZA2M/rza2m_2d_barcode_sample_freertos_gcc/src/zxing_lib/zxing/NotFoundException.h ****  * See the License for the specific language governing permissions and
  19:/home/zkmike/workspace/RZA2M/rza2m_2d_barcode_sample_freertos_gcc/src/zxing_lib/zxing/NotFoundException.h ****  * limitations under the License.
  20:/home/zkmike/workspace/RZA2M/rza2m_2d_barcode_sample_freertos_gcc/src/zxing_lib/zxing/NotFoundException.h ****  */
  21:/home/zkmike/workspace/RZA2M/rza2m_2d_barcode_sample_freertos_gcc/src/zxing_lib/zxing/NotFoundException.h **** 
  22:/home/zkmike/workspace/RZA2M/rza2m_2d_barcode_sample_freertos_gcc/src/zxing_lib/zxing/NotFoundException.h **** #include <zxing/ReaderException.h>
  23:/home/zkmike/workspace/RZA2M/rza2m_2d_barcode_sample_freertos_gcc/src/zxing_lib/zxing/NotFoundException.h **** 
  24:/home/zkmike/workspace/RZA2M/rza2m_2d_barcode_sample_freertos_gcc/src/zxing_lib/zxing/NotFoundException.h **** namespace zxing {
  25:/home/zkmike/workspace/RZA2M/rza2m_2d_barcode_sample_freertos_gcc/src/zxing_lib/zxing/NotFoundException.h **** 
  26:/home/zkmike/workspace/RZA2M/rza2m_2d_barcode_sample_freertos_gcc/src/zxing_lib/zxing/NotFoundException.h **** class NotFoundException : public ReaderException {
  27:/home/zkmike/workspace/RZA2M/rza2m_2d_barcode_sample_freertos_gcc/src/zxing_lib/zxing/NotFoundException.h **** public:
  28:/home/zkmike/workspace/RZA2M/rza2m_2d_barcode_sample_freertos_gcc/src/zxing_lib/zxing/NotFoundException.h ****   NotFoundException() throw() {}
  29:/home/zkmike/workspace/RZA2M/rza2m_2d_barcode_sample_freertos_gcc/src/zxing_lib/zxing/NotFoundException.h ****   NotFoundException(const char *msg) throw() : ReaderException(msg) {}
  30:/home/zkmike/workspace/RZA2M/rza2m_2d_barcode_sample_freertos_gcc/src/zxing_lib/zxing/NotFoundException.h ****   ~NotFoundException() throw() {}
 388              		.loc 6 30 0
 389              		.cfi_startproc
 390              		.cfi_personality 0,__gxx_personality_v0
 391              		.cfi_lsda 0,.LLSDA959
 392              		@ args = 0, pretend = 0, frame = 0
 393              		@ frame_needed = 0, uses_anonymous_args = 0
 394              	.LVL28:
 395 0000 70402DE9 		push	{r4, r5, r6, lr}
 396              		.save {r4, r5, r6, lr}
 397              		.cfi_def_cfa_offset 16
 398              		.cfi_offset 4, -16
 399              		.cfi_offset 5, -12
 400              		.cfi_offset 6, -8
 401              		.cfi_offset 14, -4
 402 0004 0040A0E1 		mov	r4, r0
 403              	.LVL29:
 404              	.LBB708:
 405              	.LBB709:
 406              	.LBB710:
 407              	.LBB711:
 408              	.LBB712:
  37:/home/zkmike/workspace/RZA2M/rza2m_2d_barcode_sample_freertos_gcc/src/zxing_lib/zxing/Exception.h ****     if(message) {
 409              		.loc 1 37 0
 410 0008 48309FE5 		ldr	r3, .L37
 411 000c 003080E5 		str	r3, [r0]
  38:/home/zkmike/workspace/RZA2M/rza2m_2d_barcode_sample_freertos_gcc/src/zxing_lib/zxing/Exception.h ****       deleteMessage();
 412              		.loc 1 38 0
 413 0010 043090E5 		ldr	r3, [r0, #4]
 414 0014 000053E3 		cmp	r3, #0
 415 0018 0A00000A 		beq	.L31
 416              	.LEHB2:
  39:/home/zkmike/workspace/RZA2M/rza2m_2d_barcode_sample_freertos_gcc/src/zxing_lib/zxing/Exception.h ****     }
 417              		.loc 1 39 0
 418 001c FEFFFFEB 		bl	_ZN5zxing9Exception13deleteMessageEv
 419              	.LVL30:
 420              	.LEHE2:
 421 0020 080000EA 		b	.L31
 422              	.L34:
 423 0024 0050A0E1 		mov	r5, r0
 424 0028 0160A0E1 		mov	r6, r1
  37:/home/zkmike/workspace/RZA2M/rza2m_2d_barcode_sample_freertos_gcc/src/zxing_lib/zxing/Exception.h ****     if(message) {
 425              		.loc 1 37 0
 426 002c 0400A0E1 		mov	r0, r4
 427 0030 FEFFFFEB 		bl	_ZNSt9exceptionD2Ev
 428              	.LVL31:
 429 0034 010076E3 		cmn	r6, #1
 430 0038 0000000A 		beq	.L33
 431              	.LEHB3:
 432 003c FEFFFFEB 		bl	__cxa_end_cleanup
 433              	.LVL32:
 434              	.L33:
 435              	.LBE712:
 436 0040 0500A0E1 		mov	r0, r5
 437 0044 FEFFFFEB 		bl	__cxa_call_unexpected
 438              	.LVL33:
 439              	.LEHE3:
 440              	.L31:
 441              	.LBB713:
 442 0048 0400A0E1 		mov	r0, r4
 443 004c FEFFFFEB 		bl	_ZNSt9exceptionD2Ev
 444              	.LVL34:
 445              	.LBE713:
 446              	.LBE711:
 447              	.LBE710:
 448              	.LBE709:
 449              	.LBE708:
 450              		.loc 6 30 0
 451 0050 0400A0E1 		mov	r0, r4
 452 0054 7080BDE8 		pop	{r4, r5, r6, pc}
 453              	.L38:
 454              		.align	2
 455              	.L37:
 456 0058 08000000 		.word	_ZTVN5zxing9ExceptionE+8
 457              		.cfi_endproc
 458              	.LFE959:
 459              		.personality	__gxx_personality_v0
 460              		.handlerdata
 461              		.align	2
 462              	.LLSDA959:
 463 0008 FF       		.byte	0xff
 464 0009 10       		.byte	0x10
 465 000a 11       		.uleb128 .LLSDATT959-.LLSDATTD959
 466              	.LLSDATTD959:
 467 000b 01       		.byte	0x1
 468 000c 08       		.uleb128 .LLSDACSE959-.LLSDACSB959
 469              	.LLSDACSB959:
 470 000d 1C       		.uleb128 .LEHB2-.LFB959
 471 000e 04       		.uleb128 .LEHE2-.LEHB2
 472 000f 24       		.uleb128 .L34-.LFB959
 473 0010 03       		.uleb128 0x3
 474 0011 3C       		.uleb128 .LEHB3-.LFB959
 475 0012 0C       		.uleb128 .LEHE3-.LEHB3
 476 0013 00       		.uleb128 0
 477 0014 00       		.uleb128 0
 478              	.LLSDACSE959:
 479 0015 7F       		.byte	0x7f
 480 0016 00       		.byte	0
 481 0017 00       		.byte	0
 482 0018 7D       		.byte	0x7d
 483 0019 000000   		.align	2
 484              	.LLSDATT959:
 485 001c 00000000 		.word	0
 486              		.section	.text._ZN5zxing17NotFoundExceptionD2Ev,"axG",%progbits,_ZN5zxing17NotFoundExceptionD5Ev,c
 487              		.fnend
 489              		.weak	_ZN5zxing17NotFoundExceptionD1Ev
 490              		.set	_ZN5zxing17NotFoundExceptionD1Ev,_ZN5zxing17NotFoundExceptionD2Ev
 491              		.section	.text._ZN5zxing15ReaderExceptionD2Ev,"axG",%progbits,_ZN5zxing15ReaderExceptionD5Ev,comda
 492              		.align	2
 493              		.weak	_ZN5zxing15ReaderExceptionD2Ev
 494              		.syntax unified
 495              		.arm
 496              		.fpu neon
 498              	_ZN5zxing15ReaderExceptionD2Ev:
 499              		.fnstart
 500              	.LFB949:
 501              		.file 7 "/home/zkmike/workspace/RZA2M/rza2m_2d_barcode_sample_freertos_gcc/src/zxing_lib/zxing/Rea
   1:/home/zkmike/workspace/RZA2M/rza2m_2d_barcode_sample_freertos_gcc/src/zxing_lib/zxing/ReaderException.h **** // -*- mode:c++; tab-width:2; indent-tabs-mode:nil; c-basic-offset:2 -*-
   2:/home/zkmike/workspace/RZA2M/rza2m_2d_barcode_sample_freertos_gcc/src/zxing_lib/zxing/ReaderException.h **** #ifndef __READER_EXCEPTION_H__
   3:/home/zkmike/workspace/RZA2M/rza2m_2d_barcode_sample_freertos_gcc/src/zxing_lib/zxing/ReaderException.h **** #define __READER_EXCEPTION_H__
   4:/home/zkmike/workspace/RZA2M/rza2m_2d_barcode_sample_freertos_gcc/src/zxing_lib/zxing/ReaderException.h **** 
   5:/home/zkmike/workspace/RZA2M/rza2m_2d_barcode_sample_freertos_gcc/src/zxing_lib/zxing/ReaderException.h **** /*
   6:/home/zkmike/workspace/RZA2M/rza2m_2d_barcode_sample_freertos_gcc/src/zxing_lib/zxing/ReaderException.h ****  *  ReaderException.h
   7:/home/zkmike/workspace/RZA2M/rza2m_2d_barcode_sample_freertos_gcc/src/zxing_lib/zxing/ReaderException.h ****  *  zxing
   8:/home/zkmike/workspace/RZA2M/rza2m_2d_barcode_sample_freertos_gcc/src/zxing_lib/zxing/ReaderException.h ****  *
   9:/home/zkmike/workspace/RZA2M/rza2m_2d_barcode_sample_freertos_gcc/src/zxing_lib/zxing/ReaderException.h ****  *  Copyright 2010 ZXing authors All rights reserved.
  10:/home/zkmike/workspace/RZA2M/rza2m_2d_barcode_sample_freertos_gcc/src/zxing_lib/zxing/ReaderException.h ****  *
  11:/home/zkmike/workspace/RZA2M/rza2m_2d_barcode_sample_freertos_gcc/src/zxing_lib/zxing/ReaderException.h ****  * Licensed under the Apache License, Version 2.0 (the "License");
  12:/home/zkmike/workspace/RZA2M/rza2m_2d_barcode_sample_freertos_gcc/src/zxing_lib/zxing/ReaderException.h ****  * you may not use this file except in compliance with the License.
  13:/home/zkmike/workspace/RZA2M/rza2m_2d_barcode_sample_freertos_gcc/src/zxing_lib/zxing/ReaderException.h ****  * You may obtain a copy of the License at
  14:/home/zkmike/workspace/RZA2M/rza2m_2d_barcode_sample_freertos_gcc/src/zxing_lib/zxing/ReaderException.h ****  *
  15:/home/zkmike/workspace/RZA2M/rza2m_2d_barcode_sample_freertos_gcc/src/zxing_lib/zxing/ReaderException.h ****  *      http://www.apache.org/licenses/LICENSE-2.0
  16:/home/zkmike/workspace/RZA2M/rza2m_2d_barcode_sample_freertos_gcc/src/zxing_lib/zxing/ReaderException.h ****  *
  17:/home/zkmike/workspace/RZA2M/rza2m_2d_barcode_sample_freertos_gcc/src/zxing_lib/zxing/ReaderException.h ****  * Unless required by applicable law or agreed to in writing, software
  18:/home/zkmike/workspace/RZA2M/rza2m_2d_barcode_sample_freertos_gcc/src/zxing_lib/zxing/ReaderException.h ****  * distributed under the License is distributed on an "AS IS" BASIS,
  19:/home/zkmike/workspace/RZA2M/rza2m_2d_barcode_sample_freertos_gcc/src/zxing_lib/zxing/ReaderException.h ****  * WITHOUT WARRANTIES OR CONDITIONS OF ANY KIND, either express or implied.
  20:/home/zkmike/workspace/RZA2M/rza2m_2d_barcode_sample_freertos_gcc/src/zxing_lib/zxing/ReaderException.h ****  * See the License for the specific language governing permissions and
  21:/home/zkmike/workspace/RZA2M/rza2m_2d_barcode_sample_freertos_gcc/src/zxing_lib/zxing/ReaderException.h ****  * limitations under the License.
  22:/home/zkmike/workspace/RZA2M/rza2m_2d_barcode_sample_freertos_gcc/src/zxing_lib/zxing/ReaderException.h ****  */
  23:/home/zkmike/workspace/RZA2M/rza2m_2d_barcode_sample_freertos_gcc/src/zxing_lib/zxing/ReaderException.h **** 
  24:/home/zkmike/workspace/RZA2M/rza2m_2d_barcode_sample_freertos_gcc/src/zxing_lib/zxing/ReaderException.h **** #include <zxing/Exception.h>
  25:/home/zkmike/workspace/RZA2M/rza2m_2d_barcode_sample_freertos_gcc/src/zxing_lib/zxing/ReaderException.h **** 
  26:/home/zkmike/workspace/RZA2M/rza2m_2d_barcode_sample_freertos_gcc/src/zxing_lib/zxing/ReaderException.h **** namespace zxing {
  27:/home/zkmike/workspace/RZA2M/rza2m_2d_barcode_sample_freertos_gcc/src/zxing_lib/zxing/ReaderException.h **** 
  28:/home/zkmike/workspace/RZA2M/rza2m_2d_barcode_sample_freertos_gcc/src/zxing_lib/zxing/ReaderException.h **** class ReaderException : public Exception {
  29:/home/zkmike/workspace/RZA2M/rza2m_2d_barcode_sample_freertos_gcc/src/zxing_lib/zxing/ReaderException.h ****  public:
  30:/home/zkmike/workspace/RZA2M/rza2m_2d_barcode_sample_freertos_gcc/src/zxing_lib/zxing/ReaderException.h ****   ReaderException() throw() {}
  31:/home/zkmike/workspace/RZA2M/rza2m_2d_barcode_sample_freertos_gcc/src/zxing_lib/zxing/ReaderException.h ****   ReaderException(char const* msg) throw() : Exception(msg) {}
  32:/home/zkmike/workspace/RZA2M/rza2m_2d_barcode_sample_freertos_gcc/src/zxing_lib/zxing/ReaderException.h ****   ~ReaderException() throw() {}
 502              		.loc 7 32 0
 503              		.cfi_startproc
 504              		.cfi_personality 0,__gxx_personality_v0
 505              		.cfi_lsda 0,.LLSDA949
 506              		@ args = 0, pretend = 0, frame = 0
 507              		@ frame_needed = 0, uses_anonymous_args = 0
 508              	.LVL35:
 509 0000 70402DE9 		push	{r4, r5, r6, lr}
 510              		.save {r4, r5, r6, lr}
 511              		.cfi_def_cfa_offset 16
 512              		.cfi_offset 4, -16
 513              		.cfi_offset 5, -12
 514              		.cfi_offset 6, -8
 515              		.cfi_offset 14, -4
 516 0004 0040A0E1 		mov	r4, r0
 517              	.LVL36:
 518              	.LBB718:
 519              	.LBB719:
 520              	.LBB720:
 521              	.LBB721:
  37:/home/zkmike/workspace/RZA2M/rza2m_2d_barcode_sample_freertos_gcc/src/zxing_lib/zxing/Exception.h ****     if(message) {
 522              		.loc 1 37 0
 523 0008 48309FE5 		ldr	r3, .L46
 524 000c 003080E5 		str	r3, [r0]
  38:/home/zkmike/workspace/RZA2M/rza2m_2d_barcode_sample_freertos_gcc/src/zxing_lib/zxing/Exception.h ****       deleteMessage();
 525              		.loc 1 38 0
 526 0010 043090E5 		ldr	r3, [r0, #4]
 527 0014 000053E3 		cmp	r3, #0
 528 0018 0A00000A 		beq	.L40
 529              	.LEHB4:
  39:/home/zkmike/workspace/RZA2M/rza2m_2d_barcode_sample_freertos_gcc/src/zxing_lib/zxing/Exception.h ****     }
 530              		.loc 1 39 0
 531 001c FEFFFFEB 		bl	_ZN5zxing9Exception13deleteMessageEv
 532              	.LVL37:
 533              	.LEHE4:
 534 0020 080000EA 		b	.L40
 535              	.L43:
 536 0024 0050A0E1 		mov	r5, r0
 537 0028 0160A0E1 		mov	r6, r1
  37:/home/zkmike/workspace/RZA2M/rza2m_2d_barcode_sample_freertos_gcc/src/zxing_lib/zxing/Exception.h ****     if(message) {
 538              		.loc 1 37 0
 539 002c 0400A0E1 		mov	r0, r4
 540 0030 FEFFFFEB 		bl	_ZNSt9exceptionD2Ev
 541              	.LVL38:
 542 0034 010076E3 		cmn	r6, #1
 543 0038 0000000A 		beq	.L42
 544              	.LEHB5:
 545 003c FEFFFFEB 		bl	__cxa_end_cleanup
 546              	.LVL39:
 547              	.L42:
 548              	.LBE721:
 549 0040 0500A0E1 		mov	r0, r5
 550 0044 FEFFFFEB 		bl	__cxa_call_unexpected
 551              	.LVL40:
 552              	.LEHE5:
 553              	.L40:
 554              	.LBB722:
 555 0048 0400A0E1 		mov	r0, r4
 556 004c FEFFFFEB 		bl	_ZNSt9exceptionD2Ev
 557              	.LVL41:
 558              	.LBE722:
 559              	.LBE720:
 560              	.LBE719:
 561              	.LBE718:
 562              		.loc 7 32 0
 563 0050 0400A0E1 		mov	r0, r4
 564 0054 7080BDE8 		pop	{r4, r5, r6, pc}
 565              	.L47:
 566              		.align	2
 567              	.L46:
 568 0058 08000000 		.word	_ZTVN5zxing9ExceptionE+8
 569              		.cfi_endproc
 570              	.LFE949:
 571              		.personality	__gxx_personality_v0
 572              		.handlerdata
 573              		.align	2
 574              	.LLSDA949:
 575 0008 FF       		.byte	0xff
 576 0009 10       		.byte	0x10
 577 000a 11       		.uleb128 .LLSDATT949-.LLSDATTD949
 578              	.LLSDATTD949:
 579 000b 01       		.byte	0x1
 580 000c 08       		.uleb128 .LLSDACSE949-.LLSDACSB949
 581              	.LLSDACSB949:
 582 000d 1C       		.uleb128 .LEHB4-.LFB949
 583 000e 04       		.uleb128 .LEHE4-.LEHB4
 584 000f 24       		.uleb128 .L43-.LFB949
 585 0010 03       		.uleb128 0x3
 586 0011 3C       		.uleb128 .LEHB5-.LFB949
 587 0012 0C       		.uleb128 .LEHE5-.LEHB5
 588 0013 00       		.uleb128 0
 589 0014 00       		.uleb128 0
 590              	.LLSDACSE949:
 591 0015 7F       		.byte	0x7f
 592 0016 00       		.byte	0
 593 0017 00       		.byte	0
 594 0018 7D       		.byte	0x7d
 595 0019 000000   		.align	2
 596              	.LLSDATT949:
 597 001c 00000000 		.word	0
 598              		.section	.text._ZN5zxing15ReaderExceptionD2Ev,"axG",%progbits,_ZN5zxing15ReaderExceptionD5Ev,comda
 599              		.fnend
 601              		.weak	_ZN5zxing15ReaderExceptionD1Ev
 602              		.set	_ZN5zxing15ReaderExceptionD1Ev,_ZN5zxing15ReaderExceptionD2Ev
 603              		.section	.text._ZN5zxing9ExceptionD0Ev,"axG",%progbits,_ZN5zxing9ExceptionD5Ev,comdat
 604              		.align	2
 605              		.weak	_ZN5zxing9ExceptionD0Ev
 606              		.syntax unified
 607              		.arm
 608              		.fpu neon
 610              	_ZN5zxing9ExceptionD0Ev:
 611              		.fnstart
 612              	.LFB940:
  37:/home/zkmike/workspace/RZA2M/rza2m_2d_barcode_sample_freertos_gcc/src/zxing_lib/zxing/Exception.h ****     if(message) {
 613              		.loc 1 37 0
 614              		.cfi_startproc
 615              		.cfi_personality 0,__gxx_personality_v0
 616              		.cfi_lsda 0,.LLSDA940
 617              		@ args = 0, pretend = 0, frame = 0
 618              		@ frame_needed = 0, uses_anonymous_args = 0
 619              	.LVL42:
 620 0000 70402DE9 		push	{r4, r5, r6, lr}
 621              		.save {r4, r5, r6, lr}
 622              		.cfi_def_cfa_offset 16
 623              		.cfi_offset 4, -16
 624              		.cfi_offset 5, -12
 625              		.cfi_offset 6, -8
 626              		.cfi_offset 14, -4
 627 0004 0040A0E1 		mov	r4, r0
 628              	.LVL43:
 629              	.LBB726:
 630              	.LBB727:
 631              	.LBB728:
  37:/home/zkmike/workspace/RZA2M/rza2m_2d_barcode_sample_freertos_gcc/src/zxing_lib/zxing/Exception.h ****     if(message) {
 632              		.loc 1 37 0
 633 0008 54309FE5 		ldr	r3, .L55
 634 000c 003080E5 		str	r3, [r0]
  38:/home/zkmike/workspace/RZA2M/rza2m_2d_barcode_sample_freertos_gcc/src/zxing_lib/zxing/Exception.h ****       deleteMessage();
 635              		.loc 1 38 0
 636 0010 043090E5 		ldr	r3, [r0, #4]
 637 0014 000053E3 		cmp	r3, #0
 638 0018 0A00000A 		beq	.L49
 639              	.LEHB6:
  39:/home/zkmike/workspace/RZA2M/rza2m_2d_barcode_sample_freertos_gcc/src/zxing_lib/zxing/Exception.h ****     }
 640              		.loc 1 39 0
 641 001c FEFFFFEB 		bl	_ZN5zxing9Exception13deleteMessageEv
 642              	.LVL44:
 643              	.LEHE6:
 644 0020 080000EA 		b	.L49
 645              	.L52:
 646 0024 0050A0E1 		mov	r5, r0
 647 0028 0160A0E1 		mov	r6, r1
  37:/home/zkmike/workspace/RZA2M/rza2m_2d_barcode_sample_freertos_gcc/src/zxing_lib/zxing/Exception.h ****     if(message) {
 648              		.loc 1 37 0
 649 002c 0400A0E1 		mov	r0, r4
 650 0030 FEFFFFEB 		bl	_ZNSt9exceptionD2Ev
 651              	.LVL45:
 652 0034 010076E3 		cmn	r6, #1
 653 0038 0000000A 		beq	.L51
 654              	.LEHB7:
 655 003c FEFFFFEB 		bl	__cxa_end_cleanup
 656              	.LVL46:
 657              	.L51:
 658              	.LBE728:
 659 0040 0500A0E1 		mov	r0, r5
 660 0044 FEFFFFEB 		bl	__cxa_call_unexpected
 661              	.LVL47:
 662              	.LEHE7:
 663              	.L49:
 664              	.LBB729:
 665 0048 0400A0E1 		mov	r0, r4
 666 004c FEFFFFEB 		bl	_ZNSt9exceptionD2Ev
 667              	.LVL48:
 668              	.LBE729:
 669              	.LBE727:
 670              	.LBE726:
  41:/home/zkmike/workspace/RZA2M/rza2m_2d_barcode_sample_freertos_gcc/src/zxing_lib/zxing/Exception.h ****   char const* what() const throw() {return message ? message : "";}
 671              		.loc 1 41 0
 672 0050 0810A0E3 		mov	r1, #8
 673 0054 0400A0E1 		mov	r0, r4
 674 0058 FEFFFFEB 		bl	_ZdlPvj
 675              	.LVL49:
 676 005c 0400A0E1 		mov	r0, r4
 677 0060 7080BDE8 		pop	{r4, r5, r6, pc}
 678              	.L56:
 679              		.align	2
 680              	.L55:
 681 0064 08000000 		.word	_ZTVN5zxing9ExceptionE+8
 682              		.cfi_endproc
 683              	.LFE940:
 684              		.personality	__gxx_personality_v0
 685              		.handlerdata
 686              		.align	2
 687              	.LLSDA940:
 688 0008 FF       		.byte	0xff
 689 0009 10       		.byte	0x10
 690 000a 11       		.uleb128 .LLSDATT940-.LLSDATTD940
 691              	.LLSDATTD940:
 692 000b 01       		.byte	0x1
 693 000c 08       		.uleb128 .LLSDACSE940-.LLSDACSB940
 694              	.LLSDACSB940:
 695 000d 1C       		.uleb128 .LEHB6-.LFB940
 696 000e 04       		.uleb128 .LEHE6-.LEHB6
 697 000f 24       		.uleb128 .L52-.LFB940
 698 0010 03       		.uleb128 0x3
 699 0011 3C       		.uleb128 .LEHB7-.LFB940
 700 0012 0C       		.uleb128 .LEHE7-.LEHB7
 701 0013 00       		.uleb128 0
 702 0014 00       		.uleb128 0
 703              	.LLSDACSE940:
 704 0015 7F       		.byte	0x7f
 705 0016 00       		.byte	0
 706 0017 00       		.byte	0
 707 0018 7D       		.byte	0x7d
 708 0019 000000   		.align	2
 709              	.LLSDATT940:
 710 001c 00000000 		.word	0
 711              		.section	.text._ZN5zxing9ExceptionD0Ev,"axG",%progbits,_ZN5zxing9ExceptionD5Ev,comdat
 712              		.fnend
 714              		.section	.text._ZN5zxing15ReaderExceptionD0Ev,"axG",%progbits,_ZN5zxing15ReaderExceptionD5Ev,comda
 715              		.align	2
 716              		.weak	_ZN5zxing15ReaderExceptionD0Ev
 717              		.syntax unified
 718              		.arm
 719              		.fpu neon
 721              	_ZN5zxing15ReaderExceptionD0Ev:
 722              		.fnstart
 723              	.LFB951:
 724              		.loc 7 32 0
 725              		.cfi_startproc
 726              		.cfi_personality 0,__gxx_personality_v0
 727              		.cfi_lsda 0,.LLSDA951
 728              		@ args = 0, pretend = 0, frame = 0
 729              		@ frame_needed = 0, uses_anonymous_args = 0
 730              	.LVL50:
 731 0000 70402DE9 		push	{r4, r5, r6, lr}
 732              		.save {r4, r5, r6, lr}
 733              		.cfi_def_cfa_offset 16
 734              		.cfi_offset 4, -16
 735              		.cfi_offset 5, -12
 736              		.cfi_offset 6, -8
 737              		.cfi_offset 14, -4
 738 0004 0040A0E1 		mov	r4, r0
 739              	.LVL51:
 740              	.LBB735:
 741              	.LBB736:
 742              	.LBB737:
 743              	.LBB738:
 744              	.LBB739:
  37:/home/zkmike/workspace/RZA2M/rza2m_2d_barcode_sample_freertos_gcc/src/zxing_lib/zxing/Exception.h ****     if(message) {
 745              		.loc 1 37 0
 746 0008 54309FE5 		ldr	r3, .L64
 747 000c 003080E5 		str	r3, [r0]
  38:/home/zkmike/workspace/RZA2M/rza2m_2d_barcode_sample_freertos_gcc/src/zxing_lib/zxing/Exception.h ****       deleteMessage();
 748              		.loc 1 38 0
 749 0010 043090E5 		ldr	r3, [r0, #4]
 750 0014 000053E3 		cmp	r3, #0
 751 0018 0A00000A 		beq	.L58
 752              	.LEHB8:
  39:/home/zkmike/workspace/RZA2M/rza2m_2d_barcode_sample_freertos_gcc/src/zxing_lib/zxing/Exception.h ****     }
 753              		.loc 1 39 0
 754 001c FEFFFFEB 		bl	_ZN5zxing9Exception13deleteMessageEv
 755              	.LVL52:
 756              	.LEHE8:
 757 0020 080000EA 		b	.L58
 758              	.L61:
 759 0024 0050A0E1 		mov	r5, r0
 760 0028 0160A0E1 		mov	r6, r1
  37:/home/zkmike/workspace/RZA2M/rza2m_2d_barcode_sample_freertos_gcc/src/zxing_lib/zxing/Exception.h ****     if(message) {
 761              		.loc 1 37 0
 762 002c 0400A0E1 		mov	r0, r4
 763 0030 FEFFFFEB 		bl	_ZNSt9exceptionD2Ev
 764              	.LVL53:
 765 0034 010076E3 		cmn	r6, #1
 766 0038 0000000A 		beq	.L60
 767              	.LEHB9:
 768 003c FEFFFFEB 		bl	__cxa_end_cleanup
 769              	.LVL54:
 770              	.L60:
 771              	.LBE739:
 772 0040 0500A0E1 		mov	r0, r5
 773 0044 FEFFFFEB 		bl	__cxa_call_unexpected
 774              	.LVL55:
 775              	.LEHE9:
 776              	.L58:
 777              	.LBB740:
 778 0048 0400A0E1 		mov	r0, r4
 779 004c FEFFFFEB 		bl	_ZNSt9exceptionD2Ev
 780              	.LVL56:
 781              	.LBE740:
 782              	.LBE738:
 783              	.LBE737:
 784              	.LBE736:
 785              	.LBE735:
 786              		.loc 7 32 0
 787 0050 0810A0E3 		mov	r1, #8
 788 0054 0400A0E1 		mov	r0, r4
 789 0058 FEFFFFEB 		bl	_ZdlPvj
 790              	.LVL57:
 791 005c 0400A0E1 		mov	r0, r4
 792 0060 7080BDE8 		pop	{r4, r5, r6, pc}
 793              	.L65:
 794              		.align	2
 795              	.L64:
 796 0064 08000000 		.word	_ZTVN5zxing9ExceptionE+8
 797              		.cfi_endproc
 798              	.LFE951:
 799              		.personality	__gxx_personality_v0
 800              		.handlerdata
 801              		.align	2
 802              	.LLSDA951:
 803 0008 FF       		.byte	0xff
 804 0009 10       		.byte	0x10
 805 000a 11       		.uleb128 .LLSDATT951-.LLSDATTD951
 806              	.LLSDATTD951:
 807 000b 01       		.byte	0x1
 808 000c 08       		.uleb128 .LLSDACSE951-.LLSDACSB951
 809              	.LLSDACSB951:
 810 000d 1C       		.uleb128 .LEHB8-.LFB951
 811 000e 04       		.uleb128 .LEHE8-.LEHB8
 812 000f 24       		.uleb128 .L61-.LFB951
 813 0010 03       		.uleb128 0x3
 814 0011 3C       		.uleb128 .LEHB9-.LFB951
 815 0012 0C       		.uleb128 .LEHE9-.LEHB9
 816 0013 00       		.uleb128 0
 817 0014 00       		.uleb128 0
 818              	.LLSDACSE951:
 819 0015 7F       		.byte	0x7f
 820 0016 00       		.byte	0
 821 0017 00       		.byte	0
 822 0018 7D       		.byte	0x7d
 823 0019 000000   		.align	2
 824              	.LLSDATT951:
 825 001c 00000000 		.word	0
 826              		.section	.text._ZN5zxing15ReaderExceptionD0Ev,"axG",%progbits,_ZN5zxing15ReaderExceptionD5Ev,comda
 827              		.fnend
 829              		.section	.text._ZN5zxing17NotFoundExceptionD0Ev,"axG",%progbits,_ZN5zxing17NotFoundExceptionD5Ev,c
 830              		.align	2
 831              		.weak	_ZN5zxing17NotFoundExceptionD0Ev
 832              		.syntax unified
 833              		.arm
 834              		.fpu neon
 836              	_ZN5zxing17NotFoundExceptionD0Ev:
 837              		.fnstart
 838              	.LFB961:
 839              		.loc 6 30 0
 840              		.cfi_startproc
 841              		.cfi_personality 0,__gxx_personality_v0
 842              		.cfi_lsda 0,.LLSDA961
 843              		@ args = 0, pretend = 0, frame = 0
 844              		@ frame_needed = 0, uses_anonymous_args = 0
 845              	.LVL58:
 846 0000 70402DE9 		push	{r4, r5, r6, lr}
 847              		.save {r4, r5, r6, lr}
 848              		.cfi_def_cfa_offset 16
 849              		.cfi_offset 4, -16
 850              		.cfi_offset 5, -12
 851              		.cfi_offset 6, -8
 852              		.cfi_offset 14, -4
 853 0004 0040A0E1 		mov	r4, r0
 854              	.LVL59:
 855              	.LBB748:
 856              	.LBB749:
 857              	.LBB750:
 858              	.LBB751:
 859              	.LBB752:
 860              	.LBB753:
  37:/home/zkmike/workspace/RZA2M/rza2m_2d_barcode_sample_freertos_gcc/src/zxing_lib/zxing/Exception.h ****     if(message) {
 861              		.loc 1 37 0
 862 0008 54309FE5 		ldr	r3, .L73
 863 000c 003080E5 		str	r3, [r0]
  38:/home/zkmike/workspace/RZA2M/rza2m_2d_barcode_sample_freertos_gcc/src/zxing_lib/zxing/Exception.h ****       deleteMessage();
 864              		.loc 1 38 0
 865 0010 043090E5 		ldr	r3, [r0, #4]
 866 0014 000053E3 		cmp	r3, #0
 867 0018 0A00000A 		beq	.L67
 868              	.LEHB10:
  39:/home/zkmike/workspace/RZA2M/rza2m_2d_barcode_sample_freertos_gcc/src/zxing_lib/zxing/Exception.h ****     }
 869              		.loc 1 39 0
 870 001c FEFFFFEB 		bl	_ZN5zxing9Exception13deleteMessageEv
 871              	.LVL60:
 872              	.LEHE10:
 873 0020 080000EA 		b	.L67
 874              	.L70:
 875 0024 0050A0E1 		mov	r5, r0
 876 0028 0160A0E1 		mov	r6, r1
  37:/home/zkmike/workspace/RZA2M/rza2m_2d_barcode_sample_freertos_gcc/src/zxing_lib/zxing/Exception.h ****     if(message) {
 877              		.loc 1 37 0
 878 002c 0400A0E1 		mov	r0, r4
 879 0030 FEFFFFEB 		bl	_ZNSt9exceptionD2Ev
 880              	.LVL61:
 881 0034 010076E3 		cmn	r6, #1
 882 0038 0000000A 		beq	.L69
 883              	.LEHB11:
 884 003c FEFFFFEB 		bl	__cxa_end_cleanup
 885              	.LVL62:
 886              	.L69:
 887              	.LBE753:
 888 0040 0500A0E1 		mov	r0, r5
 889 0044 FEFFFFEB 		bl	__cxa_call_unexpected
 890              	.LVL63:
 891              	.LEHE11:
 892              	.L67:
 893              	.LBB754:
 894 0048 0400A0E1 		mov	r0, r4
 895 004c FEFFFFEB 		bl	_ZNSt9exceptionD2Ev
 896              	.LVL64:
 897              	.LBE754:
 898              	.LBE752:
 899              	.LBE751:
 900              	.LBE750:
 901              	.LBE749:
 902              	.LBE748:
 903              		.loc 6 30 0
 904 0050 0810A0E3 		mov	r1, #8
 905 0054 0400A0E1 		mov	r0, r4
 906 0058 FEFFFFEB 		bl	_ZdlPvj
 907              	.LVL65:
 908 005c 0400A0E1 		mov	r0, r4
 909 0060 7080BDE8 		pop	{r4, r5, r6, pc}
 910              	.L74:
 911              		.align	2
 912              	.L73:
 913 0064 08000000 		.word	_ZTVN5zxing9ExceptionE+8
 914              		.cfi_endproc
 915              	.LFE961:
 916              		.personality	__gxx_personality_v0
 917              		.handlerdata
 918              		.align	2
 919              	.LLSDA961:
 920 0008 FF       		.byte	0xff
 921 0009 10       		.byte	0x10
 922 000a 11       		.uleb128 .LLSDATT961-.LLSDATTD961
 923              	.LLSDATTD961:
 924 000b 01       		.byte	0x1
 925 000c 08       		.uleb128 .LLSDACSE961-.LLSDACSB961
 926              	.LLSDACSB961:
 927 000d 1C       		.uleb128 .LEHB10-.LFB961
 928 000e 04       		.uleb128 .LEHE10-.LEHB10
 929 000f 24       		.uleb128 .L70-.LFB961
 930 0010 03       		.uleb128 0x3
 931 0011 3C       		.uleb128 .LEHB11-.LFB961
 932 0012 0C       		.uleb128 .LEHE11-.LEHB11
 933 0013 00       		.uleb128 0
 934 0014 00       		.uleb128 0
 935              	.LLSDACSE961:
 936 0015 7F       		.byte	0x7f
 937 0016 00       		.byte	0
 938 0017 00       		.byte	0
 939 0018 7D       		.byte	0x7d
 940 0019 000000   		.align	2
 941              	.LLSDATT961:
 942 001c 00000000 		.word	0
 943              		.section	.text._ZN5zxing17NotFoundExceptionD0Ev,"axG",%progbits,_ZN5zxing17NotFoundExceptionD5Ev,c
 944              		.fnend
 946              		.section	.text._ZN5zxing9ExceptionC2EPKc,"axG",%progbits,_ZN5zxing9ExceptionC5EPKc,comdat
 947              		.align	2
 948              		.weak	_ZN5zxing9ExceptionC2EPKc
 949              		.syntax unified
 950              		.arm
 951              		.fpu neon
 953              	_ZN5zxing9ExceptionC2EPKc:
 954              		.fnstart
 955              	.LFB929:
  35:/home/zkmike/workspace/RZA2M/rza2m_2d_barcode_sample_freertos_gcc/src/zxing_lib/zxing/Exception.h ****   Exception(Exception const& that) throw() : std::exception(that), message(copy(that.message)) {}
 956              		.loc 1 35 0
 957              		.cfi_startproc
 958              		.cfi_personality 0,__gxx_personality_v0
 959              		.cfi_lsda 0,.LLSDA929
 960              		@ args = 0, pretend = 0, frame = 0
 961              		@ frame_needed = 0, uses_anonymous_args = 0
 962              	.LVL66:
 963 0000 70402DE9 		push	{r4, r5, r6, lr}
 964              		.save {r4, r5, r6, lr}
 965              		.cfi_def_cfa_offset 16
 966              		.cfi_offset 4, -16
 967              		.cfi_offset 5, -12
 968              		.cfi_offset 6, -8
 969              		.cfi_offset 14, -4
 970 0004 0040A0E1 		mov	r4, r0
 971              	.LBB755:
  35:/home/zkmike/workspace/RZA2M/rza2m_2d_barcode_sample_freertos_gcc/src/zxing_lib/zxing/Exception.h ****   Exception(Exception const& that) throw() : std::exception(that), message(copy(that.message)) {}
 972              		.loc 1 35 0
 973 0008 3C309FE5 		ldr	r3, .L83
 974 000c 003080E5 		str	r3, [r0]
 975 0010 0100A0E1 		mov	r0, r1
 976              	.LVL67:
 977              	.LEHB12:
 978 0014 FEFFFFEB 		bl	_ZN5zxing9Exception4copyEPKc
 979              	.LVL68:
 980              	.LEHE12:
 981 0018 080000EA 		b	.L82
 982              	.L78:
 983 001c 0050A0E1 		mov	r5, r0
 984 0020 0160A0E1 		mov	r6, r1
 985 0024 0400A0E1 		mov	r0, r4
 986 0028 FEFFFFEB 		bl	_ZNSt9exceptionD2Ev
 987              	.LVL69:
 988 002c 010076E3 		cmn	r6, #1
 989 0030 0000000A 		beq	.L77
 990              	.LEHB13:
 991 0034 FEFFFFEB 		bl	__cxa_end_cleanup
 992              	.LVL70:
 993              	.L77:
 994              	.LBE755:
 995 0038 0500A0E1 		mov	r0, r5
 996 003c FEFFFFEB 		bl	__cxa_call_unexpected
 997              	.LVL71:
 998              	.LEHE13:
 999              	.L82:
 1000              	.LBB756:
 1001 0040 040084E5 		str	r0, [r4, #4]
 1002              	.LBE756:
 1003 0044 0400A0E1 		mov	r0, r4
 1004 0048 7080BDE8 		pop	{r4, r5, r6, pc}
 1005              	.L84:
 1006              		.align	2
 1007              	.L83:
 1008 004c 08000000 		.word	_ZTVN5zxing9ExceptionE+8
 1009              		.cfi_endproc
 1010              	.LFE929:
 1011              		.personality	__gxx_personality_v0
 1012              		.handlerdata
 1013              		.align	2
 1014              	.LLSDA929:
 1015 0008 FF       		.byte	0xff
 1016 0009 10       		.byte	0x10
 1017 000a 11       		.uleb128 .LLSDATT929-.LLSDATTD929
 1018              	.LLSDATTD929:
 1019 000b 01       		.byte	0x1
 1020 000c 08       		.uleb128 .LLSDACSE929-.LLSDACSB929
 1021              	.LLSDACSB929:
 1022 000d 14       		.uleb128 .LEHB12-.LFB929
 1023 000e 04       		.uleb128 .LEHE12-.LEHB12
 1024 000f 1C       		.uleb128 .L78-.LFB929
 1025 0010 03       		.uleb128 0x3
 1026 0011 34       		.uleb128 .LEHB13-.LFB929
 1027 0012 0C       		.uleb128 .LEHE13-.LEHB13
 1028 0013 00       		.uleb128 0
 1029 0014 00       		.uleb128 0
 1030              	.LLSDACSE929:
 1031 0015 7F       		.byte	0x7f
 1032 0016 00       		.byte	0
 1033 0017 00       		.byte	0
 1034 0018 7D       		.byte	0x7d
 1035 0019 000000   		.align	2
 1036              	.LLSDATT929:
 1037 001c 00000000 		.word	0
 1038              		.section	.text._ZN5zxing9ExceptionC2EPKc,"axG",%progbits,_ZN5zxing9ExceptionC5EPKc,comdat
 1039              		.fnend
 1041              		.weak	_ZN5zxing9ExceptionC1EPKc
 1042              		.set	_ZN5zxing9ExceptionC1EPKc,_ZN5zxing9ExceptionC2EPKc
 1043              		.section	.text._ZN5zxing22WhiteRectangleDetectorC2ENS_3RefINS_9BitMatrixEEE,"ax",%progbits
 1044              		.align	2
 1045              		.global	_ZN5zxing22WhiteRectangleDetectorC2ENS_3RefINS_9BitMatrixEEE
 1046              		.syntax unified
 1047              		.arm
 1048              		.fpu neon
 1050              	_ZN5zxing22WhiteRectangleDetectorC2ENS_3RefINS_9BitMatrixEEE:
 1051              		.fnstart
 1052              	.LFB2321:
  39:../src/zxing_lib/zxing/common/detector/WhiteRectangleDetector.cpp ****   width_ = image->getWidth();
 1053              		.loc 4 39 0
 1054              		.cfi_startproc
 1055              		.cfi_personality 0,__gxx_personality_v0
 1056              		.cfi_lsda 0,.LLSDA2321
 1057              		@ args = 0, pretend = 0, frame = 0
 1058              		@ frame_needed = 0, uses_anonymous_args = 0
 1059              	.LVL72:
 1060 0000 70402DE9 		push	{r4, r5, r6, lr}
 1061              		.save {r4, r5, r6, lr}
 1062              		.cfi_def_cfa_offset 16
 1063              		.cfi_offset 4, -16
 1064              		.cfi_offset 5, -12
 1065              		.cfi_offset 6, -8
 1066              		.cfi_offset 14, -4
 1067 0004 0040A0E1 		mov	r4, r0
 1068 0008 0160A0E1 		mov	r6, r1
 1069              	.LVL73:
 1070              	.LBB784:
 1071              	.LBB785:
 1072              	.LBB786:
  31:/home/zkmike/workspace/RZA2M/rza2m_2d_barcode_sample_freertos_gcc/src/zxing_lib/zxing/common/Counted.h ****   }
 1073              		.loc 3 31 0
 1074 000c 0030A0E3 		mov	r3, #0
 1075 0010 043080E5 		str	r3, [r0, #4]
 1076              	.LVL74:
 1077              	.LBE786:
 1078              	.LBE785:
  39:../src/zxing_lib/zxing/common/detector/WhiteRectangleDetector.cpp ****   width_ = image->getWidth();
 1079              		.loc 4 39 0
 1080 0014 50219FE5 		ldr	r2, .L97
 1081 0018 002080E5 		str	r2, [r0]
 1082              	.LVL75:
 1083              	.LBB787:
 1084              	.LBB788:
  64:/home/zkmike/workspace/RZA2M/rza2m_2d_barcode_sample_freertos_gcc/src/zxing_lib/zxing/common/Counted.h ****     reset(other.object_);
 1085              		.loc 3 64 0
 1086 001c 083080E5 		str	r3, [r0, #8]
  65:/home/zkmike/workspace/RZA2M/rza2m_2d_barcode_sample_freertos_gcc/src/zxing_lib/zxing/common/Counted.h ****   }
 1087              		.loc 3 65 0
 1088 0020 005091E5 		ldr	r5, [r1]
 1089              	.LVL76:
 1090              	.LBB789:
 1091              	.LBB790:
  76:/home/zkmike/workspace/RZA2M/rza2m_2d_barcode_sample_freertos_gcc/src/zxing_lib/zxing/common/Counted.h ****       object_->release();
  77:/home/zkmike/workspace/RZA2M/rza2m_2d_barcode_sample_freertos_gcc/src/zxing_lib/zxing/common/Counted.h ****     }
  78:/home/zkmike/workspace/RZA2M/rza2m_2d_barcode_sample_freertos_gcc/src/zxing_lib/zxing/common/Counted.h ****   }
  79:/home/zkmike/workspace/RZA2M/rza2m_2d_barcode_sample_freertos_gcc/src/zxing_lib/zxing/common/Counted.h **** 
  80:/home/zkmike/workspace/RZA2M/rza2m_2d_barcode_sample_freertos_gcc/src/zxing_lib/zxing/common/Counted.h ****   void reset(T *o) {
  81:/home/zkmike/workspace/RZA2M/rza2m_2d_barcode_sample_freertos_gcc/src/zxing_lib/zxing/common/Counted.h ****     if (o) {
 1092              		.loc 3 81 0
 1093 0024 030055E1 		cmp	r5, r3
 1094              	.LVL77:
 1095              	.LBB791:
 1096              	.LBB792:
  36:/home/zkmike/workspace/RZA2M/rza2m_2d_barcode_sample_freertos_gcc/src/zxing_lib/zxing/common/Counted.h ****     return this;
 1097              		.loc 3 36 0
 1098 0028 04309515 		ldrne	r3, [r5, #4]
 1099 002c 01308312 		addne	r3, r3, #1
 1100 0030 04308515 		strne	r3, [r5, #4]
 1101              	.LVL78:
 1102              	.L86:
 1103              	.LBE792:
 1104              	.LBE791:
  82:/home/zkmike/workspace/RZA2M/rza2m_2d_barcode_sample_freertos_gcc/src/zxing_lib/zxing/common/Counted.h ****       o->retain();
  83:/home/zkmike/workspace/RZA2M/rza2m_2d_barcode_sample_freertos_gcc/src/zxing_lib/zxing/common/Counted.h ****     }
  84:/home/zkmike/workspace/RZA2M/rza2m_2d_barcode_sample_freertos_gcc/src/zxing_lib/zxing/common/Counted.h ****     if (object_ != 0) {
 1105              		.loc 3 84 0
 1106 0034 080094E5 		ldr	r0, [r4, #8]
 1107              	.LVL79:
 1108 0038 000050E3 		cmp	r0, #0
 1109 003c 0400000A 		beq	.L87
 1110              	.LVL80:
 1111              	.LBB793:
 1112              	.LBB794:
  40:/home/zkmike/workspace/RZA2M/rza2m_2d_barcode_sample_freertos_gcc/src/zxing_lib/zxing/common/Counted.h ****     if (count_ == 0) {
 1113              		.loc 3 40 0
 1114 0040 043090E5 		ldr	r3, [r0, #4]
 1115 0044 013043E2 		sub	r3, r3, #1
 1116 0048 043080E5 		str	r3, [r0, #4]
  41:/home/zkmike/workspace/RZA2M/rza2m_2d_barcode_sample_freertos_gcc/src/zxing_lib/zxing/common/Counted.h ****       count_ = 0xDEADF001;
 1117              		.loc 3 41 0
 1118 004c 000053E3 		cmp	r3, #0
 1119 0050 0300000A 		beq	.L95
 1120              	.LVL81:
 1121              	.L87:
 1122              	.LBE794:
 1123              	.LBE793:
  85:/home/zkmike/workspace/RZA2M/rza2m_2d_barcode_sample_freertos_gcc/src/zxing_lib/zxing/common/Counted.h ****       object_->release();
  86:/home/zkmike/workspace/RZA2M/rza2m_2d_barcode_sample_freertos_gcc/src/zxing_lib/zxing/common/Counted.h ****     }
  87:/home/zkmike/workspace/RZA2M/rza2m_2d_barcode_sample_freertos_gcc/src/zxing_lib/zxing/common/Counted.h ****     object_ = o;
 1124              		.loc 3 87 0
 1125 0054 085084E5 		str	r5, [r4, #8]
 1126              	.LVL82:
 1127              	.LBE790:
 1128              	.LBE789:
 1129              	.LBE788:
 1130              	.LBE787:
  40:../src/zxing_lib/zxing/common/detector/WhiteRectangleDetector.cpp ****   height_ = image->getHeight();
 1131              		.loc 4 40 0
 1132 0058 000096E5 		ldr	r0, [r6]
 1133              	.LEHB14:
 1134 005c FEFFFFEB 		bl	_ZNK5zxing9BitMatrix8getWidthEv
 1135              	.LVL83:
 1136 0060 060000EA 		b	.L96
 1137              	.LVL84:
 1138              	.L95:
 1139              	.LBB800:
 1140              	.LBB799:
 1141              	.LBB798:
 1142              	.LBB797:
 1143              	.LBB796:
 1144              	.LBB795:
  42:/home/zkmike/workspace/RZA2M/rza2m_2d_barcode_sample_freertos_gcc/src/zxing_lib/zxing/common/Counted.h ****       delete this;
 1145              		.loc 3 42 0
 1146 0064 01300FE3 		movw	r3, #61441
 1147 0068 AD3E4DE3 		movt	r3, 57005
 1148 006c 043080E5 		str	r3, [r0, #4]
  43:/home/zkmike/workspace/RZA2M/rza2m_2d_barcode_sample_freertos_gcc/src/zxing_lib/zxing/common/Counted.h ****     }
 1149              		.loc 3 43 0
 1150 0070 003090E5 		ldr	r3, [r0]
 1151 0074 043093E5 		ldr	r3, [r3, #4]
 1152 0078 33FF2FE1 		blx	r3
 1153              	.LVL85:
 1154 007c F4FFFFEA 		b	.L87
 1155              	.LVL86:
 1156              	.L96:
 1157              	.LBE795:
 1158              	.LBE796:
 1159              	.LBE797:
 1160              	.LBE798:
 1161              	.LBE799:
 1162              	.LBE800:
  40:../src/zxing_lib/zxing/common/detector/WhiteRectangleDetector.cpp ****   height_ = image->getHeight();
 1163              		.loc 4 40 0
 1164 0080 0C0084E5 		str	r0, [r4, #12]
  41:../src/zxing_lib/zxing/common/detector/WhiteRectangleDetector.cpp ****   
 1165              		.loc 4 41 0
 1166 0084 000096E5 		ldr	r0, [r6]
 1167 0088 FEFFFFEB 		bl	_ZNK5zxing9BitMatrix9getHeightEv
 1168              	.LVL87:
  41:../src/zxing_lib/zxing/common/detector/WhiteRectangleDetector.cpp ****   
 1169              		.loc 4 41 0 is_stmt 0 discriminator 1
 1170 008c 100084E5 		str	r0, [r4, #16]
  43:../src/zxing_lib/zxing/common/detector/WhiteRectangleDetector.cpp ****   rightInit_ = (width_ + INIT_SIZE) >> 1;
 1171              		.loc 4 43 0 is_stmt 1 discriminator 1
 1172 0090 0CE094E5 		ldr	lr, [r4, #12]
 1173 0094 003000E3 		movw	r3, #:lower16:.LANCHOR1
 1174 0098 003040E3 		movt	r3, #:upper16:.LANCHOR1
 1175 009c 003093E5 		ldr	r3, [r3]
 1176 00a0 03104EE0 		sub	r1, lr, r3
 1177 00a4 C110A0E1 		asr	r1, r1, #1
 1178 00a8 141084E5 		str	r1, [r4, #20]
  44:../src/zxing_lib/zxing/common/detector/WhiteRectangleDetector.cpp ****   upInit_ = (height_ - INIT_SIZE) >> 1;
 1179              		.loc 4 44 0 discriminator 1
 1180 00ac 03C08EE0 		add	ip, lr, r3
 1181 00b0 CCC0A0E1 		asr	ip, ip, #1
 1182 00b4 18C084E5 		str	ip, [r4, #24]
  45:../src/zxing_lib/zxing/common/detector/WhiteRectangleDetector.cpp ****   downInit_ = (height_ + INIT_SIZE) >> 1;
 1183              		.loc 4 45 0 discriminator 1
 1184 00b8 032040E0 		sub	r2, r0, r3
 1185 00bc C220A0E1 		asr	r2, r2, #1
 1186 00c0 202084E5 		str	r2, [r4, #32]
  46:../src/zxing_lib/zxing/common/detector/WhiteRectangleDetector.cpp ****   
 1187              		.loc 4 46 0 discriminator 1
 1188 00c4 033080E0 		add	r3, r0, r3
 1189 00c8 C330A0E1 		asr	r3, r3, #1
 1190 00cc 1C3084E5 		str	r3, [r4, #28]
  48:../src/zxing_lib/zxing/common/detector/WhiteRectangleDetector.cpp ****     throw NotFoundException("Invalid dimensions WhiteRectangleDetector");
 1191              		.loc 4 48 0 discriminator 1
 1192 00d0 000052E3 		cmp	r2, #0
 1193 00d4 070000BA 		blt	.L88
 1194 00d8 000051E3 		cmp	r1, #0
 1195 00dc 050000BA 		blt	.L88
  48:../src/zxing_lib/zxing/common/detector/WhiteRectangleDetector.cpp ****     throw NotFoundException("Invalid dimensions WhiteRectangleDetector");
 1196              		.loc 4 48 0 is_stmt 0 discriminator 2
 1197 00e0 030050E1 		cmp	r0, r3
 1198 00e4 030000DA 		ble	.L88
  48:../src/zxing_lib/zxing/common/detector/WhiteRectangleDetector.cpp ****     throw NotFoundException("Invalid dimensions WhiteRectangleDetector");
 1199              		.loc 4 48 0 discriminator 3
 1200 00e8 0C005EE1 		cmp	lr, ip
 1201 00ec 010000DA 		ble	.L88
 1202              	.LBE784:
  51:../src/zxing_lib/zxing/common/detector/WhiteRectangleDetector.cpp **** 
 1203              		.loc 4 51 0 is_stmt 1
 1204 00f0 0400A0E1 		mov	r0, r4
 1205 00f4 7080BDE8 		pop	{r4, r5, r6, pc}
 1206              	.L88:
 1207              	.LBB809:
  49:../src/zxing_lib/zxing/common/detector/WhiteRectangleDetector.cpp **** }
 1208              		.loc 4 49 0
 1209 00f8 0800A0E3 		mov	r0, #8
 1210 00fc FEFFFFEB 		bl	__cxa_allocate_exception
 1211              	.LVL88:
 1212 0100 0050A0E1 		mov	r5, r0
 1213              	.LVL89:
 1214              	.LBB801:
 1215              	.LBB802:
 1216              	.LBB803:
 1217              	.LBB804:
  31:/home/zkmike/workspace/RZA2M/rza2m_2d_barcode_sample_freertos_gcc/src/zxing_lib/zxing/ReaderException.h ****   ~ReaderException() throw() {}
 1218              		.loc 7 31 0
 1219 0104 001000E3 		movw	r1, #:lower16:.LC1
 1220 0108 001040E3 		movt	r1, #:upper16:.LC1
 1221 010c FEFFFFEB 		bl	_ZN5zxing9ExceptionC2EPKc
 1222              	.LVL90:
 1223              	.LBE804:
 1224              	.LBE803:
  29:/home/zkmike/workspace/RZA2M/rza2m_2d_barcode_sample_freertos_gcc/src/zxing_lib/zxing/NotFoundException.h ****   ~NotFoundException() throw() {}
 1225              		.loc 6 29 0
 1226 0110 58309FE5 		ldr	r3, .L97+4
 1227 0114 003085E5 		str	r3, [r5]
 1228              	.LVL91:
 1229              	.LBE802:
 1230              	.LBE801:
  49:../src/zxing_lib/zxing/common/detector/WhiteRectangleDetector.cpp **** }
 1231              		.loc 4 49 0
 1232 0118 002000E3 		movw	r2, #:lower16:_ZN5zxing17NotFoundExceptionD1Ev
 1233 011c 002040E3 		movt	r2, #:upper16:_ZN5zxing17NotFoundExceptionD1Ev
 1234 0120 001000E3 		movw	r1, #:lower16:_ZTIN5zxing17NotFoundExceptionE
 1235 0124 001040E3 		movt	r1, #:upper16:_ZTIN5zxing17NotFoundExceptionE
 1236 0128 0500A0E1 		mov	r0, r5
 1237 012c FEFFFFEB 		bl	__cxa_throw
 1238              	.LVL92:
 1239              	.LEHE14:
 1240              	.L92:
 1241              	.LBB805:
 1242              	.LBB806:
  75:/home/zkmike/workspace/RZA2M/rza2m_2d_barcode_sample_freertos_gcc/src/zxing_lib/zxing/common/Counted.h ****       object_->release();
 1243              		.loc 3 75 0
 1244 0130 080094E5 		ldr	r0, [r4, #8]
 1245 0134 000050E3 		cmp	r0, #0
 1246 0138 0A00000A 		beq	.L91
 1247              	.LVL93:
 1248              	.LBB807:
 1249              	.LBB808:
  40:/home/zkmike/workspace/RZA2M/rza2m_2d_barcode_sample_freertos_gcc/src/zxing_lib/zxing/common/Counted.h ****     if (count_ == 0) {
 1250              		.loc 3 40 0
 1251 013c 043090E5 		ldr	r3, [r0, #4]
 1252 0140 013043E2 		sub	r3, r3, #1
 1253 0144 043080E5 		str	r3, [r0, #4]
  41:/home/zkmike/workspace/RZA2M/rza2m_2d_barcode_sample_freertos_gcc/src/zxing_lib/zxing/common/Counted.h ****       count_ = 0xDEADF001;
 1254              		.loc 3 41 0
 1255 0148 000053E3 		cmp	r3, #0
 1256 014c 0500001A 		bne	.L91
  42:/home/zkmike/workspace/RZA2M/rza2m_2d_barcode_sample_freertos_gcc/src/zxing_lib/zxing/common/Counted.h ****       delete this;
 1257              		.loc 3 42 0
 1258 0150 01300FE3 		movw	r3, #61441
 1259 0154 AD3E4DE3 		movt	r3, 57005
 1260 0158 043080E5 		str	r3, [r0, #4]
  43:/home/zkmike/workspace/RZA2M/rza2m_2d_barcode_sample_freertos_gcc/src/zxing_lib/zxing/common/Counted.h ****     }
 1261              		.loc 3 43 0
 1262 015c 003090E5 		ldr	r3, [r0]
 1263 0160 043093E5 		ldr	r3, [r3, #4]
 1264 0164 33FF2FE1 		blx	r3
 1265              	.LVL94:
 1266              	.L91:
 1267              	.LEHB15:
 1268 0168 FEFFFFEB 		bl	__cxa_end_cleanup
 1269              	.LVL95:
 1270              	.LEHE15:
 1271              	.L98:
 1272              		.align	2
 1273              	.L97:
 1274 016c 08000000 		.word	_ZTVN5zxing22WhiteRectangleDetectorE+8
 1275 0170 08000000 		.word	_ZTVN5zxing17NotFoundExceptionE+8
 1276              	.LBE808:
 1277              	.LBE807:
 1278              	.LBE806:
 1279              	.LBE805:
 1280              	.LBE809:
 1281              		.cfi_endproc
 1282              	.LFE2321:
 1283              		.personality	__gxx_personality_v0
 1284              		.handlerdata
 1285              	.LLSDA2321:
 1286 0008 FF       		.byte	0xff
 1287 0009 FF       		.byte	0xff
 1288 000a 01       		.byte	0x1
 1289 000b 0B       		.uleb128 .LLSDACSE2321-.LLSDACSB2321
 1290              	.LLSDACSB2321:
 1291 000c 5C       		.uleb128 .LEHB14-.LFB2321
 1292 000d D401     		.uleb128 .LEHE14-.LEHB14
 1293 000f B002     		.uleb128 .L92-.LFB2321
 1294 0011 00       		.uleb128 0
 1295 0012 E802     		.uleb128 .LEHB15-.LFB2321
 1296 0014 04       		.uleb128 .LEHE15-.LEHB15
 1297 0015 00       		.uleb128 0
 1298 0016 00       		.uleb128 0
 1299              	.LLSDACSE2321:
 1300              		.section	.text._ZN5zxing22WhiteRectangleDetectorC2ENS_3RefINS_9BitMatrixEEE
 1301              		.fnend
 1303              		.global	_ZN5zxing22WhiteRectangleDetectorC1ENS_3RefINS_9BitMatrixEEE
 1304              		.set	_ZN5zxing22WhiteRectangleDetectorC1ENS_3RefINS_9BitMatrixEEE,_ZN5zxing22WhiteRectangleDetecto
 1305              		.section	.text._ZN5zxing22WhiteRectangleDetectorC2ENS_3RefINS_9BitMatrixEEEiii,"ax",%progbits
 1306              		.align	2
 1307              		.global	_ZN5zxing22WhiteRectangleDetectorC2ENS_3RefINS_9BitMatrixEEEiii
 1308              		.syntax unified
 1309              		.arm
 1310              		.fpu neon
 1312              	_ZN5zxing22WhiteRectangleDetectorC2ENS_3RefINS_9BitMatrixEEEiii:
 1313              		.fnstart
 1314              	.LFB2324:
  53:../src/zxing_lib/zxing/common/detector/WhiteRectangleDetector.cpp ****   width_ = image->getWidth();
 1315              		.loc 4 53 0
 1316              		.cfi_startproc
 1317              		.cfi_personality 0,__gxx_personality_v0
 1318              		.cfi_lsda 0,.LLSDA2324
 1319              		@ args = 4, pretend = 0, frame = 0
 1320              		@ frame_needed = 0, uses_anonymous_args = 0
 1321              	.LVL96:
 1322 0000 F0472DE9 		push	{r4, r5, r6, r7, r8, r9, r10, lr}
 1323              		.save {r4, r5, r6, r7, r8, r9, r10, lr}
 1324              		.cfi_def_cfa_offset 32
 1325              		.cfi_offset 4, -32
 1326              		.cfi_offset 5, -28
 1327              		.cfi_offset 6, -24
 1328              		.cfi_offset 7, -20
 1329              		.cfi_offset 8, -16
 1330              		.cfi_offset 9, -12
 1331              		.cfi_offset 10, -8
 1332              		.cfi_offset 14, -4
 1333 0004 0040A0E1 		mov	r4, r0
 1334 0008 0190A0E1 		mov	r9, r1
 1335 000c 0250A0E1 		mov	r5, r2
 1336 0010 0360A0E1 		mov	r6, r3
 1337 0014 20809DE5 		ldr	r8, [sp, #32]
 1338              	.LVL97:
 1339              	.LBB838:
 1340              	.LBB839:
 1341              	.LBB840:
  31:/home/zkmike/workspace/RZA2M/rza2m_2d_barcode_sample_freertos_gcc/src/zxing_lib/zxing/common/Counted.h ****   }
 1342              		.loc 3 31 0
 1343 0018 0030A0E3 		mov	r3, #0
 1344              	.LVL98:
 1345 001c 043080E5 		str	r3, [r0, #4]
 1346              	.LVL99:
 1347              	.LBE840:
 1348              	.LBE839:
  53:../src/zxing_lib/zxing/common/detector/WhiteRectangleDetector.cpp ****   width_ = image->getWidth();
 1349              		.loc 4 53 0
 1350 0020 38219FE5 		ldr	r2, .L111
 1351              	.LVL100:
 1352 0024 002080E5 		str	r2, [r0]
 1353              	.LVL101:
 1354              	.LBB841:
 1355              	.LBB842:
  64:/home/zkmike/workspace/RZA2M/rza2m_2d_barcode_sample_freertos_gcc/src/zxing_lib/zxing/common/Counted.h ****     reset(other.object_);
 1356              		.loc 3 64 0
 1357 0028 083080E5 		str	r3, [r0, #8]
  65:/home/zkmike/workspace/RZA2M/rza2m_2d_barcode_sample_freertos_gcc/src/zxing_lib/zxing/common/Counted.h ****   }
 1358              		.loc 3 65 0
 1359 002c 007091E5 		ldr	r7, [r1]
 1360              	.LVL102:
 1361              	.LBB843:
 1362              	.LBB844:
  81:/home/zkmike/workspace/RZA2M/rza2m_2d_barcode_sample_freertos_gcc/src/zxing_lib/zxing/common/Counted.h ****       o->retain();
 1363              		.loc 3 81 0
 1364 0030 030057E1 		cmp	r7, r3
 1365              	.LVL103:
 1366              	.LBB845:
 1367              	.LBB846:
  36:/home/zkmike/workspace/RZA2M/rza2m_2d_barcode_sample_freertos_gcc/src/zxing_lib/zxing/common/Counted.h ****     return this;
 1368              		.loc 3 36 0
 1369 0034 04309715 		ldrne	r3, [r7, #4]
 1370 0038 01308312 		addne	r3, r3, #1
 1371 003c 04308715 		strne	r3, [r7, #4]
 1372              	.LVL104:
 1373              	.L100:
 1374              	.LBE846:
 1375              	.LBE845:
  84:/home/zkmike/workspace/RZA2M/rza2m_2d_barcode_sample_freertos_gcc/src/zxing_lib/zxing/common/Counted.h ****       object_->release();
 1376              		.loc 3 84 0
 1377 0040 080094E5 		ldr	r0, [r4, #8]
 1378              	.LVL105:
 1379 0044 000050E3 		cmp	r0, #0
 1380 0048 0400000A 		beq	.L101
 1381              	.LVL106:
 1382              	.LBB847:
 1383              	.LBB848:
  40:/home/zkmike/workspace/RZA2M/rza2m_2d_barcode_sample_freertos_gcc/src/zxing_lib/zxing/common/Counted.h ****     if (count_ == 0) {
 1384              		.loc 3 40 0
 1385 004c 043090E5 		ldr	r3, [r0, #4]
 1386 0050 013043E2 		sub	r3, r3, #1
 1387 0054 043080E5 		str	r3, [r0, #4]
  41:/home/zkmike/workspace/RZA2M/rza2m_2d_barcode_sample_freertos_gcc/src/zxing_lib/zxing/common/Counted.h ****       count_ = 0xDEADF001;
 1388              		.loc 3 41 0
 1389 0058 000053E3 		cmp	r3, #0
 1390 005c 0300000A 		beq	.L109
 1391              	.LVL107:
 1392              	.L101:
 1393              	.LBE848:
 1394              	.LBE847:
 1395              		.loc 3 87 0
 1396 0060 087084E5 		str	r7, [r4, #8]
 1397              	.LVL108:
 1398              	.LBE844:
 1399              	.LBE843:
 1400              	.LBE842:
 1401              	.LBE841:
 1402              	.LBB854:
  54:../src/zxing_lib/zxing/common/detector/WhiteRectangleDetector.cpp ****   height_ = image->getHeight();
 1403              		.loc 4 54 0
 1404 0064 000099E5 		ldr	r0, [r9]
 1405              	.LEHB16:
 1406 0068 FEFFFFEB 		bl	_ZNK5zxing9BitMatrix8getWidthEv
 1407              	.LVL109:
 1408 006c 060000EA 		b	.L110
 1409              	.LVL110:
 1410              	.L109:
 1411              	.LBE854:
 1412              	.LBB859:
 1413              	.LBB853:
 1414              	.LBB852:
 1415              	.LBB851:
 1416              	.LBB850:
 1417              	.LBB849:
  42:/home/zkmike/workspace/RZA2M/rza2m_2d_barcode_sample_freertos_gcc/src/zxing_lib/zxing/common/Counted.h ****       delete this;
 1418              		.loc 3 42 0
 1419 0070 01300FE3 		movw	r3, #61441
 1420 0074 AD3E4DE3 		movt	r3, 57005
 1421 0078 043080E5 		str	r3, [r0, #4]
  43:/home/zkmike/workspace/RZA2M/rza2m_2d_barcode_sample_freertos_gcc/src/zxing_lib/zxing/common/Counted.h ****     }
 1422              		.loc 3 43 0
 1423 007c 003090E5 		ldr	r3, [r0]
 1424 0080 043093E5 		ldr	r3, [r3, #4]
 1425 0084 33FF2FE1 		blx	r3
 1426              	.LVL111:
 1427 0088 F4FFFFEA 		b	.L101
 1428              	.LVL112:
 1429              	.L110:
 1430              	.LBE849:
 1431              	.LBE850:
 1432              	.LBE851:
 1433              	.LBE852:
 1434              	.LBE853:
 1435              	.LBE859:
 1436              	.LBB860:
  54:../src/zxing_lib/zxing/common/detector/WhiteRectangleDetector.cpp ****   height_ = image->getHeight();
 1437              		.loc 4 54 0
 1438 008c 0C0084E5 		str	r0, [r4, #12]
  55:../src/zxing_lib/zxing/common/detector/WhiteRectangleDetector.cpp ****   
 1439              		.loc 4 55 0
 1440 0090 000099E5 		ldr	r0, [r9]
 1441 0094 FEFFFFEB 		bl	_ZNK5zxing9BitMatrix9getHeightEv
 1442              	.LVL113:
  55:../src/zxing_lib/zxing/common/detector/WhiteRectangleDetector.cpp ****   
 1443              		.loc 4 55 0 is_stmt 0 discriminator 1
 1444 0098 100084E5 		str	r0, [r4, #16]
  57:../src/zxing_lib/zxing/common/detector/WhiteRectangleDetector.cpp ****   leftInit_ = x - halfsize;
 1445              		.loc 4 57 0 is_stmt 1 discriminator 1
 1446 009c C520A0E1 		asr	r2, r5, #1
 1447              	.LVL114:
  58:../src/zxing_lib/zxing/common/detector/WhiteRectangleDetector.cpp ****   rightInit_ = x + halfsize;
 1448              		.loc 4 58 0 discriminator 1
 1449 00a0 021046E0 		sub	r1, r6, r2
 1450 00a4 141084E5 		str	r1, [r4, #20]
  59:../src/zxing_lib/zxing/common/detector/WhiteRectangleDetector.cpp ****   upInit_ = y - halfsize;
 1451              		.loc 4 59 0 discriminator 1
 1452 00a8 066082E0 		add	r6, r2, r6
 1453              	.LVL115:
 1454 00ac 186084E5 		str	r6, [r4, #24]
  60:../src/zxing_lib/zxing/common/detector/WhiteRectangleDetector.cpp ****   downInit_ = y + halfsize;
 1455              		.loc 4 60 0 discriminator 1
 1456 00b0 023048E0 		sub	r3, r8, r2
 1457 00b4 203084E5 		str	r3, [r4, #32]
  61:../src/zxing_lib/zxing/common/detector/WhiteRectangleDetector.cpp ****   
 1458              		.loc 4 61 0 discriminator 1
 1459 00b8 082082E0 		add	r2, r2, r8
 1460              	.LVL116:
 1461 00bc 1C2084E5 		str	r2, [r4, #28]
  63:../src/zxing_lib/zxing/common/detector/WhiteRectangleDetector.cpp ****     throw NotFoundException("Invalid dimensions WhiteRectangleDetector");
 1462              		.loc 4 63 0 discriminator 1
 1463 00c0 000053E3 		cmp	r3, #0
 1464 00c4 080000BA 		blt	.L102
 1465 00c8 000051E3 		cmp	r1, #0
 1466 00cc 060000BA 		blt	.L102
  63:../src/zxing_lib/zxing/common/detector/WhiteRectangleDetector.cpp ****     throw NotFoundException("Invalid dimensions WhiteRectangleDetector");
 1467              		.loc 4 63 0 is_stmt 0 discriminator 2
 1468 00d0 020050E1 		cmp	r0, r2
 1469 00d4 040000DA 		ble	.L102
  63:../src/zxing_lib/zxing/common/detector/WhiteRectangleDetector.cpp ****     throw NotFoundException("Invalid dimensions WhiteRectangleDetector");
 1470              		.loc 4 63 0 discriminator 3
 1471 00d8 0C3094E5 		ldr	r3, [r4, #12]
 1472 00dc 030056E1 		cmp	r6, r3
 1473 00e0 010000AA 		bge	.L102
 1474              	.LBE860:
 1475              	.LBE838:
  66:../src/zxing_lib/zxing/common/detector/WhiteRectangleDetector.cpp **** 
 1476              		.loc 4 66 0 is_stmt 1
 1477 00e4 0400A0E1 		mov	r0, r4
 1478 00e8 F087BDE8 		pop	{r4, r5, r6, r7, r8, r9, r10, pc}
 1479              	.L102:
 1480              	.LBB866:
 1481              	.LBB861:
  64:../src/zxing_lib/zxing/common/detector/WhiteRectangleDetector.cpp ****   }
 1482              		.loc 4 64 0
 1483 00ec 0800A0E3 		mov	r0, #8
 1484 00f0 FEFFFFEB 		bl	__cxa_allocate_exception
 1485              	.LVL117:
 1486 00f4 0050A0E1 		mov	r5, r0
 1487              	.LVL118:
 1488              	.LBB855:
 1489              	.LBB856:
 1490              	.LBB857:
 1491              	.LBB858:
  31:/home/zkmike/workspace/RZA2M/rza2m_2d_barcode_sample_freertos_gcc/src/zxing_lib/zxing/ReaderException.h ****   ~ReaderException() throw() {}
 1492              		.loc 7 31 0
 1493 00f8 001000E3 		movw	r1, #:lower16:.LC1
 1494 00fc 001040E3 		movt	r1, #:upper16:.LC1
 1495 0100 FEFFFFEB 		bl	_ZN5zxing9ExceptionC2EPKc
 1496              	.LVL119:
 1497              	.LBE858:
 1498              	.LBE857:
  29:/home/zkmike/workspace/RZA2M/rza2m_2d_barcode_sample_freertos_gcc/src/zxing_lib/zxing/NotFoundException.h ****   ~NotFoundException() throw() {}
 1499              		.loc 6 29 0
 1500 0104 58309FE5 		ldr	r3, .L111+4
 1501 0108 003085E5 		str	r3, [r5]
 1502              	.LVL120:
 1503              	.LBE856:
 1504              	.LBE855:
  64:../src/zxing_lib/zxing/common/detector/WhiteRectangleDetector.cpp ****   }
 1505              		.loc 4 64 0
 1506 010c 002000E3 		movw	r2, #:lower16:_ZN5zxing17NotFoundExceptionD1Ev
 1507 0110 002040E3 		movt	r2, #:upper16:_ZN5zxing17NotFoundExceptionD1Ev
 1508 0114 001000E3 		movw	r1, #:lower16:_ZTIN5zxing17NotFoundExceptionE
 1509 0118 001040E3 		movt	r1, #:upper16:_ZTIN5zxing17NotFoundExceptionE
 1510 011c 0500A0E1 		mov	r0, r5
 1511 0120 FEFFFFEB 		bl	__cxa_throw
 1512              	.LVL121:
 1513              	.LEHE16:
 1514              	.L106:
 1515              	.LBE861:
 1516              	.LBB862:
 1517              	.LBB863:
  75:/home/zkmike/workspace/RZA2M/rza2m_2d_barcode_sample_freertos_gcc/src/zxing_lib/zxing/common/Counted.h ****       object_->release();
 1518              		.loc 3 75 0
 1519 0124 080094E5 		ldr	r0, [r4, #8]
 1520 0128 000050E3 		cmp	r0, #0
 1521 012c 0A00000A 		beq	.L105
 1522              	.LVL122:
 1523              	.LBB864:
 1524              	.LBB865:
  40:/home/zkmike/workspace/RZA2M/rza2m_2d_barcode_sample_freertos_gcc/src/zxing_lib/zxing/common/Counted.h ****     if (count_ == 0) {
 1525              		.loc 3 40 0
 1526 0130 043090E5 		ldr	r3, [r0, #4]
 1527 0134 013043E2 		sub	r3, r3, #1
 1528 0138 043080E5 		str	r3, [r0, #4]
  41:/home/zkmike/workspace/RZA2M/rza2m_2d_barcode_sample_freertos_gcc/src/zxing_lib/zxing/common/Counted.h ****       count_ = 0xDEADF001;
 1529              		.loc 3 41 0
 1530 013c 000053E3 		cmp	r3, #0
 1531 0140 0500001A 		bne	.L105
  42:/home/zkmike/workspace/RZA2M/rza2m_2d_barcode_sample_freertos_gcc/src/zxing_lib/zxing/common/Counted.h ****       delete this;
 1532              		.loc 3 42 0
 1533 0144 01300FE3 		movw	r3, #61441
 1534 0148 AD3E4DE3 		movt	r3, 57005
 1535 014c 043080E5 		str	r3, [r0, #4]
  43:/home/zkmike/workspace/RZA2M/rza2m_2d_barcode_sample_freertos_gcc/src/zxing_lib/zxing/common/Counted.h ****     }
 1536              		.loc 3 43 0
 1537 0150 003090E5 		ldr	r3, [r0]
 1538 0154 043093E5 		ldr	r3, [r3, #4]
 1539 0158 33FF2FE1 		blx	r3
 1540              	.LVL123:
 1541              	.L105:
 1542              	.LEHB17:
 1543 015c FEFFFFEB 		bl	__cxa_end_cleanup
 1544              	.LVL124:
 1545              	.LEHE17:
 1546              	.L112:
 1547              		.align	2
 1548              	.L111:
 1549 0160 08000000 		.word	_ZTVN5zxing22WhiteRectangleDetectorE+8
 1550 0164 08000000 		.word	_ZTVN5zxing17NotFoundExceptionE+8
 1551              	.LBE865:
 1552              	.LBE864:
 1553              	.LBE863:
 1554              	.LBE862:
 1555              	.LBE866:
 1556              		.cfi_endproc
 1557              	.LFE2324:
 1558              		.personality	__gxx_personality_v0
 1559              		.handlerdata
 1560              	.LLSDA2324:
 1561 0008 FF       		.byte	0xff
 1562 0009 FF       		.byte	0xff
 1563 000a 01       		.byte	0x1
 1564 000b 0B       		.uleb128 .LLSDACSE2324-.LLSDACSB2324
 1565              	.LLSDACSB2324:
 1566 000c 68       		.uleb128 .LEHB16-.LFB2324
 1567 000d BC01     		.uleb128 .LEHE16-.LEHB16
 1568 000f A402     		.uleb128 .L106-.LFB2324
 1569 0011 00       		.uleb128 0
 1570 0012 DC02     		.uleb128 .LEHB17-.LFB2324
 1571 0014 04       		.uleb128 .LEHE17-.LEHB17
 1572 0015 00       		.uleb128 0
 1573 0016 00       		.uleb128 0
 1574              	.LLSDACSE2324:
 1575              		.section	.text._ZN5zxing22WhiteRectangleDetectorC2ENS_3RefINS_9BitMatrixEEEiii
 1576              		.fnend
 1578              		.global	_ZN5zxing22WhiteRectangleDetectorC1ENS_3RefINS_9BitMatrixEEEiii
 1579              		.set	_ZN5zxing22WhiteRectangleDetectorC1ENS_3RefINS_9BitMatrixEEEiii,_ZN5zxing22WhiteRectangleDete
 1580              		.section	.text._ZN5zxing22WhiteRectangleDetector22getBlackPointOnSegmentEiiii,"ax",%progbits
 1581              		.align	2
 1582              		.global	_ZN5zxing22WhiteRectangleDetector22getBlackPointOnSegmentEiiii
 1583              		.syntax unified
 1584              		.arm
 1585              		.fpu neon
 1587              	_ZN5zxing22WhiteRectangleDetector22getBlackPointOnSegmentEiiii:
 1588              		.fnstart
 1589              	.LFB2327:
 232:../src/zxing_lib/zxing/common/detector/WhiteRectangleDetector.cpp ****   float aX = float(aX_), aY = float(aY_), bX = float(bX_), bY = float(bY_);
 1590              		.loc 4 232 0
 1591              		.cfi_startproc
 1592              		.cfi_personality 0,__gxx_personality_v0
 1593              		.cfi_lsda 0,.LLSDA2327
 1594              		@ args = 8, pretend = 0, frame = 8
 1595              		@ frame_needed = 0, uses_anonymous_args = 0
 1596              	.LVL125:
 1597 0000 70402DE9 		push	{r4, r5, r6, lr}
 1598              		.save {r4, r5, r6, lr}
 1599              		.cfi_def_cfa_offset 16
 1600              		.cfi_offset 4, -16
 1601              		.cfi_offset 5, -12
 1602              		.cfi_offset 6, -8
 1603              		.cfi_offset 14, -4
 1604 0004 048B2DED 		vpush.64	{d8, d9}
 1605              		.vsave {d8, d9}
 1606              		.cfi_def_cfa_offset 32
 1607              		.cfi_offset 80, -32
 1608              		.cfi_offset 81, -28
 1609              		.cfi_offset 82, -24
 1610              		.cfi_offset 83, -20
 1611              		.pad #8
 1612 0008 08D04DE2 		sub	sp, sp, #8
 1613              		.cfi_def_cfa_offset 40
 1614 000c 0060A0E1 		mov	r6, r0
 1615 0010 0150A0E1 		mov	r5, r1
 233:../src/zxing_lib/zxing/common/detector/WhiteRectangleDetector.cpp ****   int dist = MathUtils::round(MathUtils::distance(aX, aY, bX, bY));
 1616              		.loc 4 233 0
 1617 0014 902A07EE 		vmov	s15, r2	@ int
 1618 0018 E79AB8EE 		vcvt.f32.s32	s18, s15
 1619              	.LVL126:
 1620 001c 903A07EE 		vmov	s15, r3	@ int
 1621 0020 E78AF8EE 		vcvt.f32.s32	s17, s15
 1622              	.LVL127:
 1623 0024 0A7ADDED 		vldr.32	s15, [sp, #40]	@ int
 1624 0028 E79AF8EE 		vcvt.f32.s32	s19, s15
 1625              	.LVL128:
 1626 002c 0B7ADDED 		vldr.32	s15, [sp, #44]	@ int
 1627 0030 E78AB8EE 		vcvt.f32.s32	s16, s15
 1628              	.LVL129:
 1629              	.LBB931:
 1630              	.LBB932:
 1631              		.file 8 "/home/zkmike/workspace/RZA2M/rza2m_2d_barcode_sample_freertos_gcc/src/zxing_lib/zxing/com
   1:/home/zkmike/workspace/RZA2M/rza2m_2d_barcode_sample_freertos_gcc/src/zxing_lib/zxing/common/detector/MathUtils.h **** // -*- mode:c++; tab-width:2; indent-tabs-mode:nil; c-basic-offset:2 -*-
   2:/home/zkmike/workspace/RZA2M/rza2m_2d_barcode_sample_freertos_gcc/src/zxing_lib/zxing/common/detector/MathUtils.h **** #ifndef __ZXING_COMMON_DETECTOR_MATHUTILS_H__
   3:/home/zkmike/workspace/RZA2M/rza2m_2d_barcode_sample_freertos_gcc/src/zxing_lib/zxing/common/detector/MathUtils.h **** #define __ZXING_COMMON_DETECTOR_MATHUTILS_H__
   4:/home/zkmike/workspace/RZA2M/rza2m_2d_barcode_sample_freertos_gcc/src/zxing_lib/zxing/common/detector/MathUtils.h **** /*
   5:/home/zkmike/workspace/RZA2M/rza2m_2d_barcode_sample_freertos_gcc/src/zxing_lib/zxing/common/detector/MathUtils.h ****  *  Copyright 2012 ZXing authors All rights reserved.
   6:/home/zkmike/workspace/RZA2M/rza2m_2d_barcode_sample_freertos_gcc/src/zxing_lib/zxing/common/detector/MathUtils.h ****  *
   7:/home/zkmike/workspace/RZA2M/rza2m_2d_barcode_sample_freertos_gcc/src/zxing_lib/zxing/common/detector/MathUtils.h ****  * Licensed under the Apache License, Version 2.0 (the "License");
   8:/home/zkmike/workspace/RZA2M/rza2m_2d_barcode_sample_freertos_gcc/src/zxing_lib/zxing/common/detector/MathUtils.h ****  * you may not use this file except in compliance with the License.
   9:/home/zkmike/workspace/RZA2M/rza2m_2d_barcode_sample_freertos_gcc/src/zxing_lib/zxing/common/detector/MathUtils.h ****  * You may obtain a copy of the License at
  10:/home/zkmike/workspace/RZA2M/rza2m_2d_barcode_sample_freertos_gcc/src/zxing_lib/zxing/common/detector/MathUtils.h ****  *
  11:/home/zkmike/workspace/RZA2M/rza2m_2d_barcode_sample_freertos_gcc/src/zxing_lib/zxing/common/detector/MathUtils.h ****  *      http://www.apache.org/licenses/LICENSE-2.0
  12:/home/zkmike/workspace/RZA2M/rza2m_2d_barcode_sample_freertos_gcc/src/zxing_lib/zxing/common/detector/MathUtils.h ****  *
  13:/home/zkmike/workspace/RZA2M/rza2m_2d_barcode_sample_freertos_gcc/src/zxing_lib/zxing/common/detector/MathUtils.h ****  * Unless required by applicable law or agreed to in writing, software
  14:/home/zkmike/workspace/RZA2M/rza2m_2d_barcode_sample_freertos_gcc/src/zxing_lib/zxing/common/detector/MathUtils.h ****  * distributed under the License is distributed on an "AS IS" BASIS,
  15:/home/zkmike/workspace/RZA2M/rza2m_2d_barcode_sample_freertos_gcc/src/zxing_lib/zxing/common/detector/MathUtils.h ****  * WITHOUT WARRANTIES OR CONDITIONS OF ANY KIND, either express or implied.
  16:/home/zkmike/workspace/RZA2M/rza2m_2d_barcode_sample_freertos_gcc/src/zxing_lib/zxing/common/detector/MathUtils.h ****  * See the License for the specific language governing permissions and
  17:/home/zkmike/workspace/RZA2M/rza2m_2d_barcode_sample_freertos_gcc/src/zxing_lib/zxing/common/detector/MathUtils.h ****  * limitations under the License.
  18:/home/zkmike/workspace/RZA2M/rza2m_2d_barcode_sample_freertos_gcc/src/zxing_lib/zxing/common/detector/MathUtils.h ****  */
  19:/home/zkmike/workspace/RZA2M/rza2m_2d_barcode_sample_freertos_gcc/src/zxing_lib/zxing/common/detector/MathUtils.h **** 
  20:/home/zkmike/workspace/RZA2M/rza2m_2d_barcode_sample_freertos_gcc/src/zxing_lib/zxing/common/detector/MathUtils.h **** #include <cmath>
  21:/home/zkmike/workspace/RZA2M/rza2m_2d_barcode_sample_freertos_gcc/src/zxing_lib/zxing/common/detector/MathUtils.h **** 
  22:/home/zkmike/workspace/RZA2M/rza2m_2d_barcode_sample_freertos_gcc/src/zxing_lib/zxing/common/detector/MathUtils.h **** namespace zxing {
  23:/home/zkmike/workspace/RZA2M/rza2m_2d_barcode_sample_freertos_gcc/src/zxing_lib/zxing/common/detector/MathUtils.h **** namespace common {
  24:/home/zkmike/workspace/RZA2M/rza2m_2d_barcode_sample_freertos_gcc/src/zxing_lib/zxing/common/detector/MathUtils.h **** namespace detector {
  25:/home/zkmike/workspace/RZA2M/rza2m_2d_barcode_sample_freertos_gcc/src/zxing_lib/zxing/common/detector/MathUtils.h **** 
  26:/home/zkmike/workspace/RZA2M/rza2m_2d_barcode_sample_freertos_gcc/src/zxing_lib/zxing/common/detector/MathUtils.h **** class MathUtils {
  27:/home/zkmike/workspace/RZA2M/rza2m_2d_barcode_sample_freertos_gcc/src/zxing_lib/zxing/common/detector/MathUtils.h ****  private:
  28:/home/zkmike/workspace/RZA2M/rza2m_2d_barcode_sample_freertos_gcc/src/zxing_lib/zxing/common/detector/MathUtils.h ****   MathUtils();
  29:/home/zkmike/workspace/RZA2M/rza2m_2d_barcode_sample_freertos_gcc/src/zxing_lib/zxing/common/detector/MathUtils.h ****   ~MathUtils();
  30:/home/zkmike/workspace/RZA2M/rza2m_2d_barcode_sample_freertos_gcc/src/zxing_lib/zxing/common/detector/MathUtils.h ****  public:
  31:/home/zkmike/workspace/RZA2M/rza2m_2d_barcode_sample_freertos_gcc/src/zxing_lib/zxing/common/detector/MathUtils.h **** 
  32:/home/zkmike/workspace/RZA2M/rza2m_2d_barcode_sample_freertos_gcc/src/zxing_lib/zxing/common/detector/MathUtils.h ****   /**
  33:/home/zkmike/workspace/RZA2M/rza2m_2d_barcode_sample_freertos_gcc/src/zxing_lib/zxing/common/detector/MathUtils.h ****    * Ends up being a bit faster than {@link Math#round(float)}. This merely rounds its
  34:/home/zkmike/workspace/RZA2M/rza2m_2d_barcode_sample_freertos_gcc/src/zxing_lib/zxing/common/detector/MathUtils.h ****    * argument to the nearest int, where x.5 rounds up to x+1.
  35:/home/zkmike/workspace/RZA2M/rza2m_2d_barcode_sample_freertos_gcc/src/zxing_lib/zxing/common/detector/MathUtils.h ****    */
  36:/home/zkmike/workspace/RZA2M/rza2m_2d_barcode_sample_freertos_gcc/src/zxing_lib/zxing/common/detector/MathUtils.h ****   static inline int round(float d) {
  37:/home/zkmike/workspace/RZA2M/rza2m_2d_barcode_sample_freertos_gcc/src/zxing_lib/zxing/common/detector/MathUtils.h ****     return (int) (d + 0.5f);
  38:/home/zkmike/workspace/RZA2M/rza2m_2d_barcode_sample_freertos_gcc/src/zxing_lib/zxing/common/detector/MathUtils.h ****   }
  39:/home/zkmike/workspace/RZA2M/rza2m_2d_barcode_sample_freertos_gcc/src/zxing_lib/zxing/common/detector/MathUtils.h **** 
  40:/home/zkmike/workspace/RZA2M/rza2m_2d_barcode_sample_freertos_gcc/src/zxing_lib/zxing/common/detector/MathUtils.h ****   static inline float distance(float aX, float aY, float bX, float bY) {
  41:/home/zkmike/workspace/RZA2M/rza2m_2d_barcode_sample_freertos_gcc/src/zxing_lib/zxing/common/detector/MathUtils.h ****     float xDiff = aX - bX;
 1632              		.loc 8 41 0
 1633 0034 697A79EE 		vsub.f32	s15, s18, s19
 1634              	.LVL130:
  42:/home/zkmike/workspace/RZA2M/rza2m_2d_barcode_sample_freertos_gcc/src/zxing_lib/zxing/common/detector/MathUtils.h ****     float yDiff = aY - bY;
 1635              		.loc 8 42 0
 1636 0038 C80A38EE 		vsub.f32	s0, s17, s16
 1637              	.LVL131:
  43:/home/zkmike/workspace/RZA2M/rza2m_2d_barcode_sample_freertos_gcc/src/zxing_lib/zxing/common/detector/MathUtils.h ****     return sqrt(xDiff * xDiff + yDiff * yDiff);
 1638              		.loc 8 43 0
 1639 003c 000A20EE 		vmul.f32	s0, s0, s0
 1640              	.LVL132:
 1641 0040 A70A07EE 		vmla.f32	s0, s15, s15
 1642 0044 C00AB7EE 		vcvt.f64.f32	d0, s0
 1643 0048 FEFFFFEB 		bl	sqrt
 1644              	.LVL133:
 1645 004c C00BB7EE 		vcvt.f32.f64	s0, d0
 1646              	.LVL134:
 1647              	.LBE932:
 1648              	.LBE931:
 1649              	.LBB933:
 1650              	.LBB934:
  37:/home/zkmike/workspace/RZA2M/rza2m_2d_barcode_sample_freertos_gcc/src/zxing_lib/zxing/common/detector/MathUtils.h ****   }
 1651              		.loc 8 37 0
 1652 0050 007AF6EE 		vmov.f32	s15, #5.0e-1
 1653 0054 270A30EE 		vadd.f32	s0, s0, s15
 1654 0058 C07AFDEE 		vcvt.s32.f32	s15, s0
 1655 005c 90CA17EE 		vmov	ip, s15	@ int
 1656              	.LBE934:
 1657              	.LBE933:
 235:../src/zxing_lib/zxing/common/detector/WhiteRectangleDetector.cpp ****   float yStep = (bY - aY) / dist;
 1658              		.loc 4 235 0
 1659 0060 C99A79EE 		vsub.f32	s19, s19, s18
 1660              	.LVL135:
 1661 0064 E77AF8EE 		vcvt.f32.s32	s15, s15
 1662 0068 A75AC9EE 		vdiv.f32	s11, s19, s15
 1663              	.LVL136:
 236:../src/zxing_lib/zxing/common/detector/WhiteRectangleDetector.cpp **** 
 1664              		.loc 4 236 0
 1665 006c 688A38EE 		vsub.f32	s16, s16, s17
 1666              	.LVL137:
 1667 0070 276A88EE 		vdiv.f32	s12, s16, s15
 1668              	.LVL138:
 1669              	.LBB935:
 238:../src/zxing_lib/zxing/common/detector/WhiteRectangleDetector.cpp ****     int x = MathUtils::round(aX + i * xStep);
 1670              		.loc 4 238 0
 1671 0074 0030A0E3 		mov	r3, #0
 1672              	.LVL139:
 1673              	.L122:
 238:../src/zxing_lib/zxing/common/detector/WhiteRectangleDetector.cpp ****     int x = MathUtils::round(aX + i * xStep);
 1674              		.loc 4 238 0 is_stmt 0 discriminator 1
 1675 0078 0C0053E1 		cmp	r3, ip
 1676 007c 5A0000AA 		bge	.L114
 1677              	.LBB936:
 239:../src/zxing_lib/zxing/common/detector/WhiteRectangleDetector.cpp ****     int y = MathUtils::round(aY + i * yStep);
 1678              		.loc 4 239 0 is_stmt 1
 1679 0080 903A07EE 		vmov	s15, r3	@ int
 1680 0084 E76AF8EE 		vcvt.f32.s32	s13, s15
 1681 0088 497AF0EE 		vmov.f32	s15, s18
 1682 008c A67A45EE 		vmla.f32	s15, s11, s13
 1683              	.LVL140:
 1684              	.LBB937:
 1685              	.LBB938:
  37:/home/zkmike/workspace/RZA2M/rza2m_2d_barcode_sample_freertos_gcc/src/zxing_lib/zxing/common/detector/MathUtils.h ****   }
 1686              		.loc 8 37 0
 1687 0090 007AB6EE 		vmov.f32	s14, #5.0e-1
 1688 0094 877A77EE 		vadd.f32	s15, s15, s14
 1689              	.LVL141:
 1690 0098 E77AFDEE 		vcvt.s32.f32	s15, s15
 1691 009c 904A17EE 		vmov	r4, s15	@ int
 1692              	.LVL142:
 1693              	.LBE938:
 1694              	.LBE937:
 240:../src/zxing_lib/zxing/common/detector/WhiteRectangleDetector.cpp ****     if (image_->get(x, y)) {
 1695              		.loc 4 240 0
 1696 00a0 688AB0EE 		vmov.f32	s16, s17
 1697 00a4 268A06EE 		vmla.f32	s16, s12, s13
 1698              	.LVL143:
 1699              	.LBB939:
 1700              	.LBB940:
  37:/home/zkmike/workspace/RZA2M/rza2m_2d_barcode_sample_freertos_gcc/src/zxing_lib/zxing/common/detector/MathUtils.h ****   }
 1701              		.loc 8 37 0
 1702 00a8 078A38EE 		vadd.f32	s16, s16, s14
 1703              	.LVL144:
 1704 00ac C88ABDEE 		vcvt.s32.f32	s16, s16
 1705              	.LVL145:
 1706              	.LBE940:
 1707              	.LBE939:
 1708              	.LBB941:
 1709              	.LBB942:
 1710              	.LBB943:
  88:/home/zkmike/workspace/RZA2M/rza2m_2d_barcode_sample_freertos_gcc/src/zxing_lib/zxing/common/Counted.h ****   }
  89:/home/zkmike/workspace/RZA2M/rza2m_2d_barcode_sample_freertos_gcc/src/zxing_lib/zxing/common/Counted.h ****   Ref& operator=(const Ref &other) {
  90:/home/zkmike/workspace/RZA2M/rza2m_2d_barcode_sample_freertos_gcc/src/zxing_lib/zxing/common/Counted.h ****     reset(other.object_);
  91:/home/zkmike/workspace/RZA2M/rza2m_2d_barcode_sample_freertos_gcc/src/zxing_lib/zxing/common/Counted.h ****     return *this;
  92:/home/zkmike/workspace/RZA2M/rza2m_2d_barcode_sample_freertos_gcc/src/zxing_lib/zxing/common/Counted.h ****   }
  93:/home/zkmike/workspace/RZA2M/rza2m_2d_barcode_sample_freertos_gcc/src/zxing_lib/zxing/common/Counted.h ****   template<class Y>
  94:/home/zkmike/workspace/RZA2M/rza2m_2d_barcode_sample_freertos_gcc/src/zxing_lib/zxing/common/Counted.h ****   Ref& operator=(const Ref<Y> &other) {
  95:/home/zkmike/workspace/RZA2M/rza2m_2d_barcode_sample_freertos_gcc/src/zxing_lib/zxing/common/Counted.h ****     reset(other.object_);
  96:/home/zkmike/workspace/RZA2M/rza2m_2d_barcode_sample_freertos_gcc/src/zxing_lib/zxing/common/Counted.h ****     return *this;
  97:/home/zkmike/workspace/RZA2M/rza2m_2d_barcode_sample_freertos_gcc/src/zxing_lib/zxing/common/Counted.h ****   }
  98:/home/zkmike/workspace/RZA2M/rza2m_2d_barcode_sample_freertos_gcc/src/zxing_lib/zxing/common/Counted.h ****   Ref& operator=(T* o) {
  99:/home/zkmike/workspace/RZA2M/rza2m_2d_barcode_sample_freertos_gcc/src/zxing_lib/zxing/common/Counted.h ****     reset(o);
 100:/home/zkmike/workspace/RZA2M/rza2m_2d_barcode_sample_freertos_gcc/src/zxing_lib/zxing/common/Counted.h ****     return *this;
 101:/home/zkmike/workspace/RZA2M/rza2m_2d_barcode_sample_freertos_gcc/src/zxing_lib/zxing/common/Counted.h ****   }
 102:/home/zkmike/workspace/RZA2M/rza2m_2d_barcode_sample_freertos_gcc/src/zxing_lib/zxing/common/Counted.h ****   template<class Y>
 103:/home/zkmike/workspace/RZA2M/rza2m_2d_barcode_sample_freertos_gcc/src/zxing_lib/zxing/common/Counted.h ****   Ref& operator=(Y* o) {
 104:/home/zkmike/workspace/RZA2M/rza2m_2d_barcode_sample_freertos_gcc/src/zxing_lib/zxing/common/Counted.h ****     reset(o);
 105:/home/zkmike/workspace/RZA2M/rza2m_2d_barcode_sample_freertos_gcc/src/zxing_lib/zxing/common/Counted.h ****     return *this;
 106:/home/zkmike/workspace/RZA2M/rza2m_2d_barcode_sample_freertos_gcc/src/zxing_lib/zxing/common/Counted.h ****   }
 107:/home/zkmike/workspace/RZA2M/rza2m_2d_barcode_sample_freertos_gcc/src/zxing_lib/zxing/common/Counted.h **** 
 108:/home/zkmike/workspace/RZA2M/rza2m_2d_barcode_sample_freertos_gcc/src/zxing_lib/zxing/common/Counted.h ****   T& operator*() {
 109:/home/zkmike/workspace/RZA2M/rza2m_2d_barcode_sample_freertos_gcc/src/zxing_lib/zxing/common/Counted.h ****     return *object_;
 110:/home/zkmike/workspace/RZA2M/rza2m_2d_barcode_sample_freertos_gcc/src/zxing_lib/zxing/common/Counted.h ****   }
 111:/home/zkmike/workspace/RZA2M/rza2m_2d_barcode_sample_freertos_gcc/src/zxing_lib/zxing/common/Counted.h ****   T* operator->() const {
 112:/home/zkmike/workspace/RZA2M/rza2m_2d_barcode_sample_freertos_gcc/src/zxing_lib/zxing/common/Counted.h ****     return object_;
 1711              		.loc 3 112 0
 1712 00b0 081095E5 		ldr	r1, [r5, #8]
 1713              	.LVL146:
 1714              	.LBE943:
 1715              	.LBE942:
 1716              	.LBB944:
 1717              	.LBB945:
 1718              		.file 9 "/home/zkmike/workspace/RZA2M/rza2m_2d_barcode_sample_freertos_gcc/src/zxing_lib/zxing/com
   1:/home/zkmike/workspace/RZA2M/rza2m_2d_barcode_sample_freertos_gcc/src/zxing_lib/zxing/common/BitMatrix.h **** // -*- mode:c++; tab-width:2; indent-tabs-mode:nil; c-basic-offset:2 -*-
   2:/home/zkmike/workspace/RZA2M/rza2m_2d_barcode_sample_freertos_gcc/src/zxing_lib/zxing/common/BitMatrix.h **** #ifndef __BIT_MATRIX_H__
   3:/home/zkmike/workspace/RZA2M/rza2m_2d_barcode_sample_freertos_gcc/src/zxing_lib/zxing/common/BitMatrix.h **** #define __BIT_MATRIX_H__
   4:/home/zkmike/workspace/RZA2M/rza2m_2d_barcode_sample_freertos_gcc/src/zxing_lib/zxing/common/BitMatrix.h **** 
   5:/home/zkmike/workspace/RZA2M/rza2m_2d_barcode_sample_freertos_gcc/src/zxing_lib/zxing/common/BitMatrix.h **** /*
   6:/home/zkmike/workspace/RZA2M/rza2m_2d_barcode_sample_freertos_gcc/src/zxing_lib/zxing/common/BitMatrix.h ****  *  BitMatrix.h
   7:/home/zkmike/workspace/RZA2M/rza2m_2d_barcode_sample_freertos_gcc/src/zxing_lib/zxing/common/BitMatrix.h ****  *  zxing
   8:/home/zkmike/workspace/RZA2M/rza2m_2d_barcode_sample_freertos_gcc/src/zxing_lib/zxing/common/BitMatrix.h ****  *
   9:/home/zkmike/workspace/RZA2M/rza2m_2d_barcode_sample_freertos_gcc/src/zxing_lib/zxing/common/BitMatrix.h ****  *  Copyright 2010 ZXing authors All rights reserved.
  10:/home/zkmike/workspace/RZA2M/rza2m_2d_barcode_sample_freertos_gcc/src/zxing_lib/zxing/common/BitMatrix.h ****  *
  11:/home/zkmike/workspace/RZA2M/rza2m_2d_barcode_sample_freertos_gcc/src/zxing_lib/zxing/common/BitMatrix.h ****  * Licensed under the Apache License, Version 2.0 (the "License");
  12:/home/zkmike/workspace/RZA2M/rza2m_2d_barcode_sample_freertos_gcc/src/zxing_lib/zxing/common/BitMatrix.h ****  * you may not use this file except in compliance with the License.
  13:/home/zkmike/workspace/RZA2M/rza2m_2d_barcode_sample_freertos_gcc/src/zxing_lib/zxing/common/BitMatrix.h ****  * You may obtain a copy of the License at
  14:/home/zkmike/workspace/RZA2M/rza2m_2d_barcode_sample_freertos_gcc/src/zxing_lib/zxing/common/BitMatrix.h ****  *
  15:/home/zkmike/workspace/RZA2M/rza2m_2d_barcode_sample_freertos_gcc/src/zxing_lib/zxing/common/BitMatrix.h ****  *      http://www.apache.org/licenses/LICENSE-2.0
  16:/home/zkmike/workspace/RZA2M/rza2m_2d_barcode_sample_freertos_gcc/src/zxing_lib/zxing/common/BitMatrix.h ****  *
  17:/home/zkmike/workspace/RZA2M/rza2m_2d_barcode_sample_freertos_gcc/src/zxing_lib/zxing/common/BitMatrix.h ****  * Unless required by applicable law or agreed to in writing, software
  18:/home/zkmike/workspace/RZA2M/rza2m_2d_barcode_sample_freertos_gcc/src/zxing_lib/zxing/common/BitMatrix.h ****  * distributed under the License is distributed on an "AS IS" BASIS,
  19:/home/zkmike/workspace/RZA2M/rza2m_2d_barcode_sample_freertos_gcc/src/zxing_lib/zxing/common/BitMatrix.h ****  * WITHOUT WARRANTIES OR CONDITIONS OF ANY KIND, either express or implied.
  20:/home/zkmike/workspace/RZA2M/rza2m_2d_barcode_sample_freertos_gcc/src/zxing_lib/zxing/common/BitMatrix.h ****  * See the License for the specific language governing permissions and
  21:/home/zkmike/workspace/RZA2M/rza2m_2d_barcode_sample_freertos_gcc/src/zxing_lib/zxing/common/BitMatrix.h ****  * limitations under the License.
  22:/home/zkmike/workspace/RZA2M/rza2m_2d_barcode_sample_freertos_gcc/src/zxing_lib/zxing/common/BitMatrix.h ****  */
  23:/home/zkmike/workspace/RZA2M/rza2m_2d_barcode_sample_freertos_gcc/src/zxing_lib/zxing/common/BitMatrix.h **** 
  24:/home/zkmike/workspace/RZA2M/rza2m_2d_barcode_sample_freertos_gcc/src/zxing_lib/zxing/common/BitMatrix.h **** #include <zxing/common/Counted.h>
  25:/home/zkmike/workspace/RZA2M/rza2m_2d_barcode_sample_freertos_gcc/src/zxing_lib/zxing/common/BitMatrix.h **** #include <zxing/common/BitArray.h>
  26:/home/zkmike/workspace/RZA2M/rza2m_2d_barcode_sample_freertos_gcc/src/zxing_lib/zxing/common/BitMatrix.h **** #include <zxing/common/Array.h>
  27:/home/zkmike/workspace/RZA2M/rza2m_2d_barcode_sample_freertos_gcc/src/zxing_lib/zxing/common/BitMatrix.h **** #include <limits>
  28:/home/zkmike/workspace/RZA2M/rza2m_2d_barcode_sample_freertos_gcc/src/zxing_lib/zxing/common/BitMatrix.h **** 
  29:/home/zkmike/workspace/RZA2M/rza2m_2d_barcode_sample_freertos_gcc/src/zxing_lib/zxing/common/BitMatrix.h **** namespace zxing {
  30:/home/zkmike/workspace/RZA2M/rza2m_2d_barcode_sample_freertos_gcc/src/zxing_lib/zxing/common/BitMatrix.h **** 
  31:/home/zkmike/workspace/RZA2M/rza2m_2d_barcode_sample_freertos_gcc/src/zxing_lib/zxing/common/BitMatrix.h **** class BitMatrix : public Counted {
  32:/home/zkmike/workspace/RZA2M/rza2m_2d_barcode_sample_freertos_gcc/src/zxing_lib/zxing/common/BitMatrix.h **** public:
  33:/home/zkmike/workspace/RZA2M/rza2m_2d_barcode_sample_freertos_gcc/src/zxing_lib/zxing/common/BitMatrix.h ****   static const int bitsPerWord = std::numeric_limits<unsigned int>::digits;
  34:/home/zkmike/workspace/RZA2M/rza2m_2d_barcode_sample_freertos_gcc/src/zxing_lib/zxing/common/BitMatrix.h **** 
  35:/home/zkmike/workspace/RZA2M/rza2m_2d_barcode_sample_freertos_gcc/src/zxing_lib/zxing/common/BitMatrix.h **** private:
  36:/home/zkmike/workspace/RZA2M/rza2m_2d_barcode_sample_freertos_gcc/src/zxing_lib/zxing/common/BitMatrix.h ****   int width;
  37:/home/zkmike/workspace/RZA2M/rza2m_2d_barcode_sample_freertos_gcc/src/zxing_lib/zxing/common/BitMatrix.h ****   int height;
  38:/home/zkmike/workspace/RZA2M/rza2m_2d_barcode_sample_freertos_gcc/src/zxing_lib/zxing/common/BitMatrix.h ****   int rowSize;
  39:/home/zkmike/workspace/RZA2M/rza2m_2d_barcode_sample_freertos_gcc/src/zxing_lib/zxing/common/BitMatrix.h ****   ArrayRef<int> bits;
  40:/home/zkmike/workspace/RZA2M/rza2m_2d_barcode_sample_freertos_gcc/src/zxing_lib/zxing/common/BitMatrix.h **** 
  41:/home/zkmike/workspace/RZA2M/rza2m_2d_barcode_sample_freertos_gcc/src/zxing_lib/zxing/common/BitMatrix.h **** #define ZX_LOG_DIGITS(digits) \
  42:/home/zkmike/workspace/RZA2M/rza2m_2d_barcode_sample_freertos_gcc/src/zxing_lib/zxing/common/BitMatrix.h ****     ((digits == 8) ? 3 : \
  43:/home/zkmike/workspace/RZA2M/rza2m_2d_barcode_sample_freertos_gcc/src/zxing_lib/zxing/common/BitMatrix.h ****      ((digits == 16) ? 4 : \
  44:/home/zkmike/workspace/RZA2M/rza2m_2d_barcode_sample_freertos_gcc/src/zxing_lib/zxing/common/BitMatrix.h ****       ((digits == 32) ? 5 : \
  45:/home/zkmike/workspace/RZA2M/rza2m_2d_barcode_sample_freertos_gcc/src/zxing_lib/zxing/common/BitMatrix.h ****        ((digits == 64) ? 6 : \
  46:/home/zkmike/workspace/RZA2M/rza2m_2d_barcode_sample_freertos_gcc/src/zxing_lib/zxing/common/BitMatrix.h ****         ((digits == 128) ? 7 : \
  47:/home/zkmike/workspace/RZA2M/rza2m_2d_barcode_sample_freertos_gcc/src/zxing_lib/zxing/common/BitMatrix.h ****          (-1))))))
  48:/home/zkmike/workspace/RZA2M/rza2m_2d_barcode_sample_freertos_gcc/src/zxing_lib/zxing/common/BitMatrix.h **** 
  49:/home/zkmike/workspace/RZA2M/rza2m_2d_barcode_sample_freertos_gcc/src/zxing_lib/zxing/common/BitMatrix.h ****   static const int logBits = ZX_LOG_DIGITS(bitsPerWord);
  50:/home/zkmike/workspace/RZA2M/rza2m_2d_barcode_sample_freertos_gcc/src/zxing_lib/zxing/common/BitMatrix.h ****   static const int bitsMask = (1 << logBits) - 1;
  51:/home/zkmike/workspace/RZA2M/rza2m_2d_barcode_sample_freertos_gcc/src/zxing_lib/zxing/common/BitMatrix.h **** 
  52:/home/zkmike/workspace/RZA2M/rza2m_2d_barcode_sample_freertos_gcc/src/zxing_lib/zxing/common/BitMatrix.h **** public:
  53:/home/zkmike/workspace/RZA2M/rza2m_2d_barcode_sample_freertos_gcc/src/zxing_lib/zxing/common/BitMatrix.h ****   BitMatrix(int dimension);
  54:/home/zkmike/workspace/RZA2M/rza2m_2d_barcode_sample_freertos_gcc/src/zxing_lib/zxing/common/BitMatrix.h ****   BitMatrix(int width, int height);
  55:/home/zkmike/workspace/RZA2M/rza2m_2d_barcode_sample_freertos_gcc/src/zxing_lib/zxing/common/BitMatrix.h **** 
  56:/home/zkmike/workspace/RZA2M/rza2m_2d_barcode_sample_freertos_gcc/src/zxing_lib/zxing/common/BitMatrix.h ****   ~BitMatrix();
  57:/home/zkmike/workspace/RZA2M/rza2m_2d_barcode_sample_freertos_gcc/src/zxing_lib/zxing/common/BitMatrix.h **** 
  58:/home/zkmike/workspace/RZA2M/rza2m_2d_barcode_sample_freertos_gcc/src/zxing_lib/zxing/common/BitMatrix.h ****   bool get(int x, int y) const {
  59:/home/zkmike/workspace/RZA2M/rza2m_2d_barcode_sample_freertos_gcc/src/zxing_lib/zxing/common/BitMatrix.h ****     int offset = y * rowSize + (x >> logBits);
 1719              		.loc 9 59 0
 1720 00b4 102091E5 		ldr	r2, [r1, #16]
 1721 00b8 C402A0E1 		asr	r0, r4, #5
 1722 00bc 10EA18EE 		vmov	lr, s16	@ int
 1723 00c0 9E0222E0 		mla	r2, lr, r2, r0
 1724              	.LVL147:
 1725              	.LBB946:
 1726              	.LBB947:
 1727              		.file 10 "/home/zkmike/workspace/RZA2M/rza2m_2d_barcode_sample_freertos_gcc/src/zxing_lib/zxing/co
   1:/home/zkmike/workspace/RZA2M/rza2m_2d_barcode_sample_freertos_gcc/src/zxing_lib/zxing/common/Array.h **** // -*- mode:c++; tab-width:2; indent-tabs-mode:nil; c-basic-offset:2 -*-
   2:/home/zkmike/workspace/RZA2M/rza2m_2d_barcode_sample_freertos_gcc/src/zxing_lib/zxing/common/Array.h **** #ifndef __ARRAY_H__
   3:/home/zkmike/workspace/RZA2M/rza2m_2d_barcode_sample_freertos_gcc/src/zxing_lib/zxing/common/Array.h **** #define __ARRAY_H__
   4:/home/zkmike/workspace/RZA2M/rza2m_2d_barcode_sample_freertos_gcc/src/zxing_lib/zxing/common/Array.h **** 
   5:/home/zkmike/workspace/RZA2M/rza2m_2d_barcode_sample_freertos_gcc/src/zxing_lib/zxing/common/Array.h **** /*
   6:/home/zkmike/workspace/RZA2M/rza2m_2d_barcode_sample_freertos_gcc/src/zxing_lib/zxing/common/Array.h ****  *  Array.h
   7:/home/zkmike/workspace/RZA2M/rza2m_2d_barcode_sample_freertos_gcc/src/zxing_lib/zxing/common/Array.h ****  *  zxing
   8:/home/zkmike/workspace/RZA2M/rza2m_2d_barcode_sample_freertos_gcc/src/zxing_lib/zxing/common/Array.h ****  *
   9:/home/zkmike/workspace/RZA2M/rza2m_2d_barcode_sample_freertos_gcc/src/zxing_lib/zxing/common/Array.h ****  *  Copyright 2010 ZXing authors All rights reserved.
  10:/home/zkmike/workspace/RZA2M/rza2m_2d_barcode_sample_freertos_gcc/src/zxing_lib/zxing/common/Array.h ****  *
  11:/home/zkmike/workspace/RZA2M/rza2m_2d_barcode_sample_freertos_gcc/src/zxing_lib/zxing/common/Array.h ****  * Licensed under the Apache License, Version 2.0 (the "License");
  12:/home/zkmike/workspace/RZA2M/rza2m_2d_barcode_sample_freertos_gcc/src/zxing_lib/zxing/common/Array.h ****  * you may not use this file except in compliance with the License.
  13:/home/zkmike/workspace/RZA2M/rza2m_2d_barcode_sample_freertos_gcc/src/zxing_lib/zxing/common/Array.h ****  * You may obtain a copy of the License at
  14:/home/zkmike/workspace/RZA2M/rza2m_2d_barcode_sample_freertos_gcc/src/zxing_lib/zxing/common/Array.h ****  *
  15:/home/zkmike/workspace/RZA2M/rza2m_2d_barcode_sample_freertos_gcc/src/zxing_lib/zxing/common/Array.h ****  *      http://www.apache.org/licenses/LICENSE-2.0
  16:/home/zkmike/workspace/RZA2M/rza2m_2d_barcode_sample_freertos_gcc/src/zxing_lib/zxing/common/Array.h ****  *
  17:/home/zkmike/workspace/RZA2M/rza2m_2d_barcode_sample_freertos_gcc/src/zxing_lib/zxing/common/Array.h ****  * Unless required by applicable law or agreed to in writing, software
  18:/home/zkmike/workspace/RZA2M/rza2m_2d_barcode_sample_freertos_gcc/src/zxing_lib/zxing/common/Array.h ****  * distributed under the License is distributed on an "AS IS" BASIS,
  19:/home/zkmike/workspace/RZA2M/rza2m_2d_barcode_sample_freertos_gcc/src/zxing_lib/zxing/common/Array.h ****  * WITHOUT WARRANTIES OR CONDITIONS OF ANY KIND, either express or implied.
  20:/home/zkmike/workspace/RZA2M/rza2m_2d_barcode_sample_freertos_gcc/src/zxing_lib/zxing/common/Array.h ****  * See the License for the specific language governing permissions and
  21:/home/zkmike/workspace/RZA2M/rza2m_2d_barcode_sample_freertos_gcc/src/zxing_lib/zxing/common/Array.h ****  * limitations under the License.
  22:/home/zkmike/workspace/RZA2M/rza2m_2d_barcode_sample_freertos_gcc/src/zxing_lib/zxing/common/Array.h ****  */
  23:/home/zkmike/workspace/RZA2M/rza2m_2d_barcode_sample_freertos_gcc/src/zxing_lib/zxing/common/Array.h **** 
  24:/home/zkmike/workspace/RZA2M/rza2m_2d_barcode_sample_freertos_gcc/src/zxing_lib/zxing/common/Array.h **** #include <vector>
  25:/home/zkmike/workspace/RZA2M/rza2m_2d_barcode_sample_freertos_gcc/src/zxing_lib/zxing/common/Array.h **** 
  26:/home/zkmike/workspace/RZA2M/rza2m_2d_barcode_sample_freertos_gcc/src/zxing_lib/zxing/common/Array.h **** #include <zxing/common/Counted.h>
  27:/home/zkmike/workspace/RZA2M/rza2m_2d_barcode_sample_freertos_gcc/src/zxing_lib/zxing/common/Array.h **** 
  28:/home/zkmike/workspace/RZA2M/rza2m_2d_barcode_sample_freertos_gcc/src/zxing_lib/zxing/common/Array.h **** namespace zxing {
  29:/home/zkmike/workspace/RZA2M/rza2m_2d_barcode_sample_freertos_gcc/src/zxing_lib/zxing/common/Array.h **** 
  30:/home/zkmike/workspace/RZA2M/rza2m_2d_barcode_sample_freertos_gcc/src/zxing_lib/zxing/common/Array.h **** template<typename T> class Array : public Counted {
  31:/home/zkmike/workspace/RZA2M/rza2m_2d_barcode_sample_freertos_gcc/src/zxing_lib/zxing/common/Array.h **** protected:
  32:/home/zkmike/workspace/RZA2M/rza2m_2d_barcode_sample_freertos_gcc/src/zxing_lib/zxing/common/Array.h **** public:
  33:/home/zkmike/workspace/RZA2M/rza2m_2d_barcode_sample_freertos_gcc/src/zxing_lib/zxing/common/Array.h ****   std::vector<T> values_;
  34:/home/zkmike/workspace/RZA2M/rza2m_2d_barcode_sample_freertos_gcc/src/zxing_lib/zxing/common/Array.h ****   Array() {}
  35:/home/zkmike/workspace/RZA2M/rza2m_2d_barcode_sample_freertos_gcc/src/zxing_lib/zxing/common/Array.h ****   Array(int n) :
  36:/home/zkmike/workspace/RZA2M/rza2m_2d_barcode_sample_freertos_gcc/src/zxing_lib/zxing/common/Array.h ****       Counted(), values_(n, T()) {
  37:/home/zkmike/workspace/RZA2M/rza2m_2d_barcode_sample_freertos_gcc/src/zxing_lib/zxing/common/Array.h ****   }
  38:/home/zkmike/workspace/RZA2M/rza2m_2d_barcode_sample_freertos_gcc/src/zxing_lib/zxing/common/Array.h ****   Array(T const* ts, int n) :
  39:/home/zkmike/workspace/RZA2M/rza2m_2d_barcode_sample_freertos_gcc/src/zxing_lib/zxing/common/Array.h ****       Counted(), values_(ts, ts+n) {
  40:/home/zkmike/workspace/RZA2M/rza2m_2d_barcode_sample_freertos_gcc/src/zxing_lib/zxing/common/Array.h ****   }
  41:/home/zkmike/workspace/RZA2M/rza2m_2d_barcode_sample_freertos_gcc/src/zxing_lib/zxing/common/Array.h ****   Array(T const* ts, T const* te) :
  42:/home/zkmike/workspace/RZA2M/rza2m_2d_barcode_sample_freertos_gcc/src/zxing_lib/zxing/common/Array.h ****       Counted(), values_(ts, te) {
  43:/home/zkmike/workspace/RZA2M/rza2m_2d_barcode_sample_freertos_gcc/src/zxing_lib/zxing/common/Array.h ****   }
  44:/home/zkmike/workspace/RZA2M/rza2m_2d_barcode_sample_freertos_gcc/src/zxing_lib/zxing/common/Array.h ****   Array(T v, int n) :
  45:/home/zkmike/workspace/RZA2M/rza2m_2d_barcode_sample_freertos_gcc/src/zxing_lib/zxing/common/Array.h ****       Counted(), values_(n, v) {
  46:/home/zkmike/workspace/RZA2M/rza2m_2d_barcode_sample_freertos_gcc/src/zxing_lib/zxing/common/Array.h ****   }
  47:/home/zkmike/workspace/RZA2M/rza2m_2d_barcode_sample_freertos_gcc/src/zxing_lib/zxing/common/Array.h ****   Array(std::vector<T> &v) :
  48:/home/zkmike/workspace/RZA2M/rza2m_2d_barcode_sample_freertos_gcc/src/zxing_lib/zxing/common/Array.h ****       Counted(), values_(v) {
  49:/home/zkmike/workspace/RZA2M/rza2m_2d_barcode_sample_freertos_gcc/src/zxing_lib/zxing/common/Array.h ****   }
  50:/home/zkmike/workspace/RZA2M/rza2m_2d_barcode_sample_freertos_gcc/src/zxing_lib/zxing/common/Array.h ****   Array(Array<T> &other) :
  51:/home/zkmike/workspace/RZA2M/rza2m_2d_barcode_sample_freertos_gcc/src/zxing_lib/zxing/common/Array.h ****       Counted(), values_(other.values_) {
  52:/home/zkmike/workspace/RZA2M/rza2m_2d_barcode_sample_freertos_gcc/src/zxing_lib/zxing/common/Array.h ****   }
  53:/home/zkmike/workspace/RZA2M/rza2m_2d_barcode_sample_freertos_gcc/src/zxing_lib/zxing/common/Array.h ****   Array(Array<T> *other) :
  54:/home/zkmike/workspace/RZA2M/rza2m_2d_barcode_sample_freertos_gcc/src/zxing_lib/zxing/common/Array.h ****       Counted(), values_(other->values_) {
  55:/home/zkmike/workspace/RZA2M/rza2m_2d_barcode_sample_freertos_gcc/src/zxing_lib/zxing/common/Array.h ****   }
  56:/home/zkmike/workspace/RZA2M/rza2m_2d_barcode_sample_freertos_gcc/src/zxing_lib/zxing/common/Array.h ****   virtual ~Array() {
  57:/home/zkmike/workspace/RZA2M/rza2m_2d_barcode_sample_freertos_gcc/src/zxing_lib/zxing/common/Array.h ****   }
  58:/home/zkmike/workspace/RZA2M/rza2m_2d_barcode_sample_freertos_gcc/src/zxing_lib/zxing/common/Array.h ****   Array<T>& operator=(const Array<T> &other) {
  59:/home/zkmike/workspace/RZA2M/rza2m_2d_barcode_sample_freertos_gcc/src/zxing_lib/zxing/common/Array.h ****     values_ = other.values_;
  60:/home/zkmike/workspace/RZA2M/rza2m_2d_barcode_sample_freertos_gcc/src/zxing_lib/zxing/common/Array.h ****     return *this;
  61:/home/zkmike/workspace/RZA2M/rza2m_2d_barcode_sample_freertos_gcc/src/zxing_lib/zxing/common/Array.h ****   }
  62:/home/zkmike/workspace/RZA2M/rza2m_2d_barcode_sample_freertos_gcc/src/zxing_lib/zxing/common/Array.h ****   Array<T>& operator=(const std::vector<T> &array) {
  63:/home/zkmike/workspace/RZA2M/rza2m_2d_barcode_sample_freertos_gcc/src/zxing_lib/zxing/common/Array.h ****     values_ = array;
  64:/home/zkmike/workspace/RZA2M/rza2m_2d_barcode_sample_freertos_gcc/src/zxing_lib/zxing/common/Array.h ****     return *this;
  65:/home/zkmike/workspace/RZA2M/rza2m_2d_barcode_sample_freertos_gcc/src/zxing_lib/zxing/common/Array.h ****   }
  66:/home/zkmike/workspace/RZA2M/rza2m_2d_barcode_sample_freertos_gcc/src/zxing_lib/zxing/common/Array.h ****   T const& operator[](int i) const {
  67:/home/zkmike/workspace/RZA2M/rza2m_2d_barcode_sample_freertos_gcc/src/zxing_lib/zxing/common/Array.h ****     return values_[i];
  68:/home/zkmike/workspace/RZA2M/rza2m_2d_barcode_sample_freertos_gcc/src/zxing_lib/zxing/common/Array.h ****   }
  69:/home/zkmike/workspace/RZA2M/rza2m_2d_barcode_sample_freertos_gcc/src/zxing_lib/zxing/common/Array.h ****   T& operator[](int i) {
  70:/home/zkmike/workspace/RZA2M/rza2m_2d_barcode_sample_freertos_gcc/src/zxing_lib/zxing/common/Array.h ****     return values_[i];
  71:/home/zkmike/workspace/RZA2M/rza2m_2d_barcode_sample_freertos_gcc/src/zxing_lib/zxing/common/Array.h ****   }
  72:/home/zkmike/workspace/RZA2M/rza2m_2d_barcode_sample_freertos_gcc/src/zxing_lib/zxing/common/Array.h ****   int size() const {
  73:/home/zkmike/workspace/RZA2M/rza2m_2d_barcode_sample_freertos_gcc/src/zxing_lib/zxing/common/Array.h ****     return values_.size();
  74:/home/zkmike/workspace/RZA2M/rza2m_2d_barcode_sample_freertos_gcc/src/zxing_lib/zxing/common/Array.h ****   }
  75:/home/zkmike/workspace/RZA2M/rza2m_2d_barcode_sample_freertos_gcc/src/zxing_lib/zxing/common/Array.h ****   bool empty() const {
  76:/home/zkmike/workspace/RZA2M/rza2m_2d_barcode_sample_freertos_gcc/src/zxing_lib/zxing/common/Array.h ****     return values_.size() == 0;
  77:/home/zkmike/workspace/RZA2M/rza2m_2d_barcode_sample_freertos_gcc/src/zxing_lib/zxing/common/Array.h ****   }
  78:/home/zkmike/workspace/RZA2M/rza2m_2d_barcode_sample_freertos_gcc/src/zxing_lib/zxing/common/Array.h ****   std::vector<T> const& values() const {
  79:/home/zkmike/workspace/RZA2M/rza2m_2d_barcode_sample_freertos_gcc/src/zxing_lib/zxing/common/Array.h ****     return values_;
  80:/home/zkmike/workspace/RZA2M/rza2m_2d_barcode_sample_freertos_gcc/src/zxing_lib/zxing/common/Array.h ****   }
  81:/home/zkmike/workspace/RZA2M/rza2m_2d_barcode_sample_freertos_gcc/src/zxing_lib/zxing/common/Array.h ****   std::vector<T>& values() {
  82:/home/zkmike/workspace/RZA2M/rza2m_2d_barcode_sample_freertos_gcc/src/zxing_lib/zxing/common/Array.h ****     return values_;
  83:/home/zkmike/workspace/RZA2M/rza2m_2d_barcode_sample_freertos_gcc/src/zxing_lib/zxing/common/Array.h ****   }
  84:/home/zkmike/workspace/RZA2M/rza2m_2d_barcode_sample_freertos_gcc/src/zxing_lib/zxing/common/Array.h **** };
  85:/home/zkmike/workspace/RZA2M/rza2m_2d_barcode_sample_freertos_gcc/src/zxing_lib/zxing/common/Array.h **** 
  86:/home/zkmike/workspace/RZA2M/rza2m_2d_barcode_sample_freertos_gcc/src/zxing_lib/zxing/common/Array.h **** template<typename T> class ArrayRef : public Counted {
  87:/home/zkmike/workspace/RZA2M/rza2m_2d_barcode_sample_freertos_gcc/src/zxing_lib/zxing/common/Array.h **** private:
  88:/home/zkmike/workspace/RZA2M/rza2m_2d_barcode_sample_freertos_gcc/src/zxing_lib/zxing/common/Array.h **** public:
  89:/home/zkmike/workspace/RZA2M/rza2m_2d_barcode_sample_freertos_gcc/src/zxing_lib/zxing/common/Array.h ****   Array<T> *array_;
  90:/home/zkmike/workspace/RZA2M/rza2m_2d_barcode_sample_freertos_gcc/src/zxing_lib/zxing/common/Array.h ****   ArrayRef() :
  91:/home/zkmike/workspace/RZA2M/rza2m_2d_barcode_sample_freertos_gcc/src/zxing_lib/zxing/common/Array.h ****       array_(0) {
  92:/home/zkmike/workspace/RZA2M/rza2m_2d_barcode_sample_freertos_gcc/src/zxing_lib/zxing/common/Array.h ****   }
  93:/home/zkmike/workspace/RZA2M/rza2m_2d_barcode_sample_freertos_gcc/src/zxing_lib/zxing/common/Array.h ****   explicit ArrayRef(int n) :
  94:/home/zkmike/workspace/RZA2M/rza2m_2d_barcode_sample_freertos_gcc/src/zxing_lib/zxing/common/Array.h ****       array_(0) {
  95:/home/zkmike/workspace/RZA2M/rza2m_2d_barcode_sample_freertos_gcc/src/zxing_lib/zxing/common/Array.h ****     reset(new Array<T> (n));
  96:/home/zkmike/workspace/RZA2M/rza2m_2d_barcode_sample_freertos_gcc/src/zxing_lib/zxing/common/Array.h ****   }
  97:/home/zkmike/workspace/RZA2M/rza2m_2d_barcode_sample_freertos_gcc/src/zxing_lib/zxing/common/Array.h ****   ArrayRef(T *ts, int n) :
  98:/home/zkmike/workspace/RZA2M/rza2m_2d_barcode_sample_freertos_gcc/src/zxing_lib/zxing/common/Array.h ****       array_(0) {
  99:/home/zkmike/workspace/RZA2M/rza2m_2d_barcode_sample_freertos_gcc/src/zxing_lib/zxing/common/Array.h ****     reset(new Array<T> (ts, n));
 100:/home/zkmike/workspace/RZA2M/rza2m_2d_barcode_sample_freertos_gcc/src/zxing_lib/zxing/common/Array.h ****   }
 101:/home/zkmike/workspace/RZA2M/rza2m_2d_barcode_sample_freertos_gcc/src/zxing_lib/zxing/common/Array.h ****   ArrayRef(Array<T> *a) :
 102:/home/zkmike/workspace/RZA2M/rza2m_2d_barcode_sample_freertos_gcc/src/zxing_lib/zxing/common/Array.h ****       array_(0) {
 103:/home/zkmike/workspace/RZA2M/rza2m_2d_barcode_sample_freertos_gcc/src/zxing_lib/zxing/common/Array.h ****     reset(a);
 104:/home/zkmike/workspace/RZA2M/rza2m_2d_barcode_sample_freertos_gcc/src/zxing_lib/zxing/common/Array.h ****   }
 105:/home/zkmike/workspace/RZA2M/rza2m_2d_barcode_sample_freertos_gcc/src/zxing_lib/zxing/common/Array.h ****   ArrayRef(const ArrayRef &other) :
 106:/home/zkmike/workspace/RZA2M/rza2m_2d_barcode_sample_freertos_gcc/src/zxing_lib/zxing/common/Array.h ****       Counted(), array_(0) {
 107:/home/zkmike/workspace/RZA2M/rza2m_2d_barcode_sample_freertos_gcc/src/zxing_lib/zxing/common/Array.h ****     reset(other.array_);
 108:/home/zkmike/workspace/RZA2M/rza2m_2d_barcode_sample_freertos_gcc/src/zxing_lib/zxing/common/Array.h ****   }
 109:/home/zkmike/workspace/RZA2M/rza2m_2d_barcode_sample_freertos_gcc/src/zxing_lib/zxing/common/Array.h **** 
 110:/home/zkmike/workspace/RZA2M/rza2m_2d_barcode_sample_freertos_gcc/src/zxing_lib/zxing/common/Array.h ****   template<class Y>
 111:/home/zkmike/workspace/RZA2M/rza2m_2d_barcode_sample_freertos_gcc/src/zxing_lib/zxing/common/Array.h ****   ArrayRef(const ArrayRef<Y> &other) :
 112:/home/zkmike/workspace/RZA2M/rza2m_2d_barcode_sample_freertos_gcc/src/zxing_lib/zxing/common/Array.h ****       array_(0) {
 113:/home/zkmike/workspace/RZA2M/rza2m_2d_barcode_sample_freertos_gcc/src/zxing_lib/zxing/common/Array.h ****     reset(static_cast<const Array<T> *>(other.array_));
 114:/home/zkmike/workspace/RZA2M/rza2m_2d_barcode_sample_freertos_gcc/src/zxing_lib/zxing/common/Array.h ****   }
 115:/home/zkmike/workspace/RZA2M/rza2m_2d_barcode_sample_freertos_gcc/src/zxing_lib/zxing/common/Array.h **** 
 116:/home/zkmike/workspace/RZA2M/rza2m_2d_barcode_sample_freertos_gcc/src/zxing_lib/zxing/common/Array.h ****   ~ArrayRef() {
 117:/home/zkmike/workspace/RZA2M/rza2m_2d_barcode_sample_freertos_gcc/src/zxing_lib/zxing/common/Array.h ****     if (array_) {
 118:/home/zkmike/workspace/RZA2M/rza2m_2d_barcode_sample_freertos_gcc/src/zxing_lib/zxing/common/Array.h ****       array_->release();
 119:/home/zkmike/workspace/RZA2M/rza2m_2d_barcode_sample_freertos_gcc/src/zxing_lib/zxing/common/Array.h ****     }
 120:/home/zkmike/workspace/RZA2M/rza2m_2d_barcode_sample_freertos_gcc/src/zxing_lib/zxing/common/Array.h ****     array_ = 0;
 121:/home/zkmike/workspace/RZA2M/rza2m_2d_barcode_sample_freertos_gcc/src/zxing_lib/zxing/common/Array.h ****   }
 122:/home/zkmike/workspace/RZA2M/rza2m_2d_barcode_sample_freertos_gcc/src/zxing_lib/zxing/common/Array.h **** 
 123:/home/zkmike/workspace/RZA2M/rza2m_2d_barcode_sample_freertos_gcc/src/zxing_lib/zxing/common/Array.h ****   T const& operator[](int i) const {
 124:/home/zkmike/workspace/RZA2M/rza2m_2d_barcode_sample_freertos_gcc/src/zxing_lib/zxing/common/Array.h ****     return (*array_)[i];
 1728              		.loc 10 124 0
 1729 00c4 1C1091E5 		ldr	r1, [r1, #28]
 1730              	.LVL148:
 1731              	.LBB948:
 1732              	.LBB949:
 1733              	.LBB950:
 1734              	.LBB951:
 1735              		.file 11 "/home/zkmike/.local/share/renesas/e2_studio/toolchains/gcc_arm/gcc-arm-none-eabi-6-2017-
   1:/home/zkmike/.local/share/renesas/e2_studio/toolchains/gcc_arm/gcc-arm-none-eabi-6-2017-q2-update/arm-none-eabi/include/c++/6.3.1/bits/stl_vector.h **** // Vector implementation -*- C++ -*-
   2:/home/zkmike/.local/share/renesas/e2_studio/toolchains/gcc_arm/gcc-arm-none-eabi-6-2017-q2-update/arm-none-eabi/include/c++/6.3.1/bits/stl_vector.h **** 
   3:/home/zkmike/.local/share/renesas/e2_studio/toolchains/gcc_arm/gcc-arm-none-eabi-6-2017-q2-update/arm-none-eabi/include/c++/6.3.1/bits/stl_vector.h **** // Copyright (C) 2001-2016 Free Software Foundation, Inc.
   4:/home/zkmike/.local/share/renesas/e2_studio/toolchains/gcc_arm/gcc-arm-none-eabi-6-2017-q2-update/arm-none-eabi/include/c++/6.3.1/bits/stl_vector.h **** //
   5:/home/zkmike/.local/share/renesas/e2_studio/toolchains/gcc_arm/gcc-arm-none-eabi-6-2017-q2-update/arm-none-eabi/include/c++/6.3.1/bits/stl_vector.h **** // This file is part of the GNU ISO C++ Library.  This library is free
   6:/home/zkmike/.local/share/renesas/e2_studio/toolchains/gcc_arm/gcc-arm-none-eabi-6-2017-q2-update/arm-none-eabi/include/c++/6.3.1/bits/stl_vector.h **** // software; you can redistribute it and/or modify it under the
   7:/home/zkmike/.local/share/renesas/e2_studio/toolchains/gcc_arm/gcc-arm-none-eabi-6-2017-q2-update/arm-none-eabi/include/c++/6.3.1/bits/stl_vector.h **** // terms of the GNU General Public License as published by the
   8:/home/zkmike/.local/share/renesas/e2_studio/toolchains/gcc_arm/gcc-arm-none-eabi-6-2017-q2-update/arm-none-eabi/include/c++/6.3.1/bits/stl_vector.h **** // Free Software Foundation; either version 3, or (at your option)
   9:/home/zkmike/.local/share/renesas/e2_studio/toolchains/gcc_arm/gcc-arm-none-eabi-6-2017-q2-update/arm-none-eabi/include/c++/6.3.1/bits/stl_vector.h **** // any later version.
  10:/home/zkmike/.local/share/renesas/e2_studio/toolchains/gcc_arm/gcc-arm-none-eabi-6-2017-q2-update/arm-none-eabi/include/c++/6.3.1/bits/stl_vector.h **** 
  11:/home/zkmike/.local/share/renesas/e2_studio/toolchains/gcc_arm/gcc-arm-none-eabi-6-2017-q2-update/arm-none-eabi/include/c++/6.3.1/bits/stl_vector.h **** // This library is distributed in the hope that it will be useful,
  12:/home/zkmike/.local/share/renesas/e2_studio/toolchains/gcc_arm/gcc-arm-none-eabi-6-2017-q2-update/arm-none-eabi/include/c++/6.3.1/bits/stl_vector.h **** // but WITHOUT ANY WARRANTY; without even the implied warranty of
  13:/home/zkmike/.local/share/renesas/e2_studio/toolchains/gcc_arm/gcc-arm-none-eabi-6-2017-q2-update/arm-none-eabi/include/c++/6.3.1/bits/stl_vector.h **** // MERCHANTABILITY or FITNESS FOR A PARTICULAR PURPOSE.  See the
  14:/home/zkmike/.local/share/renesas/e2_studio/toolchains/gcc_arm/gcc-arm-none-eabi-6-2017-q2-update/arm-none-eabi/include/c++/6.3.1/bits/stl_vector.h **** // GNU General Public License for more details.
  15:/home/zkmike/.local/share/renesas/e2_studio/toolchains/gcc_arm/gcc-arm-none-eabi-6-2017-q2-update/arm-none-eabi/include/c++/6.3.1/bits/stl_vector.h **** 
  16:/home/zkmike/.local/share/renesas/e2_studio/toolchains/gcc_arm/gcc-arm-none-eabi-6-2017-q2-update/arm-none-eabi/include/c++/6.3.1/bits/stl_vector.h **** // Under Section 7 of GPL version 3, you are granted additional
  17:/home/zkmike/.local/share/renesas/e2_studio/toolchains/gcc_arm/gcc-arm-none-eabi-6-2017-q2-update/arm-none-eabi/include/c++/6.3.1/bits/stl_vector.h **** // permissions described in the GCC Runtime Library Exception, version
  18:/home/zkmike/.local/share/renesas/e2_studio/toolchains/gcc_arm/gcc-arm-none-eabi-6-2017-q2-update/arm-none-eabi/include/c++/6.3.1/bits/stl_vector.h **** // 3.1, as published by the Free Software Foundation.
  19:/home/zkmike/.local/share/renesas/e2_studio/toolchains/gcc_arm/gcc-arm-none-eabi-6-2017-q2-update/arm-none-eabi/include/c++/6.3.1/bits/stl_vector.h **** 
  20:/home/zkmike/.local/share/renesas/e2_studio/toolchains/gcc_arm/gcc-arm-none-eabi-6-2017-q2-update/arm-none-eabi/include/c++/6.3.1/bits/stl_vector.h **** // You should have received a copy of the GNU General Public License and
  21:/home/zkmike/.local/share/renesas/e2_studio/toolchains/gcc_arm/gcc-arm-none-eabi-6-2017-q2-update/arm-none-eabi/include/c++/6.3.1/bits/stl_vector.h **** // a copy of the GCC Runtime Library Exception along with this program;
  22:/home/zkmike/.local/share/renesas/e2_studio/toolchains/gcc_arm/gcc-arm-none-eabi-6-2017-q2-update/arm-none-eabi/include/c++/6.3.1/bits/stl_vector.h **** // see the files COPYING3 and COPYING.RUNTIME respectively.  If not, see
  23:/home/zkmike/.local/share/renesas/e2_studio/toolchains/gcc_arm/gcc-arm-none-eabi-6-2017-q2-update/arm-none-eabi/include/c++/6.3.1/bits/stl_vector.h **** // <http://www.gnu.org/licenses/>.
  24:/home/zkmike/.local/share/renesas/e2_studio/toolchains/gcc_arm/gcc-arm-none-eabi-6-2017-q2-update/arm-none-eabi/include/c++/6.3.1/bits/stl_vector.h **** 
  25:/home/zkmike/.local/share/renesas/e2_studio/toolchains/gcc_arm/gcc-arm-none-eabi-6-2017-q2-update/arm-none-eabi/include/c++/6.3.1/bits/stl_vector.h **** /*
  26:/home/zkmike/.local/share/renesas/e2_studio/toolchains/gcc_arm/gcc-arm-none-eabi-6-2017-q2-update/arm-none-eabi/include/c++/6.3.1/bits/stl_vector.h ****  *
  27:/home/zkmike/.local/share/renesas/e2_studio/toolchains/gcc_arm/gcc-arm-none-eabi-6-2017-q2-update/arm-none-eabi/include/c++/6.3.1/bits/stl_vector.h ****  * Copyright (c) 1994
  28:/home/zkmike/.local/share/renesas/e2_studio/toolchains/gcc_arm/gcc-arm-none-eabi-6-2017-q2-update/arm-none-eabi/include/c++/6.3.1/bits/stl_vector.h ****  * Hewlett-Packard Company
  29:/home/zkmike/.local/share/renesas/e2_studio/toolchains/gcc_arm/gcc-arm-none-eabi-6-2017-q2-update/arm-none-eabi/include/c++/6.3.1/bits/stl_vector.h ****  *
  30:/home/zkmike/.local/share/renesas/e2_studio/toolchains/gcc_arm/gcc-arm-none-eabi-6-2017-q2-update/arm-none-eabi/include/c++/6.3.1/bits/stl_vector.h ****  * Permission to use, copy, modify, distribute and sell this software
  31:/home/zkmike/.local/share/renesas/e2_studio/toolchains/gcc_arm/gcc-arm-none-eabi-6-2017-q2-update/arm-none-eabi/include/c++/6.3.1/bits/stl_vector.h ****  * and its documentation for any purpose is hereby granted without fee,
  32:/home/zkmike/.local/share/renesas/e2_studio/toolchains/gcc_arm/gcc-arm-none-eabi-6-2017-q2-update/arm-none-eabi/include/c++/6.3.1/bits/stl_vector.h ****  * provided that the above copyright notice appear in all copies and
  33:/home/zkmike/.local/share/renesas/e2_studio/toolchains/gcc_arm/gcc-arm-none-eabi-6-2017-q2-update/arm-none-eabi/include/c++/6.3.1/bits/stl_vector.h ****  * that both that copyright notice and this permission notice appear
  34:/home/zkmike/.local/share/renesas/e2_studio/toolchains/gcc_arm/gcc-arm-none-eabi-6-2017-q2-update/arm-none-eabi/include/c++/6.3.1/bits/stl_vector.h ****  * in supporting documentation.  Hewlett-Packard Company makes no
  35:/home/zkmike/.local/share/renesas/e2_studio/toolchains/gcc_arm/gcc-arm-none-eabi-6-2017-q2-update/arm-none-eabi/include/c++/6.3.1/bits/stl_vector.h ****  * representations about the suitability of this software for any
  36:/home/zkmike/.local/share/renesas/e2_studio/toolchains/gcc_arm/gcc-arm-none-eabi-6-2017-q2-update/arm-none-eabi/include/c++/6.3.1/bits/stl_vector.h ****  * purpose.  It is provided "as is" without express or implied warranty.
  37:/home/zkmike/.local/share/renesas/e2_studio/toolchains/gcc_arm/gcc-arm-none-eabi-6-2017-q2-update/arm-none-eabi/include/c++/6.3.1/bits/stl_vector.h ****  *
  38:/home/zkmike/.local/share/renesas/e2_studio/toolchains/gcc_arm/gcc-arm-none-eabi-6-2017-q2-update/arm-none-eabi/include/c++/6.3.1/bits/stl_vector.h ****  *
  39:/home/zkmike/.local/share/renesas/e2_studio/toolchains/gcc_arm/gcc-arm-none-eabi-6-2017-q2-update/arm-none-eabi/include/c++/6.3.1/bits/stl_vector.h ****  * Copyright (c) 1996
  40:/home/zkmike/.local/share/renesas/e2_studio/toolchains/gcc_arm/gcc-arm-none-eabi-6-2017-q2-update/arm-none-eabi/include/c++/6.3.1/bits/stl_vector.h ****  * Silicon Graphics Computer Systems, Inc.
  41:/home/zkmike/.local/share/renesas/e2_studio/toolchains/gcc_arm/gcc-arm-none-eabi-6-2017-q2-update/arm-none-eabi/include/c++/6.3.1/bits/stl_vector.h ****  *
  42:/home/zkmike/.local/share/renesas/e2_studio/toolchains/gcc_arm/gcc-arm-none-eabi-6-2017-q2-update/arm-none-eabi/include/c++/6.3.1/bits/stl_vector.h ****  * Permission to use, copy, modify, distribute and sell this software
  43:/home/zkmike/.local/share/renesas/e2_studio/toolchains/gcc_arm/gcc-arm-none-eabi-6-2017-q2-update/arm-none-eabi/include/c++/6.3.1/bits/stl_vector.h ****  * and its documentation for any purpose is hereby granted without fee,
  44:/home/zkmike/.local/share/renesas/e2_studio/toolchains/gcc_arm/gcc-arm-none-eabi-6-2017-q2-update/arm-none-eabi/include/c++/6.3.1/bits/stl_vector.h ****  * provided that the above copyright notice appear in all copies and
  45:/home/zkmike/.local/share/renesas/e2_studio/toolchains/gcc_arm/gcc-arm-none-eabi-6-2017-q2-update/arm-none-eabi/include/c++/6.3.1/bits/stl_vector.h ****  * that both that copyright notice and this permission notice appear
  46:/home/zkmike/.local/share/renesas/e2_studio/toolchains/gcc_arm/gcc-arm-none-eabi-6-2017-q2-update/arm-none-eabi/include/c++/6.3.1/bits/stl_vector.h ****  * in supporting documentation.  Silicon Graphics makes no
  47:/home/zkmike/.local/share/renesas/e2_studio/toolchains/gcc_arm/gcc-arm-none-eabi-6-2017-q2-update/arm-none-eabi/include/c++/6.3.1/bits/stl_vector.h ****  * representations about the suitability of this  software for any
  48:/home/zkmike/.local/share/renesas/e2_studio/toolchains/gcc_arm/gcc-arm-none-eabi-6-2017-q2-update/arm-none-eabi/include/c++/6.3.1/bits/stl_vector.h ****  * purpose.  It is provided "as is" without express or implied warranty.
  49:/home/zkmike/.local/share/renesas/e2_studio/toolchains/gcc_arm/gcc-arm-none-eabi-6-2017-q2-update/arm-none-eabi/include/c++/6.3.1/bits/stl_vector.h ****  */
  50:/home/zkmike/.local/share/renesas/e2_studio/toolchains/gcc_arm/gcc-arm-none-eabi-6-2017-q2-update/arm-none-eabi/include/c++/6.3.1/bits/stl_vector.h **** 
  51:/home/zkmike/.local/share/renesas/e2_studio/toolchains/gcc_arm/gcc-arm-none-eabi-6-2017-q2-update/arm-none-eabi/include/c++/6.3.1/bits/stl_vector.h **** /** @file bits/stl_vector.h
  52:/home/zkmike/.local/share/renesas/e2_studio/toolchains/gcc_arm/gcc-arm-none-eabi-6-2017-q2-update/arm-none-eabi/include/c++/6.3.1/bits/stl_vector.h ****  *  This is an internal header file, included by other library headers.
  53:/home/zkmike/.local/share/renesas/e2_studio/toolchains/gcc_arm/gcc-arm-none-eabi-6-2017-q2-update/arm-none-eabi/include/c++/6.3.1/bits/stl_vector.h ****  *  Do not attempt to use it directly. @headername{vector}
  54:/home/zkmike/.local/share/renesas/e2_studio/toolchains/gcc_arm/gcc-arm-none-eabi-6-2017-q2-update/arm-none-eabi/include/c++/6.3.1/bits/stl_vector.h ****  */
  55:/home/zkmike/.local/share/renesas/e2_studio/toolchains/gcc_arm/gcc-arm-none-eabi-6-2017-q2-update/arm-none-eabi/include/c++/6.3.1/bits/stl_vector.h **** 
  56:/home/zkmike/.local/share/renesas/e2_studio/toolchains/gcc_arm/gcc-arm-none-eabi-6-2017-q2-update/arm-none-eabi/include/c++/6.3.1/bits/stl_vector.h **** #ifndef _STL_VECTOR_H
  57:/home/zkmike/.local/share/renesas/e2_studio/toolchains/gcc_arm/gcc-arm-none-eabi-6-2017-q2-update/arm-none-eabi/include/c++/6.3.1/bits/stl_vector.h **** #define _STL_VECTOR_H 1
  58:/home/zkmike/.local/share/renesas/e2_studio/toolchains/gcc_arm/gcc-arm-none-eabi-6-2017-q2-update/arm-none-eabi/include/c++/6.3.1/bits/stl_vector.h **** 
  59:/home/zkmike/.local/share/renesas/e2_studio/toolchains/gcc_arm/gcc-arm-none-eabi-6-2017-q2-update/arm-none-eabi/include/c++/6.3.1/bits/stl_vector.h **** #include <bits/stl_iterator_base_funcs.h>
  60:/home/zkmike/.local/share/renesas/e2_studio/toolchains/gcc_arm/gcc-arm-none-eabi-6-2017-q2-update/arm-none-eabi/include/c++/6.3.1/bits/stl_vector.h **** #include <bits/functexcept.h>
  61:/home/zkmike/.local/share/renesas/e2_studio/toolchains/gcc_arm/gcc-arm-none-eabi-6-2017-q2-update/arm-none-eabi/include/c++/6.3.1/bits/stl_vector.h **** #include <bits/concept_check.h>
  62:/home/zkmike/.local/share/renesas/e2_studio/toolchains/gcc_arm/gcc-arm-none-eabi-6-2017-q2-update/arm-none-eabi/include/c++/6.3.1/bits/stl_vector.h **** #if __cplusplus >= 201103L
  63:/home/zkmike/.local/share/renesas/e2_studio/toolchains/gcc_arm/gcc-arm-none-eabi-6-2017-q2-update/arm-none-eabi/include/c++/6.3.1/bits/stl_vector.h **** #include <initializer_list>
  64:/home/zkmike/.local/share/renesas/e2_studio/toolchains/gcc_arm/gcc-arm-none-eabi-6-2017-q2-update/arm-none-eabi/include/c++/6.3.1/bits/stl_vector.h **** #endif
  65:/home/zkmike/.local/share/renesas/e2_studio/toolchains/gcc_arm/gcc-arm-none-eabi-6-2017-q2-update/arm-none-eabi/include/c++/6.3.1/bits/stl_vector.h **** 
  66:/home/zkmike/.local/share/renesas/e2_studio/toolchains/gcc_arm/gcc-arm-none-eabi-6-2017-q2-update/arm-none-eabi/include/c++/6.3.1/bits/stl_vector.h **** namespace std _GLIBCXX_VISIBILITY(default)
  67:/home/zkmike/.local/share/renesas/e2_studio/toolchains/gcc_arm/gcc-arm-none-eabi-6-2017-q2-update/arm-none-eabi/include/c++/6.3.1/bits/stl_vector.h **** {
  68:/home/zkmike/.local/share/renesas/e2_studio/toolchains/gcc_arm/gcc-arm-none-eabi-6-2017-q2-update/arm-none-eabi/include/c++/6.3.1/bits/stl_vector.h **** _GLIBCXX_BEGIN_NAMESPACE_CONTAINER
  69:/home/zkmike/.local/share/renesas/e2_studio/toolchains/gcc_arm/gcc-arm-none-eabi-6-2017-q2-update/arm-none-eabi/include/c++/6.3.1/bits/stl_vector.h **** 
  70:/home/zkmike/.local/share/renesas/e2_studio/toolchains/gcc_arm/gcc-arm-none-eabi-6-2017-q2-update/arm-none-eabi/include/c++/6.3.1/bits/stl_vector.h ****   /// See bits/stl_deque.h's _Deque_base for an explanation.
  71:/home/zkmike/.local/share/renesas/e2_studio/toolchains/gcc_arm/gcc-arm-none-eabi-6-2017-q2-update/arm-none-eabi/include/c++/6.3.1/bits/stl_vector.h ****   template<typename _Tp, typename _Alloc>
  72:/home/zkmike/.local/share/renesas/e2_studio/toolchains/gcc_arm/gcc-arm-none-eabi-6-2017-q2-update/arm-none-eabi/include/c++/6.3.1/bits/stl_vector.h ****     struct _Vector_base
  73:/home/zkmike/.local/share/renesas/e2_studio/toolchains/gcc_arm/gcc-arm-none-eabi-6-2017-q2-update/arm-none-eabi/include/c++/6.3.1/bits/stl_vector.h ****     {
  74:/home/zkmike/.local/share/renesas/e2_studio/toolchains/gcc_arm/gcc-arm-none-eabi-6-2017-q2-update/arm-none-eabi/include/c++/6.3.1/bits/stl_vector.h ****       typedef typename __gnu_cxx::__alloc_traits<_Alloc>::template
  75:/home/zkmike/.local/share/renesas/e2_studio/toolchains/gcc_arm/gcc-arm-none-eabi-6-2017-q2-update/arm-none-eabi/include/c++/6.3.1/bits/stl_vector.h ****         rebind<_Tp>::other _Tp_alloc_type;
  76:/home/zkmike/.local/share/renesas/e2_studio/toolchains/gcc_arm/gcc-arm-none-eabi-6-2017-q2-update/arm-none-eabi/include/c++/6.3.1/bits/stl_vector.h ****       typedef typename __gnu_cxx::__alloc_traits<_Tp_alloc_type>::pointer
  77:/home/zkmike/.local/share/renesas/e2_studio/toolchains/gcc_arm/gcc-arm-none-eabi-6-2017-q2-update/arm-none-eabi/include/c++/6.3.1/bits/stl_vector.h ****        	pointer;
  78:/home/zkmike/.local/share/renesas/e2_studio/toolchains/gcc_arm/gcc-arm-none-eabi-6-2017-q2-update/arm-none-eabi/include/c++/6.3.1/bits/stl_vector.h **** 
  79:/home/zkmike/.local/share/renesas/e2_studio/toolchains/gcc_arm/gcc-arm-none-eabi-6-2017-q2-update/arm-none-eabi/include/c++/6.3.1/bits/stl_vector.h ****       struct _Vector_impl 
  80:/home/zkmike/.local/share/renesas/e2_studio/toolchains/gcc_arm/gcc-arm-none-eabi-6-2017-q2-update/arm-none-eabi/include/c++/6.3.1/bits/stl_vector.h ****       : public _Tp_alloc_type
  81:/home/zkmike/.local/share/renesas/e2_studio/toolchains/gcc_arm/gcc-arm-none-eabi-6-2017-q2-update/arm-none-eabi/include/c++/6.3.1/bits/stl_vector.h ****       {
  82:/home/zkmike/.local/share/renesas/e2_studio/toolchains/gcc_arm/gcc-arm-none-eabi-6-2017-q2-update/arm-none-eabi/include/c++/6.3.1/bits/stl_vector.h **** 	pointer _M_start;
  83:/home/zkmike/.local/share/renesas/e2_studio/toolchains/gcc_arm/gcc-arm-none-eabi-6-2017-q2-update/arm-none-eabi/include/c++/6.3.1/bits/stl_vector.h **** 	pointer _M_finish;
  84:/home/zkmike/.local/share/renesas/e2_studio/toolchains/gcc_arm/gcc-arm-none-eabi-6-2017-q2-update/arm-none-eabi/include/c++/6.3.1/bits/stl_vector.h **** 	pointer _M_end_of_storage;
  85:/home/zkmike/.local/share/renesas/e2_studio/toolchains/gcc_arm/gcc-arm-none-eabi-6-2017-q2-update/arm-none-eabi/include/c++/6.3.1/bits/stl_vector.h **** 
  86:/home/zkmike/.local/share/renesas/e2_studio/toolchains/gcc_arm/gcc-arm-none-eabi-6-2017-q2-update/arm-none-eabi/include/c++/6.3.1/bits/stl_vector.h **** 	_Vector_impl()
  87:/home/zkmike/.local/share/renesas/e2_studio/toolchains/gcc_arm/gcc-arm-none-eabi-6-2017-q2-update/arm-none-eabi/include/c++/6.3.1/bits/stl_vector.h **** 	: _Tp_alloc_type(), _M_start(), _M_finish(), _M_end_of_storage()
  88:/home/zkmike/.local/share/renesas/e2_studio/toolchains/gcc_arm/gcc-arm-none-eabi-6-2017-q2-update/arm-none-eabi/include/c++/6.3.1/bits/stl_vector.h **** 	{ }
  89:/home/zkmike/.local/share/renesas/e2_studio/toolchains/gcc_arm/gcc-arm-none-eabi-6-2017-q2-update/arm-none-eabi/include/c++/6.3.1/bits/stl_vector.h **** 
  90:/home/zkmike/.local/share/renesas/e2_studio/toolchains/gcc_arm/gcc-arm-none-eabi-6-2017-q2-update/arm-none-eabi/include/c++/6.3.1/bits/stl_vector.h **** 	_Vector_impl(_Tp_alloc_type const& __a) _GLIBCXX_NOEXCEPT
  91:/home/zkmike/.local/share/renesas/e2_studio/toolchains/gcc_arm/gcc-arm-none-eabi-6-2017-q2-update/arm-none-eabi/include/c++/6.3.1/bits/stl_vector.h **** 	: _Tp_alloc_type(__a), _M_start(), _M_finish(), _M_end_of_storage()
  92:/home/zkmike/.local/share/renesas/e2_studio/toolchains/gcc_arm/gcc-arm-none-eabi-6-2017-q2-update/arm-none-eabi/include/c++/6.3.1/bits/stl_vector.h **** 	{ }
  93:/home/zkmike/.local/share/renesas/e2_studio/toolchains/gcc_arm/gcc-arm-none-eabi-6-2017-q2-update/arm-none-eabi/include/c++/6.3.1/bits/stl_vector.h **** 
  94:/home/zkmike/.local/share/renesas/e2_studio/toolchains/gcc_arm/gcc-arm-none-eabi-6-2017-q2-update/arm-none-eabi/include/c++/6.3.1/bits/stl_vector.h **** #if __cplusplus >= 201103L
  95:/home/zkmike/.local/share/renesas/e2_studio/toolchains/gcc_arm/gcc-arm-none-eabi-6-2017-q2-update/arm-none-eabi/include/c++/6.3.1/bits/stl_vector.h **** 	_Vector_impl(_Tp_alloc_type&& __a) noexcept
  96:/home/zkmike/.local/share/renesas/e2_studio/toolchains/gcc_arm/gcc-arm-none-eabi-6-2017-q2-update/arm-none-eabi/include/c++/6.3.1/bits/stl_vector.h **** 	: _Tp_alloc_type(std::move(__a)),
  97:/home/zkmike/.local/share/renesas/e2_studio/toolchains/gcc_arm/gcc-arm-none-eabi-6-2017-q2-update/arm-none-eabi/include/c++/6.3.1/bits/stl_vector.h **** 	  _M_start(), _M_finish(), _M_end_of_storage()
  98:/home/zkmike/.local/share/renesas/e2_studio/toolchains/gcc_arm/gcc-arm-none-eabi-6-2017-q2-update/arm-none-eabi/include/c++/6.3.1/bits/stl_vector.h **** 	{ }
  99:/home/zkmike/.local/share/renesas/e2_studio/toolchains/gcc_arm/gcc-arm-none-eabi-6-2017-q2-update/arm-none-eabi/include/c++/6.3.1/bits/stl_vector.h **** #endif
 100:/home/zkmike/.local/share/renesas/e2_studio/toolchains/gcc_arm/gcc-arm-none-eabi-6-2017-q2-update/arm-none-eabi/include/c++/6.3.1/bits/stl_vector.h **** 
 101:/home/zkmike/.local/share/renesas/e2_studio/toolchains/gcc_arm/gcc-arm-none-eabi-6-2017-q2-update/arm-none-eabi/include/c++/6.3.1/bits/stl_vector.h **** 	void _M_swap_data(_Vector_impl& __x) _GLIBCXX_NOEXCEPT
 102:/home/zkmike/.local/share/renesas/e2_studio/toolchains/gcc_arm/gcc-arm-none-eabi-6-2017-q2-update/arm-none-eabi/include/c++/6.3.1/bits/stl_vector.h **** 	{
 103:/home/zkmike/.local/share/renesas/e2_studio/toolchains/gcc_arm/gcc-arm-none-eabi-6-2017-q2-update/arm-none-eabi/include/c++/6.3.1/bits/stl_vector.h **** 	  std::swap(_M_start, __x._M_start);
 104:/home/zkmike/.local/share/renesas/e2_studio/toolchains/gcc_arm/gcc-arm-none-eabi-6-2017-q2-update/arm-none-eabi/include/c++/6.3.1/bits/stl_vector.h **** 	  std::swap(_M_finish, __x._M_finish);
 105:/home/zkmike/.local/share/renesas/e2_studio/toolchains/gcc_arm/gcc-arm-none-eabi-6-2017-q2-update/arm-none-eabi/include/c++/6.3.1/bits/stl_vector.h **** 	  std::swap(_M_end_of_storage, __x._M_end_of_storage);
 106:/home/zkmike/.local/share/renesas/e2_studio/toolchains/gcc_arm/gcc-arm-none-eabi-6-2017-q2-update/arm-none-eabi/include/c++/6.3.1/bits/stl_vector.h **** 	}
 107:/home/zkmike/.local/share/renesas/e2_studio/toolchains/gcc_arm/gcc-arm-none-eabi-6-2017-q2-update/arm-none-eabi/include/c++/6.3.1/bits/stl_vector.h ****       };
 108:/home/zkmike/.local/share/renesas/e2_studio/toolchains/gcc_arm/gcc-arm-none-eabi-6-2017-q2-update/arm-none-eabi/include/c++/6.3.1/bits/stl_vector.h ****       
 109:/home/zkmike/.local/share/renesas/e2_studio/toolchains/gcc_arm/gcc-arm-none-eabi-6-2017-q2-update/arm-none-eabi/include/c++/6.3.1/bits/stl_vector.h ****     public:
 110:/home/zkmike/.local/share/renesas/e2_studio/toolchains/gcc_arm/gcc-arm-none-eabi-6-2017-q2-update/arm-none-eabi/include/c++/6.3.1/bits/stl_vector.h ****       typedef _Alloc allocator_type;
 111:/home/zkmike/.local/share/renesas/e2_studio/toolchains/gcc_arm/gcc-arm-none-eabi-6-2017-q2-update/arm-none-eabi/include/c++/6.3.1/bits/stl_vector.h **** 
 112:/home/zkmike/.local/share/renesas/e2_studio/toolchains/gcc_arm/gcc-arm-none-eabi-6-2017-q2-update/arm-none-eabi/include/c++/6.3.1/bits/stl_vector.h ****       _Tp_alloc_type&
 113:/home/zkmike/.local/share/renesas/e2_studio/toolchains/gcc_arm/gcc-arm-none-eabi-6-2017-q2-update/arm-none-eabi/include/c++/6.3.1/bits/stl_vector.h ****       _M_get_Tp_allocator() _GLIBCXX_NOEXCEPT
 114:/home/zkmike/.local/share/renesas/e2_studio/toolchains/gcc_arm/gcc-arm-none-eabi-6-2017-q2-update/arm-none-eabi/include/c++/6.3.1/bits/stl_vector.h ****       { return *static_cast<_Tp_alloc_type*>(&this->_M_impl); }
 115:/home/zkmike/.local/share/renesas/e2_studio/toolchains/gcc_arm/gcc-arm-none-eabi-6-2017-q2-update/arm-none-eabi/include/c++/6.3.1/bits/stl_vector.h **** 
 116:/home/zkmike/.local/share/renesas/e2_studio/toolchains/gcc_arm/gcc-arm-none-eabi-6-2017-q2-update/arm-none-eabi/include/c++/6.3.1/bits/stl_vector.h ****       const _Tp_alloc_type&
 117:/home/zkmike/.local/share/renesas/e2_studio/toolchains/gcc_arm/gcc-arm-none-eabi-6-2017-q2-update/arm-none-eabi/include/c++/6.3.1/bits/stl_vector.h ****       _M_get_Tp_allocator() const _GLIBCXX_NOEXCEPT
 118:/home/zkmike/.local/share/renesas/e2_studio/toolchains/gcc_arm/gcc-arm-none-eabi-6-2017-q2-update/arm-none-eabi/include/c++/6.3.1/bits/stl_vector.h ****       { return *static_cast<const _Tp_alloc_type*>(&this->_M_impl); }
 119:/home/zkmike/.local/share/renesas/e2_studio/toolchains/gcc_arm/gcc-arm-none-eabi-6-2017-q2-update/arm-none-eabi/include/c++/6.3.1/bits/stl_vector.h **** 
 120:/home/zkmike/.local/share/renesas/e2_studio/toolchains/gcc_arm/gcc-arm-none-eabi-6-2017-q2-update/arm-none-eabi/include/c++/6.3.1/bits/stl_vector.h ****       allocator_type
 121:/home/zkmike/.local/share/renesas/e2_studio/toolchains/gcc_arm/gcc-arm-none-eabi-6-2017-q2-update/arm-none-eabi/include/c++/6.3.1/bits/stl_vector.h ****       get_allocator() const _GLIBCXX_NOEXCEPT
 122:/home/zkmike/.local/share/renesas/e2_studio/toolchains/gcc_arm/gcc-arm-none-eabi-6-2017-q2-update/arm-none-eabi/include/c++/6.3.1/bits/stl_vector.h ****       { return allocator_type(_M_get_Tp_allocator()); }
 123:/home/zkmike/.local/share/renesas/e2_studio/toolchains/gcc_arm/gcc-arm-none-eabi-6-2017-q2-update/arm-none-eabi/include/c++/6.3.1/bits/stl_vector.h **** 
 124:/home/zkmike/.local/share/renesas/e2_studio/toolchains/gcc_arm/gcc-arm-none-eabi-6-2017-q2-update/arm-none-eabi/include/c++/6.3.1/bits/stl_vector.h ****       _Vector_base()
 125:/home/zkmike/.local/share/renesas/e2_studio/toolchains/gcc_arm/gcc-arm-none-eabi-6-2017-q2-update/arm-none-eabi/include/c++/6.3.1/bits/stl_vector.h ****       : _M_impl() { }
 126:/home/zkmike/.local/share/renesas/e2_studio/toolchains/gcc_arm/gcc-arm-none-eabi-6-2017-q2-update/arm-none-eabi/include/c++/6.3.1/bits/stl_vector.h **** 
 127:/home/zkmike/.local/share/renesas/e2_studio/toolchains/gcc_arm/gcc-arm-none-eabi-6-2017-q2-update/arm-none-eabi/include/c++/6.3.1/bits/stl_vector.h ****       _Vector_base(const allocator_type& __a) _GLIBCXX_NOEXCEPT
 128:/home/zkmike/.local/share/renesas/e2_studio/toolchains/gcc_arm/gcc-arm-none-eabi-6-2017-q2-update/arm-none-eabi/include/c++/6.3.1/bits/stl_vector.h ****       : _M_impl(__a) { }
 129:/home/zkmike/.local/share/renesas/e2_studio/toolchains/gcc_arm/gcc-arm-none-eabi-6-2017-q2-update/arm-none-eabi/include/c++/6.3.1/bits/stl_vector.h **** 
 130:/home/zkmike/.local/share/renesas/e2_studio/toolchains/gcc_arm/gcc-arm-none-eabi-6-2017-q2-update/arm-none-eabi/include/c++/6.3.1/bits/stl_vector.h ****       _Vector_base(size_t __n)
 131:/home/zkmike/.local/share/renesas/e2_studio/toolchains/gcc_arm/gcc-arm-none-eabi-6-2017-q2-update/arm-none-eabi/include/c++/6.3.1/bits/stl_vector.h ****       : _M_impl()
 132:/home/zkmike/.local/share/renesas/e2_studio/toolchains/gcc_arm/gcc-arm-none-eabi-6-2017-q2-update/arm-none-eabi/include/c++/6.3.1/bits/stl_vector.h ****       { _M_create_storage(__n); }
 133:/home/zkmike/.local/share/renesas/e2_studio/toolchains/gcc_arm/gcc-arm-none-eabi-6-2017-q2-update/arm-none-eabi/include/c++/6.3.1/bits/stl_vector.h **** 
 134:/home/zkmike/.local/share/renesas/e2_studio/toolchains/gcc_arm/gcc-arm-none-eabi-6-2017-q2-update/arm-none-eabi/include/c++/6.3.1/bits/stl_vector.h ****       _Vector_base(size_t __n, const allocator_type& __a)
 135:/home/zkmike/.local/share/renesas/e2_studio/toolchains/gcc_arm/gcc-arm-none-eabi-6-2017-q2-update/arm-none-eabi/include/c++/6.3.1/bits/stl_vector.h ****       : _M_impl(__a)
 136:/home/zkmike/.local/share/renesas/e2_studio/toolchains/gcc_arm/gcc-arm-none-eabi-6-2017-q2-update/arm-none-eabi/include/c++/6.3.1/bits/stl_vector.h ****       { _M_create_storage(__n); }
 137:/home/zkmike/.local/share/renesas/e2_studio/toolchains/gcc_arm/gcc-arm-none-eabi-6-2017-q2-update/arm-none-eabi/include/c++/6.3.1/bits/stl_vector.h **** 
 138:/home/zkmike/.local/share/renesas/e2_studio/toolchains/gcc_arm/gcc-arm-none-eabi-6-2017-q2-update/arm-none-eabi/include/c++/6.3.1/bits/stl_vector.h **** #if __cplusplus >= 201103L
 139:/home/zkmike/.local/share/renesas/e2_studio/toolchains/gcc_arm/gcc-arm-none-eabi-6-2017-q2-update/arm-none-eabi/include/c++/6.3.1/bits/stl_vector.h ****       _Vector_base(_Tp_alloc_type&& __a) noexcept
 140:/home/zkmike/.local/share/renesas/e2_studio/toolchains/gcc_arm/gcc-arm-none-eabi-6-2017-q2-update/arm-none-eabi/include/c++/6.3.1/bits/stl_vector.h ****       : _M_impl(std::move(__a)) { }
 141:/home/zkmike/.local/share/renesas/e2_studio/toolchains/gcc_arm/gcc-arm-none-eabi-6-2017-q2-update/arm-none-eabi/include/c++/6.3.1/bits/stl_vector.h **** 
 142:/home/zkmike/.local/share/renesas/e2_studio/toolchains/gcc_arm/gcc-arm-none-eabi-6-2017-q2-update/arm-none-eabi/include/c++/6.3.1/bits/stl_vector.h ****       _Vector_base(_Vector_base&& __x) noexcept
 143:/home/zkmike/.local/share/renesas/e2_studio/toolchains/gcc_arm/gcc-arm-none-eabi-6-2017-q2-update/arm-none-eabi/include/c++/6.3.1/bits/stl_vector.h ****       : _M_impl(std::move(__x._M_get_Tp_allocator()))
 144:/home/zkmike/.local/share/renesas/e2_studio/toolchains/gcc_arm/gcc-arm-none-eabi-6-2017-q2-update/arm-none-eabi/include/c++/6.3.1/bits/stl_vector.h ****       { this->_M_impl._M_swap_data(__x._M_impl); }
 145:/home/zkmike/.local/share/renesas/e2_studio/toolchains/gcc_arm/gcc-arm-none-eabi-6-2017-q2-update/arm-none-eabi/include/c++/6.3.1/bits/stl_vector.h **** 
 146:/home/zkmike/.local/share/renesas/e2_studio/toolchains/gcc_arm/gcc-arm-none-eabi-6-2017-q2-update/arm-none-eabi/include/c++/6.3.1/bits/stl_vector.h ****       _Vector_base(_Vector_base&& __x, const allocator_type& __a)
 147:/home/zkmike/.local/share/renesas/e2_studio/toolchains/gcc_arm/gcc-arm-none-eabi-6-2017-q2-update/arm-none-eabi/include/c++/6.3.1/bits/stl_vector.h ****       : _M_impl(__a)
 148:/home/zkmike/.local/share/renesas/e2_studio/toolchains/gcc_arm/gcc-arm-none-eabi-6-2017-q2-update/arm-none-eabi/include/c++/6.3.1/bits/stl_vector.h ****       {
 149:/home/zkmike/.local/share/renesas/e2_studio/toolchains/gcc_arm/gcc-arm-none-eabi-6-2017-q2-update/arm-none-eabi/include/c++/6.3.1/bits/stl_vector.h **** 	if (__x.get_allocator() == __a)
 150:/home/zkmike/.local/share/renesas/e2_studio/toolchains/gcc_arm/gcc-arm-none-eabi-6-2017-q2-update/arm-none-eabi/include/c++/6.3.1/bits/stl_vector.h **** 	  this->_M_impl._M_swap_data(__x._M_impl);
 151:/home/zkmike/.local/share/renesas/e2_studio/toolchains/gcc_arm/gcc-arm-none-eabi-6-2017-q2-update/arm-none-eabi/include/c++/6.3.1/bits/stl_vector.h **** 	else
 152:/home/zkmike/.local/share/renesas/e2_studio/toolchains/gcc_arm/gcc-arm-none-eabi-6-2017-q2-update/arm-none-eabi/include/c++/6.3.1/bits/stl_vector.h **** 	  {
 153:/home/zkmike/.local/share/renesas/e2_studio/toolchains/gcc_arm/gcc-arm-none-eabi-6-2017-q2-update/arm-none-eabi/include/c++/6.3.1/bits/stl_vector.h **** 	    size_t __n = __x._M_impl._M_finish - __x._M_impl._M_start;
 154:/home/zkmike/.local/share/renesas/e2_studio/toolchains/gcc_arm/gcc-arm-none-eabi-6-2017-q2-update/arm-none-eabi/include/c++/6.3.1/bits/stl_vector.h **** 	    _M_create_storage(__n);
 155:/home/zkmike/.local/share/renesas/e2_studio/toolchains/gcc_arm/gcc-arm-none-eabi-6-2017-q2-update/arm-none-eabi/include/c++/6.3.1/bits/stl_vector.h **** 	  }
 156:/home/zkmike/.local/share/renesas/e2_studio/toolchains/gcc_arm/gcc-arm-none-eabi-6-2017-q2-update/arm-none-eabi/include/c++/6.3.1/bits/stl_vector.h ****       }
 157:/home/zkmike/.local/share/renesas/e2_studio/toolchains/gcc_arm/gcc-arm-none-eabi-6-2017-q2-update/arm-none-eabi/include/c++/6.3.1/bits/stl_vector.h **** #endif
 158:/home/zkmike/.local/share/renesas/e2_studio/toolchains/gcc_arm/gcc-arm-none-eabi-6-2017-q2-update/arm-none-eabi/include/c++/6.3.1/bits/stl_vector.h **** 
 159:/home/zkmike/.local/share/renesas/e2_studio/toolchains/gcc_arm/gcc-arm-none-eabi-6-2017-q2-update/arm-none-eabi/include/c++/6.3.1/bits/stl_vector.h ****       ~_Vector_base() _GLIBCXX_NOEXCEPT
 160:/home/zkmike/.local/share/renesas/e2_studio/toolchains/gcc_arm/gcc-arm-none-eabi-6-2017-q2-update/arm-none-eabi/include/c++/6.3.1/bits/stl_vector.h ****       { _M_deallocate(this->_M_impl._M_start, this->_M_impl._M_end_of_storage
 161:/home/zkmike/.local/share/renesas/e2_studio/toolchains/gcc_arm/gcc-arm-none-eabi-6-2017-q2-update/arm-none-eabi/include/c++/6.3.1/bits/stl_vector.h **** 		      - this->_M_impl._M_start); }
 162:/home/zkmike/.local/share/renesas/e2_studio/toolchains/gcc_arm/gcc-arm-none-eabi-6-2017-q2-update/arm-none-eabi/include/c++/6.3.1/bits/stl_vector.h **** 
 163:/home/zkmike/.local/share/renesas/e2_studio/toolchains/gcc_arm/gcc-arm-none-eabi-6-2017-q2-update/arm-none-eabi/include/c++/6.3.1/bits/stl_vector.h ****     public:
 164:/home/zkmike/.local/share/renesas/e2_studio/toolchains/gcc_arm/gcc-arm-none-eabi-6-2017-q2-update/arm-none-eabi/include/c++/6.3.1/bits/stl_vector.h ****       _Vector_impl _M_impl;
 165:/home/zkmike/.local/share/renesas/e2_studio/toolchains/gcc_arm/gcc-arm-none-eabi-6-2017-q2-update/arm-none-eabi/include/c++/6.3.1/bits/stl_vector.h **** 
 166:/home/zkmike/.local/share/renesas/e2_studio/toolchains/gcc_arm/gcc-arm-none-eabi-6-2017-q2-update/arm-none-eabi/include/c++/6.3.1/bits/stl_vector.h ****       pointer
 167:/home/zkmike/.local/share/renesas/e2_studio/toolchains/gcc_arm/gcc-arm-none-eabi-6-2017-q2-update/arm-none-eabi/include/c++/6.3.1/bits/stl_vector.h ****       _M_allocate(size_t __n)
 168:/home/zkmike/.local/share/renesas/e2_studio/toolchains/gcc_arm/gcc-arm-none-eabi-6-2017-q2-update/arm-none-eabi/include/c++/6.3.1/bits/stl_vector.h ****       {
 169:/home/zkmike/.local/share/renesas/e2_studio/toolchains/gcc_arm/gcc-arm-none-eabi-6-2017-q2-update/arm-none-eabi/include/c++/6.3.1/bits/stl_vector.h **** 	typedef __gnu_cxx::__alloc_traits<_Tp_alloc_type> _Tr;
 170:/home/zkmike/.local/share/renesas/e2_studio/toolchains/gcc_arm/gcc-arm-none-eabi-6-2017-q2-update/arm-none-eabi/include/c++/6.3.1/bits/stl_vector.h **** 	return __n != 0 ? _Tr::allocate(_M_impl, __n) : pointer();
 171:/home/zkmike/.local/share/renesas/e2_studio/toolchains/gcc_arm/gcc-arm-none-eabi-6-2017-q2-update/arm-none-eabi/include/c++/6.3.1/bits/stl_vector.h ****       }
 172:/home/zkmike/.local/share/renesas/e2_studio/toolchains/gcc_arm/gcc-arm-none-eabi-6-2017-q2-update/arm-none-eabi/include/c++/6.3.1/bits/stl_vector.h **** 
 173:/home/zkmike/.local/share/renesas/e2_studio/toolchains/gcc_arm/gcc-arm-none-eabi-6-2017-q2-update/arm-none-eabi/include/c++/6.3.1/bits/stl_vector.h ****       void
 174:/home/zkmike/.local/share/renesas/e2_studio/toolchains/gcc_arm/gcc-arm-none-eabi-6-2017-q2-update/arm-none-eabi/include/c++/6.3.1/bits/stl_vector.h ****       _M_deallocate(pointer __p, size_t __n)
 175:/home/zkmike/.local/share/renesas/e2_studio/toolchains/gcc_arm/gcc-arm-none-eabi-6-2017-q2-update/arm-none-eabi/include/c++/6.3.1/bits/stl_vector.h ****       {
 176:/home/zkmike/.local/share/renesas/e2_studio/toolchains/gcc_arm/gcc-arm-none-eabi-6-2017-q2-update/arm-none-eabi/include/c++/6.3.1/bits/stl_vector.h **** 	typedef __gnu_cxx::__alloc_traits<_Tp_alloc_type> _Tr;
 177:/home/zkmike/.local/share/renesas/e2_studio/toolchains/gcc_arm/gcc-arm-none-eabi-6-2017-q2-update/arm-none-eabi/include/c++/6.3.1/bits/stl_vector.h **** 	if (__p)
 178:/home/zkmike/.local/share/renesas/e2_studio/toolchains/gcc_arm/gcc-arm-none-eabi-6-2017-q2-update/arm-none-eabi/include/c++/6.3.1/bits/stl_vector.h **** 	  _Tr::deallocate(_M_impl, __p, __n);
 179:/home/zkmike/.local/share/renesas/e2_studio/toolchains/gcc_arm/gcc-arm-none-eabi-6-2017-q2-update/arm-none-eabi/include/c++/6.3.1/bits/stl_vector.h ****       }
 180:/home/zkmike/.local/share/renesas/e2_studio/toolchains/gcc_arm/gcc-arm-none-eabi-6-2017-q2-update/arm-none-eabi/include/c++/6.3.1/bits/stl_vector.h **** 
 181:/home/zkmike/.local/share/renesas/e2_studio/toolchains/gcc_arm/gcc-arm-none-eabi-6-2017-q2-update/arm-none-eabi/include/c++/6.3.1/bits/stl_vector.h ****     private:
 182:/home/zkmike/.local/share/renesas/e2_studio/toolchains/gcc_arm/gcc-arm-none-eabi-6-2017-q2-update/arm-none-eabi/include/c++/6.3.1/bits/stl_vector.h ****       void
 183:/home/zkmike/.local/share/renesas/e2_studio/toolchains/gcc_arm/gcc-arm-none-eabi-6-2017-q2-update/arm-none-eabi/include/c++/6.3.1/bits/stl_vector.h ****       _M_create_storage(size_t __n)
 184:/home/zkmike/.local/share/renesas/e2_studio/toolchains/gcc_arm/gcc-arm-none-eabi-6-2017-q2-update/arm-none-eabi/include/c++/6.3.1/bits/stl_vector.h ****       {
 185:/home/zkmike/.local/share/renesas/e2_studio/toolchains/gcc_arm/gcc-arm-none-eabi-6-2017-q2-update/arm-none-eabi/include/c++/6.3.1/bits/stl_vector.h **** 	this->_M_impl._M_start = this->_M_allocate(__n);
 186:/home/zkmike/.local/share/renesas/e2_studio/toolchains/gcc_arm/gcc-arm-none-eabi-6-2017-q2-update/arm-none-eabi/include/c++/6.3.1/bits/stl_vector.h **** 	this->_M_impl._M_finish = this->_M_impl._M_start;
 187:/home/zkmike/.local/share/renesas/e2_studio/toolchains/gcc_arm/gcc-arm-none-eabi-6-2017-q2-update/arm-none-eabi/include/c++/6.3.1/bits/stl_vector.h **** 	this->_M_impl._M_end_of_storage = this->_M_impl._M_start + __n;
 188:/home/zkmike/.local/share/renesas/e2_studio/toolchains/gcc_arm/gcc-arm-none-eabi-6-2017-q2-update/arm-none-eabi/include/c++/6.3.1/bits/stl_vector.h ****       }
 189:/home/zkmike/.local/share/renesas/e2_studio/toolchains/gcc_arm/gcc-arm-none-eabi-6-2017-q2-update/arm-none-eabi/include/c++/6.3.1/bits/stl_vector.h ****     };
 190:/home/zkmike/.local/share/renesas/e2_studio/toolchains/gcc_arm/gcc-arm-none-eabi-6-2017-q2-update/arm-none-eabi/include/c++/6.3.1/bits/stl_vector.h **** 
 191:/home/zkmike/.local/share/renesas/e2_studio/toolchains/gcc_arm/gcc-arm-none-eabi-6-2017-q2-update/arm-none-eabi/include/c++/6.3.1/bits/stl_vector.h **** 
 192:/home/zkmike/.local/share/renesas/e2_studio/toolchains/gcc_arm/gcc-arm-none-eabi-6-2017-q2-update/arm-none-eabi/include/c++/6.3.1/bits/stl_vector.h ****   /**
 193:/home/zkmike/.local/share/renesas/e2_studio/toolchains/gcc_arm/gcc-arm-none-eabi-6-2017-q2-update/arm-none-eabi/include/c++/6.3.1/bits/stl_vector.h ****    *  @brief A standard container which offers fixed time access to
 194:/home/zkmike/.local/share/renesas/e2_studio/toolchains/gcc_arm/gcc-arm-none-eabi-6-2017-q2-update/arm-none-eabi/include/c++/6.3.1/bits/stl_vector.h ****    *  individual elements in any order.
 195:/home/zkmike/.local/share/renesas/e2_studio/toolchains/gcc_arm/gcc-arm-none-eabi-6-2017-q2-update/arm-none-eabi/include/c++/6.3.1/bits/stl_vector.h ****    *
 196:/home/zkmike/.local/share/renesas/e2_studio/toolchains/gcc_arm/gcc-arm-none-eabi-6-2017-q2-update/arm-none-eabi/include/c++/6.3.1/bits/stl_vector.h ****    *  @ingroup sequences
 197:/home/zkmike/.local/share/renesas/e2_studio/toolchains/gcc_arm/gcc-arm-none-eabi-6-2017-q2-update/arm-none-eabi/include/c++/6.3.1/bits/stl_vector.h ****    *
 198:/home/zkmike/.local/share/renesas/e2_studio/toolchains/gcc_arm/gcc-arm-none-eabi-6-2017-q2-update/arm-none-eabi/include/c++/6.3.1/bits/stl_vector.h ****    *  @tparam _Tp  Type of element.
 199:/home/zkmike/.local/share/renesas/e2_studio/toolchains/gcc_arm/gcc-arm-none-eabi-6-2017-q2-update/arm-none-eabi/include/c++/6.3.1/bits/stl_vector.h ****    *  @tparam _Alloc  Allocator type, defaults to allocator<_Tp>.
 200:/home/zkmike/.local/share/renesas/e2_studio/toolchains/gcc_arm/gcc-arm-none-eabi-6-2017-q2-update/arm-none-eabi/include/c++/6.3.1/bits/stl_vector.h ****    *
 201:/home/zkmike/.local/share/renesas/e2_studio/toolchains/gcc_arm/gcc-arm-none-eabi-6-2017-q2-update/arm-none-eabi/include/c++/6.3.1/bits/stl_vector.h ****    *  Meets the requirements of a <a href="tables.html#65">container</a>, a
 202:/home/zkmike/.local/share/renesas/e2_studio/toolchains/gcc_arm/gcc-arm-none-eabi-6-2017-q2-update/arm-none-eabi/include/c++/6.3.1/bits/stl_vector.h ****    *  <a href="tables.html#66">reversible container</a>, and a
 203:/home/zkmike/.local/share/renesas/e2_studio/toolchains/gcc_arm/gcc-arm-none-eabi-6-2017-q2-update/arm-none-eabi/include/c++/6.3.1/bits/stl_vector.h ****    *  <a href="tables.html#67">sequence</a>, including the
 204:/home/zkmike/.local/share/renesas/e2_studio/toolchains/gcc_arm/gcc-arm-none-eabi-6-2017-q2-update/arm-none-eabi/include/c++/6.3.1/bits/stl_vector.h ****    *  <a href="tables.html#68">optional sequence requirements</a> with the
 205:/home/zkmike/.local/share/renesas/e2_studio/toolchains/gcc_arm/gcc-arm-none-eabi-6-2017-q2-update/arm-none-eabi/include/c++/6.3.1/bits/stl_vector.h ****    *  %exception of @c push_front and @c pop_front.
 206:/home/zkmike/.local/share/renesas/e2_studio/toolchains/gcc_arm/gcc-arm-none-eabi-6-2017-q2-update/arm-none-eabi/include/c++/6.3.1/bits/stl_vector.h ****    *
 207:/home/zkmike/.local/share/renesas/e2_studio/toolchains/gcc_arm/gcc-arm-none-eabi-6-2017-q2-update/arm-none-eabi/include/c++/6.3.1/bits/stl_vector.h ****    *  In some terminology a %vector can be described as a dynamic
 208:/home/zkmike/.local/share/renesas/e2_studio/toolchains/gcc_arm/gcc-arm-none-eabi-6-2017-q2-update/arm-none-eabi/include/c++/6.3.1/bits/stl_vector.h ****    *  C-style array, it offers fast and efficient access to individual
 209:/home/zkmike/.local/share/renesas/e2_studio/toolchains/gcc_arm/gcc-arm-none-eabi-6-2017-q2-update/arm-none-eabi/include/c++/6.3.1/bits/stl_vector.h ****    *  elements in any order and saves the user from worrying about
 210:/home/zkmike/.local/share/renesas/e2_studio/toolchains/gcc_arm/gcc-arm-none-eabi-6-2017-q2-update/arm-none-eabi/include/c++/6.3.1/bits/stl_vector.h ****    *  memory and size allocation.  Subscripting ( @c [] ) access is
 211:/home/zkmike/.local/share/renesas/e2_studio/toolchains/gcc_arm/gcc-arm-none-eabi-6-2017-q2-update/arm-none-eabi/include/c++/6.3.1/bits/stl_vector.h ****    *  also provided as with C-style arrays.
 212:/home/zkmike/.local/share/renesas/e2_studio/toolchains/gcc_arm/gcc-arm-none-eabi-6-2017-q2-update/arm-none-eabi/include/c++/6.3.1/bits/stl_vector.h ****   */
 213:/home/zkmike/.local/share/renesas/e2_studio/toolchains/gcc_arm/gcc-arm-none-eabi-6-2017-q2-update/arm-none-eabi/include/c++/6.3.1/bits/stl_vector.h ****   template<typename _Tp, typename _Alloc = std::allocator<_Tp> >
 214:/home/zkmike/.local/share/renesas/e2_studio/toolchains/gcc_arm/gcc-arm-none-eabi-6-2017-q2-update/arm-none-eabi/include/c++/6.3.1/bits/stl_vector.h ****     class vector : protected _Vector_base<_Tp, _Alloc>
 215:/home/zkmike/.local/share/renesas/e2_studio/toolchains/gcc_arm/gcc-arm-none-eabi-6-2017-q2-update/arm-none-eabi/include/c++/6.3.1/bits/stl_vector.h ****     {
 216:/home/zkmike/.local/share/renesas/e2_studio/toolchains/gcc_arm/gcc-arm-none-eabi-6-2017-q2-update/arm-none-eabi/include/c++/6.3.1/bits/stl_vector.h ****       // Concept requirements.
 217:/home/zkmike/.local/share/renesas/e2_studio/toolchains/gcc_arm/gcc-arm-none-eabi-6-2017-q2-update/arm-none-eabi/include/c++/6.3.1/bits/stl_vector.h ****       typedef typename _Alloc::value_type                _Alloc_value_type;
 218:/home/zkmike/.local/share/renesas/e2_studio/toolchains/gcc_arm/gcc-arm-none-eabi-6-2017-q2-update/arm-none-eabi/include/c++/6.3.1/bits/stl_vector.h **** #if __cplusplus < 201103L
 219:/home/zkmike/.local/share/renesas/e2_studio/toolchains/gcc_arm/gcc-arm-none-eabi-6-2017-q2-update/arm-none-eabi/include/c++/6.3.1/bits/stl_vector.h ****       __glibcxx_class_requires(_Tp, _SGIAssignableConcept)
 220:/home/zkmike/.local/share/renesas/e2_studio/toolchains/gcc_arm/gcc-arm-none-eabi-6-2017-q2-update/arm-none-eabi/include/c++/6.3.1/bits/stl_vector.h **** #endif
 221:/home/zkmike/.local/share/renesas/e2_studio/toolchains/gcc_arm/gcc-arm-none-eabi-6-2017-q2-update/arm-none-eabi/include/c++/6.3.1/bits/stl_vector.h ****       __glibcxx_class_requires2(_Tp, _Alloc_value_type, _SameTypeConcept)
 222:/home/zkmike/.local/share/renesas/e2_studio/toolchains/gcc_arm/gcc-arm-none-eabi-6-2017-q2-update/arm-none-eabi/include/c++/6.3.1/bits/stl_vector.h ****       
 223:/home/zkmike/.local/share/renesas/e2_studio/toolchains/gcc_arm/gcc-arm-none-eabi-6-2017-q2-update/arm-none-eabi/include/c++/6.3.1/bits/stl_vector.h ****       typedef _Vector_base<_Tp, _Alloc>			 _Base;
 224:/home/zkmike/.local/share/renesas/e2_studio/toolchains/gcc_arm/gcc-arm-none-eabi-6-2017-q2-update/arm-none-eabi/include/c++/6.3.1/bits/stl_vector.h ****       typedef typename _Base::_Tp_alloc_type		 _Tp_alloc_type;
 225:/home/zkmike/.local/share/renesas/e2_studio/toolchains/gcc_arm/gcc-arm-none-eabi-6-2017-q2-update/arm-none-eabi/include/c++/6.3.1/bits/stl_vector.h ****       typedef __gnu_cxx::__alloc_traits<_Tp_alloc_type>  _Alloc_traits;
 226:/home/zkmike/.local/share/renesas/e2_studio/toolchains/gcc_arm/gcc-arm-none-eabi-6-2017-q2-update/arm-none-eabi/include/c++/6.3.1/bits/stl_vector.h **** 
 227:/home/zkmike/.local/share/renesas/e2_studio/toolchains/gcc_arm/gcc-arm-none-eabi-6-2017-q2-update/arm-none-eabi/include/c++/6.3.1/bits/stl_vector.h ****     public:
 228:/home/zkmike/.local/share/renesas/e2_studio/toolchains/gcc_arm/gcc-arm-none-eabi-6-2017-q2-update/arm-none-eabi/include/c++/6.3.1/bits/stl_vector.h ****       typedef _Tp					 value_type;
 229:/home/zkmike/.local/share/renesas/e2_studio/toolchains/gcc_arm/gcc-arm-none-eabi-6-2017-q2-update/arm-none-eabi/include/c++/6.3.1/bits/stl_vector.h ****       typedef typename _Base::pointer                    pointer;
 230:/home/zkmike/.local/share/renesas/e2_studio/toolchains/gcc_arm/gcc-arm-none-eabi-6-2017-q2-update/arm-none-eabi/include/c++/6.3.1/bits/stl_vector.h ****       typedef typename _Alloc_traits::const_pointer      const_pointer;
 231:/home/zkmike/.local/share/renesas/e2_studio/toolchains/gcc_arm/gcc-arm-none-eabi-6-2017-q2-update/arm-none-eabi/include/c++/6.3.1/bits/stl_vector.h ****       typedef typename _Alloc_traits::reference          reference;
 232:/home/zkmike/.local/share/renesas/e2_studio/toolchains/gcc_arm/gcc-arm-none-eabi-6-2017-q2-update/arm-none-eabi/include/c++/6.3.1/bits/stl_vector.h ****       typedef typename _Alloc_traits::const_reference    const_reference;
 233:/home/zkmike/.local/share/renesas/e2_studio/toolchains/gcc_arm/gcc-arm-none-eabi-6-2017-q2-update/arm-none-eabi/include/c++/6.3.1/bits/stl_vector.h ****       typedef __gnu_cxx::__normal_iterator<pointer, vector> iterator;
 234:/home/zkmike/.local/share/renesas/e2_studio/toolchains/gcc_arm/gcc-arm-none-eabi-6-2017-q2-update/arm-none-eabi/include/c++/6.3.1/bits/stl_vector.h ****       typedef __gnu_cxx::__normal_iterator<const_pointer, vector>
 235:/home/zkmike/.local/share/renesas/e2_studio/toolchains/gcc_arm/gcc-arm-none-eabi-6-2017-q2-update/arm-none-eabi/include/c++/6.3.1/bits/stl_vector.h ****       const_iterator;
 236:/home/zkmike/.local/share/renesas/e2_studio/toolchains/gcc_arm/gcc-arm-none-eabi-6-2017-q2-update/arm-none-eabi/include/c++/6.3.1/bits/stl_vector.h ****       typedef std::reverse_iterator<const_iterator>  const_reverse_iterator;
 237:/home/zkmike/.local/share/renesas/e2_studio/toolchains/gcc_arm/gcc-arm-none-eabi-6-2017-q2-update/arm-none-eabi/include/c++/6.3.1/bits/stl_vector.h ****       typedef std::reverse_iterator<iterator>		 reverse_iterator;
 238:/home/zkmike/.local/share/renesas/e2_studio/toolchains/gcc_arm/gcc-arm-none-eabi-6-2017-q2-update/arm-none-eabi/include/c++/6.3.1/bits/stl_vector.h ****       typedef size_t					 size_type;
 239:/home/zkmike/.local/share/renesas/e2_studio/toolchains/gcc_arm/gcc-arm-none-eabi-6-2017-q2-update/arm-none-eabi/include/c++/6.3.1/bits/stl_vector.h ****       typedef ptrdiff_t					 difference_type;
 240:/home/zkmike/.local/share/renesas/e2_studio/toolchains/gcc_arm/gcc-arm-none-eabi-6-2017-q2-update/arm-none-eabi/include/c++/6.3.1/bits/stl_vector.h ****       typedef _Alloc                        		 allocator_type;
 241:/home/zkmike/.local/share/renesas/e2_studio/toolchains/gcc_arm/gcc-arm-none-eabi-6-2017-q2-update/arm-none-eabi/include/c++/6.3.1/bits/stl_vector.h **** 
 242:/home/zkmike/.local/share/renesas/e2_studio/toolchains/gcc_arm/gcc-arm-none-eabi-6-2017-q2-update/arm-none-eabi/include/c++/6.3.1/bits/stl_vector.h ****     protected:
 243:/home/zkmike/.local/share/renesas/e2_studio/toolchains/gcc_arm/gcc-arm-none-eabi-6-2017-q2-update/arm-none-eabi/include/c++/6.3.1/bits/stl_vector.h ****       using _Base::_M_allocate;
 244:/home/zkmike/.local/share/renesas/e2_studio/toolchains/gcc_arm/gcc-arm-none-eabi-6-2017-q2-update/arm-none-eabi/include/c++/6.3.1/bits/stl_vector.h ****       using _Base::_M_deallocate;
 245:/home/zkmike/.local/share/renesas/e2_studio/toolchains/gcc_arm/gcc-arm-none-eabi-6-2017-q2-update/arm-none-eabi/include/c++/6.3.1/bits/stl_vector.h ****       using _Base::_M_impl;
 246:/home/zkmike/.local/share/renesas/e2_studio/toolchains/gcc_arm/gcc-arm-none-eabi-6-2017-q2-update/arm-none-eabi/include/c++/6.3.1/bits/stl_vector.h ****       using _Base::_M_get_Tp_allocator;
 247:/home/zkmike/.local/share/renesas/e2_studio/toolchains/gcc_arm/gcc-arm-none-eabi-6-2017-q2-update/arm-none-eabi/include/c++/6.3.1/bits/stl_vector.h **** 
 248:/home/zkmike/.local/share/renesas/e2_studio/toolchains/gcc_arm/gcc-arm-none-eabi-6-2017-q2-update/arm-none-eabi/include/c++/6.3.1/bits/stl_vector.h ****     public:
 249:/home/zkmike/.local/share/renesas/e2_studio/toolchains/gcc_arm/gcc-arm-none-eabi-6-2017-q2-update/arm-none-eabi/include/c++/6.3.1/bits/stl_vector.h ****       // [23.2.4.1] construct/copy/destroy
 250:/home/zkmike/.local/share/renesas/e2_studio/toolchains/gcc_arm/gcc-arm-none-eabi-6-2017-q2-update/arm-none-eabi/include/c++/6.3.1/bits/stl_vector.h ****       // (assign() and get_allocator() are also listed in this section)
 251:/home/zkmike/.local/share/renesas/e2_studio/toolchains/gcc_arm/gcc-arm-none-eabi-6-2017-q2-update/arm-none-eabi/include/c++/6.3.1/bits/stl_vector.h **** 
 252:/home/zkmike/.local/share/renesas/e2_studio/toolchains/gcc_arm/gcc-arm-none-eabi-6-2017-q2-update/arm-none-eabi/include/c++/6.3.1/bits/stl_vector.h ****       /**
 253:/home/zkmike/.local/share/renesas/e2_studio/toolchains/gcc_arm/gcc-arm-none-eabi-6-2017-q2-update/arm-none-eabi/include/c++/6.3.1/bits/stl_vector.h ****        *  @brief  Creates a %vector with no elements.
 254:/home/zkmike/.local/share/renesas/e2_studio/toolchains/gcc_arm/gcc-arm-none-eabi-6-2017-q2-update/arm-none-eabi/include/c++/6.3.1/bits/stl_vector.h ****        */
 255:/home/zkmike/.local/share/renesas/e2_studio/toolchains/gcc_arm/gcc-arm-none-eabi-6-2017-q2-update/arm-none-eabi/include/c++/6.3.1/bits/stl_vector.h ****       vector()
 256:/home/zkmike/.local/share/renesas/e2_studio/toolchains/gcc_arm/gcc-arm-none-eabi-6-2017-q2-update/arm-none-eabi/include/c++/6.3.1/bits/stl_vector.h **** #if __cplusplus >= 201103L
 257:/home/zkmike/.local/share/renesas/e2_studio/toolchains/gcc_arm/gcc-arm-none-eabi-6-2017-q2-update/arm-none-eabi/include/c++/6.3.1/bits/stl_vector.h ****       noexcept(is_nothrow_default_constructible<_Alloc>::value)
 258:/home/zkmike/.local/share/renesas/e2_studio/toolchains/gcc_arm/gcc-arm-none-eabi-6-2017-q2-update/arm-none-eabi/include/c++/6.3.1/bits/stl_vector.h **** #endif
 259:/home/zkmike/.local/share/renesas/e2_studio/toolchains/gcc_arm/gcc-arm-none-eabi-6-2017-q2-update/arm-none-eabi/include/c++/6.3.1/bits/stl_vector.h ****       : _Base() { }
 260:/home/zkmike/.local/share/renesas/e2_studio/toolchains/gcc_arm/gcc-arm-none-eabi-6-2017-q2-update/arm-none-eabi/include/c++/6.3.1/bits/stl_vector.h **** 
 261:/home/zkmike/.local/share/renesas/e2_studio/toolchains/gcc_arm/gcc-arm-none-eabi-6-2017-q2-update/arm-none-eabi/include/c++/6.3.1/bits/stl_vector.h ****       /**
 262:/home/zkmike/.local/share/renesas/e2_studio/toolchains/gcc_arm/gcc-arm-none-eabi-6-2017-q2-update/arm-none-eabi/include/c++/6.3.1/bits/stl_vector.h ****        *  @brief  Creates a %vector with no elements.
 263:/home/zkmike/.local/share/renesas/e2_studio/toolchains/gcc_arm/gcc-arm-none-eabi-6-2017-q2-update/arm-none-eabi/include/c++/6.3.1/bits/stl_vector.h ****        *  @param  __a  An allocator object.
 264:/home/zkmike/.local/share/renesas/e2_studio/toolchains/gcc_arm/gcc-arm-none-eabi-6-2017-q2-update/arm-none-eabi/include/c++/6.3.1/bits/stl_vector.h ****        */
 265:/home/zkmike/.local/share/renesas/e2_studio/toolchains/gcc_arm/gcc-arm-none-eabi-6-2017-q2-update/arm-none-eabi/include/c++/6.3.1/bits/stl_vector.h ****       explicit
 266:/home/zkmike/.local/share/renesas/e2_studio/toolchains/gcc_arm/gcc-arm-none-eabi-6-2017-q2-update/arm-none-eabi/include/c++/6.3.1/bits/stl_vector.h ****       vector(const allocator_type& __a) _GLIBCXX_NOEXCEPT
 267:/home/zkmike/.local/share/renesas/e2_studio/toolchains/gcc_arm/gcc-arm-none-eabi-6-2017-q2-update/arm-none-eabi/include/c++/6.3.1/bits/stl_vector.h ****       : _Base(__a) { }
 268:/home/zkmike/.local/share/renesas/e2_studio/toolchains/gcc_arm/gcc-arm-none-eabi-6-2017-q2-update/arm-none-eabi/include/c++/6.3.1/bits/stl_vector.h **** 
 269:/home/zkmike/.local/share/renesas/e2_studio/toolchains/gcc_arm/gcc-arm-none-eabi-6-2017-q2-update/arm-none-eabi/include/c++/6.3.1/bits/stl_vector.h **** #if __cplusplus >= 201103L
 270:/home/zkmike/.local/share/renesas/e2_studio/toolchains/gcc_arm/gcc-arm-none-eabi-6-2017-q2-update/arm-none-eabi/include/c++/6.3.1/bits/stl_vector.h ****       /**
 271:/home/zkmike/.local/share/renesas/e2_studio/toolchains/gcc_arm/gcc-arm-none-eabi-6-2017-q2-update/arm-none-eabi/include/c++/6.3.1/bits/stl_vector.h ****        *  @brief  Creates a %vector with default constructed elements.
 272:/home/zkmike/.local/share/renesas/e2_studio/toolchains/gcc_arm/gcc-arm-none-eabi-6-2017-q2-update/arm-none-eabi/include/c++/6.3.1/bits/stl_vector.h ****        *  @param  __n  The number of elements to initially create.
 273:/home/zkmike/.local/share/renesas/e2_studio/toolchains/gcc_arm/gcc-arm-none-eabi-6-2017-q2-update/arm-none-eabi/include/c++/6.3.1/bits/stl_vector.h ****        *  @param  __a  An allocator.
 274:/home/zkmike/.local/share/renesas/e2_studio/toolchains/gcc_arm/gcc-arm-none-eabi-6-2017-q2-update/arm-none-eabi/include/c++/6.3.1/bits/stl_vector.h ****        *
 275:/home/zkmike/.local/share/renesas/e2_studio/toolchains/gcc_arm/gcc-arm-none-eabi-6-2017-q2-update/arm-none-eabi/include/c++/6.3.1/bits/stl_vector.h ****        *  This constructor fills the %vector with @a __n default
 276:/home/zkmike/.local/share/renesas/e2_studio/toolchains/gcc_arm/gcc-arm-none-eabi-6-2017-q2-update/arm-none-eabi/include/c++/6.3.1/bits/stl_vector.h ****        *  constructed elements.
 277:/home/zkmike/.local/share/renesas/e2_studio/toolchains/gcc_arm/gcc-arm-none-eabi-6-2017-q2-update/arm-none-eabi/include/c++/6.3.1/bits/stl_vector.h ****        */
 278:/home/zkmike/.local/share/renesas/e2_studio/toolchains/gcc_arm/gcc-arm-none-eabi-6-2017-q2-update/arm-none-eabi/include/c++/6.3.1/bits/stl_vector.h ****       explicit
 279:/home/zkmike/.local/share/renesas/e2_studio/toolchains/gcc_arm/gcc-arm-none-eabi-6-2017-q2-update/arm-none-eabi/include/c++/6.3.1/bits/stl_vector.h ****       vector(size_type __n, const allocator_type& __a = allocator_type())
 280:/home/zkmike/.local/share/renesas/e2_studio/toolchains/gcc_arm/gcc-arm-none-eabi-6-2017-q2-update/arm-none-eabi/include/c++/6.3.1/bits/stl_vector.h ****       : _Base(__n, __a)
 281:/home/zkmike/.local/share/renesas/e2_studio/toolchains/gcc_arm/gcc-arm-none-eabi-6-2017-q2-update/arm-none-eabi/include/c++/6.3.1/bits/stl_vector.h ****       { _M_default_initialize(__n); }
 282:/home/zkmike/.local/share/renesas/e2_studio/toolchains/gcc_arm/gcc-arm-none-eabi-6-2017-q2-update/arm-none-eabi/include/c++/6.3.1/bits/stl_vector.h **** 
 283:/home/zkmike/.local/share/renesas/e2_studio/toolchains/gcc_arm/gcc-arm-none-eabi-6-2017-q2-update/arm-none-eabi/include/c++/6.3.1/bits/stl_vector.h ****       /**
 284:/home/zkmike/.local/share/renesas/e2_studio/toolchains/gcc_arm/gcc-arm-none-eabi-6-2017-q2-update/arm-none-eabi/include/c++/6.3.1/bits/stl_vector.h ****        *  @brief  Creates a %vector with copies of an exemplar element.
 285:/home/zkmike/.local/share/renesas/e2_studio/toolchains/gcc_arm/gcc-arm-none-eabi-6-2017-q2-update/arm-none-eabi/include/c++/6.3.1/bits/stl_vector.h ****        *  @param  __n  The number of elements to initially create.
 286:/home/zkmike/.local/share/renesas/e2_studio/toolchains/gcc_arm/gcc-arm-none-eabi-6-2017-q2-update/arm-none-eabi/include/c++/6.3.1/bits/stl_vector.h ****        *  @param  __value  An element to copy.
 287:/home/zkmike/.local/share/renesas/e2_studio/toolchains/gcc_arm/gcc-arm-none-eabi-6-2017-q2-update/arm-none-eabi/include/c++/6.3.1/bits/stl_vector.h ****        *  @param  __a  An allocator.
 288:/home/zkmike/.local/share/renesas/e2_studio/toolchains/gcc_arm/gcc-arm-none-eabi-6-2017-q2-update/arm-none-eabi/include/c++/6.3.1/bits/stl_vector.h ****        *
 289:/home/zkmike/.local/share/renesas/e2_studio/toolchains/gcc_arm/gcc-arm-none-eabi-6-2017-q2-update/arm-none-eabi/include/c++/6.3.1/bits/stl_vector.h ****        *  This constructor fills the %vector with @a __n copies of @a __value.
 290:/home/zkmike/.local/share/renesas/e2_studio/toolchains/gcc_arm/gcc-arm-none-eabi-6-2017-q2-update/arm-none-eabi/include/c++/6.3.1/bits/stl_vector.h ****        */
 291:/home/zkmike/.local/share/renesas/e2_studio/toolchains/gcc_arm/gcc-arm-none-eabi-6-2017-q2-update/arm-none-eabi/include/c++/6.3.1/bits/stl_vector.h ****       vector(size_type __n, const value_type& __value,
 292:/home/zkmike/.local/share/renesas/e2_studio/toolchains/gcc_arm/gcc-arm-none-eabi-6-2017-q2-update/arm-none-eabi/include/c++/6.3.1/bits/stl_vector.h **** 	     const allocator_type& __a = allocator_type())
 293:/home/zkmike/.local/share/renesas/e2_studio/toolchains/gcc_arm/gcc-arm-none-eabi-6-2017-q2-update/arm-none-eabi/include/c++/6.3.1/bits/stl_vector.h ****       : _Base(__n, __a)
 294:/home/zkmike/.local/share/renesas/e2_studio/toolchains/gcc_arm/gcc-arm-none-eabi-6-2017-q2-update/arm-none-eabi/include/c++/6.3.1/bits/stl_vector.h ****       { _M_fill_initialize(__n, __value); }
 295:/home/zkmike/.local/share/renesas/e2_studio/toolchains/gcc_arm/gcc-arm-none-eabi-6-2017-q2-update/arm-none-eabi/include/c++/6.3.1/bits/stl_vector.h **** #else
 296:/home/zkmike/.local/share/renesas/e2_studio/toolchains/gcc_arm/gcc-arm-none-eabi-6-2017-q2-update/arm-none-eabi/include/c++/6.3.1/bits/stl_vector.h ****       /**
 297:/home/zkmike/.local/share/renesas/e2_studio/toolchains/gcc_arm/gcc-arm-none-eabi-6-2017-q2-update/arm-none-eabi/include/c++/6.3.1/bits/stl_vector.h ****        *  @brief  Creates a %vector with copies of an exemplar element.
 298:/home/zkmike/.local/share/renesas/e2_studio/toolchains/gcc_arm/gcc-arm-none-eabi-6-2017-q2-update/arm-none-eabi/include/c++/6.3.1/bits/stl_vector.h ****        *  @param  __n  The number of elements to initially create.
 299:/home/zkmike/.local/share/renesas/e2_studio/toolchains/gcc_arm/gcc-arm-none-eabi-6-2017-q2-update/arm-none-eabi/include/c++/6.3.1/bits/stl_vector.h ****        *  @param  __value  An element to copy.
 300:/home/zkmike/.local/share/renesas/e2_studio/toolchains/gcc_arm/gcc-arm-none-eabi-6-2017-q2-update/arm-none-eabi/include/c++/6.3.1/bits/stl_vector.h ****        *  @param  __a  An allocator.
 301:/home/zkmike/.local/share/renesas/e2_studio/toolchains/gcc_arm/gcc-arm-none-eabi-6-2017-q2-update/arm-none-eabi/include/c++/6.3.1/bits/stl_vector.h ****        *
 302:/home/zkmike/.local/share/renesas/e2_studio/toolchains/gcc_arm/gcc-arm-none-eabi-6-2017-q2-update/arm-none-eabi/include/c++/6.3.1/bits/stl_vector.h ****        *  This constructor fills the %vector with @a __n copies of @a __value.
 303:/home/zkmike/.local/share/renesas/e2_studio/toolchains/gcc_arm/gcc-arm-none-eabi-6-2017-q2-update/arm-none-eabi/include/c++/6.3.1/bits/stl_vector.h ****        */
 304:/home/zkmike/.local/share/renesas/e2_studio/toolchains/gcc_arm/gcc-arm-none-eabi-6-2017-q2-update/arm-none-eabi/include/c++/6.3.1/bits/stl_vector.h ****       explicit
 305:/home/zkmike/.local/share/renesas/e2_studio/toolchains/gcc_arm/gcc-arm-none-eabi-6-2017-q2-update/arm-none-eabi/include/c++/6.3.1/bits/stl_vector.h ****       vector(size_type __n, const value_type& __value = value_type(),
 306:/home/zkmike/.local/share/renesas/e2_studio/toolchains/gcc_arm/gcc-arm-none-eabi-6-2017-q2-update/arm-none-eabi/include/c++/6.3.1/bits/stl_vector.h **** 	     const allocator_type& __a = allocator_type())
 307:/home/zkmike/.local/share/renesas/e2_studio/toolchains/gcc_arm/gcc-arm-none-eabi-6-2017-q2-update/arm-none-eabi/include/c++/6.3.1/bits/stl_vector.h ****       : _Base(__n, __a)
 308:/home/zkmike/.local/share/renesas/e2_studio/toolchains/gcc_arm/gcc-arm-none-eabi-6-2017-q2-update/arm-none-eabi/include/c++/6.3.1/bits/stl_vector.h ****       { _M_fill_initialize(__n, __value); }
 309:/home/zkmike/.local/share/renesas/e2_studio/toolchains/gcc_arm/gcc-arm-none-eabi-6-2017-q2-update/arm-none-eabi/include/c++/6.3.1/bits/stl_vector.h **** #endif
 310:/home/zkmike/.local/share/renesas/e2_studio/toolchains/gcc_arm/gcc-arm-none-eabi-6-2017-q2-update/arm-none-eabi/include/c++/6.3.1/bits/stl_vector.h **** 
 311:/home/zkmike/.local/share/renesas/e2_studio/toolchains/gcc_arm/gcc-arm-none-eabi-6-2017-q2-update/arm-none-eabi/include/c++/6.3.1/bits/stl_vector.h ****       /**
 312:/home/zkmike/.local/share/renesas/e2_studio/toolchains/gcc_arm/gcc-arm-none-eabi-6-2017-q2-update/arm-none-eabi/include/c++/6.3.1/bits/stl_vector.h ****        *  @brief  %Vector copy constructor.
 313:/home/zkmike/.local/share/renesas/e2_studio/toolchains/gcc_arm/gcc-arm-none-eabi-6-2017-q2-update/arm-none-eabi/include/c++/6.3.1/bits/stl_vector.h ****        *  @param  __x  A %vector of identical element and allocator types.
 314:/home/zkmike/.local/share/renesas/e2_studio/toolchains/gcc_arm/gcc-arm-none-eabi-6-2017-q2-update/arm-none-eabi/include/c++/6.3.1/bits/stl_vector.h ****        *
 315:/home/zkmike/.local/share/renesas/e2_studio/toolchains/gcc_arm/gcc-arm-none-eabi-6-2017-q2-update/arm-none-eabi/include/c++/6.3.1/bits/stl_vector.h ****        *  The newly-created %vector uses a copy of the allocation
 316:/home/zkmike/.local/share/renesas/e2_studio/toolchains/gcc_arm/gcc-arm-none-eabi-6-2017-q2-update/arm-none-eabi/include/c++/6.3.1/bits/stl_vector.h ****        *  object used by @a __x.  All the elements of @a __x are copied,
 317:/home/zkmike/.local/share/renesas/e2_studio/toolchains/gcc_arm/gcc-arm-none-eabi-6-2017-q2-update/arm-none-eabi/include/c++/6.3.1/bits/stl_vector.h ****        *  but any extra memory in
 318:/home/zkmike/.local/share/renesas/e2_studio/toolchains/gcc_arm/gcc-arm-none-eabi-6-2017-q2-update/arm-none-eabi/include/c++/6.3.1/bits/stl_vector.h ****        *  @a __x (for fast expansion) will not be copied.
 319:/home/zkmike/.local/share/renesas/e2_studio/toolchains/gcc_arm/gcc-arm-none-eabi-6-2017-q2-update/arm-none-eabi/include/c++/6.3.1/bits/stl_vector.h ****        */
 320:/home/zkmike/.local/share/renesas/e2_studio/toolchains/gcc_arm/gcc-arm-none-eabi-6-2017-q2-update/arm-none-eabi/include/c++/6.3.1/bits/stl_vector.h ****       vector(const vector& __x)
 321:/home/zkmike/.local/share/renesas/e2_studio/toolchains/gcc_arm/gcc-arm-none-eabi-6-2017-q2-update/arm-none-eabi/include/c++/6.3.1/bits/stl_vector.h ****       : _Base(__x.size(),
 322:/home/zkmike/.local/share/renesas/e2_studio/toolchains/gcc_arm/gcc-arm-none-eabi-6-2017-q2-update/arm-none-eabi/include/c++/6.3.1/bits/stl_vector.h ****         _Alloc_traits::_S_select_on_copy(__x._M_get_Tp_allocator()))
 323:/home/zkmike/.local/share/renesas/e2_studio/toolchains/gcc_arm/gcc-arm-none-eabi-6-2017-q2-update/arm-none-eabi/include/c++/6.3.1/bits/stl_vector.h ****       { this->_M_impl._M_finish =
 324:/home/zkmike/.local/share/renesas/e2_studio/toolchains/gcc_arm/gcc-arm-none-eabi-6-2017-q2-update/arm-none-eabi/include/c++/6.3.1/bits/stl_vector.h **** 	  std::__uninitialized_copy_a(__x.begin(), __x.end(),
 325:/home/zkmike/.local/share/renesas/e2_studio/toolchains/gcc_arm/gcc-arm-none-eabi-6-2017-q2-update/arm-none-eabi/include/c++/6.3.1/bits/stl_vector.h **** 				      this->_M_impl._M_start,
 326:/home/zkmike/.local/share/renesas/e2_studio/toolchains/gcc_arm/gcc-arm-none-eabi-6-2017-q2-update/arm-none-eabi/include/c++/6.3.1/bits/stl_vector.h **** 				      _M_get_Tp_allocator());
 327:/home/zkmike/.local/share/renesas/e2_studio/toolchains/gcc_arm/gcc-arm-none-eabi-6-2017-q2-update/arm-none-eabi/include/c++/6.3.1/bits/stl_vector.h ****       }
 328:/home/zkmike/.local/share/renesas/e2_studio/toolchains/gcc_arm/gcc-arm-none-eabi-6-2017-q2-update/arm-none-eabi/include/c++/6.3.1/bits/stl_vector.h **** 
 329:/home/zkmike/.local/share/renesas/e2_studio/toolchains/gcc_arm/gcc-arm-none-eabi-6-2017-q2-update/arm-none-eabi/include/c++/6.3.1/bits/stl_vector.h **** #if __cplusplus >= 201103L
 330:/home/zkmike/.local/share/renesas/e2_studio/toolchains/gcc_arm/gcc-arm-none-eabi-6-2017-q2-update/arm-none-eabi/include/c++/6.3.1/bits/stl_vector.h ****       /**
 331:/home/zkmike/.local/share/renesas/e2_studio/toolchains/gcc_arm/gcc-arm-none-eabi-6-2017-q2-update/arm-none-eabi/include/c++/6.3.1/bits/stl_vector.h ****        *  @brief  %Vector move constructor.
 332:/home/zkmike/.local/share/renesas/e2_studio/toolchains/gcc_arm/gcc-arm-none-eabi-6-2017-q2-update/arm-none-eabi/include/c++/6.3.1/bits/stl_vector.h ****        *  @param  __x  A %vector of identical element and allocator types.
 333:/home/zkmike/.local/share/renesas/e2_studio/toolchains/gcc_arm/gcc-arm-none-eabi-6-2017-q2-update/arm-none-eabi/include/c++/6.3.1/bits/stl_vector.h ****        *
 334:/home/zkmike/.local/share/renesas/e2_studio/toolchains/gcc_arm/gcc-arm-none-eabi-6-2017-q2-update/arm-none-eabi/include/c++/6.3.1/bits/stl_vector.h ****        *  The newly-created %vector contains the exact contents of @a __x.
 335:/home/zkmike/.local/share/renesas/e2_studio/toolchains/gcc_arm/gcc-arm-none-eabi-6-2017-q2-update/arm-none-eabi/include/c++/6.3.1/bits/stl_vector.h ****        *  The contents of @a __x are a valid, but unspecified %vector.
 336:/home/zkmike/.local/share/renesas/e2_studio/toolchains/gcc_arm/gcc-arm-none-eabi-6-2017-q2-update/arm-none-eabi/include/c++/6.3.1/bits/stl_vector.h ****        */
 337:/home/zkmike/.local/share/renesas/e2_studio/toolchains/gcc_arm/gcc-arm-none-eabi-6-2017-q2-update/arm-none-eabi/include/c++/6.3.1/bits/stl_vector.h ****       vector(vector&& __x) noexcept
 338:/home/zkmike/.local/share/renesas/e2_studio/toolchains/gcc_arm/gcc-arm-none-eabi-6-2017-q2-update/arm-none-eabi/include/c++/6.3.1/bits/stl_vector.h ****       : _Base(std::move(__x)) { }
 339:/home/zkmike/.local/share/renesas/e2_studio/toolchains/gcc_arm/gcc-arm-none-eabi-6-2017-q2-update/arm-none-eabi/include/c++/6.3.1/bits/stl_vector.h **** 
 340:/home/zkmike/.local/share/renesas/e2_studio/toolchains/gcc_arm/gcc-arm-none-eabi-6-2017-q2-update/arm-none-eabi/include/c++/6.3.1/bits/stl_vector.h ****       /// Copy constructor with alternative allocator
 341:/home/zkmike/.local/share/renesas/e2_studio/toolchains/gcc_arm/gcc-arm-none-eabi-6-2017-q2-update/arm-none-eabi/include/c++/6.3.1/bits/stl_vector.h ****       vector(const vector& __x, const allocator_type& __a)
 342:/home/zkmike/.local/share/renesas/e2_studio/toolchains/gcc_arm/gcc-arm-none-eabi-6-2017-q2-update/arm-none-eabi/include/c++/6.3.1/bits/stl_vector.h ****       : _Base(__x.size(), __a)
 343:/home/zkmike/.local/share/renesas/e2_studio/toolchains/gcc_arm/gcc-arm-none-eabi-6-2017-q2-update/arm-none-eabi/include/c++/6.3.1/bits/stl_vector.h ****       { this->_M_impl._M_finish =
 344:/home/zkmike/.local/share/renesas/e2_studio/toolchains/gcc_arm/gcc-arm-none-eabi-6-2017-q2-update/arm-none-eabi/include/c++/6.3.1/bits/stl_vector.h **** 	  std::__uninitialized_copy_a(__x.begin(), __x.end(),
 345:/home/zkmike/.local/share/renesas/e2_studio/toolchains/gcc_arm/gcc-arm-none-eabi-6-2017-q2-update/arm-none-eabi/include/c++/6.3.1/bits/stl_vector.h **** 				      this->_M_impl._M_start,
 346:/home/zkmike/.local/share/renesas/e2_studio/toolchains/gcc_arm/gcc-arm-none-eabi-6-2017-q2-update/arm-none-eabi/include/c++/6.3.1/bits/stl_vector.h **** 				      _M_get_Tp_allocator());
 347:/home/zkmike/.local/share/renesas/e2_studio/toolchains/gcc_arm/gcc-arm-none-eabi-6-2017-q2-update/arm-none-eabi/include/c++/6.3.1/bits/stl_vector.h ****       }
 348:/home/zkmike/.local/share/renesas/e2_studio/toolchains/gcc_arm/gcc-arm-none-eabi-6-2017-q2-update/arm-none-eabi/include/c++/6.3.1/bits/stl_vector.h **** 
 349:/home/zkmike/.local/share/renesas/e2_studio/toolchains/gcc_arm/gcc-arm-none-eabi-6-2017-q2-update/arm-none-eabi/include/c++/6.3.1/bits/stl_vector.h ****       /// Move constructor with alternative allocator
 350:/home/zkmike/.local/share/renesas/e2_studio/toolchains/gcc_arm/gcc-arm-none-eabi-6-2017-q2-update/arm-none-eabi/include/c++/6.3.1/bits/stl_vector.h ****       vector(vector&& __rv, const allocator_type& __m)
 351:/home/zkmike/.local/share/renesas/e2_studio/toolchains/gcc_arm/gcc-arm-none-eabi-6-2017-q2-update/arm-none-eabi/include/c++/6.3.1/bits/stl_vector.h ****       noexcept(_Alloc_traits::_S_always_equal())
 352:/home/zkmike/.local/share/renesas/e2_studio/toolchains/gcc_arm/gcc-arm-none-eabi-6-2017-q2-update/arm-none-eabi/include/c++/6.3.1/bits/stl_vector.h ****       : _Base(std::move(__rv), __m)
 353:/home/zkmike/.local/share/renesas/e2_studio/toolchains/gcc_arm/gcc-arm-none-eabi-6-2017-q2-update/arm-none-eabi/include/c++/6.3.1/bits/stl_vector.h ****       {
 354:/home/zkmike/.local/share/renesas/e2_studio/toolchains/gcc_arm/gcc-arm-none-eabi-6-2017-q2-update/arm-none-eabi/include/c++/6.3.1/bits/stl_vector.h **** 	if (__rv.get_allocator() != __m)
 355:/home/zkmike/.local/share/renesas/e2_studio/toolchains/gcc_arm/gcc-arm-none-eabi-6-2017-q2-update/arm-none-eabi/include/c++/6.3.1/bits/stl_vector.h **** 	  {
 356:/home/zkmike/.local/share/renesas/e2_studio/toolchains/gcc_arm/gcc-arm-none-eabi-6-2017-q2-update/arm-none-eabi/include/c++/6.3.1/bits/stl_vector.h **** 	    this->_M_impl._M_finish =
 357:/home/zkmike/.local/share/renesas/e2_studio/toolchains/gcc_arm/gcc-arm-none-eabi-6-2017-q2-update/arm-none-eabi/include/c++/6.3.1/bits/stl_vector.h **** 	      std::__uninitialized_move_a(__rv.begin(), __rv.end(),
 358:/home/zkmike/.local/share/renesas/e2_studio/toolchains/gcc_arm/gcc-arm-none-eabi-6-2017-q2-update/arm-none-eabi/include/c++/6.3.1/bits/stl_vector.h **** 					  this->_M_impl._M_start,
 359:/home/zkmike/.local/share/renesas/e2_studio/toolchains/gcc_arm/gcc-arm-none-eabi-6-2017-q2-update/arm-none-eabi/include/c++/6.3.1/bits/stl_vector.h **** 					  _M_get_Tp_allocator());
 360:/home/zkmike/.local/share/renesas/e2_studio/toolchains/gcc_arm/gcc-arm-none-eabi-6-2017-q2-update/arm-none-eabi/include/c++/6.3.1/bits/stl_vector.h **** 	    __rv.clear();
 361:/home/zkmike/.local/share/renesas/e2_studio/toolchains/gcc_arm/gcc-arm-none-eabi-6-2017-q2-update/arm-none-eabi/include/c++/6.3.1/bits/stl_vector.h **** 	  }
 362:/home/zkmike/.local/share/renesas/e2_studio/toolchains/gcc_arm/gcc-arm-none-eabi-6-2017-q2-update/arm-none-eabi/include/c++/6.3.1/bits/stl_vector.h ****       }
 363:/home/zkmike/.local/share/renesas/e2_studio/toolchains/gcc_arm/gcc-arm-none-eabi-6-2017-q2-update/arm-none-eabi/include/c++/6.3.1/bits/stl_vector.h **** 
 364:/home/zkmike/.local/share/renesas/e2_studio/toolchains/gcc_arm/gcc-arm-none-eabi-6-2017-q2-update/arm-none-eabi/include/c++/6.3.1/bits/stl_vector.h ****       /**
 365:/home/zkmike/.local/share/renesas/e2_studio/toolchains/gcc_arm/gcc-arm-none-eabi-6-2017-q2-update/arm-none-eabi/include/c++/6.3.1/bits/stl_vector.h ****        *  @brief  Builds a %vector from an initializer list.
 366:/home/zkmike/.local/share/renesas/e2_studio/toolchains/gcc_arm/gcc-arm-none-eabi-6-2017-q2-update/arm-none-eabi/include/c++/6.3.1/bits/stl_vector.h ****        *  @param  __l  An initializer_list.
 367:/home/zkmike/.local/share/renesas/e2_studio/toolchains/gcc_arm/gcc-arm-none-eabi-6-2017-q2-update/arm-none-eabi/include/c++/6.3.1/bits/stl_vector.h ****        *  @param  __a  An allocator.
 368:/home/zkmike/.local/share/renesas/e2_studio/toolchains/gcc_arm/gcc-arm-none-eabi-6-2017-q2-update/arm-none-eabi/include/c++/6.3.1/bits/stl_vector.h ****        *
 369:/home/zkmike/.local/share/renesas/e2_studio/toolchains/gcc_arm/gcc-arm-none-eabi-6-2017-q2-update/arm-none-eabi/include/c++/6.3.1/bits/stl_vector.h ****        *  Create a %vector consisting of copies of the elements in the
 370:/home/zkmike/.local/share/renesas/e2_studio/toolchains/gcc_arm/gcc-arm-none-eabi-6-2017-q2-update/arm-none-eabi/include/c++/6.3.1/bits/stl_vector.h ****        *  initializer_list @a __l.
 371:/home/zkmike/.local/share/renesas/e2_studio/toolchains/gcc_arm/gcc-arm-none-eabi-6-2017-q2-update/arm-none-eabi/include/c++/6.3.1/bits/stl_vector.h ****        *
 372:/home/zkmike/.local/share/renesas/e2_studio/toolchains/gcc_arm/gcc-arm-none-eabi-6-2017-q2-update/arm-none-eabi/include/c++/6.3.1/bits/stl_vector.h ****        *  This will call the element type's copy constructor N times
 373:/home/zkmike/.local/share/renesas/e2_studio/toolchains/gcc_arm/gcc-arm-none-eabi-6-2017-q2-update/arm-none-eabi/include/c++/6.3.1/bits/stl_vector.h ****        *  (where N is @a __l.size()) and do no memory reallocation.
 374:/home/zkmike/.local/share/renesas/e2_studio/toolchains/gcc_arm/gcc-arm-none-eabi-6-2017-q2-update/arm-none-eabi/include/c++/6.3.1/bits/stl_vector.h ****        */
 375:/home/zkmike/.local/share/renesas/e2_studio/toolchains/gcc_arm/gcc-arm-none-eabi-6-2017-q2-update/arm-none-eabi/include/c++/6.3.1/bits/stl_vector.h ****       vector(initializer_list<value_type> __l,
 376:/home/zkmike/.local/share/renesas/e2_studio/toolchains/gcc_arm/gcc-arm-none-eabi-6-2017-q2-update/arm-none-eabi/include/c++/6.3.1/bits/stl_vector.h **** 	     const allocator_type& __a = allocator_type())
 377:/home/zkmike/.local/share/renesas/e2_studio/toolchains/gcc_arm/gcc-arm-none-eabi-6-2017-q2-update/arm-none-eabi/include/c++/6.3.1/bits/stl_vector.h ****       : _Base(__a)
 378:/home/zkmike/.local/share/renesas/e2_studio/toolchains/gcc_arm/gcc-arm-none-eabi-6-2017-q2-update/arm-none-eabi/include/c++/6.3.1/bits/stl_vector.h ****       {
 379:/home/zkmike/.local/share/renesas/e2_studio/toolchains/gcc_arm/gcc-arm-none-eabi-6-2017-q2-update/arm-none-eabi/include/c++/6.3.1/bits/stl_vector.h **** 	_M_range_initialize(__l.begin(), __l.end(),
 380:/home/zkmike/.local/share/renesas/e2_studio/toolchains/gcc_arm/gcc-arm-none-eabi-6-2017-q2-update/arm-none-eabi/include/c++/6.3.1/bits/stl_vector.h **** 			    random_access_iterator_tag());
 381:/home/zkmike/.local/share/renesas/e2_studio/toolchains/gcc_arm/gcc-arm-none-eabi-6-2017-q2-update/arm-none-eabi/include/c++/6.3.1/bits/stl_vector.h ****       }
 382:/home/zkmike/.local/share/renesas/e2_studio/toolchains/gcc_arm/gcc-arm-none-eabi-6-2017-q2-update/arm-none-eabi/include/c++/6.3.1/bits/stl_vector.h **** #endif
 383:/home/zkmike/.local/share/renesas/e2_studio/toolchains/gcc_arm/gcc-arm-none-eabi-6-2017-q2-update/arm-none-eabi/include/c++/6.3.1/bits/stl_vector.h **** 
 384:/home/zkmike/.local/share/renesas/e2_studio/toolchains/gcc_arm/gcc-arm-none-eabi-6-2017-q2-update/arm-none-eabi/include/c++/6.3.1/bits/stl_vector.h ****       /**
 385:/home/zkmike/.local/share/renesas/e2_studio/toolchains/gcc_arm/gcc-arm-none-eabi-6-2017-q2-update/arm-none-eabi/include/c++/6.3.1/bits/stl_vector.h ****        *  @brief  Builds a %vector from a range.
 386:/home/zkmike/.local/share/renesas/e2_studio/toolchains/gcc_arm/gcc-arm-none-eabi-6-2017-q2-update/arm-none-eabi/include/c++/6.3.1/bits/stl_vector.h ****        *  @param  __first  An input iterator.
 387:/home/zkmike/.local/share/renesas/e2_studio/toolchains/gcc_arm/gcc-arm-none-eabi-6-2017-q2-update/arm-none-eabi/include/c++/6.3.1/bits/stl_vector.h ****        *  @param  __last  An input iterator.
 388:/home/zkmike/.local/share/renesas/e2_studio/toolchains/gcc_arm/gcc-arm-none-eabi-6-2017-q2-update/arm-none-eabi/include/c++/6.3.1/bits/stl_vector.h ****        *  @param  __a  An allocator.
 389:/home/zkmike/.local/share/renesas/e2_studio/toolchains/gcc_arm/gcc-arm-none-eabi-6-2017-q2-update/arm-none-eabi/include/c++/6.3.1/bits/stl_vector.h ****        *
 390:/home/zkmike/.local/share/renesas/e2_studio/toolchains/gcc_arm/gcc-arm-none-eabi-6-2017-q2-update/arm-none-eabi/include/c++/6.3.1/bits/stl_vector.h ****        *  Create a %vector consisting of copies of the elements from
 391:/home/zkmike/.local/share/renesas/e2_studio/toolchains/gcc_arm/gcc-arm-none-eabi-6-2017-q2-update/arm-none-eabi/include/c++/6.3.1/bits/stl_vector.h ****        *  [first,last).
 392:/home/zkmike/.local/share/renesas/e2_studio/toolchains/gcc_arm/gcc-arm-none-eabi-6-2017-q2-update/arm-none-eabi/include/c++/6.3.1/bits/stl_vector.h ****        *
 393:/home/zkmike/.local/share/renesas/e2_studio/toolchains/gcc_arm/gcc-arm-none-eabi-6-2017-q2-update/arm-none-eabi/include/c++/6.3.1/bits/stl_vector.h ****        *  If the iterators are forward, bidirectional, or
 394:/home/zkmike/.local/share/renesas/e2_studio/toolchains/gcc_arm/gcc-arm-none-eabi-6-2017-q2-update/arm-none-eabi/include/c++/6.3.1/bits/stl_vector.h ****        *  random-access, then this will call the elements' copy
 395:/home/zkmike/.local/share/renesas/e2_studio/toolchains/gcc_arm/gcc-arm-none-eabi-6-2017-q2-update/arm-none-eabi/include/c++/6.3.1/bits/stl_vector.h ****        *  constructor N times (where N is distance(first,last)) and do
 396:/home/zkmike/.local/share/renesas/e2_studio/toolchains/gcc_arm/gcc-arm-none-eabi-6-2017-q2-update/arm-none-eabi/include/c++/6.3.1/bits/stl_vector.h ****        *  no memory reallocation.  But if only input iterators are
 397:/home/zkmike/.local/share/renesas/e2_studio/toolchains/gcc_arm/gcc-arm-none-eabi-6-2017-q2-update/arm-none-eabi/include/c++/6.3.1/bits/stl_vector.h ****        *  used, then this will do at most 2N calls to the copy
 398:/home/zkmike/.local/share/renesas/e2_studio/toolchains/gcc_arm/gcc-arm-none-eabi-6-2017-q2-update/arm-none-eabi/include/c++/6.3.1/bits/stl_vector.h ****        *  constructor, and logN memory reallocations.
 399:/home/zkmike/.local/share/renesas/e2_studio/toolchains/gcc_arm/gcc-arm-none-eabi-6-2017-q2-update/arm-none-eabi/include/c++/6.3.1/bits/stl_vector.h ****        */
 400:/home/zkmike/.local/share/renesas/e2_studio/toolchains/gcc_arm/gcc-arm-none-eabi-6-2017-q2-update/arm-none-eabi/include/c++/6.3.1/bits/stl_vector.h **** #if __cplusplus >= 201103L
 401:/home/zkmike/.local/share/renesas/e2_studio/toolchains/gcc_arm/gcc-arm-none-eabi-6-2017-q2-update/arm-none-eabi/include/c++/6.3.1/bits/stl_vector.h ****       template<typename _InputIterator,
 402:/home/zkmike/.local/share/renesas/e2_studio/toolchains/gcc_arm/gcc-arm-none-eabi-6-2017-q2-update/arm-none-eabi/include/c++/6.3.1/bits/stl_vector.h **** 	       typename = std::_RequireInputIter<_InputIterator>>
 403:/home/zkmike/.local/share/renesas/e2_studio/toolchains/gcc_arm/gcc-arm-none-eabi-6-2017-q2-update/arm-none-eabi/include/c++/6.3.1/bits/stl_vector.h ****         vector(_InputIterator __first, _InputIterator __last,
 404:/home/zkmike/.local/share/renesas/e2_studio/toolchains/gcc_arm/gcc-arm-none-eabi-6-2017-q2-update/arm-none-eabi/include/c++/6.3.1/bits/stl_vector.h **** 	       const allocator_type& __a = allocator_type())
 405:/home/zkmike/.local/share/renesas/e2_studio/toolchains/gcc_arm/gcc-arm-none-eabi-6-2017-q2-update/arm-none-eabi/include/c++/6.3.1/bits/stl_vector.h **** 	: _Base(__a)
 406:/home/zkmike/.local/share/renesas/e2_studio/toolchains/gcc_arm/gcc-arm-none-eabi-6-2017-q2-update/arm-none-eabi/include/c++/6.3.1/bits/stl_vector.h ****         { _M_initialize_dispatch(__first, __last, __false_type()); }
 407:/home/zkmike/.local/share/renesas/e2_studio/toolchains/gcc_arm/gcc-arm-none-eabi-6-2017-q2-update/arm-none-eabi/include/c++/6.3.1/bits/stl_vector.h **** #else
 408:/home/zkmike/.local/share/renesas/e2_studio/toolchains/gcc_arm/gcc-arm-none-eabi-6-2017-q2-update/arm-none-eabi/include/c++/6.3.1/bits/stl_vector.h ****       template<typename _InputIterator>
 409:/home/zkmike/.local/share/renesas/e2_studio/toolchains/gcc_arm/gcc-arm-none-eabi-6-2017-q2-update/arm-none-eabi/include/c++/6.3.1/bits/stl_vector.h ****         vector(_InputIterator __first, _InputIterator __last,
 410:/home/zkmike/.local/share/renesas/e2_studio/toolchains/gcc_arm/gcc-arm-none-eabi-6-2017-q2-update/arm-none-eabi/include/c++/6.3.1/bits/stl_vector.h **** 	       const allocator_type& __a = allocator_type())
 411:/home/zkmike/.local/share/renesas/e2_studio/toolchains/gcc_arm/gcc-arm-none-eabi-6-2017-q2-update/arm-none-eabi/include/c++/6.3.1/bits/stl_vector.h **** 	: _Base(__a)
 412:/home/zkmike/.local/share/renesas/e2_studio/toolchains/gcc_arm/gcc-arm-none-eabi-6-2017-q2-update/arm-none-eabi/include/c++/6.3.1/bits/stl_vector.h ****         {
 413:/home/zkmike/.local/share/renesas/e2_studio/toolchains/gcc_arm/gcc-arm-none-eabi-6-2017-q2-update/arm-none-eabi/include/c++/6.3.1/bits/stl_vector.h **** 	  // Check whether it's an integral type.  If so, it's not an iterator.
 414:/home/zkmike/.local/share/renesas/e2_studio/toolchains/gcc_arm/gcc-arm-none-eabi-6-2017-q2-update/arm-none-eabi/include/c++/6.3.1/bits/stl_vector.h **** 	  typedef typename std::__is_integer<_InputIterator>::__type _Integral;
 415:/home/zkmike/.local/share/renesas/e2_studio/toolchains/gcc_arm/gcc-arm-none-eabi-6-2017-q2-update/arm-none-eabi/include/c++/6.3.1/bits/stl_vector.h **** 	  _M_initialize_dispatch(__first, __last, _Integral());
 416:/home/zkmike/.local/share/renesas/e2_studio/toolchains/gcc_arm/gcc-arm-none-eabi-6-2017-q2-update/arm-none-eabi/include/c++/6.3.1/bits/stl_vector.h **** 	}
 417:/home/zkmike/.local/share/renesas/e2_studio/toolchains/gcc_arm/gcc-arm-none-eabi-6-2017-q2-update/arm-none-eabi/include/c++/6.3.1/bits/stl_vector.h **** #endif
 418:/home/zkmike/.local/share/renesas/e2_studio/toolchains/gcc_arm/gcc-arm-none-eabi-6-2017-q2-update/arm-none-eabi/include/c++/6.3.1/bits/stl_vector.h **** 
 419:/home/zkmike/.local/share/renesas/e2_studio/toolchains/gcc_arm/gcc-arm-none-eabi-6-2017-q2-update/arm-none-eabi/include/c++/6.3.1/bits/stl_vector.h ****       /**
 420:/home/zkmike/.local/share/renesas/e2_studio/toolchains/gcc_arm/gcc-arm-none-eabi-6-2017-q2-update/arm-none-eabi/include/c++/6.3.1/bits/stl_vector.h ****        *  The dtor only erases the elements, and note that if the
 421:/home/zkmike/.local/share/renesas/e2_studio/toolchains/gcc_arm/gcc-arm-none-eabi-6-2017-q2-update/arm-none-eabi/include/c++/6.3.1/bits/stl_vector.h ****        *  elements themselves are pointers, the pointed-to memory is
 422:/home/zkmike/.local/share/renesas/e2_studio/toolchains/gcc_arm/gcc-arm-none-eabi-6-2017-q2-update/arm-none-eabi/include/c++/6.3.1/bits/stl_vector.h ****        *  not touched in any way.  Managing the pointer is the user's
 423:/home/zkmike/.local/share/renesas/e2_studio/toolchains/gcc_arm/gcc-arm-none-eabi-6-2017-q2-update/arm-none-eabi/include/c++/6.3.1/bits/stl_vector.h ****        *  responsibility.
 424:/home/zkmike/.local/share/renesas/e2_studio/toolchains/gcc_arm/gcc-arm-none-eabi-6-2017-q2-update/arm-none-eabi/include/c++/6.3.1/bits/stl_vector.h ****        */
 425:/home/zkmike/.local/share/renesas/e2_studio/toolchains/gcc_arm/gcc-arm-none-eabi-6-2017-q2-update/arm-none-eabi/include/c++/6.3.1/bits/stl_vector.h ****       ~vector() _GLIBCXX_NOEXCEPT
 426:/home/zkmike/.local/share/renesas/e2_studio/toolchains/gcc_arm/gcc-arm-none-eabi-6-2017-q2-update/arm-none-eabi/include/c++/6.3.1/bits/stl_vector.h ****       { std::_Destroy(this->_M_impl._M_start, this->_M_impl._M_finish,
 427:/home/zkmike/.local/share/renesas/e2_studio/toolchains/gcc_arm/gcc-arm-none-eabi-6-2017-q2-update/arm-none-eabi/include/c++/6.3.1/bits/stl_vector.h **** 		      _M_get_Tp_allocator()); }
 428:/home/zkmike/.local/share/renesas/e2_studio/toolchains/gcc_arm/gcc-arm-none-eabi-6-2017-q2-update/arm-none-eabi/include/c++/6.3.1/bits/stl_vector.h **** 
 429:/home/zkmike/.local/share/renesas/e2_studio/toolchains/gcc_arm/gcc-arm-none-eabi-6-2017-q2-update/arm-none-eabi/include/c++/6.3.1/bits/stl_vector.h ****       /**
 430:/home/zkmike/.local/share/renesas/e2_studio/toolchains/gcc_arm/gcc-arm-none-eabi-6-2017-q2-update/arm-none-eabi/include/c++/6.3.1/bits/stl_vector.h ****        *  @brief  %Vector assignment operator.
 431:/home/zkmike/.local/share/renesas/e2_studio/toolchains/gcc_arm/gcc-arm-none-eabi-6-2017-q2-update/arm-none-eabi/include/c++/6.3.1/bits/stl_vector.h ****        *  @param  __x  A %vector of identical element and allocator types.
 432:/home/zkmike/.local/share/renesas/e2_studio/toolchains/gcc_arm/gcc-arm-none-eabi-6-2017-q2-update/arm-none-eabi/include/c++/6.3.1/bits/stl_vector.h ****        *
 433:/home/zkmike/.local/share/renesas/e2_studio/toolchains/gcc_arm/gcc-arm-none-eabi-6-2017-q2-update/arm-none-eabi/include/c++/6.3.1/bits/stl_vector.h ****        *  All the elements of @a __x are copied, but any extra memory in
 434:/home/zkmike/.local/share/renesas/e2_studio/toolchains/gcc_arm/gcc-arm-none-eabi-6-2017-q2-update/arm-none-eabi/include/c++/6.3.1/bits/stl_vector.h ****        *  @a __x (for fast expansion) will not be copied.  Unlike the
 435:/home/zkmike/.local/share/renesas/e2_studio/toolchains/gcc_arm/gcc-arm-none-eabi-6-2017-q2-update/arm-none-eabi/include/c++/6.3.1/bits/stl_vector.h ****        *  copy constructor, the allocator object is not copied.
 436:/home/zkmike/.local/share/renesas/e2_studio/toolchains/gcc_arm/gcc-arm-none-eabi-6-2017-q2-update/arm-none-eabi/include/c++/6.3.1/bits/stl_vector.h ****        */
 437:/home/zkmike/.local/share/renesas/e2_studio/toolchains/gcc_arm/gcc-arm-none-eabi-6-2017-q2-update/arm-none-eabi/include/c++/6.3.1/bits/stl_vector.h ****       vector&
 438:/home/zkmike/.local/share/renesas/e2_studio/toolchains/gcc_arm/gcc-arm-none-eabi-6-2017-q2-update/arm-none-eabi/include/c++/6.3.1/bits/stl_vector.h ****       operator=(const vector& __x);
 439:/home/zkmike/.local/share/renesas/e2_studio/toolchains/gcc_arm/gcc-arm-none-eabi-6-2017-q2-update/arm-none-eabi/include/c++/6.3.1/bits/stl_vector.h **** 
 440:/home/zkmike/.local/share/renesas/e2_studio/toolchains/gcc_arm/gcc-arm-none-eabi-6-2017-q2-update/arm-none-eabi/include/c++/6.3.1/bits/stl_vector.h **** #if __cplusplus >= 201103L
 441:/home/zkmike/.local/share/renesas/e2_studio/toolchains/gcc_arm/gcc-arm-none-eabi-6-2017-q2-update/arm-none-eabi/include/c++/6.3.1/bits/stl_vector.h ****       /**
 442:/home/zkmike/.local/share/renesas/e2_studio/toolchains/gcc_arm/gcc-arm-none-eabi-6-2017-q2-update/arm-none-eabi/include/c++/6.3.1/bits/stl_vector.h ****        *  @brief  %Vector move assignment operator.
 443:/home/zkmike/.local/share/renesas/e2_studio/toolchains/gcc_arm/gcc-arm-none-eabi-6-2017-q2-update/arm-none-eabi/include/c++/6.3.1/bits/stl_vector.h ****        *  @param  __x  A %vector of identical element and allocator types.
 444:/home/zkmike/.local/share/renesas/e2_studio/toolchains/gcc_arm/gcc-arm-none-eabi-6-2017-q2-update/arm-none-eabi/include/c++/6.3.1/bits/stl_vector.h ****        *
 445:/home/zkmike/.local/share/renesas/e2_studio/toolchains/gcc_arm/gcc-arm-none-eabi-6-2017-q2-update/arm-none-eabi/include/c++/6.3.1/bits/stl_vector.h ****        *  The contents of @a __x are moved into this %vector (without copying,
 446:/home/zkmike/.local/share/renesas/e2_studio/toolchains/gcc_arm/gcc-arm-none-eabi-6-2017-q2-update/arm-none-eabi/include/c++/6.3.1/bits/stl_vector.h ****        *  if the allocators permit it).
 447:/home/zkmike/.local/share/renesas/e2_studio/toolchains/gcc_arm/gcc-arm-none-eabi-6-2017-q2-update/arm-none-eabi/include/c++/6.3.1/bits/stl_vector.h ****        *  @a __x is a valid, but unspecified %vector.
 448:/home/zkmike/.local/share/renesas/e2_studio/toolchains/gcc_arm/gcc-arm-none-eabi-6-2017-q2-update/arm-none-eabi/include/c++/6.3.1/bits/stl_vector.h ****        */
 449:/home/zkmike/.local/share/renesas/e2_studio/toolchains/gcc_arm/gcc-arm-none-eabi-6-2017-q2-update/arm-none-eabi/include/c++/6.3.1/bits/stl_vector.h ****       vector&
 450:/home/zkmike/.local/share/renesas/e2_studio/toolchains/gcc_arm/gcc-arm-none-eabi-6-2017-q2-update/arm-none-eabi/include/c++/6.3.1/bits/stl_vector.h ****       operator=(vector&& __x) noexcept(_Alloc_traits::_S_nothrow_move())
 451:/home/zkmike/.local/share/renesas/e2_studio/toolchains/gcc_arm/gcc-arm-none-eabi-6-2017-q2-update/arm-none-eabi/include/c++/6.3.1/bits/stl_vector.h ****       {
 452:/home/zkmike/.local/share/renesas/e2_studio/toolchains/gcc_arm/gcc-arm-none-eabi-6-2017-q2-update/arm-none-eabi/include/c++/6.3.1/bits/stl_vector.h ****         constexpr bool __move_storage =
 453:/home/zkmike/.local/share/renesas/e2_studio/toolchains/gcc_arm/gcc-arm-none-eabi-6-2017-q2-update/arm-none-eabi/include/c++/6.3.1/bits/stl_vector.h ****           _Alloc_traits::_S_propagate_on_move_assign()
 454:/home/zkmike/.local/share/renesas/e2_studio/toolchains/gcc_arm/gcc-arm-none-eabi-6-2017-q2-update/arm-none-eabi/include/c++/6.3.1/bits/stl_vector.h ****           || _Alloc_traits::_S_always_equal();
 455:/home/zkmike/.local/share/renesas/e2_studio/toolchains/gcc_arm/gcc-arm-none-eabi-6-2017-q2-update/arm-none-eabi/include/c++/6.3.1/bits/stl_vector.h ****         _M_move_assign(std::move(__x), __bool_constant<__move_storage>());
 456:/home/zkmike/.local/share/renesas/e2_studio/toolchains/gcc_arm/gcc-arm-none-eabi-6-2017-q2-update/arm-none-eabi/include/c++/6.3.1/bits/stl_vector.h **** 	return *this;
 457:/home/zkmike/.local/share/renesas/e2_studio/toolchains/gcc_arm/gcc-arm-none-eabi-6-2017-q2-update/arm-none-eabi/include/c++/6.3.1/bits/stl_vector.h ****       }
 458:/home/zkmike/.local/share/renesas/e2_studio/toolchains/gcc_arm/gcc-arm-none-eabi-6-2017-q2-update/arm-none-eabi/include/c++/6.3.1/bits/stl_vector.h **** 
 459:/home/zkmike/.local/share/renesas/e2_studio/toolchains/gcc_arm/gcc-arm-none-eabi-6-2017-q2-update/arm-none-eabi/include/c++/6.3.1/bits/stl_vector.h ****       /**
 460:/home/zkmike/.local/share/renesas/e2_studio/toolchains/gcc_arm/gcc-arm-none-eabi-6-2017-q2-update/arm-none-eabi/include/c++/6.3.1/bits/stl_vector.h ****        *  @brief  %Vector list assignment operator.
 461:/home/zkmike/.local/share/renesas/e2_studio/toolchains/gcc_arm/gcc-arm-none-eabi-6-2017-q2-update/arm-none-eabi/include/c++/6.3.1/bits/stl_vector.h ****        *  @param  __l  An initializer_list.
 462:/home/zkmike/.local/share/renesas/e2_studio/toolchains/gcc_arm/gcc-arm-none-eabi-6-2017-q2-update/arm-none-eabi/include/c++/6.3.1/bits/stl_vector.h ****        *
 463:/home/zkmike/.local/share/renesas/e2_studio/toolchains/gcc_arm/gcc-arm-none-eabi-6-2017-q2-update/arm-none-eabi/include/c++/6.3.1/bits/stl_vector.h ****        *  This function fills a %vector with copies of the elements in the
 464:/home/zkmike/.local/share/renesas/e2_studio/toolchains/gcc_arm/gcc-arm-none-eabi-6-2017-q2-update/arm-none-eabi/include/c++/6.3.1/bits/stl_vector.h ****        *  initializer list @a __l.
 465:/home/zkmike/.local/share/renesas/e2_studio/toolchains/gcc_arm/gcc-arm-none-eabi-6-2017-q2-update/arm-none-eabi/include/c++/6.3.1/bits/stl_vector.h ****        *
 466:/home/zkmike/.local/share/renesas/e2_studio/toolchains/gcc_arm/gcc-arm-none-eabi-6-2017-q2-update/arm-none-eabi/include/c++/6.3.1/bits/stl_vector.h ****        *  Note that the assignment completely changes the %vector and
 467:/home/zkmike/.local/share/renesas/e2_studio/toolchains/gcc_arm/gcc-arm-none-eabi-6-2017-q2-update/arm-none-eabi/include/c++/6.3.1/bits/stl_vector.h ****        *  that the resulting %vector's size is the same as the number
 468:/home/zkmike/.local/share/renesas/e2_studio/toolchains/gcc_arm/gcc-arm-none-eabi-6-2017-q2-update/arm-none-eabi/include/c++/6.3.1/bits/stl_vector.h ****        *  of elements assigned.  Old data may be lost.
 469:/home/zkmike/.local/share/renesas/e2_studio/toolchains/gcc_arm/gcc-arm-none-eabi-6-2017-q2-update/arm-none-eabi/include/c++/6.3.1/bits/stl_vector.h ****        */
 470:/home/zkmike/.local/share/renesas/e2_studio/toolchains/gcc_arm/gcc-arm-none-eabi-6-2017-q2-update/arm-none-eabi/include/c++/6.3.1/bits/stl_vector.h ****       vector&
 471:/home/zkmike/.local/share/renesas/e2_studio/toolchains/gcc_arm/gcc-arm-none-eabi-6-2017-q2-update/arm-none-eabi/include/c++/6.3.1/bits/stl_vector.h ****       operator=(initializer_list<value_type> __l)
 472:/home/zkmike/.local/share/renesas/e2_studio/toolchains/gcc_arm/gcc-arm-none-eabi-6-2017-q2-update/arm-none-eabi/include/c++/6.3.1/bits/stl_vector.h ****       {
 473:/home/zkmike/.local/share/renesas/e2_studio/toolchains/gcc_arm/gcc-arm-none-eabi-6-2017-q2-update/arm-none-eabi/include/c++/6.3.1/bits/stl_vector.h **** 	this->assign(__l.begin(), __l.end());
 474:/home/zkmike/.local/share/renesas/e2_studio/toolchains/gcc_arm/gcc-arm-none-eabi-6-2017-q2-update/arm-none-eabi/include/c++/6.3.1/bits/stl_vector.h **** 	return *this;
 475:/home/zkmike/.local/share/renesas/e2_studio/toolchains/gcc_arm/gcc-arm-none-eabi-6-2017-q2-update/arm-none-eabi/include/c++/6.3.1/bits/stl_vector.h ****       }
 476:/home/zkmike/.local/share/renesas/e2_studio/toolchains/gcc_arm/gcc-arm-none-eabi-6-2017-q2-update/arm-none-eabi/include/c++/6.3.1/bits/stl_vector.h **** #endif
 477:/home/zkmike/.local/share/renesas/e2_studio/toolchains/gcc_arm/gcc-arm-none-eabi-6-2017-q2-update/arm-none-eabi/include/c++/6.3.1/bits/stl_vector.h **** 
 478:/home/zkmike/.local/share/renesas/e2_studio/toolchains/gcc_arm/gcc-arm-none-eabi-6-2017-q2-update/arm-none-eabi/include/c++/6.3.1/bits/stl_vector.h ****       /**
 479:/home/zkmike/.local/share/renesas/e2_studio/toolchains/gcc_arm/gcc-arm-none-eabi-6-2017-q2-update/arm-none-eabi/include/c++/6.3.1/bits/stl_vector.h ****        *  @brief  Assigns a given value to a %vector.
 480:/home/zkmike/.local/share/renesas/e2_studio/toolchains/gcc_arm/gcc-arm-none-eabi-6-2017-q2-update/arm-none-eabi/include/c++/6.3.1/bits/stl_vector.h ****        *  @param  __n  Number of elements to be assigned.
 481:/home/zkmike/.local/share/renesas/e2_studio/toolchains/gcc_arm/gcc-arm-none-eabi-6-2017-q2-update/arm-none-eabi/include/c++/6.3.1/bits/stl_vector.h ****        *  @param  __val  Value to be assigned.
 482:/home/zkmike/.local/share/renesas/e2_studio/toolchains/gcc_arm/gcc-arm-none-eabi-6-2017-q2-update/arm-none-eabi/include/c++/6.3.1/bits/stl_vector.h ****        *
 483:/home/zkmike/.local/share/renesas/e2_studio/toolchains/gcc_arm/gcc-arm-none-eabi-6-2017-q2-update/arm-none-eabi/include/c++/6.3.1/bits/stl_vector.h ****        *  This function fills a %vector with @a __n copies of the given
 484:/home/zkmike/.local/share/renesas/e2_studio/toolchains/gcc_arm/gcc-arm-none-eabi-6-2017-q2-update/arm-none-eabi/include/c++/6.3.1/bits/stl_vector.h ****        *  value.  Note that the assignment completely changes the
 485:/home/zkmike/.local/share/renesas/e2_studio/toolchains/gcc_arm/gcc-arm-none-eabi-6-2017-q2-update/arm-none-eabi/include/c++/6.3.1/bits/stl_vector.h ****        *  %vector and that the resulting %vector's size is the same as
 486:/home/zkmike/.local/share/renesas/e2_studio/toolchains/gcc_arm/gcc-arm-none-eabi-6-2017-q2-update/arm-none-eabi/include/c++/6.3.1/bits/stl_vector.h ****        *  the number of elements assigned.  Old data may be lost.
 487:/home/zkmike/.local/share/renesas/e2_studio/toolchains/gcc_arm/gcc-arm-none-eabi-6-2017-q2-update/arm-none-eabi/include/c++/6.3.1/bits/stl_vector.h ****        */
 488:/home/zkmike/.local/share/renesas/e2_studio/toolchains/gcc_arm/gcc-arm-none-eabi-6-2017-q2-update/arm-none-eabi/include/c++/6.3.1/bits/stl_vector.h ****       void
 489:/home/zkmike/.local/share/renesas/e2_studio/toolchains/gcc_arm/gcc-arm-none-eabi-6-2017-q2-update/arm-none-eabi/include/c++/6.3.1/bits/stl_vector.h ****       assign(size_type __n, const value_type& __val)
 490:/home/zkmike/.local/share/renesas/e2_studio/toolchains/gcc_arm/gcc-arm-none-eabi-6-2017-q2-update/arm-none-eabi/include/c++/6.3.1/bits/stl_vector.h ****       { _M_fill_assign(__n, __val); }
 491:/home/zkmike/.local/share/renesas/e2_studio/toolchains/gcc_arm/gcc-arm-none-eabi-6-2017-q2-update/arm-none-eabi/include/c++/6.3.1/bits/stl_vector.h **** 
 492:/home/zkmike/.local/share/renesas/e2_studio/toolchains/gcc_arm/gcc-arm-none-eabi-6-2017-q2-update/arm-none-eabi/include/c++/6.3.1/bits/stl_vector.h ****       /**
 493:/home/zkmike/.local/share/renesas/e2_studio/toolchains/gcc_arm/gcc-arm-none-eabi-6-2017-q2-update/arm-none-eabi/include/c++/6.3.1/bits/stl_vector.h ****        *  @brief  Assigns a range to a %vector.
 494:/home/zkmike/.local/share/renesas/e2_studio/toolchains/gcc_arm/gcc-arm-none-eabi-6-2017-q2-update/arm-none-eabi/include/c++/6.3.1/bits/stl_vector.h ****        *  @param  __first  An input iterator.
 495:/home/zkmike/.local/share/renesas/e2_studio/toolchains/gcc_arm/gcc-arm-none-eabi-6-2017-q2-update/arm-none-eabi/include/c++/6.3.1/bits/stl_vector.h ****        *  @param  __last   An input iterator.
 496:/home/zkmike/.local/share/renesas/e2_studio/toolchains/gcc_arm/gcc-arm-none-eabi-6-2017-q2-update/arm-none-eabi/include/c++/6.3.1/bits/stl_vector.h ****        *
 497:/home/zkmike/.local/share/renesas/e2_studio/toolchains/gcc_arm/gcc-arm-none-eabi-6-2017-q2-update/arm-none-eabi/include/c++/6.3.1/bits/stl_vector.h ****        *  This function fills a %vector with copies of the elements in the
 498:/home/zkmike/.local/share/renesas/e2_studio/toolchains/gcc_arm/gcc-arm-none-eabi-6-2017-q2-update/arm-none-eabi/include/c++/6.3.1/bits/stl_vector.h ****        *  range [__first,__last).
 499:/home/zkmike/.local/share/renesas/e2_studio/toolchains/gcc_arm/gcc-arm-none-eabi-6-2017-q2-update/arm-none-eabi/include/c++/6.3.1/bits/stl_vector.h ****        *
 500:/home/zkmike/.local/share/renesas/e2_studio/toolchains/gcc_arm/gcc-arm-none-eabi-6-2017-q2-update/arm-none-eabi/include/c++/6.3.1/bits/stl_vector.h ****        *  Note that the assignment completely changes the %vector and
 501:/home/zkmike/.local/share/renesas/e2_studio/toolchains/gcc_arm/gcc-arm-none-eabi-6-2017-q2-update/arm-none-eabi/include/c++/6.3.1/bits/stl_vector.h ****        *  that the resulting %vector's size is the same as the number
 502:/home/zkmike/.local/share/renesas/e2_studio/toolchains/gcc_arm/gcc-arm-none-eabi-6-2017-q2-update/arm-none-eabi/include/c++/6.3.1/bits/stl_vector.h ****        *  of elements assigned.  Old data may be lost.
 503:/home/zkmike/.local/share/renesas/e2_studio/toolchains/gcc_arm/gcc-arm-none-eabi-6-2017-q2-update/arm-none-eabi/include/c++/6.3.1/bits/stl_vector.h ****        */
 504:/home/zkmike/.local/share/renesas/e2_studio/toolchains/gcc_arm/gcc-arm-none-eabi-6-2017-q2-update/arm-none-eabi/include/c++/6.3.1/bits/stl_vector.h **** #if __cplusplus >= 201103L
 505:/home/zkmike/.local/share/renesas/e2_studio/toolchains/gcc_arm/gcc-arm-none-eabi-6-2017-q2-update/arm-none-eabi/include/c++/6.3.1/bits/stl_vector.h ****       template<typename _InputIterator,
 506:/home/zkmike/.local/share/renesas/e2_studio/toolchains/gcc_arm/gcc-arm-none-eabi-6-2017-q2-update/arm-none-eabi/include/c++/6.3.1/bits/stl_vector.h **** 	       typename = std::_RequireInputIter<_InputIterator>>
 507:/home/zkmike/.local/share/renesas/e2_studio/toolchains/gcc_arm/gcc-arm-none-eabi-6-2017-q2-update/arm-none-eabi/include/c++/6.3.1/bits/stl_vector.h ****         void
 508:/home/zkmike/.local/share/renesas/e2_studio/toolchains/gcc_arm/gcc-arm-none-eabi-6-2017-q2-update/arm-none-eabi/include/c++/6.3.1/bits/stl_vector.h ****         assign(_InputIterator __first, _InputIterator __last)
 509:/home/zkmike/.local/share/renesas/e2_studio/toolchains/gcc_arm/gcc-arm-none-eabi-6-2017-q2-update/arm-none-eabi/include/c++/6.3.1/bits/stl_vector.h ****         { _M_assign_dispatch(__first, __last, __false_type()); }
 510:/home/zkmike/.local/share/renesas/e2_studio/toolchains/gcc_arm/gcc-arm-none-eabi-6-2017-q2-update/arm-none-eabi/include/c++/6.3.1/bits/stl_vector.h **** #else
 511:/home/zkmike/.local/share/renesas/e2_studio/toolchains/gcc_arm/gcc-arm-none-eabi-6-2017-q2-update/arm-none-eabi/include/c++/6.3.1/bits/stl_vector.h ****       template<typename _InputIterator>
 512:/home/zkmike/.local/share/renesas/e2_studio/toolchains/gcc_arm/gcc-arm-none-eabi-6-2017-q2-update/arm-none-eabi/include/c++/6.3.1/bits/stl_vector.h ****         void
 513:/home/zkmike/.local/share/renesas/e2_studio/toolchains/gcc_arm/gcc-arm-none-eabi-6-2017-q2-update/arm-none-eabi/include/c++/6.3.1/bits/stl_vector.h ****         assign(_InputIterator __first, _InputIterator __last)
 514:/home/zkmike/.local/share/renesas/e2_studio/toolchains/gcc_arm/gcc-arm-none-eabi-6-2017-q2-update/arm-none-eabi/include/c++/6.3.1/bits/stl_vector.h ****         {
 515:/home/zkmike/.local/share/renesas/e2_studio/toolchains/gcc_arm/gcc-arm-none-eabi-6-2017-q2-update/arm-none-eabi/include/c++/6.3.1/bits/stl_vector.h **** 	  // Check whether it's an integral type.  If so, it's not an iterator.
 516:/home/zkmike/.local/share/renesas/e2_studio/toolchains/gcc_arm/gcc-arm-none-eabi-6-2017-q2-update/arm-none-eabi/include/c++/6.3.1/bits/stl_vector.h **** 	  typedef typename std::__is_integer<_InputIterator>::__type _Integral;
 517:/home/zkmike/.local/share/renesas/e2_studio/toolchains/gcc_arm/gcc-arm-none-eabi-6-2017-q2-update/arm-none-eabi/include/c++/6.3.1/bits/stl_vector.h **** 	  _M_assign_dispatch(__first, __last, _Integral());
 518:/home/zkmike/.local/share/renesas/e2_studio/toolchains/gcc_arm/gcc-arm-none-eabi-6-2017-q2-update/arm-none-eabi/include/c++/6.3.1/bits/stl_vector.h **** 	}
 519:/home/zkmike/.local/share/renesas/e2_studio/toolchains/gcc_arm/gcc-arm-none-eabi-6-2017-q2-update/arm-none-eabi/include/c++/6.3.1/bits/stl_vector.h **** #endif
 520:/home/zkmike/.local/share/renesas/e2_studio/toolchains/gcc_arm/gcc-arm-none-eabi-6-2017-q2-update/arm-none-eabi/include/c++/6.3.1/bits/stl_vector.h **** 
 521:/home/zkmike/.local/share/renesas/e2_studio/toolchains/gcc_arm/gcc-arm-none-eabi-6-2017-q2-update/arm-none-eabi/include/c++/6.3.1/bits/stl_vector.h **** #if __cplusplus >= 201103L
 522:/home/zkmike/.local/share/renesas/e2_studio/toolchains/gcc_arm/gcc-arm-none-eabi-6-2017-q2-update/arm-none-eabi/include/c++/6.3.1/bits/stl_vector.h ****       /**
 523:/home/zkmike/.local/share/renesas/e2_studio/toolchains/gcc_arm/gcc-arm-none-eabi-6-2017-q2-update/arm-none-eabi/include/c++/6.3.1/bits/stl_vector.h ****        *  @brief  Assigns an initializer list to a %vector.
 524:/home/zkmike/.local/share/renesas/e2_studio/toolchains/gcc_arm/gcc-arm-none-eabi-6-2017-q2-update/arm-none-eabi/include/c++/6.3.1/bits/stl_vector.h ****        *  @param  __l  An initializer_list.
 525:/home/zkmike/.local/share/renesas/e2_studio/toolchains/gcc_arm/gcc-arm-none-eabi-6-2017-q2-update/arm-none-eabi/include/c++/6.3.1/bits/stl_vector.h ****        *
 526:/home/zkmike/.local/share/renesas/e2_studio/toolchains/gcc_arm/gcc-arm-none-eabi-6-2017-q2-update/arm-none-eabi/include/c++/6.3.1/bits/stl_vector.h ****        *  This function fills a %vector with copies of the elements in the
 527:/home/zkmike/.local/share/renesas/e2_studio/toolchains/gcc_arm/gcc-arm-none-eabi-6-2017-q2-update/arm-none-eabi/include/c++/6.3.1/bits/stl_vector.h ****        *  initializer list @a __l.
 528:/home/zkmike/.local/share/renesas/e2_studio/toolchains/gcc_arm/gcc-arm-none-eabi-6-2017-q2-update/arm-none-eabi/include/c++/6.3.1/bits/stl_vector.h ****        *
 529:/home/zkmike/.local/share/renesas/e2_studio/toolchains/gcc_arm/gcc-arm-none-eabi-6-2017-q2-update/arm-none-eabi/include/c++/6.3.1/bits/stl_vector.h ****        *  Note that the assignment completely changes the %vector and
 530:/home/zkmike/.local/share/renesas/e2_studio/toolchains/gcc_arm/gcc-arm-none-eabi-6-2017-q2-update/arm-none-eabi/include/c++/6.3.1/bits/stl_vector.h ****        *  that the resulting %vector's size is the same as the number
 531:/home/zkmike/.local/share/renesas/e2_studio/toolchains/gcc_arm/gcc-arm-none-eabi-6-2017-q2-update/arm-none-eabi/include/c++/6.3.1/bits/stl_vector.h ****        *  of elements assigned.  Old data may be lost.
 532:/home/zkmike/.local/share/renesas/e2_studio/toolchains/gcc_arm/gcc-arm-none-eabi-6-2017-q2-update/arm-none-eabi/include/c++/6.3.1/bits/stl_vector.h ****        */
 533:/home/zkmike/.local/share/renesas/e2_studio/toolchains/gcc_arm/gcc-arm-none-eabi-6-2017-q2-update/arm-none-eabi/include/c++/6.3.1/bits/stl_vector.h ****       void
 534:/home/zkmike/.local/share/renesas/e2_studio/toolchains/gcc_arm/gcc-arm-none-eabi-6-2017-q2-update/arm-none-eabi/include/c++/6.3.1/bits/stl_vector.h ****       assign(initializer_list<value_type> __l)
 535:/home/zkmike/.local/share/renesas/e2_studio/toolchains/gcc_arm/gcc-arm-none-eabi-6-2017-q2-update/arm-none-eabi/include/c++/6.3.1/bits/stl_vector.h ****       { this->assign(__l.begin(), __l.end()); }
 536:/home/zkmike/.local/share/renesas/e2_studio/toolchains/gcc_arm/gcc-arm-none-eabi-6-2017-q2-update/arm-none-eabi/include/c++/6.3.1/bits/stl_vector.h **** #endif
 537:/home/zkmike/.local/share/renesas/e2_studio/toolchains/gcc_arm/gcc-arm-none-eabi-6-2017-q2-update/arm-none-eabi/include/c++/6.3.1/bits/stl_vector.h **** 
 538:/home/zkmike/.local/share/renesas/e2_studio/toolchains/gcc_arm/gcc-arm-none-eabi-6-2017-q2-update/arm-none-eabi/include/c++/6.3.1/bits/stl_vector.h ****       /// Get a copy of the memory allocation object.
 539:/home/zkmike/.local/share/renesas/e2_studio/toolchains/gcc_arm/gcc-arm-none-eabi-6-2017-q2-update/arm-none-eabi/include/c++/6.3.1/bits/stl_vector.h ****       using _Base::get_allocator;
 540:/home/zkmike/.local/share/renesas/e2_studio/toolchains/gcc_arm/gcc-arm-none-eabi-6-2017-q2-update/arm-none-eabi/include/c++/6.3.1/bits/stl_vector.h **** 
 541:/home/zkmike/.local/share/renesas/e2_studio/toolchains/gcc_arm/gcc-arm-none-eabi-6-2017-q2-update/arm-none-eabi/include/c++/6.3.1/bits/stl_vector.h ****       // iterators
 542:/home/zkmike/.local/share/renesas/e2_studio/toolchains/gcc_arm/gcc-arm-none-eabi-6-2017-q2-update/arm-none-eabi/include/c++/6.3.1/bits/stl_vector.h ****       /**
 543:/home/zkmike/.local/share/renesas/e2_studio/toolchains/gcc_arm/gcc-arm-none-eabi-6-2017-q2-update/arm-none-eabi/include/c++/6.3.1/bits/stl_vector.h ****        *  Returns a read/write iterator that points to the first
 544:/home/zkmike/.local/share/renesas/e2_studio/toolchains/gcc_arm/gcc-arm-none-eabi-6-2017-q2-update/arm-none-eabi/include/c++/6.3.1/bits/stl_vector.h ****        *  element in the %vector.  Iteration is done in ordinary
 545:/home/zkmike/.local/share/renesas/e2_studio/toolchains/gcc_arm/gcc-arm-none-eabi-6-2017-q2-update/arm-none-eabi/include/c++/6.3.1/bits/stl_vector.h ****        *  element order.
 546:/home/zkmike/.local/share/renesas/e2_studio/toolchains/gcc_arm/gcc-arm-none-eabi-6-2017-q2-update/arm-none-eabi/include/c++/6.3.1/bits/stl_vector.h ****        */
 547:/home/zkmike/.local/share/renesas/e2_studio/toolchains/gcc_arm/gcc-arm-none-eabi-6-2017-q2-update/arm-none-eabi/include/c++/6.3.1/bits/stl_vector.h ****       iterator
 548:/home/zkmike/.local/share/renesas/e2_studio/toolchains/gcc_arm/gcc-arm-none-eabi-6-2017-q2-update/arm-none-eabi/include/c++/6.3.1/bits/stl_vector.h ****       begin() _GLIBCXX_NOEXCEPT
 549:/home/zkmike/.local/share/renesas/e2_studio/toolchains/gcc_arm/gcc-arm-none-eabi-6-2017-q2-update/arm-none-eabi/include/c++/6.3.1/bits/stl_vector.h ****       { return iterator(this->_M_impl._M_start); }
 550:/home/zkmike/.local/share/renesas/e2_studio/toolchains/gcc_arm/gcc-arm-none-eabi-6-2017-q2-update/arm-none-eabi/include/c++/6.3.1/bits/stl_vector.h **** 
 551:/home/zkmike/.local/share/renesas/e2_studio/toolchains/gcc_arm/gcc-arm-none-eabi-6-2017-q2-update/arm-none-eabi/include/c++/6.3.1/bits/stl_vector.h ****       /**
 552:/home/zkmike/.local/share/renesas/e2_studio/toolchains/gcc_arm/gcc-arm-none-eabi-6-2017-q2-update/arm-none-eabi/include/c++/6.3.1/bits/stl_vector.h ****        *  Returns a read-only (constant) iterator that points to the
 553:/home/zkmike/.local/share/renesas/e2_studio/toolchains/gcc_arm/gcc-arm-none-eabi-6-2017-q2-update/arm-none-eabi/include/c++/6.3.1/bits/stl_vector.h ****        *  first element in the %vector.  Iteration is done in ordinary
 554:/home/zkmike/.local/share/renesas/e2_studio/toolchains/gcc_arm/gcc-arm-none-eabi-6-2017-q2-update/arm-none-eabi/include/c++/6.3.1/bits/stl_vector.h ****        *  element order.
 555:/home/zkmike/.local/share/renesas/e2_studio/toolchains/gcc_arm/gcc-arm-none-eabi-6-2017-q2-update/arm-none-eabi/include/c++/6.3.1/bits/stl_vector.h ****        */
 556:/home/zkmike/.local/share/renesas/e2_studio/toolchains/gcc_arm/gcc-arm-none-eabi-6-2017-q2-update/arm-none-eabi/include/c++/6.3.1/bits/stl_vector.h ****       const_iterator
 557:/home/zkmike/.local/share/renesas/e2_studio/toolchains/gcc_arm/gcc-arm-none-eabi-6-2017-q2-update/arm-none-eabi/include/c++/6.3.1/bits/stl_vector.h ****       begin() const _GLIBCXX_NOEXCEPT
 558:/home/zkmike/.local/share/renesas/e2_studio/toolchains/gcc_arm/gcc-arm-none-eabi-6-2017-q2-update/arm-none-eabi/include/c++/6.3.1/bits/stl_vector.h ****       { return const_iterator(this->_M_impl._M_start); }
 559:/home/zkmike/.local/share/renesas/e2_studio/toolchains/gcc_arm/gcc-arm-none-eabi-6-2017-q2-update/arm-none-eabi/include/c++/6.3.1/bits/stl_vector.h **** 
 560:/home/zkmike/.local/share/renesas/e2_studio/toolchains/gcc_arm/gcc-arm-none-eabi-6-2017-q2-update/arm-none-eabi/include/c++/6.3.1/bits/stl_vector.h ****       /**
 561:/home/zkmike/.local/share/renesas/e2_studio/toolchains/gcc_arm/gcc-arm-none-eabi-6-2017-q2-update/arm-none-eabi/include/c++/6.3.1/bits/stl_vector.h ****        *  Returns a read/write iterator that points one past the last
 562:/home/zkmike/.local/share/renesas/e2_studio/toolchains/gcc_arm/gcc-arm-none-eabi-6-2017-q2-update/arm-none-eabi/include/c++/6.3.1/bits/stl_vector.h ****        *  element in the %vector.  Iteration is done in ordinary
 563:/home/zkmike/.local/share/renesas/e2_studio/toolchains/gcc_arm/gcc-arm-none-eabi-6-2017-q2-update/arm-none-eabi/include/c++/6.3.1/bits/stl_vector.h ****        *  element order.
 564:/home/zkmike/.local/share/renesas/e2_studio/toolchains/gcc_arm/gcc-arm-none-eabi-6-2017-q2-update/arm-none-eabi/include/c++/6.3.1/bits/stl_vector.h ****        */
 565:/home/zkmike/.local/share/renesas/e2_studio/toolchains/gcc_arm/gcc-arm-none-eabi-6-2017-q2-update/arm-none-eabi/include/c++/6.3.1/bits/stl_vector.h ****       iterator
 566:/home/zkmike/.local/share/renesas/e2_studio/toolchains/gcc_arm/gcc-arm-none-eabi-6-2017-q2-update/arm-none-eabi/include/c++/6.3.1/bits/stl_vector.h ****       end() _GLIBCXX_NOEXCEPT
 567:/home/zkmike/.local/share/renesas/e2_studio/toolchains/gcc_arm/gcc-arm-none-eabi-6-2017-q2-update/arm-none-eabi/include/c++/6.3.1/bits/stl_vector.h ****       { return iterator(this->_M_impl._M_finish); }
 568:/home/zkmike/.local/share/renesas/e2_studio/toolchains/gcc_arm/gcc-arm-none-eabi-6-2017-q2-update/arm-none-eabi/include/c++/6.3.1/bits/stl_vector.h **** 
 569:/home/zkmike/.local/share/renesas/e2_studio/toolchains/gcc_arm/gcc-arm-none-eabi-6-2017-q2-update/arm-none-eabi/include/c++/6.3.1/bits/stl_vector.h ****       /**
 570:/home/zkmike/.local/share/renesas/e2_studio/toolchains/gcc_arm/gcc-arm-none-eabi-6-2017-q2-update/arm-none-eabi/include/c++/6.3.1/bits/stl_vector.h ****        *  Returns a read-only (constant) iterator that points one past
 571:/home/zkmike/.local/share/renesas/e2_studio/toolchains/gcc_arm/gcc-arm-none-eabi-6-2017-q2-update/arm-none-eabi/include/c++/6.3.1/bits/stl_vector.h ****        *  the last element in the %vector.  Iteration is done in
 572:/home/zkmike/.local/share/renesas/e2_studio/toolchains/gcc_arm/gcc-arm-none-eabi-6-2017-q2-update/arm-none-eabi/include/c++/6.3.1/bits/stl_vector.h ****        *  ordinary element order.
 573:/home/zkmike/.local/share/renesas/e2_studio/toolchains/gcc_arm/gcc-arm-none-eabi-6-2017-q2-update/arm-none-eabi/include/c++/6.3.1/bits/stl_vector.h ****        */
 574:/home/zkmike/.local/share/renesas/e2_studio/toolchains/gcc_arm/gcc-arm-none-eabi-6-2017-q2-update/arm-none-eabi/include/c++/6.3.1/bits/stl_vector.h ****       const_iterator
 575:/home/zkmike/.local/share/renesas/e2_studio/toolchains/gcc_arm/gcc-arm-none-eabi-6-2017-q2-update/arm-none-eabi/include/c++/6.3.1/bits/stl_vector.h ****       end() const _GLIBCXX_NOEXCEPT
 576:/home/zkmike/.local/share/renesas/e2_studio/toolchains/gcc_arm/gcc-arm-none-eabi-6-2017-q2-update/arm-none-eabi/include/c++/6.3.1/bits/stl_vector.h ****       { return const_iterator(this->_M_impl._M_finish); }
 577:/home/zkmike/.local/share/renesas/e2_studio/toolchains/gcc_arm/gcc-arm-none-eabi-6-2017-q2-update/arm-none-eabi/include/c++/6.3.1/bits/stl_vector.h **** 
 578:/home/zkmike/.local/share/renesas/e2_studio/toolchains/gcc_arm/gcc-arm-none-eabi-6-2017-q2-update/arm-none-eabi/include/c++/6.3.1/bits/stl_vector.h ****       /**
 579:/home/zkmike/.local/share/renesas/e2_studio/toolchains/gcc_arm/gcc-arm-none-eabi-6-2017-q2-update/arm-none-eabi/include/c++/6.3.1/bits/stl_vector.h ****        *  Returns a read/write reverse iterator that points to the
 580:/home/zkmike/.local/share/renesas/e2_studio/toolchains/gcc_arm/gcc-arm-none-eabi-6-2017-q2-update/arm-none-eabi/include/c++/6.3.1/bits/stl_vector.h ****        *  last element in the %vector.  Iteration is done in reverse
 581:/home/zkmike/.local/share/renesas/e2_studio/toolchains/gcc_arm/gcc-arm-none-eabi-6-2017-q2-update/arm-none-eabi/include/c++/6.3.1/bits/stl_vector.h ****        *  element order.
 582:/home/zkmike/.local/share/renesas/e2_studio/toolchains/gcc_arm/gcc-arm-none-eabi-6-2017-q2-update/arm-none-eabi/include/c++/6.3.1/bits/stl_vector.h ****        */
 583:/home/zkmike/.local/share/renesas/e2_studio/toolchains/gcc_arm/gcc-arm-none-eabi-6-2017-q2-update/arm-none-eabi/include/c++/6.3.1/bits/stl_vector.h ****       reverse_iterator
 584:/home/zkmike/.local/share/renesas/e2_studio/toolchains/gcc_arm/gcc-arm-none-eabi-6-2017-q2-update/arm-none-eabi/include/c++/6.3.1/bits/stl_vector.h ****       rbegin() _GLIBCXX_NOEXCEPT
 585:/home/zkmike/.local/share/renesas/e2_studio/toolchains/gcc_arm/gcc-arm-none-eabi-6-2017-q2-update/arm-none-eabi/include/c++/6.3.1/bits/stl_vector.h ****       { return reverse_iterator(end()); }
 586:/home/zkmike/.local/share/renesas/e2_studio/toolchains/gcc_arm/gcc-arm-none-eabi-6-2017-q2-update/arm-none-eabi/include/c++/6.3.1/bits/stl_vector.h **** 
 587:/home/zkmike/.local/share/renesas/e2_studio/toolchains/gcc_arm/gcc-arm-none-eabi-6-2017-q2-update/arm-none-eabi/include/c++/6.3.1/bits/stl_vector.h ****       /**
 588:/home/zkmike/.local/share/renesas/e2_studio/toolchains/gcc_arm/gcc-arm-none-eabi-6-2017-q2-update/arm-none-eabi/include/c++/6.3.1/bits/stl_vector.h ****        *  Returns a read-only (constant) reverse iterator that points
 589:/home/zkmike/.local/share/renesas/e2_studio/toolchains/gcc_arm/gcc-arm-none-eabi-6-2017-q2-update/arm-none-eabi/include/c++/6.3.1/bits/stl_vector.h ****        *  to the last element in the %vector.  Iteration is done in
 590:/home/zkmike/.local/share/renesas/e2_studio/toolchains/gcc_arm/gcc-arm-none-eabi-6-2017-q2-update/arm-none-eabi/include/c++/6.3.1/bits/stl_vector.h ****        *  reverse element order.
 591:/home/zkmike/.local/share/renesas/e2_studio/toolchains/gcc_arm/gcc-arm-none-eabi-6-2017-q2-update/arm-none-eabi/include/c++/6.3.1/bits/stl_vector.h ****        */
 592:/home/zkmike/.local/share/renesas/e2_studio/toolchains/gcc_arm/gcc-arm-none-eabi-6-2017-q2-update/arm-none-eabi/include/c++/6.3.1/bits/stl_vector.h ****       const_reverse_iterator
 593:/home/zkmike/.local/share/renesas/e2_studio/toolchains/gcc_arm/gcc-arm-none-eabi-6-2017-q2-update/arm-none-eabi/include/c++/6.3.1/bits/stl_vector.h ****       rbegin() const _GLIBCXX_NOEXCEPT
 594:/home/zkmike/.local/share/renesas/e2_studio/toolchains/gcc_arm/gcc-arm-none-eabi-6-2017-q2-update/arm-none-eabi/include/c++/6.3.1/bits/stl_vector.h ****       { return const_reverse_iterator(end()); }
 595:/home/zkmike/.local/share/renesas/e2_studio/toolchains/gcc_arm/gcc-arm-none-eabi-6-2017-q2-update/arm-none-eabi/include/c++/6.3.1/bits/stl_vector.h **** 
 596:/home/zkmike/.local/share/renesas/e2_studio/toolchains/gcc_arm/gcc-arm-none-eabi-6-2017-q2-update/arm-none-eabi/include/c++/6.3.1/bits/stl_vector.h ****       /**
 597:/home/zkmike/.local/share/renesas/e2_studio/toolchains/gcc_arm/gcc-arm-none-eabi-6-2017-q2-update/arm-none-eabi/include/c++/6.3.1/bits/stl_vector.h ****        *  Returns a read/write reverse iterator that points to one
 598:/home/zkmike/.local/share/renesas/e2_studio/toolchains/gcc_arm/gcc-arm-none-eabi-6-2017-q2-update/arm-none-eabi/include/c++/6.3.1/bits/stl_vector.h ****        *  before the first element in the %vector.  Iteration is done
 599:/home/zkmike/.local/share/renesas/e2_studio/toolchains/gcc_arm/gcc-arm-none-eabi-6-2017-q2-update/arm-none-eabi/include/c++/6.3.1/bits/stl_vector.h ****        *  in reverse element order.
 600:/home/zkmike/.local/share/renesas/e2_studio/toolchains/gcc_arm/gcc-arm-none-eabi-6-2017-q2-update/arm-none-eabi/include/c++/6.3.1/bits/stl_vector.h ****        */
 601:/home/zkmike/.local/share/renesas/e2_studio/toolchains/gcc_arm/gcc-arm-none-eabi-6-2017-q2-update/arm-none-eabi/include/c++/6.3.1/bits/stl_vector.h ****       reverse_iterator
 602:/home/zkmike/.local/share/renesas/e2_studio/toolchains/gcc_arm/gcc-arm-none-eabi-6-2017-q2-update/arm-none-eabi/include/c++/6.3.1/bits/stl_vector.h ****       rend() _GLIBCXX_NOEXCEPT
 603:/home/zkmike/.local/share/renesas/e2_studio/toolchains/gcc_arm/gcc-arm-none-eabi-6-2017-q2-update/arm-none-eabi/include/c++/6.3.1/bits/stl_vector.h ****       { return reverse_iterator(begin()); }
 604:/home/zkmike/.local/share/renesas/e2_studio/toolchains/gcc_arm/gcc-arm-none-eabi-6-2017-q2-update/arm-none-eabi/include/c++/6.3.1/bits/stl_vector.h **** 
 605:/home/zkmike/.local/share/renesas/e2_studio/toolchains/gcc_arm/gcc-arm-none-eabi-6-2017-q2-update/arm-none-eabi/include/c++/6.3.1/bits/stl_vector.h ****       /**
 606:/home/zkmike/.local/share/renesas/e2_studio/toolchains/gcc_arm/gcc-arm-none-eabi-6-2017-q2-update/arm-none-eabi/include/c++/6.3.1/bits/stl_vector.h ****        *  Returns a read-only (constant) reverse iterator that points
 607:/home/zkmike/.local/share/renesas/e2_studio/toolchains/gcc_arm/gcc-arm-none-eabi-6-2017-q2-update/arm-none-eabi/include/c++/6.3.1/bits/stl_vector.h ****        *  to one before the first element in the %vector.  Iteration
 608:/home/zkmike/.local/share/renesas/e2_studio/toolchains/gcc_arm/gcc-arm-none-eabi-6-2017-q2-update/arm-none-eabi/include/c++/6.3.1/bits/stl_vector.h ****        *  is done in reverse element order.
 609:/home/zkmike/.local/share/renesas/e2_studio/toolchains/gcc_arm/gcc-arm-none-eabi-6-2017-q2-update/arm-none-eabi/include/c++/6.3.1/bits/stl_vector.h ****        */
 610:/home/zkmike/.local/share/renesas/e2_studio/toolchains/gcc_arm/gcc-arm-none-eabi-6-2017-q2-update/arm-none-eabi/include/c++/6.3.1/bits/stl_vector.h ****       const_reverse_iterator
 611:/home/zkmike/.local/share/renesas/e2_studio/toolchains/gcc_arm/gcc-arm-none-eabi-6-2017-q2-update/arm-none-eabi/include/c++/6.3.1/bits/stl_vector.h ****       rend() const _GLIBCXX_NOEXCEPT
 612:/home/zkmike/.local/share/renesas/e2_studio/toolchains/gcc_arm/gcc-arm-none-eabi-6-2017-q2-update/arm-none-eabi/include/c++/6.3.1/bits/stl_vector.h ****       { return const_reverse_iterator(begin()); }
 613:/home/zkmike/.local/share/renesas/e2_studio/toolchains/gcc_arm/gcc-arm-none-eabi-6-2017-q2-update/arm-none-eabi/include/c++/6.3.1/bits/stl_vector.h **** 
 614:/home/zkmike/.local/share/renesas/e2_studio/toolchains/gcc_arm/gcc-arm-none-eabi-6-2017-q2-update/arm-none-eabi/include/c++/6.3.1/bits/stl_vector.h **** #if __cplusplus >= 201103L
 615:/home/zkmike/.local/share/renesas/e2_studio/toolchains/gcc_arm/gcc-arm-none-eabi-6-2017-q2-update/arm-none-eabi/include/c++/6.3.1/bits/stl_vector.h ****       /**
 616:/home/zkmike/.local/share/renesas/e2_studio/toolchains/gcc_arm/gcc-arm-none-eabi-6-2017-q2-update/arm-none-eabi/include/c++/6.3.1/bits/stl_vector.h ****        *  Returns a read-only (constant) iterator that points to the
 617:/home/zkmike/.local/share/renesas/e2_studio/toolchains/gcc_arm/gcc-arm-none-eabi-6-2017-q2-update/arm-none-eabi/include/c++/6.3.1/bits/stl_vector.h ****        *  first element in the %vector.  Iteration is done in ordinary
 618:/home/zkmike/.local/share/renesas/e2_studio/toolchains/gcc_arm/gcc-arm-none-eabi-6-2017-q2-update/arm-none-eabi/include/c++/6.3.1/bits/stl_vector.h ****        *  element order.
 619:/home/zkmike/.local/share/renesas/e2_studio/toolchains/gcc_arm/gcc-arm-none-eabi-6-2017-q2-update/arm-none-eabi/include/c++/6.3.1/bits/stl_vector.h ****        */
 620:/home/zkmike/.local/share/renesas/e2_studio/toolchains/gcc_arm/gcc-arm-none-eabi-6-2017-q2-update/arm-none-eabi/include/c++/6.3.1/bits/stl_vector.h ****       const_iterator
 621:/home/zkmike/.local/share/renesas/e2_studio/toolchains/gcc_arm/gcc-arm-none-eabi-6-2017-q2-update/arm-none-eabi/include/c++/6.3.1/bits/stl_vector.h ****       cbegin() const noexcept
 622:/home/zkmike/.local/share/renesas/e2_studio/toolchains/gcc_arm/gcc-arm-none-eabi-6-2017-q2-update/arm-none-eabi/include/c++/6.3.1/bits/stl_vector.h ****       { return const_iterator(this->_M_impl._M_start); }
 623:/home/zkmike/.local/share/renesas/e2_studio/toolchains/gcc_arm/gcc-arm-none-eabi-6-2017-q2-update/arm-none-eabi/include/c++/6.3.1/bits/stl_vector.h **** 
 624:/home/zkmike/.local/share/renesas/e2_studio/toolchains/gcc_arm/gcc-arm-none-eabi-6-2017-q2-update/arm-none-eabi/include/c++/6.3.1/bits/stl_vector.h ****       /**
 625:/home/zkmike/.local/share/renesas/e2_studio/toolchains/gcc_arm/gcc-arm-none-eabi-6-2017-q2-update/arm-none-eabi/include/c++/6.3.1/bits/stl_vector.h ****        *  Returns a read-only (constant) iterator that points one past
 626:/home/zkmike/.local/share/renesas/e2_studio/toolchains/gcc_arm/gcc-arm-none-eabi-6-2017-q2-update/arm-none-eabi/include/c++/6.3.1/bits/stl_vector.h ****        *  the last element in the %vector.  Iteration is done in
 627:/home/zkmike/.local/share/renesas/e2_studio/toolchains/gcc_arm/gcc-arm-none-eabi-6-2017-q2-update/arm-none-eabi/include/c++/6.3.1/bits/stl_vector.h ****        *  ordinary element order.
 628:/home/zkmike/.local/share/renesas/e2_studio/toolchains/gcc_arm/gcc-arm-none-eabi-6-2017-q2-update/arm-none-eabi/include/c++/6.3.1/bits/stl_vector.h ****        */
 629:/home/zkmike/.local/share/renesas/e2_studio/toolchains/gcc_arm/gcc-arm-none-eabi-6-2017-q2-update/arm-none-eabi/include/c++/6.3.1/bits/stl_vector.h ****       const_iterator
 630:/home/zkmike/.local/share/renesas/e2_studio/toolchains/gcc_arm/gcc-arm-none-eabi-6-2017-q2-update/arm-none-eabi/include/c++/6.3.1/bits/stl_vector.h ****       cend() const noexcept
 631:/home/zkmike/.local/share/renesas/e2_studio/toolchains/gcc_arm/gcc-arm-none-eabi-6-2017-q2-update/arm-none-eabi/include/c++/6.3.1/bits/stl_vector.h ****       { return const_iterator(this->_M_impl._M_finish); }
 632:/home/zkmike/.local/share/renesas/e2_studio/toolchains/gcc_arm/gcc-arm-none-eabi-6-2017-q2-update/arm-none-eabi/include/c++/6.3.1/bits/stl_vector.h **** 
 633:/home/zkmike/.local/share/renesas/e2_studio/toolchains/gcc_arm/gcc-arm-none-eabi-6-2017-q2-update/arm-none-eabi/include/c++/6.3.1/bits/stl_vector.h ****       /**
 634:/home/zkmike/.local/share/renesas/e2_studio/toolchains/gcc_arm/gcc-arm-none-eabi-6-2017-q2-update/arm-none-eabi/include/c++/6.3.1/bits/stl_vector.h ****        *  Returns a read-only (constant) reverse iterator that points
 635:/home/zkmike/.local/share/renesas/e2_studio/toolchains/gcc_arm/gcc-arm-none-eabi-6-2017-q2-update/arm-none-eabi/include/c++/6.3.1/bits/stl_vector.h ****        *  to the last element in the %vector.  Iteration is done in
 636:/home/zkmike/.local/share/renesas/e2_studio/toolchains/gcc_arm/gcc-arm-none-eabi-6-2017-q2-update/arm-none-eabi/include/c++/6.3.1/bits/stl_vector.h ****        *  reverse element order.
 637:/home/zkmike/.local/share/renesas/e2_studio/toolchains/gcc_arm/gcc-arm-none-eabi-6-2017-q2-update/arm-none-eabi/include/c++/6.3.1/bits/stl_vector.h ****        */
 638:/home/zkmike/.local/share/renesas/e2_studio/toolchains/gcc_arm/gcc-arm-none-eabi-6-2017-q2-update/arm-none-eabi/include/c++/6.3.1/bits/stl_vector.h ****       const_reverse_iterator
 639:/home/zkmike/.local/share/renesas/e2_studio/toolchains/gcc_arm/gcc-arm-none-eabi-6-2017-q2-update/arm-none-eabi/include/c++/6.3.1/bits/stl_vector.h ****       crbegin() const noexcept
 640:/home/zkmike/.local/share/renesas/e2_studio/toolchains/gcc_arm/gcc-arm-none-eabi-6-2017-q2-update/arm-none-eabi/include/c++/6.3.1/bits/stl_vector.h ****       { return const_reverse_iterator(end()); }
 641:/home/zkmike/.local/share/renesas/e2_studio/toolchains/gcc_arm/gcc-arm-none-eabi-6-2017-q2-update/arm-none-eabi/include/c++/6.3.1/bits/stl_vector.h **** 
 642:/home/zkmike/.local/share/renesas/e2_studio/toolchains/gcc_arm/gcc-arm-none-eabi-6-2017-q2-update/arm-none-eabi/include/c++/6.3.1/bits/stl_vector.h ****       /**
 643:/home/zkmike/.local/share/renesas/e2_studio/toolchains/gcc_arm/gcc-arm-none-eabi-6-2017-q2-update/arm-none-eabi/include/c++/6.3.1/bits/stl_vector.h ****        *  Returns a read-only (constant) reverse iterator that points
 644:/home/zkmike/.local/share/renesas/e2_studio/toolchains/gcc_arm/gcc-arm-none-eabi-6-2017-q2-update/arm-none-eabi/include/c++/6.3.1/bits/stl_vector.h ****        *  to one before the first element in the %vector.  Iteration
 645:/home/zkmike/.local/share/renesas/e2_studio/toolchains/gcc_arm/gcc-arm-none-eabi-6-2017-q2-update/arm-none-eabi/include/c++/6.3.1/bits/stl_vector.h ****        *  is done in reverse element order.
 646:/home/zkmike/.local/share/renesas/e2_studio/toolchains/gcc_arm/gcc-arm-none-eabi-6-2017-q2-update/arm-none-eabi/include/c++/6.3.1/bits/stl_vector.h ****        */
 647:/home/zkmike/.local/share/renesas/e2_studio/toolchains/gcc_arm/gcc-arm-none-eabi-6-2017-q2-update/arm-none-eabi/include/c++/6.3.1/bits/stl_vector.h ****       const_reverse_iterator
 648:/home/zkmike/.local/share/renesas/e2_studio/toolchains/gcc_arm/gcc-arm-none-eabi-6-2017-q2-update/arm-none-eabi/include/c++/6.3.1/bits/stl_vector.h ****       crend() const noexcept
 649:/home/zkmike/.local/share/renesas/e2_studio/toolchains/gcc_arm/gcc-arm-none-eabi-6-2017-q2-update/arm-none-eabi/include/c++/6.3.1/bits/stl_vector.h ****       { return const_reverse_iterator(begin()); }
 650:/home/zkmike/.local/share/renesas/e2_studio/toolchains/gcc_arm/gcc-arm-none-eabi-6-2017-q2-update/arm-none-eabi/include/c++/6.3.1/bits/stl_vector.h **** #endif
 651:/home/zkmike/.local/share/renesas/e2_studio/toolchains/gcc_arm/gcc-arm-none-eabi-6-2017-q2-update/arm-none-eabi/include/c++/6.3.1/bits/stl_vector.h **** 
 652:/home/zkmike/.local/share/renesas/e2_studio/toolchains/gcc_arm/gcc-arm-none-eabi-6-2017-q2-update/arm-none-eabi/include/c++/6.3.1/bits/stl_vector.h ****       // [23.2.4.2] capacity
 653:/home/zkmike/.local/share/renesas/e2_studio/toolchains/gcc_arm/gcc-arm-none-eabi-6-2017-q2-update/arm-none-eabi/include/c++/6.3.1/bits/stl_vector.h ****       /**  Returns the number of elements in the %vector.  */
 654:/home/zkmike/.local/share/renesas/e2_studio/toolchains/gcc_arm/gcc-arm-none-eabi-6-2017-q2-update/arm-none-eabi/include/c++/6.3.1/bits/stl_vector.h ****       size_type
 655:/home/zkmike/.local/share/renesas/e2_studio/toolchains/gcc_arm/gcc-arm-none-eabi-6-2017-q2-update/arm-none-eabi/include/c++/6.3.1/bits/stl_vector.h ****       size() const _GLIBCXX_NOEXCEPT
 656:/home/zkmike/.local/share/renesas/e2_studio/toolchains/gcc_arm/gcc-arm-none-eabi-6-2017-q2-update/arm-none-eabi/include/c++/6.3.1/bits/stl_vector.h ****       { return size_type(this->_M_impl._M_finish - this->_M_impl._M_start); }
 657:/home/zkmike/.local/share/renesas/e2_studio/toolchains/gcc_arm/gcc-arm-none-eabi-6-2017-q2-update/arm-none-eabi/include/c++/6.3.1/bits/stl_vector.h **** 
 658:/home/zkmike/.local/share/renesas/e2_studio/toolchains/gcc_arm/gcc-arm-none-eabi-6-2017-q2-update/arm-none-eabi/include/c++/6.3.1/bits/stl_vector.h ****       /**  Returns the size() of the largest possible %vector.  */
 659:/home/zkmike/.local/share/renesas/e2_studio/toolchains/gcc_arm/gcc-arm-none-eabi-6-2017-q2-update/arm-none-eabi/include/c++/6.3.1/bits/stl_vector.h ****       size_type
 660:/home/zkmike/.local/share/renesas/e2_studio/toolchains/gcc_arm/gcc-arm-none-eabi-6-2017-q2-update/arm-none-eabi/include/c++/6.3.1/bits/stl_vector.h ****       max_size() const _GLIBCXX_NOEXCEPT
 661:/home/zkmike/.local/share/renesas/e2_studio/toolchains/gcc_arm/gcc-arm-none-eabi-6-2017-q2-update/arm-none-eabi/include/c++/6.3.1/bits/stl_vector.h ****       { return _Alloc_traits::max_size(_M_get_Tp_allocator()); }
 662:/home/zkmike/.local/share/renesas/e2_studio/toolchains/gcc_arm/gcc-arm-none-eabi-6-2017-q2-update/arm-none-eabi/include/c++/6.3.1/bits/stl_vector.h **** 
 663:/home/zkmike/.local/share/renesas/e2_studio/toolchains/gcc_arm/gcc-arm-none-eabi-6-2017-q2-update/arm-none-eabi/include/c++/6.3.1/bits/stl_vector.h **** #if __cplusplus >= 201103L
 664:/home/zkmike/.local/share/renesas/e2_studio/toolchains/gcc_arm/gcc-arm-none-eabi-6-2017-q2-update/arm-none-eabi/include/c++/6.3.1/bits/stl_vector.h ****       /**
 665:/home/zkmike/.local/share/renesas/e2_studio/toolchains/gcc_arm/gcc-arm-none-eabi-6-2017-q2-update/arm-none-eabi/include/c++/6.3.1/bits/stl_vector.h ****        *  @brief  Resizes the %vector to the specified number of elements.
 666:/home/zkmike/.local/share/renesas/e2_studio/toolchains/gcc_arm/gcc-arm-none-eabi-6-2017-q2-update/arm-none-eabi/include/c++/6.3.1/bits/stl_vector.h ****        *  @param  __new_size  Number of elements the %vector should contain.
 667:/home/zkmike/.local/share/renesas/e2_studio/toolchains/gcc_arm/gcc-arm-none-eabi-6-2017-q2-update/arm-none-eabi/include/c++/6.3.1/bits/stl_vector.h ****        *
 668:/home/zkmike/.local/share/renesas/e2_studio/toolchains/gcc_arm/gcc-arm-none-eabi-6-2017-q2-update/arm-none-eabi/include/c++/6.3.1/bits/stl_vector.h ****        *  This function will %resize the %vector to the specified
 669:/home/zkmike/.local/share/renesas/e2_studio/toolchains/gcc_arm/gcc-arm-none-eabi-6-2017-q2-update/arm-none-eabi/include/c++/6.3.1/bits/stl_vector.h ****        *  number of elements.  If the number is smaller than the
 670:/home/zkmike/.local/share/renesas/e2_studio/toolchains/gcc_arm/gcc-arm-none-eabi-6-2017-q2-update/arm-none-eabi/include/c++/6.3.1/bits/stl_vector.h ****        *  %vector's current size the %vector is truncated, otherwise
 671:/home/zkmike/.local/share/renesas/e2_studio/toolchains/gcc_arm/gcc-arm-none-eabi-6-2017-q2-update/arm-none-eabi/include/c++/6.3.1/bits/stl_vector.h ****        *  default constructed elements are appended.
 672:/home/zkmike/.local/share/renesas/e2_studio/toolchains/gcc_arm/gcc-arm-none-eabi-6-2017-q2-update/arm-none-eabi/include/c++/6.3.1/bits/stl_vector.h ****        */
 673:/home/zkmike/.local/share/renesas/e2_studio/toolchains/gcc_arm/gcc-arm-none-eabi-6-2017-q2-update/arm-none-eabi/include/c++/6.3.1/bits/stl_vector.h ****       void
 674:/home/zkmike/.local/share/renesas/e2_studio/toolchains/gcc_arm/gcc-arm-none-eabi-6-2017-q2-update/arm-none-eabi/include/c++/6.3.1/bits/stl_vector.h ****       resize(size_type __new_size)
 675:/home/zkmike/.local/share/renesas/e2_studio/toolchains/gcc_arm/gcc-arm-none-eabi-6-2017-q2-update/arm-none-eabi/include/c++/6.3.1/bits/stl_vector.h ****       {
 676:/home/zkmike/.local/share/renesas/e2_studio/toolchains/gcc_arm/gcc-arm-none-eabi-6-2017-q2-update/arm-none-eabi/include/c++/6.3.1/bits/stl_vector.h **** 	if (__new_size > size())
 677:/home/zkmike/.local/share/renesas/e2_studio/toolchains/gcc_arm/gcc-arm-none-eabi-6-2017-q2-update/arm-none-eabi/include/c++/6.3.1/bits/stl_vector.h **** 	  _M_default_append(__new_size - size());
 678:/home/zkmike/.local/share/renesas/e2_studio/toolchains/gcc_arm/gcc-arm-none-eabi-6-2017-q2-update/arm-none-eabi/include/c++/6.3.1/bits/stl_vector.h **** 	else if (__new_size < size())
 679:/home/zkmike/.local/share/renesas/e2_studio/toolchains/gcc_arm/gcc-arm-none-eabi-6-2017-q2-update/arm-none-eabi/include/c++/6.3.1/bits/stl_vector.h **** 	  _M_erase_at_end(this->_M_impl._M_start + __new_size);
 680:/home/zkmike/.local/share/renesas/e2_studio/toolchains/gcc_arm/gcc-arm-none-eabi-6-2017-q2-update/arm-none-eabi/include/c++/6.3.1/bits/stl_vector.h ****       }
 681:/home/zkmike/.local/share/renesas/e2_studio/toolchains/gcc_arm/gcc-arm-none-eabi-6-2017-q2-update/arm-none-eabi/include/c++/6.3.1/bits/stl_vector.h **** 
 682:/home/zkmike/.local/share/renesas/e2_studio/toolchains/gcc_arm/gcc-arm-none-eabi-6-2017-q2-update/arm-none-eabi/include/c++/6.3.1/bits/stl_vector.h ****       /**
 683:/home/zkmike/.local/share/renesas/e2_studio/toolchains/gcc_arm/gcc-arm-none-eabi-6-2017-q2-update/arm-none-eabi/include/c++/6.3.1/bits/stl_vector.h ****        *  @brief  Resizes the %vector to the specified number of elements.
 684:/home/zkmike/.local/share/renesas/e2_studio/toolchains/gcc_arm/gcc-arm-none-eabi-6-2017-q2-update/arm-none-eabi/include/c++/6.3.1/bits/stl_vector.h ****        *  @param  __new_size  Number of elements the %vector should contain.
 685:/home/zkmike/.local/share/renesas/e2_studio/toolchains/gcc_arm/gcc-arm-none-eabi-6-2017-q2-update/arm-none-eabi/include/c++/6.3.1/bits/stl_vector.h ****        *  @param  __x  Data with which new elements should be populated.
 686:/home/zkmike/.local/share/renesas/e2_studio/toolchains/gcc_arm/gcc-arm-none-eabi-6-2017-q2-update/arm-none-eabi/include/c++/6.3.1/bits/stl_vector.h ****        *
 687:/home/zkmike/.local/share/renesas/e2_studio/toolchains/gcc_arm/gcc-arm-none-eabi-6-2017-q2-update/arm-none-eabi/include/c++/6.3.1/bits/stl_vector.h ****        *  This function will %resize the %vector to the specified
 688:/home/zkmike/.local/share/renesas/e2_studio/toolchains/gcc_arm/gcc-arm-none-eabi-6-2017-q2-update/arm-none-eabi/include/c++/6.3.1/bits/stl_vector.h ****        *  number of elements.  If the number is smaller than the
 689:/home/zkmike/.local/share/renesas/e2_studio/toolchains/gcc_arm/gcc-arm-none-eabi-6-2017-q2-update/arm-none-eabi/include/c++/6.3.1/bits/stl_vector.h ****        *  %vector's current size the %vector is truncated, otherwise
 690:/home/zkmike/.local/share/renesas/e2_studio/toolchains/gcc_arm/gcc-arm-none-eabi-6-2017-q2-update/arm-none-eabi/include/c++/6.3.1/bits/stl_vector.h ****        *  the %vector is extended and new elements are populated with
 691:/home/zkmike/.local/share/renesas/e2_studio/toolchains/gcc_arm/gcc-arm-none-eabi-6-2017-q2-update/arm-none-eabi/include/c++/6.3.1/bits/stl_vector.h ****        *  given data.
 692:/home/zkmike/.local/share/renesas/e2_studio/toolchains/gcc_arm/gcc-arm-none-eabi-6-2017-q2-update/arm-none-eabi/include/c++/6.3.1/bits/stl_vector.h ****        */
 693:/home/zkmike/.local/share/renesas/e2_studio/toolchains/gcc_arm/gcc-arm-none-eabi-6-2017-q2-update/arm-none-eabi/include/c++/6.3.1/bits/stl_vector.h ****       void
 694:/home/zkmike/.local/share/renesas/e2_studio/toolchains/gcc_arm/gcc-arm-none-eabi-6-2017-q2-update/arm-none-eabi/include/c++/6.3.1/bits/stl_vector.h ****       resize(size_type __new_size, const value_type& __x)
 695:/home/zkmike/.local/share/renesas/e2_studio/toolchains/gcc_arm/gcc-arm-none-eabi-6-2017-q2-update/arm-none-eabi/include/c++/6.3.1/bits/stl_vector.h ****       {
 696:/home/zkmike/.local/share/renesas/e2_studio/toolchains/gcc_arm/gcc-arm-none-eabi-6-2017-q2-update/arm-none-eabi/include/c++/6.3.1/bits/stl_vector.h **** 	if (__new_size > size())
 697:/home/zkmike/.local/share/renesas/e2_studio/toolchains/gcc_arm/gcc-arm-none-eabi-6-2017-q2-update/arm-none-eabi/include/c++/6.3.1/bits/stl_vector.h **** 	  insert(end(), __new_size - size(), __x);
 698:/home/zkmike/.local/share/renesas/e2_studio/toolchains/gcc_arm/gcc-arm-none-eabi-6-2017-q2-update/arm-none-eabi/include/c++/6.3.1/bits/stl_vector.h **** 	else if (__new_size < size())
 699:/home/zkmike/.local/share/renesas/e2_studio/toolchains/gcc_arm/gcc-arm-none-eabi-6-2017-q2-update/arm-none-eabi/include/c++/6.3.1/bits/stl_vector.h **** 	  _M_erase_at_end(this->_M_impl._M_start + __new_size);
 700:/home/zkmike/.local/share/renesas/e2_studio/toolchains/gcc_arm/gcc-arm-none-eabi-6-2017-q2-update/arm-none-eabi/include/c++/6.3.1/bits/stl_vector.h ****       }
 701:/home/zkmike/.local/share/renesas/e2_studio/toolchains/gcc_arm/gcc-arm-none-eabi-6-2017-q2-update/arm-none-eabi/include/c++/6.3.1/bits/stl_vector.h **** #else
 702:/home/zkmike/.local/share/renesas/e2_studio/toolchains/gcc_arm/gcc-arm-none-eabi-6-2017-q2-update/arm-none-eabi/include/c++/6.3.1/bits/stl_vector.h ****       /**
 703:/home/zkmike/.local/share/renesas/e2_studio/toolchains/gcc_arm/gcc-arm-none-eabi-6-2017-q2-update/arm-none-eabi/include/c++/6.3.1/bits/stl_vector.h ****        *  @brief  Resizes the %vector to the specified number of elements.
 704:/home/zkmike/.local/share/renesas/e2_studio/toolchains/gcc_arm/gcc-arm-none-eabi-6-2017-q2-update/arm-none-eabi/include/c++/6.3.1/bits/stl_vector.h ****        *  @param  __new_size  Number of elements the %vector should contain.
 705:/home/zkmike/.local/share/renesas/e2_studio/toolchains/gcc_arm/gcc-arm-none-eabi-6-2017-q2-update/arm-none-eabi/include/c++/6.3.1/bits/stl_vector.h ****        *  @param  __x  Data with which new elements should be populated.
 706:/home/zkmike/.local/share/renesas/e2_studio/toolchains/gcc_arm/gcc-arm-none-eabi-6-2017-q2-update/arm-none-eabi/include/c++/6.3.1/bits/stl_vector.h ****        *
 707:/home/zkmike/.local/share/renesas/e2_studio/toolchains/gcc_arm/gcc-arm-none-eabi-6-2017-q2-update/arm-none-eabi/include/c++/6.3.1/bits/stl_vector.h ****        *  This function will %resize the %vector to the specified
 708:/home/zkmike/.local/share/renesas/e2_studio/toolchains/gcc_arm/gcc-arm-none-eabi-6-2017-q2-update/arm-none-eabi/include/c++/6.3.1/bits/stl_vector.h ****        *  number of elements.  If the number is smaller than the
 709:/home/zkmike/.local/share/renesas/e2_studio/toolchains/gcc_arm/gcc-arm-none-eabi-6-2017-q2-update/arm-none-eabi/include/c++/6.3.1/bits/stl_vector.h ****        *  %vector's current size the %vector is truncated, otherwise
 710:/home/zkmike/.local/share/renesas/e2_studio/toolchains/gcc_arm/gcc-arm-none-eabi-6-2017-q2-update/arm-none-eabi/include/c++/6.3.1/bits/stl_vector.h ****        *  the %vector is extended and new elements are populated with
 711:/home/zkmike/.local/share/renesas/e2_studio/toolchains/gcc_arm/gcc-arm-none-eabi-6-2017-q2-update/arm-none-eabi/include/c++/6.3.1/bits/stl_vector.h ****        *  given data.
 712:/home/zkmike/.local/share/renesas/e2_studio/toolchains/gcc_arm/gcc-arm-none-eabi-6-2017-q2-update/arm-none-eabi/include/c++/6.3.1/bits/stl_vector.h ****        */
 713:/home/zkmike/.local/share/renesas/e2_studio/toolchains/gcc_arm/gcc-arm-none-eabi-6-2017-q2-update/arm-none-eabi/include/c++/6.3.1/bits/stl_vector.h ****       void
 714:/home/zkmike/.local/share/renesas/e2_studio/toolchains/gcc_arm/gcc-arm-none-eabi-6-2017-q2-update/arm-none-eabi/include/c++/6.3.1/bits/stl_vector.h ****       resize(size_type __new_size, value_type __x = value_type())
 715:/home/zkmike/.local/share/renesas/e2_studio/toolchains/gcc_arm/gcc-arm-none-eabi-6-2017-q2-update/arm-none-eabi/include/c++/6.3.1/bits/stl_vector.h ****       {
 716:/home/zkmike/.local/share/renesas/e2_studio/toolchains/gcc_arm/gcc-arm-none-eabi-6-2017-q2-update/arm-none-eabi/include/c++/6.3.1/bits/stl_vector.h **** 	if (__new_size > size())
 717:/home/zkmike/.local/share/renesas/e2_studio/toolchains/gcc_arm/gcc-arm-none-eabi-6-2017-q2-update/arm-none-eabi/include/c++/6.3.1/bits/stl_vector.h **** 	  insert(end(), __new_size - size(), __x);
 718:/home/zkmike/.local/share/renesas/e2_studio/toolchains/gcc_arm/gcc-arm-none-eabi-6-2017-q2-update/arm-none-eabi/include/c++/6.3.1/bits/stl_vector.h **** 	else if (__new_size < size())
 719:/home/zkmike/.local/share/renesas/e2_studio/toolchains/gcc_arm/gcc-arm-none-eabi-6-2017-q2-update/arm-none-eabi/include/c++/6.3.1/bits/stl_vector.h **** 	  _M_erase_at_end(this->_M_impl._M_start + __new_size);
 720:/home/zkmike/.local/share/renesas/e2_studio/toolchains/gcc_arm/gcc-arm-none-eabi-6-2017-q2-update/arm-none-eabi/include/c++/6.3.1/bits/stl_vector.h ****       }
 721:/home/zkmike/.local/share/renesas/e2_studio/toolchains/gcc_arm/gcc-arm-none-eabi-6-2017-q2-update/arm-none-eabi/include/c++/6.3.1/bits/stl_vector.h **** #endif
 722:/home/zkmike/.local/share/renesas/e2_studio/toolchains/gcc_arm/gcc-arm-none-eabi-6-2017-q2-update/arm-none-eabi/include/c++/6.3.1/bits/stl_vector.h **** 
 723:/home/zkmike/.local/share/renesas/e2_studio/toolchains/gcc_arm/gcc-arm-none-eabi-6-2017-q2-update/arm-none-eabi/include/c++/6.3.1/bits/stl_vector.h **** #if __cplusplus >= 201103L
 724:/home/zkmike/.local/share/renesas/e2_studio/toolchains/gcc_arm/gcc-arm-none-eabi-6-2017-q2-update/arm-none-eabi/include/c++/6.3.1/bits/stl_vector.h ****       /**  A non-binding request to reduce capacity() to size().  */
 725:/home/zkmike/.local/share/renesas/e2_studio/toolchains/gcc_arm/gcc-arm-none-eabi-6-2017-q2-update/arm-none-eabi/include/c++/6.3.1/bits/stl_vector.h ****       void
 726:/home/zkmike/.local/share/renesas/e2_studio/toolchains/gcc_arm/gcc-arm-none-eabi-6-2017-q2-update/arm-none-eabi/include/c++/6.3.1/bits/stl_vector.h ****       shrink_to_fit()
 727:/home/zkmike/.local/share/renesas/e2_studio/toolchains/gcc_arm/gcc-arm-none-eabi-6-2017-q2-update/arm-none-eabi/include/c++/6.3.1/bits/stl_vector.h ****       { _M_shrink_to_fit(); }
 728:/home/zkmike/.local/share/renesas/e2_studio/toolchains/gcc_arm/gcc-arm-none-eabi-6-2017-q2-update/arm-none-eabi/include/c++/6.3.1/bits/stl_vector.h **** #endif
 729:/home/zkmike/.local/share/renesas/e2_studio/toolchains/gcc_arm/gcc-arm-none-eabi-6-2017-q2-update/arm-none-eabi/include/c++/6.3.1/bits/stl_vector.h **** 
 730:/home/zkmike/.local/share/renesas/e2_studio/toolchains/gcc_arm/gcc-arm-none-eabi-6-2017-q2-update/arm-none-eabi/include/c++/6.3.1/bits/stl_vector.h ****       /**
 731:/home/zkmike/.local/share/renesas/e2_studio/toolchains/gcc_arm/gcc-arm-none-eabi-6-2017-q2-update/arm-none-eabi/include/c++/6.3.1/bits/stl_vector.h ****        *  Returns the total number of elements that the %vector can
 732:/home/zkmike/.local/share/renesas/e2_studio/toolchains/gcc_arm/gcc-arm-none-eabi-6-2017-q2-update/arm-none-eabi/include/c++/6.3.1/bits/stl_vector.h ****        *  hold before needing to allocate more memory.
 733:/home/zkmike/.local/share/renesas/e2_studio/toolchains/gcc_arm/gcc-arm-none-eabi-6-2017-q2-update/arm-none-eabi/include/c++/6.3.1/bits/stl_vector.h ****        */
 734:/home/zkmike/.local/share/renesas/e2_studio/toolchains/gcc_arm/gcc-arm-none-eabi-6-2017-q2-update/arm-none-eabi/include/c++/6.3.1/bits/stl_vector.h ****       size_type
 735:/home/zkmike/.local/share/renesas/e2_studio/toolchains/gcc_arm/gcc-arm-none-eabi-6-2017-q2-update/arm-none-eabi/include/c++/6.3.1/bits/stl_vector.h ****       capacity() const _GLIBCXX_NOEXCEPT
 736:/home/zkmike/.local/share/renesas/e2_studio/toolchains/gcc_arm/gcc-arm-none-eabi-6-2017-q2-update/arm-none-eabi/include/c++/6.3.1/bits/stl_vector.h ****       { return size_type(this->_M_impl._M_end_of_storage
 737:/home/zkmike/.local/share/renesas/e2_studio/toolchains/gcc_arm/gcc-arm-none-eabi-6-2017-q2-update/arm-none-eabi/include/c++/6.3.1/bits/stl_vector.h **** 			 - this->_M_impl._M_start); }
 738:/home/zkmike/.local/share/renesas/e2_studio/toolchains/gcc_arm/gcc-arm-none-eabi-6-2017-q2-update/arm-none-eabi/include/c++/6.3.1/bits/stl_vector.h **** 
 739:/home/zkmike/.local/share/renesas/e2_studio/toolchains/gcc_arm/gcc-arm-none-eabi-6-2017-q2-update/arm-none-eabi/include/c++/6.3.1/bits/stl_vector.h ****       /**
 740:/home/zkmike/.local/share/renesas/e2_studio/toolchains/gcc_arm/gcc-arm-none-eabi-6-2017-q2-update/arm-none-eabi/include/c++/6.3.1/bits/stl_vector.h ****        *  Returns true if the %vector is empty.  (Thus begin() would
 741:/home/zkmike/.local/share/renesas/e2_studio/toolchains/gcc_arm/gcc-arm-none-eabi-6-2017-q2-update/arm-none-eabi/include/c++/6.3.1/bits/stl_vector.h ****        *  equal end().)
 742:/home/zkmike/.local/share/renesas/e2_studio/toolchains/gcc_arm/gcc-arm-none-eabi-6-2017-q2-update/arm-none-eabi/include/c++/6.3.1/bits/stl_vector.h ****        */
 743:/home/zkmike/.local/share/renesas/e2_studio/toolchains/gcc_arm/gcc-arm-none-eabi-6-2017-q2-update/arm-none-eabi/include/c++/6.3.1/bits/stl_vector.h ****       bool
 744:/home/zkmike/.local/share/renesas/e2_studio/toolchains/gcc_arm/gcc-arm-none-eabi-6-2017-q2-update/arm-none-eabi/include/c++/6.3.1/bits/stl_vector.h ****       empty() const _GLIBCXX_NOEXCEPT
 745:/home/zkmike/.local/share/renesas/e2_studio/toolchains/gcc_arm/gcc-arm-none-eabi-6-2017-q2-update/arm-none-eabi/include/c++/6.3.1/bits/stl_vector.h ****       { return begin() == end(); }
 746:/home/zkmike/.local/share/renesas/e2_studio/toolchains/gcc_arm/gcc-arm-none-eabi-6-2017-q2-update/arm-none-eabi/include/c++/6.3.1/bits/stl_vector.h **** 
 747:/home/zkmike/.local/share/renesas/e2_studio/toolchains/gcc_arm/gcc-arm-none-eabi-6-2017-q2-update/arm-none-eabi/include/c++/6.3.1/bits/stl_vector.h ****       /**
 748:/home/zkmike/.local/share/renesas/e2_studio/toolchains/gcc_arm/gcc-arm-none-eabi-6-2017-q2-update/arm-none-eabi/include/c++/6.3.1/bits/stl_vector.h ****        *  @brief  Attempt to preallocate enough memory for specified number of
 749:/home/zkmike/.local/share/renesas/e2_studio/toolchains/gcc_arm/gcc-arm-none-eabi-6-2017-q2-update/arm-none-eabi/include/c++/6.3.1/bits/stl_vector.h ****        *          elements.
 750:/home/zkmike/.local/share/renesas/e2_studio/toolchains/gcc_arm/gcc-arm-none-eabi-6-2017-q2-update/arm-none-eabi/include/c++/6.3.1/bits/stl_vector.h ****        *  @param  __n  Number of elements required.
 751:/home/zkmike/.local/share/renesas/e2_studio/toolchains/gcc_arm/gcc-arm-none-eabi-6-2017-q2-update/arm-none-eabi/include/c++/6.3.1/bits/stl_vector.h ****        *  @throw  std::length_error  If @a n exceeds @c max_size().
 752:/home/zkmike/.local/share/renesas/e2_studio/toolchains/gcc_arm/gcc-arm-none-eabi-6-2017-q2-update/arm-none-eabi/include/c++/6.3.1/bits/stl_vector.h ****        *
 753:/home/zkmike/.local/share/renesas/e2_studio/toolchains/gcc_arm/gcc-arm-none-eabi-6-2017-q2-update/arm-none-eabi/include/c++/6.3.1/bits/stl_vector.h ****        *  This function attempts to reserve enough memory for the
 754:/home/zkmike/.local/share/renesas/e2_studio/toolchains/gcc_arm/gcc-arm-none-eabi-6-2017-q2-update/arm-none-eabi/include/c++/6.3.1/bits/stl_vector.h ****        *  %vector to hold the specified number of elements.  If the
 755:/home/zkmike/.local/share/renesas/e2_studio/toolchains/gcc_arm/gcc-arm-none-eabi-6-2017-q2-update/arm-none-eabi/include/c++/6.3.1/bits/stl_vector.h ****        *  number requested is more than max_size(), length_error is
 756:/home/zkmike/.local/share/renesas/e2_studio/toolchains/gcc_arm/gcc-arm-none-eabi-6-2017-q2-update/arm-none-eabi/include/c++/6.3.1/bits/stl_vector.h ****        *  thrown.
 757:/home/zkmike/.local/share/renesas/e2_studio/toolchains/gcc_arm/gcc-arm-none-eabi-6-2017-q2-update/arm-none-eabi/include/c++/6.3.1/bits/stl_vector.h ****        *
 758:/home/zkmike/.local/share/renesas/e2_studio/toolchains/gcc_arm/gcc-arm-none-eabi-6-2017-q2-update/arm-none-eabi/include/c++/6.3.1/bits/stl_vector.h ****        *  The advantage of this function is that if optimal code is a
 759:/home/zkmike/.local/share/renesas/e2_studio/toolchains/gcc_arm/gcc-arm-none-eabi-6-2017-q2-update/arm-none-eabi/include/c++/6.3.1/bits/stl_vector.h ****        *  necessity and the user can determine the number of elements
 760:/home/zkmike/.local/share/renesas/e2_studio/toolchains/gcc_arm/gcc-arm-none-eabi-6-2017-q2-update/arm-none-eabi/include/c++/6.3.1/bits/stl_vector.h ****        *  that will be required, the user can reserve the memory in
 761:/home/zkmike/.local/share/renesas/e2_studio/toolchains/gcc_arm/gcc-arm-none-eabi-6-2017-q2-update/arm-none-eabi/include/c++/6.3.1/bits/stl_vector.h ****        *  %advance, and thus prevent a possible reallocation of memory
 762:/home/zkmike/.local/share/renesas/e2_studio/toolchains/gcc_arm/gcc-arm-none-eabi-6-2017-q2-update/arm-none-eabi/include/c++/6.3.1/bits/stl_vector.h ****        *  and copying of %vector data.
 763:/home/zkmike/.local/share/renesas/e2_studio/toolchains/gcc_arm/gcc-arm-none-eabi-6-2017-q2-update/arm-none-eabi/include/c++/6.3.1/bits/stl_vector.h ****        */
 764:/home/zkmike/.local/share/renesas/e2_studio/toolchains/gcc_arm/gcc-arm-none-eabi-6-2017-q2-update/arm-none-eabi/include/c++/6.3.1/bits/stl_vector.h ****       void
 765:/home/zkmike/.local/share/renesas/e2_studio/toolchains/gcc_arm/gcc-arm-none-eabi-6-2017-q2-update/arm-none-eabi/include/c++/6.3.1/bits/stl_vector.h ****       reserve(size_type __n);
 766:/home/zkmike/.local/share/renesas/e2_studio/toolchains/gcc_arm/gcc-arm-none-eabi-6-2017-q2-update/arm-none-eabi/include/c++/6.3.1/bits/stl_vector.h **** 
 767:/home/zkmike/.local/share/renesas/e2_studio/toolchains/gcc_arm/gcc-arm-none-eabi-6-2017-q2-update/arm-none-eabi/include/c++/6.3.1/bits/stl_vector.h ****       // element access
 768:/home/zkmike/.local/share/renesas/e2_studio/toolchains/gcc_arm/gcc-arm-none-eabi-6-2017-q2-update/arm-none-eabi/include/c++/6.3.1/bits/stl_vector.h ****       /**
 769:/home/zkmike/.local/share/renesas/e2_studio/toolchains/gcc_arm/gcc-arm-none-eabi-6-2017-q2-update/arm-none-eabi/include/c++/6.3.1/bits/stl_vector.h ****        *  @brief  Subscript access to the data contained in the %vector.
 770:/home/zkmike/.local/share/renesas/e2_studio/toolchains/gcc_arm/gcc-arm-none-eabi-6-2017-q2-update/arm-none-eabi/include/c++/6.3.1/bits/stl_vector.h ****        *  @param __n The index of the element for which data should be
 771:/home/zkmike/.local/share/renesas/e2_studio/toolchains/gcc_arm/gcc-arm-none-eabi-6-2017-q2-update/arm-none-eabi/include/c++/6.3.1/bits/stl_vector.h ****        *  accessed.
 772:/home/zkmike/.local/share/renesas/e2_studio/toolchains/gcc_arm/gcc-arm-none-eabi-6-2017-q2-update/arm-none-eabi/include/c++/6.3.1/bits/stl_vector.h ****        *  @return  Read/write reference to data.
 773:/home/zkmike/.local/share/renesas/e2_studio/toolchains/gcc_arm/gcc-arm-none-eabi-6-2017-q2-update/arm-none-eabi/include/c++/6.3.1/bits/stl_vector.h ****        *
 774:/home/zkmike/.local/share/renesas/e2_studio/toolchains/gcc_arm/gcc-arm-none-eabi-6-2017-q2-update/arm-none-eabi/include/c++/6.3.1/bits/stl_vector.h ****        *  This operator allows for easy, array-style, data access.
 775:/home/zkmike/.local/share/renesas/e2_studio/toolchains/gcc_arm/gcc-arm-none-eabi-6-2017-q2-update/arm-none-eabi/include/c++/6.3.1/bits/stl_vector.h ****        *  Note that data access with this operator is unchecked and
 776:/home/zkmike/.local/share/renesas/e2_studio/toolchains/gcc_arm/gcc-arm-none-eabi-6-2017-q2-update/arm-none-eabi/include/c++/6.3.1/bits/stl_vector.h ****        *  out_of_range lookups are not defined. (For checked lookups
 777:/home/zkmike/.local/share/renesas/e2_studio/toolchains/gcc_arm/gcc-arm-none-eabi-6-2017-q2-update/arm-none-eabi/include/c++/6.3.1/bits/stl_vector.h ****        *  see at().)
 778:/home/zkmike/.local/share/renesas/e2_studio/toolchains/gcc_arm/gcc-arm-none-eabi-6-2017-q2-update/arm-none-eabi/include/c++/6.3.1/bits/stl_vector.h ****        */
 779:/home/zkmike/.local/share/renesas/e2_studio/toolchains/gcc_arm/gcc-arm-none-eabi-6-2017-q2-update/arm-none-eabi/include/c++/6.3.1/bits/stl_vector.h ****       reference
 780:/home/zkmike/.local/share/renesas/e2_studio/toolchains/gcc_arm/gcc-arm-none-eabi-6-2017-q2-update/arm-none-eabi/include/c++/6.3.1/bits/stl_vector.h ****       operator[](size_type __n) _GLIBCXX_NOEXCEPT
 781:/home/zkmike/.local/share/renesas/e2_studio/toolchains/gcc_arm/gcc-arm-none-eabi-6-2017-q2-update/arm-none-eabi/include/c++/6.3.1/bits/stl_vector.h ****       { return *(this->_M_impl._M_start + __n); }
 1736              		.loc 11 781 0
 1737 00c8 081091E5 		ldr	r1, [r1, #8]
 1738              	.LVL149:
 1739              	.LBE951:
 1740              	.LBE950:
 1741              	.LBE949:
 1742              	.LBE948:
 1743              	.LBE947:
 1744              	.LBE946:
  60:/home/zkmike/workspace/RZA2M/rza2m_2d_barcode_sample_freertos_gcc/src/zxing_lib/zxing/common/BitMatrix.h ****     return ((((unsigned)bits[offset]) >> (x & bitsMask)) & 1) != 0;
 1745              		.loc 9 60 0
 1746 00cc 022191E7 		ldr	r2, [r1, r2, lsl #2]
 1747              	.LVL150:
 1748 00d0 1F1004E2 		and	r1, r4, #31
 1749 00d4 3221A0E1 		lsr	r2, r2, r1
 1750              	.LVL151:
 1751              	.LBE945:
 1752              	.LBE944:
 241:../src/zxing_lib/zxing/common/detector/WhiteRectangleDetector.cpp ****       Ref<ResultPoint> point(new ResultPoint(float(x), float(y)));
 1753              		.loc 4 241 0
 1754 00d8 010012E3 		tst	r2, #1
 1755              	.LBE941:
 1756              	.LBE936:
 238:../src/zxing_lib/zxing/common/detector/WhiteRectangleDetector.cpp ****     int x = MathUtils::round(aX + i * xStep);
 1757              		.loc 4 238 0 discriminator 2
 1758 00dc 01308302 		addeq	r3, r3, #1
 1759              	.LVL152:
 1760 00e0 E4FFFF0A 		beq	.L122
 1761              	.L130:
 1762              	.LBB990:
 1763              	.LBB988:
 1764              	.LBB952:
 242:../src/zxing_lib/zxing/common/detector/WhiteRectangleDetector.cpp ****       return point;
 1765              		.loc 4 242 0
 1766 00e4 1000A0E3 		mov	r0, #16
 1767              	.LEHB18:
 1768 00e8 FEFFFFEB 		bl	_Znwj
 1769              	.LVL153:
 1770              	.LEHE18:
 1771 00ec 0050A0E1 		mov	r5, r0
 1772              	.LVL154:
 1773 00f0 C80AF8EE 		vcvt.f32.s32	s1, s16
 1774 00f4 904A07EE 		vmov	s15, r4	@ int
 1775 00f8 E70AB8EE 		vcvt.f32.s32	s0, s15
 1776              	.LEHB19:
 1777 00fc FEFFFFEB 		bl	_ZN5zxing11ResultPointC1Eff
 1778              	.LVL155:
 1779              	.LEHE19:
 1780              	.LBB953:
 1781              	.LBB954:
 1782              	.LBB955:
  60:/home/zkmike/workspace/RZA2M/rza2m_2d_barcode_sample_freertos_gcc/src/zxing_lib/zxing/common/Counted.h ****     reset(o);
 1783              		.loc 3 60 0
 1784 0100 0030A0E3 		mov	r3, #0
 1785 0104 00308DE5 		str	r3, [sp]
 1786              	.LVL156:
 1787              	.LBB956:
 1788              	.LBB957:
  81:/home/zkmike/workspace/RZA2M/rza2m_2d_barcode_sample_freertos_gcc/src/zxing_lib/zxing/common/Counted.h ****       o->retain();
 1789              		.loc 3 81 0
 1790 0108 030055E1 		cmp	r5, r3
 1791              	.LVL157:
 1792              	.LBB958:
 1793              	.LBB959:
  36:/home/zkmike/workspace/RZA2M/rza2m_2d_barcode_sample_freertos_gcc/src/zxing_lib/zxing/common/Counted.h ****     return this;
 1794              		.loc 3 36 0
 1795 010c 04309515 		ldrne	r3, [r5, #4]
 1796 0110 01308312 		addne	r3, r3, #1
 1797 0114 04308515 		strne	r3, [r5, #4]
 1798              	.LVL158:
 1799              	.L116:
 1800              	.LBE959:
 1801              	.LBE958:
  84:/home/zkmike/workspace/RZA2M/rza2m_2d_barcode_sample_freertos_gcc/src/zxing_lib/zxing/common/Counted.h ****       object_->release();
 1802              		.loc 3 84 0
 1803 0118 00009DE5 		ldr	r0, [sp]
 1804 011c 000050E3 		cmp	r0, #0
 1805 0120 0400000A 		beq	.L117
 1806              	.LVL159:
 1807              	.LBB960:
 1808              	.LBB961:
  40:/home/zkmike/workspace/RZA2M/rza2m_2d_barcode_sample_freertos_gcc/src/zxing_lib/zxing/common/Counted.h ****     if (count_ == 0) {
 1809              		.loc 3 40 0
 1810 0124 043090E5 		ldr	r3, [r0, #4]
 1811 0128 013043E2 		sub	r3, r3, #1
 1812 012c 043080E5 		str	r3, [r0, #4]
  41:/home/zkmike/workspace/RZA2M/rza2m_2d_barcode_sample_freertos_gcc/src/zxing_lib/zxing/common/Counted.h ****       count_ = 0xDEADF001;
 1813              		.loc 3 41 0
 1814 0130 000053E3 		cmp	r3, #0
 1815 0134 1E00000A 		beq	.L131
 1816              	.LVL160:
 1817              	.L117:
 1818              	.LBE961:
 1819              	.LBE960:
  87:/home/zkmike/workspace/RZA2M/rza2m_2d_barcode_sample_freertos_gcc/src/zxing_lib/zxing/common/Counted.h ****   }
 1820              		.loc 3 87 0
 1821 0138 00508DE5 		str	r5, [sp]
 1822              	.LVL161:
 1823              	.LBE957:
 1824              	.LBE956:
 1825              	.LBE955:
 1826              	.LBE954:
 1827              	.LBE953:
 1828              	.LBB968:
 1829              	.LBB969:
  64:/home/zkmike/workspace/RZA2M/rza2m_2d_barcode_sample_freertos_gcc/src/zxing_lib/zxing/common/Counted.h ****     reset(other.object_);
 1830              		.loc 3 64 0
 1831 013c 0030A0E3 		mov	r3, #0
 1832 0140 003086E5 		str	r3, [r6]
 1833              	.LVL162:
 1834              	.LBB970:
 1835              	.LBB971:
  81:/home/zkmike/workspace/RZA2M/rza2m_2d_barcode_sample_freertos_gcc/src/zxing_lib/zxing/common/Counted.h ****       o->retain();
 1836              		.loc 3 81 0
 1837 0144 030055E1 		cmp	r5, r3
 1838              	.LVL163:
 1839              	.LBB972:
 1840              	.LBB973:
  36:/home/zkmike/workspace/RZA2M/rza2m_2d_barcode_sample_freertos_gcc/src/zxing_lib/zxing/common/Counted.h ****     return this;
 1841              		.loc 3 36 0
 1842 0148 04309515 		ldrne	r3, [r5, #4]
 1843 014c 01308312 		addne	r3, r3, #1
 1844 0150 04308515 		strne	r3, [r5, #4]
 1845              	.LVL164:
 1846              	.L118:
 1847              	.LBE973:
 1848              	.LBE972:
  84:/home/zkmike/workspace/RZA2M/rza2m_2d_barcode_sample_freertos_gcc/src/zxing_lib/zxing/common/Counted.h ****       object_->release();
 1849              		.loc 3 84 0
 1850 0154 000096E5 		ldr	r0, [r6]
 1851 0158 000050E3 		cmp	r0, #0
 1852 015c 0400000A 		beq	.L119
 1853              	.LVL165:
 1854              	.LBB974:
 1855              	.LBB975:
  40:/home/zkmike/workspace/RZA2M/rza2m_2d_barcode_sample_freertos_gcc/src/zxing_lib/zxing/common/Counted.h ****     if (count_ == 0) {
 1856              		.loc 3 40 0
 1857 0160 043090E5 		ldr	r3, [r0, #4]
 1858 0164 013043E2 		sub	r3, r3, #1
 1859 0168 043080E5 		str	r3, [r0, #4]
  41:/home/zkmike/workspace/RZA2M/rza2m_2d_barcode_sample_freertos_gcc/src/zxing_lib/zxing/common/Counted.h ****       count_ = 0xDEADF001;
 1860              		.loc 3 41 0
 1861 016c 000053E3 		cmp	r3, #0
 1862 0170 1600000A 		beq	.L132
 1863              	.LVL166:
 1864              	.L119:
 1865              	.LBE975:
 1866              	.LBE974:
  87:/home/zkmike/workspace/RZA2M/rza2m_2d_barcode_sample_freertos_gcc/src/zxing_lib/zxing/common/Counted.h ****   }
 1867              		.loc 3 87 0
 1868 0174 005086E5 		str	r5, [r6]
 1869              	.LVL167:
 1870              	.LBE971:
 1871              	.LBE970:
 1872              	.LBE969:
 1873              	.LBE968:
 1874              	.LBB981:
 1875              	.LBB982:
  75:/home/zkmike/workspace/RZA2M/rza2m_2d_barcode_sample_freertos_gcc/src/zxing_lib/zxing/common/Counted.h ****       object_->release();
 1876              		.loc 3 75 0
 1877 0178 00009DE5 		ldr	r0, [sp]
 1878 017c 000050E3 		cmp	r0, #0
 1879 0180 2D00000A 		beq	.L113
 1880              	.LVL168:
 1881              	.LBB983:
 1882              	.LBB984:
  40:/home/zkmike/workspace/RZA2M/rza2m_2d_barcode_sample_freertos_gcc/src/zxing_lib/zxing/common/Counted.h ****     if (count_ == 0) {
 1883              		.loc 3 40 0
 1884 0184 043090E5 		ldr	r3, [r0, #4]
 1885 0188 013043E2 		sub	r3, r3, #1
 1886 018c 043080E5 		str	r3, [r0, #4]
  41:/home/zkmike/workspace/RZA2M/rza2m_2d_barcode_sample_freertos_gcc/src/zxing_lib/zxing/common/Counted.h ****       count_ = 0xDEADF001;
 1887              		.loc 3 41 0
 1888 0190 000053E3 		cmp	r3, #0
 1889 0194 2800001A 		bne	.L113
  42:/home/zkmike/workspace/RZA2M/rza2m_2d_barcode_sample_freertos_gcc/src/zxing_lib/zxing/common/Counted.h ****       delete this;
 1890              		.loc 3 42 0
 1891 0198 01300FE3 		movw	r3, #61441
 1892 019c AD3E4DE3 		movt	r3, 57005
 1893 01a0 043080E5 		str	r3, [r0, #4]
  43:/home/zkmike/workspace/RZA2M/rza2m_2d_barcode_sample_freertos_gcc/src/zxing_lib/zxing/common/Counted.h ****     }
 1894              		.loc 3 43 0
 1895 01a4 003090E5 		ldr	r3, [r0]
 1896 01a8 043093E5 		ldr	r3, [r3, #4]
 1897 01ac 33FF2FE1 		blx	r3
 1898              	.LVL169:
 1899 01b0 210000EA 		b	.L113
 1900              	.LVL170:
 1901              	.L131:
 1902              	.LBE984:
 1903              	.LBE983:
 1904              	.LBE982:
 1905              	.LBE981:
 1906              	.LBB985:
 1907              	.LBB967:
 1908              	.LBB966:
 1909              	.LBB965:
 1910              	.LBB964:
 1911              	.LBB963:
 1912              	.LBB962:
  42:/home/zkmike/workspace/RZA2M/rza2m_2d_barcode_sample_freertos_gcc/src/zxing_lib/zxing/common/Counted.h ****       delete this;
 1913              		.loc 3 42 0
 1914 01b4 01300FE3 		movw	r3, #61441
 1915 01b8 AD3E4DE3 		movt	r3, 57005
 1916 01bc 043080E5 		str	r3, [r0, #4]
  43:/home/zkmike/workspace/RZA2M/rza2m_2d_barcode_sample_freertos_gcc/src/zxing_lib/zxing/common/Counted.h ****     }
 1917              		.loc 3 43 0
 1918 01c0 003090E5 		ldr	r3, [r0]
 1919 01c4 043093E5 		ldr	r3, [r3, #4]
 1920 01c8 33FF2FE1 		blx	r3
 1921              	.LVL171:
 1922 01cc D9FFFFEA 		b	.L117
 1923              	.LVL172:
 1924              	.L132:
 1925              	.LBE962:
 1926              	.LBE963:
 1927              	.LBE964:
 1928              	.LBE965:
 1929              	.LBE966:
 1930              	.LBE967:
 1931              	.LBE985:
 1932              	.LBB986:
 1933              	.LBB980:
 1934              	.LBB979:
 1935              	.LBB978:
 1936              	.LBB977:
 1937              	.LBB976:
  42:/home/zkmike/workspace/RZA2M/rza2m_2d_barcode_sample_freertos_gcc/src/zxing_lib/zxing/common/Counted.h ****       delete this;
 1938              		.loc 3 42 0
 1939 01d0 01300FE3 		movw	r3, #61441
 1940 01d4 AD3E4DE3 		movt	r3, 57005
 1941 01d8 043080E5 		str	r3, [r0, #4]
  43:/home/zkmike/workspace/RZA2M/rza2m_2d_barcode_sample_freertos_gcc/src/zxing_lib/zxing/common/Counted.h ****     }
 1942              		.loc 3 43 0
 1943 01dc 003090E5 		ldr	r3, [r0]
 1944 01e0 043093E5 		ldr	r3, [r3, #4]
 1945 01e4 33FF2FE1 		blx	r3
 1946              	.LVL173:
 1947 01e8 E1FFFFEA 		b	.L119
 1948              	.LVL174:
 1949              	.L114:
 1950              	.LBE976:
 1951              	.LBE977:
 1952              	.LBE978:
 1953              	.LBE979:
 1954              	.LBE980:
 1955              	.LBE986:
 1956              	.LBE952:
 1957              	.LBE988:
 1958              	.LBE990:
 1959              	.LBE935:
 1960              	.LBB992:
 1961              	.LBB993:
 1962              	.LBB994:
 1963              	.LBB995:
 1964              	.LBB996:
  87:/home/zkmike/workspace/RZA2M/rza2m_2d_barcode_sample_freertos_gcc/src/zxing_lib/zxing/common/Counted.h ****   }
 1965              		.loc 3 87 0
 1966 01ec 0040A0E3 		mov	r4, #0
 1967 01f0 04408DE5 		str	r4, [sp, #4]
 1968              	.LVL175:
 1969              	.LBE996:
 1970              	.LBE995:
 1971              	.LBE994:
 1972              	.LBE993:
 1973              	.LBE992:
 1974              	.LBB997:
 1975              	.LBB998:
  64:/home/zkmike/workspace/RZA2M/rza2m_2d_barcode_sample_freertos_gcc/src/zxing_lib/zxing/common/Counted.h ****     reset(other.object_);
 1976              		.loc 3 64 0
 1977 01f4 004086E5 		str	r4, [r6]
 1978              	.LVL176:
 1979              	.LBB999:
 1980              	.LBB1000:
  84:/home/zkmike/workspace/RZA2M/rza2m_2d_barcode_sample_freertos_gcc/src/zxing_lib/zxing/common/Counted.h ****       object_->release();
 1981              		.loc 3 84 0
 1982 01f8 0400A0E1 		mov	r0, r4
 1983 01fc 040054E1 		cmp	r4, r4
 1984 0200 0400000A 		beq	.L125
 1985              	.LVL177:
 1986              	.LBB1001:
 1987              	.LBB1002:
  40:/home/zkmike/workspace/RZA2M/rza2m_2d_barcode_sample_freertos_gcc/src/zxing_lib/zxing/common/Counted.h ****     if (count_ == 0) {
 1988              		.loc 3 40 0
 1989 0204 043094E5 		ldr	r3, [r4, #4]
 1990              	.LVL178:
 1991 0208 013043E2 		sub	r3, r3, #1
 1992 020c 043084E5 		str	r3, [r4, #4]
  41:/home/zkmike/workspace/RZA2M/rza2m_2d_barcode_sample_freertos_gcc/src/zxing_lib/zxing/common/Counted.h ****       count_ = 0xDEADF001;
 1993              		.loc 3 41 0
 1994 0210 040053E1 		cmp	r3, r4
 1995 0214 0C00000A 		beq	.L133
 1996              	.LVL179:
 1997              	.L125:
 1998              	.LBE1002:
 1999              	.LBE1001:
  87:/home/zkmike/workspace/RZA2M/rza2m_2d_barcode_sample_freertos_gcc/src/zxing_lib/zxing/common/Counted.h ****   }
 2000              		.loc 3 87 0
 2001 0218 004086E5 		str	r4, [r6]
 2002              	.LVL180:
 2003              	.LBE1000:
 2004              	.LBE999:
 2005              	.LBE998:
 2006              	.LBE997:
 2007              	.LBB1008:
 2008              	.LBB1009:
  75:/home/zkmike/workspace/RZA2M/rza2m_2d_barcode_sample_freertos_gcc/src/zxing_lib/zxing/common/Counted.h ****       object_->release();
 2009              		.loc 3 75 0
 2010 021c 04009DE5 		ldr	r0, [sp, #4]
 2011 0220 000050E3 		cmp	r0, #0
 2012 0224 0400000A 		beq	.L113
 2013              	.LVL181:
 2014              	.LBB1010:
 2015              	.LBB1011:
  40:/home/zkmike/workspace/RZA2M/rza2m_2d_barcode_sample_freertos_gcc/src/zxing_lib/zxing/common/Counted.h ****     if (count_ == 0) {
 2016              		.loc 3 40 0
 2017 0228 043090E5 		ldr	r3, [r0, #4]
 2018 022c 013043E2 		sub	r3, r3, #1
 2019 0230 043080E5 		str	r3, [r0, #4]
  41:/home/zkmike/workspace/RZA2M/rza2m_2d_barcode_sample_freertos_gcc/src/zxing_lib/zxing/common/Counted.h ****       count_ = 0xDEADF001;
 2020              		.loc 3 41 0
 2021 0234 000053E3 		cmp	r3, #0
 2022 0238 0A00000A 		beq	.L134
 2023              	.LVL182:
 2024              	.L113:
 2025              	.LBE1011:
 2026              	.LBE1010:
 2027              	.LBE1009:
 2028              	.LBE1008:
 248:../src/zxing_lib/zxing/common/detector/WhiteRectangleDetector.cpp **** 
 2029              		.loc 4 248 0
 2030 023c 0600A0E1 		mov	r0, r6
 2031 0240 08D08DE2 		add	sp, sp, #8
 2032              		.cfi_remember_state
 2033              		.cfi_def_cfa_offset 32
 2034              		@ sp needed
 2035 0244 048BBDEC 		vldm	sp!, {d8-d9}
 2036              		.cfi_restore 82
 2037              		.cfi_restore 83
 2038              		.cfi_restore 80
 2039              		.cfi_restore 81
 2040              		.cfi_def_cfa_offset 16
 2041              	.LVL183:
 2042 0248 7080BDE8 		pop	{r4, r5, r6, pc}
 2043              	.LVL184:
 2044              	.L133:
 2045              		.cfi_restore_state
 2046              	.LBB1015:
 2047              	.LBB1007:
 2048              	.LBB1006:
 2049              	.LBB1005:
 2050              	.LBB1004:
 2051              	.LBB1003:
  42:/home/zkmike/workspace/RZA2M/rza2m_2d_barcode_sample_freertos_gcc/src/zxing_lib/zxing/common/Counted.h ****       delete this;
 2052              		.loc 3 42 0
 2053 024c 01300FE3 		movw	r3, #61441
 2054 0250 AD3E4DE3 		movt	r3, 57005
 2055 0254 043084E5 		str	r3, [r4, #4]
  43:/home/zkmike/workspace/RZA2M/rza2m_2d_barcode_sample_freertos_gcc/src/zxing_lib/zxing/common/Counted.h ****     }
 2056              		.loc 3 43 0
 2057 0258 003094E5 		ldr	r3, [r4]
 2058 025c 043093E5 		ldr	r3, [r3, #4]
 2059 0260 33FF2FE1 		blx	r3
 2060              	.LVL185:
 2061 0264 EBFFFFEA 		b	.L125
 2062              	.LVL186:
 2063              	.L134:
 2064              	.LBE1003:
 2065              	.LBE1004:
 2066              	.LBE1005:
 2067              	.LBE1006:
 2068              	.LBE1007:
 2069              	.LBE1015:
 2070              	.LBB1016:
 2071              	.LBB1014:
 2072              	.LBB1013:
 2073              	.LBB1012:
  42:/home/zkmike/workspace/RZA2M/rza2m_2d_barcode_sample_freertos_gcc/src/zxing_lib/zxing/common/Counted.h ****       delete this;
 2074              		.loc 3 42 0
 2075 0268 01300FE3 		movw	r3, #61441
 2076 026c AD3E4DE3 		movt	r3, 57005
 2077 0270 043080E5 		str	r3, [r0, #4]
  43:/home/zkmike/workspace/RZA2M/rza2m_2d_barcode_sample_freertos_gcc/src/zxing_lib/zxing/common/Counted.h ****     }
 2078              		.loc 3 43 0
 2079 0274 003090E5 		ldr	r3, [r0]
 2080 0278 043093E5 		ldr	r3, [r3, #4]
 2081 027c 33FF2FE1 		blx	r3
 2082              	.LVL187:
 2083 0280 EDFFFFEA 		b	.L113
 2084              	.LVL188:
 2085              	.L128:
 2086              	.LBE1012:
 2087              	.LBE1013:
 2088              	.LBE1014:
 2089              	.LBE1016:
 2090              	.LBB1017:
 2091              	.LBB991:
 2092              	.LBB989:
 2093              	.LBB987:
 242:../src/zxing_lib/zxing/common/detector/WhiteRectangleDetector.cpp ****       return point;
 2094              		.loc 4 242 0
 2095 0284 1010A0E3 		mov	r1, #16
 2096 0288 0500A0E1 		mov	r0, r5
 2097 028c FEFFFFEB 		bl	_ZdlPvj
 2098              	.LVL189:
 2099              	.LEHB20:
 2100 0290 FEFFFFEB 		bl	__cxa_end_cleanup
 2101              	.LVL190:
 2102              	.LEHE20:
 2103              	.LBE987:
 2104              	.LBE989:
 2105              	.LBE991:
 2106              	.LBE1017:
 2107              		.cfi_endproc
 2108              	.LFE2327:
 2109              		.personality	__gxx_personality_v0
 2110              		.handlerdata
 2111              	.LLSDA2327:
 2112 000c FF       		.byte	0xff
 2113 000d FF       		.byte	0xff
 2114 000e 01       		.byte	0x1
 2115 000f 10       		.uleb128 .LLSDACSE2327-.LLSDACSB2327
 2116              	.LLSDACSB2327:
 2117 0010 E801     		.uleb128 .LEHB18-.LFB2327
 2118 0012 04       		.uleb128 .LEHE18-.LEHB18
 2119 0013 00       		.uleb128 0
 2120 0014 00       		.uleb128 0
 2121 0015 FC01     		.uleb128 .LEHB19-.LFB2327
 2122 0017 04       		.uleb128 .LEHE19-.LEHB19
 2123 0018 8405     		.uleb128 .L128-.LFB2327
 2124 001a 00       		.uleb128 0
 2125 001b 9005     		.uleb128 .LEHB20-.LFB2327
 2126 001d 04       		.uleb128 .LEHE20-.LEHB20
 2127 001e 00       		.uleb128 0
 2128 001f 00       		.uleb128 0
 2129              	.LLSDACSE2327:
 2130              		.section	.text._ZN5zxing22WhiteRectangleDetector22getBlackPointOnSegmentEiiii
 2131              		.fnend
 2133              		.section	.text._ZN5zxing22WhiteRectangleDetector11centerEdgesENS_3RefINS_11ResultPointEEES3_S3_S3_
 2134              		.align	2
 2135              		.global	_ZN5zxing22WhiteRectangleDetector11centerEdgesENS_3RefINS_11ResultPointEEES3_S3_S3_
 2136              		.syntax unified
 2137              		.arm
 2138              		.fpu neon
 2140              	_ZN5zxing22WhiteRectangleDetector11centerEdgesENS_3RefINS_11ResultPointEEES3_S3_S3_:
 2141              		.fnstart
 2142              	.LFB2328:
 264:../src/zxing_lib/zxing/common/detector/WhiteRectangleDetector.cpp **** 
 2143              		.loc 4 264 0
 2144              		.cfi_startproc
 2145              		.cfi_personality 0,__gxx_personality_v0
 2146              		.cfi_lsda 0,.LLSDA2328
 2147              		@ args = 8, pretend = 0, frame = 16
 2148              		@ frame_needed = 0, uses_anonymous_args = 0
 2149              	.LVL191:
 2150 0000 F0432DE9 		push	{r4, r5, r6, r7, r8, r9, lr}
 2151              		.save {r4, r5, r6, r7, r8, r9, lr}
 2152              		.cfi_def_cfa_offset 28
 2153              		.cfi_offset 4, -28
 2154              		.cfi_offset 5, -24
 2155              		.cfi_offset 6, -20
 2156              		.cfi_offset 7, -16
 2157              		.cfi_offset 8, -12
 2158              		.cfi_offset 9, -8
 2159              		.cfi_offset 14, -4
 2160 0004 088B2DED 		vpush.64	{d8, d9, d10, d11}
 2161              		.vsave {d8, d9, d10, d11}
 2162              		.cfi_def_cfa_offset 60
 2163              		.cfi_offset 80, -60
 2164              		.cfi_offset 81, -56
 2165              		.cfi_offset 82, -52
 2166              		.cfi_offset 83, -48
 2167              		.cfi_offset 84, -44
 2168              		.cfi_offset 85, -40
 2169              		.cfi_offset 86, -36
 2170              		.cfi_offset 87, -32
 2171              		.pad #20
 2172 0008 14D04DE2 		sub	sp, sp, #20
 2173              		.cfi_def_cfa_offset 80
 2174 000c 0040A0E1 		mov	r4, r0
 2175 0010 0150A0E1 		mov	r5, r1
 2176 0014 0290A0E1 		mov	r9, r2
 2177 0018 0380A0E1 		mov	r8, r3
 2178 001c 50709DE5 		ldr	r7, [sp, #80]
 2179 0020 54609DE5 		ldr	r6, [sp, #84]
 2180              	.LVL192:
 2181              	.LBB1312:
 2182              	.LBB1313:
 2183              		.loc 3 112 0
 2184 0024 000092E5 		ldr	r0, [r2]
 2185              	.LVL193:
 2186              	.LBE1313:
 2187              	.LBE1312:
 273:../src/zxing_lib/zxing/common/detector/WhiteRectangleDetector.cpp ****   float yj = y->getY();
 2188              		.loc 4 273 0
 2189 0028 003090E5 		ldr	r3, [r0]
 2190              	.LVL194:
 2191 002c 083093E5 		ldr	r3, [r3, #8]
 2192              	.LEHB21:
 2193 0030 33FF2FE1 		blx	r3
 2194              	.LVL195:
 2195 0034 408AB0EE 		vmov.f32	s16, s0
 2196              	.LVL196:
 2197              	.LBB1314:
 2198              	.LBB1315:
 2199              		.loc 3 112 0
 2200 0038 000099E5 		ldr	r0, [r9]
 2201              	.LVL197:
 2202              	.LBE1315:
 2203              	.LBE1314:
 274:../src/zxing_lib/zxing/common/detector/WhiteRectangleDetector.cpp ****   float zi = z->getX();
 2204              		.loc 4 274 0
 2205 003c 003090E5 		ldr	r3, [r0]
 2206 0040 0C3093E5 		ldr	r3, [r3, #12]
 2207 0044 33FF2FE1 		blx	r3
 2208              	.LVL198:
 2209 0048 408AF0EE 		vmov.f32	s17, s0
 2210              	.LVL199:
 2211              	.LBB1316:
 2212              	.LBB1317:
 2213              		.loc 3 112 0
 2214 004c 000098E5 		ldr	r0, [r8]
 2215              	.LVL200:
 2216              	.LBE1317:
 2217              	.LBE1316:
 275:../src/zxing_lib/zxing/common/detector/WhiteRectangleDetector.cpp ****   float zj = z->getY();
 2218              		.loc 4 275 0
 2219 0050 003090E5 		ldr	r3, [r0]
 2220 0054 083093E5 		ldr	r3, [r3, #8]
 2221 0058 33FF2FE1 		blx	r3
 2222              	.LVL201:
 2223 005c 40AAB0EE 		vmov.f32	s20, s0
 2224              	.LVL202:
 2225              	.LBB1318:
 2226              	.LBB1319:
 2227              		.loc 3 112 0
 2228 0060 000098E5 		ldr	r0, [r8]
 2229              	.LVL203:
 2230              	.LBE1319:
 2231              	.LBE1318:
 276:../src/zxing_lib/zxing/common/detector/WhiteRectangleDetector.cpp ****   float xi = x->getX();
 2232              		.loc 4 276 0
 2233 0064 003090E5 		ldr	r3, [r0]
 2234 0068 0C3093E5 		ldr	r3, [r3, #12]
 2235 006c 33FF2FE1 		blx	r3
 2236              	.LVL204:
 2237 0070 40AAF0EE 		vmov.f32	s21, s0
 2238              	.LVL205:
 2239              	.LBB1320:
 2240              	.LBB1321:
 2241              		.loc 3 112 0
 2242 0074 000097E5 		ldr	r0, [r7]
 2243              	.LVL206:
 2244              	.LBE1321:
 2245              	.LBE1320:
 277:../src/zxing_lib/zxing/common/detector/WhiteRectangleDetector.cpp ****   float xj = x->getY();
 2246              		.loc 4 277 0
 2247 0078 003090E5 		ldr	r3, [r0]
 2248 007c 083093E5 		ldr	r3, [r3, #8]
 2249 0080 33FF2FE1 		blx	r3
 2250              	.LVL207:
 2251 0084 409AB0EE 		vmov.f32	s18, s0
 2252              	.LVL208:
 2253              	.LBB1322:
 2254              	.LBB1323:
 2255              		.loc 3 112 0
 2256 0088 000097E5 		ldr	r0, [r7]
 2257              	.LVL209:
 2258              	.LBE1323:
 2259              	.LBE1322:
 278:../src/zxing_lib/zxing/common/detector/WhiteRectangleDetector.cpp ****   float ti = t->getX();
 2260              		.loc 4 278 0
 2261 008c 003090E5 		ldr	r3, [r0]
 2262 0090 0C3093E5 		ldr	r3, [r3, #12]
 2263 0094 33FF2FE1 		blx	r3
 2264              	.LVL210:
 2265 0098 409AF0EE 		vmov.f32	s19, s0
 2266              	.LVL211:
 2267              	.LBB1324:
 2268              	.LBB1325:
 2269              		.loc 3 112 0
 2270 009c 000096E5 		ldr	r0, [r6]
 2271              	.LVL212:
 2272              	.LBE1325:
 2273              	.LBE1324:
 279:../src/zxing_lib/zxing/common/detector/WhiteRectangleDetector.cpp ****   float tj = t->getY();
 2274              		.loc 4 279 0
 2275 00a0 003090E5 		ldr	r3, [r0]
 2276 00a4 083093E5 		ldr	r3, [r3, #8]
 2277 00a8 33FF2FE1 		blx	r3
 2278              	.LVL213:
 2279 00ac 40BAB0EE 		vmov.f32	s22, s0
 2280              	.LVL214:
 2281              	.LBB1326:
 2282              	.LBB1327:
 2283              		.loc 3 112 0
 2284 00b0 000096E5 		ldr	r0, [r6]
 2285              	.LVL215:
 2286              	.LBE1327:
 2287              	.LBE1326:
 280:../src/zxing_lib/zxing/common/detector/WhiteRectangleDetector.cpp **** 
 2288              		.loc 4 280 0
 2289 00b4 003090E5 		ldr	r3, [r0]
 2290 00b8 0C3093E5 		ldr	r3, [r3, #12]
 2291 00bc 33FF2FE1 		blx	r3
 2292              	.LVL216:
 2293 00c0 40BAF0EE 		vmov.f32	s23, s0
 2294              	.LVL217:
 2295              	.LBB1328:
 2296              	.LBB1329:
 2297              	.LBB1330:
 2298              	.LBB1331:
  91:/home/zkmike/.local/share/renesas/e2_studio/toolchains/gcc_arm/gcc-arm-none-eabi-6-2017-q2-update/arm-none-eabi/include/c++/6.3.1/bits/stl_vector.h **** 	{ }
 2299              		.loc 11 91 0
 2300 00c4 0030A0E3 		mov	r3, #0
 2301 00c8 003084E5 		str	r3, [r4]
 2302 00cc 043084E5 		str	r3, [r4, #4]
 2303 00d0 083084E5 		str	r3, [r4, #8]
 2304              	.LVL218:
 2305              	.LBE1331:
 2306              	.LBE1330:
 2307              	.LBB1332:
 2308              	.LBB1333:
 2309              	.LBB1334:
 2310              	.LBB1335:
 2311              	.LBB1336:
 2312              	.LBB1337:
 2313              	.LBB1338:
 2314              		.file 12 "/home/zkmike/.local/share/renesas/e2_studio/toolchains/gcc_arm/gcc-arm-none-eabi-6-2017-
   1:/home/zkmike/.local/share/renesas/e2_studio/toolchains/gcc_arm/gcc-arm-none-eabi-6-2017-q2-update/arm-none-eabi/include/c++/6.3.1/ext/new_allocator.h **** // Allocator that wraps operator new -*- C++ -*-
   2:/home/zkmike/.local/share/renesas/e2_studio/toolchains/gcc_arm/gcc-arm-none-eabi-6-2017-q2-update/arm-none-eabi/include/c++/6.3.1/ext/new_allocator.h **** 
   3:/home/zkmike/.local/share/renesas/e2_studio/toolchains/gcc_arm/gcc-arm-none-eabi-6-2017-q2-update/arm-none-eabi/include/c++/6.3.1/ext/new_allocator.h **** // Copyright (C) 2001-2016 Free Software Foundation, Inc.
   4:/home/zkmike/.local/share/renesas/e2_studio/toolchains/gcc_arm/gcc-arm-none-eabi-6-2017-q2-update/arm-none-eabi/include/c++/6.3.1/ext/new_allocator.h **** //
   5:/home/zkmike/.local/share/renesas/e2_studio/toolchains/gcc_arm/gcc-arm-none-eabi-6-2017-q2-update/arm-none-eabi/include/c++/6.3.1/ext/new_allocator.h **** // This file is part of the GNU ISO C++ Library.  This library is free
   6:/home/zkmike/.local/share/renesas/e2_studio/toolchains/gcc_arm/gcc-arm-none-eabi-6-2017-q2-update/arm-none-eabi/include/c++/6.3.1/ext/new_allocator.h **** // software; you can redistribute it and/or modify it under the
   7:/home/zkmike/.local/share/renesas/e2_studio/toolchains/gcc_arm/gcc-arm-none-eabi-6-2017-q2-update/arm-none-eabi/include/c++/6.3.1/ext/new_allocator.h **** // terms of the GNU General Public License as published by the
   8:/home/zkmike/.local/share/renesas/e2_studio/toolchains/gcc_arm/gcc-arm-none-eabi-6-2017-q2-update/arm-none-eabi/include/c++/6.3.1/ext/new_allocator.h **** // Free Software Foundation; either version 3, or (at your option)
   9:/home/zkmike/.local/share/renesas/e2_studio/toolchains/gcc_arm/gcc-arm-none-eabi-6-2017-q2-update/arm-none-eabi/include/c++/6.3.1/ext/new_allocator.h **** // any later version.
  10:/home/zkmike/.local/share/renesas/e2_studio/toolchains/gcc_arm/gcc-arm-none-eabi-6-2017-q2-update/arm-none-eabi/include/c++/6.3.1/ext/new_allocator.h **** 
  11:/home/zkmike/.local/share/renesas/e2_studio/toolchains/gcc_arm/gcc-arm-none-eabi-6-2017-q2-update/arm-none-eabi/include/c++/6.3.1/ext/new_allocator.h **** // This library is distributed in the hope that it will be useful,
  12:/home/zkmike/.local/share/renesas/e2_studio/toolchains/gcc_arm/gcc-arm-none-eabi-6-2017-q2-update/arm-none-eabi/include/c++/6.3.1/ext/new_allocator.h **** // but WITHOUT ANY WARRANTY; without even the implied warranty of
  13:/home/zkmike/.local/share/renesas/e2_studio/toolchains/gcc_arm/gcc-arm-none-eabi-6-2017-q2-update/arm-none-eabi/include/c++/6.3.1/ext/new_allocator.h **** // MERCHANTABILITY or FITNESS FOR A PARTICULAR PURPOSE.  See the
  14:/home/zkmike/.local/share/renesas/e2_studio/toolchains/gcc_arm/gcc-arm-none-eabi-6-2017-q2-update/arm-none-eabi/include/c++/6.3.1/ext/new_allocator.h **** // GNU General Public License for more details.
  15:/home/zkmike/.local/share/renesas/e2_studio/toolchains/gcc_arm/gcc-arm-none-eabi-6-2017-q2-update/arm-none-eabi/include/c++/6.3.1/ext/new_allocator.h **** 
  16:/home/zkmike/.local/share/renesas/e2_studio/toolchains/gcc_arm/gcc-arm-none-eabi-6-2017-q2-update/arm-none-eabi/include/c++/6.3.1/ext/new_allocator.h **** // Under Section 7 of GPL version 3, you are granted additional
  17:/home/zkmike/.local/share/renesas/e2_studio/toolchains/gcc_arm/gcc-arm-none-eabi-6-2017-q2-update/arm-none-eabi/include/c++/6.3.1/ext/new_allocator.h **** // permissions described in the GCC Runtime Library Exception, version
  18:/home/zkmike/.local/share/renesas/e2_studio/toolchains/gcc_arm/gcc-arm-none-eabi-6-2017-q2-update/arm-none-eabi/include/c++/6.3.1/ext/new_allocator.h **** // 3.1, as published by the Free Software Foundation.
  19:/home/zkmike/.local/share/renesas/e2_studio/toolchains/gcc_arm/gcc-arm-none-eabi-6-2017-q2-update/arm-none-eabi/include/c++/6.3.1/ext/new_allocator.h **** 
  20:/home/zkmike/.local/share/renesas/e2_studio/toolchains/gcc_arm/gcc-arm-none-eabi-6-2017-q2-update/arm-none-eabi/include/c++/6.3.1/ext/new_allocator.h **** // You should have received a copy of the GNU General Public License and
  21:/home/zkmike/.local/share/renesas/e2_studio/toolchains/gcc_arm/gcc-arm-none-eabi-6-2017-q2-update/arm-none-eabi/include/c++/6.3.1/ext/new_allocator.h **** // a copy of the GCC Runtime Library Exception along with this program;
  22:/home/zkmike/.local/share/renesas/e2_studio/toolchains/gcc_arm/gcc-arm-none-eabi-6-2017-q2-update/arm-none-eabi/include/c++/6.3.1/ext/new_allocator.h **** // see the files COPYING3 and COPYING.RUNTIME respectively.  If not, see
  23:/home/zkmike/.local/share/renesas/e2_studio/toolchains/gcc_arm/gcc-arm-none-eabi-6-2017-q2-update/arm-none-eabi/include/c++/6.3.1/ext/new_allocator.h **** // <http://www.gnu.org/licenses/>.
  24:/home/zkmike/.local/share/renesas/e2_studio/toolchains/gcc_arm/gcc-arm-none-eabi-6-2017-q2-update/arm-none-eabi/include/c++/6.3.1/ext/new_allocator.h **** 
  25:/home/zkmike/.local/share/renesas/e2_studio/toolchains/gcc_arm/gcc-arm-none-eabi-6-2017-q2-update/arm-none-eabi/include/c++/6.3.1/ext/new_allocator.h **** /** @file ext/new_allocator.h
  26:/home/zkmike/.local/share/renesas/e2_studio/toolchains/gcc_arm/gcc-arm-none-eabi-6-2017-q2-update/arm-none-eabi/include/c++/6.3.1/ext/new_allocator.h ****  *  This file is a GNU extension to the Standard C++ Library.
  27:/home/zkmike/.local/share/renesas/e2_studio/toolchains/gcc_arm/gcc-arm-none-eabi-6-2017-q2-update/arm-none-eabi/include/c++/6.3.1/ext/new_allocator.h ****  */
  28:/home/zkmike/.local/share/renesas/e2_studio/toolchains/gcc_arm/gcc-arm-none-eabi-6-2017-q2-update/arm-none-eabi/include/c++/6.3.1/ext/new_allocator.h **** 
  29:/home/zkmike/.local/share/renesas/e2_studio/toolchains/gcc_arm/gcc-arm-none-eabi-6-2017-q2-update/arm-none-eabi/include/c++/6.3.1/ext/new_allocator.h **** #ifndef _NEW_ALLOCATOR_H
  30:/home/zkmike/.local/share/renesas/e2_studio/toolchains/gcc_arm/gcc-arm-none-eabi-6-2017-q2-update/arm-none-eabi/include/c++/6.3.1/ext/new_allocator.h **** #define _NEW_ALLOCATOR_H 1
  31:/home/zkmike/.local/share/renesas/e2_studio/toolchains/gcc_arm/gcc-arm-none-eabi-6-2017-q2-update/arm-none-eabi/include/c++/6.3.1/ext/new_allocator.h **** 
  32:/home/zkmike/.local/share/renesas/e2_studio/toolchains/gcc_arm/gcc-arm-none-eabi-6-2017-q2-update/arm-none-eabi/include/c++/6.3.1/ext/new_allocator.h **** #include <bits/c++config.h>
  33:/home/zkmike/.local/share/renesas/e2_studio/toolchains/gcc_arm/gcc-arm-none-eabi-6-2017-q2-update/arm-none-eabi/include/c++/6.3.1/ext/new_allocator.h **** #include <new>
  34:/home/zkmike/.local/share/renesas/e2_studio/toolchains/gcc_arm/gcc-arm-none-eabi-6-2017-q2-update/arm-none-eabi/include/c++/6.3.1/ext/new_allocator.h **** #include <bits/functexcept.h>
  35:/home/zkmike/.local/share/renesas/e2_studio/toolchains/gcc_arm/gcc-arm-none-eabi-6-2017-q2-update/arm-none-eabi/include/c++/6.3.1/ext/new_allocator.h **** #include <bits/move.h>
  36:/home/zkmike/.local/share/renesas/e2_studio/toolchains/gcc_arm/gcc-arm-none-eabi-6-2017-q2-update/arm-none-eabi/include/c++/6.3.1/ext/new_allocator.h **** #if __cplusplus >= 201103L
  37:/home/zkmike/.local/share/renesas/e2_studio/toolchains/gcc_arm/gcc-arm-none-eabi-6-2017-q2-update/arm-none-eabi/include/c++/6.3.1/ext/new_allocator.h **** #include <type_traits>
  38:/home/zkmike/.local/share/renesas/e2_studio/toolchains/gcc_arm/gcc-arm-none-eabi-6-2017-q2-update/arm-none-eabi/include/c++/6.3.1/ext/new_allocator.h **** #endif
  39:/home/zkmike/.local/share/renesas/e2_studio/toolchains/gcc_arm/gcc-arm-none-eabi-6-2017-q2-update/arm-none-eabi/include/c++/6.3.1/ext/new_allocator.h **** 
  40:/home/zkmike/.local/share/renesas/e2_studio/toolchains/gcc_arm/gcc-arm-none-eabi-6-2017-q2-update/arm-none-eabi/include/c++/6.3.1/ext/new_allocator.h **** namespace __gnu_cxx _GLIBCXX_VISIBILITY(default)
  41:/home/zkmike/.local/share/renesas/e2_studio/toolchains/gcc_arm/gcc-arm-none-eabi-6-2017-q2-update/arm-none-eabi/include/c++/6.3.1/ext/new_allocator.h **** {
  42:/home/zkmike/.local/share/renesas/e2_studio/toolchains/gcc_arm/gcc-arm-none-eabi-6-2017-q2-update/arm-none-eabi/include/c++/6.3.1/ext/new_allocator.h **** _GLIBCXX_BEGIN_NAMESPACE_VERSION
  43:/home/zkmike/.local/share/renesas/e2_studio/toolchains/gcc_arm/gcc-arm-none-eabi-6-2017-q2-update/arm-none-eabi/include/c++/6.3.1/ext/new_allocator.h **** 
  44:/home/zkmike/.local/share/renesas/e2_studio/toolchains/gcc_arm/gcc-arm-none-eabi-6-2017-q2-update/arm-none-eabi/include/c++/6.3.1/ext/new_allocator.h ****   using std::size_t;
  45:/home/zkmike/.local/share/renesas/e2_studio/toolchains/gcc_arm/gcc-arm-none-eabi-6-2017-q2-update/arm-none-eabi/include/c++/6.3.1/ext/new_allocator.h ****   using std::ptrdiff_t;
  46:/home/zkmike/.local/share/renesas/e2_studio/toolchains/gcc_arm/gcc-arm-none-eabi-6-2017-q2-update/arm-none-eabi/include/c++/6.3.1/ext/new_allocator.h **** 
  47:/home/zkmike/.local/share/renesas/e2_studio/toolchains/gcc_arm/gcc-arm-none-eabi-6-2017-q2-update/arm-none-eabi/include/c++/6.3.1/ext/new_allocator.h ****   /**
  48:/home/zkmike/.local/share/renesas/e2_studio/toolchains/gcc_arm/gcc-arm-none-eabi-6-2017-q2-update/arm-none-eabi/include/c++/6.3.1/ext/new_allocator.h ****    *  @brief  An allocator that uses global new, as per [20.4].
  49:/home/zkmike/.local/share/renesas/e2_studio/toolchains/gcc_arm/gcc-arm-none-eabi-6-2017-q2-update/arm-none-eabi/include/c++/6.3.1/ext/new_allocator.h ****    *  @ingroup allocators
  50:/home/zkmike/.local/share/renesas/e2_studio/toolchains/gcc_arm/gcc-arm-none-eabi-6-2017-q2-update/arm-none-eabi/include/c++/6.3.1/ext/new_allocator.h ****    *
  51:/home/zkmike/.local/share/renesas/e2_studio/toolchains/gcc_arm/gcc-arm-none-eabi-6-2017-q2-update/arm-none-eabi/include/c++/6.3.1/ext/new_allocator.h ****    *  This is precisely the allocator defined in the C++ Standard. 
  52:/home/zkmike/.local/share/renesas/e2_studio/toolchains/gcc_arm/gcc-arm-none-eabi-6-2017-q2-update/arm-none-eabi/include/c++/6.3.1/ext/new_allocator.h ****    *    - all allocation calls operator new
  53:/home/zkmike/.local/share/renesas/e2_studio/toolchains/gcc_arm/gcc-arm-none-eabi-6-2017-q2-update/arm-none-eabi/include/c++/6.3.1/ext/new_allocator.h ****    *    - all deallocation calls operator delete
  54:/home/zkmike/.local/share/renesas/e2_studio/toolchains/gcc_arm/gcc-arm-none-eabi-6-2017-q2-update/arm-none-eabi/include/c++/6.3.1/ext/new_allocator.h ****    *
  55:/home/zkmike/.local/share/renesas/e2_studio/toolchains/gcc_arm/gcc-arm-none-eabi-6-2017-q2-update/arm-none-eabi/include/c++/6.3.1/ext/new_allocator.h ****    *  @tparam  _Tp  Type of allocated object.
  56:/home/zkmike/.local/share/renesas/e2_studio/toolchains/gcc_arm/gcc-arm-none-eabi-6-2017-q2-update/arm-none-eabi/include/c++/6.3.1/ext/new_allocator.h ****    */
  57:/home/zkmike/.local/share/renesas/e2_studio/toolchains/gcc_arm/gcc-arm-none-eabi-6-2017-q2-update/arm-none-eabi/include/c++/6.3.1/ext/new_allocator.h ****   template<typename _Tp>
  58:/home/zkmike/.local/share/renesas/e2_studio/toolchains/gcc_arm/gcc-arm-none-eabi-6-2017-q2-update/arm-none-eabi/include/c++/6.3.1/ext/new_allocator.h ****     class new_allocator
  59:/home/zkmike/.local/share/renesas/e2_studio/toolchains/gcc_arm/gcc-arm-none-eabi-6-2017-q2-update/arm-none-eabi/include/c++/6.3.1/ext/new_allocator.h ****     {
  60:/home/zkmike/.local/share/renesas/e2_studio/toolchains/gcc_arm/gcc-arm-none-eabi-6-2017-q2-update/arm-none-eabi/include/c++/6.3.1/ext/new_allocator.h ****     public:
  61:/home/zkmike/.local/share/renesas/e2_studio/toolchains/gcc_arm/gcc-arm-none-eabi-6-2017-q2-update/arm-none-eabi/include/c++/6.3.1/ext/new_allocator.h ****       typedef size_t     size_type;
  62:/home/zkmike/.local/share/renesas/e2_studio/toolchains/gcc_arm/gcc-arm-none-eabi-6-2017-q2-update/arm-none-eabi/include/c++/6.3.1/ext/new_allocator.h ****       typedef ptrdiff_t  difference_type;
  63:/home/zkmike/.local/share/renesas/e2_studio/toolchains/gcc_arm/gcc-arm-none-eabi-6-2017-q2-update/arm-none-eabi/include/c++/6.3.1/ext/new_allocator.h ****       typedef _Tp*       pointer;
  64:/home/zkmike/.local/share/renesas/e2_studio/toolchains/gcc_arm/gcc-arm-none-eabi-6-2017-q2-update/arm-none-eabi/include/c++/6.3.1/ext/new_allocator.h ****       typedef const _Tp* const_pointer;
  65:/home/zkmike/.local/share/renesas/e2_studio/toolchains/gcc_arm/gcc-arm-none-eabi-6-2017-q2-update/arm-none-eabi/include/c++/6.3.1/ext/new_allocator.h ****       typedef _Tp&       reference;
  66:/home/zkmike/.local/share/renesas/e2_studio/toolchains/gcc_arm/gcc-arm-none-eabi-6-2017-q2-update/arm-none-eabi/include/c++/6.3.1/ext/new_allocator.h ****       typedef const _Tp& const_reference;
  67:/home/zkmike/.local/share/renesas/e2_studio/toolchains/gcc_arm/gcc-arm-none-eabi-6-2017-q2-update/arm-none-eabi/include/c++/6.3.1/ext/new_allocator.h ****       typedef _Tp        value_type;
  68:/home/zkmike/.local/share/renesas/e2_studio/toolchains/gcc_arm/gcc-arm-none-eabi-6-2017-q2-update/arm-none-eabi/include/c++/6.3.1/ext/new_allocator.h **** 
  69:/home/zkmike/.local/share/renesas/e2_studio/toolchains/gcc_arm/gcc-arm-none-eabi-6-2017-q2-update/arm-none-eabi/include/c++/6.3.1/ext/new_allocator.h ****       template<typename _Tp1>
  70:/home/zkmike/.local/share/renesas/e2_studio/toolchains/gcc_arm/gcc-arm-none-eabi-6-2017-q2-update/arm-none-eabi/include/c++/6.3.1/ext/new_allocator.h ****         struct rebind
  71:/home/zkmike/.local/share/renesas/e2_studio/toolchains/gcc_arm/gcc-arm-none-eabi-6-2017-q2-update/arm-none-eabi/include/c++/6.3.1/ext/new_allocator.h ****         { typedef new_allocator<_Tp1> other; };
  72:/home/zkmike/.local/share/renesas/e2_studio/toolchains/gcc_arm/gcc-arm-none-eabi-6-2017-q2-update/arm-none-eabi/include/c++/6.3.1/ext/new_allocator.h **** 
  73:/home/zkmike/.local/share/renesas/e2_studio/toolchains/gcc_arm/gcc-arm-none-eabi-6-2017-q2-update/arm-none-eabi/include/c++/6.3.1/ext/new_allocator.h **** #if __cplusplus >= 201103L
  74:/home/zkmike/.local/share/renesas/e2_studio/toolchains/gcc_arm/gcc-arm-none-eabi-6-2017-q2-update/arm-none-eabi/include/c++/6.3.1/ext/new_allocator.h ****       // _GLIBCXX_RESOLVE_LIB_DEFECTS
  75:/home/zkmike/.local/share/renesas/e2_studio/toolchains/gcc_arm/gcc-arm-none-eabi-6-2017-q2-update/arm-none-eabi/include/c++/6.3.1/ext/new_allocator.h ****       // 2103. propagate_on_container_move_assignment
  76:/home/zkmike/.local/share/renesas/e2_studio/toolchains/gcc_arm/gcc-arm-none-eabi-6-2017-q2-update/arm-none-eabi/include/c++/6.3.1/ext/new_allocator.h ****       typedef std::true_type propagate_on_container_move_assignment;
  77:/home/zkmike/.local/share/renesas/e2_studio/toolchains/gcc_arm/gcc-arm-none-eabi-6-2017-q2-update/arm-none-eabi/include/c++/6.3.1/ext/new_allocator.h **** #endif
  78:/home/zkmike/.local/share/renesas/e2_studio/toolchains/gcc_arm/gcc-arm-none-eabi-6-2017-q2-update/arm-none-eabi/include/c++/6.3.1/ext/new_allocator.h **** 
  79:/home/zkmike/.local/share/renesas/e2_studio/toolchains/gcc_arm/gcc-arm-none-eabi-6-2017-q2-update/arm-none-eabi/include/c++/6.3.1/ext/new_allocator.h ****       new_allocator() _GLIBCXX_USE_NOEXCEPT { }
  80:/home/zkmike/.local/share/renesas/e2_studio/toolchains/gcc_arm/gcc-arm-none-eabi-6-2017-q2-update/arm-none-eabi/include/c++/6.3.1/ext/new_allocator.h **** 
  81:/home/zkmike/.local/share/renesas/e2_studio/toolchains/gcc_arm/gcc-arm-none-eabi-6-2017-q2-update/arm-none-eabi/include/c++/6.3.1/ext/new_allocator.h ****       new_allocator(const new_allocator&) _GLIBCXX_USE_NOEXCEPT { }
  82:/home/zkmike/.local/share/renesas/e2_studio/toolchains/gcc_arm/gcc-arm-none-eabi-6-2017-q2-update/arm-none-eabi/include/c++/6.3.1/ext/new_allocator.h **** 
  83:/home/zkmike/.local/share/renesas/e2_studio/toolchains/gcc_arm/gcc-arm-none-eabi-6-2017-q2-update/arm-none-eabi/include/c++/6.3.1/ext/new_allocator.h ****       template<typename _Tp1>
  84:/home/zkmike/.local/share/renesas/e2_studio/toolchains/gcc_arm/gcc-arm-none-eabi-6-2017-q2-update/arm-none-eabi/include/c++/6.3.1/ext/new_allocator.h ****         new_allocator(const new_allocator<_Tp1>&) _GLIBCXX_USE_NOEXCEPT { }
  85:/home/zkmike/.local/share/renesas/e2_studio/toolchains/gcc_arm/gcc-arm-none-eabi-6-2017-q2-update/arm-none-eabi/include/c++/6.3.1/ext/new_allocator.h **** 
  86:/home/zkmike/.local/share/renesas/e2_studio/toolchains/gcc_arm/gcc-arm-none-eabi-6-2017-q2-update/arm-none-eabi/include/c++/6.3.1/ext/new_allocator.h ****       ~new_allocator() _GLIBCXX_USE_NOEXCEPT { }
  87:/home/zkmike/.local/share/renesas/e2_studio/toolchains/gcc_arm/gcc-arm-none-eabi-6-2017-q2-update/arm-none-eabi/include/c++/6.3.1/ext/new_allocator.h **** 
  88:/home/zkmike/.local/share/renesas/e2_studio/toolchains/gcc_arm/gcc-arm-none-eabi-6-2017-q2-update/arm-none-eabi/include/c++/6.3.1/ext/new_allocator.h ****       pointer
  89:/home/zkmike/.local/share/renesas/e2_studio/toolchains/gcc_arm/gcc-arm-none-eabi-6-2017-q2-update/arm-none-eabi/include/c++/6.3.1/ext/new_allocator.h ****       address(reference __x) const _GLIBCXX_NOEXCEPT
  90:/home/zkmike/.local/share/renesas/e2_studio/toolchains/gcc_arm/gcc-arm-none-eabi-6-2017-q2-update/arm-none-eabi/include/c++/6.3.1/ext/new_allocator.h ****       { return std::__addressof(__x); }
  91:/home/zkmike/.local/share/renesas/e2_studio/toolchains/gcc_arm/gcc-arm-none-eabi-6-2017-q2-update/arm-none-eabi/include/c++/6.3.1/ext/new_allocator.h **** 
  92:/home/zkmike/.local/share/renesas/e2_studio/toolchains/gcc_arm/gcc-arm-none-eabi-6-2017-q2-update/arm-none-eabi/include/c++/6.3.1/ext/new_allocator.h ****       const_pointer
  93:/home/zkmike/.local/share/renesas/e2_studio/toolchains/gcc_arm/gcc-arm-none-eabi-6-2017-q2-update/arm-none-eabi/include/c++/6.3.1/ext/new_allocator.h ****       address(const_reference __x) const _GLIBCXX_NOEXCEPT
  94:/home/zkmike/.local/share/renesas/e2_studio/toolchains/gcc_arm/gcc-arm-none-eabi-6-2017-q2-update/arm-none-eabi/include/c++/6.3.1/ext/new_allocator.h ****       { return std::__addressof(__x); }
  95:/home/zkmike/.local/share/renesas/e2_studio/toolchains/gcc_arm/gcc-arm-none-eabi-6-2017-q2-update/arm-none-eabi/include/c++/6.3.1/ext/new_allocator.h **** 
  96:/home/zkmike/.local/share/renesas/e2_studio/toolchains/gcc_arm/gcc-arm-none-eabi-6-2017-q2-update/arm-none-eabi/include/c++/6.3.1/ext/new_allocator.h ****       // NB: __n is permitted to be 0.  The C++ standard says nothing
  97:/home/zkmike/.local/share/renesas/e2_studio/toolchains/gcc_arm/gcc-arm-none-eabi-6-2017-q2-update/arm-none-eabi/include/c++/6.3.1/ext/new_allocator.h ****       // about what the return value is when __n == 0.
  98:/home/zkmike/.local/share/renesas/e2_studio/toolchains/gcc_arm/gcc-arm-none-eabi-6-2017-q2-update/arm-none-eabi/include/c++/6.3.1/ext/new_allocator.h ****       pointer
  99:/home/zkmike/.local/share/renesas/e2_studio/toolchains/gcc_arm/gcc-arm-none-eabi-6-2017-q2-update/arm-none-eabi/include/c++/6.3.1/ext/new_allocator.h ****       allocate(size_type __n, const void* = 0)
 100:/home/zkmike/.local/share/renesas/e2_studio/toolchains/gcc_arm/gcc-arm-none-eabi-6-2017-q2-update/arm-none-eabi/include/c++/6.3.1/ext/new_allocator.h ****       { 
 101:/home/zkmike/.local/share/renesas/e2_studio/toolchains/gcc_arm/gcc-arm-none-eabi-6-2017-q2-update/arm-none-eabi/include/c++/6.3.1/ext/new_allocator.h **** 	if (__n > this->max_size())
 102:/home/zkmike/.local/share/renesas/e2_studio/toolchains/gcc_arm/gcc-arm-none-eabi-6-2017-q2-update/arm-none-eabi/include/c++/6.3.1/ext/new_allocator.h **** 	  std::__throw_bad_alloc();
 103:/home/zkmike/.local/share/renesas/e2_studio/toolchains/gcc_arm/gcc-arm-none-eabi-6-2017-q2-update/arm-none-eabi/include/c++/6.3.1/ext/new_allocator.h **** 
 104:/home/zkmike/.local/share/renesas/e2_studio/toolchains/gcc_arm/gcc-arm-none-eabi-6-2017-q2-update/arm-none-eabi/include/c++/6.3.1/ext/new_allocator.h **** 	return static_cast<_Tp*>(::operator new(__n * sizeof(_Tp)));
 2315              		.loc 12 104 0
 2316 00d4 1000A0E3 		mov	r0, #16
 2317 00d8 FEFFFFEB 		bl	_Znwj
 2318              	.LVL219:
 2319              	.LEHE21:
 2320              	.LBE1338:
 2321              	.LBE1337:
 2322              	.LBE1336:
 2323              	.LBE1335:
 2324              	.LBE1334:
 185:/home/zkmike/.local/share/renesas/e2_studio/toolchains/gcc_arm/gcc-arm-none-eabi-6-2017-q2-update/arm-none-eabi/include/c++/6.3.1/bits/stl_vector.h **** 	this->_M_impl._M_finish = this->_M_impl._M_start;
 2325              		.loc 11 185 0
 2326 00dc 000084E5 		str	r0, [r4]
 186:/home/zkmike/.local/share/renesas/e2_studio/toolchains/gcc_arm/gcc-arm-none-eabi-6-2017-q2-update/arm-none-eabi/include/c++/6.3.1/bits/stl_vector.h **** 	this->_M_impl._M_end_of_storage = this->_M_impl._M_start + __n;
 2327              		.loc 11 186 0
 2328 00e0 040084E5 		str	r0, [r4, #4]
 187:/home/zkmike/.local/share/renesas/e2_studio/toolchains/gcc_arm/gcc-arm-none-eabi-6-2017-q2-update/arm-none-eabi/include/c++/6.3.1/bits/stl_vector.h ****       }
 2329              		.loc 11 187 0
 2330 00e4 103080E2 		add	r3, r0, #16
 2331 00e8 083084E5 		str	r3, [r4, #8]
 2332              	.LVL220:
 2333              	.LBE1333:
 2334              	.LBE1332:
 2335              	.LBE1329:
 2336              	.LBB1339:
 2337              	.LBB1340:
 782:/home/zkmike/.local/share/renesas/e2_studio/toolchains/gcc_arm/gcc-arm-none-eabi-6-2017-q2-update/arm-none-eabi/include/c++/6.3.1/bits/stl_vector.h **** 
 783:/home/zkmike/.local/share/renesas/e2_studio/toolchains/gcc_arm/gcc-arm-none-eabi-6-2017-q2-update/arm-none-eabi/include/c++/6.3.1/bits/stl_vector.h ****       /**
 784:/home/zkmike/.local/share/renesas/e2_studio/toolchains/gcc_arm/gcc-arm-none-eabi-6-2017-q2-update/arm-none-eabi/include/c++/6.3.1/bits/stl_vector.h ****        *  @brief  Subscript access to the data contained in the %vector.
 785:/home/zkmike/.local/share/renesas/e2_studio/toolchains/gcc_arm/gcc-arm-none-eabi-6-2017-q2-update/arm-none-eabi/include/c++/6.3.1/bits/stl_vector.h ****        *  @param __n The index of the element for which data should be
 786:/home/zkmike/.local/share/renesas/e2_studio/toolchains/gcc_arm/gcc-arm-none-eabi-6-2017-q2-update/arm-none-eabi/include/c++/6.3.1/bits/stl_vector.h ****        *  accessed.
 787:/home/zkmike/.local/share/renesas/e2_studio/toolchains/gcc_arm/gcc-arm-none-eabi-6-2017-q2-update/arm-none-eabi/include/c++/6.3.1/bits/stl_vector.h ****        *  @return  Read-only (constant) reference to data.
 788:/home/zkmike/.local/share/renesas/e2_studio/toolchains/gcc_arm/gcc-arm-none-eabi-6-2017-q2-update/arm-none-eabi/include/c++/6.3.1/bits/stl_vector.h ****        *
 789:/home/zkmike/.local/share/renesas/e2_studio/toolchains/gcc_arm/gcc-arm-none-eabi-6-2017-q2-update/arm-none-eabi/include/c++/6.3.1/bits/stl_vector.h ****        *  This operator allows for easy, array-style, data access.
 790:/home/zkmike/.local/share/renesas/e2_studio/toolchains/gcc_arm/gcc-arm-none-eabi-6-2017-q2-update/arm-none-eabi/include/c++/6.3.1/bits/stl_vector.h ****        *  Note that data access with this operator is unchecked and
 791:/home/zkmike/.local/share/renesas/e2_studio/toolchains/gcc_arm/gcc-arm-none-eabi-6-2017-q2-update/arm-none-eabi/include/c++/6.3.1/bits/stl_vector.h ****        *  out_of_range lookups are not defined. (For checked lookups
 792:/home/zkmike/.local/share/renesas/e2_studio/toolchains/gcc_arm/gcc-arm-none-eabi-6-2017-q2-update/arm-none-eabi/include/c++/6.3.1/bits/stl_vector.h ****        *  see at().)
 793:/home/zkmike/.local/share/renesas/e2_studio/toolchains/gcc_arm/gcc-arm-none-eabi-6-2017-q2-update/arm-none-eabi/include/c++/6.3.1/bits/stl_vector.h ****        */
 794:/home/zkmike/.local/share/renesas/e2_studio/toolchains/gcc_arm/gcc-arm-none-eabi-6-2017-q2-update/arm-none-eabi/include/c++/6.3.1/bits/stl_vector.h ****       const_reference
 795:/home/zkmike/.local/share/renesas/e2_studio/toolchains/gcc_arm/gcc-arm-none-eabi-6-2017-q2-update/arm-none-eabi/include/c++/6.3.1/bits/stl_vector.h ****       operator[](size_type __n) const _GLIBCXX_NOEXCEPT
 796:/home/zkmike/.local/share/renesas/e2_studio/toolchains/gcc_arm/gcc-arm-none-eabi-6-2017-q2-update/arm-none-eabi/include/c++/6.3.1/bits/stl_vector.h ****       { return *(this->_M_impl._M_start + __n); }
 797:/home/zkmike/.local/share/renesas/e2_studio/toolchains/gcc_arm/gcc-arm-none-eabi-6-2017-q2-update/arm-none-eabi/include/c++/6.3.1/bits/stl_vector.h **** 
 798:/home/zkmike/.local/share/renesas/e2_studio/toolchains/gcc_arm/gcc-arm-none-eabi-6-2017-q2-update/arm-none-eabi/include/c++/6.3.1/bits/stl_vector.h ****     protected:
 799:/home/zkmike/.local/share/renesas/e2_studio/toolchains/gcc_arm/gcc-arm-none-eabi-6-2017-q2-update/arm-none-eabi/include/c++/6.3.1/bits/stl_vector.h ****       /// Safety check used only from at().
 800:/home/zkmike/.local/share/renesas/e2_studio/toolchains/gcc_arm/gcc-arm-none-eabi-6-2017-q2-update/arm-none-eabi/include/c++/6.3.1/bits/stl_vector.h ****       void
 801:/home/zkmike/.local/share/renesas/e2_studio/toolchains/gcc_arm/gcc-arm-none-eabi-6-2017-q2-update/arm-none-eabi/include/c++/6.3.1/bits/stl_vector.h ****       _M_range_check(size_type __n) const
 802:/home/zkmike/.local/share/renesas/e2_studio/toolchains/gcc_arm/gcc-arm-none-eabi-6-2017-q2-update/arm-none-eabi/include/c++/6.3.1/bits/stl_vector.h ****       {
 803:/home/zkmike/.local/share/renesas/e2_studio/toolchains/gcc_arm/gcc-arm-none-eabi-6-2017-q2-update/arm-none-eabi/include/c++/6.3.1/bits/stl_vector.h **** 	if (__n >= this->size())
 804:/home/zkmike/.local/share/renesas/e2_studio/toolchains/gcc_arm/gcc-arm-none-eabi-6-2017-q2-update/arm-none-eabi/include/c++/6.3.1/bits/stl_vector.h **** 	  __throw_out_of_range_fmt(__N("vector::_M_range_check: __n "
 805:/home/zkmike/.local/share/renesas/e2_studio/toolchains/gcc_arm/gcc-arm-none-eabi-6-2017-q2-update/arm-none-eabi/include/c++/6.3.1/bits/stl_vector.h **** 				       "(which is %zu) >= this->size() "
 806:/home/zkmike/.local/share/renesas/e2_studio/toolchains/gcc_arm/gcc-arm-none-eabi-6-2017-q2-update/arm-none-eabi/include/c++/6.3.1/bits/stl_vector.h **** 				       "(which is %zu)"),
 807:/home/zkmike/.local/share/renesas/e2_studio/toolchains/gcc_arm/gcc-arm-none-eabi-6-2017-q2-update/arm-none-eabi/include/c++/6.3.1/bits/stl_vector.h **** 				   __n, this->size());
 808:/home/zkmike/.local/share/renesas/e2_studio/toolchains/gcc_arm/gcc-arm-none-eabi-6-2017-q2-update/arm-none-eabi/include/c++/6.3.1/bits/stl_vector.h ****       }
 809:/home/zkmike/.local/share/renesas/e2_studio/toolchains/gcc_arm/gcc-arm-none-eabi-6-2017-q2-update/arm-none-eabi/include/c++/6.3.1/bits/stl_vector.h **** 
 810:/home/zkmike/.local/share/renesas/e2_studio/toolchains/gcc_arm/gcc-arm-none-eabi-6-2017-q2-update/arm-none-eabi/include/c++/6.3.1/bits/stl_vector.h ****     public:
 811:/home/zkmike/.local/share/renesas/e2_studio/toolchains/gcc_arm/gcc-arm-none-eabi-6-2017-q2-update/arm-none-eabi/include/c++/6.3.1/bits/stl_vector.h ****       /**
 812:/home/zkmike/.local/share/renesas/e2_studio/toolchains/gcc_arm/gcc-arm-none-eabi-6-2017-q2-update/arm-none-eabi/include/c++/6.3.1/bits/stl_vector.h ****        *  @brief  Provides access to the data contained in the %vector.
 813:/home/zkmike/.local/share/renesas/e2_studio/toolchains/gcc_arm/gcc-arm-none-eabi-6-2017-q2-update/arm-none-eabi/include/c++/6.3.1/bits/stl_vector.h ****        *  @param __n The index of the element for which data should be
 814:/home/zkmike/.local/share/renesas/e2_studio/toolchains/gcc_arm/gcc-arm-none-eabi-6-2017-q2-update/arm-none-eabi/include/c++/6.3.1/bits/stl_vector.h ****        *  accessed.
 815:/home/zkmike/.local/share/renesas/e2_studio/toolchains/gcc_arm/gcc-arm-none-eabi-6-2017-q2-update/arm-none-eabi/include/c++/6.3.1/bits/stl_vector.h ****        *  @return  Read/write reference to data.
 816:/home/zkmike/.local/share/renesas/e2_studio/toolchains/gcc_arm/gcc-arm-none-eabi-6-2017-q2-update/arm-none-eabi/include/c++/6.3.1/bits/stl_vector.h ****        *  @throw  std::out_of_range  If @a __n is an invalid index.
 817:/home/zkmike/.local/share/renesas/e2_studio/toolchains/gcc_arm/gcc-arm-none-eabi-6-2017-q2-update/arm-none-eabi/include/c++/6.3.1/bits/stl_vector.h ****        *
 818:/home/zkmike/.local/share/renesas/e2_studio/toolchains/gcc_arm/gcc-arm-none-eabi-6-2017-q2-update/arm-none-eabi/include/c++/6.3.1/bits/stl_vector.h ****        *  This function provides for safer data access.  The parameter
 819:/home/zkmike/.local/share/renesas/e2_studio/toolchains/gcc_arm/gcc-arm-none-eabi-6-2017-q2-update/arm-none-eabi/include/c++/6.3.1/bits/stl_vector.h ****        *  is first checked that it is in the range of the vector.  The
 820:/home/zkmike/.local/share/renesas/e2_studio/toolchains/gcc_arm/gcc-arm-none-eabi-6-2017-q2-update/arm-none-eabi/include/c++/6.3.1/bits/stl_vector.h ****        *  function throws out_of_range if the check fails.
 821:/home/zkmike/.local/share/renesas/e2_studio/toolchains/gcc_arm/gcc-arm-none-eabi-6-2017-q2-update/arm-none-eabi/include/c++/6.3.1/bits/stl_vector.h ****        */
 822:/home/zkmike/.local/share/renesas/e2_studio/toolchains/gcc_arm/gcc-arm-none-eabi-6-2017-q2-update/arm-none-eabi/include/c++/6.3.1/bits/stl_vector.h ****       reference
 823:/home/zkmike/.local/share/renesas/e2_studio/toolchains/gcc_arm/gcc-arm-none-eabi-6-2017-q2-update/arm-none-eabi/include/c++/6.3.1/bits/stl_vector.h ****       at(size_type __n)
 824:/home/zkmike/.local/share/renesas/e2_studio/toolchains/gcc_arm/gcc-arm-none-eabi-6-2017-q2-update/arm-none-eabi/include/c++/6.3.1/bits/stl_vector.h ****       {
 825:/home/zkmike/.local/share/renesas/e2_studio/toolchains/gcc_arm/gcc-arm-none-eabi-6-2017-q2-update/arm-none-eabi/include/c++/6.3.1/bits/stl_vector.h **** 	_M_range_check(__n);
 826:/home/zkmike/.local/share/renesas/e2_studio/toolchains/gcc_arm/gcc-arm-none-eabi-6-2017-q2-update/arm-none-eabi/include/c++/6.3.1/bits/stl_vector.h **** 	return (*this)[__n]; 
 827:/home/zkmike/.local/share/renesas/e2_studio/toolchains/gcc_arm/gcc-arm-none-eabi-6-2017-q2-update/arm-none-eabi/include/c++/6.3.1/bits/stl_vector.h ****       }
 828:/home/zkmike/.local/share/renesas/e2_studio/toolchains/gcc_arm/gcc-arm-none-eabi-6-2017-q2-update/arm-none-eabi/include/c++/6.3.1/bits/stl_vector.h **** 
 829:/home/zkmike/.local/share/renesas/e2_studio/toolchains/gcc_arm/gcc-arm-none-eabi-6-2017-q2-update/arm-none-eabi/include/c++/6.3.1/bits/stl_vector.h ****       /**
 830:/home/zkmike/.local/share/renesas/e2_studio/toolchains/gcc_arm/gcc-arm-none-eabi-6-2017-q2-update/arm-none-eabi/include/c++/6.3.1/bits/stl_vector.h ****        *  @brief  Provides access to the data contained in the %vector.
 831:/home/zkmike/.local/share/renesas/e2_studio/toolchains/gcc_arm/gcc-arm-none-eabi-6-2017-q2-update/arm-none-eabi/include/c++/6.3.1/bits/stl_vector.h ****        *  @param __n The index of the element for which data should be
 832:/home/zkmike/.local/share/renesas/e2_studio/toolchains/gcc_arm/gcc-arm-none-eabi-6-2017-q2-update/arm-none-eabi/include/c++/6.3.1/bits/stl_vector.h ****        *  accessed.
 833:/home/zkmike/.local/share/renesas/e2_studio/toolchains/gcc_arm/gcc-arm-none-eabi-6-2017-q2-update/arm-none-eabi/include/c++/6.3.1/bits/stl_vector.h ****        *  @return  Read-only (constant) reference to data.
 834:/home/zkmike/.local/share/renesas/e2_studio/toolchains/gcc_arm/gcc-arm-none-eabi-6-2017-q2-update/arm-none-eabi/include/c++/6.3.1/bits/stl_vector.h ****        *  @throw  std::out_of_range  If @a __n is an invalid index.
 835:/home/zkmike/.local/share/renesas/e2_studio/toolchains/gcc_arm/gcc-arm-none-eabi-6-2017-q2-update/arm-none-eabi/include/c++/6.3.1/bits/stl_vector.h ****        *
 836:/home/zkmike/.local/share/renesas/e2_studio/toolchains/gcc_arm/gcc-arm-none-eabi-6-2017-q2-update/arm-none-eabi/include/c++/6.3.1/bits/stl_vector.h ****        *  This function provides for safer data access.  The parameter
 837:/home/zkmike/.local/share/renesas/e2_studio/toolchains/gcc_arm/gcc-arm-none-eabi-6-2017-q2-update/arm-none-eabi/include/c++/6.3.1/bits/stl_vector.h ****        *  is first checked that it is in the range of the vector.  The
 838:/home/zkmike/.local/share/renesas/e2_studio/toolchains/gcc_arm/gcc-arm-none-eabi-6-2017-q2-update/arm-none-eabi/include/c++/6.3.1/bits/stl_vector.h ****        *  function throws out_of_range if the check fails.
 839:/home/zkmike/.local/share/renesas/e2_studio/toolchains/gcc_arm/gcc-arm-none-eabi-6-2017-q2-update/arm-none-eabi/include/c++/6.3.1/bits/stl_vector.h ****        */
 840:/home/zkmike/.local/share/renesas/e2_studio/toolchains/gcc_arm/gcc-arm-none-eabi-6-2017-q2-update/arm-none-eabi/include/c++/6.3.1/bits/stl_vector.h ****       const_reference
 841:/home/zkmike/.local/share/renesas/e2_studio/toolchains/gcc_arm/gcc-arm-none-eabi-6-2017-q2-update/arm-none-eabi/include/c++/6.3.1/bits/stl_vector.h ****       at(size_type __n) const
 842:/home/zkmike/.local/share/renesas/e2_studio/toolchains/gcc_arm/gcc-arm-none-eabi-6-2017-q2-update/arm-none-eabi/include/c++/6.3.1/bits/stl_vector.h ****       {
 843:/home/zkmike/.local/share/renesas/e2_studio/toolchains/gcc_arm/gcc-arm-none-eabi-6-2017-q2-update/arm-none-eabi/include/c++/6.3.1/bits/stl_vector.h **** 	_M_range_check(__n);
 844:/home/zkmike/.local/share/renesas/e2_studio/toolchains/gcc_arm/gcc-arm-none-eabi-6-2017-q2-update/arm-none-eabi/include/c++/6.3.1/bits/stl_vector.h **** 	return (*this)[__n];
 845:/home/zkmike/.local/share/renesas/e2_studio/toolchains/gcc_arm/gcc-arm-none-eabi-6-2017-q2-update/arm-none-eabi/include/c++/6.3.1/bits/stl_vector.h ****       }
 846:/home/zkmike/.local/share/renesas/e2_studio/toolchains/gcc_arm/gcc-arm-none-eabi-6-2017-q2-update/arm-none-eabi/include/c++/6.3.1/bits/stl_vector.h **** 
 847:/home/zkmike/.local/share/renesas/e2_studio/toolchains/gcc_arm/gcc-arm-none-eabi-6-2017-q2-update/arm-none-eabi/include/c++/6.3.1/bits/stl_vector.h ****       /**
 848:/home/zkmike/.local/share/renesas/e2_studio/toolchains/gcc_arm/gcc-arm-none-eabi-6-2017-q2-update/arm-none-eabi/include/c++/6.3.1/bits/stl_vector.h ****        *  Returns a read/write reference to the data at the first
 849:/home/zkmike/.local/share/renesas/e2_studio/toolchains/gcc_arm/gcc-arm-none-eabi-6-2017-q2-update/arm-none-eabi/include/c++/6.3.1/bits/stl_vector.h ****        *  element of the %vector.
 850:/home/zkmike/.local/share/renesas/e2_studio/toolchains/gcc_arm/gcc-arm-none-eabi-6-2017-q2-update/arm-none-eabi/include/c++/6.3.1/bits/stl_vector.h ****        */
 851:/home/zkmike/.local/share/renesas/e2_studio/toolchains/gcc_arm/gcc-arm-none-eabi-6-2017-q2-update/arm-none-eabi/include/c++/6.3.1/bits/stl_vector.h ****       reference
 852:/home/zkmike/.local/share/renesas/e2_studio/toolchains/gcc_arm/gcc-arm-none-eabi-6-2017-q2-update/arm-none-eabi/include/c++/6.3.1/bits/stl_vector.h ****       front() _GLIBCXX_NOEXCEPT
 853:/home/zkmike/.local/share/renesas/e2_studio/toolchains/gcc_arm/gcc-arm-none-eabi-6-2017-q2-update/arm-none-eabi/include/c++/6.3.1/bits/stl_vector.h ****       { return *begin(); }
 854:/home/zkmike/.local/share/renesas/e2_studio/toolchains/gcc_arm/gcc-arm-none-eabi-6-2017-q2-update/arm-none-eabi/include/c++/6.3.1/bits/stl_vector.h **** 
 855:/home/zkmike/.local/share/renesas/e2_studio/toolchains/gcc_arm/gcc-arm-none-eabi-6-2017-q2-update/arm-none-eabi/include/c++/6.3.1/bits/stl_vector.h ****       /**
 856:/home/zkmike/.local/share/renesas/e2_studio/toolchains/gcc_arm/gcc-arm-none-eabi-6-2017-q2-update/arm-none-eabi/include/c++/6.3.1/bits/stl_vector.h ****        *  Returns a read-only (constant) reference to the data at the first
 857:/home/zkmike/.local/share/renesas/e2_studio/toolchains/gcc_arm/gcc-arm-none-eabi-6-2017-q2-update/arm-none-eabi/include/c++/6.3.1/bits/stl_vector.h ****        *  element of the %vector.
 858:/home/zkmike/.local/share/renesas/e2_studio/toolchains/gcc_arm/gcc-arm-none-eabi-6-2017-q2-update/arm-none-eabi/include/c++/6.3.1/bits/stl_vector.h ****        */
 859:/home/zkmike/.local/share/renesas/e2_studio/toolchains/gcc_arm/gcc-arm-none-eabi-6-2017-q2-update/arm-none-eabi/include/c++/6.3.1/bits/stl_vector.h ****       const_reference
 860:/home/zkmike/.local/share/renesas/e2_studio/toolchains/gcc_arm/gcc-arm-none-eabi-6-2017-q2-update/arm-none-eabi/include/c++/6.3.1/bits/stl_vector.h ****       front() const _GLIBCXX_NOEXCEPT
 861:/home/zkmike/.local/share/renesas/e2_studio/toolchains/gcc_arm/gcc-arm-none-eabi-6-2017-q2-update/arm-none-eabi/include/c++/6.3.1/bits/stl_vector.h ****       { return *begin(); }
 862:/home/zkmike/.local/share/renesas/e2_studio/toolchains/gcc_arm/gcc-arm-none-eabi-6-2017-q2-update/arm-none-eabi/include/c++/6.3.1/bits/stl_vector.h **** 
 863:/home/zkmike/.local/share/renesas/e2_studio/toolchains/gcc_arm/gcc-arm-none-eabi-6-2017-q2-update/arm-none-eabi/include/c++/6.3.1/bits/stl_vector.h ****       /**
 864:/home/zkmike/.local/share/renesas/e2_studio/toolchains/gcc_arm/gcc-arm-none-eabi-6-2017-q2-update/arm-none-eabi/include/c++/6.3.1/bits/stl_vector.h ****        *  Returns a read/write reference to the data at the last
 865:/home/zkmike/.local/share/renesas/e2_studio/toolchains/gcc_arm/gcc-arm-none-eabi-6-2017-q2-update/arm-none-eabi/include/c++/6.3.1/bits/stl_vector.h ****        *  element of the %vector.
 866:/home/zkmike/.local/share/renesas/e2_studio/toolchains/gcc_arm/gcc-arm-none-eabi-6-2017-q2-update/arm-none-eabi/include/c++/6.3.1/bits/stl_vector.h ****        */
 867:/home/zkmike/.local/share/renesas/e2_studio/toolchains/gcc_arm/gcc-arm-none-eabi-6-2017-q2-update/arm-none-eabi/include/c++/6.3.1/bits/stl_vector.h ****       reference
 868:/home/zkmike/.local/share/renesas/e2_studio/toolchains/gcc_arm/gcc-arm-none-eabi-6-2017-q2-update/arm-none-eabi/include/c++/6.3.1/bits/stl_vector.h ****       back() _GLIBCXX_NOEXCEPT
 869:/home/zkmike/.local/share/renesas/e2_studio/toolchains/gcc_arm/gcc-arm-none-eabi-6-2017-q2-update/arm-none-eabi/include/c++/6.3.1/bits/stl_vector.h ****       { return *(end() - 1); }
 870:/home/zkmike/.local/share/renesas/e2_studio/toolchains/gcc_arm/gcc-arm-none-eabi-6-2017-q2-update/arm-none-eabi/include/c++/6.3.1/bits/stl_vector.h ****       
 871:/home/zkmike/.local/share/renesas/e2_studio/toolchains/gcc_arm/gcc-arm-none-eabi-6-2017-q2-update/arm-none-eabi/include/c++/6.3.1/bits/stl_vector.h ****       /**
 872:/home/zkmike/.local/share/renesas/e2_studio/toolchains/gcc_arm/gcc-arm-none-eabi-6-2017-q2-update/arm-none-eabi/include/c++/6.3.1/bits/stl_vector.h ****        *  Returns a read-only (constant) reference to the data at the
 873:/home/zkmike/.local/share/renesas/e2_studio/toolchains/gcc_arm/gcc-arm-none-eabi-6-2017-q2-update/arm-none-eabi/include/c++/6.3.1/bits/stl_vector.h ****        *  last element of the %vector.
 874:/home/zkmike/.local/share/renesas/e2_studio/toolchains/gcc_arm/gcc-arm-none-eabi-6-2017-q2-update/arm-none-eabi/include/c++/6.3.1/bits/stl_vector.h ****        */
 875:/home/zkmike/.local/share/renesas/e2_studio/toolchains/gcc_arm/gcc-arm-none-eabi-6-2017-q2-update/arm-none-eabi/include/c++/6.3.1/bits/stl_vector.h ****       const_reference
 876:/home/zkmike/.local/share/renesas/e2_studio/toolchains/gcc_arm/gcc-arm-none-eabi-6-2017-q2-update/arm-none-eabi/include/c++/6.3.1/bits/stl_vector.h ****       back() const _GLIBCXX_NOEXCEPT
 877:/home/zkmike/.local/share/renesas/e2_studio/toolchains/gcc_arm/gcc-arm-none-eabi-6-2017-q2-update/arm-none-eabi/include/c++/6.3.1/bits/stl_vector.h ****       { return *(end() - 1); }
 878:/home/zkmike/.local/share/renesas/e2_studio/toolchains/gcc_arm/gcc-arm-none-eabi-6-2017-q2-update/arm-none-eabi/include/c++/6.3.1/bits/stl_vector.h **** 
 879:/home/zkmike/.local/share/renesas/e2_studio/toolchains/gcc_arm/gcc-arm-none-eabi-6-2017-q2-update/arm-none-eabi/include/c++/6.3.1/bits/stl_vector.h ****       // _GLIBCXX_RESOLVE_LIB_DEFECTS
 880:/home/zkmike/.local/share/renesas/e2_studio/toolchains/gcc_arm/gcc-arm-none-eabi-6-2017-q2-update/arm-none-eabi/include/c++/6.3.1/bits/stl_vector.h ****       // DR 464. Suggestion for new member functions in standard containers.
 881:/home/zkmike/.local/share/renesas/e2_studio/toolchains/gcc_arm/gcc-arm-none-eabi-6-2017-q2-update/arm-none-eabi/include/c++/6.3.1/bits/stl_vector.h ****       // data access
 882:/home/zkmike/.local/share/renesas/e2_studio/toolchains/gcc_arm/gcc-arm-none-eabi-6-2017-q2-update/arm-none-eabi/include/c++/6.3.1/bits/stl_vector.h ****       /**
 883:/home/zkmike/.local/share/renesas/e2_studio/toolchains/gcc_arm/gcc-arm-none-eabi-6-2017-q2-update/arm-none-eabi/include/c++/6.3.1/bits/stl_vector.h ****        *   Returns a pointer such that [data(), data() + size()) is a valid
 884:/home/zkmike/.local/share/renesas/e2_studio/toolchains/gcc_arm/gcc-arm-none-eabi-6-2017-q2-update/arm-none-eabi/include/c++/6.3.1/bits/stl_vector.h ****        *   range.  For a non-empty %vector, data() == &front().
 885:/home/zkmike/.local/share/renesas/e2_studio/toolchains/gcc_arm/gcc-arm-none-eabi-6-2017-q2-update/arm-none-eabi/include/c++/6.3.1/bits/stl_vector.h ****        */
 886:/home/zkmike/.local/share/renesas/e2_studio/toolchains/gcc_arm/gcc-arm-none-eabi-6-2017-q2-update/arm-none-eabi/include/c++/6.3.1/bits/stl_vector.h **** #if __cplusplus >= 201103L
 887:/home/zkmike/.local/share/renesas/e2_studio/toolchains/gcc_arm/gcc-arm-none-eabi-6-2017-q2-update/arm-none-eabi/include/c++/6.3.1/bits/stl_vector.h ****       _Tp*
 888:/home/zkmike/.local/share/renesas/e2_studio/toolchains/gcc_arm/gcc-arm-none-eabi-6-2017-q2-update/arm-none-eabi/include/c++/6.3.1/bits/stl_vector.h **** #else
 889:/home/zkmike/.local/share/renesas/e2_studio/toolchains/gcc_arm/gcc-arm-none-eabi-6-2017-q2-update/arm-none-eabi/include/c++/6.3.1/bits/stl_vector.h ****       pointer
 890:/home/zkmike/.local/share/renesas/e2_studio/toolchains/gcc_arm/gcc-arm-none-eabi-6-2017-q2-update/arm-none-eabi/include/c++/6.3.1/bits/stl_vector.h **** #endif
 891:/home/zkmike/.local/share/renesas/e2_studio/toolchains/gcc_arm/gcc-arm-none-eabi-6-2017-q2-update/arm-none-eabi/include/c++/6.3.1/bits/stl_vector.h ****       data() _GLIBCXX_NOEXCEPT
 892:/home/zkmike/.local/share/renesas/e2_studio/toolchains/gcc_arm/gcc-arm-none-eabi-6-2017-q2-update/arm-none-eabi/include/c++/6.3.1/bits/stl_vector.h ****       { return _M_data_ptr(this->_M_impl._M_start); }
 893:/home/zkmike/.local/share/renesas/e2_studio/toolchains/gcc_arm/gcc-arm-none-eabi-6-2017-q2-update/arm-none-eabi/include/c++/6.3.1/bits/stl_vector.h **** 
 894:/home/zkmike/.local/share/renesas/e2_studio/toolchains/gcc_arm/gcc-arm-none-eabi-6-2017-q2-update/arm-none-eabi/include/c++/6.3.1/bits/stl_vector.h **** #if __cplusplus >= 201103L
 895:/home/zkmike/.local/share/renesas/e2_studio/toolchains/gcc_arm/gcc-arm-none-eabi-6-2017-q2-update/arm-none-eabi/include/c++/6.3.1/bits/stl_vector.h ****       const _Tp*
 896:/home/zkmike/.local/share/renesas/e2_studio/toolchains/gcc_arm/gcc-arm-none-eabi-6-2017-q2-update/arm-none-eabi/include/c++/6.3.1/bits/stl_vector.h **** #else
 897:/home/zkmike/.local/share/renesas/e2_studio/toolchains/gcc_arm/gcc-arm-none-eabi-6-2017-q2-update/arm-none-eabi/include/c++/6.3.1/bits/stl_vector.h ****       const_pointer
 898:/home/zkmike/.local/share/renesas/e2_studio/toolchains/gcc_arm/gcc-arm-none-eabi-6-2017-q2-update/arm-none-eabi/include/c++/6.3.1/bits/stl_vector.h **** #endif
 899:/home/zkmike/.local/share/renesas/e2_studio/toolchains/gcc_arm/gcc-arm-none-eabi-6-2017-q2-update/arm-none-eabi/include/c++/6.3.1/bits/stl_vector.h ****       data() const _GLIBCXX_NOEXCEPT
 900:/home/zkmike/.local/share/renesas/e2_studio/toolchains/gcc_arm/gcc-arm-none-eabi-6-2017-q2-update/arm-none-eabi/include/c++/6.3.1/bits/stl_vector.h ****       { return _M_data_ptr(this->_M_impl._M_start); }
 901:/home/zkmike/.local/share/renesas/e2_studio/toolchains/gcc_arm/gcc-arm-none-eabi-6-2017-q2-update/arm-none-eabi/include/c++/6.3.1/bits/stl_vector.h **** 
 902:/home/zkmike/.local/share/renesas/e2_studio/toolchains/gcc_arm/gcc-arm-none-eabi-6-2017-q2-update/arm-none-eabi/include/c++/6.3.1/bits/stl_vector.h ****       // [23.2.4.3] modifiers
 903:/home/zkmike/.local/share/renesas/e2_studio/toolchains/gcc_arm/gcc-arm-none-eabi-6-2017-q2-update/arm-none-eabi/include/c++/6.3.1/bits/stl_vector.h ****       /**
 904:/home/zkmike/.local/share/renesas/e2_studio/toolchains/gcc_arm/gcc-arm-none-eabi-6-2017-q2-update/arm-none-eabi/include/c++/6.3.1/bits/stl_vector.h ****        *  @brief  Add data to the end of the %vector.
 905:/home/zkmike/.local/share/renesas/e2_studio/toolchains/gcc_arm/gcc-arm-none-eabi-6-2017-q2-update/arm-none-eabi/include/c++/6.3.1/bits/stl_vector.h ****        *  @param  __x  Data to be added.
 906:/home/zkmike/.local/share/renesas/e2_studio/toolchains/gcc_arm/gcc-arm-none-eabi-6-2017-q2-update/arm-none-eabi/include/c++/6.3.1/bits/stl_vector.h ****        *
 907:/home/zkmike/.local/share/renesas/e2_studio/toolchains/gcc_arm/gcc-arm-none-eabi-6-2017-q2-update/arm-none-eabi/include/c++/6.3.1/bits/stl_vector.h ****        *  This is a typical stack operation.  The function creates an
 908:/home/zkmike/.local/share/renesas/e2_studio/toolchains/gcc_arm/gcc-arm-none-eabi-6-2017-q2-update/arm-none-eabi/include/c++/6.3.1/bits/stl_vector.h ****        *  element at the end of the %vector and assigns the given data
 909:/home/zkmike/.local/share/renesas/e2_studio/toolchains/gcc_arm/gcc-arm-none-eabi-6-2017-q2-update/arm-none-eabi/include/c++/6.3.1/bits/stl_vector.h ****        *  to it.  Due to the nature of a %vector this operation can be
 910:/home/zkmike/.local/share/renesas/e2_studio/toolchains/gcc_arm/gcc-arm-none-eabi-6-2017-q2-update/arm-none-eabi/include/c++/6.3.1/bits/stl_vector.h ****        *  done in constant time if the %vector has preallocated space
 911:/home/zkmike/.local/share/renesas/e2_studio/toolchains/gcc_arm/gcc-arm-none-eabi-6-2017-q2-update/arm-none-eabi/include/c++/6.3.1/bits/stl_vector.h ****        *  available.
 912:/home/zkmike/.local/share/renesas/e2_studio/toolchains/gcc_arm/gcc-arm-none-eabi-6-2017-q2-update/arm-none-eabi/include/c++/6.3.1/bits/stl_vector.h ****        */
 913:/home/zkmike/.local/share/renesas/e2_studio/toolchains/gcc_arm/gcc-arm-none-eabi-6-2017-q2-update/arm-none-eabi/include/c++/6.3.1/bits/stl_vector.h ****       void
 914:/home/zkmike/.local/share/renesas/e2_studio/toolchains/gcc_arm/gcc-arm-none-eabi-6-2017-q2-update/arm-none-eabi/include/c++/6.3.1/bits/stl_vector.h ****       push_back(const value_type& __x)
 915:/home/zkmike/.local/share/renesas/e2_studio/toolchains/gcc_arm/gcc-arm-none-eabi-6-2017-q2-update/arm-none-eabi/include/c++/6.3.1/bits/stl_vector.h ****       {
 916:/home/zkmike/.local/share/renesas/e2_studio/toolchains/gcc_arm/gcc-arm-none-eabi-6-2017-q2-update/arm-none-eabi/include/c++/6.3.1/bits/stl_vector.h **** 	if (this->_M_impl._M_finish != this->_M_impl._M_end_of_storage)
 917:/home/zkmike/.local/share/renesas/e2_studio/toolchains/gcc_arm/gcc-arm-none-eabi-6-2017-q2-update/arm-none-eabi/include/c++/6.3.1/bits/stl_vector.h **** 	  {
 918:/home/zkmike/.local/share/renesas/e2_studio/toolchains/gcc_arm/gcc-arm-none-eabi-6-2017-q2-update/arm-none-eabi/include/c++/6.3.1/bits/stl_vector.h **** 	    _Alloc_traits::construct(this->_M_impl, this->_M_impl._M_finish,
 919:/home/zkmike/.local/share/renesas/e2_studio/toolchains/gcc_arm/gcc-arm-none-eabi-6-2017-q2-update/arm-none-eabi/include/c++/6.3.1/bits/stl_vector.h **** 	                             __x);
 920:/home/zkmike/.local/share/renesas/e2_studio/toolchains/gcc_arm/gcc-arm-none-eabi-6-2017-q2-update/arm-none-eabi/include/c++/6.3.1/bits/stl_vector.h **** 	    ++this->_M_impl._M_finish;
 921:/home/zkmike/.local/share/renesas/e2_studio/toolchains/gcc_arm/gcc-arm-none-eabi-6-2017-q2-update/arm-none-eabi/include/c++/6.3.1/bits/stl_vector.h **** 	  }
 922:/home/zkmike/.local/share/renesas/e2_studio/toolchains/gcc_arm/gcc-arm-none-eabi-6-2017-q2-update/arm-none-eabi/include/c++/6.3.1/bits/stl_vector.h **** 	else
 923:/home/zkmike/.local/share/renesas/e2_studio/toolchains/gcc_arm/gcc-arm-none-eabi-6-2017-q2-update/arm-none-eabi/include/c++/6.3.1/bits/stl_vector.h **** #if __cplusplus >= 201103L
 924:/home/zkmike/.local/share/renesas/e2_studio/toolchains/gcc_arm/gcc-arm-none-eabi-6-2017-q2-update/arm-none-eabi/include/c++/6.3.1/bits/stl_vector.h **** 	  _M_emplace_back_aux(__x);
 925:/home/zkmike/.local/share/renesas/e2_studio/toolchains/gcc_arm/gcc-arm-none-eabi-6-2017-q2-update/arm-none-eabi/include/c++/6.3.1/bits/stl_vector.h **** #else
 926:/home/zkmike/.local/share/renesas/e2_studio/toolchains/gcc_arm/gcc-arm-none-eabi-6-2017-q2-update/arm-none-eabi/include/c++/6.3.1/bits/stl_vector.h **** 	  _M_insert_aux(end(), __x);
 927:/home/zkmike/.local/share/renesas/e2_studio/toolchains/gcc_arm/gcc-arm-none-eabi-6-2017-q2-update/arm-none-eabi/include/c++/6.3.1/bits/stl_vector.h **** #endif
 928:/home/zkmike/.local/share/renesas/e2_studio/toolchains/gcc_arm/gcc-arm-none-eabi-6-2017-q2-update/arm-none-eabi/include/c++/6.3.1/bits/stl_vector.h ****       }
 929:/home/zkmike/.local/share/renesas/e2_studio/toolchains/gcc_arm/gcc-arm-none-eabi-6-2017-q2-update/arm-none-eabi/include/c++/6.3.1/bits/stl_vector.h **** 
 930:/home/zkmike/.local/share/renesas/e2_studio/toolchains/gcc_arm/gcc-arm-none-eabi-6-2017-q2-update/arm-none-eabi/include/c++/6.3.1/bits/stl_vector.h **** #if __cplusplus >= 201103L
 931:/home/zkmike/.local/share/renesas/e2_studio/toolchains/gcc_arm/gcc-arm-none-eabi-6-2017-q2-update/arm-none-eabi/include/c++/6.3.1/bits/stl_vector.h ****       void
 932:/home/zkmike/.local/share/renesas/e2_studio/toolchains/gcc_arm/gcc-arm-none-eabi-6-2017-q2-update/arm-none-eabi/include/c++/6.3.1/bits/stl_vector.h ****       push_back(value_type&& __x)
 933:/home/zkmike/.local/share/renesas/e2_studio/toolchains/gcc_arm/gcc-arm-none-eabi-6-2017-q2-update/arm-none-eabi/include/c++/6.3.1/bits/stl_vector.h ****       { emplace_back(std::move(__x)); }
 934:/home/zkmike/.local/share/renesas/e2_studio/toolchains/gcc_arm/gcc-arm-none-eabi-6-2017-q2-update/arm-none-eabi/include/c++/6.3.1/bits/stl_vector.h **** 
 935:/home/zkmike/.local/share/renesas/e2_studio/toolchains/gcc_arm/gcc-arm-none-eabi-6-2017-q2-update/arm-none-eabi/include/c++/6.3.1/bits/stl_vector.h ****       template<typename... _Args>
 936:/home/zkmike/.local/share/renesas/e2_studio/toolchains/gcc_arm/gcc-arm-none-eabi-6-2017-q2-update/arm-none-eabi/include/c++/6.3.1/bits/stl_vector.h ****         void
 937:/home/zkmike/.local/share/renesas/e2_studio/toolchains/gcc_arm/gcc-arm-none-eabi-6-2017-q2-update/arm-none-eabi/include/c++/6.3.1/bits/stl_vector.h ****         emplace_back(_Args&&... __args);
 938:/home/zkmike/.local/share/renesas/e2_studio/toolchains/gcc_arm/gcc-arm-none-eabi-6-2017-q2-update/arm-none-eabi/include/c++/6.3.1/bits/stl_vector.h **** #endif
 939:/home/zkmike/.local/share/renesas/e2_studio/toolchains/gcc_arm/gcc-arm-none-eabi-6-2017-q2-update/arm-none-eabi/include/c++/6.3.1/bits/stl_vector.h **** 
 940:/home/zkmike/.local/share/renesas/e2_studio/toolchains/gcc_arm/gcc-arm-none-eabi-6-2017-q2-update/arm-none-eabi/include/c++/6.3.1/bits/stl_vector.h ****       /**
 941:/home/zkmike/.local/share/renesas/e2_studio/toolchains/gcc_arm/gcc-arm-none-eabi-6-2017-q2-update/arm-none-eabi/include/c++/6.3.1/bits/stl_vector.h ****        *  @brief  Removes last element.
 942:/home/zkmike/.local/share/renesas/e2_studio/toolchains/gcc_arm/gcc-arm-none-eabi-6-2017-q2-update/arm-none-eabi/include/c++/6.3.1/bits/stl_vector.h ****        *
 943:/home/zkmike/.local/share/renesas/e2_studio/toolchains/gcc_arm/gcc-arm-none-eabi-6-2017-q2-update/arm-none-eabi/include/c++/6.3.1/bits/stl_vector.h ****        *  This is a typical stack operation. It shrinks the %vector by one.
 944:/home/zkmike/.local/share/renesas/e2_studio/toolchains/gcc_arm/gcc-arm-none-eabi-6-2017-q2-update/arm-none-eabi/include/c++/6.3.1/bits/stl_vector.h ****        *
 945:/home/zkmike/.local/share/renesas/e2_studio/toolchains/gcc_arm/gcc-arm-none-eabi-6-2017-q2-update/arm-none-eabi/include/c++/6.3.1/bits/stl_vector.h ****        *  Note that no data is returned, and if the last element's
 946:/home/zkmike/.local/share/renesas/e2_studio/toolchains/gcc_arm/gcc-arm-none-eabi-6-2017-q2-update/arm-none-eabi/include/c++/6.3.1/bits/stl_vector.h ****        *  data is needed, it should be retrieved before pop_back() is
 947:/home/zkmike/.local/share/renesas/e2_studio/toolchains/gcc_arm/gcc-arm-none-eabi-6-2017-q2-update/arm-none-eabi/include/c++/6.3.1/bits/stl_vector.h ****        *  called.
 948:/home/zkmike/.local/share/renesas/e2_studio/toolchains/gcc_arm/gcc-arm-none-eabi-6-2017-q2-update/arm-none-eabi/include/c++/6.3.1/bits/stl_vector.h ****        */
 949:/home/zkmike/.local/share/renesas/e2_studio/toolchains/gcc_arm/gcc-arm-none-eabi-6-2017-q2-update/arm-none-eabi/include/c++/6.3.1/bits/stl_vector.h ****       void
 950:/home/zkmike/.local/share/renesas/e2_studio/toolchains/gcc_arm/gcc-arm-none-eabi-6-2017-q2-update/arm-none-eabi/include/c++/6.3.1/bits/stl_vector.h ****       pop_back() _GLIBCXX_NOEXCEPT
 951:/home/zkmike/.local/share/renesas/e2_studio/toolchains/gcc_arm/gcc-arm-none-eabi-6-2017-q2-update/arm-none-eabi/include/c++/6.3.1/bits/stl_vector.h ****       {
 952:/home/zkmike/.local/share/renesas/e2_studio/toolchains/gcc_arm/gcc-arm-none-eabi-6-2017-q2-update/arm-none-eabi/include/c++/6.3.1/bits/stl_vector.h **** 	--this->_M_impl._M_finish;
 953:/home/zkmike/.local/share/renesas/e2_studio/toolchains/gcc_arm/gcc-arm-none-eabi-6-2017-q2-update/arm-none-eabi/include/c++/6.3.1/bits/stl_vector.h **** 	_Alloc_traits::destroy(this->_M_impl, this->_M_impl._M_finish);
 954:/home/zkmike/.local/share/renesas/e2_studio/toolchains/gcc_arm/gcc-arm-none-eabi-6-2017-q2-update/arm-none-eabi/include/c++/6.3.1/bits/stl_vector.h ****       }
 955:/home/zkmike/.local/share/renesas/e2_studio/toolchains/gcc_arm/gcc-arm-none-eabi-6-2017-q2-update/arm-none-eabi/include/c++/6.3.1/bits/stl_vector.h **** 
 956:/home/zkmike/.local/share/renesas/e2_studio/toolchains/gcc_arm/gcc-arm-none-eabi-6-2017-q2-update/arm-none-eabi/include/c++/6.3.1/bits/stl_vector.h **** #if __cplusplus >= 201103L
 957:/home/zkmike/.local/share/renesas/e2_studio/toolchains/gcc_arm/gcc-arm-none-eabi-6-2017-q2-update/arm-none-eabi/include/c++/6.3.1/bits/stl_vector.h ****       /**
 958:/home/zkmike/.local/share/renesas/e2_studio/toolchains/gcc_arm/gcc-arm-none-eabi-6-2017-q2-update/arm-none-eabi/include/c++/6.3.1/bits/stl_vector.h ****        *  @brief  Inserts an object in %vector before specified iterator.
 959:/home/zkmike/.local/share/renesas/e2_studio/toolchains/gcc_arm/gcc-arm-none-eabi-6-2017-q2-update/arm-none-eabi/include/c++/6.3.1/bits/stl_vector.h ****        *  @param  __position  A const_iterator into the %vector.
 960:/home/zkmike/.local/share/renesas/e2_studio/toolchains/gcc_arm/gcc-arm-none-eabi-6-2017-q2-update/arm-none-eabi/include/c++/6.3.1/bits/stl_vector.h ****        *  @param  __args  Arguments.
 961:/home/zkmike/.local/share/renesas/e2_studio/toolchains/gcc_arm/gcc-arm-none-eabi-6-2017-q2-update/arm-none-eabi/include/c++/6.3.1/bits/stl_vector.h ****        *  @return  An iterator that points to the inserted data.
 962:/home/zkmike/.local/share/renesas/e2_studio/toolchains/gcc_arm/gcc-arm-none-eabi-6-2017-q2-update/arm-none-eabi/include/c++/6.3.1/bits/stl_vector.h ****        *
 963:/home/zkmike/.local/share/renesas/e2_studio/toolchains/gcc_arm/gcc-arm-none-eabi-6-2017-q2-update/arm-none-eabi/include/c++/6.3.1/bits/stl_vector.h ****        *  This function will insert an object of type T constructed
 964:/home/zkmike/.local/share/renesas/e2_studio/toolchains/gcc_arm/gcc-arm-none-eabi-6-2017-q2-update/arm-none-eabi/include/c++/6.3.1/bits/stl_vector.h ****        *  with T(std::forward<Args>(args)...) before the specified location.
 965:/home/zkmike/.local/share/renesas/e2_studio/toolchains/gcc_arm/gcc-arm-none-eabi-6-2017-q2-update/arm-none-eabi/include/c++/6.3.1/bits/stl_vector.h ****        *  Note that this kind of operation could be expensive for a %vector
 966:/home/zkmike/.local/share/renesas/e2_studio/toolchains/gcc_arm/gcc-arm-none-eabi-6-2017-q2-update/arm-none-eabi/include/c++/6.3.1/bits/stl_vector.h ****        *  and if it is frequently used the user should consider using
 967:/home/zkmike/.local/share/renesas/e2_studio/toolchains/gcc_arm/gcc-arm-none-eabi-6-2017-q2-update/arm-none-eabi/include/c++/6.3.1/bits/stl_vector.h ****        *  std::list.
 968:/home/zkmike/.local/share/renesas/e2_studio/toolchains/gcc_arm/gcc-arm-none-eabi-6-2017-q2-update/arm-none-eabi/include/c++/6.3.1/bits/stl_vector.h ****        */
 969:/home/zkmike/.local/share/renesas/e2_studio/toolchains/gcc_arm/gcc-arm-none-eabi-6-2017-q2-update/arm-none-eabi/include/c++/6.3.1/bits/stl_vector.h ****       template<typename... _Args>
 970:/home/zkmike/.local/share/renesas/e2_studio/toolchains/gcc_arm/gcc-arm-none-eabi-6-2017-q2-update/arm-none-eabi/include/c++/6.3.1/bits/stl_vector.h ****         iterator
 971:/home/zkmike/.local/share/renesas/e2_studio/toolchains/gcc_arm/gcc-arm-none-eabi-6-2017-q2-update/arm-none-eabi/include/c++/6.3.1/bits/stl_vector.h ****         emplace(const_iterator __position, _Args&&... __args);
 972:/home/zkmike/.local/share/renesas/e2_studio/toolchains/gcc_arm/gcc-arm-none-eabi-6-2017-q2-update/arm-none-eabi/include/c++/6.3.1/bits/stl_vector.h **** 
 973:/home/zkmike/.local/share/renesas/e2_studio/toolchains/gcc_arm/gcc-arm-none-eabi-6-2017-q2-update/arm-none-eabi/include/c++/6.3.1/bits/stl_vector.h ****       /**
 974:/home/zkmike/.local/share/renesas/e2_studio/toolchains/gcc_arm/gcc-arm-none-eabi-6-2017-q2-update/arm-none-eabi/include/c++/6.3.1/bits/stl_vector.h ****        *  @brief  Inserts given value into %vector before specified iterator.
 975:/home/zkmike/.local/share/renesas/e2_studio/toolchains/gcc_arm/gcc-arm-none-eabi-6-2017-q2-update/arm-none-eabi/include/c++/6.3.1/bits/stl_vector.h ****        *  @param  __position  A const_iterator into the %vector.
 976:/home/zkmike/.local/share/renesas/e2_studio/toolchains/gcc_arm/gcc-arm-none-eabi-6-2017-q2-update/arm-none-eabi/include/c++/6.3.1/bits/stl_vector.h ****        *  @param  __x  Data to be inserted.
 977:/home/zkmike/.local/share/renesas/e2_studio/toolchains/gcc_arm/gcc-arm-none-eabi-6-2017-q2-update/arm-none-eabi/include/c++/6.3.1/bits/stl_vector.h ****        *  @return  An iterator that points to the inserted data.
 978:/home/zkmike/.local/share/renesas/e2_studio/toolchains/gcc_arm/gcc-arm-none-eabi-6-2017-q2-update/arm-none-eabi/include/c++/6.3.1/bits/stl_vector.h ****        *
 979:/home/zkmike/.local/share/renesas/e2_studio/toolchains/gcc_arm/gcc-arm-none-eabi-6-2017-q2-update/arm-none-eabi/include/c++/6.3.1/bits/stl_vector.h ****        *  This function will insert a copy of the given value before
 980:/home/zkmike/.local/share/renesas/e2_studio/toolchains/gcc_arm/gcc-arm-none-eabi-6-2017-q2-update/arm-none-eabi/include/c++/6.3.1/bits/stl_vector.h ****        *  the specified location.  Note that this kind of operation
 981:/home/zkmike/.local/share/renesas/e2_studio/toolchains/gcc_arm/gcc-arm-none-eabi-6-2017-q2-update/arm-none-eabi/include/c++/6.3.1/bits/stl_vector.h ****        *  could be expensive for a %vector and if it is frequently
 982:/home/zkmike/.local/share/renesas/e2_studio/toolchains/gcc_arm/gcc-arm-none-eabi-6-2017-q2-update/arm-none-eabi/include/c++/6.3.1/bits/stl_vector.h ****        *  used the user should consider using std::list.
 983:/home/zkmike/.local/share/renesas/e2_studio/toolchains/gcc_arm/gcc-arm-none-eabi-6-2017-q2-update/arm-none-eabi/include/c++/6.3.1/bits/stl_vector.h ****        */
 984:/home/zkmike/.local/share/renesas/e2_studio/toolchains/gcc_arm/gcc-arm-none-eabi-6-2017-q2-update/arm-none-eabi/include/c++/6.3.1/bits/stl_vector.h ****       iterator
 985:/home/zkmike/.local/share/renesas/e2_studio/toolchains/gcc_arm/gcc-arm-none-eabi-6-2017-q2-update/arm-none-eabi/include/c++/6.3.1/bits/stl_vector.h ****       insert(const_iterator __position, const value_type& __x);
 986:/home/zkmike/.local/share/renesas/e2_studio/toolchains/gcc_arm/gcc-arm-none-eabi-6-2017-q2-update/arm-none-eabi/include/c++/6.3.1/bits/stl_vector.h **** #else
 987:/home/zkmike/.local/share/renesas/e2_studio/toolchains/gcc_arm/gcc-arm-none-eabi-6-2017-q2-update/arm-none-eabi/include/c++/6.3.1/bits/stl_vector.h ****       /**
 988:/home/zkmike/.local/share/renesas/e2_studio/toolchains/gcc_arm/gcc-arm-none-eabi-6-2017-q2-update/arm-none-eabi/include/c++/6.3.1/bits/stl_vector.h ****        *  @brief  Inserts given value into %vector before specified iterator.
 989:/home/zkmike/.local/share/renesas/e2_studio/toolchains/gcc_arm/gcc-arm-none-eabi-6-2017-q2-update/arm-none-eabi/include/c++/6.3.1/bits/stl_vector.h ****        *  @param  __position  An iterator into the %vector.
 990:/home/zkmike/.local/share/renesas/e2_studio/toolchains/gcc_arm/gcc-arm-none-eabi-6-2017-q2-update/arm-none-eabi/include/c++/6.3.1/bits/stl_vector.h ****        *  @param  __x  Data to be inserted.
 991:/home/zkmike/.local/share/renesas/e2_studio/toolchains/gcc_arm/gcc-arm-none-eabi-6-2017-q2-update/arm-none-eabi/include/c++/6.3.1/bits/stl_vector.h ****        *  @return  An iterator that points to the inserted data.
 992:/home/zkmike/.local/share/renesas/e2_studio/toolchains/gcc_arm/gcc-arm-none-eabi-6-2017-q2-update/arm-none-eabi/include/c++/6.3.1/bits/stl_vector.h ****        *
 993:/home/zkmike/.local/share/renesas/e2_studio/toolchains/gcc_arm/gcc-arm-none-eabi-6-2017-q2-update/arm-none-eabi/include/c++/6.3.1/bits/stl_vector.h ****        *  This function will insert a copy of the given value before
 994:/home/zkmike/.local/share/renesas/e2_studio/toolchains/gcc_arm/gcc-arm-none-eabi-6-2017-q2-update/arm-none-eabi/include/c++/6.3.1/bits/stl_vector.h ****        *  the specified location.  Note that this kind of operation
 995:/home/zkmike/.local/share/renesas/e2_studio/toolchains/gcc_arm/gcc-arm-none-eabi-6-2017-q2-update/arm-none-eabi/include/c++/6.3.1/bits/stl_vector.h ****        *  could be expensive for a %vector and if it is frequently
 996:/home/zkmike/.local/share/renesas/e2_studio/toolchains/gcc_arm/gcc-arm-none-eabi-6-2017-q2-update/arm-none-eabi/include/c++/6.3.1/bits/stl_vector.h ****        *  used the user should consider using std::list.
 997:/home/zkmike/.local/share/renesas/e2_studio/toolchains/gcc_arm/gcc-arm-none-eabi-6-2017-q2-update/arm-none-eabi/include/c++/6.3.1/bits/stl_vector.h ****        */
 998:/home/zkmike/.local/share/renesas/e2_studio/toolchains/gcc_arm/gcc-arm-none-eabi-6-2017-q2-update/arm-none-eabi/include/c++/6.3.1/bits/stl_vector.h ****       iterator
 999:/home/zkmike/.local/share/renesas/e2_studio/toolchains/gcc_arm/gcc-arm-none-eabi-6-2017-q2-update/arm-none-eabi/include/c++/6.3.1/bits/stl_vector.h ****       insert(iterator __position, const value_type& __x);
1000:/home/zkmike/.local/share/renesas/e2_studio/toolchains/gcc_arm/gcc-arm-none-eabi-6-2017-q2-update/arm-none-eabi/include/c++/6.3.1/bits/stl_vector.h **** #endif
1001:/home/zkmike/.local/share/renesas/e2_studio/toolchains/gcc_arm/gcc-arm-none-eabi-6-2017-q2-update/arm-none-eabi/include/c++/6.3.1/bits/stl_vector.h **** 
1002:/home/zkmike/.local/share/renesas/e2_studio/toolchains/gcc_arm/gcc-arm-none-eabi-6-2017-q2-update/arm-none-eabi/include/c++/6.3.1/bits/stl_vector.h **** #if __cplusplus >= 201103L
1003:/home/zkmike/.local/share/renesas/e2_studio/toolchains/gcc_arm/gcc-arm-none-eabi-6-2017-q2-update/arm-none-eabi/include/c++/6.3.1/bits/stl_vector.h ****       /**
1004:/home/zkmike/.local/share/renesas/e2_studio/toolchains/gcc_arm/gcc-arm-none-eabi-6-2017-q2-update/arm-none-eabi/include/c++/6.3.1/bits/stl_vector.h ****        *  @brief  Inserts given rvalue into %vector before specified iterator.
1005:/home/zkmike/.local/share/renesas/e2_studio/toolchains/gcc_arm/gcc-arm-none-eabi-6-2017-q2-update/arm-none-eabi/include/c++/6.3.1/bits/stl_vector.h ****        *  @param  __position  A const_iterator into the %vector.
1006:/home/zkmike/.local/share/renesas/e2_studio/toolchains/gcc_arm/gcc-arm-none-eabi-6-2017-q2-update/arm-none-eabi/include/c++/6.3.1/bits/stl_vector.h ****        *  @param  __x  Data to be inserted.
1007:/home/zkmike/.local/share/renesas/e2_studio/toolchains/gcc_arm/gcc-arm-none-eabi-6-2017-q2-update/arm-none-eabi/include/c++/6.3.1/bits/stl_vector.h ****        *  @return  An iterator that points to the inserted data.
1008:/home/zkmike/.local/share/renesas/e2_studio/toolchains/gcc_arm/gcc-arm-none-eabi-6-2017-q2-update/arm-none-eabi/include/c++/6.3.1/bits/stl_vector.h ****        *
1009:/home/zkmike/.local/share/renesas/e2_studio/toolchains/gcc_arm/gcc-arm-none-eabi-6-2017-q2-update/arm-none-eabi/include/c++/6.3.1/bits/stl_vector.h ****        *  This function will insert a copy of the given rvalue before
1010:/home/zkmike/.local/share/renesas/e2_studio/toolchains/gcc_arm/gcc-arm-none-eabi-6-2017-q2-update/arm-none-eabi/include/c++/6.3.1/bits/stl_vector.h ****        *  the specified location.  Note that this kind of operation
1011:/home/zkmike/.local/share/renesas/e2_studio/toolchains/gcc_arm/gcc-arm-none-eabi-6-2017-q2-update/arm-none-eabi/include/c++/6.3.1/bits/stl_vector.h ****        *  could be expensive for a %vector and if it is frequently
1012:/home/zkmike/.local/share/renesas/e2_studio/toolchains/gcc_arm/gcc-arm-none-eabi-6-2017-q2-update/arm-none-eabi/include/c++/6.3.1/bits/stl_vector.h ****        *  used the user should consider using std::list.
1013:/home/zkmike/.local/share/renesas/e2_studio/toolchains/gcc_arm/gcc-arm-none-eabi-6-2017-q2-update/arm-none-eabi/include/c++/6.3.1/bits/stl_vector.h ****        */
1014:/home/zkmike/.local/share/renesas/e2_studio/toolchains/gcc_arm/gcc-arm-none-eabi-6-2017-q2-update/arm-none-eabi/include/c++/6.3.1/bits/stl_vector.h ****       iterator
1015:/home/zkmike/.local/share/renesas/e2_studio/toolchains/gcc_arm/gcc-arm-none-eabi-6-2017-q2-update/arm-none-eabi/include/c++/6.3.1/bits/stl_vector.h ****       insert(const_iterator __position, value_type&& __x)
1016:/home/zkmike/.local/share/renesas/e2_studio/toolchains/gcc_arm/gcc-arm-none-eabi-6-2017-q2-update/arm-none-eabi/include/c++/6.3.1/bits/stl_vector.h ****       { return emplace(__position, std::move(__x)); }
1017:/home/zkmike/.local/share/renesas/e2_studio/toolchains/gcc_arm/gcc-arm-none-eabi-6-2017-q2-update/arm-none-eabi/include/c++/6.3.1/bits/stl_vector.h **** 
1018:/home/zkmike/.local/share/renesas/e2_studio/toolchains/gcc_arm/gcc-arm-none-eabi-6-2017-q2-update/arm-none-eabi/include/c++/6.3.1/bits/stl_vector.h ****       /**
1019:/home/zkmike/.local/share/renesas/e2_studio/toolchains/gcc_arm/gcc-arm-none-eabi-6-2017-q2-update/arm-none-eabi/include/c++/6.3.1/bits/stl_vector.h ****        *  @brief  Inserts an initializer_list into the %vector.
1020:/home/zkmike/.local/share/renesas/e2_studio/toolchains/gcc_arm/gcc-arm-none-eabi-6-2017-q2-update/arm-none-eabi/include/c++/6.3.1/bits/stl_vector.h ****        *  @param  __position  An iterator into the %vector.
1021:/home/zkmike/.local/share/renesas/e2_studio/toolchains/gcc_arm/gcc-arm-none-eabi-6-2017-q2-update/arm-none-eabi/include/c++/6.3.1/bits/stl_vector.h ****        *  @param  __l  An initializer_list.
1022:/home/zkmike/.local/share/renesas/e2_studio/toolchains/gcc_arm/gcc-arm-none-eabi-6-2017-q2-update/arm-none-eabi/include/c++/6.3.1/bits/stl_vector.h ****        *
1023:/home/zkmike/.local/share/renesas/e2_studio/toolchains/gcc_arm/gcc-arm-none-eabi-6-2017-q2-update/arm-none-eabi/include/c++/6.3.1/bits/stl_vector.h ****        *  This function will insert copies of the data in the 
1024:/home/zkmike/.local/share/renesas/e2_studio/toolchains/gcc_arm/gcc-arm-none-eabi-6-2017-q2-update/arm-none-eabi/include/c++/6.3.1/bits/stl_vector.h ****        *  initializer_list @a l into the %vector before the location
1025:/home/zkmike/.local/share/renesas/e2_studio/toolchains/gcc_arm/gcc-arm-none-eabi-6-2017-q2-update/arm-none-eabi/include/c++/6.3.1/bits/stl_vector.h ****        *  specified by @a position.
1026:/home/zkmike/.local/share/renesas/e2_studio/toolchains/gcc_arm/gcc-arm-none-eabi-6-2017-q2-update/arm-none-eabi/include/c++/6.3.1/bits/stl_vector.h ****        *
1027:/home/zkmike/.local/share/renesas/e2_studio/toolchains/gcc_arm/gcc-arm-none-eabi-6-2017-q2-update/arm-none-eabi/include/c++/6.3.1/bits/stl_vector.h ****        *  Note that this kind of operation could be expensive for a
1028:/home/zkmike/.local/share/renesas/e2_studio/toolchains/gcc_arm/gcc-arm-none-eabi-6-2017-q2-update/arm-none-eabi/include/c++/6.3.1/bits/stl_vector.h ****        *  %vector and if it is frequently used the user should
1029:/home/zkmike/.local/share/renesas/e2_studio/toolchains/gcc_arm/gcc-arm-none-eabi-6-2017-q2-update/arm-none-eabi/include/c++/6.3.1/bits/stl_vector.h ****        *  consider using std::list.
1030:/home/zkmike/.local/share/renesas/e2_studio/toolchains/gcc_arm/gcc-arm-none-eabi-6-2017-q2-update/arm-none-eabi/include/c++/6.3.1/bits/stl_vector.h ****        */
1031:/home/zkmike/.local/share/renesas/e2_studio/toolchains/gcc_arm/gcc-arm-none-eabi-6-2017-q2-update/arm-none-eabi/include/c++/6.3.1/bits/stl_vector.h ****       iterator
1032:/home/zkmike/.local/share/renesas/e2_studio/toolchains/gcc_arm/gcc-arm-none-eabi-6-2017-q2-update/arm-none-eabi/include/c++/6.3.1/bits/stl_vector.h ****       insert(const_iterator __position, initializer_list<value_type> __l)
1033:/home/zkmike/.local/share/renesas/e2_studio/toolchains/gcc_arm/gcc-arm-none-eabi-6-2017-q2-update/arm-none-eabi/include/c++/6.3.1/bits/stl_vector.h ****       { return this->insert(__position, __l.begin(), __l.end()); }
1034:/home/zkmike/.local/share/renesas/e2_studio/toolchains/gcc_arm/gcc-arm-none-eabi-6-2017-q2-update/arm-none-eabi/include/c++/6.3.1/bits/stl_vector.h **** #endif
1035:/home/zkmike/.local/share/renesas/e2_studio/toolchains/gcc_arm/gcc-arm-none-eabi-6-2017-q2-update/arm-none-eabi/include/c++/6.3.1/bits/stl_vector.h **** 
1036:/home/zkmike/.local/share/renesas/e2_studio/toolchains/gcc_arm/gcc-arm-none-eabi-6-2017-q2-update/arm-none-eabi/include/c++/6.3.1/bits/stl_vector.h **** #if __cplusplus >= 201103L
1037:/home/zkmike/.local/share/renesas/e2_studio/toolchains/gcc_arm/gcc-arm-none-eabi-6-2017-q2-update/arm-none-eabi/include/c++/6.3.1/bits/stl_vector.h ****       /**
1038:/home/zkmike/.local/share/renesas/e2_studio/toolchains/gcc_arm/gcc-arm-none-eabi-6-2017-q2-update/arm-none-eabi/include/c++/6.3.1/bits/stl_vector.h ****        *  @brief  Inserts a number of copies of given data into the %vector.
1039:/home/zkmike/.local/share/renesas/e2_studio/toolchains/gcc_arm/gcc-arm-none-eabi-6-2017-q2-update/arm-none-eabi/include/c++/6.3.1/bits/stl_vector.h ****        *  @param  __position  A const_iterator into the %vector.
1040:/home/zkmike/.local/share/renesas/e2_studio/toolchains/gcc_arm/gcc-arm-none-eabi-6-2017-q2-update/arm-none-eabi/include/c++/6.3.1/bits/stl_vector.h ****        *  @param  __n  Number of elements to be inserted.
1041:/home/zkmike/.local/share/renesas/e2_studio/toolchains/gcc_arm/gcc-arm-none-eabi-6-2017-q2-update/arm-none-eabi/include/c++/6.3.1/bits/stl_vector.h ****        *  @param  __x  Data to be inserted.
1042:/home/zkmike/.local/share/renesas/e2_studio/toolchains/gcc_arm/gcc-arm-none-eabi-6-2017-q2-update/arm-none-eabi/include/c++/6.3.1/bits/stl_vector.h ****        *  @return  An iterator that points to the inserted data.
1043:/home/zkmike/.local/share/renesas/e2_studio/toolchains/gcc_arm/gcc-arm-none-eabi-6-2017-q2-update/arm-none-eabi/include/c++/6.3.1/bits/stl_vector.h ****        *
1044:/home/zkmike/.local/share/renesas/e2_studio/toolchains/gcc_arm/gcc-arm-none-eabi-6-2017-q2-update/arm-none-eabi/include/c++/6.3.1/bits/stl_vector.h ****        *  This function will insert a specified number of copies of
1045:/home/zkmike/.local/share/renesas/e2_studio/toolchains/gcc_arm/gcc-arm-none-eabi-6-2017-q2-update/arm-none-eabi/include/c++/6.3.1/bits/stl_vector.h ****        *  the given data before the location specified by @a position.
1046:/home/zkmike/.local/share/renesas/e2_studio/toolchains/gcc_arm/gcc-arm-none-eabi-6-2017-q2-update/arm-none-eabi/include/c++/6.3.1/bits/stl_vector.h ****        *
1047:/home/zkmike/.local/share/renesas/e2_studio/toolchains/gcc_arm/gcc-arm-none-eabi-6-2017-q2-update/arm-none-eabi/include/c++/6.3.1/bits/stl_vector.h ****        *  Note that this kind of operation could be expensive for a
1048:/home/zkmike/.local/share/renesas/e2_studio/toolchains/gcc_arm/gcc-arm-none-eabi-6-2017-q2-update/arm-none-eabi/include/c++/6.3.1/bits/stl_vector.h ****        *  %vector and if it is frequently used the user should
1049:/home/zkmike/.local/share/renesas/e2_studio/toolchains/gcc_arm/gcc-arm-none-eabi-6-2017-q2-update/arm-none-eabi/include/c++/6.3.1/bits/stl_vector.h ****        *  consider using std::list.
1050:/home/zkmike/.local/share/renesas/e2_studio/toolchains/gcc_arm/gcc-arm-none-eabi-6-2017-q2-update/arm-none-eabi/include/c++/6.3.1/bits/stl_vector.h ****        */
1051:/home/zkmike/.local/share/renesas/e2_studio/toolchains/gcc_arm/gcc-arm-none-eabi-6-2017-q2-update/arm-none-eabi/include/c++/6.3.1/bits/stl_vector.h ****       iterator
1052:/home/zkmike/.local/share/renesas/e2_studio/toolchains/gcc_arm/gcc-arm-none-eabi-6-2017-q2-update/arm-none-eabi/include/c++/6.3.1/bits/stl_vector.h ****       insert(const_iterator __position, size_type __n, const value_type& __x)
1053:/home/zkmike/.local/share/renesas/e2_studio/toolchains/gcc_arm/gcc-arm-none-eabi-6-2017-q2-update/arm-none-eabi/include/c++/6.3.1/bits/stl_vector.h ****       {
1054:/home/zkmike/.local/share/renesas/e2_studio/toolchains/gcc_arm/gcc-arm-none-eabi-6-2017-q2-update/arm-none-eabi/include/c++/6.3.1/bits/stl_vector.h **** 	difference_type __offset = __position - cbegin();
1055:/home/zkmike/.local/share/renesas/e2_studio/toolchains/gcc_arm/gcc-arm-none-eabi-6-2017-q2-update/arm-none-eabi/include/c++/6.3.1/bits/stl_vector.h **** 	_M_fill_insert(begin() + __offset, __n, __x);
1056:/home/zkmike/.local/share/renesas/e2_studio/toolchains/gcc_arm/gcc-arm-none-eabi-6-2017-q2-update/arm-none-eabi/include/c++/6.3.1/bits/stl_vector.h **** 	return begin() + __offset;
1057:/home/zkmike/.local/share/renesas/e2_studio/toolchains/gcc_arm/gcc-arm-none-eabi-6-2017-q2-update/arm-none-eabi/include/c++/6.3.1/bits/stl_vector.h ****       }
1058:/home/zkmike/.local/share/renesas/e2_studio/toolchains/gcc_arm/gcc-arm-none-eabi-6-2017-q2-update/arm-none-eabi/include/c++/6.3.1/bits/stl_vector.h **** #else
1059:/home/zkmike/.local/share/renesas/e2_studio/toolchains/gcc_arm/gcc-arm-none-eabi-6-2017-q2-update/arm-none-eabi/include/c++/6.3.1/bits/stl_vector.h ****       /**
1060:/home/zkmike/.local/share/renesas/e2_studio/toolchains/gcc_arm/gcc-arm-none-eabi-6-2017-q2-update/arm-none-eabi/include/c++/6.3.1/bits/stl_vector.h ****        *  @brief  Inserts a number of copies of given data into the %vector.
1061:/home/zkmike/.local/share/renesas/e2_studio/toolchains/gcc_arm/gcc-arm-none-eabi-6-2017-q2-update/arm-none-eabi/include/c++/6.3.1/bits/stl_vector.h ****        *  @param  __position  An iterator into the %vector.
1062:/home/zkmike/.local/share/renesas/e2_studio/toolchains/gcc_arm/gcc-arm-none-eabi-6-2017-q2-update/arm-none-eabi/include/c++/6.3.1/bits/stl_vector.h ****        *  @param  __n  Number of elements to be inserted.
1063:/home/zkmike/.local/share/renesas/e2_studio/toolchains/gcc_arm/gcc-arm-none-eabi-6-2017-q2-update/arm-none-eabi/include/c++/6.3.1/bits/stl_vector.h ****        *  @param  __x  Data to be inserted.
1064:/home/zkmike/.local/share/renesas/e2_studio/toolchains/gcc_arm/gcc-arm-none-eabi-6-2017-q2-update/arm-none-eabi/include/c++/6.3.1/bits/stl_vector.h ****        *
1065:/home/zkmike/.local/share/renesas/e2_studio/toolchains/gcc_arm/gcc-arm-none-eabi-6-2017-q2-update/arm-none-eabi/include/c++/6.3.1/bits/stl_vector.h ****        *  This function will insert a specified number of copies of
1066:/home/zkmike/.local/share/renesas/e2_studio/toolchains/gcc_arm/gcc-arm-none-eabi-6-2017-q2-update/arm-none-eabi/include/c++/6.3.1/bits/stl_vector.h ****        *  the given data before the location specified by @a position.
1067:/home/zkmike/.local/share/renesas/e2_studio/toolchains/gcc_arm/gcc-arm-none-eabi-6-2017-q2-update/arm-none-eabi/include/c++/6.3.1/bits/stl_vector.h ****        *
1068:/home/zkmike/.local/share/renesas/e2_studio/toolchains/gcc_arm/gcc-arm-none-eabi-6-2017-q2-update/arm-none-eabi/include/c++/6.3.1/bits/stl_vector.h ****        *  Note that this kind of operation could be expensive for a
1069:/home/zkmike/.local/share/renesas/e2_studio/toolchains/gcc_arm/gcc-arm-none-eabi-6-2017-q2-update/arm-none-eabi/include/c++/6.3.1/bits/stl_vector.h ****        *  %vector and if it is frequently used the user should
1070:/home/zkmike/.local/share/renesas/e2_studio/toolchains/gcc_arm/gcc-arm-none-eabi-6-2017-q2-update/arm-none-eabi/include/c++/6.3.1/bits/stl_vector.h ****        *  consider using std::list.
1071:/home/zkmike/.local/share/renesas/e2_studio/toolchains/gcc_arm/gcc-arm-none-eabi-6-2017-q2-update/arm-none-eabi/include/c++/6.3.1/bits/stl_vector.h ****        */
1072:/home/zkmike/.local/share/renesas/e2_studio/toolchains/gcc_arm/gcc-arm-none-eabi-6-2017-q2-update/arm-none-eabi/include/c++/6.3.1/bits/stl_vector.h ****       void
1073:/home/zkmike/.local/share/renesas/e2_studio/toolchains/gcc_arm/gcc-arm-none-eabi-6-2017-q2-update/arm-none-eabi/include/c++/6.3.1/bits/stl_vector.h ****       insert(iterator __position, size_type __n, const value_type& __x)
1074:/home/zkmike/.local/share/renesas/e2_studio/toolchains/gcc_arm/gcc-arm-none-eabi-6-2017-q2-update/arm-none-eabi/include/c++/6.3.1/bits/stl_vector.h ****       { _M_fill_insert(__position, __n, __x); }
1075:/home/zkmike/.local/share/renesas/e2_studio/toolchains/gcc_arm/gcc-arm-none-eabi-6-2017-q2-update/arm-none-eabi/include/c++/6.3.1/bits/stl_vector.h **** #endif
1076:/home/zkmike/.local/share/renesas/e2_studio/toolchains/gcc_arm/gcc-arm-none-eabi-6-2017-q2-update/arm-none-eabi/include/c++/6.3.1/bits/stl_vector.h **** 
1077:/home/zkmike/.local/share/renesas/e2_studio/toolchains/gcc_arm/gcc-arm-none-eabi-6-2017-q2-update/arm-none-eabi/include/c++/6.3.1/bits/stl_vector.h **** #if __cplusplus >= 201103L
1078:/home/zkmike/.local/share/renesas/e2_studio/toolchains/gcc_arm/gcc-arm-none-eabi-6-2017-q2-update/arm-none-eabi/include/c++/6.3.1/bits/stl_vector.h ****       /**
1079:/home/zkmike/.local/share/renesas/e2_studio/toolchains/gcc_arm/gcc-arm-none-eabi-6-2017-q2-update/arm-none-eabi/include/c++/6.3.1/bits/stl_vector.h ****        *  @brief  Inserts a range into the %vector.
1080:/home/zkmike/.local/share/renesas/e2_studio/toolchains/gcc_arm/gcc-arm-none-eabi-6-2017-q2-update/arm-none-eabi/include/c++/6.3.1/bits/stl_vector.h ****        *  @param  __position  A const_iterator into the %vector.
1081:/home/zkmike/.local/share/renesas/e2_studio/toolchains/gcc_arm/gcc-arm-none-eabi-6-2017-q2-update/arm-none-eabi/include/c++/6.3.1/bits/stl_vector.h ****        *  @param  __first  An input iterator.
1082:/home/zkmike/.local/share/renesas/e2_studio/toolchains/gcc_arm/gcc-arm-none-eabi-6-2017-q2-update/arm-none-eabi/include/c++/6.3.1/bits/stl_vector.h ****        *  @param  __last   An input iterator.
1083:/home/zkmike/.local/share/renesas/e2_studio/toolchains/gcc_arm/gcc-arm-none-eabi-6-2017-q2-update/arm-none-eabi/include/c++/6.3.1/bits/stl_vector.h ****        *  @return  An iterator that points to the inserted data.
1084:/home/zkmike/.local/share/renesas/e2_studio/toolchains/gcc_arm/gcc-arm-none-eabi-6-2017-q2-update/arm-none-eabi/include/c++/6.3.1/bits/stl_vector.h ****        *
1085:/home/zkmike/.local/share/renesas/e2_studio/toolchains/gcc_arm/gcc-arm-none-eabi-6-2017-q2-update/arm-none-eabi/include/c++/6.3.1/bits/stl_vector.h ****        *  This function will insert copies of the data in the range
1086:/home/zkmike/.local/share/renesas/e2_studio/toolchains/gcc_arm/gcc-arm-none-eabi-6-2017-q2-update/arm-none-eabi/include/c++/6.3.1/bits/stl_vector.h ****        *  [__first,__last) into the %vector before the location specified
1087:/home/zkmike/.local/share/renesas/e2_studio/toolchains/gcc_arm/gcc-arm-none-eabi-6-2017-q2-update/arm-none-eabi/include/c++/6.3.1/bits/stl_vector.h ****        *  by @a pos.
1088:/home/zkmike/.local/share/renesas/e2_studio/toolchains/gcc_arm/gcc-arm-none-eabi-6-2017-q2-update/arm-none-eabi/include/c++/6.3.1/bits/stl_vector.h ****        *
1089:/home/zkmike/.local/share/renesas/e2_studio/toolchains/gcc_arm/gcc-arm-none-eabi-6-2017-q2-update/arm-none-eabi/include/c++/6.3.1/bits/stl_vector.h ****        *  Note that this kind of operation could be expensive for a
1090:/home/zkmike/.local/share/renesas/e2_studio/toolchains/gcc_arm/gcc-arm-none-eabi-6-2017-q2-update/arm-none-eabi/include/c++/6.3.1/bits/stl_vector.h ****        *  %vector and if it is frequently used the user should
1091:/home/zkmike/.local/share/renesas/e2_studio/toolchains/gcc_arm/gcc-arm-none-eabi-6-2017-q2-update/arm-none-eabi/include/c++/6.3.1/bits/stl_vector.h ****        *  consider using std::list.
1092:/home/zkmike/.local/share/renesas/e2_studio/toolchains/gcc_arm/gcc-arm-none-eabi-6-2017-q2-update/arm-none-eabi/include/c++/6.3.1/bits/stl_vector.h ****        */
1093:/home/zkmike/.local/share/renesas/e2_studio/toolchains/gcc_arm/gcc-arm-none-eabi-6-2017-q2-update/arm-none-eabi/include/c++/6.3.1/bits/stl_vector.h ****       template<typename _InputIterator,
1094:/home/zkmike/.local/share/renesas/e2_studio/toolchains/gcc_arm/gcc-arm-none-eabi-6-2017-q2-update/arm-none-eabi/include/c++/6.3.1/bits/stl_vector.h **** 	       typename = std::_RequireInputIter<_InputIterator>>
1095:/home/zkmike/.local/share/renesas/e2_studio/toolchains/gcc_arm/gcc-arm-none-eabi-6-2017-q2-update/arm-none-eabi/include/c++/6.3.1/bits/stl_vector.h ****         iterator
1096:/home/zkmike/.local/share/renesas/e2_studio/toolchains/gcc_arm/gcc-arm-none-eabi-6-2017-q2-update/arm-none-eabi/include/c++/6.3.1/bits/stl_vector.h ****         insert(const_iterator __position, _InputIterator __first,
1097:/home/zkmike/.local/share/renesas/e2_studio/toolchains/gcc_arm/gcc-arm-none-eabi-6-2017-q2-update/arm-none-eabi/include/c++/6.3.1/bits/stl_vector.h **** 	       _InputIterator __last)
1098:/home/zkmike/.local/share/renesas/e2_studio/toolchains/gcc_arm/gcc-arm-none-eabi-6-2017-q2-update/arm-none-eabi/include/c++/6.3.1/bits/stl_vector.h ****         {
1099:/home/zkmike/.local/share/renesas/e2_studio/toolchains/gcc_arm/gcc-arm-none-eabi-6-2017-q2-update/arm-none-eabi/include/c++/6.3.1/bits/stl_vector.h **** 	  difference_type __offset = __position - cbegin();
1100:/home/zkmike/.local/share/renesas/e2_studio/toolchains/gcc_arm/gcc-arm-none-eabi-6-2017-q2-update/arm-none-eabi/include/c++/6.3.1/bits/stl_vector.h **** 	  _M_insert_dispatch(begin() + __offset,
1101:/home/zkmike/.local/share/renesas/e2_studio/toolchains/gcc_arm/gcc-arm-none-eabi-6-2017-q2-update/arm-none-eabi/include/c++/6.3.1/bits/stl_vector.h **** 			     __first, __last, __false_type());
1102:/home/zkmike/.local/share/renesas/e2_studio/toolchains/gcc_arm/gcc-arm-none-eabi-6-2017-q2-update/arm-none-eabi/include/c++/6.3.1/bits/stl_vector.h **** 	  return begin() + __offset;
1103:/home/zkmike/.local/share/renesas/e2_studio/toolchains/gcc_arm/gcc-arm-none-eabi-6-2017-q2-update/arm-none-eabi/include/c++/6.3.1/bits/stl_vector.h **** 	}
1104:/home/zkmike/.local/share/renesas/e2_studio/toolchains/gcc_arm/gcc-arm-none-eabi-6-2017-q2-update/arm-none-eabi/include/c++/6.3.1/bits/stl_vector.h **** #else
1105:/home/zkmike/.local/share/renesas/e2_studio/toolchains/gcc_arm/gcc-arm-none-eabi-6-2017-q2-update/arm-none-eabi/include/c++/6.3.1/bits/stl_vector.h ****       /**
1106:/home/zkmike/.local/share/renesas/e2_studio/toolchains/gcc_arm/gcc-arm-none-eabi-6-2017-q2-update/arm-none-eabi/include/c++/6.3.1/bits/stl_vector.h ****        *  @brief  Inserts a range into the %vector.
1107:/home/zkmike/.local/share/renesas/e2_studio/toolchains/gcc_arm/gcc-arm-none-eabi-6-2017-q2-update/arm-none-eabi/include/c++/6.3.1/bits/stl_vector.h ****        *  @param  __position  An iterator into the %vector.
1108:/home/zkmike/.local/share/renesas/e2_studio/toolchains/gcc_arm/gcc-arm-none-eabi-6-2017-q2-update/arm-none-eabi/include/c++/6.3.1/bits/stl_vector.h ****        *  @param  __first  An input iterator.
1109:/home/zkmike/.local/share/renesas/e2_studio/toolchains/gcc_arm/gcc-arm-none-eabi-6-2017-q2-update/arm-none-eabi/include/c++/6.3.1/bits/stl_vector.h ****        *  @param  __last   An input iterator.
1110:/home/zkmike/.local/share/renesas/e2_studio/toolchains/gcc_arm/gcc-arm-none-eabi-6-2017-q2-update/arm-none-eabi/include/c++/6.3.1/bits/stl_vector.h ****        *
1111:/home/zkmike/.local/share/renesas/e2_studio/toolchains/gcc_arm/gcc-arm-none-eabi-6-2017-q2-update/arm-none-eabi/include/c++/6.3.1/bits/stl_vector.h ****        *  This function will insert copies of the data in the range
1112:/home/zkmike/.local/share/renesas/e2_studio/toolchains/gcc_arm/gcc-arm-none-eabi-6-2017-q2-update/arm-none-eabi/include/c++/6.3.1/bits/stl_vector.h ****        *  [__first,__last) into the %vector before the location specified
1113:/home/zkmike/.local/share/renesas/e2_studio/toolchains/gcc_arm/gcc-arm-none-eabi-6-2017-q2-update/arm-none-eabi/include/c++/6.3.1/bits/stl_vector.h ****        *  by @a pos.
1114:/home/zkmike/.local/share/renesas/e2_studio/toolchains/gcc_arm/gcc-arm-none-eabi-6-2017-q2-update/arm-none-eabi/include/c++/6.3.1/bits/stl_vector.h ****        *
1115:/home/zkmike/.local/share/renesas/e2_studio/toolchains/gcc_arm/gcc-arm-none-eabi-6-2017-q2-update/arm-none-eabi/include/c++/6.3.1/bits/stl_vector.h ****        *  Note that this kind of operation could be expensive for a
1116:/home/zkmike/.local/share/renesas/e2_studio/toolchains/gcc_arm/gcc-arm-none-eabi-6-2017-q2-update/arm-none-eabi/include/c++/6.3.1/bits/stl_vector.h ****        *  %vector and if it is frequently used the user should
1117:/home/zkmike/.local/share/renesas/e2_studio/toolchains/gcc_arm/gcc-arm-none-eabi-6-2017-q2-update/arm-none-eabi/include/c++/6.3.1/bits/stl_vector.h ****        *  consider using std::list.
1118:/home/zkmike/.local/share/renesas/e2_studio/toolchains/gcc_arm/gcc-arm-none-eabi-6-2017-q2-update/arm-none-eabi/include/c++/6.3.1/bits/stl_vector.h ****        */
1119:/home/zkmike/.local/share/renesas/e2_studio/toolchains/gcc_arm/gcc-arm-none-eabi-6-2017-q2-update/arm-none-eabi/include/c++/6.3.1/bits/stl_vector.h ****       template<typename _InputIterator>
1120:/home/zkmike/.local/share/renesas/e2_studio/toolchains/gcc_arm/gcc-arm-none-eabi-6-2017-q2-update/arm-none-eabi/include/c++/6.3.1/bits/stl_vector.h ****         void
1121:/home/zkmike/.local/share/renesas/e2_studio/toolchains/gcc_arm/gcc-arm-none-eabi-6-2017-q2-update/arm-none-eabi/include/c++/6.3.1/bits/stl_vector.h ****         insert(iterator __position, _InputIterator __first,
1122:/home/zkmike/.local/share/renesas/e2_studio/toolchains/gcc_arm/gcc-arm-none-eabi-6-2017-q2-update/arm-none-eabi/include/c++/6.3.1/bits/stl_vector.h **** 	       _InputIterator __last)
1123:/home/zkmike/.local/share/renesas/e2_studio/toolchains/gcc_arm/gcc-arm-none-eabi-6-2017-q2-update/arm-none-eabi/include/c++/6.3.1/bits/stl_vector.h ****         {
1124:/home/zkmike/.local/share/renesas/e2_studio/toolchains/gcc_arm/gcc-arm-none-eabi-6-2017-q2-update/arm-none-eabi/include/c++/6.3.1/bits/stl_vector.h **** 	  // Check whether it's an integral type.  If so, it's not an iterator.
1125:/home/zkmike/.local/share/renesas/e2_studio/toolchains/gcc_arm/gcc-arm-none-eabi-6-2017-q2-update/arm-none-eabi/include/c++/6.3.1/bits/stl_vector.h **** 	  typedef typename std::__is_integer<_InputIterator>::__type _Integral;
1126:/home/zkmike/.local/share/renesas/e2_studio/toolchains/gcc_arm/gcc-arm-none-eabi-6-2017-q2-update/arm-none-eabi/include/c++/6.3.1/bits/stl_vector.h **** 	  _M_insert_dispatch(__position, __first, __last, _Integral());
1127:/home/zkmike/.local/share/renesas/e2_studio/toolchains/gcc_arm/gcc-arm-none-eabi-6-2017-q2-update/arm-none-eabi/include/c++/6.3.1/bits/stl_vector.h **** 	}
1128:/home/zkmike/.local/share/renesas/e2_studio/toolchains/gcc_arm/gcc-arm-none-eabi-6-2017-q2-update/arm-none-eabi/include/c++/6.3.1/bits/stl_vector.h **** #endif
1129:/home/zkmike/.local/share/renesas/e2_studio/toolchains/gcc_arm/gcc-arm-none-eabi-6-2017-q2-update/arm-none-eabi/include/c++/6.3.1/bits/stl_vector.h **** 
1130:/home/zkmike/.local/share/renesas/e2_studio/toolchains/gcc_arm/gcc-arm-none-eabi-6-2017-q2-update/arm-none-eabi/include/c++/6.3.1/bits/stl_vector.h ****       /**
1131:/home/zkmike/.local/share/renesas/e2_studio/toolchains/gcc_arm/gcc-arm-none-eabi-6-2017-q2-update/arm-none-eabi/include/c++/6.3.1/bits/stl_vector.h ****        *  @brief  Remove element at given position.
1132:/home/zkmike/.local/share/renesas/e2_studio/toolchains/gcc_arm/gcc-arm-none-eabi-6-2017-q2-update/arm-none-eabi/include/c++/6.3.1/bits/stl_vector.h ****        *  @param  __position  Iterator pointing to element to be erased.
1133:/home/zkmike/.local/share/renesas/e2_studio/toolchains/gcc_arm/gcc-arm-none-eabi-6-2017-q2-update/arm-none-eabi/include/c++/6.3.1/bits/stl_vector.h ****        *  @return  An iterator pointing to the next element (or end()).
1134:/home/zkmike/.local/share/renesas/e2_studio/toolchains/gcc_arm/gcc-arm-none-eabi-6-2017-q2-update/arm-none-eabi/include/c++/6.3.1/bits/stl_vector.h ****        *
1135:/home/zkmike/.local/share/renesas/e2_studio/toolchains/gcc_arm/gcc-arm-none-eabi-6-2017-q2-update/arm-none-eabi/include/c++/6.3.1/bits/stl_vector.h ****        *  This function will erase the element at the given position and thus
1136:/home/zkmike/.local/share/renesas/e2_studio/toolchains/gcc_arm/gcc-arm-none-eabi-6-2017-q2-update/arm-none-eabi/include/c++/6.3.1/bits/stl_vector.h ****        *  shorten the %vector by one.
1137:/home/zkmike/.local/share/renesas/e2_studio/toolchains/gcc_arm/gcc-arm-none-eabi-6-2017-q2-update/arm-none-eabi/include/c++/6.3.1/bits/stl_vector.h ****        *
1138:/home/zkmike/.local/share/renesas/e2_studio/toolchains/gcc_arm/gcc-arm-none-eabi-6-2017-q2-update/arm-none-eabi/include/c++/6.3.1/bits/stl_vector.h ****        *  Note This operation could be expensive and if it is
1139:/home/zkmike/.local/share/renesas/e2_studio/toolchains/gcc_arm/gcc-arm-none-eabi-6-2017-q2-update/arm-none-eabi/include/c++/6.3.1/bits/stl_vector.h ****        *  frequently used the user should consider using std::list.
1140:/home/zkmike/.local/share/renesas/e2_studio/toolchains/gcc_arm/gcc-arm-none-eabi-6-2017-q2-update/arm-none-eabi/include/c++/6.3.1/bits/stl_vector.h ****        *  The user is also cautioned that this function only erases
1141:/home/zkmike/.local/share/renesas/e2_studio/toolchains/gcc_arm/gcc-arm-none-eabi-6-2017-q2-update/arm-none-eabi/include/c++/6.3.1/bits/stl_vector.h ****        *  the element, and that if the element is itself a pointer,
1142:/home/zkmike/.local/share/renesas/e2_studio/toolchains/gcc_arm/gcc-arm-none-eabi-6-2017-q2-update/arm-none-eabi/include/c++/6.3.1/bits/stl_vector.h ****        *  the pointed-to memory is not touched in any way.  Managing
1143:/home/zkmike/.local/share/renesas/e2_studio/toolchains/gcc_arm/gcc-arm-none-eabi-6-2017-q2-update/arm-none-eabi/include/c++/6.3.1/bits/stl_vector.h ****        *  the pointer is the user's responsibility.
1144:/home/zkmike/.local/share/renesas/e2_studio/toolchains/gcc_arm/gcc-arm-none-eabi-6-2017-q2-update/arm-none-eabi/include/c++/6.3.1/bits/stl_vector.h ****        */
1145:/home/zkmike/.local/share/renesas/e2_studio/toolchains/gcc_arm/gcc-arm-none-eabi-6-2017-q2-update/arm-none-eabi/include/c++/6.3.1/bits/stl_vector.h ****       iterator
1146:/home/zkmike/.local/share/renesas/e2_studio/toolchains/gcc_arm/gcc-arm-none-eabi-6-2017-q2-update/arm-none-eabi/include/c++/6.3.1/bits/stl_vector.h **** #if __cplusplus >= 201103L
1147:/home/zkmike/.local/share/renesas/e2_studio/toolchains/gcc_arm/gcc-arm-none-eabi-6-2017-q2-update/arm-none-eabi/include/c++/6.3.1/bits/stl_vector.h ****       erase(const_iterator __position)
1148:/home/zkmike/.local/share/renesas/e2_studio/toolchains/gcc_arm/gcc-arm-none-eabi-6-2017-q2-update/arm-none-eabi/include/c++/6.3.1/bits/stl_vector.h ****       { return _M_erase(begin() + (__position - cbegin())); }
1149:/home/zkmike/.local/share/renesas/e2_studio/toolchains/gcc_arm/gcc-arm-none-eabi-6-2017-q2-update/arm-none-eabi/include/c++/6.3.1/bits/stl_vector.h **** #else
1150:/home/zkmike/.local/share/renesas/e2_studio/toolchains/gcc_arm/gcc-arm-none-eabi-6-2017-q2-update/arm-none-eabi/include/c++/6.3.1/bits/stl_vector.h ****       erase(iterator __position)
1151:/home/zkmike/.local/share/renesas/e2_studio/toolchains/gcc_arm/gcc-arm-none-eabi-6-2017-q2-update/arm-none-eabi/include/c++/6.3.1/bits/stl_vector.h ****       { return _M_erase(__position); }
1152:/home/zkmike/.local/share/renesas/e2_studio/toolchains/gcc_arm/gcc-arm-none-eabi-6-2017-q2-update/arm-none-eabi/include/c++/6.3.1/bits/stl_vector.h **** #endif
1153:/home/zkmike/.local/share/renesas/e2_studio/toolchains/gcc_arm/gcc-arm-none-eabi-6-2017-q2-update/arm-none-eabi/include/c++/6.3.1/bits/stl_vector.h **** 
1154:/home/zkmike/.local/share/renesas/e2_studio/toolchains/gcc_arm/gcc-arm-none-eabi-6-2017-q2-update/arm-none-eabi/include/c++/6.3.1/bits/stl_vector.h ****       /**
1155:/home/zkmike/.local/share/renesas/e2_studio/toolchains/gcc_arm/gcc-arm-none-eabi-6-2017-q2-update/arm-none-eabi/include/c++/6.3.1/bits/stl_vector.h ****        *  @brief  Remove a range of elements.
1156:/home/zkmike/.local/share/renesas/e2_studio/toolchains/gcc_arm/gcc-arm-none-eabi-6-2017-q2-update/arm-none-eabi/include/c++/6.3.1/bits/stl_vector.h ****        *  @param  __first  Iterator pointing to the first element to be erased.
1157:/home/zkmike/.local/share/renesas/e2_studio/toolchains/gcc_arm/gcc-arm-none-eabi-6-2017-q2-update/arm-none-eabi/include/c++/6.3.1/bits/stl_vector.h ****        *  @param  __last  Iterator pointing to one past the last element to be
1158:/home/zkmike/.local/share/renesas/e2_studio/toolchains/gcc_arm/gcc-arm-none-eabi-6-2017-q2-update/arm-none-eabi/include/c++/6.3.1/bits/stl_vector.h ****        *                  erased.
1159:/home/zkmike/.local/share/renesas/e2_studio/toolchains/gcc_arm/gcc-arm-none-eabi-6-2017-q2-update/arm-none-eabi/include/c++/6.3.1/bits/stl_vector.h ****        *  @return  An iterator pointing to the element pointed to by @a __last
1160:/home/zkmike/.local/share/renesas/e2_studio/toolchains/gcc_arm/gcc-arm-none-eabi-6-2017-q2-update/arm-none-eabi/include/c++/6.3.1/bits/stl_vector.h ****        *           prior to erasing (or end()).
1161:/home/zkmike/.local/share/renesas/e2_studio/toolchains/gcc_arm/gcc-arm-none-eabi-6-2017-q2-update/arm-none-eabi/include/c++/6.3.1/bits/stl_vector.h ****        *
1162:/home/zkmike/.local/share/renesas/e2_studio/toolchains/gcc_arm/gcc-arm-none-eabi-6-2017-q2-update/arm-none-eabi/include/c++/6.3.1/bits/stl_vector.h ****        *  This function will erase the elements in the range
1163:/home/zkmike/.local/share/renesas/e2_studio/toolchains/gcc_arm/gcc-arm-none-eabi-6-2017-q2-update/arm-none-eabi/include/c++/6.3.1/bits/stl_vector.h ****        *  [__first,__last) and shorten the %vector accordingly.
1164:/home/zkmike/.local/share/renesas/e2_studio/toolchains/gcc_arm/gcc-arm-none-eabi-6-2017-q2-update/arm-none-eabi/include/c++/6.3.1/bits/stl_vector.h ****        *
1165:/home/zkmike/.local/share/renesas/e2_studio/toolchains/gcc_arm/gcc-arm-none-eabi-6-2017-q2-update/arm-none-eabi/include/c++/6.3.1/bits/stl_vector.h ****        *  Note This operation could be expensive and if it is
1166:/home/zkmike/.local/share/renesas/e2_studio/toolchains/gcc_arm/gcc-arm-none-eabi-6-2017-q2-update/arm-none-eabi/include/c++/6.3.1/bits/stl_vector.h ****        *  frequently used the user should consider using std::list.
1167:/home/zkmike/.local/share/renesas/e2_studio/toolchains/gcc_arm/gcc-arm-none-eabi-6-2017-q2-update/arm-none-eabi/include/c++/6.3.1/bits/stl_vector.h ****        *  The user is also cautioned that this function only erases
1168:/home/zkmike/.local/share/renesas/e2_studio/toolchains/gcc_arm/gcc-arm-none-eabi-6-2017-q2-update/arm-none-eabi/include/c++/6.3.1/bits/stl_vector.h ****        *  the elements, and that if the elements themselves are
1169:/home/zkmike/.local/share/renesas/e2_studio/toolchains/gcc_arm/gcc-arm-none-eabi-6-2017-q2-update/arm-none-eabi/include/c++/6.3.1/bits/stl_vector.h ****        *  pointers, the pointed-to memory is not touched in any way.
1170:/home/zkmike/.local/share/renesas/e2_studio/toolchains/gcc_arm/gcc-arm-none-eabi-6-2017-q2-update/arm-none-eabi/include/c++/6.3.1/bits/stl_vector.h ****        *  Managing the pointer is the user's responsibility.
1171:/home/zkmike/.local/share/renesas/e2_studio/toolchains/gcc_arm/gcc-arm-none-eabi-6-2017-q2-update/arm-none-eabi/include/c++/6.3.1/bits/stl_vector.h ****        */
1172:/home/zkmike/.local/share/renesas/e2_studio/toolchains/gcc_arm/gcc-arm-none-eabi-6-2017-q2-update/arm-none-eabi/include/c++/6.3.1/bits/stl_vector.h ****       iterator
1173:/home/zkmike/.local/share/renesas/e2_studio/toolchains/gcc_arm/gcc-arm-none-eabi-6-2017-q2-update/arm-none-eabi/include/c++/6.3.1/bits/stl_vector.h **** #if __cplusplus >= 201103L
1174:/home/zkmike/.local/share/renesas/e2_studio/toolchains/gcc_arm/gcc-arm-none-eabi-6-2017-q2-update/arm-none-eabi/include/c++/6.3.1/bits/stl_vector.h ****       erase(const_iterator __first, const_iterator __last)
1175:/home/zkmike/.local/share/renesas/e2_studio/toolchains/gcc_arm/gcc-arm-none-eabi-6-2017-q2-update/arm-none-eabi/include/c++/6.3.1/bits/stl_vector.h ****       {
1176:/home/zkmike/.local/share/renesas/e2_studio/toolchains/gcc_arm/gcc-arm-none-eabi-6-2017-q2-update/arm-none-eabi/include/c++/6.3.1/bits/stl_vector.h **** 	const auto __beg = begin();
1177:/home/zkmike/.local/share/renesas/e2_studio/toolchains/gcc_arm/gcc-arm-none-eabi-6-2017-q2-update/arm-none-eabi/include/c++/6.3.1/bits/stl_vector.h **** 	const auto __cbeg = cbegin();
1178:/home/zkmike/.local/share/renesas/e2_studio/toolchains/gcc_arm/gcc-arm-none-eabi-6-2017-q2-update/arm-none-eabi/include/c++/6.3.1/bits/stl_vector.h **** 	return _M_erase(__beg + (__first - __cbeg), __beg + (__last - __cbeg));
1179:/home/zkmike/.local/share/renesas/e2_studio/toolchains/gcc_arm/gcc-arm-none-eabi-6-2017-q2-update/arm-none-eabi/include/c++/6.3.1/bits/stl_vector.h ****       }
1180:/home/zkmike/.local/share/renesas/e2_studio/toolchains/gcc_arm/gcc-arm-none-eabi-6-2017-q2-update/arm-none-eabi/include/c++/6.3.1/bits/stl_vector.h **** #else
1181:/home/zkmike/.local/share/renesas/e2_studio/toolchains/gcc_arm/gcc-arm-none-eabi-6-2017-q2-update/arm-none-eabi/include/c++/6.3.1/bits/stl_vector.h ****       erase(iterator __first, iterator __last)
1182:/home/zkmike/.local/share/renesas/e2_studio/toolchains/gcc_arm/gcc-arm-none-eabi-6-2017-q2-update/arm-none-eabi/include/c++/6.3.1/bits/stl_vector.h ****       { return _M_erase(__first, __last); }
1183:/home/zkmike/.local/share/renesas/e2_studio/toolchains/gcc_arm/gcc-arm-none-eabi-6-2017-q2-update/arm-none-eabi/include/c++/6.3.1/bits/stl_vector.h **** #endif
1184:/home/zkmike/.local/share/renesas/e2_studio/toolchains/gcc_arm/gcc-arm-none-eabi-6-2017-q2-update/arm-none-eabi/include/c++/6.3.1/bits/stl_vector.h **** 
1185:/home/zkmike/.local/share/renesas/e2_studio/toolchains/gcc_arm/gcc-arm-none-eabi-6-2017-q2-update/arm-none-eabi/include/c++/6.3.1/bits/stl_vector.h ****       /**
1186:/home/zkmike/.local/share/renesas/e2_studio/toolchains/gcc_arm/gcc-arm-none-eabi-6-2017-q2-update/arm-none-eabi/include/c++/6.3.1/bits/stl_vector.h ****        *  @brief  Swaps data with another %vector.
1187:/home/zkmike/.local/share/renesas/e2_studio/toolchains/gcc_arm/gcc-arm-none-eabi-6-2017-q2-update/arm-none-eabi/include/c++/6.3.1/bits/stl_vector.h ****        *  @param  __x  A %vector of the same element and allocator types.
1188:/home/zkmike/.local/share/renesas/e2_studio/toolchains/gcc_arm/gcc-arm-none-eabi-6-2017-q2-update/arm-none-eabi/include/c++/6.3.1/bits/stl_vector.h ****        *
1189:/home/zkmike/.local/share/renesas/e2_studio/toolchains/gcc_arm/gcc-arm-none-eabi-6-2017-q2-update/arm-none-eabi/include/c++/6.3.1/bits/stl_vector.h ****        *  This exchanges the elements between two vectors in constant time.
1190:/home/zkmike/.local/share/renesas/e2_studio/toolchains/gcc_arm/gcc-arm-none-eabi-6-2017-q2-update/arm-none-eabi/include/c++/6.3.1/bits/stl_vector.h ****        *  (Three pointers, so it should be quite fast.)
1191:/home/zkmike/.local/share/renesas/e2_studio/toolchains/gcc_arm/gcc-arm-none-eabi-6-2017-q2-update/arm-none-eabi/include/c++/6.3.1/bits/stl_vector.h ****        *  Note that the global std::swap() function is specialized such that
1192:/home/zkmike/.local/share/renesas/e2_studio/toolchains/gcc_arm/gcc-arm-none-eabi-6-2017-q2-update/arm-none-eabi/include/c++/6.3.1/bits/stl_vector.h ****        *  std::swap(v1,v2) will feed to this function.
1193:/home/zkmike/.local/share/renesas/e2_studio/toolchains/gcc_arm/gcc-arm-none-eabi-6-2017-q2-update/arm-none-eabi/include/c++/6.3.1/bits/stl_vector.h ****        */
1194:/home/zkmike/.local/share/renesas/e2_studio/toolchains/gcc_arm/gcc-arm-none-eabi-6-2017-q2-update/arm-none-eabi/include/c++/6.3.1/bits/stl_vector.h ****       void
1195:/home/zkmike/.local/share/renesas/e2_studio/toolchains/gcc_arm/gcc-arm-none-eabi-6-2017-q2-update/arm-none-eabi/include/c++/6.3.1/bits/stl_vector.h ****       swap(vector& __x) _GLIBCXX_NOEXCEPT
1196:/home/zkmike/.local/share/renesas/e2_studio/toolchains/gcc_arm/gcc-arm-none-eabi-6-2017-q2-update/arm-none-eabi/include/c++/6.3.1/bits/stl_vector.h ****       {
1197:/home/zkmike/.local/share/renesas/e2_studio/toolchains/gcc_arm/gcc-arm-none-eabi-6-2017-q2-update/arm-none-eabi/include/c++/6.3.1/bits/stl_vector.h **** 	this->_M_impl._M_swap_data(__x._M_impl);
1198:/home/zkmike/.local/share/renesas/e2_studio/toolchains/gcc_arm/gcc-arm-none-eabi-6-2017-q2-update/arm-none-eabi/include/c++/6.3.1/bits/stl_vector.h **** 	_Alloc_traits::_S_on_swap(_M_get_Tp_allocator(),
1199:/home/zkmike/.local/share/renesas/e2_studio/toolchains/gcc_arm/gcc-arm-none-eabi-6-2017-q2-update/arm-none-eabi/include/c++/6.3.1/bits/stl_vector.h **** 	                          __x._M_get_Tp_allocator());
1200:/home/zkmike/.local/share/renesas/e2_studio/toolchains/gcc_arm/gcc-arm-none-eabi-6-2017-q2-update/arm-none-eabi/include/c++/6.3.1/bits/stl_vector.h ****       }
1201:/home/zkmike/.local/share/renesas/e2_studio/toolchains/gcc_arm/gcc-arm-none-eabi-6-2017-q2-update/arm-none-eabi/include/c++/6.3.1/bits/stl_vector.h **** 
1202:/home/zkmike/.local/share/renesas/e2_studio/toolchains/gcc_arm/gcc-arm-none-eabi-6-2017-q2-update/arm-none-eabi/include/c++/6.3.1/bits/stl_vector.h ****       /**
1203:/home/zkmike/.local/share/renesas/e2_studio/toolchains/gcc_arm/gcc-arm-none-eabi-6-2017-q2-update/arm-none-eabi/include/c++/6.3.1/bits/stl_vector.h ****        *  Erases all the elements.  Note that this function only erases the
1204:/home/zkmike/.local/share/renesas/e2_studio/toolchains/gcc_arm/gcc-arm-none-eabi-6-2017-q2-update/arm-none-eabi/include/c++/6.3.1/bits/stl_vector.h ****        *  elements, and that if the elements themselves are pointers, the
1205:/home/zkmike/.local/share/renesas/e2_studio/toolchains/gcc_arm/gcc-arm-none-eabi-6-2017-q2-update/arm-none-eabi/include/c++/6.3.1/bits/stl_vector.h ****        *  pointed-to memory is not touched in any way.  Managing the pointer is
1206:/home/zkmike/.local/share/renesas/e2_studio/toolchains/gcc_arm/gcc-arm-none-eabi-6-2017-q2-update/arm-none-eabi/include/c++/6.3.1/bits/stl_vector.h ****        *  the user's responsibility.
1207:/home/zkmike/.local/share/renesas/e2_studio/toolchains/gcc_arm/gcc-arm-none-eabi-6-2017-q2-update/arm-none-eabi/include/c++/6.3.1/bits/stl_vector.h ****        */
1208:/home/zkmike/.local/share/renesas/e2_studio/toolchains/gcc_arm/gcc-arm-none-eabi-6-2017-q2-update/arm-none-eabi/include/c++/6.3.1/bits/stl_vector.h ****       void
1209:/home/zkmike/.local/share/renesas/e2_studio/toolchains/gcc_arm/gcc-arm-none-eabi-6-2017-q2-update/arm-none-eabi/include/c++/6.3.1/bits/stl_vector.h ****       clear() _GLIBCXX_NOEXCEPT
1210:/home/zkmike/.local/share/renesas/e2_studio/toolchains/gcc_arm/gcc-arm-none-eabi-6-2017-q2-update/arm-none-eabi/include/c++/6.3.1/bits/stl_vector.h ****       { _M_erase_at_end(this->_M_impl._M_start); }
1211:/home/zkmike/.local/share/renesas/e2_studio/toolchains/gcc_arm/gcc-arm-none-eabi-6-2017-q2-update/arm-none-eabi/include/c++/6.3.1/bits/stl_vector.h **** 
1212:/home/zkmike/.local/share/renesas/e2_studio/toolchains/gcc_arm/gcc-arm-none-eabi-6-2017-q2-update/arm-none-eabi/include/c++/6.3.1/bits/stl_vector.h ****     protected:
1213:/home/zkmike/.local/share/renesas/e2_studio/toolchains/gcc_arm/gcc-arm-none-eabi-6-2017-q2-update/arm-none-eabi/include/c++/6.3.1/bits/stl_vector.h ****       /**
1214:/home/zkmike/.local/share/renesas/e2_studio/toolchains/gcc_arm/gcc-arm-none-eabi-6-2017-q2-update/arm-none-eabi/include/c++/6.3.1/bits/stl_vector.h ****        *  Memory expansion handler.  Uses the member allocation function to
1215:/home/zkmike/.local/share/renesas/e2_studio/toolchains/gcc_arm/gcc-arm-none-eabi-6-2017-q2-update/arm-none-eabi/include/c++/6.3.1/bits/stl_vector.h ****        *  obtain @a n bytes of memory, and then copies [first,last) into it.
1216:/home/zkmike/.local/share/renesas/e2_studio/toolchains/gcc_arm/gcc-arm-none-eabi-6-2017-q2-update/arm-none-eabi/include/c++/6.3.1/bits/stl_vector.h ****        */
1217:/home/zkmike/.local/share/renesas/e2_studio/toolchains/gcc_arm/gcc-arm-none-eabi-6-2017-q2-update/arm-none-eabi/include/c++/6.3.1/bits/stl_vector.h ****       template<typename _ForwardIterator>
1218:/home/zkmike/.local/share/renesas/e2_studio/toolchains/gcc_arm/gcc-arm-none-eabi-6-2017-q2-update/arm-none-eabi/include/c++/6.3.1/bits/stl_vector.h ****         pointer
1219:/home/zkmike/.local/share/renesas/e2_studio/toolchains/gcc_arm/gcc-arm-none-eabi-6-2017-q2-update/arm-none-eabi/include/c++/6.3.1/bits/stl_vector.h ****         _M_allocate_and_copy(size_type __n,
1220:/home/zkmike/.local/share/renesas/e2_studio/toolchains/gcc_arm/gcc-arm-none-eabi-6-2017-q2-update/arm-none-eabi/include/c++/6.3.1/bits/stl_vector.h **** 			     _ForwardIterator __first, _ForwardIterator __last)
1221:/home/zkmike/.local/share/renesas/e2_studio/toolchains/gcc_arm/gcc-arm-none-eabi-6-2017-q2-update/arm-none-eabi/include/c++/6.3.1/bits/stl_vector.h ****         {
1222:/home/zkmike/.local/share/renesas/e2_studio/toolchains/gcc_arm/gcc-arm-none-eabi-6-2017-q2-update/arm-none-eabi/include/c++/6.3.1/bits/stl_vector.h **** 	  pointer __result = this->_M_allocate(__n);
1223:/home/zkmike/.local/share/renesas/e2_studio/toolchains/gcc_arm/gcc-arm-none-eabi-6-2017-q2-update/arm-none-eabi/include/c++/6.3.1/bits/stl_vector.h **** 	  __try
1224:/home/zkmike/.local/share/renesas/e2_studio/toolchains/gcc_arm/gcc-arm-none-eabi-6-2017-q2-update/arm-none-eabi/include/c++/6.3.1/bits/stl_vector.h **** 	    {
1225:/home/zkmike/.local/share/renesas/e2_studio/toolchains/gcc_arm/gcc-arm-none-eabi-6-2017-q2-update/arm-none-eabi/include/c++/6.3.1/bits/stl_vector.h **** 	      std::__uninitialized_copy_a(__first, __last, __result,
1226:/home/zkmike/.local/share/renesas/e2_studio/toolchains/gcc_arm/gcc-arm-none-eabi-6-2017-q2-update/arm-none-eabi/include/c++/6.3.1/bits/stl_vector.h **** 					  _M_get_Tp_allocator());
1227:/home/zkmike/.local/share/renesas/e2_studio/toolchains/gcc_arm/gcc-arm-none-eabi-6-2017-q2-update/arm-none-eabi/include/c++/6.3.1/bits/stl_vector.h **** 	      return __result;
1228:/home/zkmike/.local/share/renesas/e2_studio/toolchains/gcc_arm/gcc-arm-none-eabi-6-2017-q2-update/arm-none-eabi/include/c++/6.3.1/bits/stl_vector.h **** 	    }
1229:/home/zkmike/.local/share/renesas/e2_studio/toolchains/gcc_arm/gcc-arm-none-eabi-6-2017-q2-update/arm-none-eabi/include/c++/6.3.1/bits/stl_vector.h **** 	  __catch(...)
1230:/home/zkmike/.local/share/renesas/e2_studio/toolchains/gcc_arm/gcc-arm-none-eabi-6-2017-q2-update/arm-none-eabi/include/c++/6.3.1/bits/stl_vector.h **** 	    {
1231:/home/zkmike/.local/share/renesas/e2_studio/toolchains/gcc_arm/gcc-arm-none-eabi-6-2017-q2-update/arm-none-eabi/include/c++/6.3.1/bits/stl_vector.h **** 	      _M_deallocate(__result, __n);
1232:/home/zkmike/.local/share/renesas/e2_studio/toolchains/gcc_arm/gcc-arm-none-eabi-6-2017-q2-update/arm-none-eabi/include/c++/6.3.1/bits/stl_vector.h **** 	      __throw_exception_again;
1233:/home/zkmike/.local/share/renesas/e2_studio/toolchains/gcc_arm/gcc-arm-none-eabi-6-2017-q2-update/arm-none-eabi/include/c++/6.3.1/bits/stl_vector.h **** 	    }
1234:/home/zkmike/.local/share/renesas/e2_studio/toolchains/gcc_arm/gcc-arm-none-eabi-6-2017-q2-update/arm-none-eabi/include/c++/6.3.1/bits/stl_vector.h **** 	}
1235:/home/zkmike/.local/share/renesas/e2_studio/toolchains/gcc_arm/gcc-arm-none-eabi-6-2017-q2-update/arm-none-eabi/include/c++/6.3.1/bits/stl_vector.h **** 
1236:/home/zkmike/.local/share/renesas/e2_studio/toolchains/gcc_arm/gcc-arm-none-eabi-6-2017-q2-update/arm-none-eabi/include/c++/6.3.1/bits/stl_vector.h **** 
1237:/home/zkmike/.local/share/renesas/e2_studio/toolchains/gcc_arm/gcc-arm-none-eabi-6-2017-q2-update/arm-none-eabi/include/c++/6.3.1/bits/stl_vector.h ****       // Internal constructor functions follow.
1238:/home/zkmike/.local/share/renesas/e2_studio/toolchains/gcc_arm/gcc-arm-none-eabi-6-2017-q2-update/arm-none-eabi/include/c++/6.3.1/bits/stl_vector.h **** 
1239:/home/zkmike/.local/share/renesas/e2_studio/toolchains/gcc_arm/gcc-arm-none-eabi-6-2017-q2-update/arm-none-eabi/include/c++/6.3.1/bits/stl_vector.h ****       // Called by the range constructor to implement [23.1.1]/9
1240:/home/zkmike/.local/share/renesas/e2_studio/toolchains/gcc_arm/gcc-arm-none-eabi-6-2017-q2-update/arm-none-eabi/include/c++/6.3.1/bits/stl_vector.h **** 
1241:/home/zkmike/.local/share/renesas/e2_studio/toolchains/gcc_arm/gcc-arm-none-eabi-6-2017-q2-update/arm-none-eabi/include/c++/6.3.1/bits/stl_vector.h ****       // _GLIBCXX_RESOLVE_LIB_DEFECTS
1242:/home/zkmike/.local/share/renesas/e2_studio/toolchains/gcc_arm/gcc-arm-none-eabi-6-2017-q2-update/arm-none-eabi/include/c++/6.3.1/bits/stl_vector.h ****       // 438. Ambiguity in the "do the right thing" clause
1243:/home/zkmike/.local/share/renesas/e2_studio/toolchains/gcc_arm/gcc-arm-none-eabi-6-2017-q2-update/arm-none-eabi/include/c++/6.3.1/bits/stl_vector.h ****       template<typename _Integer>
1244:/home/zkmike/.local/share/renesas/e2_studio/toolchains/gcc_arm/gcc-arm-none-eabi-6-2017-q2-update/arm-none-eabi/include/c++/6.3.1/bits/stl_vector.h ****         void
1245:/home/zkmike/.local/share/renesas/e2_studio/toolchains/gcc_arm/gcc-arm-none-eabi-6-2017-q2-update/arm-none-eabi/include/c++/6.3.1/bits/stl_vector.h ****         _M_initialize_dispatch(_Integer __n, _Integer __value, __true_type)
1246:/home/zkmike/.local/share/renesas/e2_studio/toolchains/gcc_arm/gcc-arm-none-eabi-6-2017-q2-update/arm-none-eabi/include/c++/6.3.1/bits/stl_vector.h ****         {
1247:/home/zkmike/.local/share/renesas/e2_studio/toolchains/gcc_arm/gcc-arm-none-eabi-6-2017-q2-update/arm-none-eabi/include/c++/6.3.1/bits/stl_vector.h **** 	  this->_M_impl._M_start = _M_allocate(static_cast<size_type>(__n));
1248:/home/zkmike/.local/share/renesas/e2_studio/toolchains/gcc_arm/gcc-arm-none-eabi-6-2017-q2-update/arm-none-eabi/include/c++/6.3.1/bits/stl_vector.h **** 	  this->_M_impl._M_end_of_storage =
1249:/home/zkmike/.local/share/renesas/e2_studio/toolchains/gcc_arm/gcc-arm-none-eabi-6-2017-q2-update/arm-none-eabi/include/c++/6.3.1/bits/stl_vector.h **** 	    this->_M_impl._M_start + static_cast<size_type>(__n);
1250:/home/zkmike/.local/share/renesas/e2_studio/toolchains/gcc_arm/gcc-arm-none-eabi-6-2017-q2-update/arm-none-eabi/include/c++/6.3.1/bits/stl_vector.h **** 	  _M_fill_initialize(static_cast<size_type>(__n), __value);
1251:/home/zkmike/.local/share/renesas/e2_studio/toolchains/gcc_arm/gcc-arm-none-eabi-6-2017-q2-update/arm-none-eabi/include/c++/6.3.1/bits/stl_vector.h **** 	}
1252:/home/zkmike/.local/share/renesas/e2_studio/toolchains/gcc_arm/gcc-arm-none-eabi-6-2017-q2-update/arm-none-eabi/include/c++/6.3.1/bits/stl_vector.h **** 
1253:/home/zkmike/.local/share/renesas/e2_studio/toolchains/gcc_arm/gcc-arm-none-eabi-6-2017-q2-update/arm-none-eabi/include/c++/6.3.1/bits/stl_vector.h ****       // Called by the range constructor to implement [23.1.1]/9
1254:/home/zkmike/.local/share/renesas/e2_studio/toolchains/gcc_arm/gcc-arm-none-eabi-6-2017-q2-update/arm-none-eabi/include/c++/6.3.1/bits/stl_vector.h ****       template<typename _InputIterator>
1255:/home/zkmike/.local/share/renesas/e2_studio/toolchains/gcc_arm/gcc-arm-none-eabi-6-2017-q2-update/arm-none-eabi/include/c++/6.3.1/bits/stl_vector.h ****         void
1256:/home/zkmike/.local/share/renesas/e2_studio/toolchains/gcc_arm/gcc-arm-none-eabi-6-2017-q2-update/arm-none-eabi/include/c++/6.3.1/bits/stl_vector.h ****         _M_initialize_dispatch(_InputIterator __first, _InputIterator __last,
1257:/home/zkmike/.local/share/renesas/e2_studio/toolchains/gcc_arm/gcc-arm-none-eabi-6-2017-q2-update/arm-none-eabi/include/c++/6.3.1/bits/stl_vector.h **** 			       __false_type)
1258:/home/zkmike/.local/share/renesas/e2_studio/toolchains/gcc_arm/gcc-arm-none-eabi-6-2017-q2-update/arm-none-eabi/include/c++/6.3.1/bits/stl_vector.h ****         {
1259:/home/zkmike/.local/share/renesas/e2_studio/toolchains/gcc_arm/gcc-arm-none-eabi-6-2017-q2-update/arm-none-eabi/include/c++/6.3.1/bits/stl_vector.h **** 	  typedef typename std::iterator_traits<_InputIterator>::
1260:/home/zkmike/.local/share/renesas/e2_studio/toolchains/gcc_arm/gcc-arm-none-eabi-6-2017-q2-update/arm-none-eabi/include/c++/6.3.1/bits/stl_vector.h **** 	    iterator_category _IterCategory;
1261:/home/zkmike/.local/share/renesas/e2_studio/toolchains/gcc_arm/gcc-arm-none-eabi-6-2017-q2-update/arm-none-eabi/include/c++/6.3.1/bits/stl_vector.h **** 	  _M_range_initialize(__first, __last, _IterCategory());
1262:/home/zkmike/.local/share/renesas/e2_studio/toolchains/gcc_arm/gcc-arm-none-eabi-6-2017-q2-update/arm-none-eabi/include/c++/6.3.1/bits/stl_vector.h **** 	}
1263:/home/zkmike/.local/share/renesas/e2_studio/toolchains/gcc_arm/gcc-arm-none-eabi-6-2017-q2-update/arm-none-eabi/include/c++/6.3.1/bits/stl_vector.h **** 
1264:/home/zkmike/.local/share/renesas/e2_studio/toolchains/gcc_arm/gcc-arm-none-eabi-6-2017-q2-update/arm-none-eabi/include/c++/6.3.1/bits/stl_vector.h ****       // Called by the second initialize_dispatch above
1265:/home/zkmike/.local/share/renesas/e2_studio/toolchains/gcc_arm/gcc-arm-none-eabi-6-2017-q2-update/arm-none-eabi/include/c++/6.3.1/bits/stl_vector.h ****       template<typename _InputIterator>
1266:/home/zkmike/.local/share/renesas/e2_studio/toolchains/gcc_arm/gcc-arm-none-eabi-6-2017-q2-update/arm-none-eabi/include/c++/6.3.1/bits/stl_vector.h ****         void
1267:/home/zkmike/.local/share/renesas/e2_studio/toolchains/gcc_arm/gcc-arm-none-eabi-6-2017-q2-update/arm-none-eabi/include/c++/6.3.1/bits/stl_vector.h ****         _M_range_initialize(_InputIterator __first,
1268:/home/zkmike/.local/share/renesas/e2_studio/toolchains/gcc_arm/gcc-arm-none-eabi-6-2017-q2-update/arm-none-eabi/include/c++/6.3.1/bits/stl_vector.h **** 			    _InputIterator __last, std::input_iterator_tag)
1269:/home/zkmike/.local/share/renesas/e2_studio/toolchains/gcc_arm/gcc-arm-none-eabi-6-2017-q2-update/arm-none-eabi/include/c++/6.3.1/bits/stl_vector.h ****         {
1270:/home/zkmike/.local/share/renesas/e2_studio/toolchains/gcc_arm/gcc-arm-none-eabi-6-2017-q2-update/arm-none-eabi/include/c++/6.3.1/bits/stl_vector.h **** 	  for (; __first != __last; ++__first)
1271:/home/zkmike/.local/share/renesas/e2_studio/toolchains/gcc_arm/gcc-arm-none-eabi-6-2017-q2-update/arm-none-eabi/include/c++/6.3.1/bits/stl_vector.h **** #if __cplusplus >= 201103L
1272:/home/zkmike/.local/share/renesas/e2_studio/toolchains/gcc_arm/gcc-arm-none-eabi-6-2017-q2-update/arm-none-eabi/include/c++/6.3.1/bits/stl_vector.h **** 	    emplace_back(*__first);
1273:/home/zkmike/.local/share/renesas/e2_studio/toolchains/gcc_arm/gcc-arm-none-eabi-6-2017-q2-update/arm-none-eabi/include/c++/6.3.1/bits/stl_vector.h **** #else
1274:/home/zkmike/.local/share/renesas/e2_studio/toolchains/gcc_arm/gcc-arm-none-eabi-6-2017-q2-update/arm-none-eabi/include/c++/6.3.1/bits/stl_vector.h **** 	    push_back(*__first);
1275:/home/zkmike/.local/share/renesas/e2_studio/toolchains/gcc_arm/gcc-arm-none-eabi-6-2017-q2-update/arm-none-eabi/include/c++/6.3.1/bits/stl_vector.h **** #endif
1276:/home/zkmike/.local/share/renesas/e2_studio/toolchains/gcc_arm/gcc-arm-none-eabi-6-2017-q2-update/arm-none-eabi/include/c++/6.3.1/bits/stl_vector.h **** 	}
1277:/home/zkmike/.local/share/renesas/e2_studio/toolchains/gcc_arm/gcc-arm-none-eabi-6-2017-q2-update/arm-none-eabi/include/c++/6.3.1/bits/stl_vector.h **** 
1278:/home/zkmike/.local/share/renesas/e2_studio/toolchains/gcc_arm/gcc-arm-none-eabi-6-2017-q2-update/arm-none-eabi/include/c++/6.3.1/bits/stl_vector.h ****       // Called by the second initialize_dispatch above
1279:/home/zkmike/.local/share/renesas/e2_studio/toolchains/gcc_arm/gcc-arm-none-eabi-6-2017-q2-update/arm-none-eabi/include/c++/6.3.1/bits/stl_vector.h ****       template<typename _ForwardIterator>
1280:/home/zkmike/.local/share/renesas/e2_studio/toolchains/gcc_arm/gcc-arm-none-eabi-6-2017-q2-update/arm-none-eabi/include/c++/6.3.1/bits/stl_vector.h ****         void
1281:/home/zkmike/.local/share/renesas/e2_studio/toolchains/gcc_arm/gcc-arm-none-eabi-6-2017-q2-update/arm-none-eabi/include/c++/6.3.1/bits/stl_vector.h ****         _M_range_initialize(_ForwardIterator __first,
1282:/home/zkmike/.local/share/renesas/e2_studio/toolchains/gcc_arm/gcc-arm-none-eabi-6-2017-q2-update/arm-none-eabi/include/c++/6.3.1/bits/stl_vector.h **** 			    _ForwardIterator __last, std::forward_iterator_tag)
1283:/home/zkmike/.local/share/renesas/e2_studio/toolchains/gcc_arm/gcc-arm-none-eabi-6-2017-q2-update/arm-none-eabi/include/c++/6.3.1/bits/stl_vector.h ****         {
1284:/home/zkmike/.local/share/renesas/e2_studio/toolchains/gcc_arm/gcc-arm-none-eabi-6-2017-q2-update/arm-none-eabi/include/c++/6.3.1/bits/stl_vector.h **** 	  const size_type __n = std::distance(__first, __last);
1285:/home/zkmike/.local/share/renesas/e2_studio/toolchains/gcc_arm/gcc-arm-none-eabi-6-2017-q2-update/arm-none-eabi/include/c++/6.3.1/bits/stl_vector.h **** 	  this->_M_impl._M_start = this->_M_allocate(__n);
1286:/home/zkmike/.local/share/renesas/e2_studio/toolchains/gcc_arm/gcc-arm-none-eabi-6-2017-q2-update/arm-none-eabi/include/c++/6.3.1/bits/stl_vector.h **** 	  this->_M_impl._M_end_of_storage = this->_M_impl._M_start + __n;
1287:/home/zkmike/.local/share/renesas/e2_studio/toolchains/gcc_arm/gcc-arm-none-eabi-6-2017-q2-update/arm-none-eabi/include/c++/6.3.1/bits/stl_vector.h **** 	  this->_M_impl._M_finish =
1288:/home/zkmike/.local/share/renesas/e2_studio/toolchains/gcc_arm/gcc-arm-none-eabi-6-2017-q2-update/arm-none-eabi/include/c++/6.3.1/bits/stl_vector.h **** 	    std::__uninitialized_copy_a(__first, __last,
1289:/home/zkmike/.local/share/renesas/e2_studio/toolchains/gcc_arm/gcc-arm-none-eabi-6-2017-q2-update/arm-none-eabi/include/c++/6.3.1/bits/stl_vector.h **** 					this->_M_impl._M_start,
1290:/home/zkmike/.local/share/renesas/e2_studio/toolchains/gcc_arm/gcc-arm-none-eabi-6-2017-q2-update/arm-none-eabi/include/c++/6.3.1/bits/stl_vector.h **** 					_M_get_Tp_allocator());
1291:/home/zkmike/.local/share/renesas/e2_studio/toolchains/gcc_arm/gcc-arm-none-eabi-6-2017-q2-update/arm-none-eabi/include/c++/6.3.1/bits/stl_vector.h **** 	}
1292:/home/zkmike/.local/share/renesas/e2_studio/toolchains/gcc_arm/gcc-arm-none-eabi-6-2017-q2-update/arm-none-eabi/include/c++/6.3.1/bits/stl_vector.h **** 
1293:/home/zkmike/.local/share/renesas/e2_studio/toolchains/gcc_arm/gcc-arm-none-eabi-6-2017-q2-update/arm-none-eabi/include/c++/6.3.1/bits/stl_vector.h ****       // Called by the first initialize_dispatch above and by the
1294:/home/zkmike/.local/share/renesas/e2_studio/toolchains/gcc_arm/gcc-arm-none-eabi-6-2017-q2-update/arm-none-eabi/include/c++/6.3.1/bits/stl_vector.h ****       // vector(n,value,a) constructor.
1295:/home/zkmike/.local/share/renesas/e2_studio/toolchains/gcc_arm/gcc-arm-none-eabi-6-2017-q2-update/arm-none-eabi/include/c++/6.3.1/bits/stl_vector.h ****       void
1296:/home/zkmike/.local/share/renesas/e2_studio/toolchains/gcc_arm/gcc-arm-none-eabi-6-2017-q2-update/arm-none-eabi/include/c++/6.3.1/bits/stl_vector.h ****       _M_fill_initialize(size_type __n, const value_type& __value)
1297:/home/zkmike/.local/share/renesas/e2_studio/toolchains/gcc_arm/gcc-arm-none-eabi-6-2017-q2-update/arm-none-eabi/include/c++/6.3.1/bits/stl_vector.h ****       {
1298:/home/zkmike/.local/share/renesas/e2_studio/toolchains/gcc_arm/gcc-arm-none-eabi-6-2017-q2-update/arm-none-eabi/include/c++/6.3.1/bits/stl_vector.h **** 	this->_M_impl._M_finish =
1299:/home/zkmike/.local/share/renesas/e2_studio/toolchains/gcc_arm/gcc-arm-none-eabi-6-2017-q2-update/arm-none-eabi/include/c++/6.3.1/bits/stl_vector.h **** 	  std::__uninitialized_fill_n_a(this->_M_impl._M_start, __n, __value,
1300:/home/zkmike/.local/share/renesas/e2_studio/toolchains/gcc_arm/gcc-arm-none-eabi-6-2017-q2-update/arm-none-eabi/include/c++/6.3.1/bits/stl_vector.h **** 					_M_get_Tp_allocator());
1301:/home/zkmike/.local/share/renesas/e2_studio/toolchains/gcc_arm/gcc-arm-none-eabi-6-2017-q2-update/arm-none-eabi/include/c++/6.3.1/bits/stl_vector.h ****       }
1302:/home/zkmike/.local/share/renesas/e2_studio/toolchains/gcc_arm/gcc-arm-none-eabi-6-2017-q2-update/arm-none-eabi/include/c++/6.3.1/bits/stl_vector.h **** 
1303:/home/zkmike/.local/share/renesas/e2_studio/toolchains/gcc_arm/gcc-arm-none-eabi-6-2017-q2-update/arm-none-eabi/include/c++/6.3.1/bits/stl_vector.h **** #if __cplusplus >= 201103L
1304:/home/zkmike/.local/share/renesas/e2_studio/toolchains/gcc_arm/gcc-arm-none-eabi-6-2017-q2-update/arm-none-eabi/include/c++/6.3.1/bits/stl_vector.h ****       // Called by the vector(n) constructor.
1305:/home/zkmike/.local/share/renesas/e2_studio/toolchains/gcc_arm/gcc-arm-none-eabi-6-2017-q2-update/arm-none-eabi/include/c++/6.3.1/bits/stl_vector.h ****       void
1306:/home/zkmike/.local/share/renesas/e2_studio/toolchains/gcc_arm/gcc-arm-none-eabi-6-2017-q2-update/arm-none-eabi/include/c++/6.3.1/bits/stl_vector.h ****       _M_default_initialize(size_type __n)
1307:/home/zkmike/.local/share/renesas/e2_studio/toolchains/gcc_arm/gcc-arm-none-eabi-6-2017-q2-update/arm-none-eabi/include/c++/6.3.1/bits/stl_vector.h ****       {
1308:/home/zkmike/.local/share/renesas/e2_studio/toolchains/gcc_arm/gcc-arm-none-eabi-6-2017-q2-update/arm-none-eabi/include/c++/6.3.1/bits/stl_vector.h **** 	this->_M_impl._M_finish =
1309:/home/zkmike/.local/share/renesas/e2_studio/toolchains/gcc_arm/gcc-arm-none-eabi-6-2017-q2-update/arm-none-eabi/include/c++/6.3.1/bits/stl_vector.h **** 	  std::__uninitialized_default_n_a(this->_M_impl._M_start, __n,
 2338              		.loc 11 1309 0
 2339 00ec 0430A0E3 		mov	r3, #4
 2340 00f0 010000EA 		b	.L139
 2341              	.LVL221:
 2342              	.L137:
 2343              	.LBB1341:
 2344              	.LBB1342:
 2345              	.LBB1343:
 2346              	.LBB1344:
 2347              	.LBB1345:
 2348              		.file 13 "/home/zkmike/.local/share/renesas/e2_studio/toolchains/gcc_arm/gcc-arm-none-eabi-6-2017-
   1:/home/zkmike/.local/share/renesas/e2_studio/toolchains/gcc_arm/gcc-arm-none-eabi-6-2017-q2-update/arm-none-eabi/include/c++/6.3.1/bits/stl_uninitialized.h **** // Raw memory manipulators -*- C++ -*-
   2:/home/zkmike/.local/share/renesas/e2_studio/toolchains/gcc_arm/gcc-arm-none-eabi-6-2017-q2-update/arm-none-eabi/include/c++/6.3.1/bits/stl_uninitialized.h **** 
   3:/home/zkmike/.local/share/renesas/e2_studio/toolchains/gcc_arm/gcc-arm-none-eabi-6-2017-q2-update/arm-none-eabi/include/c++/6.3.1/bits/stl_uninitialized.h **** // Copyright (C) 2001-2016 Free Software Foundation, Inc.
   4:/home/zkmike/.local/share/renesas/e2_studio/toolchains/gcc_arm/gcc-arm-none-eabi-6-2017-q2-update/arm-none-eabi/include/c++/6.3.1/bits/stl_uninitialized.h **** //
   5:/home/zkmike/.local/share/renesas/e2_studio/toolchains/gcc_arm/gcc-arm-none-eabi-6-2017-q2-update/arm-none-eabi/include/c++/6.3.1/bits/stl_uninitialized.h **** // This file is part of the GNU ISO C++ Library.  This library is free
   6:/home/zkmike/.local/share/renesas/e2_studio/toolchains/gcc_arm/gcc-arm-none-eabi-6-2017-q2-update/arm-none-eabi/include/c++/6.3.1/bits/stl_uninitialized.h **** // software; you can redistribute it and/or modify it under the
   7:/home/zkmike/.local/share/renesas/e2_studio/toolchains/gcc_arm/gcc-arm-none-eabi-6-2017-q2-update/arm-none-eabi/include/c++/6.3.1/bits/stl_uninitialized.h **** // terms of the GNU General Public License as published by the
   8:/home/zkmike/.local/share/renesas/e2_studio/toolchains/gcc_arm/gcc-arm-none-eabi-6-2017-q2-update/arm-none-eabi/include/c++/6.3.1/bits/stl_uninitialized.h **** // Free Software Foundation; either version 3, or (at your option)
   9:/home/zkmike/.local/share/renesas/e2_studio/toolchains/gcc_arm/gcc-arm-none-eabi-6-2017-q2-update/arm-none-eabi/include/c++/6.3.1/bits/stl_uninitialized.h **** // any later version.
  10:/home/zkmike/.local/share/renesas/e2_studio/toolchains/gcc_arm/gcc-arm-none-eabi-6-2017-q2-update/arm-none-eabi/include/c++/6.3.1/bits/stl_uninitialized.h **** 
  11:/home/zkmike/.local/share/renesas/e2_studio/toolchains/gcc_arm/gcc-arm-none-eabi-6-2017-q2-update/arm-none-eabi/include/c++/6.3.1/bits/stl_uninitialized.h **** // This library is distributed in the hope that it will be useful,
  12:/home/zkmike/.local/share/renesas/e2_studio/toolchains/gcc_arm/gcc-arm-none-eabi-6-2017-q2-update/arm-none-eabi/include/c++/6.3.1/bits/stl_uninitialized.h **** // but WITHOUT ANY WARRANTY; without even the implied warranty of
  13:/home/zkmike/.local/share/renesas/e2_studio/toolchains/gcc_arm/gcc-arm-none-eabi-6-2017-q2-update/arm-none-eabi/include/c++/6.3.1/bits/stl_uninitialized.h **** // MERCHANTABILITY or FITNESS FOR A PARTICULAR PURPOSE.  See the
  14:/home/zkmike/.local/share/renesas/e2_studio/toolchains/gcc_arm/gcc-arm-none-eabi-6-2017-q2-update/arm-none-eabi/include/c++/6.3.1/bits/stl_uninitialized.h **** // GNU General Public License for more details.
  15:/home/zkmike/.local/share/renesas/e2_studio/toolchains/gcc_arm/gcc-arm-none-eabi-6-2017-q2-update/arm-none-eabi/include/c++/6.3.1/bits/stl_uninitialized.h **** 
  16:/home/zkmike/.local/share/renesas/e2_studio/toolchains/gcc_arm/gcc-arm-none-eabi-6-2017-q2-update/arm-none-eabi/include/c++/6.3.1/bits/stl_uninitialized.h **** // Under Section 7 of GPL version 3, you are granted additional
  17:/home/zkmike/.local/share/renesas/e2_studio/toolchains/gcc_arm/gcc-arm-none-eabi-6-2017-q2-update/arm-none-eabi/include/c++/6.3.1/bits/stl_uninitialized.h **** // permissions described in the GCC Runtime Library Exception, version
  18:/home/zkmike/.local/share/renesas/e2_studio/toolchains/gcc_arm/gcc-arm-none-eabi-6-2017-q2-update/arm-none-eabi/include/c++/6.3.1/bits/stl_uninitialized.h **** // 3.1, as published by the Free Software Foundation.
  19:/home/zkmike/.local/share/renesas/e2_studio/toolchains/gcc_arm/gcc-arm-none-eabi-6-2017-q2-update/arm-none-eabi/include/c++/6.3.1/bits/stl_uninitialized.h **** 
  20:/home/zkmike/.local/share/renesas/e2_studio/toolchains/gcc_arm/gcc-arm-none-eabi-6-2017-q2-update/arm-none-eabi/include/c++/6.3.1/bits/stl_uninitialized.h **** // You should have received a copy of the GNU General Public License and
  21:/home/zkmike/.local/share/renesas/e2_studio/toolchains/gcc_arm/gcc-arm-none-eabi-6-2017-q2-update/arm-none-eabi/include/c++/6.3.1/bits/stl_uninitialized.h **** // a copy of the GCC Runtime Library Exception along with this program;
  22:/home/zkmike/.local/share/renesas/e2_studio/toolchains/gcc_arm/gcc-arm-none-eabi-6-2017-q2-update/arm-none-eabi/include/c++/6.3.1/bits/stl_uninitialized.h **** // see the files COPYING3 and COPYING.RUNTIME respectively.  If not, see
  23:/home/zkmike/.local/share/renesas/e2_studio/toolchains/gcc_arm/gcc-arm-none-eabi-6-2017-q2-update/arm-none-eabi/include/c++/6.3.1/bits/stl_uninitialized.h **** // <http://www.gnu.org/licenses/>.
  24:/home/zkmike/.local/share/renesas/e2_studio/toolchains/gcc_arm/gcc-arm-none-eabi-6-2017-q2-update/arm-none-eabi/include/c++/6.3.1/bits/stl_uninitialized.h **** 
  25:/home/zkmike/.local/share/renesas/e2_studio/toolchains/gcc_arm/gcc-arm-none-eabi-6-2017-q2-update/arm-none-eabi/include/c++/6.3.1/bits/stl_uninitialized.h **** /*
  26:/home/zkmike/.local/share/renesas/e2_studio/toolchains/gcc_arm/gcc-arm-none-eabi-6-2017-q2-update/arm-none-eabi/include/c++/6.3.1/bits/stl_uninitialized.h ****  *
  27:/home/zkmike/.local/share/renesas/e2_studio/toolchains/gcc_arm/gcc-arm-none-eabi-6-2017-q2-update/arm-none-eabi/include/c++/6.3.1/bits/stl_uninitialized.h ****  * Copyright (c) 1994
  28:/home/zkmike/.local/share/renesas/e2_studio/toolchains/gcc_arm/gcc-arm-none-eabi-6-2017-q2-update/arm-none-eabi/include/c++/6.3.1/bits/stl_uninitialized.h ****  * Hewlett-Packard Company
  29:/home/zkmike/.local/share/renesas/e2_studio/toolchains/gcc_arm/gcc-arm-none-eabi-6-2017-q2-update/arm-none-eabi/include/c++/6.3.1/bits/stl_uninitialized.h ****  *
  30:/home/zkmike/.local/share/renesas/e2_studio/toolchains/gcc_arm/gcc-arm-none-eabi-6-2017-q2-update/arm-none-eabi/include/c++/6.3.1/bits/stl_uninitialized.h ****  * Permission to use, copy, modify, distribute and sell this software
  31:/home/zkmike/.local/share/renesas/e2_studio/toolchains/gcc_arm/gcc-arm-none-eabi-6-2017-q2-update/arm-none-eabi/include/c++/6.3.1/bits/stl_uninitialized.h ****  * and its documentation for any purpose is hereby granted without fee,
  32:/home/zkmike/.local/share/renesas/e2_studio/toolchains/gcc_arm/gcc-arm-none-eabi-6-2017-q2-update/arm-none-eabi/include/c++/6.3.1/bits/stl_uninitialized.h ****  * provided that the above copyright notice appear in all copies and
  33:/home/zkmike/.local/share/renesas/e2_studio/toolchains/gcc_arm/gcc-arm-none-eabi-6-2017-q2-update/arm-none-eabi/include/c++/6.3.1/bits/stl_uninitialized.h ****  * that both that copyright notice and this permission notice appear
  34:/home/zkmike/.local/share/renesas/e2_studio/toolchains/gcc_arm/gcc-arm-none-eabi-6-2017-q2-update/arm-none-eabi/include/c++/6.3.1/bits/stl_uninitialized.h ****  * in supporting documentation.  Hewlett-Packard Company makes no
  35:/home/zkmike/.local/share/renesas/e2_studio/toolchains/gcc_arm/gcc-arm-none-eabi-6-2017-q2-update/arm-none-eabi/include/c++/6.3.1/bits/stl_uninitialized.h ****  * representations about the suitability of this software for any
  36:/home/zkmike/.local/share/renesas/e2_studio/toolchains/gcc_arm/gcc-arm-none-eabi-6-2017-q2-update/arm-none-eabi/include/c++/6.3.1/bits/stl_uninitialized.h ****  * purpose.  It is provided "as is" without express or implied warranty.
  37:/home/zkmike/.local/share/renesas/e2_studio/toolchains/gcc_arm/gcc-arm-none-eabi-6-2017-q2-update/arm-none-eabi/include/c++/6.3.1/bits/stl_uninitialized.h ****  *
  38:/home/zkmike/.local/share/renesas/e2_studio/toolchains/gcc_arm/gcc-arm-none-eabi-6-2017-q2-update/arm-none-eabi/include/c++/6.3.1/bits/stl_uninitialized.h ****  *
  39:/home/zkmike/.local/share/renesas/e2_studio/toolchains/gcc_arm/gcc-arm-none-eabi-6-2017-q2-update/arm-none-eabi/include/c++/6.3.1/bits/stl_uninitialized.h ****  * Copyright (c) 1996,1997
  40:/home/zkmike/.local/share/renesas/e2_studio/toolchains/gcc_arm/gcc-arm-none-eabi-6-2017-q2-update/arm-none-eabi/include/c++/6.3.1/bits/stl_uninitialized.h ****  * Silicon Graphics Computer Systems, Inc.
  41:/home/zkmike/.local/share/renesas/e2_studio/toolchains/gcc_arm/gcc-arm-none-eabi-6-2017-q2-update/arm-none-eabi/include/c++/6.3.1/bits/stl_uninitialized.h ****  *
  42:/home/zkmike/.local/share/renesas/e2_studio/toolchains/gcc_arm/gcc-arm-none-eabi-6-2017-q2-update/arm-none-eabi/include/c++/6.3.1/bits/stl_uninitialized.h ****  * Permission to use, copy, modify, distribute and sell this software
  43:/home/zkmike/.local/share/renesas/e2_studio/toolchains/gcc_arm/gcc-arm-none-eabi-6-2017-q2-update/arm-none-eabi/include/c++/6.3.1/bits/stl_uninitialized.h ****  * and its documentation for any purpose is hereby granted without fee,
  44:/home/zkmike/.local/share/renesas/e2_studio/toolchains/gcc_arm/gcc-arm-none-eabi-6-2017-q2-update/arm-none-eabi/include/c++/6.3.1/bits/stl_uninitialized.h ****  * provided that the above copyright notice appear in all copies and
  45:/home/zkmike/.local/share/renesas/e2_studio/toolchains/gcc_arm/gcc-arm-none-eabi-6-2017-q2-update/arm-none-eabi/include/c++/6.3.1/bits/stl_uninitialized.h ****  * that both that copyright notice and this permission notice appear
  46:/home/zkmike/.local/share/renesas/e2_studio/toolchains/gcc_arm/gcc-arm-none-eabi-6-2017-q2-update/arm-none-eabi/include/c++/6.3.1/bits/stl_uninitialized.h ****  * in supporting documentation.  Silicon Graphics makes no
  47:/home/zkmike/.local/share/renesas/e2_studio/toolchains/gcc_arm/gcc-arm-none-eabi-6-2017-q2-update/arm-none-eabi/include/c++/6.3.1/bits/stl_uninitialized.h ****  * representations about the suitability of this software for any
  48:/home/zkmike/.local/share/renesas/e2_studio/toolchains/gcc_arm/gcc-arm-none-eabi-6-2017-q2-update/arm-none-eabi/include/c++/6.3.1/bits/stl_uninitialized.h ****  * purpose.  It is provided "as is" without express or implied warranty.
  49:/home/zkmike/.local/share/renesas/e2_studio/toolchains/gcc_arm/gcc-arm-none-eabi-6-2017-q2-update/arm-none-eabi/include/c++/6.3.1/bits/stl_uninitialized.h ****  */
  50:/home/zkmike/.local/share/renesas/e2_studio/toolchains/gcc_arm/gcc-arm-none-eabi-6-2017-q2-update/arm-none-eabi/include/c++/6.3.1/bits/stl_uninitialized.h **** 
  51:/home/zkmike/.local/share/renesas/e2_studio/toolchains/gcc_arm/gcc-arm-none-eabi-6-2017-q2-update/arm-none-eabi/include/c++/6.3.1/bits/stl_uninitialized.h **** /** @file bits/stl_uninitialized.h
  52:/home/zkmike/.local/share/renesas/e2_studio/toolchains/gcc_arm/gcc-arm-none-eabi-6-2017-q2-update/arm-none-eabi/include/c++/6.3.1/bits/stl_uninitialized.h ****  *  This is an internal header file, included by other library headers.
  53:/home/zkmike/.local/share/renesas/e2_studio/toolchains/gcc_arm/gcc-arm-none-eabi-6-2017-q2-update/arm-none-eabi/include/c++/6.3.1/bits/stl_uninitialized.h ****  *  Do not attempt to use it directly. @headername{memory}
  54:/home/zkmike/.local/share/renesas/e2_studio/toolchains/gcc_arm/gcc-arm-none-eabi-6-2017-q2-update/arm-none-eabi/include/c++/6.3.1/bits/stl_uninitialized.h ****  */
  55:/home/zkmike/.local/share/renesas/e2_studio/toolchains/gcc_arm/gcc-arm-none-eabi-6-2017-q2-update/arm-none-eabi/include/c++/6.3.1/bits/stl_uninitialized.h **** 
  56:/home/zkmike/.local/share/renesas/e2_studio/toolchains/gcc_arm/gcc-arm-none-eabi-6-2017-q2-update/arm-none-eabi/include/c++/6.3.1/bits/stl_uninitialized.h **** #ifndef _STL_UNINITIALIZED_H
  57:/home/zkmike/.local/share/renesas/e2_studio/toolchains/gcc_arm/gcc-arm-none-eabi-6-2017-q2-update/arm-none-eabi/include/c++/6.3.1/bits/stl_uninitialized.h **** #define _STL_UNINITIALIZED_H 1
  58:/home/zkmike/.local/share/renesas/e2_studio/toolchains/gcc_arm/gcc-arm-none-eabi-6-2017-q2-update/arm-none-eabi/include/c++/6.3.1/bits/stl_uninitialized.h **** 
  59:/home/zkmike/.local/share/renesas/e2_studio/toolchains/gcc_arm/gcc-arm-none-eabi-6-2017-q2-update/arm-none-eabi/include/c++/6.3.1/bits/stl_uninitialized.h **** namespace std _GLIBCXX_VISIBILITY(default)
  60:/home/zkmike/.local/share/renesas/e2_studio/toolchains/gcc_arm/gcc-arm-none-eabi-6-2017-q2-update/arm-none-eabi/include/c++/6.3.1/bits/stl_uninitialized.h **** {
  61:/home/zkmike/.local/share/renesas/e2_studio/toolchains/gcc_arm/gcc-arm-none-eabi-6-2017-q2-update/arm-none-eabi/include/c++/6.3.1/bits/stl_uninitialized.h **** _GLIBCXX_BEGIN_NAMESPACE_VERSION
  62:/home/zkmike/.local/share/renesas/e2_studio/toolchains/gcc_arm/gcc-arm-none-eabi-6-2017-q2-update/arm-none-eabi/include/c++/6.3.1/bits/stl_uninitialized.h **** 
  63:/home/zkmike/.local/share/renesas/e2_studio/toolchains/gcc_arm/gcc-arm-none-eabi-6-2017-q2-update/arm-none-eabi/include/c++/6.3.1/bits/stl_uninitialized.h ****   template<bool _TrivialValueTypes>
  64:/home/zkmike/.local/share/renesas/e2_studio/toolchains/gcc_arm/gcc-arm-none-eabi-6-2017-q2-update/arm-none-eabi/include/c++/6.3.1/bits/stl_uninitialized.h ****     struct __uninitialized_copy
  65:/home/zkmike/.local/share/renesas/e2_studio/toolchains/gcc_arm/gcc-arm-none-eabi-6-2017-q2-update/arm-none-eabi/include/c++/6.3.1/bits/stl_uninitialized.h ****     {
  66:/home/zkmike/.local/share/renesas/e2_studio/toolchains/gcc_arm/gcc-arm-none-eabi-6-2017-q2-update/arm-none-eabi/include/c++/6.3.1/bits/stl_uninitialized.h ****       template<typename _InputIterator, typename _ForwardIterator>
  67:/home/zkmike/.local/share/renesas/e2_studio/toolchains/gcc_arm/gcc-arm-none-eabi-6-2017-q2-update/arm-none-eabi/include/c++/6.3.1/bits/stl_uninitialized.h ****         static _ForwardIterator
  68:/home/zkmike/.local/share/renesas/e2_studio/toolchains/gcc_arm/gcc-arm-none-eabi-6-2017-q2-update/arm-none-eabi/include/c++/6.3.1/bits/stl_uninitialized.h ****         __uninit_copy(_InputIterator __first, _InputIterator __last,
  69:/home/zkmike/.local/share/renesas/e2_studio/toolchains/gcc_arm/gcc-arm-none-eabi-6-2017-q2-update/arm-none-eabi/include/c++/6.3.1/bits/stl_uninitialized.h **** 		      _ForwardIterator __result)
  70:/home/zkmike/.local/share/renesas/e2_studio/toolchains/gcc_arm/gcc-arm-none-eabi-6-2017-q2-update/arm-none-eabi/include/c++/6.3.1/bits/stl_uninitialized.h ****         {
  71:/home/zkmike/.local/share/renesas/e2_studio/toolchains/gcc_arm/gcc-arm-none-eabi-6-2017-q2-update/arm-none-eabi/include/c++/6.3.1/bits/stl_uninitialized.h **** 	  _ForwardIterator __cur = __result;
  72:/home/zkmike/.local/share/renesas/e2_studio/toolchains/gcc_arm/gcc-arm-none-eabi-6-2017-q2-update/arm-none-eabi/include/c++/6.3.1/bits/stl_uninitialized.h **** 	  __try
  73:/home/zkmike/.local/share/renesas/e2_studio/toolchains/gcc_arm/gcc-arm-none-eabi-6-2017-q2-update/arm-none-eabi/include/c++/6.3.1/bits/stl_uninitialized.h **** 	    {
  74:/home/zkmike/.local/share/renesas/e2_studio/toolchains/gcc_arm/gcc-arm-none-eabi-6-2017-q2-update/arm-none-eabi/include/c++/6.3.1/bits/stl_uninitialized.h **** 	      for (; __first != __last; ++__first, (void)++__cur)
  75:/home/zkmike/.local/share/renesas/e2_studio/toolchains/gcc_arm/gcc-arm-none-eabi-6-2017-q2-update/arm-none-eabi/include/c++/6.3.1/bits/stl_uninitialized.h **** 		std::_Construct(std::__addressof(*__cur), *__first);
  76:/home/zkmike/.local/share/renesas/e2_studio/toolchains/gcc_arm/gcc-arm-none-eabi-6-2017-q2-update/arm-none-eabi/include/c++/6.3.1/bits/stl_uninitialized.h **** 	      return __cur;
  77:/home/zkmike/.local/share/renesas/e2_studio/toolchains/gcc_arm/gcc-arm-none-eabi-6-2017-q2-update/arm-none-eabi/include/c++/6.3.1/bits/stl_uninitialized.h **** 	    }
  78:/home/zkmike/.local/share/renesas/e2_studio/toolchains/gcc_arm/gcc-arm-none-eabi-6-2017-q2-update/arm-none-eabi/include/c++/6.3.1/bits/stl_uninitialized.h **** 	  __catch(...)
  79:/home/zkmike/.local/share/renesas/e2_studio/toolchains/gcc_arm/gcc-arm-none-eabi-6-2017-q2-update/arm-none-eabi/include/c++/6.3.1/bits/stl_uninitialized.h **** 	    {
  80:/home/zkmike/.local/share/renesas/e2_studio/toolchains/gcc_arm/gcc-arm-none-eabi-6-2017-q2-update/arm-none-eabi/include/c++/6.3.1/bits/stl_uninitialized.h **** 	      std::_Destroy(__result, __cur);
  81:/home/zkmike/.local/share/renesas/e2_studio/toolchains/gcc_arm/gcc-arm-none-eabi-6-2017-q2-update/arm-none-eabi/include/c++/6.3.1/bits/stl_uninitialized.h **** 	      __throw_exception_again;
  82:/home/zkmike/.local/share/renesas/e2_studio/toolchains/gcc_arm/gcc-arm-none-eabi-6-2017-q2-update/arm-none-eabi/include/c++/6.3.1/bits/stl_uninitialized.h **** 	    }
  83:/home/zkmike/.local/share/renesas/e2_studio/toolchains/gcc_arm/gcc-arm-none-eabi-6-2017-q2-update/arm-none-eabi/include/c++/6.3.1/bits/stl_uninitialized.h **** 	}
  84:/home/zkmike/.local/share/renesas/e2_studio/toolchains/gcc_arm/gcc-arm-none-eabi-6-2017-q2-update/arm-none-eabi/include/c++/6.3.1/bits/stl_uninitialized.h ****     };
  85:/home/zkmike/.local/share/renesas/e2_studio/toolchains/gcc_arm/gcc-arm-none-eabi-6-2017-q2-update/arm-none-eabi/include/c++/6.3.1/bits/stl_uninitialized.h **** 
  86:/home/zkmike/.local/share/renesas/e2_studio/toolchains/gcc_arm/gcc-arm-none-eabi-6-2017-q2-update/arm-none-eabi/include/c++/6.3.1/bits/stl_uninitialized.h ****   template<>
  87:/home/zkmike/.local/share/renesas/e2_studio/toolchains/gcc_arm/gcc-arm-none-eabi-6-2017-q2-update/arm-none-eabi/include/c++/6.3.1/bits/stl_uninitialized.h ****     struct __uninitialized_copy<true>
  88:/home/zkmike/.local/share/renesas/e2_studio/toolchains/gcc_arm/gcc-arm-none-eabi-6-2017-q2-update/arm-none-eabi/include/c++/6.3.1/bits/stl_uninitialized.h ****     {
  89:/home/zkmike/.local/share/renesas/e2_studio/toolchains/gcc_arm/gcc-arm-none-eabi-6-2017-q2-update/arm-none-eabi/include/c++/6.3.1/bits/stl_uninitialized.h ****       template<typename _InputIterator, typename _ForwardIterator>
  90:/home/zkmike/.local/share/renesas/e2_studio/toolchains/gcc_arm/gcc-arm-none-eabi-6-2017-q2-update/arm-none-eabi/include/c++/6.3.1/bits/stl_uninitialized.h ****         static _ForwardIterator
  91:/home/zkmike/.local/share/renesas/e2_studio/toolchains/gcc_arm/gcc-arm-none-eabi-6-2017-q2-update/arm-none-eabi/include/c++/6.3.1/bits/stl_uninitialized.h ****         __uninit_copy(_InputIterator __first, _InputIterator __last,
  92:/home/zkmike/.local/share/renesas/e2_studio/toolchains/gcc_arm/gcc-arm-none-eabi-6-2017-q2-update/arm-none-eabi/include/c++/6.3.1/bits/stl_uninitialized.h **** 		      _ForwardIterator __result)
  93:/home/zkmike/.local/share/renesas/e2_studio/toolchains/gcc_arm/gcc-arm-none-eabi-6-2017-q2-update/arm-none-eabi/include/c++/6.3.1/bits/stl_uninitialized.h ****         { return std::copy(__first, __last, __result); }
  94:/home/zkmike/.local/share/renesas/e2_studio/toolchains/gcc_arm/gcc-arm-none-eabi-6-2017-q2-update/arm-none-eabi/include/c++/6.3.1/bits/stl_uninitialized.h ****     };
  95:/home/zkmike/.local/share/renesas/e2_studio/toolchains/gcc_arm/gcc-arm-none-eabi-6-2017-q2-update/arm-none-eabi/include/c++/6.3.1/bits/stl_uninitialized.h **** 
  96:/home/zkmike/.local/share/renesas/e2_studio/toolchains/gcc_arm/gcc-arm-none-eabi-6-2017-q2-update/arm-none-eabi/include/c++/6.3.1/bits/stl_uninitialized.h ****   /**
  97:/home/zkmike/.local/share/renesas/e2_studio/toolchains/gcc_arm/gcc-arm-none-eabi-6-2017-q2-update/arm-none-eabi/include/c++/6.3.1/bits/stl_uninitialized.h ****    *  @brief Copies the range [first,last) into result.
  98:/home/zkmike/.local/share/renesas/e2_studio/toolchains/gcc_arm/gcc-arm-none-eabi-6-2017-q2-update/arm-none-eabi/include/c++/6.3.1/bits/stl_uninitialized.h ****    *  @param  __first  An input iterator.
  99:/home/zkmike/.local/share/renesas/e2_studio/toolchains/gcc_arm/gcc-arm-none-eabi-6-2017-q2-update/arm-none-eabi/include/c++/6.3.1/bits/stl_uninitialized.h ****    *  @param  __last   An input iterator.
 100:/home/zkmike/.local/share/renesas/e2_studio/toolchains/gcc_arm/gcc-arm-none-eabi-6-2017-q2-update/arm-none-eabi/include/c++/6.3.1/bits/stl_uninitialized.h ****    *  @param  __result An output iterator.
 101:/home/zkmike/.local/share/renesas/e2_studio/toolchains/gcc_arm/gcc-arm-none-eabi-6-2017-q2-update/arm-none-eabi/include/c++/6.3.1/bits/stl_uninitialized.h ****    *  @return   __result + (__first - __last)
 102:/home/zkmike/.local/share/renesas/e2_studio/toolchains/gcc_arm/gcc-arm-none-eabi-6-2017-q2-update/arm-none-eabi/include/c++/6.3.1/bits/stl_uninitialized.h ****    *
 103:/home/zkmike/.local/share/renesas/e2_studio/toolchains/gcc_arm/gcc-arm-none-eabi-6-2017-q2-update/arm-none-eabi/include/c++/6.3.1/bits/stl_uninitialized.h ****    *  Like copy(), but does not require an initialized output range.
 104:/home/zkmike/.local/share/renesas/e2_studio/toolchains/gcc_arm/gcc-arm-none-eabi-6-2017-q2-update/arm-none-eabi/include/c++/6.3.1/bits/stl_uninitialized.h ****   */
 105:/home/zkmike/.local/share/renesas/e2_studio/toolchains/gcc_arm/gcc-arm-none-eabi-6-2017-q2-update/arm-none-eabi/include/c++/6.3.1/bits/stl_uninitialized.h ****   template<typename _InputIterator, typename _ForwardIterator>
 106:/home/zkmike/.local/share/renesas/e2_studio/toolchains/gcc_arm/gcc-arm-none-eabi-6-2017-q2-update/arm-none-eabi/include/c++/6.3.1/bits/stl_uninitialized.h ****     inline _ForwardIterator
 107:/home/zkmike/.local/share/renesas/e2_studio/toolchains/gcc_arm/gcc-arm-none-eabi-6-2017-q2-update/arm-none-eabi/include/c++/6.3.1/bits/stl_uninitialized.h ****     uninitialized_copy(_InputIterator __first, _InputIterator __last,
 108:/home/zkmike/.local/share/renesas/e2_studio/toolchains/gcc_arm/gcc-arm-none-eabi-6-2017-q2-update/arm-none-eabi/include/c++/6.3.1/bits/stl_uninitialized.h **** 		       _ForwardIterator __result)
 109:/home/zkmike/.local/share/renesas/e2_studio/toolchains/gcc_arm/gcc-arm-none-eabi-6-2017-q2-update/arm-none-eabi/include/c++/6.3.1/bits/stl_uninitialized.h ****     {
 110:/home/zkmike/.local/share/renesas/e2_studio/toolchains/gcc_arm/gcc-arm-none-eabi-6-2017-q2-update/arm-none-eabi/include/c++/6.3.1/bits/stl_uninitialized.h ****       typedef typename iterator_traits<_InputIterator>::value_type
 111:/home/zkmike/.local/share/renesas/e2_studio/toolchains/gcc_arm/gcc-arm-none-eabi-6-2017-q2-update/arm-none-eabi/include/c++/6.3.1/bits/stl_uninitialized.h **** 	_ValueType1;
 112:/home/zkmike/.local/share/renesas/e2_studio/toolchains/gcc_arm/gcc-arm-none-eabi-6-2017-q2-update/arm-none-eabi/include/c++/6.3.1/bits/stl_uninitialized.h ****       typedef typename iterator_traits<_ForwardIterator>::value_type
 113:/home/zkmike/.local/share/renesas/e2_studio/toolchains/gcc_arm/gcc-arm-none-eabi-6-2017-q2-update/arm-none-eabi/include/c++/6.3.1/bits/stl_uninitialized.h **** 	_ValueType2;
 114:/home/zkmike/.local/share/renesas/e2_studio/toolchains/gcc_arm/gcc-arm-none-eabi-6-2017-q2-update/arm-none-eabi/include/c++/6.3.1/bits/stl_uninitialized.h **** #if __cplusplus < 201103L
 115:/home/zkmike/.local/share/renesas/e2_studio/toolchains/gcc_arm/gcc-arm-none-eabi-6-2017-q2-update/arm-none-eabi/include/c++/6.3.1/bits/stl_uninitialized.h ****       const bool __assignable = true;
 116:/home/zkmike/.local/share/renesas/e2_studio/toolchains/gcc_arm/gcc-arm-none-eabi-6-2017-q2-update/arm-none-eabi/include/c++/6.3.1/bits/stl_uninitialized.h **** #else
 117:/home/zkmike/.local/share/renesas/e2_studio/toolchains/gcc_arm/gcc-arm-none-eabi-6-2017-q2-update/arm-none-eabi/include/c++/6.3.1/bits/stl_uninitialized.h ****       // trivial types can have deleted assignment
 118:/home/zkmike/.local/share/renesas/e2_studio/toolchains/gcc_arm/gcc-arm-none-eabi-6-2017-q2-update/arm-none-eabi/include/c++/6.3.1/bits/stl_uninitialized.h ****       typedef typename iterator_traits<_InputIterator>::reference _RefType1;
 119:/home/zkmike/.local/share/renesas/e2_studio/toolchains/gcc_arm/gcc-arm-none-eabi-6-2017-q2-update/arm-none-eabi/include/c++/6.3.1/bits/stl_uninitialized.h ****       typedef typename iterator_traits<_ForwardIterator>::reference _RefType2;
 120:/home/zkmike/.local/share/renesas/e2_studio/toolchains/gcc_arm/gcc-arm-none-eabi-6-2017-q2-update/arm-none-eabi/include/c++/6.3.1/bits/stl_uninitialized.h ****       const bool __assignable = is_assignable<_RefType2, _RefType1>::value;
 121:/home/zkmike/.local/share/renesas/e2_studio/toolchains/gcc_arm/gcc-arm-none-eabi-6-2017-q2-update/arm-none-eabi/include/c++/6.3.1/bits/stl_uninitialized.h **** #endif
 122:/home/zkmike/.local/share/renesas/e2_studio/toolchains/gcc_arm/gcc-arm-none-eabi-6-2017-q2-update/arm-none-eabi/include/c++/6.3.1/bits/stl_uninitialized.h **** 
 123:/home/zkmike/.local/share/renesas/e2_studio/toolchains/gcc_arm/gcc-arm-none-eabi-6-2017-q2-update/arm-none-eabi/include/c++/6.3.1/bits/stl_uninitialized.h ****       return std::__uninitialized_copy<__is_trivial(_ValueType1)
 124:/home/zkmike/.local/share/renesas/e2_studio/toolchains/gcc_arm/gcc-arm-none-eabi-6-2017-q2-update/arm-none-eabi/include/c++/6.3.1/bits/stl_uninitialized.h **** 				       && __is_trivial(_ValueType2)
 125:/home/zkmike/.local/share/renesas/e2_studio/toolchains/gcc_arm/gcc-arm-none-eabi-6-2017-q2-update/arm-none-eabi/include/c++/6.3.1/bits/stl_uninitialized.h **** 				       && __assignable>::
 126:/home/zkmike/.local/share/renesas/e2_studio/toolchains/gcc_arm/gcc-arm-none-eabi-6-2017-q2-update/arm-none-eabi/include/c++/6.3.1/bits/stl_uninitialized.h **** 	__uninit_copy(__first, __last, __result);
 127:/home/zkmike/.local/share/renesas/e2_studio/toolchains/gcc_arm/gcc-arm-none-eabi-6-2017-q2-update/arm-none-eabi/include/c++/6.3.1/bits/stl_uninitialized.h ****     }
 128:/home/zkmike/.local/share/renesas/e2_studio/toolchains/gcc_arm/gcc-arm-none-eabi-6-2017-q2-update/arm-none-eabi/include/c++/6.3.1/bits/stl_uninitialized.h **** 
 129:/home/zkmike/.local/share/renesas/e2_studio/toolchains/gcc_arm/gcc-arm-none-eabi-6-2017-q2-update/arm-none-eabi/include/c++/6.3.1/bits/stl_uninitialized.h **** 
 130:/home/zkmike/.local/share/renesas/e2_studio/toolchains/gcc_arm/gcc-arm-none-eabi-6-2017-q2-update/arm-none-eabi/include/c++/6.3.1/bits/stl_uninitialized.h ****   template<bool _TrivialValueType>
 131:/home/zkmike/.local/share/renesas/e2_studio/toolchains/gcc_arm/gcc-arm-none-eabi-6-2017-q2-update/arm-none-eabi/include/c++/6.3.1/bits/stl_uninitialized.h ****     struct __uninitialized_fill
 132:/home/zkmike/.local/share/renesas/e2_studio/toolchains/gcc_arm/gcc-arm-none-eabi-6-2017-q2-update/arm-none-eabi/include/c++/6.3.1/bits/stl_uninitialized.h ****     {
 133:/home/zkmike/.local/share/renesas/e2_studio/toolchains/gcc_arm/gcc-arm-none-eabi-6-2017-q2-update/arm-none-eabi/include/c++/6.3.1/bits/stl_uninitialized.h ****       template<typename _ForwardIterator, typename _Tp>
 134:/home/zkmike/.local/share/renesas/e2_studio/toolchains/gcc_arm/gcc-arm-none-eabi-6-2017-q2-update/arm-none-eabi/include/c++/6.3.1/bits/stl_uninitialized.h ****         static void
 135:/home/zkmike/.local/share/renesas/e2_studio/toolchains/gcc_arm/gcc-arm-none-eabi-6-2017-q2-update/arm-none-eabi/include/c++/6.3.1/bits/stl_uninitialized.h ****         __uninit_fill(_ForwardIterator __first, _ForwardIterator __last,
 136:/home/zkmike/.local/share/renesas/e2_studio/toolchains/gcc_arm/gcc-arm-none-eabi-6-2017-q2-update/arm-none-eabi/include/c++/6.3.1/bits/stl_uninitialized.h **** 		      const _Tp& __x)
 137:/home/zkmike/.local/share/renesas/e2_studio/toolchains/gcc_arm/gcc-arm-none-eabi-6-2017-q2-update/arm-none-eabi/include/c++/6.3.1/bits/stl_uninitialized.h ****         {
 138:/home/zkmike/.local/share/renesas/e2_studio/toolchains/gcc_arm/gcc-arm-none-eabi-6-2017-q2-update/arm-none-eabi/include/c++/6.3.1/bits/stl_uninitialized.h **** 	  _ForwardIterator __cur = __first;
 139:/home/zkmike/.local/share/renesas/e2_studio/toolchains/gcc_arm/gcc-arm-none-eabi-6-2017-q2-update/arm-none-eabi/include/c++/6.3.1/bits/stl_uninitialized.h **** 	  __try
 140:/home/zkmike/.local/share/renesas/e2_studio/toolchains/gcc_arm/gcc-arm-none-eabi-6-2017-q2-update/arm-none-eabi/include/c++/6.3.1/bits/stl_uninitialized.h **** 	    {
 141:/home/zkmike/.local/share/renesas/e2_studio/toolchains/gcc_arm/gcc-arm-none-eabi-6-2017-q2-update/arm-none-eabi/include/c++/6.3.1/bits/stl_uninitialized.h **** 	      for (; __cur != __last; ++__cur)
 142:/home/zkmike/.local/share/renesas/e2_studio/toolchains/gcc_arm/gcc-arm-none-eabi-6-2017-q2-update/arm-none-eabi/include/c++/6.3.1/bits/stl_uninitialized.h **** 		std::_Construct(std::__addressof(*__cur), __x);
 143:/home/zkmike/.local/share/renesas/e2_studio/toolchains/gcc_arm/gcc-arm-none-eabi-6-2017-q2-update/arm-none-eabi/include/c++/6.3.1/bits/stl_uninitialized.h **** 	    }
 144:/home/zkmike/.local/share/renesas/e2_studio/toolchains/gcc_arm/gcc-arm-none-eabi-6-2017-q2-update/arm-none-eabi/include/c++/6.3.1/bits/stl_uninitialized.h **** 	  __catch(...)
 145:/home/zkmike/.local/share/renesas/e2_studio/toolchains/gcc_arm/gcc-arm-none-eabi-6-2017-q2-update/arm-none-eabi/include/c++/6.3.1/bits/stl_uninitialized.h **** 	    {
 146:/home/zkmike/.local/share/renesas/e2_studio/toolchains/gcc_arm/gcc-arm-none-eabi-6-2017-q2-update/arm-none-eabi/include/c++/6.3.1/bits/stl_uninitialized.h **** 	      std::_Destroy(__first, __cur);
 147:/home/zkmike/.local/share/renesas/e2_studio/toolchains/gcc_arm/gcc-arm-none-eabi-6-2017-q2-update/arm-none-eabi/include/c++/6.3.1/bits/stl_uninitialized.h **** 	      __throw_exception_again;
 148:/home/zkmike/.local/share/renesas/e2_studio/toolchains/gcc_arm/gcc-arm-none-eabi-6-2017-q2-update/arm-none-eabi/include/c++/6.3.1/bits/stl_uninitialized.h **** 	    }
 149:/home/zkmike/.local/share/renesas/e2_studio/toolchains/gcc_arm/gcc-arm-none-eabi-6-2017-q2-update/arm-none-eabi/include/c++/6.3.1/bits/stl_uninitialized.h **** 	}
 150:/home/zkmike/.local/share/renesas/e2_studio/toolchains/gcc_arm/gcc-arm-none-eabi-6-2017-q2-update/arm-none-eabi/include/c++/6.3.1/bits/stl_uninitialized.h ****     };
 151:/home/zkmike/.local/share/renesas/e2_studio/toolchains/gcc_arm/gcc-arm-none-eabi-6-2017-q2-update/arm-none-eabi/include/c++/6.3.1/bits/stl_uninitialized.h **** 
 152:/home/zkmike/.local/share/renesas/e2_studio/toolchains/gcc_arm/gcc-arm-none-eabi-6-2017-q2-update/arm-none-eabi/include/c++/6.3.1/bits/stl_uninitialized.h ****   template<>
 153:/home/zkmike/.local/share/renesas/e2_studio/toolchains/gcc_arm/gcc-arm-none-eabi-6-2017-q2-update/arm-none-eabi/include/c++/6.3.1/bits/stl_uninitialized.h ****     struct __uninitialized_fill<true>
 154:/home/zkmike/.local/share/renesas/e2_studio/toolchains/gcc_arm/gcc-arm-none-eabi-6-2017-q2-update/arm-none-eabi/include/c++/6.3.1/bits/stl_uninitialized.h ****     {
 155:/home/zkmike/.local/share/renesas/e2_studio/toolchains/gcc_arm/gcc-arm-none-eabi-6-2017-q2-update/arm-none-eabi/include/c++/6.3.1/bits/stl_uninitialized.h ****       template<typename _ForwardIterator, typename _Tp>
 156:/home/zkmike/.local/share/renesas/e2_studio/toolchains/gcc_arm/gcc-arm-none-eabi-6-2017-q2-update/arm-none-eabi/include/c++/6.3.1/bits/stl_uninitialized.h ****         static void
 157:/home/zkmike/.local/share/renesas/e2_studio/toolchains/gcc_arm/gcc-arm-none-eabi-6-2017-q2-update/arm-none-eabi/include/c++/6.3.1/bits/stl_uninitialized.h ****         __uninit_fill(_ForwardIterator __first, _ForwardIterator __last,
 158:/home/zkmike/.local/share/renesas/e2_studio/toolchains/gcc_arm/gcc-arm-none-eabi-6-2017-q2-update/arm-none-eabi/include/c++/6.3.1/bits/stl_uninitialized.h **** 		      const _Tp& __x)
 159:/home/zkmike/.local/share/renesas/e2_studio/toolchains/gcc_arm/gcc-arm-none-eabi-6-2017-q2-update/arm-none-eabi/include/c++/6.3.1/bits/stl_uninitialized.h ****         { std::fill(__first, __last, __x); }
 160:/home/zkmike/.local/share/renesas/e2_studio/toolchains/gcc_arm/gcc-arm-none-eabi-6-2017-q2-update/arm-none-eabi/include/c++/6.3.1/bits/stl_uninitialized.h ****     };
 161:/home/zkmike/.local/share/renesas/e2_studio/toolchains/gcc_arm/gcc-arm-none-eabi-6-2017-q2-update/arm-none-eabi/include/c++/6.3.1/bits/stl_uninitialized.h **** 
 162:/home/zkmike/.local/share/renesas/e2_studio/toolchains/gcc_arm/gcc-arm-none-eabi-6-2017-q2-update/arm-none-eabi/include/c++/6.3.1/bits/stl_uninitialized.h ****   /**
 163:/home/zkmike/.local/share/renesas/e2_studio/toolchains/gcc_arm/gcc-arm-none-eabi-6-2017-q2-update/arm-none-eabi/include/c++/6.3.1/bits/stl_uninitialized.h ****    *  @brief Copies the value x into the range [first,last).
 164:/home/zkmike/.local/share/renesas/e2_studio/toolchains/gcc_arm/gcc-arm-none-eabi-6-2017-q2-update/arm-none-eabi/include/c++/6.3.1/bits/stl_uninitialized.h ****    *  @param  __first  An input iterator.
 165:/home/zkmike/.local/share/renesas/e2_studio/toolchains/gcc_arm/gcc-arm-none-eabi-6-2017-q2-update/arm-none-eabi/include/c++/6.3.1/bits/stl_uninitialized.h ****    *  @param  __last   An input iterator.
 166:/home/zkmike/.local/share/renesas/e2_studio/toolchains/gcc_arm/gcc-arm-none-eabi-6-2017-q2-update/arm-none-eabi/include/c++/6.3.1/bits/stl_uninitialized.h ****    *  @param  __x      The source value.
 167:/home/zkmike/.local/share/renesas/e2_studio/toolchains/gcc_arm/gcc-arm-none-eabi-6-2017-q2-update/arm-none-eabi/include/c++/6.3.1/bits/stl_uninitialized.h ****    *  @return   Nothing.
 168:/home/zkmike/.local/share/renesas/e2_studio/toolchains/gcc_arm/gcc-arm-none-eabi-6-2017-q2-update/arm-none-eabi/include/c++/6.3.1/bits/stl_uninitialized.h ****    *
 169:/home/zkmike/.local/share/renesas/e2_studio/toolchains/gcc_arm/gcc-arm-none-eabi-6-2017-q2-update/arm-none-eabi/include/c++/6.3.1/bits/stl_uninitialized.h ****    *  Like fill(), but does not require an initialized output range.
 170:/home/zkmike/.local/share/renesas/e2_studio/toolchains/gcc_arm/gcc-arm-none-eabi-6-2017-q2-update/arm-none-eabi/include/c++/6.3.1/bits/stl_uninitialized.h ****   */
 171:/home/zkmike/.local/share/renesas/e2_studio/toolchains/gcc_arm/gcc-arm-none-eabi-6-2017-q2-update/arm-none-eabi/include/c++/6.3.1/bits/stl_uninitialized.h ****   template<typename _ForwardIterator, typename _Tp>
 172:/home/zkmike/.local/share/renesas/e2_studio/toolchains/gcc_arm/gcc-arm-none-eabi-6-2017-q2-update/arm-none-eabi/include/c++/6.3.1/bits/stl_uninitialized.h ****     inline void
 173:/home/zkmike/.local/share/renesas/e2_studio/toolchains/gcc_arm/gcc-arm-none-eabi-6-2017-q2-update/arm-none-eabi/include/c++/6.3.1/bits/stl_uninitialized.h ****     uninitialized_fill(_ForwardIterator __first, _ForwardIterator __last,
 174:/home/zkmike/.local/share/renesas/e2_studio/toolchains/gcc_arm/gcc-arm-none-eabi-6-2017-q2-update/arm-none-eabi/include/c++/6.3.1/bits/stl_uninitialized.h **** 		       const _Tp& __x)
 175:/home/zkmike/.local/share/renesas/e2_studio/toolchains/gcc_arm/gcc-arm-none-eabi-6-2017-q2-update/arm-none-eabi/include/c++/6.3.1/bits/stl_uninitialized.h ****     {
 176:/home/zkmike/.local/share/renesas/e2_studio/toolchains/gcc_arm/gcc-arm-none-eabi-6-2017-q2-update/arm-none-eabi/include/c++/6.3.1/bits/stl_uninitialized.h ****       typedef typename iterator_traits<_ForwardIterator>::value_type
 177:/home/zkmike/.local/share/renesas/e2_studio/toolchains/gcc_arm/gcc-arm-none-eabi-6-2017-q2-update/arm-none-eabi/include/c++/6.3.1/bits/stl_uninitialized.h **** 	_ValueType;
 178:/home/zkmike/.local/share/renesas/e2_studio/toolchains/gcc_arm/gcc-arm-none-eabi-6-2017-q2-update/arm-none-eabi/include/c++/6.3.1/bits/stl_uninitialized.h **** #if __cplusplus < 201103L
 179:/home/zkmike/.local/share/renesas/e2_studio/toolchains/gcc_arm/gcc-arm-none-eabi-6-2017-q2-update/arm-none-eabi/include/c++/6.3.1/bits/stl_uninitialized.h ****       const bool __assignable = true;
 180:/home/zkmike/.local/share/renesas/e2_studio/toolchains/gcc_arm/gcc-arm-none-eabi-6-2017-q2-update/arm-none-eabi/include/c++/6.3.1/bits/stl_uninitialized.h **** #else
 181:/home/zkmike/.local/share/renesas/e2_studio/toolchains/gcc_arm/gcc-arm-none-eabi-6-2017-q2-update/arm-none-eabi/include/c++/6.3.1/bits/stl_uninitialized.h ****       // trivial types can have deleted assignment
 182:/home/zkmike/.local/share/renesas/e2_studio/toolchains/gcc_arm/gcc-arm-none-eabi-6-2017-q2-update/arm-none-eabi/include/c++/6.3.1/bits/stl_uninitialized.h ****       const bool __assignable = is_copy_assignable<_ValueType>::value;
 183:/home/zkmike/.local/share/renesas/e2_studio/toolchains/gcc_arm/gcc-arm-none-eabi-6-2017-q2-update/arm-none-eabi/include/c++/6.3.1/bits/stl_uninitialized.h **** #endif
 184:/home/zkmike/.local/share/renesas/e2_studio/toolchains/gcc_arm/gcc-arm-none-eabi-6-2017-q2-update/arm-none-eabi/include/c++/6.3.1/bits/stl_uninitialized.h **** 
 185:/home/zkmike/.local/share/renesas/e2_studio/toolchains/gcc_arm/gcc-arm-none-eabi-6-2017-q2-update/arm-none-eabi/include/c++/6.3.1/bits/stl_uninitialized.h ****       std::__uninitialized_fill<__is_trivial(_ValueType) && __assignable>::
 186:/home/zkmike/.local/share/renesas/e2_studio/toolchains/gcc_arm/gcc-arm-none-eabi-6-2017-q2-update/arm-none-eabi/include/c++/6.3.1/bits/stl_uninitialized.h **** 	__uninit_fill(__first, __last, __x);
 187:/home/zkmike/.local/share/renesas/e2_studio/toolchains/gcc_arm/gcc-arm-none-eabi-6-2017-q2-update/arm-none-eabi/include/c++/6.3.1/bits/stl_uninitialized.h ****     }
 188:/home/zkmike/.local/share/renesas/e2_studio/toolchains/gcc_arm/gcc-arm-none-eabi-6-2017-q2-update/arm-none-eabi/include/c++/6.3.1/bits/stl_uninitialized.h **** 
 189:/home/zkmike/.local/share/renesas/e2_studio/toolchains/gcc_arm/gcc-arm-none-eabi-6-2017-q2-update/arm-none-eabi/include/c++/6.3.1/bits/stl_uninitialized.h **** 
 190:/home/zkmike/.local/share/renesas/e2_studio/toolchains/gcc_arm/gcc-arm-none-eabi-6-2017-q2-update/arm-none-eabi/include/c++/6.3.1/bits/stl_uninitialized.h ****   template<bool _TrivialValueType>
 191:/home/zkmike/.local/share/renesas/e2_studio/toolchains/gcc_arm/gcc-arm-none-eabi-6-2017-q2-update/arm-none-eabi/include/c++/6.3.1/bits/stl_uninitialized.h ****     struct __uninitialized_fill_n
 192:/home/zkmike/.local/share/renesas/e2_studio/toolchains/gcc_arm/gcc-arm-none-eabi-6-2017-q2-update/arm-none-eabi/include/c++/6.3.1/bits/stl_uninitialized.h ****     {
 193:/home/zkmike/.local/share/renesas/e2_studio/toolchains/gcc_arm/gcc-arm-none-eabi-6-2017-q2-update/arm-none-eabi/include/c++/6.3.1/bits/stl_uninitialized.h ****       template<typename _ForwardIterator, typename _Size, typename _Tp>
 194:/home/zkmike/.local/share/renesas/e2_studio/toolchains/gcc_arm/gcc-arm-none-eabi-6-2017-q2-update/arm-none-eabi/include/c++/6.3.1/bits/stl_uninitialized.h ****         static _ForwardIterator
 195:/home/zkmike/.local/share/renesas/e2_studio/toolchains/gcc_arm/gcc-arm-none-eabi-6-2017-q2-update/arm-none-eabi/include/c++/6.3.1/bits/stl_uninitialized.h ****         __uninit_fill_n(_ForwardIterator __first, _Size __n,
 196:/home/zkmike/.local/share/renesas/e2_studio/toolchains/gcc_arm/gcc-arm-none-eabi-6-2017-q2-update/arm-none-eabi/include/c++/6.3.1/bits/stl_uninitialized.h **** 			const _Tp& __x)
 197:/home/zkmike/.local/share/renesas/e2_studio/toolchains/gcc_arm/gcc-arm-none-eabi-6-2017-q2-update/arm-none-eabi/include/c++/6.3.1/bits/stl_uninitialized.h ****         {
 198:/home/zkmike/.local/share/renesas/e2_studio/toolchains/gcc_arm/gcc-arm-none-eabi-6-2017-q2-update/arm-none-eabi/include/c++/6.3.1/bits/stl_uninitialized.h **** 	  _ForwardIterator __cur = __first;
 199:/home/zkmike/.local/share/renesas/e2_studio/toolchains/gcc_arm/gcc-arm-none-eabi-6-2017-q2-update/arm-none-eabi/include/c++/6.3.1/bits/stl_uninitialized.h **** 	  __try
 200:/home/zkmike/.local/share/renesas/e2_studio/toolchains/gcc_arm/gcc-arm-none-eabi-6-2017-q2-update/arm-none-eabi/include/c++/6.3.1/bits/stl_uninitialized.h **** 	    {
 201:/home/zkmike/.local/share/renesas/e2_studio/toolchains/gcc_arm/gcc-arm-none-eabi-6-2017-q2-update/arm-none-eabi/include/c++/6.3.1/bits/stl_uninitialized.h **** 	      for (; __n > 0; --__n, ++__cur)
 202:/home/zkmike/.local/share/renesas/e2_studio/toolchains/gcc_arm/gcc-arm-none-eabi-6-2017-q2-update/arm-none-eabi/include/c++/6.3.1/bits/stl_uninitialized.h **** 		std::_Construct(std::__addressof(*__cur), __x);
 203:/home/zkmike/.local/share/renesas/e2_studio/toolchains/gcc_arm/gcc-arm-none-eabi-6-2017-q2-update/arm-none-eabi/include/c++/6.3.1/bits/stl_uninitialized.h **** 	      return __cur;
 204:/home/zkmike/.local/share/renesas/e2_studio/toolchains/gcc_arm/gcc-arm-none-eabi-6-2017-q2-update/arm-none-eabi/include/c++/6.3.1/bits/stl_uninitialized.h **** 	    }
 205:/home/zkmike/.local/share/renesas/e2_studio/toolchains/gcc_arm/gcc-arm-none-eabi-6-2017-q2-update/arm-none-eabi/include/c++/6.3.1/bits/stl_uninitialized.h **** 	  __catch(...)
 206:/home/zkmike/.local/share/renesas/e2_studio/toolchains/gcc_arm/gcc-arm-none-eabi-6-2017-q2-update/arm-none-eabi/include/c++/6.3.1/bits/stl_uninitialized.h **** 	    {
 207:/home/zkmike/.local/share/renesas/e2_studio/toolchains/gcc_arm/gcc-arm-none-eabi-6-2017-q2-update/arm-none-eabi/include/c++/6.3.1/bits/stl_uninitialized.h **** 	      std::_Destroy(__first, __cur);
 208:/home/zkmike/.local/share/renesas/e2_studio/toolchains/gcc_arm/gcc-arm-none-eabi-6-2017-q2-update/arm-none-eabi/include/c++/6.3.1/bits/stl_uninitialized.h **** 	      __throw_exception_again;
 209:/home/zkmike/.local/share/renesas/e2_studio/toolchains/gcc_arm/gcc-arm-none-eabi-6-2017-q2-update/arm-none-eabi/include/c++/6.3.1/bits/stl_uninitialized.h **** 	    }
 210:/home/zkmike/.local/share/renesas/e2_studio/toolchains/gcc_arm/gcc-arm-none-eabi-6-2017-q2-update/arm-none-eabi/include/c++/6.3.1/bits/stl_uninitialized.h **** 	}
 211:/home/zkmike/.local/share/renesas/e2_studio/toolchains/gcc_arm/gcc-arm-none-eabi-6-2017-q2-update/arm-none-eabi/include/c++/6.3.1/bits/stl_uninitialized.h ****     };
 212:/home/zkmike/.local/share/renesas/e2_studio/toolchains/gcc_arm/gcc-arm-none-eabi-6-2017-q2-update/arm-none-eabi/include/c++/6.3.1/bits/stl_uninitialized.h **** 
 213:/home/zkmike/.local/share/renesas/e2_studio/toolchains/gcc_arm/gcc-arm-none-eabi-6-2017-q2-update/arm-none-eabi/include/c++/6.3.1/bits/stl_uninitialized.h ****   template<>
 214:/home/zkmike/.local/share/renesas/e2_studio/toolchains/gcc_arm/gcc-arm-none-eabi-6-2017-q2-update/arm-none-eabi/include/c++/6.3.1/bits/stl_uninitialized.h ****     struct __uninitialized_fill_n<true>
 215:/home/zkmike/.local/share/renesas/e2_studio/toolchains/gcc_arm/gcc-arm-none-eabi-6-2017-q2-update/arm-none-eabi/include/c++/6.3.1/bits/stl_uninitialized.h ****     {
 216:/home/zkmike/.local/share/renesas/e2_studio/toolchains/gcc_arm/gcc-arm-none-eabi-6-2017-q2-update/arm-none-eabi/include/c++/6.3.1/bits/stl_uninitialized.h ****       template<typename _ForwardIterator, typename _Size, typename _Tp>
 217:/home/zkmike/.local/share/renesas/e2_studio/toolchains/gcc_arm/gcc-arm-none-eabi-6-2017-q2-update/arm-none-eabi/include/c++/6.3.1/bits/stl_uninitialized.h ****         static _ForwardIterator
 218:/home/zkmike/.local/share/renesas/e2_studio/toolchains/gcc_arm/gcc-arm-none-eabi-6-2017-q2-update/arm-none-eabi/include/c++/6.3.1/bits/stl_uninitialized.h ****         __uninit_fill_n(_ForwardIterator __first, _Size __n,
 219:/home/zkmike/.local/share/renesas/e2_studio/toolchains/gcc_arm/gcc-arm-none-eabi-6-2017-q2-update/arm-none-eabi/include/c++/6.3.1/bits/stl_uninitialized.h **** 			const _Tp& __x)
 220:/home/zkmike/.local/share/renesas/e2_studio/toolchains/gcc_arm/gcc-arm-none-eabi-6-2017-q2-update/arm-none-eabi/include/c++/6.3.1/bits/stl_uninitialized.h ****         { return std::fill_n(__first, __n, __x); }
 221:/home/zkmike/.local/share/renesas/e2_studio/toolchains/gcc_arm/gcc-arm-none-eabi-6-2017-q2-update/arm-none-eabi/include/c++/6.3.1/bits/stl_uninitialized.h ****     };
 222:/home/zkmike/.local/share/renesas/e2_studio/toolchains/gcc_arm/gcc-arm-none-eabi-6-2017-q2-update/arm-none-eabi/include/c++/6.3.1/bits/stl_uninitialized.h **** 
 223:/home/zkmike/.local/share/renesas/e2_studio/toolchains/gcc_arm/gcc-arm-none-eabi-6-2017-q2-update/arm-none-eabi/include/c++/6.3.1/bits/stl_uninitialized.h ****    // _GLIBCXX_RESOLVE_LIB_DEFECTS
 224:/home/zkmike/.local/share/renesas/e2_studio/toolchains/gcc_arm/gcc-arm-none-eabi-6-2017-q2-update/arm-none-eabi/include/c++/6.3.1/bits/stl_uninitialized.h ****    // DR 1339. uninitialized_fill_n should return the end of its range
 225:/home/zkmike/.local/share/renesas/e2_studio/toolchains/gcc_arm/gcc-arm-none-eabi-6-2017-q2-update/arm-none-eabi/include/c++/6.3.1/bits/stl_uninitialized.h ****   /**
 226:/home/zkmike/.local/share/renesas/e2_studio/toolchains/gcc_arm/gcc-arm-none-eabi-6-2017-q2-update/arm-none-eabi/include/c++/6.3.1/bits/stl_uninitialized.h ****    *  @brief Copies the value x into the range [first,first+n).
 227:/home/zkmike/.local/share/renesas/e2_studio/toolchains/gcc_arm/gcc-arm-none-eabi-6-2017-q2-update/arm-none-eabi/include/c++/6.3.1/bits/stl_uninitialized.h ****    *  @param  __first  An input iterator.
 228:/home/zkmike/.local/share/renesas/e2_studio/toolchains/gcc_arm/gcc-arm-none-eabi-6-2017-q2-update/arm-none-eabi/include/c++/6.3.1/bits/stl_uninitialized.h ****    *  @param  __n      The number of copies to make.
 229:/home/zkmike/.local/share/renesas/e2_studio/toolchains/gcc_arm/gcc-arm-none-eabi-6-2017-q2-update/arm-none-eabi/include/c++/6.3.1/bits/stl_uninitialized.h ****    *  @param  __x      The source value.
 230:/home/zkmike/.local/share/renesas/e2_studio/toolchains/gcc_arm/gcc-arm-none-eabi-6-2017-q2-update/arm-none-eabi/include/c++/6.3.1/bits/stl_uninitialized.h ****    *  @return   Nothing.
 231:/home/zkmike/.local/share/renesas/e2_studio/toolchains/gcc_arm/gcc-arm-none-eabi-6-2017-q2-update/arm-none-eabi/include/c++/6.3.1/bits/stl_uninitialized.h ****    *
 232:/home/zkmike/.local/share/renesas/e2_studio/toolchains/gcc_arm/gcc-arm-none-eabi-6-2017-q2-update/arm-none-eabi/include/c++/6.3.1/bits/stl_uninitialized.h ****    *  Like fill_n(), but does not require an initialized output range.
 233:/home/zkmike/.local/share/renesas/e2_studio/toolchains/gcc_arm/gcc-arm-none-eabi-6-2017-q2-update/arm-none-eabi/include/c++/6.3.1/bits/stl_uninitialized.h ****   */
 234:/home/zkmike/.local/share/renesas/e2_studio/toolchains/gcc_arm/gcc-arm-none-eabi-6-2017-q2-update/arm-none-eabi/include/c++/6.3.1/bits/stl_uninitialized.h ****   template<typename _ForwardIterator, typename _Size, typename _Tp>
 235:/home/zkmike/.local/share/renesas/e2_studio/toolchains/gcc_arm/gcc-arm-none-eabi-6-2017-q2-update/arm-none-eabi/include/c++/6.3.1/bits/stl_uninitialized.h ****     inline _ForwardIterator
 236:/home/zkmike/.local/share/renesas/e2_studio/toolchains/gcc_arm/gcc-arm-none-eabi-6-2017-q2-update/arm-none-eabi/include/c++/6.3.1/bits/stl_uninitialized.h ****     uninitialized_fill_n(_ForwardIterator __first, _Size __n, const _Tp& __x)
 237:/home/zkmike/.local/share/renesas/e2_studio/toolchains/gcc_arm/gcc-arm-none-eabi-6-2017-q2-update/arm-none-eabi/include/c++/6.3.1/bits/stl_uninitialized.h ****     {
 238:/home/zkmike/.local/share/renesas/e2_studio/toolchains/gcc_arm/gcc-arm-none-eabi-6-2017-q2-update/arm-none-eabi/include/c++/6.3.1/bits/stl_uninitialized.h ****       typedef typename iterator_traits<_ForwardIterator>::value_type
 239:/home/zkmike/.local/share/renesas/e2_studio/toolchains/gcc_arm/gcc-arm-none-eabi-6-2017-q2-update/arm-none-eabi/include/c++/6.3.1/bits/stl_uninitialized.h **** 	_ValueType;
 240:/home/zkmike/.local/share/renesas/e2_studio/toolchains/gcc_arm/gcc-arm-none-eabi-6-2017-q2-update/arm-none-eabi/include/c++/6.3.1/bits/stl_uninitialized.h **** #if __cplusplus < 201103L
 241:/home/zkmike/.local/share/renesas/e2_studio/toolchains/gcc_arm/gcc-arm-none-eabi-6-2017-q2-update/arm-none-eabi/include/c++/6.3.1/bits/stl_uninitialized.h ****       const bool __assignable = true;
 242:/home/zkmike/.local/share/renesas/e2_studio/toolchains/gcc_arm/gcc-arm-none-eabi-6-2017-q2-update/arm-none-eabi/include/c++/6.3.1/bits/stl_uninitialized.h **** #else
 243:/home/zkmike/.local/share/renesas/e2_studio/toolchains/gcc_arm/gcc-arm-none-eabi-6-2017-q2-update/arm-none-eabi/include/c++/6.3.1/bits/stl_uninitialized.h ****       // trivial types can have deleted assignment
 244:/home/zkmike/.local/share/renesas/e2_studio/toolchains/gcc_arm/gcc-arm-none-eabi-6-2017-q2-update/arm-none-eabi/include/c++/6.3.1/bits/stl_uninitialized.h ****       const bool __assignable = is_copy_assignable<_ValueType>::value;
 245:/home/zkmike/.local/share/renesas/e2_studio/toolchains/gcc_arm/gcc-arm-none-eabi-6-2017-q2-update/arm-none-eabi/include/c++/6.3.1/bits/stl_uninitialized.h **** #endif
 246:/home/zkmike/.local/share/renesas/e2_studio/toolchains/gcc_arm/gcc-arm-none-eabi-6-2017-q2-update/arm-none-eabi/include/c++/6.3.1/bits/stl_uninitialized.h ****       return __uninitialized_fill_n<__is_trivial(_ValueType) && __assignable>::
 247:/home/zkmike/.local/share/renesas/e2_studio/toolchains/gcc_arm/gcc-arm-none-eabi-6-2017-q2-update/arm-none-eabi/include/c++/6.3.1/bits/stl_uninitialized.h **** 	__uninit_fill_n(__first, __n, __x);
 248:/home/zkmike/.local/share/renesas/e2_studio/toolchains/gcc_arm/gcc-arm-none-eabi-6-2017-q2-update/arm-none-eabi/include/c++/6.3.1/bits/stl_uninitialized.h ****     }
 249:/home/zkmike/.local/share/renesas/e2_studio/toolchains/gcc_arm/gcc-arm-none-eabi-6-2017-q2-update/arm-none-eabi/include/c++/6.3.1/bits/stl_uninitialized.h **** 
 250:/home/zkmike/.local/share/renesas/e2_studio/toolchains/gcc_arm/gcc-arm-none-eabi-6-2017-q2-update/arm-none-eabi/include/c++/6.3.1/bits/stl_uninitialized.h ****   // Extensions: versions of uninitialized_copy, uninitialized_fill,
 251:/home/zkmike/.local/share/renesas/e2_studio/toolchains/gcc_arm/gcc-arm-none-eabi-6-2017-q2-update/arm-none-eabi/include/c++/6.3.1/bits/stl_uninitialized.h ****   //  and uninitialized_fill_n that take an allocator parameter.
 252:/home/zkmike/.local/share/renesas/e2_studio/toolchains/gcc_arm/gcc-arm-none-eabi-6-2017-q2-update/arm-none-eabi/include/c++/6.3.1/bits/stl_uninitialized.h ****   //  We dispatch back to the standard versions when we're given the
 253:/home/zkmike/.local/share/renesas/e2_studio/toolchains/gcc_arm/gcc-arm-none-eabi-6-2017-q2-update/arm-none-eabi/include/c++/6.3.1/bits/stl_uninitialized.h ****   //  default allocator.  For nondefault allocators we do not use 
 254:/home/zkmike/.local/share/renesas/e2_studio/toolchains/gcc_arm/gcc-arm-none-eabi-6-2017-q2-update/arm-none-eabi/include/c++/6.3.1/bits/stl_uninitialized.h ****   //  any of the POD optimizations.
 255:/home/zkmike/.local/share/renesas/e2_studio/toolchains/gcc_arm/gcc-arm-none-eabi-6-2017-q2-update/arm-none-eabi/include/c++/6.3.1/bits/stl_uninitialized.h **** 
 256:/home/zkmike/.local/share/renesas/e2_studio/toolchains/gcc_arm/gcc-arm-none-eabi-6-2017-q2-update/arm-none-eabi/include/c++/6.3.1/bits/stl_uninitialized.h ****   template<typename _InputIterator, typename _ForwardIterator,
 257:/home/zkmike/.local/share/renesas/e2_studio/toolchains/gcc_arm/gcc-arm-none-eabi-6-2017-q2-update/arm-none-eabi/include/c++/6.3.1/bits/stl_uninitialized.h **** 	   typename _Allocator>
 258:/home/zkmike/.local/share/renesas/e2_studio/toolchains/gcc_arm/gcc-arm-none-eabi-6-2017-q2-update/arm-none-eabi/include/c++/6.3.1/bits/stl_uninitialized.h ****     _ForwardIterator
 259:/home/zkmike/.local/share/renesas/e2_studio/toolchains/gcc_arm/gcc-arm-none-eabi-6-2017-q2-update/arm-none-eabi/include/c++/6.3.1/bits/stl_uninitialized.h ****     __uninitialized_copy_a(_InputIterator __first, _InputIterator __last,
 260:/home/zkmike/.local/share/renesas/e2_studio/toolchains/gcc_arm/gcc-arm-none-eabi-6-2017-q2-update/arm-none-eabi/include/c++/6.3.1/bits/stl_uninitialized.h **** 			   _ForwardIterator __result, _Allocator& __alloc)
 261:/home/zkmike/.local/share/renesas/e2_studio/toolchains/gcc_arm/gcc-arm-none-eabi-6-2017-q2-update/arm-none-eabi/include/c++/6.3.1/bits/stl_uninitialized.h ****     {
 262:/home/zkmike/.local/share/renesas/e2_studio/toolchains/gcc_arm/gcc-arm-none-eabi-6-2017-q2-update/arm-none-eabi/include/c++/6.3.1/bits/stl_uninitialized.h ****       _ForwardIterator __cur = __result;
 263:/home/zkmike/.local/share/renesas/e2_studio/toolchains/gcc_arm/gcc-arm-none-eabi-6-2017-q2-update/arm-none-eabi/include/c++/6.3.1/bits/stl_uninitialized.h ****       __try
 264:/home/zkmike/.local/share/renesas/e2_studio/toolchains/gcc_arm/gcc-arm-none-eabi-6-2017-q2-update/arm-none-eabi/include/c++/6.3.1/bits/stl_uninitialized.h **** 	{
 265:/home/zkmike/.local/share/renesas/e2_studio/toolchains/gcc_arm/gcc-arm-none-eabi-6-2017-q2-update/arm-none-eabi/include/c++/6.3.1/bits/stl_uninitialized.h **** 	  typedef __gnu_cxx::__alloc_traits<_Allocator> __traits;
 266:/home/zkmike/.local/share/renesas/e2_studio/toolchains/gcc_arm/gcc-arm-none-eabi-6-2017-q2-update/arm-none-eabi/include/c++/6.3.1/bits/stl_uninitialized.h **** 	  for (; __first != __last; ++__first, (void)++__cur)
 267:/home/zkmike/.local/share/renesas/e2_studio/toolchains/gcc_arm/gcc-arm-none-eabi-6-2017-q2-update/arm-none-eabi/include/c++/6.3.1/bits/stl_uninitialized.h **** 	    __traits::construct(__alloc, std::__addressof(*__cur), *__first);
 268:/home/zkmike/.local/share/renesas/e2_studio/toolchains/gcc_arm/gcc-arm-none-eabi-6-2017-q2-update/arm-none-eabi/include/c++/6.3.1/bits/stl_uninitialized.h **** 	  return __cur;
 269:/home/zkmike/.local/share/renesas/e2_studio/toolchains/gcc_arm/gcc-arm-none-eabi-6-2017-q2-update/arm-none-eabi/include/c++/6.3.1/bits/stl_uninitialized.h **** 	}
 270:/home/zkmike/.local/share/renesas/e2_studio/toolchains/gcc_arm/gcc-arm-none-eabi-6-2017-q2-update/arm-none-eabi/include/c++/6.3.1/bits/stl_uninitialized.h ****       __catch(...)
 271:/home/zkmike/.local/share/renesas/e2_studio/toolchains/gcc_arm/gcc-arm-none-eabi-6-2017-q2-update/arm-none-eabi/include/c++/6.3.1/bits/stl_uninitialized.h **** 	{
 272:/home/zkmike/.local/share/renesas/e2_studio/toolchains/gcc_arm/gcc-arm-none-eabi-6-2017-q2-update/arm-none-eabi/include/c++/6.3.1/bits/stl_uninitialized.h **** 	  std::_Destroy(__result, __cur, __alloc);
 273:/home/zkmike/.local/share/renesas/e2_studio/toolchains/gcc_arm/gcc-arm-none-eabi-6-2017-q2-update/arm-none-eabi/include/c++/6.3.1/bits/stl_uninitialized.h **** 	  __throw_exception_again;
 274:/home/zkmike/.local/share/renesas/e2_studio/toolchains/gcc_arm/gcc-arm-none-eabi-6-2017-q2-update/arm-none-eabi/include/c++/6.3.1/bits/stl_uninitialized.h **** 	}
 275:/home/zkmike/.local/share/renesas/e2_studio/toolchains/gcc_arm/gcc-arm-none-eabi-6-2017-q2-update/arm-none-eabi/include/c++/6.3.1/bits/stl_uninitialized.h ****     }
 276:/home/zkmike/.local/share/renesas/e2_studio/toolchains/gcc_arm/gcc-arm-none-eabi-6-2017-q2-update/arm-none-eabi/include/c++/6.3.1/bits/stl_uninitialized.h **** 
 277:/home/zkmike/.local/share/renesas/e2_studio/toolchains/gcc_arm/gcc-arm-none-eabi-6-2017-q2-update/arm-none-eabi/include/c++/6.3.1/bits/stl_uninitialized.h ****   template<typename _InputIterator, typename _ForwardIterator, typename _Tp>
 278:/home/zkmike/.local/share/renesas/e2_studio/toolchains/gcc_arm/gcc-arm-none-eabi-6-2017-q2-update/arm-none-eabi/include/c++/6.3.1/bits/stl_uninitialized.h ****     inline _ForwardIterator
 279:/home/zkmike/.local/share/renesas/e2_studio/toolchains/gcc_arm/gcc-arm-none-eabi-6-2017-q2-update/arm-none-eabi/include/c++/6.3.1/bits/stl_uninitialized.h ****     __uninitialized_copy_a(_InputIterator __first, _InputIterator __last,
 280:/home/zkmike/.local/share/renesas/e2_studio/toolchains/gcc_arm/gcc-arm-none-eabi-6-2017-q2-update/arm-none-eabi/include/c++/6.3.1/bits/stl_uninitialized.h **** 			   _ForwardIterator __result, allocator<_Tp>&)
 281:/home/zkmike/.local/share/renesas/e2_studio/toolchains/gcc_arm/gcc-arm-none-eabi-6-2017-q2-update/arm-none-eabi/include/c++/6.3.1/bits/stl_uninitialized.h ****     { return std::uninitialized_copy(__first, __last, __result); }
 282:/home/zkmike/.local/share/renesas/e2_studio/toolchains/gcc_arm/gcc-arm-none-eabi-6-2017-q2-update/arm-none-eabi/include/c++/6.3.1/bits/stl_uninitialized.h **** 
 283:/home/zkmike/.local/share/renesas/e2_studio/toolchains/gcc_arm/gcc-arm-none-eabi-6-2017-q2-update/arm-none-eabi/include/c++/6.3.1/bits/stl_uninitialized.h ****   template<typename _InputIterator, typename _ForwardIterator,
 284:/home/zkmike/.local/share/renesas/e2_studio/toolchains/gcc_arm/gcc-arm-none-eabi-6-2017-q2-update/arm-none-eabi/include/c++/6.3.1/bits/stl_uninitialized.h **** 	   typename _Allocator>
 285:/home/zkmike/.local/share/renesas/e2_studio/toolchains/gcc_arm/gcc-arm-none-eabi-6-2017-q2-update/arm-none-eabi/include/c++/6.3.1/bits/stl_uninitialized.h ****     inline _ForwardIterator
 286:/home/zkmike/.local/share/renesas/e2_studio/toolchains/gcc_arm/gcc-arm-none-eabi-6-2017-q2-update/arm-none-eabi/include/c++/6.3.1/bits/stl_uninitialized.h ****     __uninitialized_move_a(_InputIterator __first, _InputIterator __last,
 287:/home/zkmike/.local/share/renesas/e2_studio/toolchains/gcc_arm/gcc-arm-none-eabi-6-2017-q2-update/arm-none-eabi/include/c++/6.3.1/bits/stl_uninitialized.h **** 			   _ForwardIterator __result, _Allocator& __alloc)
 288:/home/zkmike/.local/share/renesas/e2_studio/toolchains/gcc_arm/gcc-arm-none-eabi-6-2017-q2-update/arm-none-eabi/include/c++/6.3.1/bits/stl_uninitialized.h ****     {
 289:/home/zkmike/.local/share/renesas/e2_studio/toolchains/gcc_arm/gcc-arm-none-eabi-6-2017-q2-update/arm-none-eabi/include/c++/6.3.1/bits/stl_uninitialized.h ****       return std::__uninitialized_copy_a(_GLIBCXX_MAKE_MOVE_ITERATOR(__first),
 290:/home/zkmike/.local/share/renesas/e2_studio/toolchains/gcc_arm/gcc-arm-none-eabi-6-2017-q2-update/arm-none-eabi/include/c++/6.3.1/bits/stl_uninitialized.h **** 					 _GLIBCXX_MAKE_MOVE_ITERATOR(__last),
 291:/home/zkmike/.local/share/renesas/e2_studio/toolchains/gcc_arm/gcc-arm-none-eabi-6-2017-q2-update/arm-none-eabi/include/c++/6.3.1/bits/stl_uninitialized.h **** 					 __result, __alloc);
 292:/home/zkmike/.local/share/renesas/e2_studio/toolchains/gcc_arm/gcc-arm-none-eabi-6-2017-q2-update/arm-none-eabi/include/c++/6.3.1/bits/stl_uninitialized.h ****     }
 293:/home/zkmike/.local/share/renesas/e2_studio/toolchains/gcc_arm/gcc-arm-none-eabi-6-2017-q2-update/arm-none-eabi/include/c++/6.3.1/bits/stl_uninitialized.h **** 
 294:/home/zkmike/.local/share/renesas/e2_studio/toolchains/gcc_arm/gcc-arm-none-eabi-6-2017-q2-update/arm-none-eabi/include/c++/6.3.1/bits/stl_uninitialized.h ****   template<typename _InputIterator, typename _ForwardIterator,
 295:/home/zkmike/.local/share/renesas/e2_studio/toolchains/gcc_arm/gcc-arm-none-eabi-6-2017-q2-update/arm-none-eabi/include/c++/6.3.1/bits/stl_uninitialized.h **** 	   typename _Allocator>
 296:/home/zkmike/.local/share/renesas/e2_studio/toolchains/gcc_arm/gcc-arm-none-eabi-6-2017-q2-update/arm-none-eabi/include/c++/6.3.1/bits/stl_uninitialized.h ****     inline _ForwardIterator
 297:/home/zkmike/.local/share/renesas/e2_studio/toolchains/gcc_arm/gcc-arm-none-eabi-6-2017-q2-update/arm-none-eabi/include/c++/6.3.1/bits/stl_uninitialized.h ****     __uninitialized_move_if_noexcept_a(_InputIterator __first,
 298:/home/zkmike/.local/share/renesas/e2_studio/toolchains/gcc_arm/gcc-arm-none-eabi-6-2017-q2-update/arm-none-eabi/include/c++/6.3.1/bits/stl_uninitialized.h **** 				       _InputIterator __last,
 299:/home/zkmike/.local/share/renesas/e2_studio/toolchains/gcc_arm/gcc-arm-none-eabi-6-2017-q2-update/arm-none-eabi/include/c++/6.3.1/bits/stl_uninitialized.h **** 				       _ForwardIterator __result,
 300:/home/zkmike/.local/share/renesas/e2_studio/toolchains/gcc_arm/gcc-arm-none-eabi-6-2017-q2-update/arm-none-eabi/include/c++/6.3.1/bits/stl_uninitialized.h **** 				       _Allocator& __alloc)
 301:/home/zkmike/.local/share/renesas/e2_studio/toolchains/gcc_arm/gcc-arm-none-eabi-6-2017-q2-update/arm-none-eabi/include/c++/6.3.1/bits/stl_uninitialized.h ****     {
 302:/home/zkmike/.local/share/renesas/e2_studio/toolchains/gcc_arm/gcc-arm-none-eabi-6-2017-q2-update/arm-none-eabi/include/c++/6.3.1/bits/stl_uninitialized.h ****       return std::__uninitialized_copy_a
 303:/home/zkmike/.local/share/renesas/e2_studio/toolchains/gcc_arm/gcc-arm-none-eabi-6-2017-q2-update/arm-none-eabi/include/c++/6.3.1/bits/stl_uninitialized.h **** 	(_GLIBCXX_MAKE_MOVE_IF_NOEXCEPT_ITERATOR(__first),
 304:/home/zkmike/.local/share/renesas/e2_studio/toolchains/gcc_arm/gcc-arm-none-eabi-6-2017-q2-update/arm-none-eabi/include/c++/6.3.1/bits/stl_uninitialized.h **** 	 _GLIBCXX_MAKE_MOVE_IF_NOEXCEPT_ITERATOR(__last), __result, __alloc);
 305:/home/zkmike/.local/share/renesas/e2_studio/toolchains/gcc_arm/gcc-arm-none-eabi-6-2017-q2-update/arm-none-eabi/include/c++/6.3.1/bits/stl_uninitialized.h ****     }
 306:/home/zkmike/.local/share/renesas/e2_studio/toolchains/gcc_arm/gcc-arm-none-eabi-6-2017-q2-update/arm-none-eabi/include/c++/6.3.1/bits/stl_uninitialized.h **** 
 307:/home/zkmike/.local/share/renesas/e2_studio/toolchains/gcc_arm/gcc-arm-none-eabi-6-2017-q2-update/arm-none-eabi/include/c++/6.3.1/bits/stl_uninitialized.h ****   template<typename _ForwardIterator, typename _Tp, typename _Allocator>
 308:/home/zkmike/.local/share/renesas/e2_studio/toolchains/gcc_arm/gcc-arm-none-eabi-6-2017-q2-update/arm-none-eabi/include/c++/6.3.1/bits/stl_uninitialized.h ****     void
 309:/home/zkmike/.local/share/renesas/e2_studio/toolchains/gcc_arm/gcc-arm-none-eabi-6-2017-q2-update/arm-none-eabi/include/c++/6.3.1/bits/stl_uninitialized.h ****     __uninitialized_fill_a(_ForwardIterator __first, _ForwardIterator __last,
 310:/home/zkmike/.local/share/renesas/e2_studio/toolchains/gcc_arm/gcc-arm-none-eabi-6-2017-q2-update/arm-none-eabi/include/c++/6.3.1/bits/stl_uninitialized.h **** 			   const _Tp& __x, _Allocator& __alloc)
 311:/home/zkmike/.local/share/renesas/e2_studio/toolchains/gcc_arm/gcc-arm-none-eabi-6-2017-q2-update/arm-none-eabi/include/c++/6.3.1/bits/stl_uninitialized.h ****     {
 312:/home/zkmike/.local/share/renesas/e2_studio/toolchains/gcc_arm/gcc-arm-none-eabi-6-2017-q2-update/arm-none-eabi/include/c++/6.3.1/bits/stl_uninitialized.h ****       _ForwardIterator __cur = __first;
 313:/home/zkmike/.local/share/renesas/e2_studio/toolchains/gcc_arm/gcc-arm-none-eabi-6-2017-q2-update/arm-none-eabi/include/c++/6.3.1/bits/stl_uninitialized.h ****       __try
 314:/home/zkmike/.local/share/renesas/e2_studio/toolchains/gcc_arm/gcc-arm-none-eabi-6-2017-q2-update/arm-none-eabi/include/c++/6.3.1/bits/stl_uninitialized.h **** 	{
 315:/home/zkmike/.local/share/renesas/e2_studio/toolchains/gcc_arm/gcc-arm-none-eabi-6-2017-q2-update/arm-none-eabi/include/c++/6.3.1/bits/stl_uninitialized.h **** 	  typedef __gnu_cxx::__alloc_traits<_Allocator> __traits;
 316:/home/zkmike/.local/share/renesas/e2_studio/toolchains/gcc_arm/gcc-arm-none-eabi-6-2017-q2-update/arm-none-eabi/include/c++/6.3.1/bits/stl_uninitialized.h **** 	  for (; __cur != __last; ++__cur)
 317:/home/zkmike/.local/share/renesas/e2_studio/toolchains/gcc_arm/gcc-arm-none-eabi-6-2017-q2-update/arm-none-eabi/include/c++/6.3.1/bits/stl_uninitialized.h **** 	    __traits::construct(__alloc, std::__addressof(*__cur), __x);
 318:/home/zkmike/.local/share/renesas/e2_studio/toolchains/gcc_arm/gcc-arm-none-eabi-6-2017-q2-update/arm-none-eabi/include/c++/6.3.1/bits/stl_uninitialized.h **** 	}
 319:/home/zkmike/.local/share/renesas/e2_studio/toolchains/gcc_arm/gcc-arm-none-eabi-6-2017-q2-update/arm-none-eabi/include/c++/6.3.1/bits/stl_uninitialized.h ****       __catch(...)
 320:/home/zkmike/.local/share/renesas/e2_studio/toolchains/gcc_arm/gcc-arm-none-eabi-6-2017-q2-update/arm-none-eabi/include/c++/6.3.1/bits/stl_uninitialized.h **** 	{
 321:/home/zkmike/.local/share/renesas/e2_studio/toolchains/gcc_arm/gcc-arm-none-eabi-6-2017-q2-update/arm-none-eabi/include/c++/6.3.1/bits/stl_uninitialized.h **** 	  std::_Destroy(__first, __cur, __alloc);
 322:/home/zkmike/.local/share/renesas/e2_studio/toolchains/gcc_arm/gcc-arm-none-eabi-6-2017-q2-update/arm-none-eabi/include/c++/6.3.1/bits/stl_uninitialized.h **** 	  __throw_exception_again;
 323:/home/zkmike/.local/share/renesas/e2_studio/toolchains/gcc_arm/gcc-arm-none-eabi-6-2017-q2-update/arm-none-eabi/include/c++/6.3.1/bits/stl_uninitialized.h **** 	}
 324:/home/zkmike/.local/share/renesas/e2_studio/toolchains/gcc_arm/gcc-arm-none-eabi-6-2017-q2-update/arm-none-eabi/include/c++/6.3.1/bits/stl_uninitialized.h ****     }
 325:/home/zkmike/.local/share/renesas/e2_studio/toolchains/gcc_arm/gcc-arm-none-eabi-6-2017-q2-update/arm-none-eabi/include/c++/6.3.1/bits/stl_uninitialized.h **** 
 326:/home/zkmike/.local/share/renesas/e2_studio/toolchains/gcc_arm/gcc-arm-none-eabi-6-2017-q2-update/arm-none-eabi/include/c++/6.3.1/bits/stl_uninitialized.h ****   template<typename _ForwardIterator, typename _Tp, typename _Tp2>
 327:/home/zkmike/.local/share/renesas/e2_studio/toolchains/gcc_arm/gcc-arm-none-eabi-6-2017-q2-update/arm-none-eabi/include/c++/6.3.1/bits/stl_uninitialized.h ****     inline void
 328:/home/zkmike/.local/share/renesas/e2_studio/toolchains/gcc_arm/gcc-arm-none-eabi-6-2017-q2-update/arm-none-eabi/include/c++/6.3.1/bits/stl_uninitialized.h ****     __uninitialized_fill_a(_ForwardIterator __first, _ForwardIterator __last,
 329:/home/zkmike/.local/share/renesas/e2_studio/toolchains/gcc_arm/gcc-arm-none-eabi-6-2017-q2-update/arm-none-eabi/include/c++/6.3.1/bits/stl_uninitialized.h **** 			   const _Tp& __x, allocator<_Tp2>&)
 330:/home/zkmike/.local/share/renesas/e2_studio/toolchains/gcc_arm/gcc-arm-none-eabi-6-2017-q2-update/arm-none-eabi/include/c++/6.3.1/bits/stl_uninitialized.h ****     { std::uninitialized_fill(__first, __last, __x); }
 331:/home/zkmike/.local/share/renesas/e2_studio/toolchains/gcc_arm/gcc-arm-none-eabi-6-2017-q2-update/arm-none-eabi/include/c++/6.3.1/bits/stl_uninitialized.h **** 
 332:/home/zkmike/.local/share/renesas/e2_studio/toolchains/gcc_arm/gcc-arm-none-eabi-6-2017-q2-update/arm-none-eabi/include/c++/6.3.1/bits/stl_uninitialized.h ****   template<typename _ForwardIterator, typename _Size, typename _Tp,
 333:/home/zkmike/.local/share/renesas/e2_studio/toolchains/gcc_arm/gcc-arm-none-eabi-6-2017-q2-update/arm-none-eabi/include/c++/6.3.1/bits/stl_uninitialized.h **** 	   typename _Allocator>
 334:/home/zkmike/.local/share/renesas/e2_studio/toolchains/gcc_arm/gcc-arm-none-eabi-6-2017-q2-update/arm-none-eabi/include/c++/6.3.1/bits/stl_uninitialized.h ****     _ForwardIterator
 335:/home/zkmike/.local/share/renesas/e2_studio/toolchains/gcc_arm/gcc-arm-none-eabi-6-2017-q2-update/arm-none-eabi/include/c++/6.3.1/bits/stl_uninitialized.h ****     __uninitialized_fill_n_a(_ForwardIterator __first, _Size __n, 
 336:/home/zkmike/.local/share/renesas/e2_studio/toolchains/gcc_arm/gcc-arm-none-eabi-6-2017-q2-update/arm-none-eabi/include/c++/6.3.1/bits/stl_uninitialized.h **** 			     const _Tp& __x, _Allocator& __alloc)
 337:/home/zkmike/.local/share/renesas/e2_studio/toolchains/gcc_arm/gcc-arm-none-eabi-6-2017-q2-update/arm-none-eabi/include/c++/6.3.1/bits/stl_uninitialized.h ****     {
 338:/home/zkmike/.local/share/renesas/e2_studio/toolchains/gcc_arm/gcc-arm-none-eabi-6-2017-q2-update/arm-none-eabi/include/c++/6.3.1/bits/stl_uninitialized.h ****       _ForwardIterator __cur = __first;
 339:/home/zkmike/.local/share/renesas/e2_studio/toolchains/gcc_arm/gcc-arm-none-eabi-6-2017-q2-update/arm-none-eabi/include/c++/6.3.1/bits/stl_uninitialized.h ****       __try
 340:/home/zkmike/.local/share/renesas/e2_studio/toolchains/gcc_arm/gcc-arm-none-eabi-6-2017-q2-update/arm-none-eabi/include/c++/6.3.1/bits/stl_uninitialized.h **** 	{
 341:/home/zkmike/.local/share/renesas/e2_studio/toolchains/gcc_arm/gcc-arm-none-eabi-6-2017-q2-update/arm-none-eabi/include/c++/6.3.1/bits/stl_uninitialized.h **** 	  typedef __gnu_cxx::__alloc_traits<_Allocator> __traits;
 342:/home/zkmike/.local/share/renesas/e2_studio/toolchains/gcc_arm/gcc-arm-none-eabi-6-2017-q2-update/arm-none-eabi/include/c++/6.3.1/bits/stl_uninitialized.h **** 	  for (; __n > 0; --__n, ++__cur)
 343:/home/zkmike/.local/share/renesas/e2_studio/toolchains/gcc_arm/gcc-arm-none-eabi-6-2017-q2-update/arm-none-eabi/include/c++/6.3.1/bits/stl_uninitialized.h **** 	    __traits::construct(__alloc, std::__addressof(*__cur), __x);
 344:/home/zkmike/.local/share/renesas/e2_studio/toolchains/gcc_arm/gcc-arm-none-eabi-6-2017-q2-update/arm-none-eabi/include/c++/6.3.1/bits/stl_uninitialized.h **** 	  return __cur;
 345:/home/zkmike/.local/share/renesas/e2_studio/toolchains/gcc_arm/gcc-arm-none-eabi-6-2017-q2-update/arm-none-eabi/include/c++/6.3.1/bits/stl_uninitialized.h **** 	}
 346:/home/zkmike/.local/share/renesas/e2_studio/toolchains/gcc_arm/gcc-arm-none-eabi-6-2017-q2-update/arm-none-eabi/include/c++/6.3.1/bits/stl_uninitialized.h ****       __catch(...)
 347:/home/zkmike/.local/share/renesas/e2_studio/toolchains/gcc_arm/gcc-arm-none-eabi-6-2017-q2-update/arm-none-eabi/include/c++/6.3.1/bits/stl_uninitialized.h **** 	{
 348:/home/zkmike/.local/share/renesas/e2_studio/toolchains/gcc_arm/gcc-arm-none-eabi-6-2017-q2-update/arm-none-eabi/include/c++/6.3.1/bits/stl_uninitialized.h **** 	  std::_Destroy(__first, __cur, __alloc);
 349:/home/zkmike/.local/share/renesas/e2_studio/toolchains/gcc_arm/gcc-arm-none-eabi-6-2017-q2-update/arm-none-eabi/include/c++/6.3.1/bits/stl_uninitialized.h **** 	  __throw_exception_again;
 350:/home/zkmike/.local/share/renesas/e2_studio/toolchains/gcc_arm/gcc-arm-none-eabi-6-2017-q2-update/arm-none-eabi/include/c++/6.3.1/bits/stl_uninitialized.h **** 	}
 351:/home/zkmike/.local/share/renesas/e2_studio/toolchains/gcc_arm/gcc-arm-none-eabi-6-2017-q2-update/arm-none-eabi/include/c++/6.3.1/bits/stl_uninitialized.h ****     }
 352:/home/zkmike/.local/share/renesas/e2_studio/toolchains/gcc_arm/gcc-arm-none-eabi-6-2017-q2-update/arm-none-eabi/include/c++/6.3.1/bits/stl_uninitialized.h **** 
 353:/home/zkmike/.local/share/renesas/e2_studio/toolchains/gcc_arm/gcc-arm-none-eabi-6-2017-q2-update/arm-none-eabi/include/c++/6.3.1/bits/stl_uninitialized.h ****   template<typename _ForwardIterator, typename _Size, typename _Tp,
 354:/home/zkmike/.local/share/renesas/e2_studio/toolchains/gcc_arm/gcc-arm-none-eabi-6-2017-q2-update/arm-none-eabi/include/c++/6.3.1/bits/stl_uninitialized.h **** 	   typename _Tp2>
 355:/home/zkmike/.local/share/renesas/e2_studio/toolchains/gcc_arm/gcc-arm-none-eabi-6-2017-q2-update/arm-none-eabi/include/c++/6.3.1/bits/stl_uninitialized.h ****     inline _ForwardIterator
 356:/home/zkmike/.local/share/renesas/e2_studio/toolchains/gcc_arm/gcc-arm-none-eabi-6-2017-q2-update/arm-none-eabi/include/c++/6.3.1/bits/stl_uninitialized.h ****     __uninitialized_fill_n_a(_ForwardIterator __first, _Size __n, 
 357:/home/zkmike/.local/share/renesas/e2_studio/toolchains/gcc_arm/gcc-arm-none-eabi-6-2017-q2-update/arm-none-eabi/include/c++/6.3.1/bits/stl_uninitialized.h **** 			     const _Tp& __x, allocator<_Tp2>&)
 358:/home/zkmike/.local/share/renesas/e2_studio/toolchains/gcc_arm/gcc-arm-none-eabi-6-2017-q2-update/arm-none-eabi/include/c++/6.3.1/bits/stl_uninitialized.h ****     { return std::uninitialized_fill_n(__first, __n, __x); }
 359:/home/zkmike/.local/share/renesas/e2_studio/toolchains/gcc_arm/gcc-arm-none-eabi-6-2017-q2-update/arm-none-eabi/include/c++/6.3.1/bits/stl_uninitialized.h **** 
 360:/home/zkmike/.local/share/renesas/e2_studio/toolchains/gcc_arm/gcc-arm-none-eabi-6-2017-q2-update/arm-none-eabi/include/c++/6.3.1/bits/stl_uninitialized.h **** 
 361:/home/zkmike/.local/share/renesas/e2_studio/toolchains/gcc_arm/gcc-arm-none-eabi-6-2017-q2-update/arm-none-eabi/include/c++/6.3.1/bits/stl_uninitialized.h ****   // Extensions: __uninitialized_copy_move, __uninitialized_move_copy,
 362:/home/zkmike/.local/share/renesas/e2_studio/toolchains/gcc_arm/gcc-arm-none-eabi-6-2017-q2-update/arm-none-eabi/include/c++/6.3.1/bits/stl_uninitialized.h ****   // __uninitialized_fill_move, __uninitialized_move_fill.
 363:/home/zkmike/.local/share/renesas/e2_studio/toolchains/gcc_arm/gcc-arm-none-eabi-6-2017-q2-update/arm-none-eabi/include/c++/6.3.1/bits/stl_uninitialized.h ****   // All of these algorithms take a user-supplied allocator, which is used
 364:/home/zkmike/.local/share/renesas/e2_studio/toolchains/gcc_arm/gcc-arm-none-eabi-6-2017-q2-update/arm-none-eabi/include/c++/6.3.1/bits/stl_uninitialized.h ****   // for construction and destruction.
 365:/home/zkmike/.local/share/renesas/e2_studio/toolchains/gcc_arm/gcc-arm-none-eabi-6-2017-q2-update/arm-none-eabi/include/c++/6.3.1/bits/stl_uninitialized.h **** 
 366:/home/zkmike/.local/share/renesas/e2_studio/toolchains/gcc_arm/gcc-arm-none-eabi-6-2017-q2-update/arm-none-eabi/include/c++/6.3.1/bits/stl_uninitialized.h ****   // __uninitialized_copy_move
 367:/home/zkmike/.local/share/renesas/e2_studio/toolchains/gcc_arm/gcc-arm-none-eabi-6-2017-q2-update/arm-none-eabi/include/c++/6.3.1/bits/stl_uninitialized.h ****   // Copies [first1, last1) into [result, result + (last1 - first1)), and
 368:/home/zkmike/.local/share/renesas/e2_studio/toolchains/gcc_arm/gcc-arm-none-eabi-6-2017-q2-update/arm-none-eabi/include/c++/6.3.1/bits/stl_uninitialized.h ****   //  move [first2, last2) into
 369:/home/zkmike/.local/share/renesas/e2_studio/toolchains/gcc_arm/gcc-arm-none-eabi-6-2017-q2-update/arm-none-eabi/include/c++/6.3.1/bits/stl_uninitialized.h ****   //  [result, result + (last1 - first1) + (last2 - first2)).
 370:/home/zkmike/.local/share/renesas/e2_studio/toolchains/gcc_arm/gcc-arm-none-eabi-6-2017-q2-update/arm-none-eabi/include/c++/6.3.1/bits/stl_uninitialized.h ****   template<typename _InputIterator1, typename _InputIterator2,
 371:/home/zkmike/.local/share/renesas/e2_studio/toolchains/gcc_arm/gcc-arm-none-eabi-6-2017-q2-update/arm-none-eabi/include/c++/6.3.1/bits/stl_uninitialized.h **** 	   typename _ForwardIterator, typename _Allocator>
 372:/home/zkmike/.local/share/renesas/e2_studio/toolchains/gcc_arm/gcc-arm-none-eabi-6-2017-q2-update/arm-none-eabi/include/c++/6.3.1/bits/stl_uninitialized.h ****     inline _ForwardIterator
 373:/home/zkmike/.local/share/renesas/e2_studio/toolchains/gcc_arm/gcc-arm-none-eabi-6-2017-q2-update/arm-none-eabi/include/c++/6.3.1/bits/stl_uninitialized.h ****     __uninitialized_copy_move(_InputIterator1 __first1,
 374:/home/zkmike/.local/share/renesas/e2_studio/toolchains/gcc_arm/gcc-arm-none-eabi-6-2017-q2-update/arm-none-eabi/include/c++/6.3.1/bits/stl_uninitialized.h **** 			      _InputIterator1 __last1,
 375:/home/zkmike/.local/share/renesas/e2_studio/toolchains/gcc_arm/gcc-arm-none-eabi-6-2017-q2-update/arm-none-eabi/include/c++/6.3.1/bits/stl_uninitialized.h **** 			      _InputIterator2 __first2,
 376:/home/zkmike/.local/share/renesas/e2_studio/toolchains/gcc_arm/gcc-arm-none-eabi-6-2017-q2-update/arm-none-eabi/include/c++/6.3.1/bits/stl_uninitialized.h **** 			      _InputIterator2 __last2,
 377:/home/zkmike/.local/share/renesas/e2_studio/toolchains/gcc_arm/gcc-arm-none-eabi-6-2017-q2-update/arm-none-eabi/include/c++/6.3.1/bits/stl_uninitialized.h **** 			      _ForwardIterator __result,
 378:/home/zkmike/.local/share/renesas/e2_studio/toolchains/gcc_arm/gcc-arm-none-eabi-6-2017-q2-update/arm-none-eabi/include/c++/6.3.1/bits/stl_uninitialized.h **** 			      _Allocator& __alloc)
 379:/home/zkmike/.local/share/renesas/e2_studio/toolchains/gcc_arm/gcc-arm-none-eabi-6-2017-q2-update/arm-none-eabi/include/c++/6.3.1/bits/stl_uninitialized.h ****     {
 380:/home/zkmike/.local/share/renesas/e2_studio/toolchains/gcc_arm/gcc-arm-none-eabi-6-2017-q2-update/arm-none-eabi/include/c++/6.3.1/bits/stl_uninitialized.h ****       _ForwardIterator __mid = std::__uninitialized_copy_a(__first1, __last1,
 381:/home/zkmike/.local/share/renesas/e2_studio/toolchains/gcc_arm/gcc-arm-none-eabi-6-2017-q2-update/arm-none-eabi/include/c++/6.3.1/bits/stl_uninitialized.h **** 							   __result,
 382:/home/zkmike/.local/share/renesas/e2_studio/toolchains/gcc_arm/gcc-arm-none-eabi-6-2017-q2-update/arm-none-eabi/include/c++/6.3.1/bits/stl_uninitialized.h **** 							   __alloc);
 383:/home/zkmike/.local/share/renesas/e2_studio/toolchains/gcc_arm/gcc-arm-none-eabi-6-2017-q2-update/arm-none-eabi/include/c++/6.3.1/bits/stl_uninitialized.h ****       __try
 384:/home/zkmike/.local/share/renesas/e2_studio/toolchains/gcc_arm/gcc-arm-none-eabi-6-2017-q2-update/arm-none-eabi/include/c++/6.3.1/bits/stl_uninitialized.h **** 	{
 385:/home/zkmike/.local/share/renesas/e2_studio/toolchains/gcc_arm/gcc-arm-none-eabi-6-2017-q2-update/arm-none-eabi/include/c++/6.3.1/bits/stl_uninitialized.h **** 	  return std::__uninitialized_move_a(__first2, __last2, __mid, __alloc);
 386:/home/zkmike/.local/share/renesas/e2_studio/toolchains/gcc_arm/gcc-arm-none-eabi-6-2017-q2-update/arm-none-eabi/include/c++/6.3.1/bits/stl_uninitialized.h **** 	}
 387:/home/zkmike/.local/share/renesas/e2_studio/toolchains/gcc_arm/gcc-arm-none-eabi-6-2017-q2-update/arm-none-eabi/include/c++/6.3.1/bits/stl_uninitialized.h ****       __catch(...)
 388:/home/zkmike/.local/share/renesas/e2_studio/toolchains/gcc_arm/gcc-arm-none-eabi-6-2017-q2-update/arm-none-eabi/include/c++/6.3.1/bits/stl_uninitialized.h **** 	{
 389:/home/zkmike/.local/share/renesas/e2_studio/toolchains/gcc_arm/gcc-arm-none-eabi-6-2017-q2-update/arm-none-eabi/include/c++/6.3.1/bits/stl_uninitialized.h **** 	  std::_Destroy(__result, __mid, __alloc);
 390:/home/zkmike/.local/share/renesas/e2_studio/toolchains/gcc_arm/gcc-arm-none-eabi-6-2017-q2-update/arm-none-eabi/include/c++/6.3.1/bits/stl_uninitialized.h **** 	  __throw_exception_again;
 391:/home/zkmike/.local/share/renesas/e2_studio/toolchains/gcc_arm/gcc-arm-none-eabi-6-2017-q2-update/arm-none-eabi/include/c++/6.3.1/bits/stl_uninitialized.h **** 	}
 392:/home/zkmike/.local/share/renesas/e2_studio/toolchains/gcc_arm/gcc-arm-none-eabi-6-2017-q2-update/arm-none-eabi/include/c++/6.3.1/bits/stl_uninitialized.h ****     }
 393:/home/zkmike/.local/share/renesas/e2_studio/toolchains/gcc_arm/gcc-arm-none-eabi-6-2017-q2-update/arm-none-eabi/include/c++/6.3.1/bits/stl_uninitialized.h **** 
 394:/home/zkmike/.local/share/renesas/e2_studio/toolchains/gcc_arm/gcc-arm-none-eabi-6-2017-q2-update/arm-none-eabi/include/c++/6.3.1/bits/stl_uninitialized.h ****   // __uninitialized_move_copy
 395:/home/zkmike/.local/share/renesas/e2_studio/toolchains/gcc_arm/gcc-arm-none-eabi-6-2017-q2-update/arm-none-eabi/include/c++/6.3.1/bits/stl_uninitialized.h ****   // Moves [first1, last1) into [result, result + (last1 - first1)), and
 396:/home/zkmike/.local/share/renesas/e2_studio/toolchains/gcc_arm/gcc-arm-none-eabi-6-2017-q2-update/arm-none-eabi/include/c++/6.3.1/bits/stl_uninitialized.h ****   //  copies [first2, last2) into
 397:/home/zkmike/.local/share/renesas/e2_studio/toolchains/gcc_arm/gcc-arm-none-eabi-6-2017-q2-update/arm-none-eabi/include/c++/6.3.1/bits/stl_uninitialized.h ****   //  [result, result + (last1 - first1) + (last2 - first2)).
 398:/home/zkmike/.local/share/renesas/e2_studio/toolchains/gcc_arm/gcc-arm-none-eabi-6-2017-q2-update/arm-none-eabi/include/c++/6.3.1/bits/stl_uninitialized.h ****   template<typename _InputIterator1, typename _InputIterator2,
 399:/home/zkmike/.local/share/renesas/e2_studio/toolchains/gcc_arm/gcc-arm-none-eabi-6-2017-q2-update/arm-none-eabi/include/c++/6.3.1/bits/stl_uninitialized.h **** 	   typename _ForwardIterator, typename _Allocator>
 400:/home/zkmike/.local/share/renesas/e2_studio/toolchains/gcc_arm/gcc-arm-none-eabi-6-2017-q2-update/arm-none-eabi/include/c++/6.3.1/bits/stl_uninitialized.h ****     inline _ForwardIterator
 401:/home/zkmike/.local/share/renesas/e2_studio/toolchains/gcc_arm/gcc-arm-none-eabi-6-2017-q2-update/arm-none-eabi/include/c++/6.3.1/bits/stl_uninitialized.h ****     __uninitialized_move_copy(_InputIterator1 __first1,
 402:/home/zkmike/.local/share/renesas/e2_studio/toolchains/gcc_arm/gcc-arm-none-eabi-6-2017-q2-update/arm-none-eabi/include/c++/6.3.1/bits/stl_uninitialized.h **** 			      _InputIterator1 __last1,
 403:/home/zkmike/.local/share/renesas/e2_studio/toolchains/gcc_arm/gcc-arm-none-eabi-6-2017-q2-update/arm-none-eabi/include/c++/6.3.1/bits/stl_uninitialized.h **** 			      _InputIterator2 __first2,
 404:/home/zkmike/.local/share/renesas/e2_studio/toolchains/gcc_arm/gcc-arm-none-eabi-6-2017-q2-update/arm-none-eabi/include/c++/6.3.1/bits/stl_uninitialized.h **** 			      _InputIterator2 __last2,
 405:/home/zkmike/.local/share/renesas/e2_studio/toolchains/gcc_arm/gcc-arm-none-eabi-6-2017-q2-update/arm-none-eabi/include/c++/6.3.1/bits/stl_uninitialized.h **** 			      _ForwardIterator __result,
 406:/home/zkmike/.local/share/renesas/e2_studio/toolchains/gcc_arm/gcc-arm-none-eabi-6-2017-q2-update/arm-none-eabi/include/c++/6.3.1/bits/stl_uninitialized.h **** 			      _Allocator& __alloc)
 407:/home/zkmike/.local/share/renesas/e2_studio/toolchains/gcc_arm/gcc-arm-none-eabi-6-2017-q2-update/arm-none-eabi/include/c++/6.3.1/bits/stl_uninitialized.h ****     {
 408:/home/zkmike/.local/share/renesas/e2_studio/toolchains/gcc_arm/gcc-arm-none-eabi-6-2017-q2-update/arm-none-eabi/include/c++/6.3.1/bits/stl_uninitialized.h ****       _ForwardIterator __mid = std::__uninitialized_move_a(__first1, __last1,
 409:/home/zkmike/.local/share/renesas/e2_studio/toolchains/gcc_arm/gcc-arm-none-eabi-6-2017-q2-update/arm-none-eabi/include/c++/6.3.1/bits/stl_uninitialized.h **** 							   __result,
 410:/home/zkmike/.local/share/renesas/e2_studio/toolchains/gcc_arm/gcc-arm-none-eabi-6-2017-q2-update/arm-none-eabi/include/c++/6.3.1/bits/stl_uninitialized.h **** 							   __alloc);
 411:/home/zkmike/.local/share/renesas/e2_studio/toolchains/gcc_arm/gcc-arm-none-eabi-6-2017-q2-update/arm-none-eabi/include/c++/6.3.1/bits/stl_uninitialized.h ****       __try
 412:/home/zkmike/.local/share/renesas/e2_studio/toolchains/gcc_arm/gcc-arm-none-eabi-6-2017-q2-update/arm-none-eabi/include/c++/6.3.1/bits/stl_uninitialized.h **** 	{
 413:/home/zkmike/.local/share/renesas/e2_studio/toolchains/gcc_arm/gcc-arm-none-eabi-6-2017-q2-update/arm-none-eabi/include/c++/6.3.1/bits/stl_uninitialized.h **** 	  return std::__uninitialized_copy_a(__first2, __last2, __mid, __alloc);
 414:/home/zkmike/.local/share/renesas/e2_studio/toolchains/gcc_arm/gcc-arm-none-eabi-6-2017-q2-update/arm-none-eabi/include/c++/6.3.1/bits/stl_uninitialized.h **** 	}
 415:/home/zkmike/.local/share/renesas/e2_studio/toolchains/gcc_arm/gcc-arm-none-eabi-6-2017-q2-update/arm-none-eabi/include/c++/6.3.1/bits/stl_uninitialized.h ****       __catch(...)
 416:/home/zkmike/.local/share/renesas/e2_studio/toolchains/gcc_arm/gcc-arm-none-eabi-6-2017-q2-update/arm-none-eabi/include/c++/6.3.1/bits/stl_uninitialized.h **** 	{
 417:/home/zkmike/.local/share/renesas/e2_studio/toolchains/gcc_arm/gcc-arm-none-eabi-6-2017-q2-update/arm-none-eabi/include/c++/6.3.1/bits/stl_uninitialized.h **** 	  std::_Destroy(__result, __mid, __alloc);
 418:/home/zkmike/.local/share/renesas/e2_studio/toolchains/gcc_arm/gcc-arm-none-eabi-6-2017-q2-update/arm-none-eabi/include/c++/6.3.1/bits/stl_uninitialized.h **** 	  __throw_exception_again;
 419:/home/zkmike/.local/share/renesas/e2_studio/toolchains/gcc_arm/gcc-arm-none-eabi-6-2017-q2-update/arm-none-eabi/include/c++/6.3.1/bits/stl_uninitialized.h **** 	}
 420:/home/zkmike/.local/share/renesas/e2_studio/toolchains/gcc_arm/gcc-arm-none-eabi-6-2017-q2-update/arm-none-eabi/include/c++/6.3.1/bits/stl_uninitialized.h ****     }
 421:/home/zkmike/.local/share/renesas/e2_studio/toolchains/gcc_arm/gcc-arm-none-eabi-6-2017-q2-update/arm-none-eabi/include/c++/6.3.1/bits/stl_uninitialized.h ****   
 422:/home/zkmike/.local/share/renesas/e2_studio/toolchains/gcc_arm/gcc-arm-none-eabi-6-2017-q2-update/arm-none-eabi/include/c++/6.3.1/bits/stl_uninitialized.h ****   // __uninitialized_fill_move
 423:/home/zkmike/.local/share/renesas/e2_studio/toolchains/gcc_arm/gcc-arm-none-eabi-6-2017-q2-update/arm-none-eabi/include/c++/6.3.1/bits/stl_uninitialized.h ****   // Fills [result, mid) with x, and moves [first, last) into
 424:/home/zkmike/.local/share/renesas/e2_studio/toolchains/gcc_arm/gcc-arm-none-eabi-6-2017-q2-update/arm-none-eabi/include/c++/6.3.1/bits/stl_uninitialized.h ****   //  [mid, mid + (last - first)).
 425:/home/zkmike/.local/share/renesas/e2_studio/toolchains/gcc_arm/gcc-arm-none-eabi-6-2017-q2-update/arm-none-eabi/include/c++/6.3.1/bits/stl_uninitialized.h ****   template<typename _ForwardIterator, typename _Tp, typename _InputIterator,
 426:/home/zkmike/.local/share/renesas/e2_studio/toolchains/gcc_arm/gcc-arm-none-eabi-6-2017-q2-update/arm-none-eabi/include/c++/6.3.1/bits/stl_uninitialized.h **** 	   typename _Allocator>
 427:/home/zkmike/.local/share/renesas/e2_studio/toolchains/gcc_arm/gcc-arm-none-eabi-6-2017-q2-update/arm-none-eabi/include/c++/6.3.1/bits/stl_uninitialized.h ****     inline _ForwardIterator
 428:/home/zkmike/.local/share/renesas/e2_studio/toolchains/gcc_arm/gcc-arm-none-eabi-6-2017-q2-update/arm-none-eabi/include/c++/6.3.1/bits/stl_uninitialized.h ****     __uninitialized_fill_move(_ForwardIterator __result, _ForwardIterator __mid,
 429:/home/zkmike/.local/share/renesas/e2_studio/toolchains/gcc_arm/gcc-arm-none-eabi-6-2017-q2-update/arm-none-eabi/include/c++/6.3.1/bits/stl_uninitialized.h **** 			      const _Tp& __x, _InputIterator __first,
 430:/home/zkmike/.local/share/renesas/e2_studio/toolchains/gcc_arm/gcc-arm-none-eabi-6-2017-q2-update/arm-none-eabi/include/c++/6.3.1/bits/stl_uninitialized.h **** 			      _InputIterator __last, _Allocator& __alloc)
 431:/home/zkmike/.local/share/renesas/e2_studio/toolchains/gcc_arm/gcc-arm-none-eabi-6-2017-q2-update/arm-none-eabi/include/c++/6.3.1/bits/stl_uninitialized.h ****     {
 432:/home/zkmike/.local/share/renesas/e2_studio/toolchains/gcc_arm/gcc-arm-none-eabi-6-2017-q2-update/arm-none-eabi/include/c++/6.3.1/bits/stl_uninitialized.h ****       std::__uninitialized_fill_a(__result, __mid, __x, __alloc);
 433:/home/zkmike/.local/share/renesas/e2_studio/toolchains/gcc_arm/gcc-arm-none-eabi-6-2017-q2-update/arm-none-eabi/include/c++/6.3.1/bits/stl_uninitialized.h ****       __try
 434:/home/zkmike/.local/share/renesas/e2_studio/toolchains/gcc_arm/gcc-arm-none-eabi-6-2017-q2-update/arm-none-eabi/include/c++/6.3.1/bits/stl_uninitialized.h **** 	{
 435:/home/zkmike/.local/share/renesas/e2_studio/toolchains/gcc_arm/gcc-arm-none-eabi-6-2017-q2-update/arm-none-eabi/include/c++/6.3.1/bits/stl_uninitialized.h **** 	  return std::__uninitialized_move_a(__first, __last, __mid, __alloc);
 436:/home/zkmike/.local/share/renesas/e2_studio/toolchains/gcc_arm/gcc-arm-none-eabi-6-2017-q2-update/arm-none-eabi/include/c++/6.3.1/bits/stl_uninitialized.h **** 	}
 437:/home/zkmike/.local/share/renesas/e2_studio/toolchains/gcc_arm/gcc-arm-none-eabi-6-2017-q2-update/arm-none-eabi/include/c++/6.3.1/bits/stl_uninitialized.h ****       __catch(...)
 438:/home/zkmike/.local/share/renesas/e2_studio/toolchains/gcc_arm/gcc-arm-none-eabi-6-2017-q2-update/arm-none-eabi/include/c++/6.3.1/bits/stl_uninitialized.h **** 	{
 439:/home/zkmike/.local/share/renesas/e2_studio/toolchains/gcc_arm/gcc-arm-none-eabi-6-2017-q2-update/arm-none-eabi/include/c++/6.3.1/bits/stl_uninitialized.h **** 	  std::_Destroy(__result, __mid, __alloc);
 440:/home/zkmike/.local/share/renesas/e2_studio/toolchains/gcc_arm/gcc-arm-none-eabi-6-2017-q2-update/arm-none-eabi/include/c++/6.3.1/bits/stl_uninitialized.h **** 	  __throw_exception_again;
 441:/home/zkmike/.local/share/renesas/e2_studio/toolchains/gcc_arm/gcc-arm-none-eabi-6-2017-q2-update/arm-none-eabi/include/c++/6.3.1/bits/stl_uninitialized.h **** 	}
 442:/home/zkmike/.local/share/renesas/e2_studio/toolchains/gcc_arm/gcc-arm-none-eabi-6-2017-q2-update/arm-none-eabi/include/c++/6.3.1/bits/stl_uninitialized.h ****     }
 443:/home/zkmike/.local/share/renesas/e2_studio/toolchains/gcc_arm/gcc-arm-none-eabi-6-2017-q2-update/arm-none-eabi/include/c++/6.3.1/bits/stl_uninitialized.h **** 
 444:/home/zkmike/.local/share/renesas/e2_studio/toolchains/gcc_arm/gcc-arm-none-eabi-6-2017-q2-update/arm-none-eabi/include/c++/6.3.1/bits/stl_uninitialized.h ****   // __uninitialized_move_fill
 445:/home/zkmike/.local/share/renesas/e2_studio/toolchains/gcc_arm/gcc-arm-none-eabi-6-2017-q2-update/arm-none-eabi/include/c++/6.3.1/bits/stl_uninitialized.h ****   // Moves [first1, last1) into [first2, first2 + (last1 - first1)), and
 446:/home/zkmike/.local/share/renesas/e2_studio/toolchains/gcc_arm/gcc-arm-none-eabi-6-2017-q2-update/arm-none-eabi/include/c++/6.3.1/bits/stl_uninitialized.h ****   //  fills [first2 + (last1 - first1), last2) with x.
 447:/home/zkmike/.local/share/renesas/e2_studio/toolchains/gcc_arm/gcc-arm-none-eabi-6-2017-q2-update/arm-none-eabi/include/c++/6.3.1/bits/stl_uninitialized.h ****   template<typename _InputIterator, typename _ForwardIterator, typename _Tp,
 448:/home/zkmike/.local/share/renesas/e2_studio/toolchains/gcc_arm/gcc-arm-none-eabi-6-2017-q2-update/arm-none-eabi/include/c++/6.3.1/bits/stl_uninitialized.h **** 	   typename _Allocator>
 449:/home/zkmike/.local/share/renesas/e2_studio/toolchains/gcc_arm/gcc-arm-none-eabi-6-2017-q2-update/arm-none-eabi/include/c++/6.3.1/bits/stl_uninitialized.h ****     inline void
 450:/home/zkmike/.local/share/renesas/e2_studio/toolchains/gcc_arm/gcc-arm-none-eabi-6-2017-q2-update/arm-none-eabi/include/c++/6.3.1/bits/stl_uninitialized.h ****     __uninitialized_move_fill(_InputIterator __first1, _InputIterator __last1,
 451:/home/zkmike/.local/share/renesas/e2_studio/toolchains/gcc_arm/gcc-arm-none-eabi-6-2017-q2-update/arm-none-eabi/include/c++/6.3.1/bits/stl_uninitialized.h **** 			      _ForwardIterator __first2,
 452:/home/zkmike/.local/share/renesas/e2_studio/toolchains/gcc_arm/gcc-arm-none-eabi-6-2017-q2-update/arm-none-eabi/include/c++/6.3.1/bits/stl_uninitialized.h **** 			      _ForwardIterator __last2, const _Tp& __x,
 453:/home/zkmike/.local/share/renesas/e2_studio/toolchains/gcc_arm/gcc-arm-none-eabi-6-2017-q2-update/arm-none-eabi/include/c++/6.3.1/bits/stl_uninitialized.h **** 			      _Allocator& __alloc)
 454:/home/zkmike/.local/share/renesas/e2_studio/toolchains/gcc_arm/gcc-arm-none-eabi-6-2017-q2-update/arm-none-eabi/include/c++/6.3.1/bits/stl_uninitialized.h ****     {
 455:/home/zkmike/.local/share/renesas/e2_studio/toolchains/gcc_arm/gcc-arm-none-eabi-6-2017-q2-update/arm-none-eabi/include/c++/6.3.1/bits/stl_uninitialized.h ****       _ForwardIterator __mid2 = std::__uninitialized_move_a(__first1, __last1,
 456:/home/zkmike/.local/share/renesas/e2_studio/toolchains/gcc_arm/gcc-arm-none-eabi-6-2017-q2-update/arm-none-eabi/include/c++/6.3.1/bits/stl_uninitialized.h **** 							    __first2,
 457:/home/zkmike/.local/share/renesas/e2_studio/toolchains/gcc_arm/gcc-arm-none-eabi-6-2017-q2-update/arm-none-eabi/include/c++/6.3.1/bits/stl_uninitialized.h **** 							    __alloc);
 458:/home/zkmike/.local/share/renesas/e2_studio/toolchains/gcc_arm/gcc-arm-none-eabi-6-2017-q2-update/arm-none-eabi/include/c++/6.3.1/bits/stl_uninitialized.h ****       __try
 459:/home/zkmike/.local/share/renesas/e2_studio/toolchains/gcc_arm/gcc-arm-none-eabi-6-2017-q2-update/arm-none-eabi/include/c++/6.3.1/bits/stl_uninitialized.h **** 	{
 460:/home/zkmike/.local/share/renesas/e2_studio/toolchains/gcc_arm/gcc-arm-none-eabi-6-2017-q2-update/arm-none-eabi/include/c++/6.3.1/bits/stl_uninitialized.h **** 	  std::__uninitialized_fill_a(__mid2, __last2, __x, __alloc);
 461:/home/zkmike/.local/share/renesas/e2_studio/toolchains/gcc_arm/gcc-arm-none-eabi-6-2017-q2-update/arm-none-eabi/include/c++/6.3.1/bits/stl_uninitialized.h **** 	}
 462:/home/zkmike/.local/share/renesas/e2_studio/toolchains/gcc_arm/gcc-arm-none-eabi-6-2017-q2-update/arm-none-eabi/include/c++/6.3.1/bits/stl_uninitialized.h ****       __catch(...)
 463:/home/zkmike/.local/share/renesas/e2_studio/toolchains/gcc_arm/gcc-arm-none-eabi-6-2017-q2-update/arm-none-eabi/include/c++/6.3.1/bits/stl_uninitialized.h **** 	{
 464:/home/zkmike/.local/share/renesas/e2_studio/toolchains/gcc_arm/gcc-arm-none-eabi-6-2017-q2-update/arm-none-eabi/include/c++/6.3.1/bits/stl_uninitialized.h **** 	  std::_Destroy(__first2, __mid2, __alloc);
 465:/home/zkmike/.local/share/renesas/e2_studio/toolchains/gcc_arm/gcc-arm-none-eabi-6-2017-q2-update/arm-none-eabi/include/c++/6.3.1/bits/stl_uninitialized.h **** 	  __throw_exception_again;
 466:/home/zkmike/.local/share/renesas/e2_studio/toolchains/gcc_arm/gcc-arm-none-eabi-6-2017-q2-update/arm-none-eabi/include/c++/6.3.1/bits/stl_uninitialized.h **** 	}
 467:/home/zkmike/.local/share/renesas/e2_studio/toolchains/gcc_arm/gcc-arm-none-eabi-6-2017-q2-update/arm-none-eabi/include/c++/6.3.1/bits/stl_uninitialized.h ****     }
 468:/home/zkmike/.local/share/renesas/e2_studio/toolchains/gcc_arm/gcc-arm-none-eabi-6-2017-q2-update/arm-none-eabi/include/c++/6.3.1/bits/stl_uninitialized.h **** 
 469:/home/zkmike/.local/share/renesas/e2_studio/toolchains/gcc_arm/gcc-arm-none-eabi-6-2017-q2-update/arm-none-eabi/include/c++/6.3.1/bits/stl_uninitialized.h **** #if __cplusplus >= 201103L
 470:/home/zkmike/.local/share/renesas/e2_studio/toolchains/gcc_arm/gcc-arm-none-eabi-6-2017-q2-update/arm-none-eabi/include/c++/6.3.1/bits/stl_uninitialized.h ****   // Extensions: __uninitialized_default, __uninitialized_default_n,
 471:/home/zkmike/.local/share/renesas/e2_studio/toolchains/gcc_arm/gcc-arm-none-eabi-6-2017-q2-update/arm-none-eabi/include/c++/6.3.1/bits/stl_uninitialized.h ****   // __uninitialized_default_a, __uninitialized_default_n_a.
 472:/home/zkmike/.local/share/renesas/e2_studio/toolchains/gcc_arm/gcc-arm-none-eabi-6-2017-q2-update/arm-none-eabi/include/c++/6.3.1/bits/stl_uninitialized.h **** 
 473:/home/zkmike/.local/share/renesas/e2_studio/toolchains/gcc_arm/gcc-arm-none-eabi-6-2017-q2-update/arm-none-eabi/include/c++/6.3.1/bits/stl_uninitialized.h ****   template<bool _TrivialValueType>
 474:/home/zkmike/.local/share/renesas/e2_studio/toolchains/gcc_arm/gcc-arm-none-eabi-6-2017-q2-update/arm-none-eabi/include/c++/6.3.1/bits/stl_uninitialized.h ****     struct __uninitialized_default_1
 475:/home/zkmike/.local/share/renesas/e2_studio/toolchains/gcc_arm/gcc-arm-none-eabi-6-2017-q2-update/arm-none-eabi/include/c++/6.3.1/bits/stl_uninitialized.h ****     {
 476:/home/zkmike/.local/share/renesas/e2_studio/toolchains/gcc_arm/gcc-arm-none-eabi-6-2017-q2-update/arm-none-eabi/include/c++/6.3.1/bits/stl_uninitialized.h ****       template<typename _ForwardIterator>
 477:/home/zkmike/.local/share/renesas/e2_studio/toolchains/gcc_arm/gcc-arm-none-eabi-6-2017-q2-update/arm-none-eabi/include/c++/6.3.1/bits/stl_uninitialized.h ****         static void
 478:/home/zkmike/.local/share/renesas/e2_studio/toolchains/gcc_arm/gcc-arm-none-eabi-6-2017-q2-update/arm-none-eabi/include/c++/6.3.1/bits/stl_uninitialized.h ****         __uninit_default(_ForwardIterator __first, _ForwardIterator __last)
 479:/home/zkmike/.local/share/renesas/e2_studio/toolchains/gcc_arm/gcc-arm-none-eabi-6-2017-q2-update/arm-none-eabi/include/c++/6.3.1/bits/stl_uninitialized.h ****         {
 480:/home/zkmike/.local/share/renesas/e2_studio/toolchains/gcc_arm/gcc-arm-none-eabi-6-2017-q2-update/arm-none-eabi/include/c++/6.3.1/bits/stl_uninitialized.h **** 	  _ForwardIterator __cur = __first;
 481:/home/zkmike/.local/share/renesas/e2_studio/toolchains/gcc_arm/gcc-arm-none-eabi-6-2017-q2-update/arm-none-eabi/include/c++/6.3.1/bits/stl_uninitialized.h **** 	  __try
 482:/home/zkmike/.local/share/renesas/e2_studio/toolchains/gcc_arm/gcc-arm-none-eabi-6-2017-q2-update/arm-none-eabi/include/c++/6.3.1/bits/stl_uninitialized.h **** 	    {
 483:/home/zkmike/.local/share/renesas/e2_studio/toolchains/gcc_arm/gcc-arm-none-eabi-6-2017-q2-update/arm-none-eabi/include/c++/6.3.1/bits/stl_uninitialized.h **** 	      for (; __cur != __last; ++__cur)
 484:/home/zkmike/.local/share/renesas/e2_studio/toolchains/gcc_arm/gcc-arm-none-eabi-6-2017-q2-update/arm-none-eabi/include/c++/6.3.1/bits/stl_uninitialized.h **** 		std::_Construct(std::__addressof(*__cur));
 485:/home/zkmike/.local/share/renesas/e2_studio/toolchains/gcc_arm/gcc-arm-none-eabi-6-2017-q2-update/arm-none-eabi/include/c++/6.3.1/bits/stl_uninitialized.h **** 	    }
 486:/home/zkmike/.local/share/renesas/e2_studio/toolchains/gcc_arm/gcc-arm-none-eabi-6-2017-q2-update/arm-none-eabi/include/c++/6.3.1/bits/stl_uninitialized.h **** 	  __catch(...)
 487:/home/zkmike/.local/share/renesas/e2_studio/toolchains/gcc_arm/gcc-arm-none-eabi-6-2017-q2-update/arm-none-eabi/include/c++/6.3.1/bits/stl_uninitialized.h **** 	    {
 488:/home/zkmike/.local/share/renesas/e2_studio/toolchains/gcc_arm/gcc-arm-none-eabi-6-2017-q2-update/arm-none-eabi/include/c++/6.3.1/bits/stl_uninitialized.h **** 	      std::_Destroy(__first, __cur);
 489:/home/zkmike/.local/share/renesas/e2_studio/toolchains/gcc_arm/gcc-arm-none-eabi-6-2017-q2-update/arm-none-eabi/include/c++/6.3.1/bits/stl_uninitialized.h **** 	      __throw_exception_again;
 490:/home/zkmike/.local/share/renesas/e2_studio/toolchains/gcc_arm/gcc-arm-none-eabi-6-2017-q2-update/arm-none-eabi/include/c++/6.3.1/bits/stl_uninitialized.h **** 	    }
 491:/home/zkmike/.local/share/renesas/e2_studio/toolchains/gcc_arm/gcc-arm-none-eabi-6-2017-q2-update/arm-none-eabi/include/c++/6.3.1/bits/stl_uninitialized.h **** 	}
 492:/home/zkmike/.local/share/renesas/e2_studio/toolchains/gcc_arm/gcc-arm-none-eabi-6-2017-q2-update/arm-none-eabi/include/c++/6.3.1/bits/stl_uninitialized.h ****     };
 493:/home/zkmike/.local/share/renesas/e2_studio/toolchains/gcc_arm/gcc-arm-none-eabi-6-2017-q2-update/arm-none-eabi/include/c++/6.3.1/bits/stl_uninitialized.h **** 
 494:/home/zkmike/.local/share/renesas/e2_studio/toolchains/gcc_arm/gcc-arm-none-eabi-6-2017-q2-update/arm-none-eabi/include/c++/6.3.1/bits/stl_uninitialized.h ****   template<>
 495:/home/zkmike/.local/share/renesas/e2_studio/toolchains/gcc_arm/gcc-arm-none-eabi-6-2017-q2-update/arm-none-eabi/include/c++/6.3.1/bits/stl_uninitialized.h ****     struct __uninitialized_default_1<true>
 496:/home/zkmike/.local/share/renesas/e2_studio/toolchains/gcc_arm/gcc-arm-none-eabi-6-2017-q2-update/arm-none-eabi/include/c++/6.3.1/bits/stl_uninitialized.h ****     {
 497:/home/zkmike/.local/share/renesas/e2_studio/toolchains/gcc_arm/gcc-arm-none-eabi-6-2017-q2-update/arm-none-eabi/include/c++/6.3.1/bits/stl_uninitialized.h ****       template<typename _ForwardIterator>
 498:/home/zkmike/.local/share/renesas/e2_studio/toolchains/gcc_arm/gcc-arm-none-eabi-6-2017-q2-update/arm-none-eabi/include/c++/6.3.1/bits/stl_uninitialized.h ****         static void
 499:/home/zkmike/.local/share/renesas/e2_studio/toolchains/gcc_arm/gcc-arm-none-eabi-6-2017-q2-update/arm-none-eabi/include/c++/6.3.1/bits/stl_uninitialized.h ****         __uninit_default(_ForwardIterator __first, _ForwardIterator __last)
 500:/home/zkmike/.local/share/renesas/e2_studio/toolchains/gcc_arm/gcc-arm-none-eabi-6-2017-q2-update/arm-none-eabi/include/c++/6.3.1/bits/stl_uninitialized.h ****         {
 501:/home/zkmike/.local/share/renesas/e2_studio/toolchains/gcc_arm/gcc-arm-none-eabi-6-2017-q2-update/arm-none-eabi/include/c++/6.3.1/bits/stl_uninitialized.h **** 	  typedef typename iterator_traits<_ForwardIterator>::value_type
 502:/home/zkmike/.local/share/renesas/e2_studio/toolchains/gcc_arm/gcc-arm-none-eabi-6-2017-q2-update/arm-none-eabi/include/c++/6.3.1/bits/stl_uninitialized.h **** 	    _ValueType;
 503:/home/zkmike/.local/share/renesas/e2_studio/toolchains/gcc_arm/gcc-arm-none-eabi-6-2017-q2-update/arm-none-eabi/include/c++/6.3.1/bits/stl_uninitialized.h **** 
 504:/home/zkmike/.local/share/renesas/e2_studio/toolchains/gcc_arm/gcc-arm-none-eabi-6-2017-q2-update/arm-none-eabi/include/c++/6.3.1/bits/stl_uninitialized.h **** 	  std::fill(__first, __last, _ValueType());
 505:/home/zkmike/.local/share/renesas/e2_studio/toolchains/gcc_arm/gcc-arm-none-eabi-6-2017-q2-update/arm-none-eabi/include/c++/6.3.1/bits/stl_uninitialized.h **** 	}
 506:/home/zkmike/.local/share/renesas/e2_studio/toolchains/gcc_arm/gcc-arm-none-eabi-6-2017-q2-update/arm-none-eabi/include/c++/6.3.1/bits/stl_uninitialized.h ****     };
 507:/home/zkmike/.local/share/renesas/e2_studio/toolchains/gcc_arm/gcc-arm-none-eabi-6-2017-q2-update/arm-none-eabi/include/c++/6.3.1/bits/stl_uninitialized.h **** 
 508:/home/zkmike/.local/share/renesas/e2_studio/toolchains/gcc_arm/gcc-arm-none-eabi-6-2017-q2-update/arm-none-eabi/include/c++/6.3.1/bits/stl_uninitialized.h ****   template<bool _TrivialValueType>
 509:/home/zkmike/.local/share/renesas/e2_studio/toolchains/gcc_arm/gcc-arm-none-eabi-6-2017-q2-update/arm-none-eabi/include/c++/6.3.1/bits/stl_uninitialized.h ****     struct __uninitialized_default_n_1
 510:/home/zkmike/.local/share/renesas/e2_studio/toolchains/gcc_arm/gcc-arm-none-eabi-6-2017-q2-update/arm-none-eabi/include/c++/6.3.1/bits/stl_uninitialized.h ****     {
 511:/home/zkmike/.local/share/renesas/e2_studio/toolchains/gcc_arm/gcc-arm-none-eabi-6-2017-q2-update/arm-none-eabi/include/c++/6.3.1/bits/stl_uninitialized.h ****       template<typename _ForwardIterator, typename _Size>
 512:/home/zkmike/.local/share/renesas/e2_studio/toolchains/gcc_arm/gcc-arm-none-eabi-6-2017-q2-update/arm-none-eabi/include/c++/6.3.1/bits/stl_uninitialized.h ****         static _ForwardIterator
 513:/home/zkmike/.local/share/renesas/e2_studio/toolchains/gcc_arm/gcc-arm-none-eabi-6-2017-q2-update/arm-none-eabi/include/c++/6.3.1/bits/stl_uninitialized.h ****         __uninit_default_n(_ForwardIterator __first, _Size __n)
 514:/home/zkmike/.local/share/renesas/e2_studio/toolchains/gcc_arm/gcc-arm-none-eabi-6-2017-q2-update/arm-none-eabi/include/c++/6.3.1/bits/stl_uninitialized.h ****         {
 515:/home/zkmike/.local/share/renesas/e2_studio/toolchains/gcc_arm/gcc-arm-none-eabi-6-2017-q2-update/arm-none-eabi/include/c++/6.3.1/bits/stl_uninitialized.h **** 	  _ForwardIterator __cur = __first;
 516:/home/zkmike/.local/share/renesas/e2_studio/toolchains/gcc_arm/gcc-arm-none-eabi-6-2017-q2-update/arm-none-eabi/include/c++/6.3.1/bits/stl_uninitialized.h **** 	  __try
 517:/home/zkmike/.local/share/renesas/e2_studio/toolchains/gcc_arm/gcc-arm-none-eabi-6-2017-q2-update/arm-none-eabi/include/c++/6.3.1/bits/stl_uninitialized.h **** 	    {
 518:/home/zkmike/.local/share/renesas/e2_studio/toolchains/gcc_arm/gcc-arm-none-eabi-6-2017-q2-update/arm-none-eabi/include/c++/6.3.1/bits/stl_uninitialized.h **** 	      for (; __n > 0; --__n, ++__cur)
 2349              		.loc 13 518 0
 2350 00f4 013043E2 		sub	r3, r3, #1
 2351              	.LVL222:
 2352 00f8 040080E2 		add	r0, r0, #4
 2353              	.LVL223:
 2354              	.L139:
 2355 00fc 000053E3 		cmp	r3, #0
 2356 0100 0300000A 		beq	.L136
 2357              	.LBB1346:
 2358              	.LBB1347:
 2359              		.file 14 "/home/zkmike/.local/share/renesas/e2_studio/toolchains/gcc_arm/gcc-arm-none-eabi-6-2017-
   1:/home/zkmike/.local/share/renesas/e2_studio/toolchains/gcc_arm/gcc-arm-none-eabi-6-2017-q2-update/arm-none-eabi/include/c++/6.3.1/bits/stl_construct.h **** // nonstandard construct and destroy functions -*- C++ -*-
   2:/home/zkmike/.local/share/renesas/e2_studio/toolchains/gcc_arm/gcc-arm-none-eabi-6-2017-q2-update/arm-none-eabi/include/c++/6.3.1/bits/stl_construct.h **** 
   3:/home/zkmike/.local/share/renesas/e2_studio/toolchains/gcc_arm/gcc-arm-none-eabi-6-2017-q2-update/arm-none-eabi/include/c++/6.3.1/bits/stl_construct.h **** // Copyright (C) 2001-2016 Free Software Foundation, Inc.
   4:/home/zkmike/.local/share/renesas/e2_studio/toolchains/gcc_arm/gcc-arm-none-eabi-6-2017-q2-update/arm-none-eabi/include/c++/6.3.1/bits/stl_construct.h **** //
   5:/home/zkmike/.local/share/renesas/e2_studio/toolchains/gcc_arm/gcc-arm-none-eabi-6-2017-q2-update/arm-none-eabi/include/c++/6.3.1/bits/stl_construct.h **** // This file is part of the GNU ISO C++ Library.  This library is free
   6:/home/zkmike/.local/share/renesas/e2_studio/toolchains/gcc_arm/gcc-arm-none-eabi-6-2017-q2-update/arm-none-eabi/include/c++/6.3.1/bits/stl_construct.h **** // software; you can redistribute it and/or modify it under the
   7:/home/zkmike/.local/share/renesas/e2_studio/toolchains/gcc_arm/gcc-arm-none-eabi-6-2017-q2-update/arm-none-eabi/include/c++/6.3.1/bits/stl_construct.h **** // terms of the GNU General Public License as published by the
   8:/home/zkmike/.local/share/renesas/e2_studio/toolchains/gcc_arm/gcc-arm-none-eabi-6-2017-q2-update/arm-none-eabi/include/c++/6.3.1/bits/stl_construct.h **** // Free Software Foundation; either version 3, or (at your option)
   9:/home/zkmike/.local/share/renesas/e2_studio/toolchains/gcc_arm/gcc-arm-none-eabi-6-2017-q2-update/arm-none-eabi/include/c++/6.3.1/bits/stl_construct.h **** // any later version.
  10:/home/zkmike/.local/share/renesas/e2_studio/toolchains/gcc_arm/gcc-arm-none-eabi-6-2017-q2-update/arm-none-eabi/include/c++/6.3.1/bits/stl_construct.h **** 
  11:/home/zkmike/.local/share/renesas/e2_studio/toolchains/gcc_arm/gcc-arm-none-eabi-6-2017-q2-update/arm-none-eabi/include/c++/6.3.1/bits/stl_construct.h **** // This library is distributed in the hope that it will be useful,
  12:/home/zkmike/.local/share/renesas/e2_studio/toolchains/gcc_arm/gcc-arm-none-eabi-6-2017-q2-update/arm-none-eabi/include/c++/6.3.1/bits/stl_construct.h **** // but WITHOUT ANY WARRANTY; without even the implied warranty of
  13:/home/zkmike/.local/share/renesas/e2_studio/toolchains/gcc_arm/gcc-arm-none-eabi-6-2017-q2-update/arm-none-eabi/include/c++/6.3.1/bits/stl_construct.h **** // MERCHANTABILITY or FITNESS FOR A PARTICULAR PURPOSE.  See the
  14:/home/zkmike/.local/share/renesas/e2_studio/toolchains/gcc_arm/gcc-arm-none-eabi-6-2017-q2-update/arm-none-eabi/include/c++/6.3.1/bits/stl_construct.h **** // GNU General Public License for more details.
  15:/home/zkmike/.local/share/renesas/e2_studio/toolchains/gcc_arm/gcc-arm-none-eabi-6-2017-q2-update/arm-none-eabi/include/c++/6.3.1/bits/stl_construct.h **** 
  16:/home/zkmike/.local/share/renesas/e2_studio/toolchains/gcc_arm/gcc-arm-none-eabi-6-2017-q2-update/arm-none-eabi/include/c++/6.3.1/bits/stl_construct.h **** // Under Section 7 of GPL version 3, you are granted additional
  17:/home/zkmike/.local/share/renesas/e2_studio/toolchains/gcc_arm/gcc-arm-none-eabi-6-2017-q2-update/arm-none-eabi/include/c++/6.3.1/bits/stl_construct.h **** // permissions described in the GCC Runtime Library Exception, version
  18:/home/zkmike/.local/share/renesas/e2_studio/toolchains/gcc_arm/gcc-arm-none-eabi-6-2017-q2-update/arm-none-eabi/include/c++/6.3.1/bits/stl_construct.h **** // 3.1, as published by the Free Software Foundation.
  19:/home/zkmike/.local/share/renesas/e2_studio/toolchains/gcc_arm/gcc-arm-none-eabi-6-2017-q2-update/arm-none-eabi/include/c++/6.3.1/bits/stl_construct.h **** 
  20:/home/zkmike/.local/share/renesas/e2_studio/toolchains/gcc_arm/gcc-arm-none-eabi-6-2017-q2-update/arm-none-eabi/include/c++/6.3.1/bits/stl_construct.h **** // You should have received a copy of the GNU General Public License and
  21:/home/zkmike/.local/share/renesas/e2_studio/toolchains/gcc_arm/gcc-arm-none-eabi-6-2017-q2-update/arm-none-eabi/include/c++/6.3.1/bits/stl_construct.h **** // a copy of the GCC Runtime Library Exception along with this program;
  22:/home/zkmike/.local/share/renesas/e2_studio/toolchains/gcc_arm/gcc-arm-none-eabi-6-2017-q2-update/arm-none-eabi/include/c++/6.3.1/bits/stl_construct.h **** // see the files COPYING3 and COPYING.RUNTIME respectively.  If not, see
  23:/home/zkmike/.local/share/renesas/e2_studio/toolchains/gcc_arm/gcc-arm-none-eabi-6-2017-q2-update/arm-none-eabi/include/c++/6.3.1/bits/stl_construct.h **** // <http://www.gnu.org/licenses/>.
  24:/home/zkmike/.local/share/renesas/e2_studio/toolchains/gcc_arm/gcc-arm-none-eabi-6-2017-q2-update/arm-none-eabi/include/c++/6.3.1/bits/stl_construct.h **** 
  25:/home/zkmike/.local/share/renesas/e2_studio/toolchains/gcc_arm/gcc-arm-none-eabi-6-2017-q2-update/arm-none-eabi/include/c++/6.3.1/bits/stl_construct.h **** /*
  26:/home/zkmike/.local/share/renesas/e2_studio/toolchains/gcc_arm/gcc-arm-none-eabi-6-2017-q2-update/arm-none-eabi/include/c++/6.3.1/bits/stl_construct.h ****  *
  27:/home/zkmike/.local/share/renesas/e2_studio/toolchains/gcc_arm/gcc-arm-none-eabi-6-2017-q2-update/arm-none-eabi/include/c++/6.3.1/bits/stl_construct.h ****  * Copyright (c) 1994
  28:/home/zkmike/.local/share/renesas/e2_studio/toolchains/gcc_arm/gcc-arm-none-eabi-6-2017-q2-update/arm-none-eabi/include/c++/6.3.1/bits/stl_construct.h ****  * Hewlett-Packard Company
  29:/home/zkmike/.local/share/renesas/e2_studio/toolchains/gcc_arm/gcc-arm-none-eabi-6-2017-q2-update/arm-none-eabi/include/c++/6.3.1/bits/stl_construct.h ****  *
  30:/home/zkmike/.local/share/renesas/e2_studio/toolchains/gcc_arm/gcc-arm-none-eabi-6-2017-q2-update/arm-none-eabi/include/c++/6.3.1/bits/stl_construct.h ****  * Permission to use, copy, modify, distribute and sell this software
  31:/home/zkmike/.local/share/renesas/e2_studio/toolchains/gcc_arm/gcc-arm-none-eabi-6-2017-q2-update/arm-none-eabi/include/c++/6.3.1/bits/stl_construct.h ****  * and its documentation for any purpose is hereby granted without fee,
  32:/home/zkmike/.local/share/renesas/e2_studio/toolchains/gcc_arm/gcc-arm-none-eabi-6-2017-q2-update/arm-none-eabi/include/c++/6.3.1/bits/stl_construct.h ****  * provided that the above copyright notice appear in all copies and
  33:/home/zkmike/.local/share/renesas/e2_studio/toolchains/gcc_arm/gcc-arm-none-eabi-6-2017-q2-update/arm-none-eabi/include/c++/6.3.1/bits/stl_construct.h ****  * that both that copyright notice and this permission notice appear
  34:/home/zkmike/.local/share/renesas/e2_studio/toolchains/gcc_arm/gcc-arm-none-eabi-6-2017-q2-update/arm-none-eabi/include/c++/6.3.1/bits/stl_construct.h ****  * in supporting documentation.  Hewlett-Packard Company makes no
  35:/home/zkmike/.local/share/renesas/e2_studio/toolchains/gcc_arm/gcc-arm-none-eabi-6-2017-q2-update/arm-none-eabi/include/c++/6.3.1/bits/stl_construct.h ****  * representations about the suitability of this software for any
  36:/home/zkmike/.local/share/renesas/e2_studio/toolchains/gcc_arm/gcc-arm-none-eabi-6-2017-q2-update/arm-none-eabi/include/c++/6.3.1/bits/stl_construct.h ****  * purpose.  It is provided "as is" without express or implied warranty.
  37:/home/zkmike/.local/share/renesas/e2_studio/toolchains/gcc_arm/gcc-arm-none-eabi-6-2017-q2-update/arm-none-eabi/include/c++/6.3.1/bits/stl_construct.h ****  *
  38:/home/zkmike/.local/share/renesas/e2_studio/toolchains/gcc_arm/gcc-arm-none-eabi-6-2017-q2-update/arm-none-eabi/include/c++/6.3.1/bits/stl_construct.h ****  *
  39:/home/zkmike/.local/share/renesas/e2_studio/toolchains/gcc_arm/gcc-arm-none-eabi-6-2017-q2-update/arm-none-eabi/include/c++/6.3.1/bits/stl_construct.h ****  * Copyright (c) 1996,1997
  40:/home/zkmike/.local/share/renesas/e2_studio/toolchains/gcc_arm/gcc-arm-none-eabi-6-2017-q2-update/arm-none-eabi/include/c++/6.3.1/bits/stl_construct.h ****  * Silicon Graphics Computer Systems, Inc.
  41:/home/zkmike/.local/share/renesas/e2_studio/toolchains/gcc_arm/gcc-arm-none-eabi-6-2017-q2-update/arm-none-eabi/include/c++/6.3.1/bits/stl_construct.h ****  *
  42:/home/zkmike/.local/share/renesas/e2_studio/toolchains/gcc_arm/gcc-arm-none-eabi-6-2017-q2-update/arm-none-eabi/include/c++/6.3.1/bits/stl_construct.h ****  * Permission to use, copy, modify, distribute and sell this software
  43:/home/zkmike/.local/share/renesas/e2_studio/toolchains/gcc_arm/gcc-arm-none-eabi-6-2017-q2-update/arm-none-eabi/include/c++/6.3.1/bits/stl_construct.h ****  * and its documentation for any purpose is hereby granted without fee,
  44:/home/zkmike/.local/share/renesas/e2_studio/toolchains/gcc_arm/gcc-arm-none-eabi-6-2017-q2-update/arm-none-eabi/include/c++/6.3.1/bits/stl_construct.h ****  * provided that the above copyright notice appear in all copies and
  45:/home/zkmike/.local/share/renesas/e2_studio/toolchains/gcc_arm/gcc-arm-none-eabi-6-2017-q2-update/arm-none-eabi/include/c++/6.3.1/bits/stl_construct.h ****  * that both that copyright notice and this permission notice appear
  46:/home/zkmike/.local/share/renesas/e2_studio/toolchains/gcc_arm/gcc-arm-none-eabi-6-2017-q2-update/arm-none-eabi/include/c++/6.3.1/bits/stl_construct.h ****  * in supporting documentation.  Silicon Graphics makes no
  47:/home/zkmike/.local/share/renesas/e2_studio/toolchains/gcc_arm/gcc-arm-none-eabi-6-2017-q2-update/arm-none-eabi/include/c++/6.3.1/bits/stl_construct.h ****  * representations about the suitability of this software for any
  48:/home/zkmike/.local/share/renesas/e2_studio/toolchains/gcc_arm/gcc-arm-none-eabi-6-2017-q2-update/arm-none-eabi/include/c++/6.3.1/bits/stl_construct.h ****  * purpose.  It is provided "as is" without express or implied warranty.
  49:/home/zkmike/.local/share/renesas/e2_studio/toolchains/gcc_arm/gcc-arm-none-eabi-6-2017-q2-update/arm-none-eabi/include/c++/6.3.1/bits/stl_construct.h ****  */
  50:/home/zkmike/.local/share/renesas/e2_studio/toolchains/gcc_arm/gcc-arm-none-eabi-6-2017-q2-update/arm-none-eabi/include/c++/6.3.1/bits/stl_construct.h **** 
  51:/home/zkmike/.local/share/renesas/e2_studio/toolchains/gcc_arm/gcc-arm-none-eabi-6-2017-q2-update/arm-none-eabi/include/c++/6.3.1/bits/stl_construct.h **** /** @file bits/stl_construct.h
  52:/home/zkmike/.local/share/renesas/e2_studio/toolchains/gcc_arm/gcc-arm-none-eabi-6-2017-q2-update/arm-none-eabi/include/c++/6.3.1/bits/stl_construct.h ****  *  This is an internal header file, included by other library headers.
  53:/home/zkmike/.local/share/renesas/e2_studio/toolchains/gcc_arm/gcc-arm-none-eabi-6-2017-q2-update/arm-none-eabi/include/c++/6.3.1/bits/stl_construct.h ****  *  Do not attempt to use it directly. @headername{memory}
  54:/home/zkmike/.local/share/renesas/e2_studio/toolchains/gcc_arm/gcc-arm-none-eabi-6-2017-q2-update/arm-none-eabi/include/c++/6.3.1/bits/stl_construct.h ****  */
  55:/home/zkmike/.local/share/renesas/e2_studio/toolchains/gcc_arm/gcc-arm-none-eabi-6-2017-q2-update/arm-none-eabi/include/c++/6.3.1/bits/stl_construct.h **** 
  56:/home/zkmike/.local/share/renesas/e2_studio/toolchains/gcc_arm/gcc-arm-none-eabi-6-2017-q2-update/arm-none-eabi/include/c++/6.3.1/bits/stl_construct.h **** #ifndef _STL_CONSTRUCT_H
  57:/home/zkmike/.local/share/renesas/e2_studio/toolchains/gcc_arm/gcc-arm-none-eabi-6-2017-q2-update/arm-none-eabi/include/c++/6.3.1/bits/stl_construct.h **** #define _STL_CONSTRUCT_H 1
  58:/home/zkmike/.local/share/renesas/e2_studio/toolchains/gcc_arm/gcc-arm-none-eabi-6-2017-q2-update/arm-none-eabi/include/c++/6.3.1/bits/stl_construct.h **** 
  59:/home/zkmike/.local/share/renesas/e2_studio/toolchains/gcc_arm/gcc-arm-none-eabi-6-2017-q2-update/arm-none-eabi/include/c++/6.3.1/bits/stl_construct.h **** #include <new>
  60:/home/zkmike/.local/share/renesas/e2_studio/toolchains/gcc_arm/gcc-arm-none-eabi-6-2017-q2-update/arm-none-eabi/include/c++/6.3.1/bits/stl_construct.h **** #include <bits/move.h>
  61:/home/zkmike/.local/share/renesas/e2_studio/toolchains/gcc_arm/gcc-arm-none-eabi-6-2017-q2-update/arm-none-eabi/include/c++/6.3.1/bits/stl_construct.h **** #include <ext/alloc_traits.h>
  62:/home/zkmike/.local/share/renesas/e2_studio/toolchains/gcc_arm/gcc-arm-none-eabi-6-2017-q2-update/arm-none-eabi/include/c++/6.3.1/bits/stl_construct.h **** 
  63:/home/zkmike/.local/share/renesas/e2_studio/toolchains/gcc_arm/gcc-arm-none-eabi-6-2017-q2-update/arm-none-eabi/include/c++/6.3.1/bits/stl_construct.h **** namespace std _GLIBCXX_VISIBILITY(default)
  64:/home/zkmike/.local/share/renesas/e2_studio/toolchains/gcc_arm/gcc-arm-none-eabi-6-2017-q2-update/arm-none-eabi/include/c++/6.3.1/bits/stl_construct.h **** {
  65:/home/zkmike/.local/share/renesas/e2_studio/toolchains/gcc_arm/gcc-arm-none-eabi-6-2017-q2-update/arm-none-eabi/include/c++/6.3.1/bits/stl_construct.h **** _GLIBCXX_BEGIN_NAMESPACE_VERSION
  66:/home/zkmike/.local/share/renesas/e2_studio/toolchains/gcc_arm/gcc-arm-none-eabi-6-2017-q2-update/arm-none-eabi/include/c++/6.3.1/bits/stl_construct.h **** 
  67:/home/zkmike/.local/share/renesas/e2_studio/toolchains/gcc_arm/gcc-arm-none-eabi-6-2017-q2-update/arm-none-eabi/include/c++/6.3.1/bits/stl_construct.h ****   /**
  68:/home/zkmike/.local/share/renesas/e2_studio/toolchains/gcc_arm/gcc-arm-none-eabi-6-2017-q2-update/arm-none-eabi/include/c++/6.3.1/bits/stl_construct.h ****    * Constructs an object in existing memory by invoking an allocated
  69:/home/zkmike/.local/share/renesas/e2_studio/toolchains/gcc_arm/gcc-arm-none-eabi-6-2017-q2-update/arm-none-eabi/include/c++/6.3.1/bits/stl_construct.h ****    * object's constructor with an initializer.
  70:/home/zkmike/.local/share/renesas/e2_studio/toolchains/gcc_arm/gcc-arm-none-eabi-6-2017-q2-update/arm-none-eabi/include/c++/6.3.1/bits/stl_construct.h ****    */
  71:/home/zkmike/.local/share/renesas/e2_studio/toolchains/gcc_arm/gcc-arm-none-eabi-6-2017-q2-update/arm-none-eabi/include/c++/6.3.1/bits/stl_construct.h **** #if __cplusplus >= 201103L
  72:/home/zkmike/.local/share/renesas/e2_studio/toolchains/gcc_arm/gcc-arm-none-eabi-6-2017-q2-update/arm-none-eabi/include/c++/6.3.1/bits/stl_construct.h ****   template<typename _T1, typename... _Args>
  73:/home/zkmike/.local/share/renesas/e2_studio/toolchains/gcc_arm/gcc-arm-none-eabi-6-2017-q2-update/arm-none-eabi/include/c++/6.3.1/bits/stl_construct.h ****     inline void
  74:/home/zkmike/.local/share/renesas/e2_studio/toolchains/gcc_arm/gcc-arm-none-eabi-6-2017-q2-update/arm-none-eabi/include/c++/6.3.1/bits/stl_construct.h ****     _Construct(_T1* __p, _Args&&... __args)
  75:/home/zkmike/.local/share/renesas/e2_studio/toolchains/gcc_arm/gcc-arm-none-eabi-6-2017-q2-update/arm-none-eabi/include/c++/6.3.1/bits/stl_construct.h ****     { ::new(static_cast<void*>(__p)) _T1(std::forward<_Args>(__args)...); }
 2360              		.loc 14 75 0
 2361 0104 000050E3 		cmp	r0, #0
 2362              	.LVL224:
 2363              	.LBB1348:
 2364              	.LBB1349:
 2365              	.LBB1350:
 2366              	.LBB1351:
  87:/home/zkmike/workspace/RZA2M/rza2m_2d_barcode_sample_freertos_gcc/src/zxing_lib/zxing/common/Counted.h ****   }
 2367              		.loc 3 87 0
 2368 0108 0020A013 		movne	r2, #0
 2369 010c 00208015 		strne	r2, [r0]
 2370 0110 F7FFFFEA 		b	.L137
 2371              	.LVL225:
 2372              	.L136:
 2373              	.LBE1351:
 2374              	.LBE1350:
 2375              	.LBE1349:
 2376              	.LBE1348:
 2377              	.LBE1347:
 2378              	.LBE1346:
 2379              	.LBE1345:
 2380              	.LBE1344:
 2381              	.LBE1343:
 2382              	.LBE1342:
 2383              	.LBE1341:
1308:/home/zkmike/.local/share/renesas/e2_studio/toolchains/gcc_arm/gcc-arm-none-eabi-6-2017-q2-update/arm-none-eabi/include/c++/6.3.1/bits/stl_vector.h **** 	  std::__uninitialized_default_n_a(this->_M_impl._M_start, __n,
 2384              		.loc 11 1308 0
 2385 0114 040084E5 		str	r0, [r4, #4]
 2386              	.LVL226:
 2387              	.LBE1340:
 2388              	.LBE1339:
 2389              	.LBE1328:
 2390              	.LBB1352:
 283:../src/zxing_lib/zxing/common/detector/WhiteRectangleDetector.cpp ****     Ref<ResultPoint> pointA(new ResultPoint(ti - CORR, tj + CORR));
 2391              		.loc 4 283 0
 2392 0118 037AD5ED 		vldr.32	s15, [r5, #12]	@ int
 2393 011c E77AF8EE 		vcvt.f32.s32	s15, s15
 2394 0120 007AB6EE 		vmov.f32	s14, #5.0e-1
 2395 0124 877A67EE 		vmul.f32	s15, s15, s14
 2396 0128 E78AB4EE 		vcmpe.f32	s16, s15
 2397 012c 10FAF1EE 		vmrs	APSR_nzcv, FPSCR
 2398 0130 1601005A 		bpl	.L224
 2399              	.LBB1353:
 284:../src/zxing_lib/zxing/common/detector/WhiteRectangleDetector.cpp ****     Ref<ResultPoint> pointB(new ResultPoint(zi + CORR, zj + CORR));
 2400              		.loc 4 284 0
 2401 0134 1000A0E3 		mov	r0, #16
 2402              	.LEHB22:
 2403 0138 FEFFFFEB 		bl	_Znwj
 2404              	.LVL227:
 2405              	.LEHE22:
 2406 013c 0050A0E1 		mov	r5, r0
 2407              	.LVL228:
 2408 0140 003000E3 		movw	r3, #:lower16:.LANCHOR2
 2409 0144 003040E3 		movt	r3, #:upper16:.LANCHOR2
 2410 0148 000A93ED 		vldr.32	s0, [r3]	@ int
 2411 014c C00AB8EE 		vcvt.f32.s32	s0, s0
 2412 0150 800A7BEE 		vadd.f32	s1, s23, s0
 2413 0154 400A3BEE 		vsub.f32	s0, s22, s0
 2414              	.LEHB23:
 2415 0158 FEFFFFEB 		bl	_ZN5zxing11ResultPointC1Eff
 2416              	.LVL229:
 2417              	.LEHE23:
 2418              	.LBB1354:
 2419              	.LBB1355:
 2420              	.LBB1356:
  60:/home/zkmike/workspace/RZA2M/rza2m_2d_barcode_sample_freertos_gcc/src/zxing_lib/zxing/common/Counted.h ****     reset(o);
 2421              		.loc 3 60 0
 2422 015c 0030A0E3 		mov	r3, #0
 2423 0160 00308DE5 		str	r3, [sp]
 2424              	.LVL230:
 2425              	.LBB1357:
 2426              	.LBB1358:
  81:/home/zkmike/workspace/RZA2M/rza2m_2d_barcode_sample_freertos_gcc/src/zxing_lib/zxing/common/Counted.h ****       o->retain();
 2427              		.loc 3 81 0
 2428 0164 030055E1 		cmp	r5, r3
 2429              	.LVL231:
 2430              	.LBB1359:
 2431              	.LBB1360:
  36:/home/zkmike/workspace/RZA2M/rza2m_2d_barcode_sample_freertos_gcc/src/zxing_lib/zxing/common/Counted.h ****     return this;
 2432              		.loc 3 36 0
 2433 0168 04309515 		ldrne	r3, [r5, #4]
 2434 016c 01308312 		addne	r3, r3, #1
 2435 0170 04308515 		strne	r3, [r5, #4]
 2436              	.LVL232:
 2437              	.L142:
 2438              	.LBE1360:
 2439              	.LBE1359:
  84:/home/zkmike/workspace/RZA2M/rza2m_2d_barcode_sample_freertos_gcc/src/zxing_lib/zxing/common/Counted.h ****       object_->release();
 2440              		.loc 3 84 0
 2441 0174 00009DE5 		ldr	r0, [sp]
 2442 0178 000050E3 		cmp	r0, #0
 2443 017c 0400000A 		beq	.L143
 2444              	.LVL233:
 2445              	.LBB1361:
 2446              	.LBB1362:
  40:/home/zkmike/workspace/RZA2M/rza2m_2d_barcode_sample_freertos_gcc/src/zxing_lib/zxing/common/Counted.h ****     if (count_ == 0) {
 2447              		.loc 3 40 0
 2448 0180 043090E5 		ldr	r3, [r0, #4]
 2449 0184 013043E2 		sub	r3, r3, #1
 2450 0188 043080E5 		str	r3, [r0, #4]
  41:/home/zkmike/workspace/RZA2M/rza2m_2d_barcode_sample_freertos_gcc/src/zxing_lib/zxing/common/Counted.h ****       count_ = 0xDEADF001;
 2451              		.loc 3 41 0
 2452 018c 000053E3 		cmp	r3, #0
 2453 0190 0300000A 		beq	.L226
 2454              	.LVL234:
 2455              	.L143:
 2456              	.LBE1362:
 2457              	.LBE1361:
  87:/home/zkmike/workspace/RZA2M/rza2m_2d_barcode_sample_freertos_gcc/src/zxing_lib/zxing/common/Counted.h ****   }
 2458              		.loc 3 87 0
 2459 0194 00508DE5 		str	r5, [sp]
 2460              	.LVL235:
 2461              	.LBE1358:
 2462              	.LBE1357:
 2463              	.LBE1356:
 2464              	.LBE1355:
 2465              	.LBE1354:
 285:../src/zxing_lib/zxing/common/detector/WhiteRectangleDetector.cpp ****     Ref<ResultPoint> pointC(new ResultPoint(xi - CORR, xj - CORR));
 2466              		.loc 4 285 0
 2467 0198 1000A0E3 		mov	r0, #16
 2468              	.LEHB24:
 2469 019c FEFFFFEB 		bl	_Znwj
 2470              	.LVL236:
 2471              	.LEHE24:
 2472 01a0 060000EA 		b	.L227
 2473              	.LVL237:
 2474              	.L226:
 2475              	.LBB1369:
 2476              	.LBB1368:
 2477              	.LBB1367:
 2478              	.LBB1366:
 2479              	.LBB1365:
 2480              	.LBB1364:
 2481              	.LBB1363:
  42:/home/zkmike/workspace/RZA2M/rza2m_2d_barcode_sample_freertos_gcc/src/zxing_lib/zxing/common/Counted.h ****       delete this;
 2482              		.loc 3 42 0
 2483 01a4 01300FE3 		movw	r3, #61441
 2484 01a8 AD3E4DE3 		movt	r3, 57005
 2485 01ac 043080E5 		str	r3, [r0, #4]
  43:/home/zkmike/workspace/RZA2M/rza2m_2d_barcode_sample_freertos_gcc/src/zxing_lib/zxing/common/Counted.h ****     }
 2486              		.loc 3 43 0
 2487 01b0 003090E5 		ldr	r3, [r0]
 2488 01b4 043093E5 		ldr	r3, [r3, #4]
 2489 01b8 33FF2FE1 		blx	r3
 2490              	.LVL238:
 2491 01bc F4FFFFEA 		b	.L143
 2492              	.LVL239:
 2493              	.L227:
 2494              	.LBE1363:
 2495              	.LBE1364:
 2496              	.LBE1365:
 2497              	.LBE1366:
 2498              	.LBE1367:
 2499              	.LBE1368:
 2500              	.LBE1369:
 285:../src/zxing_lib/zxing/common/detector/WhiteRectangleDetector.cpp ****     Ref<ResultPoint> pointC(new ResultPoint(xi - CORR, xj - CORR));
 2501              		.loc 4 285 0
 2502 01c0 0050A0E1 		mov	r5, r0
 2503 01c4 003000E3 		movw	r3, #:lower16:.LANCHOR2
 2504 01c8 003040E3 		movt	r3, #:upper16:.LANCHOR2
 2505 01cc 000A93ED 		vldr.32	s0, [r3]	@ int
 2506 01d0 C00AB8EE 		vcvt.f32.s32	s0, s0
 2507 01d4 800A7AEE 		vadd.f32	s1, s21, s0
 2508 01d8 000A3AEE 		vadd.f32	s0, s20, s0
 2509              	.LEHB25:
 2510 01dc FEFFFFEB 		bl	_ZN5zxing11ResultPointC1Eff
 2511              	.LVL240:
 2512              	.LEHE25:
 2513              	.LBB1370:
 2514              	.LBB1371:
 2515              	.LBB1372:
  60:/home/zkmike/workspace/RZA2M/rza2m_2d_barcode_sample_freertos_gcc/src/zxing_lib/zxing/common/Counted.h ****     reset(o);
 2516              		.loc 3 60 0
 2517 01e0 0030A0E3 		mov	r3, #0
 2518 01e4 04308DE5 		str	r3, [sp, #4]
 2519              	.LVL241:
 2520              	.LBB1373:
 2521              	.LBB1374:
  81:/home/zkmike/workspace/RZA2M/rza2m_2d_barcode_sample_freertos_gcc/src/zxing_lib/zxing/common/Counted.h ****       o->retain();
 2522              		.loc 3 81 0
 2523 01e8 030055E1 		cmp	r5, r3
 2524              	.LVL242:
 2525              	.LBB1375:
 2526              	.LBB1376:
  36:/home/zkmike/workspace/RZA2M/rza2m_2d_barcode_sample_freertos_gcc/src/zxing_lib/zxing/common/Counted.h ****     return this;
 2527              		.loc 3 36 0
 2528 01ec 04309515 		ldrne	r3, [r5, #4]
 2529 01f0 01308312 		addne	r3, r3, #1
 2530 01f4 04308515 		strne	r3, [r5, #4]
 2531              	.LVL243:
 2532              	.L144:
 2533              	.LBE1376:
 2534              	.LBE1375:
  84:/home/zkmike/workspace/RZA2M/rza2m_2d_barcode_sample_freertos_gcc/src/zxing_lib/zxing/common/Counted.h ****       object_->release();
 2535              		.loc 3 84 0
 2536 01f8 04009DE5 		ldr	r0, [sp, #4]
 2537 01fc 000050E3 		cmp	r0, #0
 2538 0200 0400000A 		beq	.L145
 2539              	.LVL244:
 2540              	.LBB1377:
 2541              	.LBB1378:
  40:/home/zkmike/workspace/RZA2M/rza2m_2d_barcode_sample_freertos_gcc/src/zxing_lib/zxing/common/Counted.h ****     if (count_ == 0) {
 2542              		.loc 3 40 0
 2543 0204 043090E5 		ldr	r3, [r0, #4]
 2544 0208 013043E2 		sub	r3, r3, #1
 2545 020c 043080E5 		str	r3, [r0, #4]
  41:/home/zkmike/workspace/RZA2M/rza2m_2d_barcode_sample_freertos_gcc/src/zxing_lib/zxing/common/Counted.h ****       count_ = 0xDEADF001;
 2546              		.loc 3 41 0
 2547 0210 000053E3 		cmp	r3, #0
 2548 0214 0300000A 		beq	.L228
 2549              	.LVL245:
 2550              	.L145:
 2551              	.LBE1378:
 2552              	.LBE1377:
  87:/home/zkmike/workspace/RZA2M/rza2m_2d_barcode_sample_freertos_gcc/src/zxing_lib/zxing/common/Counted.h ****   }
 2553              		.loc 3 87 0
 2554 0218 04508DE5 		str	r5, [sp, #4]
 2555              	.LVL246:
 2556              	.LBE1374:
 2557              	.LBE1373:
 2558              	.LBE1372:
 2559              	.LBE1371:
 2560              	.LBE1370:
 286:../src/zxing_lib/zxing/common/detector/WhiteRectangleDetector.cpp ****     Ref<ResultPoint> pointD(new ResultPoint(yi + CORR, yj - CORR));
 2561              		.loc 4 286 0
 2562 021c 1000A0E3 		mov	r0, #16
 2563              	.LEHB26:
 2564 0220 FEFFFFEB 		bl	_Znwj
 2565              	.LVL247:
 2566              	.LEHE26:
 2567 0224 060000EA 		b	.L229
 2568              	.LVL248:
 2569              	.L228:
 2570              	.LBB1385:
 2571              	.LBB1384:
 2572              	.LBB1383:
 2573              	.LBB1382:
 2574              	.LBB1381:
 2575              	.LBB1380:
 2576              	.LBB1379:
  42:/home/zkmike/workspace/RZA2M/rza2m_2d_barcode_sample_freertos_gcc/src/zxing_lib/zxing/common/Counted.h ****       delete this;
 2577              		.loc 3 42 0
 2578 0228 01300FE3 		movw	r3, #61441
 2579 022c AD3E4DE3 		movt	r3, 57005
 2580 0230 043080E5 		str	r3, [r0, #4]
  43:/home/zkmike/workspace/RZA2M/rza2m_2d_barcode_sample_freertos_gcc/src/zxing_lib/zxing/common/Counted.h ****     }
 2581              		.loc 3 43 0
 2582 0234 003090E5 		ldr	r3, [r0]
 2583 0238 043093E5 		ldr	r3, [r3, #4]
 2584 023c 33FF2FE1 		blx	r3
 2585              	.LVL249:
 2586 0240 F4FFFFEA 		b	.L145
 2587              	.LVL250:
 2588              	.L229:
 2589              	.LBE1379:
 2590              	.LBE1380:
 2591              	.LBE1381:
 2592              	.LBE1382:
 2593              	.LBE1383:
 2594              	.LBE1384:
 2595              	.LBE1385:
 286:../src/zxing_lib/zxing/common/detector/WhiteRectangleDetector.cpp ****     Ref<ResultPoint> pointD(new ResultPoint(yi + CORR, yj - CORR));
 2596              		.loc 4 286 0
 2597 0244 0050A0E1 		mov	r5, r0
 2598 0248 003000E3 		movw	r3, #:lower16:.LANCHOR2
 2599 024c 003040E3 		movt	r3, #:upper16:.LANCHOR2
 2600 0250 000A93ED 		vldr.32	s0, [r3]	@ int
 2601 0254 C00AB8EE 		vcvt.f32.s32	s0, s0
 2602 0258 C00A79EE 		vsub.f32	s1, s19, s0
 2603 025c 400A39EE 		vsub.f32	s0, s18, s0
 2604              	.LEHB27:
 2605 0260 FEFFFFEB 		bl	_ZN5zxing11ResultPointC1Eff
 2606              	.LVL251:
 2607              	.LEHE27:
 2608              	.LBB1386:
 2609              	.LBB1387:
 2610              	.LBB1388:
  60:/home/zkmike/workspace/RZA2M/rza2m_2d_barcode_sample_freertos_gcc/src/zxing_lib/zxing/common/Counted.h ****     reset(o);
 2611              		.loc 3 60 0
 2612 0264 0030A0E3 		mov	r3, #0
 2613 0268 08308DE5 		str	r3, [sp, #8]
 2614              	.LVL252:
 2615              	.LBB1389:
 2616              	.LBB1390:
  81:/home/zkmike/workspace/RZA2M/rza2m_2d_barcode_sample_freertos_gcc/src/zxing_lib/zxing/common/Counted.h ****       o->retain();
 2617              		.loc 3 81 0
 2618 026c 030055E1 		cmp	r5, r3
 2619              	.LVL253:
 2620              	.LBB1391:
 2621              	.LBB1392:
  36:/home/zkmike/workspace/RZA2M/rza2m_2d_barcode_sample_freertos_gcc/src/zxing_lib/zxing/common/Counted.h ****     return this;
 2622              		.loc 3 36 0
 2623 0270 04309515 		ldrne	r3, [r5, #4]
 2624 0274 01308312 		addne	r3, r3, #1
 2625 0278 04308515 		strne	r3, [r5, #4]
 2626              	.LVL254:
 2627              	.L146:
 2628              	.LBE1392:
 2629              	.LBE1391:
  84:/home/zkmike/workspace/RZA2M/rza2m_2d_barcode_sample_freertos_gcc/src/zxing_lib/zxing/common/Counted.h ****       object_->release();
 2630              		.loc 3 84 0
 2631 027c 08009DE5 		ldr	r0, [sp, #8]
 2632 0280 000050E3 		cmp	r0, #0
 2633 0284 0400000A 		beq	.L147
 2634              	.LVL255:
 2635              	.LBB1393:
 2636              	.LBB1394:
  40:/home/zkmike/workspace/RZA2M/rza2m_2d_barcode_sample_freertos_gcc/src/zxing_lib/zxing/common/Counted.h ****     if (count_ == 0) {
 2637              		.loc 3 40 0
 2638 0288 043090E5 		ldr	r3, [r0, #4]
 2639 028c 013043E2 		sub	r3, r3, #1
 2640 0290 043080E5 		str	r3, [r0, #4]
  41:/home/zkmike/workspace/RZA2M/rza2m_2d_barcode_sample_freertos_gcc/src/zxing_lib/zxing/common/Counted.h ****       count_ = 0xDEADF001;
 2641              		.loc 3 41 0
 2642 0294 000053E3 		cmp	r3, #0
 2643 0298 0300000A 		beq	.L230
 2644              	.LVL256:
 2645              	.L147:
 2646              	.LBE1394:
 2647              	.LBE1393:
  87:/home/zkmike/workspace/RZA2M/rza2m_2d_barcode_sample_freertos_gcc/src/zxing_lib/zxing/common/Counted.h ****   }
 2648              		.loc 3 87 0
 2649 029c 08508DE5 		str	r5, [sp, #8]
 2650              	.LVL257:
 2651              	.LBE1390:
 2652              	.LBE1389:
 2653              	.LBE1388:
 2654              	.LBE1387:
 2655              	.LBE1386:
 287:../src/zxing_lib/zxing/common/detector/WhiteRectangleDetector.cpp **** 	  corners[0].reset(pointA);
 2656              		.loc 4 287 0
 2657 02a0 1000A0E3 		mov	r0, #16
 2658              	.LEHB28:
 2659 02a4 FEFFFFEB 		bl	_Znwj
 2660              	.LVL258:
 2661              	.LEHE28:
 2662 02a8 060000EA 		b	.L231
 2663              	.LVL259:
 2664              	.L230:
 2665              	.LBB1401:
 2666              	.LBB1400:
 2667              	.LBB1399:
 2668              	.LBB1398:
 2669              	.LBB1397:
 2670              	.LBB1396:
 2671              	.LBB1395:
  42:/home/zkmike/workspace/RZA2M/rza2m_2d_barcode_sample_freertos_gcc/src/zxing_lib/zxing/common/Counted.h ****       delete this;
 2672              		.loc 3 42 0
 2673 02ac 01300FE3 		movw	r3, #61441
 2674 02b0 AD3E4DE3 		movt	r3, 57005
 2675 02b4 043080E5 		str	r3, [r0, #4]
  43:/home/zkmike/workspace/RZA2M/rza2m_2d_barcode_sample_freertos_gcc/src/zxing_lib/zxing/common/Counted.h ****     }
 2676              		.loc 3 43 0
 2677 02b8 003090E5 		ldr	r3, [r0]
 2678 02bc 043093E5 		ldr	r3, [r3, #4]
 2679 02c0 33FF2FE1 		blx	r3
 2680              	.LVL260:
 2681 02c4 F4FFFFEA 		b	.L147
 2682              	.LVL261:
 2683              	.L231:
 2684              	.LBE1395:
 2685              	.LBE1396:
 2686              	.LBE1397:
 2687              	.LBE1398:
 2688              	.LBE1399:
 2689              	.LBE1400:
 2690              	.LBE1401:
 287:../src/zxing_lib/zxing/common/detector/WhiteRectangleDetector.cpp **** 	  corners[0].reset(pointA);
 2691              		.loc 4 287 0
 2692 02c8 0050A0E1 		mov	r5, r0
 2693 02cc 003000E3 		movw	r3, #:lower16:.LANCHOR2
 2694 02d0 003040E3 		movt	r3, #:upper16:.LANCHOR2
 2695 02d4 000A93ED 		vldr.32	s0, [r3]	@ int
 2696 02d8 C00AB8EE 		vcvt.f32.s32	s0, s0
 2697 02dc C00A78EE 		vsub.f32	s1, s17, s0
 2698 02e0 000A38EE 		vadd.f32	s0, s16, s0
 2699              	.LEHB29:
 2700 02e4 FEFFFFEB 		bl	_ZN5zxing11ResultPointC1Eff
 2701              	.LVL262:
 2702              	.LEHE29:
 2703              	.LBB1402:
 2704              	.LBB1403:
 2705              	.LBB1404:
  60:/home/zkmike/workspace/RZA2M/rza2m_2d_barcode_sample_freertos_gcc/src/zxing_lib/zxing/common/Counted.h ****     reset(o);
 2706              		.loc 3 60 0
 2707 02e8 0030A0E3 		mov	r3, #0
 2708 02ec 0C308DE5 		str	r3, [sp, #12]
 2709              	.LVL263:
 2710              	.LBB1405:
 2711              	.LBB1406:
  81:/home/zkmike/workspace/RZA2M/rza2m_2d_barcode_sample_freertos_gcc/src/zxing_lib/zxing/common/Counted.h ****       o->retain();
 2712              		.loc 3 81 0
 2713 02f0 030055E1 		cmp	r5, r3
 2714              	.LVL264:
 2715              	.LBB1407:
 2716              	.LBB1408:
  36:/home/zkmike/workspace/RZA2M/rza2m_2d_barcode_sample_freertos_gcc/src/zxing_lib/zxing/common/Counted.h ****     return this;
 2717              		.loc 3 36 0
 2718 02f4 04309515 		ldrne	r3, [r5, #4]
 2719 02f8 01308312 		addne	r3, r3, #1
 2720 02fc 04308515 		strne	r3, [r5, #4]
 2721              	.LVL265:
 2722              	.L148:
 2723              	.LBE1408:
 2724              	.LBE1407:
  84:/home/zkmike/workspace/RZA2M/rza2m_2d_barcode_sample_freertos_gcc/src/zxing_lib/zxing/common/Counted.h ****       object_->release();
 2725              		.loc 3 84 0
 2726 0300 0C009DE5 		ldr	r0, [sp, #12]
 2727 0304 000050E3 		cmp	r0, #0
 2728 0308 0400000A 		beq	.L149
 2729              	.LVL266:
 2730              	.LBB1409:
 2731              	.LBB1410:
  40:/home/zkmike/workspace/RZA2M/rza2m_2d_barcode_sample_freertos_gcc/src/zxing_lib/zxing/common/Counted.h ****     if (count_ == 0) {
 2732              		.loc 3 40 0
 2733 030c 043090E5 		ldr	r3, [r0, #4]
 2734 0310 013043E2 		sub	r3, r3, #1
 2735 0314 043080E5 		str	r3, [r0, #4]
  41:/home/zkmike/workspace/RZA2M/rza2m_2d_barcode_sample_freertos_gcc/src/zxing_lib/zxing/common/Counted.h ****       count_ = 0xDEADF001;
 2736              		.loc 3 41 0
 2737 0318 000053E3 		cmp	r3, #0
 2738 031c 6300000A 		beq	.L232
 2739              	.LVL267:
 2740              	.L149:
 2741              	.LBE1410:
 2742              	.LBE1409:
  87:/home/zkmike/workspace/RZA2M/rza2m_2d_barcode_sample_freertos_gcc/src/zxing_lib/zxing/common/Counted.h ****   }
 2743              		.loc 3 87 0
 2744 0320 0C508DE5 		str	r5, [sp, #12]
 2745              	.LVL268:
 2746              	.LBE1406:
 2747              	.LBE1405:
 2748              	.LBE1404:
 2749              	.LBE1403:
 2750              	.LBE1402:
 2751              	.LBB1417:
 2752              	.LBB1418:
 781:/home/zkmike/.local/share/renesas/e2_studio/toolchains/gcc_arm/gcc-arm-none-eabi-6-2017-q2-update/arm-none-eabi/include/c++/6.3.1/bits/stl_vector.h **** 
 2753              		.loc 11 781 0
 2754 0324 006094E5 		ldr	r6, [r4]
 2755              	.LVL269:
 2756              	.LBE1418:
 2757              	.LBE1417:
 2758              	.LBB1419:
 2759              	.LBB1420:
 113:/home/zkmike/workspace/RZA2M/rza2m_2d_barcode_sample_freertos_gcc/src/zxing_lib/zxing/common/Counted.h ****   }
 114:/home/zkmike/workspace/RZA2M/rza2m_2d_barcode_sample_freertos_gcc/src/zxing_lib/zxing/common/Counted.h ****   operator T*() const {
 115:/home/zkmike/workspace/RZA2M/rza2m_2d_barcode_sample_freertos_gcc/src/zxing_lib/zxing/common/Counted.h ****     return object_;
 2760              		.loc 3 115 0
 2761 0328 00509DE5 		ldr	r5, [sp]
 2762              	.LVL270:
 2763              	.LBE1420:
 2764              	.LBE1419:
 2765              	.LBB1421:
 2766              	.LBB1422:
  81:/home/zkmike/workspace/RZA2M/rza2m_2d_barcode_sample_freertos_gcc/src/zxing_lib/zxing/common/Counted.h ****       o->retain();
 2767              		.loc 3 81 0
 2768 032c 000055E3 		cmp	r5, #0
 2769              	.LVL271:
 2770              	.LBB1423:
 2771              	.LBB1424:
  36:/home/zkmike/workspace/RZA2M/rza2m_2d_barcode_sample_freertos_gcc/src/zxing_lib/zxing/common/Counted.h ****     return this;
 2772              		.loc 3 36 0
 2773 0330 04309515 		ldrne	r3, [r5, #4]
 2774 0334 01308312 		addne	r3, r3, #1
 2775 0338 04308515 		strne	r3, [r5, #4]
 2776              	.LVL272:
 2777              	.L150:
 2778              	.LBE1424:
 2779              	.LBE1423:
  84:/home/zkmike/workspace/RZA2M/rza2m_2d_barcode_sample_freertos_gcc/src/zxing_lib/zxing/common/Counted.h ****       object_->release();
 2780              		.loc 3 84 0
 2781 033c 000096E5 		ldr	r0, [r6]
 2782 0340 000050E3 		cmp	r0, #0
 2783 0344 0400000A 		beq	.L151
 2784              	.LVL273:
 2785              	.LBB1425:
 2786              	.LBB1426:
  40:/home/zkmike/workspace/RZA2M/rza2m_2d_barcode_sample_freertos_gcc/src/zxing_lib/zxing/common/Counted.h ****     if (count_ == 0) {
 2787              		.loc 3 40 0
 2788 0348 043090E5 		ldr	r3, [r0, #4]
 2789 034c 013043E2 		sub	r3, r3, #1
 2790 0350 043080E5 		str	r3, [r0, #4]
  41:/home/zkmike/workspace/RZA2M/rza2m_2d_barcode_sample_freertos_gcc/src/zxing_lib/zxing/common/Counted.h ****       count_ = 0xDEADF001;
 2791              		.loc 3 41 0
 2792 0354 000053E3 		cmp	r3, #0
 2793 0358 5B00000A 		beq	.L233
 2794              	.LVL274:
 2795              	.L151:
 2796              	.LBE1426:
 2797              	.LBE1425:
  87:/home/zkmike/workspace/RZA2M/rza2m_2d_barcode_sample_freertos_gcc/src/zxing_lib/zxing/common/Counted.h ****   }
 2798              		.loc 3 87 0
 2799 035c 005086E5 		str	r5, [r6]
 2800              	.LVL275:
 2801              	.LBE1422:
 2802              	.LBE1421:
 2803              	.LBB1430:
 2804              	.LBB1431:
 781:/home/zkmike/.local/share/renesas/e2_studio/toolchains/gcc_arm/gcc-arm-none-eabi-6-2017-q2-update/arm-none-eabi/include/c++/6.3.1/bits/stl_vector.h **** 
 2805              		.loc 11 781 0
 2806 0360 006094E5 		ldr	r6, [r4]
 2807              	.LVL276:
 2808              	.LBE1431:
 2809              	.LBE1430:
 2810              	.LBB1432:
 2811              	.LBB1433:
 2812              		.loc 3 115 0
 2813 0364 04509DE5 		ldr	r5, [sp, #4]
 2814              	.LVL277:
 2815              	.LBE1433:
 2816              	.LBE1432:
 2817              	.LBB1434:
 2818              	.LBB1435:
  81:/home/zkmike/workspace/RZA2M/rza2m_2d_barcode_sample_freertos_gcc/src/zxing_lib/zxing/common/Counted.h ****       o->retain();
 2819              		.loc 3 81 0
 2820 0368 000055E3 		cmp	r5, #0
 2821              	.LVL278:
 2822              	.LBB1436:
 2823              	.LBB1437:
  36:/home/zkmike/workspace/RZA2M/rza2m_2d_barcode_sample_freertos_gcc/src/zxing_lib/zxing/common/Counted.h ****     return this;
 2824              		.loc 3 36 0
 2825 036c 04309515 		ldrne	r3, [r5, #4]
 2826 0370 01308312 		addne	r3, r3, #1
 2827 0374 04308515 		strne	r3, [r5, #4]
 2828              	.LVL279:
 2829              	.L152:
 2830              	.LBE1437:
 2831              	.LBE1436:
  84:/home/zkmike/workspace/RZA2M/rza2m_2d_barcode_sample_freertos_gcc/src/zxing_lib/zxing/common/Counted.h ****       object_->release();
 2832              		.loc 3 84 0
 2833 0378 040096E5 		ldr	r0, [r6, #4]
 2834 037c 000050E3 		cmp	r0, #0
 2835 0380 0400000A 		beq	.L153
 2836              	.LVL280:
 2837              	.LBB1438:
 2838              	.LBB1439:
  40:/home/zkmike/workspace/RZA2M/rza2m_2d_barcode_sample_freertos_gcc/src/zxing_lib/zxing/common/Counted.h ****     if (count_ == 0) {
 2839              		.loc 3 40 0
 2840 0384 043090E5 		ldr	r3, [r0, #4]
 2841 0388 013043E2 		sub	r3, r3, #1
 2842 038c 043080E5 		str	r3, [r0, #4]
  41:/home/zkmike/workspace/RZA2M/rza2m_2d_barcode_sample_freertos_gcc/src/zxing_lib/zxing/common/Counted.h ****       count_ = 0xDEADF001;
 2843              		.loc 3 41 0
 2844 0390 000053E3 		cmp	r3, #0
 2845 0394 5300000A 		beq	.L234
 2846              	.LVL281:
 2847              	.L153:
 2848              	.LBE1439:
 2849              	.LBE1438:
  87:/home/zkmike/workspace/RZA2M/rza2m_2d_barcode_sample_freertos_gcc/src/zxing_lib/zxing/common/Counted.h ****   }
 2850              		.loc 3 87 0
 2851 0398 045086E5 		str	r5, [r6, #4]
 2852              	.LVL282:
 2853              	.LBE1435:
 2854              	.LBE1434:
 2855              	.LBB1443:
 2856              	.LBB1444:
 781:/home/zkmike/.local/share/renesas/e2_studio/toolchains/gcc_arm/gcc-arm-none-eabi-6-2017-q2-update/arm-none-eabi/include/c++/6.3.1/bits/stl_vector.h **** 
 2857              		.loc 11 781 0
 2858 039c 006094E5 		ldr	r6, [r4]
 2859              	.LVL283:
 2860              	.LBE1444:
 2861              	.LBE1443:
 2862              	.LBB1445:
 2863              	.LBB1446:
 2864              		.loc 3 115 0
 2865 03a0 08509DE5 		ldr	r5, [sp, #8]
 2866              	.LVL284:
 2867              	.LBE1446:
 2868              	.LBE1445:
 2869              	.LBB1447:
 2870              	.LBB1448:
  81:/home/zkmike/workspace/RZA2M/rza2m_2d_barcode_sample_freertos_gcc/src/zxing_lib/zxing/common/Counted.h ****       o->retain();
 2871              		.loc 3 81 0
 2872 03a4 000055E3 		cmp	r5, #0
 2873              	.LVL285:
 2874              	.LBB1449:
 2875              	.LBB1450:
  36:/home/zkmike/workspace/RZA2M/rza2m_2d_barcode_sample_freertos_gcc/src/zxing_lib/zxing/common/Counted.h ****     return this;
 2876              		.loc 3 36 0
 2877 03a8 04309515 		ldrne	r3, [r5, #4]
 2878 03ac 01308312 		addne	r3, r3, #1
 2879 03b0 04308515 		strne	r3, [r5, #4]
 2880              	.LVL286:
 2881              	.L154:
 2882              	.LBE1450:
 2883              	.LBE1449:
  84:/home/zkmike/workspace/RZA2M/rza2m_2d_barcode_sample_freertos_gcc/src/zxing_lib/zxing/common/Counted.h ****       object_->release();
 2884              		.loc 3 84 0
 2885 03b4 080096E5 		ldr	r0, [r6, #8]
 2886 03b8 000050E3 		cmp	r0, #0
 2887 03bc 0400000A 		beq	.L155
 2888              	.LVL287:
 2889              	.LBB1451:
 2890              	.LBB1452:
  40:/home/zkmike/workspace/RZA2M/rza2m_2d_barcode_sample_freertos_gcc/src/zxing_lib/zxing/common/Counted.h ****     if (count_ == 0) {
 2891              		.loc 3 40 0
 2892 03c0 043090E5 		ldr	r3, [r0, #4]
 2893 03c4 013043E2 		sub	r3, r3, #1
 2894 03c8 043080E5 		str	r3, [r0, #4]
  41:/home/zkmike/workspace/RZA2M/rza2m_2d_barcode_sample_freertos_gcc/src/zxing_lib/zxing/common/Counted.h ****       count_ = 0xDEADF001;
 2895              		.loc 3 41 0
 2896 03cc 000053E3 		cmp	r3, #0
 2897 03d0 4B00000A 		beq	.L235
 2898              	.LVL288:
 2899              	.L155:
 2900              	.LBE1452:
 2901              	.LBE1451:
  87:/home/zkmike/workspace/RZA2M/rza2m_2d_barcode_sample_freertos_gcc/src/zxing_lib/zxing/common/Counted.h ****   }
 2902              		.loc 3 87 0
 2903 03d4 085086E5 		str	r5, [r6, #8]
 2904              	.LVL289:
 2905              	.LBE1448:
 2906              	.LBE1447:
 2907              	.LBB1456:
 2908              	.LBB1457:
 781:/home/zkmike/.local/share/renesas/e2_studio/toolchains/gcc_arm/gcc-arm-none-eabi-6-2017-q2-update/arm-none-eabi/include/c++/6.3.1/bits/stl_vector.h **** 
 2909              		.loc 11 781 0
 2910 03d8 006094E5 		ldr	r6, [r4]
 2911              	.LVL290:
 2912              	.LBE1457:
 2913              	.LBE1456:
 2914              	.LBB1458:
 2915              	.LBB1459:
 2916              		.loc 3 115 0
 2917 03dc 0C509DE5 		ldr	r5, [sp, #12]
 2918              	.LVL291:
 2919              	.LBE1459:
 2920              	.LBE1458:
 2921              	.LBB1460:
 2922              	.LBB1461:
  81:/home/zkmike/workspace/RZA2M/rza2m_2d_barcode_sample_freertos_gcc/src/zxing_lib/zxing/common/Counted.h ****       o->retain();
 2923              		.loc 3 81 0
 2924 03e0 000055E3 		cmp	r5, #0
 2925              	.LVL292:
 2926              	.LBB1462:
 2927              	.LBB1463:
  36:/home/zkmike/workspace/RZA2M/rza2m_2d_barcode_sample_freertos_gcc/src/zxing_lib/zxing/common/Counted.h ****     return this;
 2928              		.loc 3 36 0
 2929 03e4 04309515 		ldrne	r3, [r5, #4]
 2930 03e8 01308312 		addne	r3, r3, #1
 2931 03ec 04308515 		strne	r3, [r5, #4]
 2932              	.LVL293:
 2933              	.L156:
 2934              	.LBE1463:
 2935              	.LBE1462:
  84:/home/zkmike/workspace/RZA2M/rza2m_2d_barcode_sample_freertos_gcc/src/zxing_lib/zxing/common/Counted.h ****       object_->release();
 2936              		.loc 3 84 0
 2937 03f0 0C0096E5 		ldr	r0, [r6, #12]
 2938 03f4 000050E3 		cmp	r0, #0
 2939 03f8 0400000A 		beq	.L157
 2940              	.LVL294:
 2941              	.LBB1464:
 2942              	.LBB1465:
  40:/home/zkmike/workspace/RZA2M/rza2m_2d_barcode_sample_freertos_gcc/src/zxing_lib/zxing/common/Counted.h ****     if (count_ == 0) {
 2943              		.loc 3 40 0
 2944 03fc 043090E5 		ldr	r3, [r0, #4]
 2945 0400 013043E2 		sub	r3, r3, #1
 2946 0404 043080E5 		str	r3, [r0, #4]
  41:/home/zkmike/workspace/RZA2M/rza2m_2d_barcode_sample_freertos_gcc/src/zxing_lib/zxing/common/Counted.h ****       count_ = 0xDEADF001;
 2947              		.loc 3 41 0
 2948 0408 000053E3 		cmp	r3, #0
 2949 040c 4300000A 		beq	.L236
 2950              	.LVL295:
 2951              	.L157:
 2952              	.LBE1465:
 2953              	.LBE1464:
  87:/home/zkmike/workspace/RZA2M/rza2m_2d_barcode_sample_freertos_gcc/src/zxing_lib/zxing/common/Counted.h ****   }
 2954              		.loc 3 87 0
 2955 0410 0C5086E5 		str	r5, [r6, #12]
 2956              	.LVL296:
 2957              	.LBE1461:
 2958              	.LBE1460:
 2959              	.LBB1469:
 2960              	.LBB1470:
  75:/home/zkmike/workspace/RZA2M/rza2m_2d_barcode_sample_freertos_gcc/src/zxing_lib/zxing/common/Counted.h ****       object_->release();
 2961              		.loc 3 75 0
 2962 0414 0C009DE5 		ldr	r0, [sp, #12]
 2963 0418 000050E3 		cmp	r0, #0
 2964 041c 0400000A 		beq	.L158
 2965              	.LVL297:
 2966              	.LBB1471:
 2967              	.LBB1472:
  40:/home/zkmike/workspace/RZA2M/rza2m_2d_barcode_sample_freertos_gcc/src/zxing_lib/zxing/common/Counted.h ****     if (count_ == 0) {
 2968              		.loc 3 40 0
 2969 0420 043090E5 		ldr	r3, [r0, #4]
 2970 0424 013043E2 		sub	r3, r3, #1
 2971 0428 043080E5 		str	r3, [r0, #4]
  41:/home/zkmike/workspace/RZA2M/rza2m_2d_barcode_sample_freertos_gcc/src/zxing_lib/zxing/common/Counted.h ****       count_ = 0xDEADF001;
 2972              		.loc 3 41 0
 2973 042c 000053E3 		cmp	r3, #0
 2974 0430 4100000A 		beq	.L237
 2975              	.LVL298:
 2976              	.L158:
 2977              	.LBE1472:
 2978              	.LBE1471:
 2979              	.LBE1470:
 2980              	.LBE1469:
 2981              	.LBB1476:
 2982              	.LBB1477:
  75:/home/zkmike/workspace/RZA2M/rza2m_2d_barcode_sample_freertos_gcc/src/zxing_lib/zxing/common/Counted.h ****       object_->release();
 2983              		.loc 3 75 0
 2984 0434 08009DE5 		ldr	r0, [sp, #8]
 2985 0438 000050E3 		cmp	r0, #0
 2986 043c 0400000A 		beq	.L159
 2987              	.LVL299:
 2988              	.LBB1478:
 2989              	.LBB1479:
  40:/home/zkmike/workspace/RZA2M/rza2m_2d_barcode_sample_freertos_gcc/src/zxing_lib/zxing/common/Counted.h ****     if (count_ == 0) {
 2990              		.loc 3 40 0
 2991 0440 043090E5 		ldr	r3, [r0, #4]
 2992 0444 013043E2 		sub	r3, r3, #1
 2993 0448 043080E5 		str	r3, [r0, #4]
  41:/home/zkmike/workspace/RZA2M/rza2m_2d_barcode_sample_freertos_gcc/src/zxing_lib/zxing/common/Counted.h ****       count_ = 0xDEADF001;
 2994              		.loc 3 41 0
 2995 044c 000053E3 		cmp	r3, #0
 2996 0450 4000000A 		beq	.L238
 2997              	.LVL300:
 2998              	.L159:
 2999              	.LBE1479:
 3000              	.LBE1478:
 3001              	.LBE1477:
 3002              	.LBE1476:
 3003              	.LBB1483:
 3004              	.LBB1484:
  75:/home/zkmike/workspace/RZA2M/rza2m_2d_barcode_sample_freertos_gcc/src/zxing_lib/zxing/common/Counted.h ****       object_->release();
 3005              		.loc 3 75 0
 3006 0454 04009DE5 		ldr	r0, [sp, #4]
 3007 0458 000050E3 		cmp	r0, #0
 3008 045c 0400000A 		beq	.L160
 3009              	.LVL301:
 3010              	.LBB1485:
 3011              	.LBB1486:
  40:/home/zkmike/workspace/RZA2M/rza2m_2d_barcode_sample_freertos_gcc/src/zxing_lib/zxing/common/Counted.h ****     if (count_ == 0) {
 3012              		.loc 3 40 0
 3013 0460 043090E5 		ldr	r3, [r0, #4]
 3014 0464 013043E2 		sub	r3, r3, #1
 3015 0468 043080E5 		str	r3, [r0, #4]
  41:/home/zkmike/workspace/RZA2M/rza2m_2d_barcode_sample_freertos_gcc/src/zxing_lib/zxing/common/Counted.h ****       count_ = 0xDEADF001;
 3016              		.loc 3 41 0
 3017 046c 000053E3 		cmp	r3, #0
 3018 0470 3F00000A 		beq	.L239
 3019              	.LVL302:
 3020              	.L160:
 3021              	.LBE1486:
 3022              	.LBE1485:
 3023              	.LBE1484:
 3024              	.LBE1483:
 3025              	.LBB1490:
 3026              	.LBB1491:
  75:/home/zkmike/workspace/RZA2M/rza2m_2d_barcode_sample_freertos_gcc/src/zxing_lib/zxing/common/Counted.h ****       object_->release();
 3027              		.loc 3 75 0
 3028 0474 00009DE5 		ldr	r0, [sp]
 3029 0478 000050E3 		cmp	r0, #0
 3030 047c 1B01000A 		beq	.L135
 3031              	.LVL303:
 3032              	.LBB1492:
 3033              	.LBB1493:
  40:/home/zkmike/workspace/RZA2M/rza2m_2d_barcode_sample_freertos_gcc/src/zxing_lib/zxing/common/Counted.h ****     if (count_ == 0) {
 3034              		.loc 3 40 0
 3035 0480 043090E5 		ldr	r3, [r0, #4]
 3036 0484 013043E2 		sub	r3, r3, #1
 3037 0488 043080E5 		str	r3, [r0, #4]
  41:/home/zkmike/workspace/RZA2M/rza2m_2d_barcode_sample_freertos_gcc/src/zxing_lib/zxing/common/Counted.h ****       count_ = 0xDEADF001;
 3038              		.loc 3 41 0
 3039 048c 000053E3 		cmp	r3, #0
 3040 0490 1601001A 		bne	.L135
  42:/home/zkmike/workspace/RZA2M/rza2m_2d_barcode_sample_freertos_gcc/src/zxing_lib/zxing/common/Counted.h ****       delete this;
 3041              		.loc 3 42 0
 3042 0494 01300FE3 		movw	r3, #61441
 3043 0498 AD3E4DE3 		movt	r3, 57005
 3044 049c 043080E5 		str	r3, [r0, #4]
  43:/home/zkmike/workspace/RZA2M/rza2m_2d_barcode_sample_freertos_gcc/src/zxing_lib/zxing/common/Counted.h ****     }
 3045              		.loc 3 43 0
 3046 04a0 003090E5 		ldr	r3, [r0]
 3047 04a4 043093E5 		ldr	r3, [r3, #4]
 3048 04a8 33FF2FE1 		blx	r3
 3049              	.LVL304:
 3050 04ac 0F0100EA 		b	.L135
 3051              	.LVL305:
 3052              	.L232:
 3053              	.LBE1493:
 3054              	.LBE1492:
 3055              	.LBE1491:
 3056              	.LBE1490:
 3057              	.LBB1494:
 3058              	.LBB1416:
 3059              	.LBB1415:
 3060              	.LBB1414:
 3061              	.LBB1413:
 3062              	.LBB1412:
 3063              	.LBB1411:
  42:/home/zkmike/workspace/RZA2M/rza2m_2d_barcode_sample_freertos_gcc/src/zxing_lib/zxing/common/Counted.h ****       delete this;
 3064              		.loc 3 42 0
 3065 04b0 01300FE3 		movw	r3, #61441
 3066 04b4 AD3E4DE3 		movt	r3, 57005
 3067 04b8 043080E5 		str	r3, [r0, #4]
  43:/home/zkmike/workspace/RZA2M/rza2m_2d_barcode_sample_freertos_gcc/src/zxing_lib/zxing/common/Counted.h ****     }
 3068              		.loc 3 43 0
 3069 04bc 003090E5 		ldr	r3, [r0]
 3070 04c0 043093E5 		ldr	r3, [r3, #4]
 3071 04c4 33FF2FE1 		blx	r3
 3072              	.LVL306:
 3073 04c8 94FFFFEA 		b	.L149
 3074              	.LVL307:
 3075              	.L233:
 3076              	.LBE1411:
 3077              	.LBE1412:
 3078              	.LBE1413:
 3079              	.LBE1414:
 3080              	.LBE1415:
 3081              	.LBE1416:
 3082              	.LBE1494:
 3083              	.LBB1495:
 3084              	.LBB1429:
 3085              	.LBB1428:
 3086              	.LBB1427:
  42:/home/zkmike/workspace/RZA2M/rza2m_2d_barcode_sample_freertos_gcc/src/zxing_lib/zxing/common/Counted.h ****       delete this;
 3087              		.loc 3 42 0
 3088 04cc 01300FE3 		movw	r3, #61441
 3089 04d0 AD3E4DE3 		movt	r3, 57005
 3090 04d4 043080E5 		str	r3, [r0, #4]
  43:/home/zkmike/workspace/RZA2M/rza2m_2d_barcode_sample_freertos_gcc/src/zxing_lib/zxing/common/Counted.h ****     }
 3091              		.loc 3 43 0
 3092 04d8 003090E5 		ldr	r3, [r0]
 3093 04dc 043093E5 		ldr	r3, [r3, #4]
 3094 04e0 33FF2FE1 		blx	r3
 3095              	.LVL308:
 3096 04e4 9CFFFFEA 		b	.L151
 3097              	.LVL309:
 3098              	.L234:
 3099              	.LBE1427:
 3100              	.LBE1428:
 3101              	.LBE1429:
 3102              	.LBE1495:
 3103              	.LBB1496:
 3104              	.LBB1442:
 3105              	.LBB1441:
 3106              	.LBB1440:
  42:/home/zkmike/workspace/RZA2M/rza2m_2d_barcode_sample_freertos_gcc/src/zxing_lib/zxing/common/Counted.h ****       delete this;
 3107              		.loc 3 42 0
 3108 04e8 01300FE3 		movw	r3, #61441
 3109 04ec AD3E4DE3 		movt	r3, 57005
 3110 04f0 043080E5 		str	r3, [r0, #4]
  43:/home/zkmike/workspace/RZA2M/rza2m_2d_barcode_sample_freertos_gcc/src/zxing_lib/zxing/common/Counted.h ****     }
 3111              		.loc 3 43 0
 3112 04f4 003090E5 		ldr	r3, [r0]
 3113 04f8 043093E5 		ldr	r3, [r3, #4]
 3114 04fc 33FF2FE1 		blx	r3
 3115              	.LVL310:
 3116 0500 A4FFFFEA 		b	.L153
 3117              	.LVL311:
 3118              	.L235:
 3119              	.LBE1440:
 3120              	.LBE1441:
 3121              	.LBE1442:
 3122              	.LBE1496:
 3123              	.LBB1497:
 3124              	.LBB1455:
 3125              	.LBB1454:
 3126              	.LBB1453:
  42:/home/zkmike/workspace/RZA2M/rza2m_2d_barcode_sample_freertos_gcc/src/zxing_lib/zxing/common/Counted.h ****       delete this;
 3127              		.loc 3 42 0
 3128 0504 01300FE3 		movw	r3, #61441
 3129 0508 AD3E4DE3 		movt	r3, 57005
 3130 050c 043080E5 		str	r3, [r0, #4]
  43:/home/zkmike/workspace/RZA2M/rza2m_2d_barcode_sample_freertos_gcc/src/zxing_lib/zxing/common/Counted.h ****     }
 3131              		.loc 3 43 0
 3132 0510 003090E5 		ldr	r3, [r0]
 3133 0514 043093E5 		ldr	r3, [r3, #4]
 3134 0518 33FF2FE1 		blx	r3
 3135              	.LVL312:
 3136 051c ACFFFFEA 		b	.L155
 3137              	.LVL313:
 3138              	.L236:
 3139              	.LBE1453:
 3140              	.LBE1454:
 3141              	.LBE1455:
 3142              	.LBE1497:
 3143              	.LBB1498:
 3144              	.LBB1468:
 3145              	.LBB1467:
 3146              	.LBB1466:
  42:/home/zkmike/workspace/RZA2M/rza2m_2d_barcode_sample_freertos_gcc/src/zxing_lib/zxing/common/Counted.h ****       delete this;
 3147              		.loc 3 42 0
 3148 0520 01300FE3 		movw	r3, #61441
 3149 0524 AD3E4DE3 		movt	r3, 57005
 3150 0528 043080E5 		str	r3, [r0, #4]
  43:/home/zkmike/workspace/RZA2M/rza2m_2d_barcode_sample_freertos_gcc/src/zxing_lib/zxing/common/Counted.h ****     }
 3151              		.loc 3 43 0
 3152 052c 003090E5 		ldr	r3, [r0]
 3153 0530 043093E5 		ldr	r3, [r3, #4]
 3154 0534 33FF2FE1 		blx	r3
 3155              	.LVL314:
 3156 0538 B4FFFFEA 		b	.L157
 3157              	.LVL315:
 3158              	.L237:
 3159              	.LBE1466:
 3160              	.LBE1467:
 3161              	.LBE1468:
 3162              	.LBE1498:
 3163              	.LBB1499:
 3164              	.LBB1475:
 3165              	.LBB1474:
 3166              	.LBB1473:
  42:/home/zkmike/workspace/RZA2M/rza2m_2d_barcode_sample_freertos_gcc/src/zxing_lib/zxing/common/Counted.h ****       delete this;
 3167              		.loc 3 42 0
 3168 053c 01300FE3 		movw	r3, #61441
 3169 0540 AD3E4DE3 		movt	r3, 57005
 3170 0544 043080E5 		str	r3, [r0, #4]
  43:/home/zkmike/workspace/RZA2M/rza2m_2d_barcode_sample_freertos_gcc/src/zxing_lib/zxing/common/Counted.h ****     }
 3171              		.loc 3 43 0
 3172 0548 003090E5 		ldr	r3, [r0]
 3173 054c 043093E5 		ldr	r3, [r3, #4]
 3174 0550 33FF2FE1 		blx	r3
 3175              	.LVL316:
 3176 0554 B6FFFFEA 		b	.L158
 3177              	.LVL317:
 3178              	.L238:
 3179              	.LBE1473:
 3180              	.LBE1474:
 3181              	.LBE1475:
 3182              	.LBE1499:
 3183              	.LBB1500:
 3184              	.LBB1482:
 3185              	.LBB1481:
 3186              	.LBB1480:
  42:/home/zkmike/workspace/RZA2M/rza2m_2d_barcode_sample_freertos_gcc/src/zxing_lib/zxing/common/Counted.h ****       delete this;
 3187              		.loc 3 42 0
 3188 0558 01300FE3 		movw	r3, #61441
 3189 055c AD3E4DE3 		movt	r3, 57005
 3190 0560 043080E5 		str	r3, [r0, #4]
  43:/home/zkmike/workspace/RZA2M/rza2m_2d_barcode_sample_freertos_gcc/src/zxing_lib/zxing/common/Counted.h ****     }
 3191              		.loc 3 43 0
 3192 0564 003090E5 		ldr	r3, [r0]
 3193 0568 043093E5 		ldr	r3, [r3, #4]
 3194 056c 33FF2FE1 		blx	r3
 3195              	.LVL318:
 3196 0570 B7FFFFEA 		b	.L159
 3197              	.LVL319:
 3198              	.L239:
 3199              	.LBE1480:
 3200              	.LBE1481:
 3201              	.LBE1482:
 3202              	.LBE1500:
 3203              	.LBB1501:
 3204              	.LBB1489:
 3205              	.LBB1488:
 3206              	.LBB1487:
  42:/home/zkmike/workspace/RZA2M/rza2m_2d_barcode_sample_freertos_gcc/src/zxing_lib/zxing/common/Counted.h ****       delete this;
 3207              		.loc 3 42 0
 3208 0574 01300FE3 		movw	r3, #61441
 3209 0578 AD3E4DE3 		movt	r3, 57005
 3210 057c 043080E5 		str	r3, [r0, #4]
  43:/home/zkmike/workspace/RZA2M/rza2m_2d_barcode_sample_freertos_gcc/src/zxing_lib/zxing/common/Counted.h ****     }
 3211              		.loc 3 43 0
 3212 0580 003090E5 		ldr	r3, [r0]
 3213 0584 043093E5 		ldr	r3, [r3, #4]
 3214 0588 33FF2FE1 		blx	r3
 3215              	.LVL320:
 3216 058c B8FFFFEA 		b	.L160
 3217              	.LVL321:
 3218              	.L224:
 3219              	.LBE1487:
 3220              	.LBE1488:
 3221              	.LBE1489:
 3222              	.LBE1501:
 3223              	.LBE1353:
 3224              	.LBB1514:
 293:../src/zxing_lib/zxing/common/detector/WhiteRectangleDetector.cpp ****     Ref<ResultPoint> pointB(new ResultPoint(zi + CORR, zj - CORR));
 3225              		.loc 4 293 0
 3226 0590 1000A0E3 		mov	r0, #16
 3227              	.LEHB30:
 3228 0594 FEFFFFEB 		bl	_Znwj
 3229              	.LVL322:
 3230              	.LEHE30:
 3231 0598 0050A0E1 		mov	r5, r0
 3232              	.LVL323:
 3233 059c 003000E3 		movw	r3, #:lower16:.LANCHOR2
 3234 05a0 003040E3 		movt	r3, #:upper16:.LANCHOR2
 3235 05a4 000A93ED 		vldr.32	s0, [r3]	@ int
 3236 05a8 C00AB8EE 		vcvt.f32.s32	s0, s0
 3237 05ac 800A7BEE 		vadd.f32	s1, s23, s0
 3238 05b0 000A3BEE 		vadd.f32	s0, s22, s0
 3239              	.LEHB31:
 3240 05b4 FEFFFFEB 		bl	_ZN5zxing11ResultPointC1Eff
 3241              	.LVL324:
 3242              	.LEHE31:
 3243              	.LBB1515:
 3244              	.LBB1516:
 3245              	.LBB1517:
  60:/home/zkmike/workspace/RZA2M/rza2m_2d_barcode_sample_freertos_gcc/src/zxing_lib/zxing/common/Counted.h ****     reset(o);
 3246              		.loc 3 60 0
 3247 05b8 0030A0E3 		mov	r3, #0
 3248 05bc 00308DE5 		str	r3, [sp]
 3249              	.LVL325:
 3250              	.LBB1518:
 3251              	.LBB1519:
  81:/home/zkmike/workspace/RZA2M/rza2m_2d_barcode_sample_freertos_gcc/src/zxing_lib/zxing/common/Counted.h ****       o->retain();
 3252              		.loc 3 81 0
 3253 05c0 030055E1 		cmp	r5, r3
 3254              	.LVL326:
 3255              	.LBB1520:
 3256              	.LBB1521:
  36:/home/zkmike/workspace/RZA2M/rza2m_2d_barcode_sample_freertos_gcc/src/zxing_lib/zxing/common/Counted.h ****     return this;
 3257              		.loc 3 36 0
 3258 05c4 04309515 		ldrne	r3, [r5, #4]
 3259 05c8 01308312 		addne	r3, r3, #1
 3260 05cc 04308515 		strne	r3, [r5, #4]
 3261              	.LVL327:
 3262              	.L163:
 3263              	.LBE1521:
 3264              	.LBE1520:
  84:/home/zkmike/workspace/RZA2M/rza2m_2d_barcode_sample_freertos_gcc/src/zxing_lib/zxing/common/Counted.h ****       object_->release();
 3265              		.loc 3 84 0
 3266 05d0 00009DE5 		ldr	r0, [sp]
 3267 05d4 000050E3 		cmp	r0, #0
 3268 05d8 0400000A 		beq	.L164
 3269              	.LVL328:
 3270              	.LBB1522:
 3271              	.LBB1523:
  40:/home/zkmike/workspace/RZA2M/rza2m_2d_barcode_sample_freertos_gcc/src/zxing_lib/zxing/common/Counted.h ****     if (count_ == 0) {
 3272              		.loc 3 40 0
 3273 05dc 043090E5 		ldr	r3, [r0, #4]
 3274 05e0 013043E2 		sub	r3, r3, #1
 3275 05e4 043080E5 		str	r3, [r0, #4]
  41:/home/zkmike/workspace/RZA2M/rza2m_2d_barcode_sample_freertos_gcc/src/zxing_lib/zxing/common/Counted.h ****       count_ = 0xDEADF001;
 3276              		.loc 3 41 0
 3277 05e8 000053E3 		cmp	r3, #0
 3278 05ec 0300000A 		beq	.L240
 3279              	.LVL329:
 3280              	.L164:
 3281              	.LBE1523:
 3282              	.LBE1522:
  87:/home/zkmike/workspace/RZA2M/rza2m_2d_barcode_sample_freertos_gcc/src/zxing_lib/zxing/common/Counted.h ****   }
 3283              		.loc 3 87 0
 3284 05f0 00508DE5 		str	r5, [sp]
 3285              	.LVL330:
 3286              	.LBE1519:
 3287              	.LBE1518:
 3288              	.LBE1517:
 3289              	.LBE1516:
 3290              	.LBE1515:
 294:../src/zxing_lib/zxing/common/detector/WhiteRectangleDetector.cpp ****     Ref<ResultPoint> pointC(new ResultPoint(xi - CORR, xj + CORR));
 3291              		.loc 4 294 0
 3292 05f4 1000A0E3 		mov	r0, #16
 3293              	.LEHB32:
 3294 05f8 FEFFFFEB 		bl	_Znwj
 3295              	.LVL331:
 3296              	.LEHE32:
 3297 05fc 060000EA 		b	.L241
 3298              	.LVL332:
 3299              	.L240:
 3300              	.LBB1530:
 3301              	.LBB1529:
 3302              	.LBB1528:
 3303              	.LBB1527:
 3304              	.LBB1526:
 3305              	.LBB1525:
 3306              	.LBB1524:
  42:/home/zkmike/workspace/RZA2M/rza2m_2d_barcode_sample_freertos_gcc/src/zxing_lib/zxing/common/Counted.h ****       delete this;
 3307              		.loc 3 42 0
 3308 0600 01300FE3 		movw	r3, #61441
 3309 0604 AD3E4DE3 		movt	r3, 57005
 3310 0608 043080E5 		str	r3, [r0, #4]
  43:/home/zkmike/workspace/RZA2M/rza2m_2d_barcode_sample_freertos_gcc/src/zxing_lib/zxing/common/Counted.h ****     }
 3311              		.loc 3 43 0
 3312 060c 003090E5 		ldr	r3, [r0]
 3313 0610 043093E5 		ldr	r3, [r3, #4]
 3314 0614 33FF2FE1 		blx	r3
 3315              	.LVL333:
 3316 0618 F4FFFFEA 		b	.L164
 3317              	.LVL334:
 3318              	.L241:
 3319              	.LBE1524:
 3320              	.LBE1525:
 3321              	.LBE1526:
 3322              	.LBE1527:
 3323              	.LBE1528:
 3324              	.LBE1529:
 3325              	.LBE1530:
 294:../src/zxing_lib/zxing/common/detector/WhiteRectangleDetector.cpp ****     Ref<ResultPoint> pointC(new ResultPoint(xi - CORR, xj + CORR));
 3326              		.loc 4 294 0
 3327 061c 0050A0E1 		mov	r5, r0
 3328 0620 003000E3 		movw	r3, #:lower16:.LANCHOR2
 3329 0624 003040E3 		movt	r3, #:upper16:.LANCHOR2
 3330 0628 000A93ED 		vldr.32	s0, [r3]	@ int
 3331 062c C00AB8EE 		vcvt.f32.s32	s0, s0
 3332 0630 C00A7AEE 		vsub.f32	s1, s21, s0
 3333 0634 000A3AEE 		vadd.f32	s0, s20, s0
 3334              	.LEHB33:
 3335 0638 FEFFFFEB 		bl	_ZN5zxing11ResultPointC1Eff
 3336              	.LVL335:
 3337              	.LEHE33:
 3338              	.LBB1531:
 3339              	.LBB1532:
 3340              	.LBB1533:
  60:/home/zkmike/workspace/RZA2M/rza2m_2d_barcode_sample_freertos_gcc/src/zxing_lib/zxing/common/Counted.h ****     reset(o);
 3341              		.loc 3 60 0
 3342 063c 0030A0E3 		mov	r3, #0
 3343 0640 04308DE5 		str	r3, [sp, #4]
 3344              	.LVL336:
 3345              	.LBB1534:
 3346              	.LBB1535:
  81:/home/zkmike/workspace/RZA2M/rza2m_2d_barcode_sample_freertos_gcc/src/zxing_lib/zxing/common/Counted.h ****       o->retain();
 3347              		.loc 3 81 0
 3348 0644 030055E1 		cmp	r5, r3
 3349              	.LVL337:
 3350              	.LBB1536:
 3351              	.LBB1537:
  36:/home/zkmike/workspace/RZA2M/rza2m_2d_barcode_sample_freertos_gcc/src/zxing_lib/zxing/common/Counted.h ****     return this;
 3352              		.loc 3 36 0
 3353 0648 04309515 		ldrne	r3, [r5, #4]
 3354 064c 01308312 		addne	r3, r3, #1
 3355 0650 04308515 		strne	r3, [r5, #4]
 3356              	.LVL338:
 3357              	.L165:
 3358              	.LBE1537:
 3359              	.LBE1536:
  84:/home/zkmike/workspace/RZA2M/rza2m_2d_barcode_sample_freertos_gcc/src/zxing_lib/zxing/common/Counted.h ****       object_->release();
 3360              		.loc 3 84 0
 3361 0654 04009DE5 		ldr	r0, [sp, #4]
 3362 0658 000050E3 		cmp	r0, #0
 3363 065c 0400000A 		beq	.L166
 3364              	.LVL339:
 3365              	.LBB1538:
 3366              	.LBB1539:
  40:/home/zkmike/workspace/RZA2M/rza2m_2d_barcode_sample_freertos_gcc/src/zxing_lib/zxing/common/Counted.h ****     if (count_ == 0) {
 3367              		.loc 3 40 0
 3368 0660 043090E5 		ldr	r3, [r0, #4]
 3369 0664 013043E2 		sub	r3, r3, #1
 3370 0668 043080E5 		str	r3, [r0, #4]
  41:/home/zkmike/workspace/RZA2M/rza2m_2d_barcode_sample_freertos_gcc/src/zxing_lib/zxing/common/Counted.h ****       count_ = 0xDEADF001;
 3371              		.loc 3 41 0
 3372 066c 000053E3 		cmp	r3, #0
 3373 0670 0300000A 		beq	.L242
 3374              	.LVL340:
 3375              	.L166:
 3376              	.LBE1539:
 3377              	.LBE1538:
  87:/home/zkmike/workspace/RZA2M/rza2m_2d_barcode_sample_freertos_gcc/src/zxing_lib/zxing/common/Counted.h ****   }
 3378              		.loc 3 87 0
 3379 0674 04508DE5 		str	r5, [sp, #4]
 3380              	.LVL341:
 3381              	.LBE1535:
 3382              	.LBE1534:
 3383              	.LBE1533:
 3384              	.LBE1532:
 3385              	.LBE1531:
 295:../src/zxing_lib/zxing/common/detector/WhiteRectangleDetector.cpp ****     Ref<ResultPoint> pointD(new ResultPoint(yi - CORR, yj - CORR));
 3386              		.loc 4 295 0
 3387 0678 1000A0E3 		mov	r0, #16
 3388              	.LEHB34:
 3389 067c FEFFFFEB 		bl	_Znwj
 3390              	.LVL342:
 3391              	.LEHE34:
 3392 0680 060000EA 		b	.L243
 3393              	.LVL343:
 3394              	.L242:
 3395              	.LBB1546:
 3396              	.LBB1545:
 3397              	.LBB1544:
 3398              	.LBB1543:
 3399              	.LBB1542:
 3400              	.LBB1541:
 3401              	.LBB1540:
  42:/home/zkmike/workspace/RZA2M/rza2m_2d_barcode_sample_freertos_gcc/src/zxing_lib/zxing/common/Counted.h ****       delete this;
 3402              		.loc 3 42 0
 3403 0684 01300FE3 		movw	r3, #61441
 3404 0688 AD3E4DE3 		movt	r3, 57005
 3405 068c 043080E5 		str	r3, [r0, #4]
  43:/home/zkmike/workspace/RZA2M/rza2m_2d_barcode_sample_freertos_gcc/src/zxing_lib/zxing/common/Counted.h ****     }
 3406              		.loc 3 43 0
 3407 0690 003090E5 		ldr	r3, [r0]
 3408 0694 043093E5 		ldr	r3, [r3, #4]
 3409 0698 33FF2FE1 		blx	r3
 3410              	.LVL344:
 3411 069c F4FFFFEA 		b	.L166
 3412              	.LVL345:
 3413              	.L243:
 3414              	.LBE1540:
 3415              	.LBE1541:
 3416              	.LBE1542:
 3417              	.LBE1543:
 3418              	.LBE1544:
 3419              	.LBE1545:
 3420              	.LBE1546:
 295:../src/zxing_lib/zxing/common/detector/WhiteRectangleDetector.cpp ****     Ref<ResultPoint> pointD(new ResultPoint(yi - CORR, yj - CORR));
 3421              		.loc 4 295 0
 3422 06a0 0050A0E1 		mov	r5, r0
 3423 06a4 003000E3 		movw	r3, #:lower16:.LANCHOR2
 3424 06a8 003040E3 		movt	r3, #:upper16:.LANCHOR2
 3425 06ac 000A93ED 		vldr.32	s0, [r3]	@ int
 3426 06b0 C00AB8EE 		vcvt.f32.s32	s0, s0
 3427 06b4 800A79EE 		vadd.f32	s1, s19, s0
 3428 06b8 400A39EE 		vsub.f32	s0, s18, s0
 3429              	.LEHB35:
 3430 06bc FEFFFFEB 		bl	_ZN5zxing11ResultPointC1Eff
 3431              	.LVL346:
 3432              	.LEHE35:
 3433              	.LBB1547:
 3434              	.LBB1548:
 3435              	.LBB1549:
  60:/home/zkmike/workspace/RZA2M/rza2m_2d_barcode_sample_freertos_gcc/src/zxing_lib/zxing/common/Counted.h ****     reset(o);
 3436              		.loc 3 60 0
 3437 06c0 0030A0E3 		mov	r3, #0
 3438 06c4 08308DE5 		str	r3, [sp, #8]
 3439              	.LVL347:
 3440              	.LBB1550:
 3441              	.LBB1551:
  81:/home/zkmike/workspace/RZA2M/rza2m_2d_barcode_sample_freertos_gcc/src/zxing_lib/zxing/common/Counted.h ****       o->retain();
 3442              		.loc 3 81 0
 3443 06c8 030055E1 		cmp	r5, r3
 3444              	.LVL348:
 3445              	.LBB1552:
 3446              	.LBB1553:
  36:/home/zkmike/workspace/RZA2M/rza2m_2d_barcode_sample_freertos_gcc/src/zxing_lib/zxing/common/Counted.h ****     return this;
 3447              		.loc 3 36 0
 3448 06cc 04309515 		ldrne	r3, [r5, #4]
 3449 06d0 01308312 		addne	r3, r3, #1
 3450 06d4 04308515 		strne	r3, [r5, #4]
 3451              	.LVL349:
 3452              	.L167:
 3453              	.LBE1553:
 3454              	.LBE1552:
  84:/home/zkmike/workspace/RZA2M/rza2m_2d_barcode_sample_freertos_gcc/src/zxing_lib/zxing/common/Counted.h ****       object_->release();
 3455              		.loc 3 84 0
 3456 06d8 08009DE5 		ldr	r0, [sp, #8]
 3457 06dc 000050E3 		cmp	r0, #0
 3458 06e0 0400000A 		beq	.L168
 3459              	.LVL350:
 3460              	.LBB1554:
 3461              	.LBB1555:
  40:/home/zkmike/workspace/RZA2M/rza2m_2d_barcode_sample_freertos_gcc/src/zxing_lib/zxing/common/Counted.h ****     if (count_ == 0) {
 3462              		.loc 3 40 0
 3463 06e4 043090E5 		ldr	r3, [r0, #4]
 3464 06e8 013043E2 		sub	r3, r3, #1
 3465 06ec 043080E5 		str	r3, [r0, #4]
  41:/home/zkmike/workspace/RZA2M/rza2m_2d_barcode_sample_freertos_gcc/src/zxing_lib/zxing/common/Counted.h ****       count_ = 0xDEADF001;
 3466              		.loc 3 41 0
 3467 06f0 000053E3 		cmp	r3, #0
 3468 06f4 0300000A 		beq	.L244
 3469              	.LVL351:
 3470              	.L168:
 3471              	.LBE1555:
 3472              	.LBE1554:
  87:/home/zkmike/workspace/RZA2M/rza2m_2d_barcode_sample_freertos_gcc/src/zxing_lib/zxing/common/Counted.h ****   }
 3473              		.loc 3 87 0
 3474 06f8 08508DE5 		str	r5, [sp, #8]
 3475              	.LVL352:
 3476              	.LBE1551:
 3477              	.LBE1550:
 3478              	.LBE1549:
 3479              	.LBE1548:
 3480              	.LBE1547:
 296:../src/zxing_lib/zxing/common/detector/WhiteRectangleDetector.cpp **** 	  corners[0].reset(pointA);
 3481              		.loc 4 296 0
 3482 06fc 1000A0E3 		mov	r0, #16
 3483              	.LEHB36:
 3484 0700 FEFFFFEB 		bl	_Znwj
 3485              	.LVL353:
 3486              	.LEHE36:
 3487 0704 060000EA 		b	.L245
 3488              	.LVL354:
 3489              	.L244:
 3490              	.LBB1562:
 3491              	.LBB1561:
 3492              	.LBB1560:
 3493              	.LBB1559:
 3494              	.LBB1558:
 3495              	.LBB1557:
 3496              	.LBB1556:
  42:/home/zkmike/workspace/RZA2M/rza2m_2d_barcode_sample_freertos_gcc/src/zxing_lib/zxing/common/Counted.h ****       delete this;
 3497              		.loc 3 42 0
 3498 0708 01300FE3 		movw	r3, #61441
 3499 070c AD3E4DE3 		movt	r3, 57005
 3500 0710 043080E5 		str	r3, [r0, #4]
  43:/home/zkmike/workspace/RZA2M/rza2m_2d_barcode_sample_freertos_gcc/src/zxing_lib/zxing/common/Counted.h ****     }
 3501              		.loc 3 43 0
 3502 0714 003090E5 		ldr	r3, [r0]
 3503 0718 043093E5 		ldr	r3, [r3, #4]
 3504 071c 33FF2FE1 		blx	r3
 3505              	.LVL355:
 3506 0720 F4FFFFEA 		b	.L168
 3507              	.LVL356:
 3508              	.L245:
 3509              	.LBE1556:
 3510              	.LBE1557:
 3511              	.LBE1558:
 3512              	.LBE1559:
 3513              	.LBE1560:
 3514              	.LBE1561:
 3515              	.LBE1562:
 296:../src/zxing_lib/zxing/common/detector/WhiteRectangleDetector.cpp **** 	  corners[0].reset(pointA);
 3516              		.loc 4 296 0
 3517 0724 0050A0E1 		mov	r5, r0
 3518 0728 003000E3 		movw	r3, #:lower16:.LANCHOR2
 3519 072c 003040E3 		movt	r3, #:upper16:.LANCHOR2
 3520 0730 000A93ED 		vldr.32	s0, [r3]	@ int
 3521 0734 C00AB8EE 		vcvt.f32.s32	s0, s0
 3522 0738 C00A78EE 		vsub.f32	s1, s17, s0
 3523 073c 400A38EE 		vsub.f32	s0, s16, s0
 3524              	.LEHB37:
 3525 0740 FEFFFFEB 		bl	_ZN5zxing11ResultPointC1Eff
 3526              	.LVL357:
 3527              	.LEHE37:
 3528              	.LBB1563:
 3529              	.LBB1564:
 3530              	.LBB1565:
  60:/home/zkmike/workspace/RZA2M/rza2m_2d_barcode_sample_freertos_gcc/src/zxing_lib/zxing/common/Counted.h ****     reset(o);
 3531              		.loc 3 60 0
 3532 0744 0030A0E3 		mov	r3, #0
 3533 0748 0C308DE5 		str	r3, [sp, #12]
 3534              	.LVL358:
 3535              	.LBB1566:
 3536              	.LBB1567:
  81:/home/zkmike/workspace/RZA2M/rza2m_2d_barcode_sample_freertos_gcc/src/zxing_lib/zxing/common/Counted.h ****       o->retain();
 3537              		.loc 3 81 0
 3538 074c 030055E1 		cmp	r5, r3
 3539              	.LVL359:
 3540              	.LBB1568:
 3541              	.LBB1569:
  36:/home/zkmike/workspace/RZA2M/rza2m_2d_barcode_sample_freertos_gcc/src/zxing_lib/zxing/common/Counted.h ****     return this;
 3542              		.loc 3 36 0
 3543 0750 04309515 		ldrne	r3, [r5, #4]
 3544 0754 01308312 		addne	r3, r3, #1
 3545 0758 04308515 		strne	r3, [r5, #4]
 3546              	.LVL360:
 3547              	.L169:
 3548              	.LBE1569:
 3549              	.LBE1568:
  84:/home/zkmike/workspace/RZA2M/rza2m_2d_barcode_sample_freertos_gcc/src/zxing_lib/zxing/common/Counted.h ****       object_->release();
 3550              		.loc 3 84 0
 3551 075c 0C009DE5 		ldr	r0, [sp, #12]
 3552 0760 000050E3 		cmp	r0, #0
 3553 0764 0400000A 		beq	.L170
 3554              	.LVL361:
 3555              	.LBB1570:
 3556              	.LBB1571:
  40:/home/zkmike/workspace/RZA2M/rza2m_2d_barcode_sample_freertos_gcc/src/zxing_lib/zxing/common/Counted.h ****     if (count_ == 0) {
 3557              		.loc 3 40 0
 3558 0768 043090E5 		ldr	r3, [r0, #4]
 3559 076c 013043E2 		sub	r3, r3, #1
 3560 0770 043080E5 		str	r3, [r0, #4]
  41:/home/zkmike/workspace/RZA2M/rza2m_2d_barcode_sample_freertos_gcc/src/zxing_lib/zxing/common/Counted.h ****       count_ = 0xDEADF001;
 3561              		.loc 3 41 0
 3562 0774 000053E3 		cmp	r3, #0
 3563 0778 6000000A 		beq	.L246
 3564              	.LVL362:
 3565              	.L170:
 3566              	.LBE1571:
 3567              	.LBE1570:
  87:/home/zkmike/workspace/RZA2M/rza2m_2d_barcode_sample_freertos_gcc/src/zxing_lib/zxing/common/Counted.h ****   }
 3568              		.loc 3 87 0
 3569 077c 0C508DE5 		str	r5, [sp, #12]
 3570              	.LVL363:
 3571              	.LBE1567:
 3572              	.LBE1566:
 3573              	.LBE1565:
 3574              	.LBE1564:
 3575              	.LBE1563:
 3576              	.LBB1578:
 3577              	.LBB1579:
 781:/home/zkmike/.local/share/renesas/e2_studio/toolchains/gcc_arm/gcc-arm-none-eabi-6-2017-q2-update/arm-none-eabi/include/c++/6.3.1/bits/stl_vector.h **** 
 3578              		.loc 11 781 0
 3579 0780 006094E5 		ldr	r6, [r4]
 3580              	.LVL364:
 3581              	.LBE1579:
 3582              	.LBE1578:
 3583              	.LBB1580:
 3584              	.LBB1581:
 3585              		.loc 3 115 0
 3586 0784 00509DE5 		ldr	r5, [sp]
 3587              	.LVL365:
 3588              	.LBE1581:
 3589              	.LBE1580:
 3590              	.LBB1582:
 3591              	.LBB1583:
  81:/home/zkmike/workspace/RZA2M/rza2m_2d_barcode_sample_freertos_gcc/src/zxing_lib/zxing/common/Counted.h ****       o->retain();
 3592              		.loc 3 81 0
 3593 0788 000055E3 		cmp	r5, #0
 3594              	.LVL366:
 3595              	.LBB1584:
 3596              	.LBB1585:
  36:/home/zkmike/workspace/RZA2M/rza2m_2d_barcode_sample_freertos_gcc/src/zxing_lib/zxing/common/Counted.h ****     return this;
 3597              		.loc 3 36 0
 3598 078c 04309515 		ldrne	r3, [r5, #4]
 3599 0790 01308312 		addne	r3, r3, #1
 3600 0794 04308515 		strne	r3, [r5, #4]
 3601              	.LVL367:
 3602              	.L171:
 3603              	.LBE1585:
 3604              	.LBE1584:
  84:/home/zkmike/workspace/RZA2M/rza2m_2d_barcode_sample_freertos_gcc/src/zxing_lib/zxing/common/Counted.h ****       object_->release();
 3605              		.loc 3 84 0
 3606 0798 000096E5 		ldr	r0, [r6]
 3607 079c 000050E3 		cmp	r0, #0
 3608 07a0 0400000A 		beq	.L172
 3609              	.LVL368:
 3610              	.LBB1586:
 3611              	.LBB1587:
  40:/home/zkmike/workspace/RZA2M/rza2m_2d_barcode_sample_freertos_gcc/src/zxing_lib/zxing/common/Counted.h ****     if (count_ == 0) {
 3612              		.loc 3 40 0
 3613 07a4 043090E5 		ldr	r3, [r0, #4]
 3614 07a8 013043E2 		sub	r3, r3, #1
 3615 07ac 043080E5 		str	r3, [r0, #4]
  41:/home/zkmike/workspace/RZA2M/rza2m_2d_barcode_sample_freertos_gcc/src/zxing_lib/zxing/common/Counted.h ****       count_ = 0xDEADF001;
 3616              		.loc 3 41 0
 3617 07b0 000053E3 		cmp	r3, #0
 3618 07b4 5800000A 		beq	.L247
 3619              	.LVL369:
 3620              	.L172:
 3621              	.LBE1587:
 3622              	.LBE1586:
  87:/home/zkmike/workspace/RZA2M/rza2m_2d_barcode_sample_freertos_gcc/src/zxing_lib/zxing/common/Counted.h ****   }
 3623              		.loc 3 87 0
 3624 07b8 005086E5 		str	r5, [r6]
 3625              	.LVL370:
 3626              	.LBE1583:
 3627              	.LBE1582:
 3628              	.LBB1591:
 3629              	.LBB1592:
 781:/home/zkmike/.local/share/renesas/e2_studio/toolchains/gcc_arm/gcc-arm-none-eabi-6-2017-q2-update/arm-none-eabi/include/c++/6.3.1/bits/stl_vector.h **** 
 3630              		.loc 11 781 0
 3631 07bc 006094E5 		ldr	r6, [r4]
 3632              	.LVL371:
 3633              	.LBE1592:
 3634              	.LBE1591:
 3635              	.LBB1593:
 3636              	.LBB1594:
 3637              		.loc 3 115 0
 3638 07c0 04509DE5 		ldr	r5, [sp, #4]
 3639              	.LVL372:
 3640              	.LBE1594:
 3641              	.LBE1593:
 3642              	.LBB1595:
 3643              	.LBB1596:
  81:/home/zkmike/workspace/RZA2M/rza2m_2d_barcode_sample_freertos_gcc/src/zxing_lib/zxing/common/Counted.h ****       o->retain();
 3644              		.loc 3 81 0
 3645 07c4 000055E3 		cmp	r5, #0
 3646              	.LVL373:
 3647              	.LBB1597:
 3648              	.LBB1598:
  36:/home/zkmike/workspace/RZA2M/rza2m_2d_barcode_sample_freertos_gcc/src/zxing_lib/zxing/common/Counted.h ****     return this;
 3649              		.loc 3 36 0
 3650 07c8 04309515 		ldrne	r3, [r5, #4]
 3651 07cc 01308312 		addne	r3, r3, #1
 3652 07d0 04308515 		strne	r3, [r5, #4]
 3653              	.LVL374:
 3654              	.L173:
 3655              	.LBE1598:
 3656              	.LBE1597:
  84:/home/zkmike/workspace/RZA2M/rza2m_2d_barcode_sample_freertos_gcc/src/zxing_lib/zxing/common/Counted.h ****       object_->release();
 3657              		.loc 3 84 0
 3658 07d4 040096E5 		ldr	r0, [r6, #4]
 3659 07d8 000050E3 		cmp	r0, #0
 3660 07dc 0400000A 		beq	.L174
 3661              	.LVL375:
 3662              	.LBB1599:
 3663              	.LBB1600:
  40:/home/zkmike/workspace/RZA2M/rza2m_2d_barcode_sample_freertos_gcc/src/zxing_lib/zxing/common/Counted.h ****     if (count_ == 0) {
 3664              		.loc 3 40 0
 3665 07e0 043090E5 		ldr	r3, [r0, #4]
 3666 07e4 013043E2 		sub	r3, r3, #1
 3667 07e8 043080E5 		str	r3, [r0, #4]
  41:/home/zkmike/workspace/RZA2M/rza2m_2d_barcode_sample_freertos_gcc/src/zxing_lib/zxing/common/Counted.h ****       count_ = 0xDEADF001;
 3668              		.loc 3 41 0
 3669 07ec 000053E3 		cmp	r3, #0
 3670 07f0 5000000A 		beq	.L248
 3671              	.LVL376:
 3672              	.L174:
 3673              	.LBE1600:
 3674              	.LBE1599:
  87:/home/zkmike/workspace/RZA2M/rza2m_2d_barcode_sample_freertos_gcc/src/zxing_lib/zxing/common/Counted.h ****   }
 3675              		.loc 3 87 0
 3676 07f4 045086E5 		str	r5, [r6, #4]
 3677              	.LVL377:
 3678              	.LBE1596:
 3679              	.LBE1595:
 3680              	.LBB1604:
 3681              	.LBB1605:
 781:/home/zkmike/.local/share/renesas/e2_studio/toolchains/gcc_arm/gcc-arm-none-eabi-6-2017-q2-update/arm-none-eabi/include/c++/6.3.1/bits/stl_vector.h **** 
 3682              		.loc 11 781 0
 3683 07f8 006094E5 		ldr	r6, [r4]
 3684              	.LVL378:
 3685              	.LBE1605:
 3686              	.LBE1604:
 3687              	.LBB1606:
 3688              	.LBB1607:
 3689              		.loc 3 115 0
 3690 07fc 08509DE5 		ldr	r5, [sp, #8]
 3691              	.LVL379:
 3692              	.LBE1607:
 3693              	.LBE1606:
 3694              	.LBB1608:
 3695              	.LBB1609:
  81:/home/zkmike/workspace/RZA2M/rza2m_2d_barcode_sample_freertos_gcc/src/zxing_lib/zxing/common/Counted.h ****       o->retain();
 3696              		.loc 3 81 0
 3697 0800 000055E3 		cmp	r5, #0
 3698              	.LVL380:
 3699              	.LBB1610:
 3700              	.LBB1611:
  36:/home/zkmike/workspace/RZA2M/rza2m_2d_barcode_sample_freertos_gcc/src/zxing_lib/zxing/common/Counted.h ****     return this;
 3701              		.loc 3 36 0
 3702 0804 04309515 		ldrne	r3, [r5, #4]
 3703 0808 01308312 		addne	r3, r3, #1
 3704 080c 04308515 		strne	r3, [r5, #4]
 3705              	.LVL381:
 3706              	.L175:
 3707              	.LBE1611:
 3708              	.LBE1610:
  84:/home/zkmike/workspace/RZA2M/rza2m_2d_barcode_sample_freertos_gcc/src/zxing_lib/zxing/common/Counted.h ****       object_->release();
 3709              		.loc 3 84 0
 3710 0810 080096E5 		ldr	r0, [r6, #8]
 3711 0814 000050E3 		cmp	r0, #0
 3712 0818 0400000A 		beq	.L176
 3713              	.LVL382:
 3714              	.LBB1612:
 3715              	.LBB1613:
  40:/home/zkmike/workspace/RZA2M/rza2m_2d_barcode_sample_freertos_gcc/src/zxing_lib/zxing/common/Counted.h ****     if (count_ == 0) {
 3716              		.loc 3 40 0
 3717 081c 043090E5 		ldr	r3, [r0, #4]
 3718 0820 013043E2 		sub	r3, r3, #1
 3719 0824 043080E5 		str	r3, [r0, #4]
  41:/home/zkmike/workspace/RZA2M/rza2m_2d_barcode_sample_freertos_gcc/src/zxing_lib/zxing/common/Counted.h ****       count_ = 0xDEADF001;
 3720              		.loc 3 41 0
 3721 0828 000053E3 		cmp	r3, #0
 3722 082c 4800000A 		beq	.L249
 3723              	.LVL383:
 3724              	.L176:
 3725              	.LBE1613:
 3726              	.LBE1612:
  87:/home/zkmike/workspace/RZA2M/rza2m_2d_barcode_sample_freertos_gcc/src/zxing_lib/zxing/common/Counted.h ****   }
 3727              		.loc 3 87 0
 3728 0830 085086E5 		str	r5, [r6, #8]
 3729              	.LVL384:
 3730              	.LBE1609:
 3731              	.LBE1608:
 3732              	.LBB1617:
 3733              	.LBB1618:
 781:/home/zkmike/.local/share/renesas/e2_studio/toolchains/gcc_arm/gcc-arm-none-eabi-6-2017-q2-update/arm-none-eabi/include/c++/6.3.1/bits/stl_vector.h **** 
 3734              		.loc 11 781 0
 3735 0834 006094E5 		ldr	r6, [r4]
 3736              	.LVL385:
 3737              	.LBE1618:
 3738              	.LBE1617:
 3739              	.LBB1619:
 3740              	.LBB1620:
 3741              		.loc 3 115 0
 3742 0838 0C509DE5 		ldr	r5, [sp, #12]
 3743              	.LVL386:
 3744              	.LBE1620:
 3745              	.LBE1619:
 3746              	.LBB1621:
 3747              	.LBB1622:
  81:/home/zkmike/workspace/RZA2M/rza2m_2d_barcode_sample_freertos_gcc/src/zxing_lib/zxing/common/Counted.h ****       o->retain();
 3748              		.loc 3 81 0
 3749 083c 000055E3 		cmp	r5, #0
 3750              	.LVL387:
 3751              	.LBB1623:
 3752              	.LBB1624:
  36:/home/zkmike/workspace/RZA2M/rza2m_2d_barcode_sample_freertos_gcc/src/zxing_lib/zxing/common/Counted.h ****     return this;
 3753              		.loc 3 36 0
 3754 0840 04309515 		ldrne	r3, [r5, #4]
 3755 0844 01308312 		addne	r3, r3, #1
 3756 0848 04308515 		strne	r3, [r5, #4]
 3757              	.LVL388:
 3758              	.L177:
 3759              	.LBE1624:
 3760              	.LBE1623:
  84:/home/zkmike/workspace/RZA2M/rza2m_2d_barcode_sample_freertos_gcc/src/zxing_lib/zxing/common/Counted.h ****       object_->release();
 3761              		.loc 3 84 0
 3762 084c 0C0096E5 		ldr	r0, [r6, #12]
 3763 0850 000050E3 		cmp	r0, #0
 3764 0854 0400000A 		beq	.L178
 3765              	.LVL389:
 3766              	.LBB1625:
 3767              	.LBB1626:
  40:/home/zkmike/workspace/RZA2M/rza2m_2d_barcode_sample_freertos_gcc/src/zxing_lib/zxing/common/Counted.h ****     if (count_ == 0) {
 3768              		.loc 3 40 0
 3769 0858 043090E5 		ldr	r3, [r0, #4]
 3770 085c 013043E2 		sub	r3, r3, #1
 3771 0860 043080E5 		str	r3, [r0, #4]
  41:/home/zkmike/workspace/RZA2M/rza2m_2d_barcode_sample_freertos_gcc/src/zxing_lib/zxing/common/Counted.h ****       count_ = 0xDEADF001;
 3772              		.loc 3 41 0
 3773 0864 000053E3 		cmp	r3, #0
 3774 0868 4000000A 		beq	.L250
 3775              	.LVL390:
 3776              	.L178:
 3777              	.LBE1626:
 3778              	.LBE1625:
  87:/home/zkmike/workspace/RZA2M/rza2m_2d_barcode_sample_freertos_gcc/src/zxing_lib/zxing/common/Counted.h ****   }
 3779              		.loc 3 87 0
 3780 086c 0C5086E5 		str	r5, [r6, #12]
 3781              	.LVL391:
 3782              	.LBE1622:
 3783              	.LBE1621:
 3784              	.LBB1630:
 3785              	.LBB1631:
  75:/home/zkmike/workspace/RZA2M/rza2m_2d_barcode_sample_freertos_gcc/src/zxing_lib/zxing/common/Counted.h ****       object_->release();
 3786              		.loc 3 75 0
 3787 0870 0C009DE5 		ldr	r0, [sp, #12]
 3788 0874 000050E3 		cmp	r0, #0
 3789 0878 0400000A 		beq	.L179
 3790              	.LVL392:
 3791              	.LBB1632:
 3792              	.LBB1633:
  40:/home/zkmike/workspace/RZA2M/rza2m_2d_barcode_sample_freertos_gcc/src/zxing_lib/zxing/common/Counted.h ****     if (count_ == 0) {
 3793              		.loc 3 40 0
 3794 087c 043090E5 		ldr	r3, [r0, #4]
 3795 0880 013043E2 		sub	r3, r3, #1
 3796 0884 043080E5 		str	r3, [r0, #4]
  41:/home/zkmike/workspace/RZA2M/rza2m_2d_barcode_sample_freertos_gcc/src/zxing_lib/zxing/common/Counted.h ****       count_ = 0xDEADF001;
 3797              		.loc 3 41 0
 3798 0888 000053E3 		cmp	r3, #0
 3799 088c 3E00000A 		beq	.L251
 3800              	.LVL393:
 3801              	.L179:
 3802              	.LBE1633:
 3803              	.LBE1632:
 3804              	.LBE1631:
 3805              	.LBE1630:
 3806              	.LBB1637:
 3807              	.LBB1638:
  75:/home/zkmike/workspace/RZA2M/rza2m_2d_barcode_sample_freertos_gcc/src/zxing_lib/zxing/common/Counted.h ****       object_->release();
 3808              		.loc 3 75 0
 3809 0890 08009DE5 		ldr	r0, [sp, #8]
 3810 0894 000050E3 		cmp	r0, #0
 3811 0898 0400000A 		beq	.L180
 3812              	.LVL394:
 3813              	.LBB1639:
 3814              	.LBB1640:
  40:/home/zkmike/workspace/RZA2M/rza2m_2d_barcode_sample_freertos_gcc/src/zxing_lib/zxing/common/Counted.h ****     if (count_ == 0) {
 3815              		.loc 3 40 0
 3816 089c 043090E5 		ldr	r3, [r0, #4]
 3817 08a0 013043E2 		sub	r3, r3, #1
 3818 08a4 043080E5 		str	r3, [r0, #4]
  41:/home/zkmike/workspace/RZA2M/rza2m_2d_barcode_sample_freertos_gcc/src/zxing_lib/zxing/common/Counted.h ****       count_ = 0xDEADF001;
 3819              		.loc 3 41 0
 3820 08a8 000053E3 		cmp	r3, #0
 3821 08ac 3D00000A 		beq	.L252
 3822              	.LVL395:
 3823              	.L180:
 3824              	.LBE1640:
 3825              	.LBE1639:
 3826              	.LBE1638:
 3827              	.LBE1637:
 3828              	.LBB1644:
 3829              	.LBB1645:
  75:/home/zkmike/workspace/RZA2M/rza2m_2d_barcode_sample_freertos_gcc/src/zxing_lib/zxing/common/Counted.h ****       object_->release();
 3830              		.loc 3 75 0
 3831 08b0 04009DE5 		ldr	r0, [sp, #4]
 3832 08b4 000050E3 		cmp	r0, #0
 3833 08b8 0400000A 		beq	.L181
 3834              	.LVL396:
 3835              	.LBB1646:
 3836              	.LBB1647:
  40:/home/zkmike/workspace/RZA2M/rza2m_2d_barcode_sample_freertos_gcc/src/zxing_lib/zxing/common/Counted.h ****     if (count_ == 0) {
 3837              		.loc 3 40 0
 3838 08bc 043090E5 		ldr	r3, [r0, #4]
 3839 08c0 013043E2 		sub	r3, r3, #1
 3840 08c4 043080E5 		str	r3, [r0, #4]
  41:/home/zkmike/workspace/RZA2M/rza2m_2d_barcode_sample_freertos_gcc/src/zxing_lib/zxing/common/Counted.h ****       count_ = 0xDEADF001;
 3841              		.loc 3 41 0
 3842 08c8 000053E3 		cmp	r3, #0
 3843 08cc 3C00000A 		beq	.L253
 3844              	.LVL397:
 3845              	.L181:
 3846              	.LBE1647:
 3847              	.LBE1646:
 3848              	.LBE1645:
 3849              	.LBE1644:
 3850              	.LBB1651:
 3851              	.LBB1652:
  75:/home/zkmike/workspace/RZA2M/rza2m_2d_barcode_sample_freertos_gcc/src/zxing_lib/zxing/common/Counted.h ****       object_->release();
 3852              		.loc 3 75 0
 3853 08d0 00009DE5 		ldr	r0, [sp]
 3854 08d4 000050E3 		cmp	r0, #0
 3855 08d8 0400000A 		beq	.L135
 3856              	.LVL398:
 3857              	.LBB1653:
 3858              	.LBB1654:
  40:/home/zkmike/workspace/RZA2M/rza2m_2d_barcode_sample_freertos_gcc/src/zxing_lib/zxing/common/Counted.h ****     if (count_ == 0) {
 3859              		.loc 3 40 0
 3860 08dc 043090E5 		ldr	r3, [r0, #4]
 3861 08e0 013043E2 		sub	r3, r3, #1
 3862 08e4 043080E5 		str	r3, [r0, #4]
  41:/home/zkmike/workspace/RZA2M/rza2m_2d_barcode_sample_freertos_gcc/src/zxing_lib/zxing/common/Counted.h ****       count_ = 0xDEADF001;
 3863              		.loc 3 41 0
 3864 08e8 000053E3 		cmp	r3, #0
 3865 08ec 3B00000A 		beq	.L254
 3866              	.LVL399:
 3867              	.L135:
 3868              	.LBE1654:
 3869              	.LBE1653:
 3870              	.LBE1652:
 3871              	.LBE1651:
 3872              	.LBE1514:
 3873              	.LBE1352:
 303:../src/zxing_lib/zxing/common/detector/WhiteRectangleDetector.cpp **** 
 3874              		.loc 4 303 0
 3875 08f0 0400A0E1 		mov	r0, r4
 3876 08f4 14D08DE2 		add	sp, sp, #20
 3877              		.cfi_remember_state
 3878              		.cfi_def_cfa_offset 60
 3879              		@ sp needed
 3880 08f8 088BBDEC 		vldm	sp!, {d8-d11}
 3881              		.cfi_restore 86
 3882              		.cfi_restore 87
 3883              		.cfi_restore 84
 3884              		.cfi_restore 85
 3885              		.cfi_restore 82
 3886              		.cfi_restore 83
 3887              		.cfi_restore 80
 3888              		.cfi_restore 81
 3889              		.cfi_def_cfa_offset 28
 3890              	.LVL400:
 3891 08fc F083BDE8 		pop	{r4, r5, r6, r7, r8, r9, pc}
 3892              	.LVL401:
 3893              	.L246:
 3894              		.cfi_restore_state
 3895              	.LBB1683:
 3896              	.LBB1679:
 3897              	.LBB1658:
 3898              	.LBB1577:
 3899              	.LBB1576:
 3900              	.LBB1575:
 3901              	.LBB1574:
 3902              	.LBB1573:
 3903              	.LBB1572:
  42:/home/zkmike/workspace/RZA2M/rza2m_2d_barcode_sample_freertos_gcc/src/zxing_lib/zxing/common/Counted.h ****       delete this;
 3904              		.loc 3 42 0
 3905 0900 01300FE3 		movw	r3, #61441
 3906 0904 AD3E4DE3 		movt	r3, 57005
 3907 0908 043080E5 		str	r3, [r0, #4]
  43:/home/zkmike/workspace/RZA2M/rza2m_2d_barcode_sample_freertos_gcc/src/zxing_lib/zxing/common/Counted.h ****     }
 3908              		.loc 3 43 0
 3909 090c 003090E5 		ldr	r3, [r0]
 3910 0910 043093E5 		ldr	r3, [r3, #4]
 3911 0914 33FF2FE1 		blx	r3
 3912              	.LVL402:
 3913 0918 97FFFFEA 		b	.L170
 3914              	.LVL403:
 3915              	.L247:
 3916              	.LBE1572:
 3917              	.LBE1573:
 3918              	.LBE1574:
 3919              	.LBE1575:
 3920              	.LBE1576:
 3921              	.LBE1577:
 3922              	.LBE1658:
 3923              	.LBB1659:
 3924              	.LBB1590:
 3925              	.LBB1589:
 3926              	.LBB1588:
  42:/home/zkmike/workspace/RZA2M/rza2m_2d_barcode_sample_freertos_gcc/src/zxing_lib/zxing/common/Counted.h ****       delete this;
 3927              		.loc 3 42 0
 3928 091c 01300FE3 		movw	r3, #61441
 3929 0920 AD3E4DE3 		movt	r3, 57005
 3930 0924 043080E5 		str	r3, [r0, #4]
  43:/home/zkmike/workspace/RZA2M/rza2m_2d_barcode_sample_freertos_gcc/src/zxing_lib/zxing/common/Counted.h ****     }
 3931              		.loc 3 43 0
 3932 0928 003090E5 		ldr	r3, [r0]
 3933 092c 043093E5 		ldr	r3, [r3, #4]
 3934 0930 33FF2FE1 		blx	r3
 3935              	.LVL404:
 3936 0934 9FFFFFEA 		b	.L172
 3937              	.LVL405:
 3938              	.L248:
 3939              	.LBE1588:
 3940              	.LBE1589:
 3941              	.LBE1590:
 3942              	.LBE1659:
 3943              	.LBB1660:
 3944              	.LBB1603:
 3945              	.LBB1602:
 3946              	.LBB1601:
  42:/home/zkmike/workspace/RZA2M/rza2m_2d_barcode_sample_freertos_gcc/src/zxing_lib/zxing/common/Counted.h ****       delete this;
 3947              		.loc 3 42 0
 3948 0938 01300FE3 		movw	r3, #61441
 3949 093c AD3E4DE3 		movt	r3, 57005
 3950 0940 043080E5 		str	r3, [r0, #4]
  43:/home/zkmike/workspace/RZA2M/rza2m_2d_barcode_sample_freertos_gcc/src/zxing_lib/zxing/common/Counted.h ****     }
 3951              		.loc 3 43 0
 3952 0944 003090E5 		ldr	r3, [r0]
 3953 0948 043093E5 		ldr	r3, [r3, #4]
 3954 094c 33FF2FE1 		blx	r3
 3955              	.LVL406:
 3956 0950 A7FFFFEA 		b	.L174
 3957              	.LVL407:
 3958              	.L249:
 3959              	.LBE1601:
 3960              	.LBE1602:
 3961              	.LBE1603:
 3962              	.LBE1660:
 3963              	.LBB1661:
 3964              	.LBB1616:
 3965              	.LBB1615:
 3966              	.LBB1614:
  42:/home/zkmike/workspace/RZA2M/rza2m_2d_barcode_sample_freertos_gcc/src/zxing_lib/zxing/common/Counted.h ****       delete this;
 3967              		.loc 3 42 0
 3968 0954 01300FE3 		movw	r3, #61441
 3969 0958 AD3E4DE3 		movt	r3, 57005
 3970 095c 043080E5 		str	r3, [r0, #4]
  43:/home/zkmike/workspace/RZA2M/rza2m_2d_barcode_sample_freertos_gcc/src/zxing_lib/zxing/common/Counted.h ****     }
 3971              		.loc 3 43 0
 3972 0960 003090E5 		ldr	r3, [r0]
 3973 0964 043093E5 		ldr	r3, [r3, #4]
 3974 0968 33FF2FE1 		blx	r3
 3975              	.LVL408:
 3976 096c AFFFFFEA 		b	.L176
 3977              	.LVL409:
 3978              	.L250:
 3979              	.LBE1614:
 3980              	.LBE1615:
 3981              	.LBE1616:
 3982              	.LBE1661:
 3983              	.LBB1662:
 3984              	.LBB1629:
 3985              	.LBB1628:
 3986              	.LBB1627:
  42:/home/zkmike/workspace/RZA2M/rza2m_2d_barcode_sample_freertos_gcc/src/zxing_lib/zxing/common/Counted.h ****       delete this;
 3987              		.loc 3 42 0
 3988 0970 01300FE3 		movw	r3, #61441
 3989 0974 AD3E4DE3 		movt	r3, 57005
 3990 0978 043080E5 		str	r3, [r0, #4]
  43:/home/zkmike/workspace/RZA2M/rza2m_2d_barcode_sample_freertos_gcc/src/zxing_lib/zxing/common/Counted.h ****     }
 3991              		.loc 3 43 0
 3992 097c 003090E5 		ldr	r3, [r0]
 3993 0980 043093E5 		ldr	r3, [r3, #4]
 3994 0984 33FF2FE1 		blx	r3
 3995              	.LVL410:
 3996 0988 B7FFFFEA 		b	.L178
 3997              	.LVL411:
 3998              	.L251:
 3999              	.LBE1627:
 4000              	.LBE1628:
 4001              	.LBE1629:
 4002              	.LBE1662:
 4003              	.LBB1663:
 4004              	.LBB1636:
 4005              	.LBB1635:
 4006              	.LBB1634:
  42:/home/zkmike/workspace/RZA2M/rza2m_2d_barcode_sample_freertos_gcc/src/zxing_lib/zxing/common/Counted.h ****       delete this;
 4007              		.loc 3 42 0
 4008 098c 01300FE3 		movw	r3, #61441
 4009 0990 AD3E4DE3 		movt	r3, 57005
 4010 0994 043080E5 		str	r3, [r0, #4]
  43:/home/zkmike/workspace/RZA2M/rza2m_2d_barcode_sample_freertos_gcc/src/zxing_lib/zxing/common/Counted.h ****     }
 4011              		.loc 3 43 0
 4012 0998 003090E5 		ldr	r3, [r0]
 4013 099c 043093E5 		ldr	r3, [r3, #4]
 4014 09a0 33FF2FE1 		blx	r3
 4015              	.LVL412:
 4016 09a4 B9FFFFEA 		b	.L179
 4017              	.LVL413:
 4018              	.L252:
 4019              	.LBE1634:
 4020              	.LBE1635:
 4021              	.LBE1636:
 4022              	.LBE1663:
 4023              	.LBB1664:
 4024              	.LBB1643:
 4025              	.LBB1642:
 4026              	.LBB1641:
  42:/home/zkmike/workspace/RZA2M/rza2m_2d_barcode_sample_freertos_gcc/src/zxing_lib/zxing/common/Counted.h ****       delete this;
 4027              		.loc 3 42 0
 4028 09a8 01300FE3 		movw	r3, #61441
 4029 09ac AD3E4DE3 		movt	r3, 57005
 4030 09b0 043080E5 		str	r3, [r0, #4]
  43:/home/zkmike/workspace/RZA2M/rza2m_2d_barcode_sample_freertos_gcc/src/zxing_lib/zxing/common/Counted.h ****     }
 4031              		.loc 3 43 0
 4032 09b4 003090E5 		ldr	r3, [r0]
 4033 09b8 043093E5 		ldr	r3, [r3, #4]
 4034 09bc 33FF2FE1 		blx	r3
 4035              	.LVL414:
 4036 09c0 BAFFFFEA 		b	.L180
 4037              	.LVL415:
 4038              	.L253:
 4039              	.LBE1641:
 4040              	.LBE1642:
 4041              	.LBE1643:
 4042              	.LBE1664:
 4043              	.LBB1665:
 4044              	.LBB1650:
 4045              	.LBB1649:
 4046              	.LBB1648:
  42:/home/zkmike/workspace/RZA2M/rza2m_2d_barcode_sample_freertos_gcc/src/zxing_lib/zxing/common/Counted.h ****       delete this;
 4047              		.loc 3 42 0
 4048 09c4 01300FE3 		movw	r3, #61441
 4049 09c8 AD3E4DE3 		movt	r3, 57005
 4050 09cc 043080E5 		str	r3, [r0, #4]
  43:/home/zkmike/workspace/RZA2M/rza2m_2d_barcode_sample_freertos_gcc/src/zxing_lib/zxing/common/Counted.h ****     }
 4051              		.loc 3 43 0
 4052 09d0 003090E5 		ldr	r3, [r0]
 4053 09d4 043093E5 		ldr	r3, [r3, #4]
 4054 09d8 33FF2FE1 		blx	r3
 4055              	.LVL416:
 4056 09dc BBFFFFEA 		b	.L181
 4057              	.LVL417:
 4058              	.L254:
 4059              	.LBE1648:
 4060              	.LBE1649:
 4061              	.LBE1650:
 4062              	.LBE1665:
 4063              	.LBB1666:
 4064              	.LBB1657:
 4065              	.LBB1656:
 4066              	.LBB1655:
  42:/home/zkmike/workspace/RZA2M/rza2m_2d_barcode_sample_freertos_gcc/src/zxing_lib/zxing/common/Counted.h ****       delete this;
 4067              		.loc 3 42 0
 4068 09e0 01300FE3 		movw	r3, #61441
 4069 09e4 AD3E4DE3 		movt	r3, 57005
 4070 09e8 043080E5 		str	r3, [r0, #4]
  43:/home/zkmike/workspace/RZA2M/rza2m_2d_barcode_sample_freertos_gcc/src/zxing_lib/zxing/common/Counted.h ****     }
 4071              		.loc 3 43 0
 4072 09ec 003090E5 		ldr	r3, [r0]
 4073 09f0 043093E5 		ldr	r3, [r3, #4]
 4074 09f4 33FF2FE1 		blx	r3
 4075              	.LVL418:
 4076              	.LBE1655:
 4077              	.LBE1656:
 4078              	.LBE1657:
 4079              	.LBE1666:
 4080              	.LBE1679:
 4081              	.LBE1683:
 302:../src/zxing_lib/zxing/common/detector/WhiteRectangleDetector.cpp **** }
 4082              		.loc 4 302 0
 4083 09f8 BCFFFFEA 		b	.L135
 4084              	.L208:
 4085              	.LBB1684:
 4086              	.LBB1680:
 284:../src/zxing_lib/zxing/common/detector/WhiteRectangleDetector.cpp ****     Ref<ResultPoint> pointB(new ResultPoint(zi + CORR, zj + CORR));
 4087              		.loc 4 284 0
 4088 09fc 1010A0E3 		mov	r1, #16
 4089 0a00 0500A0E1 		mov	r0, r5
 4090 0a04 FEFFFFEB 		bl	_ZdlPvj
 4091              	.LVL419:
 4092              	.L184:
 4093              	.LBE1680:
 4094              	.LBE1684:
 4095              	.LBB1685:
 4096              	.LBB1686:
 426:/home/zkmike/.local/share/renesas/e2_studio/toolchains/gcc_arm/gcc-arm-none-eabi-6-2017-q2-update/arm-none-eabi/include/c++/6.3.1/bits/stl_vector.h **** 		      _M_get_Tp_allocator()); }
 4097              		.loc 11 426 0
 4098 0a08 005094E5 		ldr	r5, [r4]
 4099 0a0c 046094E5 		ldr	r6, [r4, #4]
 4100              	.LVL420:
 4101              	.L206:
 4102              	.LBB1687:
 4103              	.LBB1688:
 4104              	.LBB1689:
 4105              	.LBB1690:
 4106              	.LBB1691:
  76:/home/zkmike/.local/share/renesas/e2_studio/toolchains/gcc_arm/gcc-arm-none-eabi-6-2017-q2-update/arm-none-eabi/include/c++/6.3.1/bits/stl_construct.h **** #else
  77:/home/zkmike/.local/share/renesas/e2_studio/toolchains/gcc_arm/gcc-arm-none-eabi-6-2017-q2-update/arm-none-eabi/include/c++/6.3.1/bits/stl_construct.h ****   template<typename _T1, typename _T2>
  78:/home/zkmike/.local/share/renesas/e2_studio/toolchains/gcc_arm/gcc-arm-none-eabi-6-2017-q2-update/arm-none-eabi/include/c++/6.3.1/bits/stl_construct.h ****     inline void
  79:/home/zkmike/.local/share/renesas/e2_studio/toolchains/gcc_arm/gcc-arm-none-eabi-6-2017-q2-update/arm-none-eabi/include/c++/6.3.1/bits/stl_construct.h ****     _Construct(_T1* __p, const _T2& __value)
  80:/home/zkmike/.local/share/renesas/e2_studio/toolchains/gcc_arm/gcc-arm-none-eabi-6-2017-q2-update/arm-none-eabi/include/c++/6.3.1/bits/stl_construct.h ****     {
  81:/home/zkmike/.local/share/renesas/e2_studio/toolchains/gcc_arm/gcc-arm-none-eabi-6-2017-q2-update/arm-none-eabi/include/c++/6.3.1/bits/stl_construct.h ****       // _GLIBCXX_RESOLVE_LIB_DEFECTS
  82:/home/zkmike/.local/share/renesas/e2_studio/toolchains/gcc_arm/gcc-arm-none-eabi-6-2017-q2-update/arm-none-eabi/include/c++/6.3.1/bits/stl_construct.h ****       // 402. wrong new expression in [some_]allocator::construct
  83:/home/zkmike/.local/share/renesas/e2_studio/toolchains/gcc_arm/gcc-arm-none-eabi-6-2017-q2-update/arm-none-eabi/include/c++/6.3.1/bits/stl_construct.h ****       ::new(static_cast<void*>(__p)) _T1(__value);
  84:/home/zkmike/.local/share/renesas/e2_studio/toolchains/gcc_arm/gcc-arm-none-eabi-6-2017-q2-update/arm-none-eabi/include/c++/6.3.1/bits/stl_construct.h ****     }
  85:/home/zkmike/.local/share/renesas/e2_studio/toolchains/gcc_arm/gcc-arm-none-eabi-6-2017-q2-update/arm-none-eabi/include/c++/6.3.1/bits/stl_construct.h **** #endif
  86:/home/zkmike/.local/share/renesas/e2_studio/toolchains/gcc_arm/gcc-arm-none-eabi-6-2017-q2-update/arm-none-eabi/include/c++/6.3.1/bits/stl_construct.h **** 
  87:/home/zkmike/.local/share/renesas/e2_studio/toolchains/gcc_arm/gcc-arm-none-eabi-6-2017-q2-update/arm-none-eabi/include/c++/6.3.1/bits/stl_construct.h ****   /**
  88:/home/zkmike/.local/share/renesas/e2_studio/toolchains/gcc_arm/gcc-arm-none-eabi-6-2017-q2-update/arm-none-eabi/include/c++/6.3.1/bits/stl_construct.h ****    * Destroy the object pointed to by a pointer type.
  89:/home/zkmike/.local/share/renesas/e2_studio/toolchains/gcc_arm/gcc-arm-none-eabi-6-2017-q2-update/arm-none-eabi/include/c++/6.3.1/bits/stl_construct.h ****    */
  90:/home/zkmike/.local/share/renesas/e2_studio/toolchains/gcc_arm/gcc-arm-none-eabi-6-2017-q2-update/arm-none-eabi/include/c++/6.3.1/bits/stl_construct.h ****   template<typename _Tp>
  91:/home/zkmike/.local/share/renesas/e2_studio/toolchains/gcc_arm/gcc-arm-none-eabi-6-2017-q2-update/arm-none-eabi/include/c++/6.3.1/bits/stl_construct.h ****     inline void
  92:/home/zkmike/.local/share/renesas/e2_studio/toolchains/gcc_arm/gcc-arm-none-eabi-6-2017-q2-update/arm-none-eabi/include/c++/6.3.1/bits/stl_construct.h ****     _Destroy(_Tp* __pointer)
  93:/home/zkmike/.local/share/renesas/e2_studio/toolchains/gcc_arm/gcc-arm-none-eabi-6-2017-q2-update/arm-none-eabi/include/c++/6.3.1/bits/stl_construct.h ****     { __pointer->~_Tp(); }
  94:/home/zkmike/.local/share/renesas/e2_studio/toolchains/gcc_arm/gcc-arm-none-eabi-6-2017-q2-update/arm-none-eabi/include/c++/6.3.1/bits/stl_construct.h **** 
  95:/home/zkmike/.local/share/renesas/e2_studio/toolchains/gcc_arm/gcc-arm-none-eabi-6-2017-q2-update/arm-none-eabi/include/c++/6.3.1/bits/stl_construct.h ****   template<bool>
  96:/home/zkmike/.local/share/renesas/e2_studio/toolchains/gcc_arm/gcc-arm-none-eabi-6-2017-q2-update/arm-none-eabi/include/c++/6.3.1/bits/stl_construct.h ****     struct _Destroy_aux
  97:/home/zkmike/.local/share/renesas/e2_studio/toolchains/gcc_arm/gcc-arm-none-eabi-6-2017-q2-update/arm-none-eabi/include/c++/6.3.1/bits/stl_construct.h ****     {
  98:/home/zkmike/.local/share/renesas/e2_studio/toolchains/gcc_arm/gcc-arm-none-eabi-6-2017-q2-update/arm-none-eabi/include/c++/6.3.1/bits/stl_construct.h ****       template<typename _ForwardIterator>
  99:/home/zkmike/.local/share/renesas/e2_studio/toolchains/gcc_arm/gcc-arm-none-eabi-6-2017-q2-update/arm-none-eabi/include/c++/6.3.1/bits/stl_construct.h ****         static void
 100:/home/zkmike/.local/share/renesas/e2_studio/toolchains/gcc_arm/gcc-arm-none-eabi-6-2017-q2-update/arm-none-eabi/include/c++/6.3.1/bits/stl_construct.h ****         __destroy(_ForwardIterator __first, _ForwardIterator __last)
 101:/home/zkmike/.local/share/renesas/e2_studio/toolchains/gcc_arm/gcc-arm-none-eabi-6-2017-q2-update/arm-none-eabi/include/c++/6.3.1/bits/stl_construct.h **** 	{
 102:/home/zkmike/.local/share/renesas/e2_studio/toolchains/gcc_arm/gcc-arm-none-eabi-6-2017-q2-update/arm-none-eabi/include/c++/6.3.1/bits/stl_construct.h **** 	  for (; __first != __last; ++__first)
 4107              		.loc 14 102 0
 4108 0a10 050056E1 		cmp	r6, r5
 4109 0a14 8600000A 		beq	.L204
 4110              	.LBB1692:
 4111              	.LBB1693:
 4112              	.LBB1694:
  75:/home/zkmike/workspace/RZA2M/rza2m_2d_barcode_sample_freertos_gcc/src/zxing_lib/zxing/common/Counted.h ****       object_->release();
 4113              		.loc 3 75 0
 4114 0a18 000095E5 		ldr	r0, [r5]
 4115 0a1c 000050E3 		cmp	r0, #0
 4116 0a20 0A00000A 		beq	.L205
 4117              	.LVL421:
 4118              	.LBB1695:
 4119              	.LBB1696:
  40:/home/zkmike/workspace/RZA2M/rza2m_2d_barcode_sample_freertos_gcc/src/zxing_lib/zxing/common/Counted.h ****     if (count_ == 0) {
 4120              		.loc 3 40 0
 4121 0a24 043090E5 		ldr	r3, [r0, #4]
 4122 0a28 013043E2 		sub	r3, r3, #1
 4123 0a2c 043080E5 		str	r3, [r0, #4]
  41:/home/zkmike/workspace/RZA2M/rza2m_2d_barcode_sample_freertos_gcc/src/zxing_lib/zxing/common/Counted.h ****       count_ = 0xDEADF001;
 4124              		.loc 3 41 0
 4125 0a30 000053E3 		cmp	r3, #0
 4126 0a34 0500001A 		bne	.L205
  42:/home/zkmike/workspace/RZA2M/rza2m_2d_barcode_sample_freertos_gcc/src/zxing_lib/zxing/common/Counted.h ****       delete this;
 4127              		.loc 3 42 0
 4128 0a38 01300FE3 		movw	r3, #61441
 4129 0a3c AD3E4DE3 		movt	r3, 57005
 4130 0a40 043080E5 		str	r3, [r0, #4]
  43:/home/zkmike/workspace/RZA2M/rza2m_2d_barcode_sample_freertos_gcc/src/zxing_lib/zxing/common/Counted.h ****     }
 4131              		.loc 3 43 0
 4132 0a44 003090E5 		ldr	r3, [r0]
 4133 0a48 043093E5 		ldr	r3, [r3, #4]
 4134 0a4c 33FF2FE1 		blx	r3
 4135              	.LVL422:
 4136              	.L205:
 4137              	.LBE1696:
 4138              	.LBE1695:
 4139              	.LBE1694:
 4140              	.LBE1693:
 4141              	.LBE1692:
 4142              		.loc 14 102 0
 4143 0a50 045085E2 		add	r5, r5, #4
 4144              	.LVL423:
 4145 0a54 EDFFFFEA 		b	.L206
 4146              	.LVL424:
 4147              	.L210:
 4148              	.LBE1691:
 4149              	.LBE1690:
 4150              	.LBE1689:
 4151              	.LBE1688:
 4152              	.LBE1687:
 4153              	.LBE1686:
 4154              	.LBE1685:
 4155              	.LBB1705:
 4156              	.LBB1681:
 285:../src/zxing_lib/zxing/common/detector/WhiteRectangleDetector.cpp ****     Ref<ResultPoint> pointC(new ResultPoint(xi - CORR, xj - CORR));
 4157              		.loc 4 285 0
 4158 0a58 1010A0E3 		mov	r1, #16
 4159 0a5c 0500A0E1 		mov	r0, r5
 4160 0a60 FEFFFFEB 		bl	_ZdlPvj
 4161              	.LVL425:
 4162              	.L186:
 4163              	.LBB1502:
 4164              	.LBB1503:
  75:/home/zkmike/workspace/RZA2M/rza2m_2d_barcode_sample_freertos_gcc/src/zxing_lib/zxing/common/Counted.h ****       object_->release();
 4165              		.loc 3 75 0
 4166 0a64 00009DE5 		ldr	r0, [sp]
 4167 0a68 000050E3 		cmp	r0, #0
 4168 0a6c E5FFFF0A 		beq	.L184
 4169              	.LVL426:
 4170              	.LBB1504:
 4171              	.LBB1505:
  40:/home/zkmike/workspace/RZA2M/rza2m_2d_barcode_sample_freertos_gcc/src/zxing_lib/zxing/common/Counted.h ****     if (count_ == 0) {
 4172              		.loc 3 40 0
 4173 0a70 043090E5 		ldr	r3, [r0, #4]
 4174 0a74 013043E2 		sub	r3, r3, #1
 4175 0a78 043080E5 		str	r3, [r0, #4]
  41:/home/zkmike/workspace/RZA2M/rza2m_2d_barcode_sample_freertos_gcc/src/zxing_lib/zxing/common/Counted.h ****       count_ = 0xDEADF001;
 4176              		.loc 3 41 0
 4177 0a7c 000053E3 		cmp	r3, #0
 4178 0a80 E0FFFF1A 		bne	.L184
  42:/home/zkmike/workspace/RZA2M/rza2m_2d_barcode_sample_freertos_gcc/src/zxing_lib/zxing/common/Counted.h ****       delete this;
 4179              		.loc 3 42 0
 4180 0a84 01300FE3 		movw	r3, #61441
 4181 0a88 AD3E4DE3 		movt	r3, 57005
 4182 0a8c 043080E5 		str	r3, [r0, #4]
  43:/home/zkmike/workspace/RZA2M/rza2m_2d_barcode_sample_freertos_gcc/src/zxing_lib/zxing/common/Counted.h ****     }
 4183              		.loc 3 43 0
 4184 0a90 003090E5 		ldr	r3, [r0]
 4185 0a94 043093E5 		ldr	r3, [r3, #4]
 4186 0a98 33FF2FE1 		blx	r3
 4187              	.LVL427:
 4188 0a9c D9FFFFEA 		b	.L184
 4189              	.L212:
 4190              	.LBE1505:
 4191              	.LBE1504:
 4192              	.LBE1503:
 4193              	.LBE1502:
 286:../src/zxing_lib/zxing/common/detector/WhiteRectangleDetector.cpp ****     Ref<ResultPoint> pointD(new ResultPoint(yi + CORR, yj - CORR));
 4194              		.loc 4 286 0
 4195 0aa0 1010A0E3 		mov	r1, #16
 4196 0aa4 0500A0E1 		mov	r0, r5
 4197 0aa8 FEFFFFEB 		bl	_ZdlPvj
 4198              	.LVL428:
 4199              	.L188:
 4200              	.LBB1506:
 4201              	.LBB1507:
  75:/home/zkmike/workspace/RZA2M/rza2m_2d_barcode_sample_freertos_gcc/src/zxing_lib/zxing/common/Counted.h ****       object_->release();
 4202              		.loc 3 75 0
 4203 0aac 04009DE5 		ldr	r0, [sp, #4]
 4204 0ab0 000050E3 		cmp	r0, #0
 4205 0ab4 EAFFFF0A 		beq	.L186
 4206              	.LVL429:
 4207              	.LBB1508:
 4208              	.LBB1509:
  40:/home/zkmike/workspace/RZA2M/rza2m_2d_barcode_sample_freertos_gcc/src/zxing_lib/zxing/common/Counted.h ****     if (count_ == 0) {
 4209              		.loc 3 40 0
 4210 0ab8 043090E5 		ldr	r3, [r0, #4]
 4211 0abc 013043E2 		sub	r3, r3, #1
 4212 0ac0 043080E5 		str	r3, [r0, #4]
  41:/home/zkmike/workspace/RZA2M/rza2m_2d_barcode_sample_freertos_gcc/src/zxing_lib/zxing/common/Counted.h ****       count_ = 0xDEADF001;
 4213              		.loc 3 41 0
 4214 0ac4 000053E3 		cmp	r3, #0
 4215 0ac8 E5FFFF1A 		bne	.L186
  42:/home/zkmike/workspace/RZA2M/rza2m_2d_barcode_sample_freertos_gcc/src/zxing_lib/zxing/common/Counted.h ****       delete this;
 4216              		.loc 3 42 0
 4217 0acc 01300FE3 		movw	r3, #61441
 4218 0ad0 AD3E4DE3 		movt	r3, 57005
 4219 0ad4 043080E5 		str	r3, [r0, #4]
  43:/home/zkmike/workspace/RZA2M/rza2m_2d_barcode_sample_freertos_gcc/src/zxing_lib/zxing/common/Counted.h ****     }
 4220              		.loc 3 43 0
 4221 0ad8 003090E5 		ldr	r3, [r0]
 4222 0adc 043093E5 		ldr	r3, [r3, #4]
 4223 0ae0 33FF2FE1 		blx	r3
 4224              	.LVL430:
 4225 0ae4 DEFFFFEA 		b	.L186
 4226              	.L214:
 4227              	.LBE1509:
 4228              	.LBE1508:
 4229              	.LBE1507:
 4230              	.LBE1506:
 287:../src/zxing_lib/zxing/common/detector/WhiteRectangleDetector.cpp **** 	  corners[0].reset(pointA);
 4231              		.loc 4 287 0
 4232 0ae8 1010A0E3 		mov	r1, #16
 4233 0aec 0500A0E1 		mov	r0, r5
 4234 0af0 FEFFFFEB 		bl	_ZdlPvj
 4235              	.LVL431:
 4236              	.L190:
 4237              	.LBB1510:
 4238              	.LBB1511:
  75:/home/zkmike/workspace/RZA2M/rza2m_2d_barcode_sample_freertos_gcc/src/zxing_lib/zxing/common/Counted.h ****       object_->release();
 4239              		.loc 3 75 0
 4240 0af4 08009DE5 		ldr	r0, [sp, #8]
 4241 0af8 000050E3 		cmp	r0, #0
 4242 0afc EAFFFF0A 		beq	.L188
 4243              	.LVL432:
 4244              	.LBB1512:
 4245              	.LBB1513:
  40:/home/zkmike/workspace/RZA2M/rza2m_2d_barcode_sample_freertos_gcc/src/zxing_lib/zxing/common/Counted.h ****     if (count_ == 0) {
 4246              		.loc 3 40 0
 4247 0b00 043090E5 		ldr	r3, [r0, #4]
 4248 0b04 013043E2 		sub	r3, r3, #1
 4249 0b08 043080E5 		str	r3, [r0, #4]
  41:/home/zkmike/workspace/RZA2M/rza2m_2d_barcode_sample_freertos_gcc/src/zxing_lib/zxing/common/Counted.h ****       count_ = 0xDEADF001;
 4250              		.loc 3 41 0
 4251 0b0c 000053E3 		cmp	r3, #0
 4252 0b10 E5FFFF1A 		bne	.L188
  42:/home/zkmike/workspace/RZA2M/rza2m_2d_barcode_sample_freertos_gcc/src/zxing_lib/zxing/common/Counted.h ****       delete this;
 4253              		.loc 3 42 0
 4254 0b14 01300FE3 		movw	r3, #61441
 4255 0b18 AD3E4DE3 		movt	r3, 57005
 4256 0b1c 043080E5 		str	r3, [r0, #4]
  43:/home/zkmike/workspace/RZA2M/rza2m_2d_barcode_sample_freertos_gcc/src/zxing_lib/zxing/common/Counted.h ****     }
 4257              		.loc 3 43 0
 4258 0b20 003090E5 		ldr	r3, [r0]
 4259 0b24 043093E5 		ldr	r3, [r3, #4]
 4260 0b28 33FF2FE1 		blx	r3
 4261              	.LVL433:
 4262 0b2c DEFFFFEA 		b	.L188
 4263              	.L213:
 4264 0b30 EFFFFFEA 		b	.L190
 4265              	.L211:
 4266 0b34 DCFFFFEA 		b	.L188
 4267              	.L209:
 4268 0b38 C9FFFFEA 		b	.L186
 4269              	.L216:
 4270              	.LBE1513:
 4271              	.LBE1512:
 4272              	.LBE1511:
 4273              	.LBE1510:
 4274              	.LBE1681:
 4275              	.LBB1682:
 293:../src/zxing_lib/zxing/common/detector/WhiteRectangleDetector.cpp ****     Ref<ResultPoint> pointB(new ResultPoint(zi + CORR, zj - CORR));
 4276              		.loc 4 293 0
 4277 0b3c 1010A0E3 		mov	r1, #16
 4278 0b40 0500A0E1 		mov	r0, r5
 4279 0b44 FEFFFFEB 		bl	_ZdlPvj
 4280              	.LVL434:
 4281 0b48 AEFFFFEA 		b	.L184
 4282              	.L218:
 294:../src/zxing_lib/zxing/common/detector/WhiteRectangleDetector.cpp ****     Ref<ResultPoint> pointC(new ResultPoint(xi - CORR, xj + CORR));
 4283              		.loc 4 294 0
 4284 0b4c 1010A0E3 		mov	r1, #16
 4285 0b50 0500A0E1 		mov	r0, r5
 4286 0b54 FEFFFFEB 		bl	_ZdlPvj
 4287              	.LVL435:
 4288              	.L196:
 4289              	.LBB1667:
 4290              	.LBB1668:
  75:/home/zkmike/workspace/RZA2M/rza2m_2d_barcode_sample_freertos_gcc/src/zxing_lib/zxing/common/Counted.h ****       object_->release();
 4291              		.loc 3 75 0
 4292 0b58 00009DE5 		ldr	r0, [sp]
 4293 0b5c 000050E3 		cmp	r0, #0
 4294 0b60 A8FFFF0A 		beq	.L184
 4295              	.LVL436:
 4296              	.LBB1669:
 4297              	.LBB1670:
  40:/home/zkmike/workspace/RZA2M/rza2m_2d_barcode_sample_freertos_gcc/src/zxing_lib/zxing/common/Counted.h ****     if (count_ == 0) {
 4298              		.loc 3 40 0
 4299 0b64 043090E5 		ldr	r3, [r0, #4]
 4300 0b68 013043E2 		sub	r3, r3, #1
 4301 0b6c 043080E5 		str	r3, [r0, #4]
  41:/home/zkmike/workspace/RZA2M/rza2m_2d_barcode_sample_freertos_gcc/src/zxing_lib/zxing/common/Counted.h ****       count_ = 0xDEADF001;
 4302              		.loc 3 41 0
 4303 0b70 000053E3 		cmp	r3, #0
 4304 0b74 A3FFFF1A 		bne	.L184
  42:/home/zkmike/workspace/RZA2M/rza2m_2d_barcode_sample_freertos_gcc/src/zxing_lib/zxing/common/Counted.h ****       delete this;
 4305              		.loc 3 42 0
 4306 0b78 01300FE3 		movw	r3, #61441
 4307 0b7c AD3E4DE3 		movt	r3, 57005
 4308 0b80 043080E5 		str	r3, [r0, #4]
  43:/home/zkmike/workspace/RZA2M/rza2m_2d_barcode_sample_freertos_gcc/src/zxing_lib/zxing/common/Counted.h ****     }
 4309              		.loc 3 43 0
 4310 0b84 003090E5 		ldr	r3, [r0]
 4311 0b88 043093E5 		ldr	r3, [r3, #4]
 4312 0b8c 33FF2FE1 		blx	r3
 4313              	.LVL437:
 4314 0b90 9CFFFFEA 		b	.L184
 4315              	.L220:
 4316              	.LBE1670:
 4317              	.LBE1669:
 4318              	.LBE1668:
 4319              	.LBE1667:
 295:../src/zxing_lib/zxing/common/detector/WhiteRectangleDetector.cpp ****     Ref<ResultPoint> pointD(new ResultPoint(yi - CORR, yj - CORR));
 4320              		.loc 4 295 0
 4321 0b94 1010A0E3 		mov	r1, #16
 4322 0b98 0500A0E1 		mov	r0, r5
 4323 0b9c FEFFFFEB 		bl	_ZdlPvj
 4324              	.LVL438:
 4325              	.L198:
 4326              	.LBB1671:
 4327              	.LBB1672:
  75:/home/zkmike/workspace/RZA2M/rza2m_2d_barcode_sample_freertos_gcc/src/zxing_lib/zxing/common/Counted.h ****       object_->release();
 4328              		.loc 3 75 0
 4329 0ba0 04009DE5 		ldr	r0, [sp, #4]
 4330 0ba4 000050E3 		cmp	r0, #0
 4331 0ba8 EAFFFF0A 		beq	.L196
 4332              	.LVL439:
 4333              	.LBB1673:
 4334              	.LBB1674:
  40:/home/zkmike/workspace/RZA2M/rza2m_2d_barcode_sample_freertos_gcc/src/zxing_lib/zxing/common/Counted.h ****     if (count_ == 0) {
 4335              		.loc 3 40 0
 4336 0bac 043090E5 		ldr	r3, [r0, #4]
 4337 0bb0 013043E2 		sub	r3, r3, #1
 4338 0bb4 043080E5 		str	r3, [r0, #4]
  41:/home/zkmike/workspace/RZA2M/rza2m_2d_barcode_sample_freertos_gcc/src/zxing_lib/zxing/common/Counted.h ****       count_ = 0xDEADF001;
 4339              		.loc 3 41 0
 4340 0bb8 000053E3 		cmp	r3, #0
 4341 0bbc E5FFFF1A 		bne	.L196
  42:/home/zkmike/workspace/RZA2M/rza2m_2d_barcode_sample_freertos_gcc/src/zxing_lib/zxing/common/Counted.h ****       delete this;
 4342              		.loc 3 42 0
 4343 0bc0 01300FE3 		movw	r3, #61441
 4344 0bc4 AD3E4DE3 		movt	r3, 57005
 4345 0bc8 043080E5 		str	r3, [r0, #4]
  43:/home/zkmike/workspace/RZA2M/rza2m_2d_barcode_sample_freertos_gcc/src/zxing_lib/zxing/common/Counted.h ****     }
 4346              		.loc 3 43 0
 4347 0bcc 003090E5 		ldr	r3, [r0]
 4348 0bd0 043093E5 		ldr	r3, [r3, #4]
 4349 0bd4 33FF2FE1 		blx	r3
 4350              	.LVL440:
 4351 0bd8 DEFFFFEA 		b	.L196
 4352              	.L222:
 4353              	.LBE1674:
 4354              	.LBE1673:
 4355              	.LBE1672:
 4356              	.LBE1671:
 296:../src/zxing_lib/zxing/common/detector/WhiteRectangleDetector.cpp **** 	  corners[0].reset(pointA);
 4357              		.loc 4 296 0
 4358 0bdc 1010A0E3 		mov	r1, #16
 4359 0be0 0500A0E1 		mov	r0, r5
 4360 0be4 FEFFFFEB 		bl	_ZdlPvj
 4361              	.LVL441:
 4362              	.L200:
 4363              	.LBB1675:
 4364              	.LBB1676:
  75:/home/zkmike/workspace/RZA2M/rza2m_2d_barcode_sample_freertos_gcc/src/zxing_lib/zxing/common/Counted.h ****       object_->release();
 4365              		.loc 3 75 0
 4366 0be8 08009DE5 		ldr	r0, [sp, #8]
 4367 0bec 000050E3 		cmp	r0, #0
 4368 0bf0 EAFFFF0A 		beq	.L198
 4369              	.LVL442:
 4370              	.LBB1677:
 4371              	.LBB1678:
  40:/home/zkmike/workspace/RZA2M/rza2m_2d_barcode_sample_freertos_gcc/src/zxing_lib/zxing/common/Counted.h ****     if (count_ == 0) {
 4372              		.loc 3 40 0
 4373 0bf4 043090E5 		ldr	r3, [r0, #4]
 4374 0bf8 013043E2 		sub	r3, r3, #1
 4375 0bfc 043080E5 		str	r3, [r0, #4]
  41:/home/zkmike/workspace/RZA2M/rza2m_2d_barcode_sample_freertos_gcc/src/zxing_lib/zxing/common/Counted.h ****       count_ = 0xDEADF001;
 4376              		.loc 3 41 0
 4377 0c00 000053E3 		cmp	r3, #0
 4378 0c04 E5FFFF1A 		bne	.L198
  42:/home/zkmike/workspace/RZA2M/rza2m_2d_barcode_sample_freertos_gcc/src/zxing_lib/zxing/common/Counted.h ****       delete this;
 4379              		.loc 3 42 0
 4380 0c08 01300FE3 		movw	r3, #61441
 4381 0c0c AD3E4DE3 		movt	r3, 57005
 4382 0c10 043080E5 		str	r3, [r0, #4]
  43:/home/zkmike/workspace/RZA2M/rza2m_2d_barcode_sample_freertos_gcc/src/zxing_lib/zxing/common/Counted.h ****     }
 4383              		.loc 3 43 0
 4384 0c14 003090E5 		ldr	r3, [r0]
 4385 0c18 043093E5 		ldr	r3, [r3, #4]
 4386 0c1c 33FF2FE1 		blx	r3
 4387              	.LVL443:
 4388 0c20 DEFFFFEA 		b	.L198
 4389              	.L221:
 4390 0c24 EFFFFFEA 		b	.L200
 4391              	.L219:
 4392 0c28 DCFFFFEA 		b	.L198
 4393              	.L217:
 4394 0c2c C9FFFFEA 		b	.L196
 4395              	.LVL444:
 4396              	.L215:
 4397 0c30 74FFFFEA 		b	.L184
 4398              	.LVL445:
 4399              	.L204:
 4400              	.LBE1678:
 4401              	.LBE1677:
 4402              	.LBE1676:
 4403              	.LBE1675:
 4404              	.LBE1682:
 4405              	.LBE1705:
 4406              	.LBB1706:
 4407              	.LBB1704:
 4408              	.LBB1697:
 4409              	.LBB1698:
 160:/home/zkmike/.local/share/renesas/e2_studio/toolchains/gcc_arm/gcc-arm-none-eabi-6-2017-q2-update/arm-none-eabi/include/c++/6.3.1/bits/stl_vector.h **** 		      - this->_M_impl._M_start); }
 4410              		.loc 11 160 0
 4411 0c34 000094E5 		ldr	r0, [r4]
 4412              	.LVL446:
 4413              	.LBB1699:
 4414              	.LBB1700:
 177:/home/zkmike/.local/share/renesas/e2_studio/toolchains/gcc_arm/gcc-arm-none-eabi-6-2017-q2-update/arm-none-eabi/include/c++/6.3.1/bits/stl_vector.h **** 	  _Tr::deallocate(_M_impl, __p, __n);
 4415              		.loc 11 177 0
 4416 0c38 000050E3 		cmp	r0, #0
 4417 0c3c 0000000A 		beq	.L207
 4418              	.LVL447:
 4419              	.LBB1701:
 4420              	.LBB1702:
 4421              	.LBB1703:
 105:/home/zkmike/.local/share/renesas/e2_studio/toolchains/gcc_arm/gcc-arm-none-eabi-6-2017-q2-update/arm-none-eabi/include/c++/6.3.1/ext/new_allocator.h ****       }
 106:/home/zkmike/.local/share/renesas/e2_studio/toolchains/gcc_arm/gcc-arm-none-eabi-6-2017-q2-update/arm-none-eabi/include/c++/6.3.1/ext/new_allocator.h **** 
 107:/home/zkmike/.local/share/renesas/e2_studio/toolchains/gcc_arm/gcc-arm-none-eabi-6-2017-q2-update/arm-none-eabi/include/c++/6.3.1/ext/new_allocator.h ****       // __p is not permitted to be a null pointer.
 108:/home/zkmike/.local/share/renesas/e2_studio/toolchains/gcc_arm/gcc-arm-none-eabi-6-2017-q2-update/arm-none-eabi/include/c++/6.3.1/ext/new_allocator.h ****       void
 109:/home/zkmike/.local/share/renesas/e2_studio/toolchains/gcc_arm/gcc-arm-none-eabi-6-2017-q2-update/arm-none-eabi/include/c++/6.3.1/ext/new_allocator.h ****       deallocate(pointer __p, size_type)
 110:/home/zkmike/.local/share/renesas/e2_studio/toolchains/gcc_arm/gcc-arm-none-eabi-6-2017-q2-update/arm-none-eabi/include/c++/6.3.1/ext/new_allocator.h ****       { ::operator delete(__p); }
 4422              		.loc 12 110 0
 4423 0c40 FEFFFFEB 		bl	_ZdlPv
 4424              	.LVL448:
 4425              	.L207:
 4426              	.LEHB38:
 4427 0c44 FEFFFFEB 		bl	__cxa_end_cleanup
 4428              	.LVL449:
 4429              	.LEHE38:
 4430              	.LBE1703:
 4431              	.LBE1702:
 4432              	.LBE1701:
 4433              	.LBE1700:
 4434              	.LBE1699:
 4435              	.LBE1698:
 4436              	.LBE1697:
 4437              	.LBE1704:
 4438              	.LBE1706:
 4439              		.cfi_endproc
 4440              	.LFE2328:
 4441              		.personality	__gxx_personality_v0
 4442              		.handlerdata
 4443              	.LLSDA2328:
 4444 000c FF       		.byte	0xff
 4445 000d FF       		.byte	0xff
 4446 000e 01       		.byte	0x1
 4447 000f 6A       		.uleb128 .LLSDACSE2328-.LLSDACSB2328
 4448              	.LLSDACSB2328:
 4449 0010 30       		.uleb128 .LEHB21-.LFB2328
 4450 0011 AC01     		.uleb128 .LEHE21-.LEHB21
 4451 0013 00       		.uleb128 0
 4452 0014 00       		.uleb128 0
 4453 0015 B802     		.uleb128 .LEHB22-.LFB2328
 4454 0017 04       		.uleb128 .LEHE22-.LEHB22
 4455 0018 B018     		.uleb128 .L215-.LFB2328
 4456 001a 00       		.uleb128 0
 4457 001b D802     		.uleb128 .LEHB23-.LFB2328
 4458 001d 04       		.uleb128 .LEHE23-.LEHB23
 4459 001e FC13     		.uleb128 .L208-.LFB2328
 4460 0020 00       		.uleb128 0
 4461 0021 9C03     		.uleb128 .LEHB24-.LFB2328
 4462 0023 04       		.uleb128 .LEHE24-.LEHB24
 4463 0024 B816     		.uleb128 .L209-.LFB2328
 4464 0026 00       		.uleb128 0
 4465 0027 DC03     		.uleb128 .LEHB25-.LFB2328
 4466 0029 04       		.uleb128 .LEHE25-.LEHB25
 4467 002a D814     		.uleb128 .L210-.LFB2328
 4468 002c 00       		.uleb128 0
 4469 002d A004     		.uleb128 .LEHB26-.LFB2328
 4470 002f 04       		.uleb128 .LEHE26-.LEHB26
 4471 0030 B416     		.uleb128 .L211-.LFB2328
 4472 0032 00       		.uleb128 0
 4473 0033 E004     		.uleb128 .LEHB27-.LFB2328
 4474 0035 04       		.uleb128 .LEHE27-.LEHB27
 4475 0036 A015     		.uleb128 .L212-.LFB2328
 4476 0038 00       		.uleb128 0
 4477 0039 A405     		.uleb128 .LEHB28-.LFB2328
 4478 003b 04       		.uleb128 .LEHE28-.LEHB28
 4479 003c B016     		.uleb128 .L213-.LFB2328
 4480 003e 00       		.uleb128 0
 4481 003f E405     		.uleb128 .LEHB29-.LFB2328
 4482 0041 04       		.uleb128 .LEHE29-.LEHB29
 4483 0042 E815     		.uleb128 .L214-.LFB2328
 4484 0044 00       		.uleb128 0
 4485 0045 940B     		.uleb128 .LEHB30-.LFB2328
 4486 0047 04       		.uleb128 .LEHE30-.LEHB30
 4487 0048 B018     		.uleb128 .L215-.LFB2328
 4488 004a 00       		.uleb128 0
 4489 004b B40B     		.uleb128 .LEHB31-.LFB2328
 4490 004d 04       		.uleb128 .LEHE31-.LEHB31
 4491 004e BC16     		.uleb128 .L216-.LFB2328
 4492 0050 00       		.uleb128 0
 4493 0051 F80B     		.uleb128 .LEHB32-.LFB2328
 4494 0053 04       		.uleb128 .LEHE32-.LEHB32
 4495 0054 AC18     		.uleb128 .L217-.LFB2328
 4496 0056 00       		.uleb128 0
 4497 0057 B80C     		.uleb128 .LEHB33-.LFB2328
 4498 0059 04       		.uleb128 .LEHE33-.LEHB33
 4499 005a CC16     		.uleb128 .L218-.LFB2328
 4500 005c 00       		.uleb128 0
 4501 005d FC0C     		.uleb128 .LEHB34-.LFB2328
 4502 005f 04       		.uleb128 .LEHE34-.LEHB34
 4503 0060 A818     		.uleb128 .L219-.LFB2328
 4504 0062 00       		.uleb128 0
 4505 0063 BC0D     		.uleb128 .LEHB35-.LFB2328
 4506 0065 04       		.uleb128 .LEHE35-.LEHB35
 4507 0066 9417     		.uleb128 .L220-.LFB2328
 4508 0068 00       		.uleb128 0
 4509 0069 800E     		.uleb128 .LEHB36-.LFB2328
 4510 006b 04       		.uleb128 .LEHE36-.LEHB36
 4511 006c A418     		.uleb128 .L221-.LFB2328
 4512 006e 00       		.uleb128 0
 4513 006f C00E     		.uleb128 .LEHB37-.LFB2328
 4514 0071 04       		.uleb128 .LEHE37-.LEHB37
 4515 0072 DC17     		.uleb128 .L222-.LFB2328
 4516 0074 00       		.uleb128 0
 4517 0075 C418     		.uleb128 .LEHB38-.LFB2328
 4518 0077 04       		.uleb128 .LEHE38-.LEHB38
 4519 0078 00       		.uleb128 0
 4520 0079 00       		.uleb128 0
 4521              	.LLSDACSE2328:
 4522              		.section	.text._ZN5zxing22WhiteRectangleDetector11centerEdgesENS_3RefINS_11ResultPointEEES3_S3_S3_
 4523              		.fnend
 4525              		.section	.text._ZN5zxing22WhiteRectangleDetector18containsBlackPointEiiib,"ax",%progbits
 4526              		.align	2
 4527              		.global	_ZN5zxing22WhiteRectangleDetector18containsBlackPointEiiib
 4528              		.syntax unified
 4529              		.arm
 4530              		.fpu neon
 4532              	_ZN5zxing22WhiteRectangleDetector18containsBlackPointEiiib:
 4533              		.fnstart
 4534              	.LFB2329:
 314:../src/zxing_lib/zxing/common/detector/WhiteRectangleDetector.cpp ****   if (horizontal) {
 4535              		.loc 4 314 0
 4536              		.cfi_startproc
 4537              		@ args = 4, pretend = 0, frame = 0
 4538              		@ frame_needed = 0, uses_anonymous_args = 0
 4539              	.LVL450:
 4540 0000 30402DE9 		push	{r4, r5, lr}
 4541              		.cfi_def_cfa_offset 12
 4542              		.cfi_offset 4, -12
 4543              		.cfi_offset 5, -8
 4544              		.cfi_offset 14, -4
 4545 0004 0C40DDE5 		ldrb	r4, [sp, #12]	@ zero_extendqisi2
 4546              	.LBB1707:
 315:../src/zxing_lib/zxing/common/detector/WhiteRectangleDetector.cpp ****     for (int x = a; x <= b; x++) {
 4547              		.loc 4 315 0
 4548 0008 000054E3 		cmp	r4, #0
 4549 000c 0E00000A 		beq	.L256
 4550              	.LVL451:
 4551              	.L258:
 4552              	.LBB1708:
 316:../src/zxing_lib/zxing/common/detector/WhiteRectangleDetector.cpp ****       if (image_->get(x, fixed)) {
 4553              		.loc 4 316 0 discriminator 1
 4554 0010 020051E1 		cmp	r1, r2
 4555 0014 1B0000CA 		bgt	.L259
 4556              	.LVL452:
 4557              	.LBB1709:
 4558              	.LBB1710:
 112:/home/zkmike/workspace/RZA2M/rza2m_2d_barcode_sample_freertos_gcc/src/zxing_lib/zxing/common/Counted.h ****   }
 4559              		.loc 3 112 0
 4560 0018 08E090E5 		ldr	lr, [r0, #8]
 4561              	.LVL453:
 4562              	.LBE1710:
 4563              	.LBE1709:
 4564              	.LBB1711:
 4565              	.LBB1712:
  59:/home/zkmike/workspace/RZA2M/rza2m_2d_barcode_sample_freertos_gcc/src/zxing_lib/zxing/common/BitMatrix.h ****     return ((((unsigned)bits[offset]) >> (x & bitsMask)) & 1) != 0;
 4566              		.loc 9 59 0
 4567 001c 10C09EE5 		ldr	ip, [lr, #16]
 4568 0020 C152A0E1 		asr	r5, r1, #5
 4569 0024 9C532CE0 		mla	ip, ip, r3, r5
 4570              	.LVL454:
 4571              	.LBB1713:
 4572              	.LBB1714:
 4573              		.loc 10 124 0
 4574 0028 1CE09EE5 		ldr	lr, [lr, #28]
 4575              	.LVL455:
 4576              	.LBB1715:
 4577              	.LBB1716:
 4578              	.LBB1717:
 4579              	.LBB1718:
 781:/home/zkmike/.local/share/renesas/e2_studio/toolchains/gcc_arm/gcc-arm-none-eabi-6-2017-q2-update/arm-none-eabi/include/c++/6.3.1/bits/stl_vector.h **** 
 4580              		.loc 11 781 0
 4581 002c 08E09EE5 		ldr	lr, [lr, #8]
 4582              	.LVL456:
 4583              	.LBE1718:
 4584              	.LBE1717:
 4585              	.LBE1716:
 4586              	.LBE1715:
 4587              	.LBE1714:
 4588              	.LBE1713:
 4589              		.loc 9 60 0
 4590 0030 0CC19EE7 		ldr	ip, [lr, ip, lsl #2]
 4591              	.LVL457:
 4592 0034 1FE001E2 		and	lr, r1, #31
 4593 0038 3CCEA0E1 		lsr	ip, ip, lr
 4594              	.LVL458:
 4595              	.LBE1712:
 4596              	.LBE1711:
 317:../src/zxing_lib/zxing/common/detector/WhiteRectangleDetector.cpp ****         return true;
 4597              		.loc 4 317 0
 4598 003c 01001CE3 		tst	ip, #1
 4599 0040 1100001A 		bne	.L257
 316:../src/zxing_lib/zxing/common/detector/WhiteRectangleDetector.cpp ****       if (image_->get(x, fixed)) {
 4600              		.loc 4 316 0 discriminator 2
 4601 0044 011081E2 		add	r1, r1, #1
 4602              	.LVL459:
 4603 0048 F0FFFFEA 		b	.L258
 4604              	.LVL460:
 4605              	.L256:
 4606              	.LBE1708:
 4607              	.LBB1719:
 322:../src/zxing_lib/zxing/common/detector/WhiteRectangleDetector.cpp ****       if (image_->get(fixed, y)) {
 4608              		.loc 4 322 0 discriminator 1
 4609 004c 020051E1 		cmp	r1, r2
 4610 0050 0D0000CA 		bgt	.L257
 4611              	.LVL461:
 4612              	.LBB1720:
 4613              	.LBB1721:
 112:/home/zkmike/workspace/RZA2M/rza2m_2d_barcode_sample_freertos_gcc/src/zxing_lib/zxing/common/Counted.h ****   }
 4614              		.loc 3 112 0
 4615 0054 08E090E5 		ldr	lr, [r0, #8]
 4616              	.LVL462:
 4617              	.LBE1721:
 4618              	.LBE1720:
 4619              	.LBB1722:
 4620              	.LBB1723:
  59:/home/zkmike/workspace/RZA2M/rza2m_2d_barcode_sample_freertos_gcc/src/zxing_lib/zxing/common/BitMatrix.h ****     return ((((unsigned)bits[offset]) >> (x & bitsMask)) & 1) != 0;
 4621              		.loc 9 59 0
 4622 0058 10C09EE5 		ldr	ip, [lr, #16]
 4623 005c C352A0E1 		asr	r5, r3, #5
 4624 0060 9C512CE0 		mla	ip, ip, r1, r5
 4625              	.LVL463:
 4626              	.LBB1724:
 4627              	.LBB1725:
 4628              		.loc 10 124 0
 4629 0064 1CE09EE5 		ldr	lr, [lr, #28]
 4630              	.LVL464:
 4631              	.LBB1726:
 4632              	.LBB1727:
 4633              	.LBB1728:
 4634              	.LBB1729:
 781:/home/zkmike/.local/share/renesas/e2_studio/toolchains/gcc_arm/gcc-arm-none-eabi-6-2017-q2-update/arm-none-eabi/include/c++/6.3.1/bits/stl_vector.h **** 
 4635              		.loc 11 781 0
 4636 0068 08E09EE5 		ldr	lr, [lr, #8]
 4637              	.LVL465:
 4638              	.LBE1729:
 4639              	.LBE1728:
 4640              	.LBE1727:
 4641              	.LBE1726:
 4642              	.LBE1725:
 4643              	.LBE1724:
 4644              		.loc 9 60 0
 4645 006c 0CC19EE7 		ldr	ip, [lr, ip, lsl #2]
 4646              	.LVL466:
 4647 0070 1FE003E2 		and	lr, r3, #31
 4648 0074 3CCEA0E1 		lsr	ip, ip, lr
 4649              	.LVL467:
 4650              	.LBE1723:
 4651              	.LBE1722:
 323:../src/zxing_lib/zxing/common/detector/WhiteRectangleDetector.cpp ****         return true;
 4652              		.loc 4 323 0
 4653 0078 01001CE3 		tst	ip, #1
 4654 007c 0400001A 		bne	.L260
 322:../src/zxing_lib/zxing/common/detector/WhiteRectangleDetector.cpp ****       if (image_->get(fixed, y)) {
 4655              		.loc 4 322 0 discriminator 2
 4656 0080 011081E2 		add	r1, r1, #1
 4657              	.LVL468:
 4658 0084 F0FFFFEA 		b	.L256
 4659              	.LVL469:
 4660              	.L259:
 4661              	.LBE1719:
 4662              	.LBE1707:
 329:../src/zxing_lib/zxing/common/detector/WhiteRectangleDetector.cpp **** }
 4663              		.loc 4 329 0
 4664 0088 0040A0E3 		mov	r4, #0
 4665              	.LVL470:
 4666              	.L257:
 4667              		.loc 4 330 0
 4668 008c 0400A0E1 		mov	r0, r4
 4669              	.LVL471:
 4670 0090 3080BDE8 		pop	{r4, r5, pc}
 4671              	.LVL472:
 4672              	.L260:
 4673              	.LBB1731:
 4674              	.LBB1730:
 324:../src/zxing_lib/zxing/common/detector/WhiteRectangleDetector.cpp ****       }
 4675              		.loc 4 324 0
 4676 0094 0140A0E3 		mov	r4, #1
 4677 0098 FBFFFFEA 		b	.L257
 4678              	.LBE1730:
 4679              	.LBE1731:
 4680              		.cfi_endproc
 4681              	.LFE2329:
 4682              		.cantunwind
 4683              		.fnend
 4685              		.section	.text._ZN5zxing22WhiteRectangleDetector6detectEv,"ax",%progbits
 4686              		.align	2
 4687              		.global	_ZN5zxing22WhiteRectangleDetector6detectEv
 4688              		.syntax unified
 4689              		.arm
 4690              		.fpu neon
 4692              	_ZN5zxing22WhiteRectangleDetector6detectEv:
 4693              		.fnstart
 4694              	.LFB2326:
  82:../src/zxing_lib/zxing/common/detector/WhiteRectangleDetector.cpp ****   int left = leftInit_;
 4695              		.loc 4 82 0
 4696              		.cfi_startproc
 4697              		.cfi_personality 0,__gxx_personality_v0
 4698              		.cfi_lsda 0,.LLSDA2326
 4699              		@ args = 0, pretend = 0, frame = 56
 4700              		@ frame_needed = 0, uses_anonymous_args = 0
 4701              	.LVL473:
 4702 0000 F04F2DE9 		push	{r4, r5, r6, r7, r8, r9, r10, fp, lr}
 4703              		.save {r4, r5, r6, r7, r8, r9, r10, fp, lr}
 4704              		.cfi_def_cfa_offset 36
 4705              		.cfi_offset 4, -36
 4706              		.cfi_offset 5, -32
 4707              		.cfi_offset 6, -28
 4708              		.cfi_offset 7, -24
 4709              		.cfi_offset 8, -20
 4710              		.cfi_offset 9, -16
 4711              		.cfi_offset 10, -12
 4712              		.cfi_offset 11, -8
 4713              		.cfi_offset 14, -4
 4714              		.pad #68
 4715 0004 44D04DE2 		sub	sp, sp, #68
 4716              		.cfi_def_cfa_offset 104
 4717 0008 0C008DE5 		str	r0, [sp, #12]
 4718 000c 0150A0E1 		mov	r5, r1
  83:../src/zxing_lib/zxing/common/detector/WhiteRectangleDetector.cpp ****   int right = rightInit_;
 4719              		.loc 4 83 0
 4720 0010 148091E5 		ldr	r8, [r1, #20]
 4721              	.LVL474:
  84:../src/zxing_lib/zxing/common/detector/WhiteRectangleDetector.cpp ****   int up = upInit_;
 4722              		.loc 4 84 0
 4723 0014 186091E5 		ldr	r6, [r1, #24]
 4724              	.LVL475:
  85:../src/zxing_lib/zxing/common/detector/WhiteRectangleDetector.cpp ****   int down = downInit_;
 4725              		.loc 4 85 0
 4726 0018 209091E5 		ldr	r9, [r1, #32]
 4727              	.LVL476:
  86:../src/zxing_lib/zxing/common/detector/WhiteRectangleDetector.cpp **** 
 4728              		.loc 4 86 0
 4729 001c 1C7091E5 		ldr	r7, [r1, #28]
 4730              	.LVL477:
  90:../src/zxing_lib/zxing/common/detector/WhiteRectangleDetector.cpp **** 
 4731              		.loc 4 90 0
 4732 0020 00B0A0E3 		mov	fp, #0
  89:../src/zxing_lib/zxing/common/detector/WhiteRectangleDetector.cpp ****   bool atLeastOneBlackPointFoundOnBorder = false;
 4733              		.loc 4 89 0
 4734 0024 0140A0E3 		mov	r4, #1
 4735 0028 3B0000EA 		b	.L263
 4736              	.LVL478:
 4737              	.L266:
 4738              	.LBB1968:
 107:../src/zxing_lib/zxing/common/detector/WhiteRectangleDetector.cpp ****       sizeExceeded = true;
 4739              		.loc 4 107 0
 4740 002c 0C3095E5 		ldr	r3, [r5, #12]
 4741 0030 030056E1 		cmp	r6, r3
 4742 0034 4C0000AA 		bge	.L265
 4743 0038 0400A0E1 		mov	r0, r4
 4744              	.LVL479:
 4745              	.L268:
 116:../src/zxing_lib/zxing/common/detector/WhiteRectangleDetector.cpp ****       bottomBorderNotWhite = containsBlackPoint(left, right, down, true);
 4746              		.loc 4 116 0
 4747 003c 000050E3 		cmp	r0, #0
 4748 0040 0D00000A 		beq	.L269
 116:../src/zxing_lib/zxing/common/detector/WhiteRectangleDetector.cpp ****       bottomBorderNotWhite = containsBlackPoint(left, right, down, true);
 4749              		.loc 4 116 0 is_stmt 0 discriminator 1
 4750 0044 103095E5 		ldr	r3, [r5, #16]
 4751 0048 030057E1 		cmp	r7, r3
 4752 004c 0A0000AA 		bge	.L269
 117:../src/zxing_lib/zxing/common/detector/WhiteRectangleDetector.cpp ****       if (bottomBorderNotWhite) {
 4753              		.loc 4 117 0 is_stmt 1
 4754 0050 0130A0E3 		mov	r3, #1
 4755 0054 00308DE5 		str	r3, [sp]
 4756 0058 0730A0E1 		mov	r3, r7
 4757 005c 0620A0E1 		mov	r2, r6
 4758 0060 0810A0E1 		mov	r1, r8
 4759 0064 0500A0E1 		mov	r0, r5
 4760              	.LVL480:
 4761 0068 FEFFFFEB 		bl	_ZN5zxing22WhiteRectangleDetector18containsBlackPointEiiib
 4762              	.LVL481:
 118:../src/zxing_lib/zxing/common/detector/WhiteRectangleDetector.cpp ****         down++;
 4763              		.loc 4 118 0
 4764 006c 000050E3 		cmp	r0, #0
 4765              	.LVL482:
 119:../src/zxing_lib/zxing/common/detector/WhiteRectangleDetector.cpp ****         aBlackPointFoundOnBorder = true;
 4766              		.loc 4 119 0
 4767 0070 01708712 		addne	r7, r7, #1
 4768              	.LVL483:
 120:../src/zxing_lib/zxing/common/detector/WhiteRectangleDetector.cpp ****       }
 4769              		.loc 4 120 0
 4770 0074 00A0A011 		movne	r10, r0
 4771 0078 EFFFFFEA 		b	.L268
 4772              	.LVL484:
 4773              	.L269:
 124:../src/zxing_lib/zxing/common/detector/WhiteRectangleDetector.cpp ****       sizeExceeded = true;
 4774              		.loc 4 124 0
 4775 007c 103095E5 		ldr	r3, [r5, #16]
 4776 0080 030057E1 		cmp	r7, r3
 4777 0084 380000AA 		bge	.L265
 4778              	.LVL485:
 4779              	.L271:
 133:../src/zxing_lib/zxing/common/detector/WhiteRectangleDetector.cpp ****       leftBorderNotWhite = containsBlackPoint(up, down, left, false);
 4780              		.loc 4 133 0
 4781 0088 014024E2 		eor	r4, r4, #1
 4782              	.LVL486:
 4783 008c A84F84E1 		orr	r4, r4, r8, lsr #31
 4784 0090 FF4014E2 		ands	r4, r4, #255
 4785 0094 0A00001A 		bne	.L272
 134:../src/zxing_lib/zxing/common/detector/WhiteRectangleDetector.cpp ****       if (leftBorderNotWhite) {
 4786              		.loc 4 134 0
 4787 0098 0030A0E3 		mov	r3, #0
 4788 009c 00308DE5 		str	r3, [sp]
 4789 00a0 0830A0E1 		mov	r3, r8
 4790 00a4 0720A0E1 		mov	r2, r7
 4791 00a8 0910A0E1 		mov	r1, r9
 4792 00ac 0500A0E1 		mov	r0, r5
 4793 00b0 FEFFFFEB 		bl	_ZN5zxing22WhiteRectangleDetector18containsBlackPointEiiib
 4794              	.LVL487:
 135:../src/zxing_lib/zxing/common/detector/WhiteRectangleDetector.cpp ****         left--;
 4795              		.loc 4 135 0
 4796 00b4 004050E2 		subs	r4, r0, #0
 136:../src/zxing_lib/zxing/common/detector/WhiteRectangleDetector.cpp ****         aBlackPointFoundOnBorder = true;
 4797              		.loc 4 136 0
 4798 00b8 01804812 		subne	r8, r8, #1
 4799              	.LVL488:
 137:../src/zxing_lib/zxing/common/detector/WhiteRectangleDetector.cpp ****       }
 4800              		.loc 4 137 0
 4801 00bc 04A0A011 		movne	r10, r4
 4802 00c0 F0FFFFEA 		b	.L271
 4803              	.LVL489:
 4804              	.L272:
 141:../src/zxing_lib/zxing/common/detector/WhiteRectangleDetector.cpp ****       sizeExceeded = true;
 4805              		.loc 4 141 0
 4806 00c4 000058E3 		cmp	r8, #0
 4807 00c8 270000BA 		blt	.L265
 4808              	.LVL490:
 4809              	.L274:
 150:../src/zxing_lib/zxing/common/detector/WhiteRectangleDetector.cpp ****       topBorderNotWhite = containsBlackPoint(left, right, up, true);
 4810              		.loc 4 150 0
 4811 00cc 014024E2 		eor	r4, r4, #1
 4812              	.LVL491:
 4813 00d0 A94F84E1 		orr	r4, r4, r9, lsr #31
 4814 00d4 FF4014E2 		ands	r4, r4, #255
 4815 00d8 0A00001A 		bne	.L275
 151:../src/zxing_lib/zxing/common/detector/WhiteRectangleDetector.cpp ****       if (topBorderNotWhite) {
 4816              		.loc 4 151 0
 4817 00dc 0130A0E3 		mov	r3, #1
 4818 00e0 00308DE5 		str	r3, [sp]
 4819 00e4 0930A0E1 		mov	r3, r9
 4820 00e8 0620A0E1 		mov	r2, r6
 4821 00ec 0810A0E1 		mov	r1, r8
 4822 00f0 0500A0E1 		mov	r0, r5
 4823 00f4 FEFFFFEB 		bl	_ZN5zxing22WhiteRectangleDetector18containsBlackPointEiiib
 4824              	.LVL492:
 152:../src/zxing_lib/zxing/common/detector/WhiteRectangleDetector.cpp ****         up--;
 4825              		.loc 4 152 0
 4826 00f8 004050E2 		subs	r4, r0, #0
 153:../src/zxing_lib/zxing/common/detector/WhiteRectangleDetector.cpp ****         aBlackPointFoundOnBorder = true;
 4827              		.loc 4 153 0
 4828 00fc 01904912 		subne	r9, r9, #1
 4829              	.LVL493:
 154:../src/zxing_lib/zxing/common/detector/WhiteRectangleDetector.cpp ****       }
 4830              		.loc 4 154 0
 4831 0100 04A0A011 		movne	r10, r4
 4832 0104 F0FFFFEA 		b	.L274
 4833              	.LVL494:
 4834              	.L275:
 158:../src/zxing_lib/zxing/common/detector/WhiteRectangleDetector.cpp ****       sizeExceeded = true;
 4835              		.loc 4 158 0
 4836 0108 000059E3 		cmp	r9, #0
 4837 010c 160000BA 		blt	.L265
 163:../src/zxing_lib/zxing/common/detector/WhiteRectangleDetector.cpp ****       atLeastOneBlackPointFoundOnBorder = true;
 4838              		.loc 4 163 0
 4839 0110 00005AE3 		cmp	r10, #0
 164:../src/zxing_lib/zxing/common/detector/WhiteRectangleDetector.cpp ****     }
 4840              		.loc 4 164 0
 4841 0114 0AB0A011 		movne	fp, r10
 4842              	.LVL495:
 4843              	.L277:
 4844 0118 0A40A0E1 		mov	r4, r10
 4845              	.LVL496:
 4846              	.L263:
 4847              	.LBE1968:
  92:../src/zxing_lib/zxing/common/detector/WhiteRectangleDetector.cpp ****     aBlackPointFoundOnBorder = false;
 4848              		.loc 4 92 0
 4849 011c 000054E3 		cmp	r4, #0
 4850 0120 1100000A 		beq	.L265
 4851 0124 0400A0E1 		mov	r0, r4
 4852 0128 00A0A0E3 		mov	r10, #0
 4853              	.LVL497:
 4854              	.L264:
 4855              	.LBB1969:
  99:../src/zxing_lib/zxing/common/detector/WhiteRectangleDetector.cpp ****       rightBorderNotWhite = containsBlackPoint(up, down, right, false);
 4856              		.loc 4 99 0
 4857 012c 000050E3 		cmp	r0, #0
 4858 0130 BDFFFF0A 		beq	.L266
  99:../src/zxing_lib/zxing/common/detector/WhiteRectangleDetector.cpp ****       rightBorderNotWhite = containsBlackPoint(up, down, right, false);
 4859              		.loc 4 99 0 is_stmt 0 discriminator 1
 4860 0134 0C3095E5 		ldr	r3, [r5, #12]
 4861 0138 030056E1 		cmp	r6, r3
 4862 013c BAFFFFAA 		bge	.L266
 100:../src/zxing_lib/zxing/common/detector/WhiteRectangleDetector.cpp ****       if (rightBorderNotWhite) {
 4863              		.loc 4 100 0 is_stmt 1
 4864 0140 0030A0E3 		mov	r3, #0
 4865 0144 00308DE5 		str	r3, [sp]
 4866 0148 0630A0E1 		mov	r3, r6
 4867 014c 0720A0E1 		mov	r2, r7
 4868 0150 0910A0E1 		mov	r1, r9
 4869 0154 0500A0E1 		mov	r0, r5
 4870              	.LVL498:
 4871 0158 FEFFFFEB 		bl	_ZN5zxing22WhiteRectangleDetector18containsBlackPointEiiib
 4872              	.LVL499:
 101:../src/zxing_lib/zxing/common/detector/WhiteRectangleDetector.cpp ****         right++;
 4873              		.loc 4 101 0
 4874 015c 000050E3 		cmp	r0, #0
 4875              	.LVL500:
 102:../src/zxing_lib/zxing/common/detector/WhiteRectangleDetector.cpp ****         aBlackPointFoundOnBorder = true;
 4876              		.loc 4 102 0
 4877 0160 01608612 		addne	r6, r6, #1
 4878              	.LVL501:
 103:../src/zxing_lib/zxing/common/detector/WhiteRectangleDetector.cpp ****       }
 4879              		.loc 4 103 0
 4880 0164 00A0A011 		movne	r10, r0
 4881 0168 EFFFFFEA 		b	.L264
 4882              	.LVL502:
 4883              	.L265:
 4884              	.LBE1969:
 4885              	.LBB1970:
 168:../src/zxing_lib/zxing/common/detector/WhiteRectangleDetector.cpp **** 
 4886              		.loc 4 168 0
 4887 016c 013024E2 		eor	r3, r4, #1
 4888 0170 7330EFE6 		uxtb	r3, r3
 4889 0174 03001BE1 		tst	fp, r3
 4890 0178 0102000A 		beq	.L279
 4891              	.LBB1971:
 170:../src/zxing_lib/zxing/common/detector/WhiteRectangleDetector.cpp **** 
 4892              		.loc 4 170 0
 4893 017c 08A046E0 		sub	r10, r6, r8
 4894              	.LVL503:
 4895              	.LBB1972:
 4896              	.LBB1973:
 4897              	.LBB1974:
 4898              	.LBB1975:
 4899              	.LBB1976:
  87:/home/zkmike/workspace/RZA2M/rza2m_2d_barcode_sample_freertos_gcc/src/zxing_lib/zxing/common/Counted.h ****   }
 4900              		.loc 3 87 0
 4901 0180 0030A0E3 		mov	r3, #0
 4902 0184 10308DE5 		str	r3, [sp, #16]
 4903              	.LBE1976:
 4904              	.LBE1975:
 4905              	.LBE1974:
 4906              	.LBE1973:
 4907              	.LBE1972:
 4908              	.LBB1977:
 174:../src/zxing_lib/zxing/common/detector/WhiteRectangleDetector.cpp ****       z = getBlackPointOnSegment(left, down - i, left + i, down);
 4909              		.loc 4 174 0
 4910 0188 0140A0E3 		mov	r4, #1
 4911              	.LVL504:
 4912 018c 190000EA 		b	.L285
 4913              	.LVL505:
 4914              	.L347:
 4915              	.LBB1978:
 4916              	.LBB1979:
  90:/home/zkmike/workspace/RZA2M/rza2m_2d_barcode_sample_freertos_gcc/src/zxing_lib/zxing/common/Counted.h ****     return *this;
 4917              		.loc 3 90 0
 4918 0190 20B09DE5 		ldr	fp, [sp, #32]
 4919              	.LVL506:
 4920              	.LBB1980:
 4921              	.LBB1981:
  81:/home/zkmike/workspace/RZA2M/rza2m_2d_barcode_sample_freertos_gcc/src/zxing_lib/zxing/common/Counted.h ****       o->retain();
 4922              		.loc 3 81 0
 4923 0194 00005BE3 		cmp	fp, #0
 4924              	.LVL507:
 4925              	.LBB1982:
 4926              	.LBB1983:
  36:/home/zkmike/workspace/RZA2M/rza2m_2d_barcode_sample_freertos_gcc/src/zxing_lib/zxing/common/Counted.h ****     return this;
 4927              		.loc 3 36 0
 4928 0198 04309B15 		ldrne	r3, [fp, #4]
 4929 019c 01308312 		addne	r3, r3, #1
 4930 01a0 04308B15 		strne	r3, [fp, #4]
 4931              	.LVL508:
 4932              	.L282:
 4933              	.LBE1983:
 4934              	.LBE1982:
  84:/home/zkmike/workspace/RZA2M/rza2m_2d_barcode_sample_freertos_gcc/src/zxing_lib/zxing/common/Counted.h ****       object_->release();
 4935              		.loc 3 84 0
 4936 01a4 10009DE5 		ldr	r0, [sp, #16]
 4937 01a8 000050E3 		cmp	r0, #0
 4938 01ac 0400000A 		beq	.L283
 4939              	.LVL509:
 4940              	.LBB1984:
 4941              	.LBB1985:
  40:/home/zkmike/workspace/RZA2M/rza2m_2d_barcode_sample_freertos_gcc/src/zxing_lib/zxing/common/Counted.h ****     if (count_ == 0) {
 4942              		.loc 3 40 0
 4943 01b0 043090E5 		ldr	r3, [r0, #4]
 4944 01b4 013043E2 		sub	r3, r3, #1
 4945 01b8 043080E5 		str	r3, [r0, #4]
  41:/home/zkmike/workspace/RZA2M/rza2m_2d_barcode_sample_freertos_gcc/src/zxing_lib/zxing/common/Counted.h ****       count_ = 0xDEADF001;
 4946              		.loc 3 41 0
 4947 01bc 000053E3 		cmp	r3, #0
 4948 01c0 1700000A 		beq	.L345
 4949              	.LVL510:
 4950              	.L283:
 4951              	.LBE1985:
 4952              	.LBE1984:
  87:/home/zkmike/workspace/RZA2M/rza2m_2d_barcode_sample_freertos_gcc/src/zxing_lib/zxing/common/Counted.h ****   }
 4953              		.loc 3 87 0
 4954 01c4 10B08DE5 		str	fp, [sp, #16]
 4955              	.LVL511:
 4956              	.LBE1981:
 4957              	.LBE1980:
 4958              	.LBE1979:
 4959              	.LBE1978:
 4960              	.LBB1991:
 4961              	.LBB1992:
  75:/home/zkmike/workspace/RZA2M/rza2m_2d_barcode_sample_freertos_gcc/src/zxing_lib/zxing/common/Counted.h ****       object_->release();
 4962              		.loc 3 75 0
 4963 01c8 20009DE5 		ldr	r0, [sp, #32]
 4964 01cc 000050E3 		cmp	r0, #0
 4965 01d0 0400000A 		beq	.L284
 4966              	.LVL512:
 4967              	.LBB1993:
 4968              	.LBB1994:
  40:/home/zkmike/workspace/RZA2M/rza2m_2d_barcode_sample_freertos_gcc/src/zxing_lib/zxing/common/Counted.h ****     if (count_ == 0) {
 4969              		.loc 3 40 0
 4970 01d4 043090E5 		ldr	r3, [r0, #4]
 4971 01d8 013043E2 		sub	r3, r3, #1
 4972 01dc 043080E5 		str	r3, [r0, #4]
  41:/home/zkmike/workspace/RZA2M/rza2m_2d_barcode_sample_freertos_gcc/src/zxing_lib/zxing/common/Counted.h ****       count_ = 0xDEADF001;
 4973              		.loc 3 41 0
 4974 01e0 000053E3 		cmp	r3, #0
 4975 01e4 1500000A 		beq	.L346
 4976              	.LVL513:
 4977              	.L284:
 4978              	.LBE1994:
 4979              	.LBE1993:
 4980              	.LBE1992:
 4981              	.LBE1991:
 4982              	.LBB1998:
 4983              	.LBB1999:
 4984              	.LBB2000:
 116:/home/zkmike/workspace/RZA2M/rza2m_2d_barcode_sample_freertos_gcc/src/zxing_lib/zxing/common/Counted.h ****   }
 117:/home/zkmike/workspace/RZA2M/rza2m_2d_barcode_sample_freertos_gcc/src/zxing_lib/zxing/common/Counted.h **** 
 118:/home/zkmike/workspace/RZA2M/rza2m_2d_barcode_sample_freertos_gcc/src/zxing_lib/zxing/common/Counted.h ****   bool operator==(const T* that) {
 119:/home/zkmike/workspace/RZA2M/rza2m_2d_barcode_sample_freertos_gcc/src/zxing_lib/zxing/common/Counted.h ****     return object_ == that;
 4985              		.loc 3 119 0
 4986 01e8 10309DE5 		ldr	r3, [sp, #16]
 4987              	.LVL514:
 4988              	.LBE2000:
 4989              	.LBE1999:
 4990              	.LBE1998:
 176:../src/zxing_lib/zxing/common/detector/WhiteRectangleDetector.cpp ****         break;
 4991              		.loc 4 176 0
 4992 01ec 000053E3 		cmp	r3, #0
 4993 01f0 1900001A 		bne	.L281
 174:../src/zxing_lib/zxing/common/detector/WhiteRectangleDetector.cpp ****       z = getBlackPointOnSegment(left, down - i, left + i, down);
 4994              		.loc 4 174 0 discriminator 2
 4995 01f4 014084E2 		add	r4, r4, #1
 4996              	.LVL515:
 4997              	.L285:
 174:../src/zxing_lib/zxing/common/detector/WhiteRectangleDetector.cpp ****       z = getBlackPointOnSegment(left, down - i, left + i, down);
 4998              		.loc 4 174 0 is_stmt 0 discriminator 1
 4999 01f8 0A0054E1 		cmp	r4, r10
 5000 01fc 160000AA 		bge	.L281
 175:../src/zxing_lib/zxing/common/detector/WhiteRectangleDetector.cpp ****       if (z != NULL) {
 5001              		.loc 4 175 0 is_stmt 1
 5002 0200 04708DE5 		str	r7, [sp, #4]
 5003 0204 043088E0 		add	r3, r8, r4
 5004 0208 00308DE5 		str	r3, [sp]
 5005 020c 043047E0 		sub	r3, r7, r4
 5006 0210 0820A0E1 		mov	r2, r8
 5007 0214 0510A0E1 		mov	r1, r5
 5008 0218 20008DE2 		add	r0, sp, #32
 5009              	.LEHB39:
 5010 021c FEFFFFEB 		bl	_ZN5zxing22WhiteRectangleDetector22getBlackPointOnSegmentEiiii
 5011              	.LVL516:
 5012 0220 DAFFFFEA 		b	.L347
 5013              	.LVL517:
 5014              	.L345:
 5015              	.LBB2001:
 5016              	.LBB1990:
 5017              	.LBB1989:
 5018              	.LBB1988:
 5019              	.LBB1987:
 5020              	.LBB1986:
  42:/home/zkmike/workspace/RZA2M/rza2m_2d_barcode_sample_freertos_gcc/src/zxing_lib/zxing/common/Counted.h ****       delete this;
 5021              		.loc 3 42 0
 5022 0224 01300FE3 		movw	r3, #61441
 5023 0228 AD3E4DE3 		movt	r3, 57005
 5024 022c 043080E5 		str	r3, [r0, #4]
  43:/home/zkmike/workspace/RZA2M/rza2m_2d_barcode_sample_freertos_gcc/src/zxing_lib/zxing/common/Counted.h ****     }
 5025              		.loc 3 43 0
 5026 0230 003090E5 		ldr	r3, [r0]
 5027 0234 043093E5 		ldr	r3, [r3, #4]
 5028 0238 33FF2FE1 		blx	r3
 5029              	.LVL518:
 5030 023c E0FFFFEA 		b	.L283
 5031              	.LVL519:
 5032              	.L346:
 5033              	.LBE1986:
 5034              	.LBE1987:
 5035              	.LBE1988:
 5036              	.LBE1989:
 5037              	.LBE1990:
 5038              	.LBE2001:
 5039              	.LBB2002:
 5040              	.LBB1997:
 5041              	.LBB1996:
 5042              	.LBB1995:
  42:/home/zkmike/workspace/RZA2M/rza2m_2d_barcode_sample_freertos_gcc/src/zxing_lib/zxing/common/Counted.h ****       delete this;
 5043              		.loc 3 42 0
 5044 0240 01300FE3 		movw	r3, #61441
 5045 0244 AD3E4DE3 		movt	r3, 57005
 5046 0248 043080E5 		str	r3, [r0, #4]
  43:/home/zkmike/workspace/RZA2M/rza2m_2d_barcode_sample_freertos_gcc/src/zxing_lib/zxing/common/Counted.h ****     }
 5047              		.loc 3 43 0
 5048 024c 003090E5 		ldr	r3, [r0]
 5049 0250 043093E5 		ldr	r3, [r3, #4]
 5050 0254 33FF2FE1 		blx	r3
 5051              	.LVL520:
 5052 0258 E2FFFFEA 		b	.L284
 5053              	.LVL521:
 5054              	.L281:
 5055              	.LBE1995:
 5056              	.LBE1996:
 5057              	.LBE1997:
 5058              	.LBE2002:
 5059              	.LBE1977:
 5060              	.LBB2003:
 5061              	.LBB2004:
 5062              		.loc 3 119 0
 5063 025c 10309DE5 		ldr	r3, [sp, #16]
 5064              	.LVL522:
 5065              	.LBE2004:
 5066              	.LBE2003:
 181:../src/zxing_lib/zxing/common/detector/WhiteRectangleDetector.cpp ****       throw NotFoundException("z == NULL");
 5067              		.loc 4 181 0
 5068 0260 000053E3 		cmp	r3, #0
 5069              	.LVL523:
 5070              	.LBB2005:
 5071              	.LBB2006:
 5072              	.LBB2007:
 5073              	.LBB2008:
 5074              	.LBB2009:
  87:/home/zkmike/workspace/RZA2M/rza2m_2d_barcode_sample_freertos_gcc/src/zxing_lib/zxing/common/Counted.h ****   }
 5075              		.loc 3 87 0
 5076 0264 0030A013 		movne	r3, #0
 5077 0268 14308D15 		strne	r3, [sp, #20]
 5078              	.LBE2009:
 5079              	.LBE2008:
 5080              	.LBE2007:
 5081              	.LBE2006:
 5082              	.LBE2005:
 5083              	.LBB2010:
 187:../src/zxing_lib/zxing/common/detector/WhiteRectangleDetector.cpp ****       t = getBlackPointOnSegment(left, up + i, left + i, up);
 5084              		.loc 4 187 0
 5085 026c 0140A013 		movne	r4, #1
 5086              	.LVL524:
 5087 0270 2800001A 		bne	.L292
 5088              	.LVL525:
 5089              	.L348:
 5090              	.LBE2010:
 182:../src/zxing_lib/zxing/common/detector/WhiteRectangleDetector.cpp ****     }
 5091              		.loc 4 182 0
 5092 0274 0800A0E3 		mov	r0, #8
 5093 0278 FEFFFFEB 		bl	__cxa_allocate_exception
 5094              	.LVL526:
 5095 027c 0040A0E1 		mov	r4, r0
 5096              	.LVL527:
 5097              	.LBB2036:
 5098              	.LBB2037:
 5099              	.LBB2038:
 5100              	.LBB2039:
  31:/home/zkmike/workspace/RZA2M/rza2m_2d_barcode_sample_freertos_gcc/src/zxing_lib/zxing/ReaderException.h ****   ~ReaderException() throw() {}
 5101              		.loc 7 31 0
 5102 0280 001000E3 		movw	r1, #:lower16:.LC2
 5103 0284 001040E3 		movt	r1, #:upper16:.LC2
 5104 0288 FEFFFFEB 		bl	_ZN5zxing9ExceptionC2EPKc
 5105              	.LVL528:
 5106              	.LBE2039:
 5107              	.LBE2038:
  29:/home/zkmike/workspace/RZA2M/rza2m_2d_barcode_sample_freertos_gcc/src/zxing_lib/zxing/NotFoundException.h ****   ~NotFoundException() throw() {}
 5108              		.loc 6 29 0
 5109 028c EC389FE5 		ldr	r3, .L374
 5110 0290 003084E5 		str	r3, [r4]
 5111              	.LVL529:
 5112              	.LBE2037:
 5113              	.LBE2036:
 182:../src/zxing_lib/zxing/common/detector/WhiteRectangleDetector.cpp ****     }
 5114              		.loc 4 182 0
 5115 0294 002000E3 		movw	r2, #:lower16:_ZN5zxing17NotFoundExceptionD1Ev
 5116 0298 002040E3 		movt	r2, #:upper16:_ZN5zxing17NotFoundExceptionD1Ev
 5117 029c 001000E3 		movw	r1, #:lower16:_ZTIN5zxing17NotFoundExceptionE
 5118 02a0 001040E3 		movt	r1, #:upper16:_ZTIN5zxing17NotFoundExceptionE
 5119 02a4 0400A0E1 		mov	r0, r4
 5120 02a8 FEFFFFEB 		bl	__cxa_throw
 5121              	.LVL530:
 5122              	.LEHE39:
 5123              	.L339:
 5124 02ac 240200EA 		b	.L335
 5125              	.LVL531:
 5126              	.L351:
 5127              	.LBB2040:
 5128              	.LBB2011:
 5129              	.LBB2012:
  90:/home/zkmike/workspace/RZA2M/rza2m_2d_barcode_sample_freertos_gcc/src/zxing_lib/zxing/common/Counted.h ****     return *this;
 5130              		.loc 3 90 0
 5131 02b0 24B09DE5 		ldr	fp, [sp, #36]
 5132              	.LVL532:
 5133              	.LBB2013:
 5134              	.LBB2014:
  81:/home/zkmike/workspace/RZA2M/rza2m_2d_barcode_sample_freertos_gcc/src/zxing_lib/zxing/common/Counted.h ****       o->retain();
 5135              		.loc 3 81 0
 5136 02b4 00005BE3 		cmp	fp, #0
 5137              	.LVL533:
 5138              	.LBB2015:
 5139              	.LBB2016:
  36:/home/zkmike/workspace/RZA2M/rza2m_2d_barcode_sample_freertos_gcc/src/zxing_lib/zxing/common/Counted.h ****     return this;
 5140              		.loc 3 36 0
 5141 02b8 04309B15 		ldrne	r3, [fp, #4]
 5142 02bc 01308312 		addne	r3, r3, #1
 5143 02c0 04308B15 		strne	r3, [fp, #4]
 5144              	.LVL534:
 5145              	.L289:
 5146              	.LBE2016:
 5147              	.LBE2015:
  84:/home/zkmike/workspace/RZA2M/rza2m_2d_barcode_sample_freertos_gcc/src/zxing_lib/zxing/common/Counted.h ****       object_->release();
 5148              		.loc 3 84 0
 5149 02c4 14009DE5 		ldr	r0, [sp, #20]
 5150 02c8 000050E3 		cmp	r0, #0
 5151 02cc 0400000A 		beq	.L290
 5152              	.LVL535:
 5153              	.LBB2017:
 5154              	.LBB2018:
  40:/home/zkmike/workspace/RZA2M/rza2m_2d_barcode_sample_freertos_gcc/src/zxing_lib/zxing/common/Counted.h ****     if (count_ == 0) {
 5155              		.loc 3 40 0
 5156 02d0 043090E5 		ldr	r3, [r0, #4]
 5157 02d4 013043E2 		sub	r3, r3, #1
 5158 02d8 043080E5 		str	r3, [r0, #4]
  41:/home/zkmike/workspace/RZA2M/rza2m_2d_barcode_sample_freertos_gcc/src/zxing_lib/zxing/common/Counted.h ****       count_ = 0xDEADF001;
 5159              		.loc 3 41 0
 5160 02dc 000053E3 		cmp	r3, #0
 5161 02e0 1700000A 		beq	.L349
 5162              	.LVL536:
 5163              	.L290:
 5164              	.LBE2018:
 5165              	.LBE2017:
  87:/home/zkmike/workspace/RZA2M/rza2m_2d_barcode_sample_freertos_gcc/src/zxing_lib/zxing/common/Counted.h ****   }
 5166              		.loc 3 87 0
 5167 02e4 14B08DE5 		str	fp, [sp, #20]
 5168              	.LVL537:
 5169              	.LBE2014:
 5170              	.LBE2013:
 5171              	.LBE2012:
 5172              	.LBE2011:
 5173              	.LBB2024:
 5174              	.LBB2025:
  75:/home/zkmike/workspace/RZA2M/rza2m_2d_barcode_sample_freertos_gcc/src/zxing_lib/zxing/common/Counted.h ****       object_->release();
 5175              		.loc 3 75 0
 5176 02e8 24009DE5 		ldr	r0, [sp, #36]
 5177 02ec 000050E3 		cmp	r0, #0
 5178 02f0 0400000A 		beq	.L291
 5179              	.LVL538:
 5180              	.LBB2026:
 5181              	.LBB2027:
  40:/home/zkmike/workspace/RZA2M/rza2m_2d_barcode_sample_freertos_gcc/src/zxing_lib/zxing/common/Counted.h ****     if (count_ == 0) {
 5182              		.loc 3 40 0
 5183 02f4 043090E5 		ldr	r3, [r0, #4]
 5184 02f8 013043E2 		sub	r3, r3, #1
 5185 02fc 043080E5 		str	r3, [r0, #4]
  41:/home/zkmike/workspace/RZA2M/rza2m_2d_barcode_sample_freertos_gcc/src/zxing_lib/zxing/common/Counted.h ****       count_ = 0xDEADF001;
 5186              		.loc 3 41 0
 5187 0300 000053E3 		cmp	r3, #0
 5188 0304 1500000A 		beq	.L350
 5189              	.LVL539:
 5190              	.L291:
 5191              	.LBE2027:
 5192              	.LBE2026:
 5193              	.LBE2025:
 5194              	.LBE2024:
 5195              	.LBB2031:
 5196              	.LBB2032:
 5197              	.LBB2033:
 5198              		.loc 3 119 0
 5199 0308 14309DE5 		ldr	r3, [sp, #20]
 5200              	.LVL540:
 5201              	.LBE2033:
 5202              	.LBE2032:
 5203              	.LBE2031:
 189:../src/zxing_lib/zxing/common/detector/WhiteRectangleDetector.cpp ****         break;
 5204              		.loc 4 189 0
 5205 030c 000053E3 		cmp	r3, #0
 5206 0310 1900001A 		bne	.L288
 187:../src/zxing_lib/zxing/common/detector/WhiteRectangleDetector.cpp ****       t = getBlackPointOnSegment(left, up + i, left + i, up);
 5207              		.loc 4 187 0 discriminator 2
 5208 0314 014084E2 		add	r4, r4, #1
 5209              	.LVL541:
 5210              	.L292:
 187:../src/zxing_lib/zxing/common/detector/WhiteRectangleDetector.cpp ****       t = getBlackPointOnSegment(left, up + i, left + i, up);
 5211              		.loc 4 187 0 is_stmt 0 discriminator 1
 5212 0318 0A0054E1 		cmp	r4, r10
 5213 031c 160000AA 		bge	.L288
 188:../src/zxing_lib/zxing/common/detector/WhiteRectangleDetector.cpp ****       if (t != NULL) {
 5214              		.loc 4 188 0 is_stmt 1
 5215 0320 04908DE5 		str	r9, [sp, #4]
 5216 0324 043088E0 		add	r3, r8, r4
 5217 0328 00308DE5 		str	r3, [sp]
 5218 032c 043089E0 		add	r3, r9, r4
 5219 0330 0820A0E1 		mov	r2, r8
 5220 0334 0510A0E1 		mov	r1, r5
 5221 0338 24008DE2 		add	r0, sp, #36
 5222              	.LEHB40:
 5223 033c FEFFFFEB 		bl	_ZN5zxing22WhiteRectangleDetector22getBlackPointOnSegmentEiiii
 5224              	.LVL542:
 5225 0340 DAFFFFEA 		b	.L351
 5226              	.LVL543:
 5227              	.L349:
 5228              	.LBB2034:
 5229              	.LBB2023:
 5230              	.LBB2022:
 5231              	.LBB2021:
 5232              	.LBB2020:
 5233              	.LBB2019:
  42:/home/zkmike/workspace/RZA2M/rza2m_2d_barcode_sample_freertos_gcc/src/zxing_lib/zxing/common/Counted.h ****       delete this;
 5234              		.loc 3 42 0
 5235 0344 01300FE3 		movw	r3, #61441
 5236 0348 AD3E4DE3 		movt	r3, 57005
 5237 034c 043080E5 		str	r3, [r0, #4]
  43:/home/zkmike/workspace/RZA2M/rza2m_2d_barcode_sample_freertos_gcc/src/zxing_lib/zxing/common/Counted.h ****     }
 5238              		.loc 3 43 0
 5239 0350 003090E5 		ldr	r3, [r0]
 5240 0354 043093E5 		ldr	r3, [r3, #4]
 5241 0358 33FF2FE1 		blx	r3
 5242              	.LVL544:
 5243 035c E0FFFFEA 		b	.L290
 5244              	.LVL545:
 5245              	.L350:
 5246              	.LBE2019:
 5247              	.LBE2020:
 5248              	.LBE2021:
 5249              	.LBE2022:
 5250              	.LBE2023:
 5251              	.LBE2034:
 5252              	.LBB2035:
 5253              	.LBB2030:
 5254              	.LBB2029:
 5255              	.LBB2028:
  42:/home/zkmike/workspace/RZA2M/rza2m_2d_barcode_sample_freertos_gcc/src/zxing_lib/zxing/common/Counted.h ****       delete this;
 5256              		.loc 3 42 0
 5257 0360 01300FE3 		movw	r3, #61441
 5258 0364 AD3E4DE3 		movt	r3, 57005
 5259 0368 043080E5 		str	r3, [r0, #4]
  43:/home/zkmike/workspace/RZA2M/rza2m_2d_barcode_sample_freertos_gcc/src/zxing_lib/zxing/common/Counted.h ****     }
 5260              		.loc 3 43 0
 5261 036c 003090E5 		ldr	r3, [r0]
 5262 0370 043093E5 		ldr	r3, [r3, #4]
 5263 0374 33FF2FE1 		blx	r3
 5264              	.LVL546:
 5265 0378 E2FFFFEA 		b	.L291
 5266              	.LVL547:
 5267              	.L288:
 5268              	.LBE2028:
 5269              	.LBE2029:
 5270              	.LBE2030:
 5271              	.LBE2035:
 5272              	.LBE2040:
 5273              	.LBB2041:
 5274              	.LBB2042:
 5275              		.loc 3 119 0
 5276 037c 14309DE5 		ldr	r3, [sp, #20]
 5277              	.LVL548:
 5278              	.LBE2042:
 5279              	.LBE2041:
 194:../src/zxing_lib/zxing/common/detector/WhiteRectangleDetector.cpp ****       throw NotFoundException("t == NULL");
 5280              		.loc 4 194 0
 5281 0380 000053E3 		cmp	r3, #0
 5282              	.LVL549:
 5283              	.LBB2043:
 5284              	.LBB2044:
 5285              	.LBB2045:
 5286              	.LBB2046:
 5287              	.LBB2047:
  87:/home/zkmike/workspace/RZA2M/rza2m_2d_barcode_sample_freertos_gcc/src/zxing_lib/zxing/common/Counted.h ****   }
 5288              		.loc 3 87 0
 5289 0384 0030A013 		movne	r3, #0
 5290 0388 18308D15 		strne	r3, [sp, #24]
 5291              	.LBE2047:
 5292              	.LBE2046:
 5293              	.LBE2045:
 5294              	.LBE2044:
 5295              	.LBE2043:
 5296              	.LBB2048:
 200:../src/zxing_lib/zxing/common/detector/WhiteRectangleDetector.cpp ****       x = getBlackPointOnSegment(right, up + i, right - i, up);
 5297              		.loc 4 200 0
 5298 038c 0140A013 		movne	r4, #1
 5299              	.LVL550:
 5300 0390 2800001A 		bne	.L299
 5301              	.LVL551:
 5302              	.L352:
 5303              	.LBE2048:
 195:../src/zxing_lib/zxing/common/detector/WhiteRectangleDetector.cpp ****     }
 5304              		.loc 4 195 0
 5305 0394 0800A0E3 		mov	r0, #8
 5306 0398 FEFFFFEB 		bl	__cxa_allocate_exception
 5307              	.LVL552:
 5308 039c 0040A0E1 		mov	r4, r0
 5309              	.LVL553:
 5310              	.LBB2074:
 5311              	.LBB2075:
 5312              	.LBB2076:
 5313              	.LBB2077:
  31:/home/zkmike/workspace/RZA2M/rza2m_2d_barcode_sample_freertos_gcc/src/zxing_lib/zxing/ReaderException.h ****   ~ReaderException() throw() {}
 5314              		.loc 7 31 0
 5315 03a0 001000E3 		movw	r1, #:lower16:.LC3
 5316 03a4 001040E3 		movt	r1, #:upper16:.LC3
 5317 03a8 FEFFFFEB 		bl	_ZN5zxing9ExceptionC2EPKc
 5318              	.LVL554:
 5319              	.LBE2077:
 5320              	.LBE2076:
  29:/home/zkmike/workspace/RZA2M/rza2m_2d_barcode_sample_freertos_gcc/src/zxing_lib/zxing/NotFoundException.h ****   ~NotFoundException() throw() {}
 5321              		.loc 6 29 0
 5322 03ac CC379FE5 		ldr	r3, .L374
 5323 03b0 003084E5 		str	r3, [r4]
 5324              	.LVL555:
 5325              	.LBE2075:
 5326              	.LBE2074:
 195:../src/zxing_lib/zxing/common/detector/WhiteRectangleDetector.cpp ****     }
 5327              		.loc 4 195 0
 5328 03b4 002000E3 		movw	r2, #:lower16:_ZN5zxing17NotFoundExceptionD1Ev
 5329 03b8 002040E3 		movt	r2, #:upper16:_ZN5zxing17NotFoundExceptionD1Ev
 5330 03bc 001000E3 		movw	r1, #:lower16:_ZTIN5zxing17NotFoundExceptionE
 5331 03c0 001040E3 		movt	r1, #:upper16:_ZTIN5zxing17NotFoundExceptionE
 5332 03c4 0400A0E1 		mov	r0, r4
 5333 03c8 FEFFFFEB 		bl	__cxa_throw
 5334              	.LVL556:
 5335              	.LEHE40:
 5336              	.L340:
 5337 03cc CE0100EA 		b	.L333
 5338              	.LVL557:
 5339              	.L355:
 5340              	.LBB2078:
 5341              	.LBB2049:
 5342              	.LBB2050:
  90:/home/zkmike/workspace/RZA2M/rza2m_2d_barcode_sample_freertos_gcc/src/zxing_lib/zxing/common/Counted.h ****     return *this;
 5343              		.loc 3 90 0
 5344 03d0 28809DE5 		ldr	r8, [sp, #40]
 5345              	.LVL558:
 5346              	.LBB2051:
 5347              	.LBB2052:
  81:/home/zkmike/workspace/RZA2M/rza2m_2d_barcode_sample_freertos_gcc/src/zxing_lib/zxing/common/Counted.h ****       o->retain();
 5348              		.loc 3 81 0
 5349 03d4 000058E3 		cmp	r8, #0
 5350              	.LVL559:
 5351              	.LBB2053:
 5352              	.LBB2054:
  36:/home/zkmike/workspace/RZA2M/rza2m_2d_barcode_sample_freertos_gcc/src/zxing_lib/zxing/common/Counted.h ****     return this;
 5353              		.loc 3 36 0
 5354 03d8 04309815 		ldrne	r3, [r8, #4]
 5355 03dc 01308312 		addne	r3, r3, #1
 5356 03e0 04308815 		strne	r3, [r8, #4]
 5357              	.LVL560:
 5358              	.L296:
 5359              	.LBE2054:
 5360              	.LBE2053:
  84:/home/zkmike/workspace/RZA2M/rza2m_2d_barcode_sample_freertos_gcc/src/zxing_lib/zxing/common/Counted.h ****       object_->release();
 5361              		.loc 3 84 0
 5362 03e4 18009DE5 		ldr	r0, [sp, #24]
 5363 03e8 000050E3 		cmp	r0, #0
 5364 03ec 0400000A 		beq	.L297
 5365              	.LVL561:
 5366              	.LBB2055:
 5367              	.LBB2056:
  40:/home/zkmike/workspace/RZA2M/rza2m_2d_barcode_sample_freertos_gcc/src/zxing_lib/zxing/common/Counted.h ****     if (count_ == 0) {
 5368              		.loc 3 40 0
 5369 03f0 043090E5 		ldr	r3, [r0, #4]
 5370 03f4 013043E2 		sub	r3, r3, #1
 5371 03f8 043080E5 		str	r3, [r0, #4]
  41:/home/zkmike/workspace/RZA2M/rza2m_2d_barcode_sample_freertos_gcc/src/zxing_lib/zxing/common/Counted.h ****       count_ = 0xDEADF001;
 5372              		.loc 3 41 0
 5373 03fc 000053E3 		cmp	r3, #0
 5374 0400 1700000A 		beq	.L353
 5375              	.LVL562:
 5376              	.L297:
 5377              	.LBE2056:
 5378              	.LBE2055:
  87:/home/zkmike/workspace/RZA2M/rza2m_2d_barcode_sample_freertos_gcc/src/zxing_lib/zxing/common/Counted.h ****   }
 5379              		.loc 3 87 0
 5380 0404 18808DE5 		str	r8, [sp, #24]
 5381              	.LVL563:
 5382              	.LBE2052:
 5383              	.LBE2051:
 5384              	.LBE2050:
 5385              	.LBE2049:
 5386              	.LBB2062:
 5387              	.LBB2063:
  75:/home/zkmike/workspace/RZA2M/rza2m_2d_barcode_sample_freertos_gcc/src/zxing_lib/zxing/common/Counted.h ****       object_->release();
 5388              		.loc 3 75 0
 5389 0408 28009DE5 		ldr	r0, [sp, #40]
 5390 040c 000050E3 		cmp	r0, #0
 5391 0410 0400000A 		beq	.L298
 5392              	.LVL564:
 5393              	.LBB2064:
 5394              	.LBB2065:
  40:/home/zkmike/workspace/RZA2M/rza2m_2d_barcode_sample_freertos_gcc/src/zxing_lib/zxing/common/Counted.h ****     if (count_ == 0) {
 5395              		.loc 3 40 0
 5396 0414 043090E5 		ldr	r3, [r0, #4]
 5397 0418 013043E2 		sub	r3, r3, #1
 5398 041c 043080E5 		str	r3, [r0, #4]
  41:/home/zkmike/workspace/RZA2M/rza2m_2d_barcode_sample_freertos_gcc/src/zxing_lib/zxing/common/Counted.h ****       count_ = 0xDEADF001;
 5399              		.loc 3 41 0
 5400 0420 000053E3 		cmp	r3, #0
 5401 0424 1500000A 		beq	.L354
 5402              	.LVL565:
 5403              	.L298:
 5404              	.LBE2065:
 5405              	.LBE2064:
 5406              	.LBE2063:
 5407              	.LBE2062:
 5408              	.LBB2069:
 5409              	.LBB2070:
 5410              	.LBB2071:
 5411              		.loc 3 119 0
 5412 0428 18309DE5 		ldr	r3, [sp, #24]
 5413              	.LVL566:
 5414              	.LBE2071:
 5415              	.LBE2070:
 5416              	.LBE2069:
 202:../src/zxing_lib/zxing/common/detector/WhiteRectangleDetector.cpp ****         break;
 5417              		.loc 4 202 0
 5418 042c 000053E3 		cmp	r3, #0
 5419 0430 1900001A 		bne	.L295
 200:../src/zxing_lib/zxing/common/detector/WhiteRectangleDetector.cpp ****       x = getBlackPointOnSegment(right, up + i, right - i, up);
 5420              		.loc 4 200 0 discriminator 2
 5421 0434 014084E2 		add	r4, r4, #1
 5422              	.LVL567:
 5423              	.L299:
 200:../src/zxing_lib/zxing/common/detector/WhiteRectangleDetector.cpp ****       x = getBlackPointOnSegment(right, up + i, right - i, up);
 5424              		.loc 4 200 0 is_stmt 0 discriminator 1
 5425 0438 0A0054E1 		cmp	r4, r10
 5426 043c 160000AA 		bge	.L295
 201:../src/zxing_lib/zxing/common/detector/WhiteRectangleDetector.cpp ****       if (x != NULL) {
 5427              		.loc 4 201 0 is_stmt 1
 5428 0440 04908DE5 		str	r9, [sp, #4]
 5429 0444 043046E0 		sub	r3, r6, r4
 5430 0448 00308DE5 		str	r3, [sp]
 5431 044c 043089E0 		add	r3, r9, r4
 5432 0450 0620A0E1 		mov	r2, r6
 5433 0454 0510A0E1 		mov	r1, r5
 5434 0458 28008DE2 		add	r0, sp, #40
 5435              	.LEHB41:
 5436 045c FEFFFFEB 		bl	_ZN5zxing22WhiteRectangleDetector22getBlackPointOnSegmentEiiii
 5437              	.LVL568:
 5438 0460 DAFFFFEA 		b	.L355
 5439              	.LVL569:
 5440              	.L353:
 5441              	.LBB2072:
 5442              	.LBB2061:
 5443              	.LBB2060:
 5444              	.LBB2059:
 5445              	.LBB2058:
 5446              	.LBB2057:
  42:/home/zkmike/workspace/RZA2M/rza2m_2d_barcode_sample_freertos_gcc/src/zxing_lib/zxing/common/Counted.h ****       delete this;
 5447              		.loc 3 42 0
 5448 0464 01300FE3 		movw	r3, #61441
 5449 0468 AD3E4DE3 		movt	r3, 57005
 5450 046c 043080E5 		str	r3, [r0, #4]
  43:/home/zkmike/workspace/RZA2M/rza2m_2d_barcode_sample_freertos_gcc/src/zxing_lib/zxing/common/Counted.h ****     }
 5451              		.loc 3 43 0
 5452 0470 003090E5 		ldr	r3, [r0]
 5453 0474 043093E5 		ldr	r3, [r3, #4]
 5454 0478 33FF2FE1 		blx	r3
 5455              	.LVL570:
 5456 047c E0FFFFEA 		b	.L297
 5457              	.LVL571:
 5458              	.L354:
 5459              	.LBE2057:
 5460              	.LBE2058:
 5461              	.LBE2059:
 5462              	.LBE2060:
 5463              	.LBE2061:
 5464              	.LBE2072:
 5465              	.LBB2073:
 5466              	.LBB2068:
 5467              	.LBB2067:
 5468              	.LBB2066:
  42:/home/zkmike/workspace/RZA2M/rza2m_2d_barcode_sample_freertos_gcc/src/zxing_lib/zxing/common/Counted.h ****       delete this;
 5469              		.loc 3 42 0
 5470 0480 01300FE3 		movw	r3, #61441
 5471 0484 AD3E4DE3 		movt	r3, 57005
 5472 0488 043080E5 		str	r3, [r0, #4]
  43:/home/zkmike/workspace/RZA2M/rza2m_2d_barcode_sample_freertos_gcc/src/zxing_lib/zxing/common/Counted.h ****     }
 5473              		.loc 3 43 0
 5474 048c 003090E5 		ldr	r3, [r0]
 5475 0490 043093E5 		ldr	r3, [r3, #4]
 5476 0494 33FF2FE1 		blx	r3
 5477              	.LVL572:
 5478 0498 E2FFFFEA 		b	.L298
 5479              	.LVL573:
 5480              	.L295:
 5481              	.LBE2066:
 5482              	.LBE2067:
 5483              	.LBE2068:
 5484              	.LBE2073:
 5485              	.LBE2078:
 5486              	.LBB2079:
 5487              	.LBB2080:
 5488              		.loc 3 119 0
 5489 049c 18309DE5 		ldr	r3, [sp, #24]
 5490              	.LVL574:
 5491              	.LBE2080:
 5492              	.LBE2079:
 207:../src/zxing_lib/zxing/common/detector/WhiteRectangleDetector.cpp ****       throw NotFoundException("x == NULL");
 5493              		.loc 4 207 0
 5494 04a0 000053E3 		cmp	r3, #0
 5495              	.LVL575:
 5496              	.LBB2081:
 5497              	.LBB2082:
 5498              	.LBB2083:
 5499              	.LBB2084:
 5500              	.LBB2085:
  87:/home/zkmike/workspace/RZA2M/rza2m_2d_barcode_sample_freertos_gcc/src/zxing_lib/zxing/common/Counted.h ****   }
 5501              		.loc 3 87 0
 5502 04a4 0030A013 		movne	r3, #0
 5503 04a8 1C308D15 		strne	r3, [sp, #28]
 5504              	.LBE2085:
 5505              	.LBE2084:
 5506              	.LBE2083:
 5507              	.LBE2082:
 5508              	.LBE2081:
 5509              	.LBB2086:
 213:../src/zxing_lib/zxing/common/detector/WhiteRectangleDetector.cpp ****       y = getBlackPointOnSegment(right, down - i, right - i, down);
 5510              		.loc 4 213 0
 5511 04ac 0140A013 		movne	r4, #1
 5512              	.LVL576:
 5513 04b0 2800001A 		bne	.L306
 5514              	.LVL577:
 5515              	.L356:
 5516              	.LBE2086:
 208:../src/zxing_lib/zxing/common/detector/WhiteRectangleDetector.cpp ****     }
 5517              		.loc 4 208 0
 5518 04b4 0800A0E3 		mov	r0, #8
 5519 04b8 FEFFFFEB 		bl	__cxa_allocate_exception
 5520              	.LVL578:
 5521 04bc 0040A0E1 		mov	r4, r0
 5522              	.LVL579:
 5523              	.LBB2112:
 5524              	.LBB2113:
 5525              	.LBB2114:
 5526              	.LBB2115:
  31:/home/zkmike/workspace/RZA2M/rza2m_2d_barcode_sample_freertos_gcc/src/zxing_lib/zxing/ReaderException.h ****   ~ReaderException() throw() {}
 5527              		.loc 7 31 0
 5528 04c0 001000E3 		movw	r1, #:lower16:.LC4
 5529 04c4 001040E3 		movt	r1, #:upper16:.LC4
 5530 04c8 FEFFFFEB 		bl	_ZN5zxing9ExceptionC2EPKc
 5531              	.LVL580:
 5532              	.LBE2115:
 5533              	.LBE2114:
  29:/home/zkmike/workspace/RZA2M/rza2m_2d_barcode_sample_freertos_gcc/src/zxing_lib/zxing/NotFoundException.h ****   ~NotFoundException() throw() {}
 5534              		.loc 6 29 0
 5535 04cc AC369FE5 		ldr	r3, .L374
 5536 04d0 003084E5 		str	r3, [r4]
 5537              	.LVL581:
 5538              	.LBE2113:
 5539              	.LBE2112:
 208:../src/zxing_lib/zxing/common/detector/WhiteRectangleDetector.cpp ****     }
 5540              		.loc 4 208 0
 5541 04d4 002000E3 		movw	r2, #:lower16:_ZN5zxing17NotFoundExceptionD1Ev
 5542 04d8 002040E3 		movt	r2, #:upper16:_ZN5zxing17NotFoundExceptionD1Ev
 5543 04dc 001000E3 		movw	r1, #:lower16:_ZTIN5zxing17NotFoundExceptionE
 5544 04e0 001040E3 		movt	r1, #:upper16:_ZTIN5zxing17NotFoundExceptionE
 5545 04e4 0400A0E1 		mov	r0, r4
 5546 04e8 FEFFFFEB 		bl	__cxa_throw
 5547              	.LVL582:
 5548              	.LEHE41:
 5549              	.L341:
 5550 04ec 780100EA 		b	.L331
 5551              	.LVL583:
 5552              	.L359:
 5553              	.LBB2116:
 5554              	.LBB2087:
 5555              	.LBB2088:
  90:/home/zkmike/workspace/RZA2M/rza2m_2d_barcode_sample_freertos_gcc/src/zxing_lib/zxing/common/Counted.h ****     return *this;
 5556              		.loc 3 90 0
 5557 04f0 2C809DE5 		ldr	r8, [sp, #44]
 5558              	.LVL584:
 5559              	.LBB2089:
 5560              	.LBB2090:
  81:/home/zkmike/workspace/RZA2M/rza2m_2d_barcode_sample_freertos_gcc/src/zxing_lib/zxing/common/Counted.h ****       o->retain();
 5561              		.loc 3 81 0
 5562 04f4 000058E3 		cmp	r8, #0
 5563              	.LVL585:
 5564              	.LBB2091:
 5565              	.LBB2092:
  36:/home/zkmike/workspace/RZA2M/rza2m_2d_barcode_sample_freertos_gcc/src/zxing_lib/zxing/common/Counted.h ****     return this;
 5566              		.loc 3 36 0
 5567 04f8 04309815 		ldrne	r3, [r8, #4]
 5568 04fc 01308312 		addne	r3, r3, #1
 5569 0500 04308815 		strne	r3, [r8, #4]
 5570              	.LVL586:
 5571              	.L303:
 5572              	.LBE2092:
 5573              	.LBE2091:
  84:/home/zkmike/workspace/RZA2M/rza2m_2d_barcode_sample_freertos_gcc/src/zxing_lib/zxing/common/Counted.h ****       object_->release();
 5574              		.loc 3 84 0
 5575 0504 1C009DE5 		ldr	r0, [sp, #28]
 5576 0508 000050E3 		cmp	r0, #0
 5577 050c 0400000A 		beq	.L304
 5578              	.LVL587:
 5579              	.LBB2093:
 5580              	.LBB2094:
  40:/home/zkmike/workspace/RZA2M/rza2m_2d_barcode_sample_freertos_gcc/src/zxing_lib/zxing/common/Counted.h ****     if (count_ == 0) {
 5581              		.loc 3 40 0
 5582 0510 043090E5 		ldr	r3, [r0, #4]
 5583 0514 013043E2 		sub	r3, r3, #1
 5584 0518 043080E5 		str	r3, [r0, #4]
  41:/home/zkmike/workspace/RZA2M/rza2m_2d_barcode_sample_freertos_gcc/src/zxing_lib/zxing/common/Counted.h ****       count_ = 0xDEADF001;
 5585              		.loc 3 41 0
 5586 051c 000053E3 		cmp	r3, #0
 5587 0520 1700000A 		beq	.L357
 5588              	.LVL588:
 5589              	.L304:
 5590              	.LBE2094:
 5591              	.LBE2093:
  87:/home/zkmike/workspace/RZA2M/rza2m_2d_barcode_sample_freertos_gcc/src/zxing_lib/zxing/common/Counted.h ****   }
 5592              		.loc 3 87 0
 5593 0524 1C808DE5 		str	r8, [sp, #28]
 5594              	.LVL589:
 5595              	.LBE2090:
 5596              	.LBE2089:
 5597              	.LBE2088:
 5598              	.LBE2087:
 5599              	.LBB2100:
 5600              	.LBB2101:
  75:/home/zkmike/workspace/RZA2M/rza2m_2d_barcode_sample_freertos_gcc/src/zxing_lib/zxing/common/Counted.h ****       object_->release();
 5601              		.loc 3 75 0
 5602 0528 2C009DE5 		ldr	r0, [sp, #44]
 5603 052c 000050E3 		cmp	r0, #0
 5604 0530 0400000A 		beq	.L305
 5605              	.LVL590:
 5606              	.LBB2102:
 5607              	.LBB2103:
  40:/home/zkmike/workspace/RZA2M/rza2m_2d_barcode_sample_freertos_gcc/src/zxing_lib/zxing/common/Counted.h ****     if (count_ == 0) {
 5608              		.loc 3 40 0
 5609 0534 043090E5 		ldr	r3, [r0, #4]
 5610 0538 013043E2 		sub	r3, r3, #1
 5611 053c 043080E5 		str	r3, [r0, #4]
  41:/home/zkmike/workspace/RZA2M/rza2m_2d_barcode_sample_freertos_gcc/src/zxing_lib/zxing/common/Counted.h ****       count_ = 0xDEADF001;
 5612              		.loc 3 41 0
 5613 0540 000053E3 		cmp	r3, #0
 5614 0544 1500000A 		beq	.L358
 5615              	.LVL591:
 5616              	.L305:
 5617              	.LBE2103:
 5618              	.LBE2102:
 5619              	.LBE2101:
 5620              	.LBE2100:
 5621              	.LBB2107:
 5622              	.LBB2108:
 5623              	.LBB2109:
 5624              		.loc 3 119 0
 5625 0548 1C309DE5 		ldr	r3, [sp, #28]
 5626              	.LVL592:
 5627              	.LBE2109:
 5628              	.LBE2108:
 5629              	.LBE2107:
 215:../src/zxing_lib/zxing/common/detector/WhiteRectangleDetector.cpp ****         break;
 5630              		.loc 4 215 0
 5631 054c 000053E3 		cmp	r3, #0
 5632 0550 1900001A 		bne	.L302
 213:../src/zxing_lib/zxing/common/detector/WhiteRectangleDetector.cpp ****       y = getBlackPointOnSegment(right, down - i, right - i, down);
 5633              		.loc 4 213 0 discriminator 2
 5634 0554 014084E2 		add	r4, r4, #1
 5635              	.LVL593:
 5636              	.L306:
 213:../src/zxing_lib/zxing/common/detector/WhiteRectangleDetector.cpp ****       y = getBlackPointOnSegment(right, down - i, right - i, down);
 5637              		.loc 4 213 0 is_stmt 0 discriminator 1
 5638 0558 0A0054E1 		cmp	r4, r10
 5639 055c 160000AA 		bge	.L302
 214:../src/zxing_lib/zxing/common/detector/WhiteRectangleDetector.cpp ****       if (y != NULL) {
 5640              		.loc 4 214 0 is_stmt 1
 5641 0560 04708DE5 		str	r7, [sp, #4]
 5642 0564 043046E0 		sub	r3, r6, r4
 5643 0568 00308DE5 		str	r3, [sp]
 5644 056c 043047E0 		sub	r3, r7, r4
 5645 0570 0620A0E1 		mov	r2, r6
 5646 0574 0510A0E1 		mov	r1, r5
 5647 0578 2C008DE2 		add	r0, sp, #44
 5648              	.LEHB42:
 5649 057c FEFFFFEB 		bl	_ZN5zxing22WhiteRectangleDetector22getBlackPointOnSegmentEiiii
 5650              	.LVL594:
 5651              	.LEHE42:
 5652 0580 DAFFFFEA 		b	.L359
 5653              	.LVL595:
 5654              	.L357:
 5655              	.LBB2110:
 5656              	.LBB2099:
 5657              	.LBB2098:
 5658              	.LBB2097:
 5659              	.LBB2096:
 5660              	.LBB2095:
  42:/home/zkmike/workspace/RZA2M/rza2m_2d_barcode_sample_freertos_gcc/src/zxing_lib/zxing/common/Counted.h ****       delete this;
 5661              		.loc 3 42 0
 5662 0584 01300FE3 		movw	r3, #61441
 5663 0588 AD3E4DE3 		movt	r3, 57005
 5664 058c 043080E5 		str	r3, [r0, #4]
  43:/home/zkmike/workspace/RZA2M/rza2m_2d_barcode_sample_freertos_gcc/src/zxing_lib/zxing/common/Counted.h ****     }
 5665              		.loc 3 43 0
 5666 0590 003090E5 		ldr	r3, [r0]
 5667 0594 043093E5 		ldr	r3, [r3, #4]
 5668 0598 33FF2FE1 		blx	r3
 5669              	.LVL596:
 5670 059c E0FFFFEA 		b	.L304
 5671              	.LVL597:
 5672              	.L358:
 5673              	.LBE2095:
 5674              	.LBE2096:
 5675              	.LBE2097:
 5676              	.LBE2098:
 5677              	.LBE2099:
 5678              	.LBE2110:
 5679              	.LBB2111:
 5680              	.LBB2106:
 5681              	.LBB2105:
 5682              	.LBB2104:
  42:/home/zkmike/workspace/RZA2M/rza2m_2d_barcode_sample_freertos_gcc/src/zxing_lib/zxing/common/Counted.h ****       delete this;
 5683              		.loc 3 42 0
 5684 05a0 01300FE3 		movw	r3, #61441
 5685 05a4 AD3E4DE3 		movt	r3, 57005
 5686 05a8 043080E5 		str	r3, [r0, #4]
  43:/home/zkmike/workspace/RZA2M/rza2m_2d_barcode_sample_freertos_gcc/src/zxing_lib/zxing/common/Counted.h ****     }
 5687              		.loc 3 43 0
 5688 05ac 003090E5 		ldr	r3, [r0]
 5689 05b0 043093E5 		ldr	r3, [r3, #4]
 5690 05b4 33FF2FE1 		blx	r3
 5691              	.LVL598:
 5692 05b8 E2FFFFEA 		b	.L305
 5693              	.LVL599:
 5694              	.L302:
 5695              	.LBE2104:
 5696              	.LBE2105:
 5697              	.LBE2106:
 5698              	.LBE2111:
 5699              	.LBE2116:
 5700              	.LBB2117:
 5701              	.LBB2118:
 5702              		.loc 3 119 0
 5703 05bc 1C409DE5 		ldr	r4, [sp, #28]
 5704              	.LVL600:
 5705              	.LBE2118:
 5706              	.LBE2117:
 220:../src/zxing_lib/zxing/common/detector/WhiteRectangleDetector.cpp ****       throw NotFoundException("y == NULL");
 5707              		.loc 4 220 0
 5708 05c0 000054E3 		cmp	r4, #0
 5709 05c4 4800000A 		beq	.L360
 5710              	.LVL601:
 5711              	.LBB2119:
 5712              	.LBB2120:
 5713              	.LBB2121:
  64:/home/zkmike/workspace/RZA2M/rza2m_2d_barcode_sample_freertos_gcc/src/zxing_lib/zxing/common/Counted.h ****     reset(other.object_);
 5714              		.loc 3 64 0
 5715 05c8 0030A0E3 		mov	r3, #0
 5716 05cc 30308DE5 		str	r3, [sp, #48]
 5717              	.LVL602:
 5718              	.LBB2122:
 5719              	.LBB2123:
  81:/home/zkmike/workspace/RZA2M/rza2m_2d_barcode_sample_freertos_gcc/src/zxing_lib/zxing/common/Counted.h ****       o->retain();
 5720              		.loc 3 81 0
 5721 05d0 030054E1 		cmp	r4, r3
 5722              	.LVL603:
 5723              	.LBB2124:
 5724              	.LBB2125:
  36:/home/zkmike/workspace/RZA2M/rza2m_2d_barcode_sample_freertos_gcc/src/zxing_lib/zxing/common/Counted.h ****     return this;
 5725              		.loc 3 36 0
 5726 05d4 04309415 		ldrne	r3, [r4, #4]
 5727 05d8 01308312 		addne	r3, r3, #1
 5728 05dc 04308415 		strne	r3, [r4, #4]
 5729              	.LVL604:
 5730              	.L308:
 5731              	.LBE2125:
 5732              	.LBE2124:
  84:/home/zkmike/workspace/RZA2M/rza2m_2d_barcode_sample_freertos_gcc/src/zxing_lib/zxing/common/Counted.h ****       object_->release();
 5733              		.loc 3 84 0
 5734 05e0 30009DE5 		ldr	r0, [sp, #48]
 5735 05e4 000050E3 		cmp	r0, #0
 5736 05e8 0400000A 		beq	.L309
 5737              	.LVL605:
 5738              	.LBB2126:
 5739              	.LBB2127:
  40:/home/zkmike/workspace/RZA2M/rza2m_2d_barcode_sample_freertos_gcc/src/zxing_lib/zxing/common/Counted.h ****     if (count_ == 0) {
 5740              		.loc 3 40 0
 5741 05ec 043090E5 		ldr	r3, [r0, #4]
 5742 05f0 013043E2 		sub	r3, r3, #1
 5743 05f4 043080E5 		str	r3, [r0, #4]
  41:/home/zkmike/workspace/RZA2M/rza2m_2d_barcode_sample_freertos_gcc/src/zxing_lib/zxing/common/Counted.h ****       count_ = 0xDEADF001;
 5744              		.loc 3 41 0
 5745 05f8 000053E3 		cmp	r3, #0
 5746 05fc 4900000A 		beq	.L361
 5747              	.LVL606:
 5748              	.L309:
 5749              	.LBE2127:
 5750              	.LBE2126:
  87:/home/zkmike/workspace/RZA2M/rza2m_2d_barcode_sample_freertos_gcc/src/zxing_lib/zxing/common/Counted.h ****   }
 5751              		.loc 3 87 0
 5752 0600 30408DE5 		str	r4, [sp, #48]
 5753              	.LVL607:
 5754              	.LBE2123:
 5755              	.LBE2122:
 5756              	.LBE2121:
 5757              	.LBE2120:
 5758              	.LBE2119:
 5759              	.LBB2134:
 5760              	.LBB2135:
 5761              	.LBB2136:
  64:/home/zkmike/workspace/RZA2M/rza2m_2d_barcode_sample_freertos_gcc/src/zxing_lib/zxing/common/Counted.h ****     reset(other.object_);
 5762              		.loc 3 64 0
 5763 0604 0030A0E3 		mov	r3, #0
 5764 0608 34308DE5 		str	r3, [sp, #52]
  65:/home/zkmike/workspace/RZA2M/rza2m_2d_barcode_sample_freertos_gcc/src/zxing_lib/zxing/common/Counted.h ****   }
 5765              		.loc 3 65 0
 5766 060c 10409DE5 		ldr	r4, [sp, #16]
 5767              	.LVL608:
 5768              	.LBB2137:
 5769              	.LBB2138:
  81:/home/zkmike/workspace/RZA2M/rza2m_2d_barcode_sample_freertos_gcc/src/zxing_lib/zxing/common/Counted.h ****       o->retain();
 5770              		.loc 3 81 0
 5771 0610 030054E1 		cmp	r4, r3
 5772              	.LVL609:
 5773              	.LBB2139:
 5774              	.LBB2140:
  36:/home/zkmike/workspace/RZA2M/rza2m_2d_barcode_sample_freertos_gcc/src/zxing_lib/zxing/common/Counted.h ****     return this;
 5775              		.loc 3 36 0
 5776 0614 04309415 		ldrne	r3, [r4, #4]
 5777 0618 01308312 		addne	r3, r3, #1
 5778 061c 04308415 		strne	r3, [r4, #4]
 5779              	.LVL610:
 5780              	.L310:
 5781              	.LBE2140:
 5782              	.LBE2139:
  84:/home/zkmike/workspace/RZA2M/rza2m_2d_barcode_sample_freertos_gcc/src/zxing_lib/zxing/common/Counted.h ****       object_->release();
 5783              		.loc 3 84 0
 5784 0620 34009DE5 		ldr	r0, [sp, #52]
 5785 0624 000050E3 		cmp	r0, #0
 5786 0628 0400000A 		beq	.L311
 5787              	.LVL611:
 5788              	.LBB2141:
 5789              	.LBB2142:
  40:/home/zkmike/workspace/RZA2M/rza2m_2d_barcode_sample_freertos_gcc/src/zxing_lib/zxing/common/Counted.h ****     if (count_ == 0) {
 5790              		.loc 3 40 0
 5791 062c 043090E5 		ldr	r3, [r0, #4]
 5792 0630 013043E2 		sub	r3, r3, #1
 5793 0634 043080E5 		str	r3, [r0, #4]
  41:/home/zkmike/workspace/RZA2M/rza2m_2d_barcode_sample_freertos_gcc/src/zxing_lib/zxing/common/Counted.h ****       count_ = 0xDEADF001;
 5794              		.loc 3 41 0
 5795 0638 000053E3 		cmp	r3, #0
 5796 063c 4000000A 		beq	.L362
 5797              	.LVL612:
 5798              	.L311:
 5799              	.LBE2142:
 5800              	.LBE2141:
  87:/home/zkmike/workspace/RZA2M/rza2m_2d_barcode_sample_freertos_gcc/src/zxing_lib/zxing/common/Counted.h ****   }
 5801              		.loc 3 87 0
 5802 0640 34408DE5 		str	r4, [sp, #52]
 5803              	.LVL613:
 5804              	.LBE2138:
 5805              	.LBE2137:
 5806              	.LBE2136:
 5807              	.LBE2135:
 5808              	.LBE2134:
 5809              	.LBB2149:
 5810              	.LBB2150:
 5811              	.LBB2151:
  64:/home/zkmike/workspace/RZA2M/rza2m_2d_barcode_sample_freertos_gcc/src/zxing_lib/zxing/common/Counted.h ****     reset(other.object_);
 5812              		.loc 3 64 0
 5813 0644 0030A0E3 		mov	r3, #0
 5814 0648 38308DE5 		str	r3, [sp, #56]
  65:/home/zkmike/workspace/RZA2M/rza2m_2d_barcode_sample_freertos_gcc/src/zxing_lib/zxing/common/Counted.h ****   }
 5815              		.loc 3 65 0
 5816 064c 18409DE5 		ldr	r4, [sp, #24]
 5817              	.LVL614:
 5818              	.LBB2152:
 5819              	.LBB2153:
  81:/home/zkmike/workspace/RZA2M/rza2m_2d_barcode_sample_freertos_gcc/src/zxing_lib/zxing/common/Counted.h ****       o->retain();
 5820              		.loc 3 81 0
 5821 0650 030054E1 		cmp	r4, r3
 5822              	.LVL615:
 5823              	.LBB2154:
 5824              	.LBB2155:
  36:/home/zkmike/workspace/RZA2M/rza2m_2d_barcode_sample_freertos_gcc/src/zxing_lib/zxing/common/Counted.h ****     return this;
 5825              		.loc 3 36 0
 5826 0654 04309415 		ldrne	r3, [r4, #4]
 5827 0658 01308312 		addne	r3, r3, #1
 5828 065c 04308415 		strne	r3, [r4, #4]
 5829              	.LVL616:
 5830              	.L312:
 5831              	.LBE2155:
 5832              	.LBE2154:
  84:/home/zkmike/workspace/RZA2M/rza2m_2d_barcode_sample_freertos_gcc/src/zxing_lib/zxing/common/Counted.h ****       object_->release();
 5833              		.loc 3 84 0
 5834 0660 38009DE5 		ldr	r0, [sp, #56]
 5835 0664 000050E3 		cmp	r0, #0
 5836 0668 0400000A 		beq	.L313
 5837              	.LVL617:
 5838              	.LBB2156:
 5839              	.LBB2157:
  40:/home/zkmike/workspace/RZA2M/rza2m_2d_barcode_sample_freertos_gcc/src/zxing_lib/zxing/common/Counted.h ****     if (count_ == 0) {
 5840              		.loc 3 40 0
 5841 066c 043090E5 		ldr	r3, [r0, #4]
 5842 0670 013043E2 		sub	r3, r3, #1
 5843 0674 043080E5 		str	r3, [r0, #4]
  41:/home/zkmike/workspace/RZA2M/rza2m_2d_barcode_sample_freertos_gcc/src/zxing_lib/zxing/common/Counted.h ****       count_ = 0xDEADF001;
 5844              		.loc 3 41 0
 5845 0678 000053E3 		cmp	r3, #0
 5846 067c 3700000A 		beq	.L363
 5847              	.LVL618:
 5848              	.L313:
 5849              	.LBE2157:
 5850              	.LBE2156:
  87:/home/zkmike/workspace/RZA2M/rza2m_2d_barcode_sample_freertos_gcc/src/zxing_lib/zxing/common/Counted.h ****   }
 5851              		.loc 3 87 0
 5852 0680 38408DE5 		str	r4, [sp, #56]
 5853              	.LVL619:
 5854              	.LBE2153:
 5855              	.LBE2152:
 5856              	.LBE2151:
 5857              	.LBE2150:
 5858              	.LBE2149:
 5859              	.LBB2164:
 5860              	.LBB2165:
 5861              	.LBB2166:
  64:/home/zkmike/workspace/RZA2M/rza2m_2d_barcode_sample_freertos_gcc/src/zxing_lib/zxing/common/Counted.h ****     reset(other.object_);
 5862              		.loc 3 64 0
 5863 0684 0030A0E3 		mov	r3, #0
 5864 0688 3C308DE5 		str	r3, [sp, #60]
  65:/home/zkmike/workspace/RZA2M/rza2m_2d_barcode_sample_freertos_gcc/src/zxing_lib/zxing/common/Counted.h ****   }
 5865              		.loc 3 65 0
 5866 068c 14409DE5 		ldr	r4, [sp, #20]
 5867              	.LVL620:
 5868              	.LBB2167:
 5869              	.LBB2168:
  81:/home/zkmike/workspace/RZA2M/rza2m_2d_barcode_sample_freertos_gcc/src/zxing_lib/zxing/common/Counted.h ****       o->retain();
 5870              		.loc 3 81 0
 5871 0690 030054E1 		cmp	r4, r3
 5872              	.LVL621:
 5873              	.LBB2169:
 5874              	.LBB2170:
  36:/home/zkmike/workspace/RZA2M/rza2m_2d_barcode_sample_freertos_gcc/src/zxing_lib/zxing/common/Counted.h ****     return this;
 5875              		.loc 3 36 0
 5876 0694 04309415 		ldrne	r3, [r4, #4]
 5877 0698 01308312 		addne	r3, r3, #1
 5878 069c 04308415 		strne	r3, [r4, #4]
 5879              	.LVL622:
 5880              	.L314:
 5881              	.LBE2170:
 5882              	.LBE2169:
  84:/home/zkmike/workspace/RZA2M/rza2m_2d_barcode_sample_freertos_gcc/src/zxing_lib/zxing/common/Counted.h ****       object_->release();
 5883              		.loc 3 84 0
 5884 06a0 3C009DE5 		ldr	r0, [sp, #60]
 5885 06a4 000050E3 		cmp	r0, #0
 5886 06a8 0400000A 		beq	.L315
 5887              	.LVL623:
 5888              	.LBB2171:
 5889              	.LBB2172:
  40:/home/zkmike/workspace/RZA2M/rza2m_2d_barcode_sample_freertos_gcc/src/zxing_lib/zxing/common/Counted.h ****     if (count_ == 0) {
 5890              		.loc 3 40 0
 5891 06ac 043090E5 		ldr	r3, [r0, #4]
 5892 06b0 013043E2 		sub	r3, r3, #1
 5893 06b4 043080E5 		str	r3, [r0, #4]
  41:/home/zkmike/workspace/RZA2M/rza2m_2d_barcode_sample_freertos_gcc/src/zxing_lib/zxing/common/Counted.h ****       count_ = 0xDEADF001;
 5894              		.loc 3 41 0
 5895 06b8 000053E3 		cmp	r3, #0
 5896 06bc 2E00000A 		beq	.L364
 5897              	.LVL624:
 5898              	.L315:
 5899              	.LBE2172:
 5900              	.LBE2171:
  87:/home/zkmike/workspace/RZA2M/rza2m_2d_barcode_sample_freertos_gcc/src/zxing_lib/zxing/common/Counted.h ****   }
 5901              		.loc 3 87 0
 5902 06c0 3C408DE5 		str	r4, [sp, #60]
 5903              	.LVL625:
 5904              	.LBE2168:
 5905              	.LBE2167:
 5906              	.LBE2166:
 5907              	.LBE2165:
 5908              	.LBE2164:
 224:../src/zxing_lib/zxing/common/detector/WhiteRectangleDetector.cpp **** 
 5909              		.loc 4 224 0
 5910 06c4 3C308DE2 		add	r3, sp, #60
 5911 06c8 04308DE5 		str	r3, [sp, #4]
 5912 06cc 38308DE2 		add	r3, sp, #56
 5913 06d0 00308DE5 		str	r3, [sp]
 5914 06d4 34308DE2 		add	r3, sp, #52
 5915 06d8 30208DE2 		add	r2, sp, #48
 5916 06dc 0510A0E1 		mov	r1, r5
 5917 06e0 0C009DE5 		ldr	r0, [sp, #12]
 5918              	.LEHB43:
 5919 06e4 FEFFFFEB 		bl	_ZN5zxing22WhiteRectangleDetector11centerEdgesENS_3RefINS_11ResultPointEEES3_S3_S3_
 5920              	.LVL626:
 5921              	.LEHE43:
 5922 06e8 2A0000EA 		b	.L365
 5923              	.L360:
 221:../src/zxing_lib/zxing/common/detector/WhiteRectangleDetector.cpp ****     }
 5924              		.loc 4 221 0
 5925 06ec 0800A0E3 		mov	r0, #8
 5926 06f0 FEFFFFEB 		bl	__cxa_allocate_exception
 5927              	.LVL627:
 5928 06f4 0040A0E1 		mov	r4, r0
 5929              	.LVL628:
 5930              	.LBB2179:
 5931              	.LBB2180:
 5932              	.LBB2181:
 5933              	.LBB2182:
  31:/home/zkmike/workspace/RZA2M/rza2m_2d_barcode_sample_freertos_gcc/src/zxing_lib/zxing/ReaderException.h ****   ~ReaderException() throw() {}
 5934              		.loc 7 31 0
 5935 06f8 001000E3 		movw	r1, #:lower16:.LC5
 5936 06fc 001040E3 		movt	r1, #:upper16:.LC5
 5937 0700 FEFFFFEB 		bl	_ZN5zxing9ExceptionC2EPKc
 5938              	.LVL629:
 5939              	.LBE2182:
 5940              	.LBE2181:
  29:/home/zkmike/workspace/RZA2M/rza2m_2d_barcode_sample_freertos_gcc/src/zxing_lib/zxing/NotFoundException.h ****   ~NotFoundException() throw() {}
 5941              		.loc 6 29 0
 5942 0704 74349FE5 		ldr	r3, .L374
 5943 0708 003084E5 		str	r3, [r4]
 5944              	.LVL630:
 5945              	.LBE2180:
 5946              	.LBE2179:
 221:../src/zxing_lib/zxing/common/detector/WhiteRectangleDetector.cpp ****     }
 5947              		.loc 4 221 0
 5948 070c 002000E3 		movw	r2, #:lower16:_ZN5zxing17NotFoundExceptionD1Ev
 5949 0710 002040E3 		movt	r2, #:upper16:_ZN5zxing17NotFoundExceptionD1Ev
 5950 0714 001000E3 		movw	r1, #:lower16:_ZTIN5zxing17NotFoundExceptionE
 5951 0718 001040E3 		movt	r1, #:upper16:_ZTIN5zxing17NotFoundExceptionE
 5952 071c 0400A0E1 		mov	r0, r4
 5953              	.LEHB44:
 5954 0720 FEFFFFEB 		bl	__cxa_throw
 5955              	.LVL631:
 5956              	.LEHE44:
 5957              	.L342:
 5958 0724 DC0000EA 		b	.L329
 5959              	.LVL632:
 5960              	.L361:
 5961              	.LBB2183:
 5962              	.LBB2133:
 5963              	.LBB2132:
 5964              	.LBB2131:
 5965              	.LBB2130:
 5966              	.LBB2129:
 5967              	.LBB2128:
  42:/home/zkmike/workspace/RZA2M/rza2m_2d_barcode_sample_freertos_gcc/src/zxing_lib/zxing/common/Counted.h ****       delete this;
 5968              		.loc 3 42 0
 5969 0728 01300FE3 		movw	r3, #61441
 5970 072c AD3E4DE3 		movt	r3, 57005
 5971 0730 043080E5 		str	r3, [r0, #4]
  43:/home/zkmike/workspace/RZA2M/rza2m_2d_barcode_sample_freertos_gcc/src/zxing_lib/zxing/common/Counted.h ****     }
 5972              		.loc 3 43 0
 5973 0734 003090E5 		ldr	r3, [r0]
 5974 0738 043093E5 		ldr	r3, [r3, #4]
 5975 073c 33FF2FE1 		blx	r3
 5976              	.LVL633:
 5977 0740 AEFFFFEA 		b	.L309
 5978              	.LVL634:
 5979              	.L362:
 5980              	.LBE2128:
 5981              	.LBE2129:
 5982              	.LBE2130:
 5983              	.LBE2131:
 5984              	.LBE2132:
 5985              	.LBE2133:
 5986              	.LBE2183:
 5987              	.LBB2184:
 5988              	.LBB2148:
 5989              	.LBB2147:
 5990              	.LBB2146:
 5991              	.LBB2145:
 5992              	.LBB2144:
 5993              	.LBB2143:
  42:/home/zkmike/workspace/RZA2M/rza2m_2d_barcode_sample_freertos_gcc/src/zxing_lib/zxing/common/Counted.h ****       delete this;
 5994              		.loc 3 42 0
 5995 0744 01300FE3 		movw	r3, #61441
 5996 0748 AD3E4DE3 		movt	r3, 57005
 5997 074c 043080E5 		str	r3, [r0, #4]
  43:/home/zkmike/workspace/RZA2M/rza2m_2d_barcode_sample_freertos_gcc/src/zxing_lib/zxing/common/Counted.h ****     }
 5998              		.loc 3 43 0
 5999 0750 003090E5 		ldr	r3, [r0]
 6000 0754 043093E5 		ldr	r3, [r3, #4]
 6001 0758 33FF2FE1 		blx	r3
 6002              	.LVL635:
 6003 075c B7FFFFEA 		b	.L311
 6004              	.LVL636:
 6005              	.L363:
 6006              	.LBE2143:
 6007              	.LBE2144:
 6008              	.LBE2145:
 6009              	.LBE2146:
 6010              	.LBE2147:
 6011              	.LBE2148:
 6012              	.LBE2184:
 6013              	.LBB2185:
 6014              	.LBB2163:
 6015              	.LBB2162:
 6016              	.LBB2161:
 6017              	.LBB2160:
 6018              	.LBB2159:
 6019              	.LBB2158:
  42:/home/zkmike/workspace/RZA2M/rza2m_2d_barcode_sample_freertos_gcc/src/zxing_lib/zxing/common/Counted.h ****       delete this;
 6020              		.loc 3 42 0
 6021 0760 01300FE3 		movw	r3, #61441
 6022 0764 AD3E4DE3 		movt	r3, 57005
 6023 0768 043080E5 		str	r3, [r0, #4]
  43:/home/zkmike/workspace/RZA2M/rza2m_2d_barcode_sample_freertos_gcc/src/zxing_lib/zxing/common/Counted.h ****     }
 6024              		.loc 3 43 0
 6025 076c 003090E5 		ldr	r3, [r0]
 6026 0770 043093E5 		ldr	r3, [r3, #4]
 6027 0774 33FF2FE1 		blx	r3
 6028              	.LVL637:
 6029 0778 C0FFFFEA 		b	.L313
 6030              	.LVL638:
 6031              	.L364:
 6032              	.LBE2158:
 6033              	.LBE2159:
 6034              	.LBE2160:
 6035              	.LBE2161:
 6036              	.LBE2162:
 6037              	.LBE2163:
 6038              	.LBE2185:
 6039              	.LBB2186:
 6040              	.LBB2178:
 6041              	.LBB2177:
 6042              	.LBB2176:
 6043              	.LBB2175:
 6044              	.LBB2174:
 6045              	.LBB2173:
  42:/home/zkmike/workspace/RZA2M/rza2m_2d_barcode_sample_freertos_gcc/src/zxing_lib/zxing/common/Counted.h ****       delete this;
 6046              		.loc 3 42 0
 6047 077c 01300FE3 		movw	r3, #61441
 6048 0780 AD3E4DE3 		movt	r3, 57005
 6049 0784 043080E5 		str	r3, [r0, #4]
  43:/home/zkmike/workspace/RZA2M/rza2m_2d_barcode_sample_freertos_gcc/src/zxing_lib/zxing/common/Counted.h ****     }
 6050              		.loc 3 43 0
 6051 0788 003090E5 		ldr	r3, [r0]
 6052 078c 043093E5 		ldr	r3, [r3, #4]
 6053 0790 33FF2FE1 		blx	r3
 6054              	.LVL639:
 6055 0794 C9FFFFEA 		b	.L315
 6056              	.LVL640:
 6057              	.L365:
 6058              	.LBE2173:
 6059              	.LBE2174:
 6060              	.LBE2175:
 6061              	.LBE2176:
 6062              	.LBE2177:
 6063              	.LBE2178:
 6064              	.LBE2186:
 6065              	.LBB2187:
 6066              	.LBB2188:
  75:/home/zkmike/workspace/RZA2M/rza2m_2d_barcode_sample_freertos_gcc/src/zxing_lib/zxing/common/Counted.h ****       object_->release();
 6067              		.loc 3 75 0
 6068 0798 3C009DE5 		ldr	r0, [sp, #60]
 6069 079c 000050E3 		cmp	r0, #0
 6070 07a0 0400000A 		beq	.L316
 6071              	.LVL641:
 6072              	.LBB2189:
 6073              	.LBB2190:
  40:/home/zkmike/workspace/RZA2M/rza2m_2d_barcode_sample_freertos_gcc/src/zxing_lib/zxing/common/Counted.h ****     if (count_ == 0) {
 6074              		.loc 3 40 0
 6075 07a4 043090E5 		ldr	r3, [r0, #4]
 6076 07a8 013043E2 		sub	r3, r3, #1
 6077 07ac 043080E5 		str	r3, [r0, #4]
  41:/home/zkmike/workspace/RZA2M/rza2m_2d_barcode_sample_freertos_gcc/src/zxing_lib/zxing/common/Counted.h ****       count_ = 0xDEADF001;
 6078              		.loc 3 41 0
 6079 07b0 000053E3 		cmp	r3, #0
 6080 07b4 3A00000A 		beq	.L366
 6081              	.LVL642:
 6082              	.L316:
 6083              	.LBE2190:
 6084              	.LBE2189:
 6085              	.LBE2188:
 6086              	.LBE2187:
 6087              	.LBB2194:
 6088              	.LBB2195:
  75:/home/zkmike/workspace/RZA2M/rza2m_2d_barcode_sample_freertos_gcc/src/zxing_lib/zxing/common/Counted.h ****       object_->release();
 6089              		.loc 3 75 0
 6090 07b8 38009DE5 		ldr	r0, [sp, #56]
 6091 07bc 000050E3 		cmp	r0, #0
 6092 07c0 0400000A 		beq	.L317
 6093              	.LVL643:
 6094              	.LBB2196:
 6095              	.LBB2197:
  40:/home/zkmike/workspace/RZA2M/rza2m_2d_barcode_sample_freertos_gcc/src/zxing_lib/zxing/common/Counted.h ****     if (count_ == 0) {
 6096              		.loc 3 40 0
 6097 07c4 043090E5 		ldr	r3, [r0, #4]
 6098 07c8 013043E2 		sub	r3, r3, #1
 6099 07cc 043080E5 		str	r3, [r0, #4]
  41:/home/zkmike/workspace/RZA2M/rza2m_2d_barcode_sample_freertos_gcc/src/zxing_lib/zxing/common/Counted.h ****       count_ = 0xDEADF001;
 6100              		.loc 3 41 0
 6101 07d0 000053E3 		cmp	r3, #0
 6102 07d4 3900000A 		beq	.L367
 6103              	.LVL644:
 6104              	.L317:
 6105              	.LBE2197:
 6106              	.LBE2196:
 6107              	.LBE2195:
 6108              	.LBE2194:
 6109              	.LBB2201:
 6110              	.LBB2202:
  75:/home/zkmike/workspace/RZA2M/rza2m_2d_barcode_sample_freertos_gcc/src/zxing_lib/zxing/common/Counted.h ****       object_->release();
 6111              		.loc 3 75 0
 6112 07d8 34009DE5 		ldr	r0, [sp, #52]
 6113 07dc 000050E3 		cmp	r0, #0
 6114 07e0 0400000A 		beq	.L318
 6115              	.LVL645:
 6116              	.LBB2203:
 6117              	.LBB2204:
  40:/home/zkmike/workspace/RZA2M/rza2m_2d_barcode_sample_freertos_gcc/src/zxing_lib/zxing/common/Counted.h ****     if (count_ == 0) {
 6118              		.loc 3 40 0
 6119 07e4 043090E5 		ldr	r3, [r0, #4]
 6120 07e8 013043E2 		sub	r3, r3, #1
 6121 07ec 043080E5 		str	r3, [r0, #4]
  41:/home/zkmike/workspace/RZA2M/rza2m_2d_barcode_sample_freertos_gcc/src/zxing_lib/zxing/common/Counted.h ****       count_ = 0xDEADF001;
 6122              		.loc 3 41 0
 6123 07f0 000053E3 		cmp	r3, #0
 6124 07f4 3800000A 		beq	.L368
 6125              	.LVL646:
 6126              	.L318:
 6127              	.LBE2204:
 6128              	.LBE2203:
 6129              	.LBE2202:
 6130              	.LBE2201:
 6131              	.LBB2208:
 6132              	.LBB2209:
  75:/home/zkmike/workspace/RZA2M/rza2m_2d_barcode_sample_freertos_gcc/src/zxing_lib/zxing/common/Counted.h ****       object_->release();
 6133              		.loc 3 75 0
 6134 07f8 30009DE5 		ldr	r0, [sp, #48]
 6135 07fc 000050E3 		cmp	r0, #0
 6136 0800 0400000A 		beq	.L319
 6137              	.LVL647:
 6138              	.LBB2210:
 6139              	.LBB2211:
  40:/home/zkmike/workspace/RZA2M/rza2m_2d_barcode_sample_freertos_gcc/src/zxing_lib/zxing/common/Counted.h ****     if (count_ == 0) {
 6140              		.loc 3 40 0
 6141 0804 043090E5 		ldr	r3, [r0, #4]
 6142 0808 013043E2 		sub	r3, r3, #1
 6143 080c 043080E5 		str	r3, [r0, #4]
  41:/home/zkmike/workspace/RZA2M/rza2m_2d_barcode_sample_freertos_gcc/src/zxing_lib/zxing/common/Counted.h ****       count_ = 0xDEADF001;
 6144              		.loc 3 41 0
 6145 0810 000053E3 		cmp	r3, #0
 6146 0814 3700000A 		beq	.L369
 6147              	.LVL648:
 6148              	.L319:
 6149              	.LBE2211:
 6150              	.LBE2210:
 6151              	.LBE2209:
 6152              	.LBE2208:
 6153              	.LBB2215:
 6154              	.LBB2216:
  75:/home/zkmike/workspace/RZA2M/rza2m_2d_barcode_sample_freertos_gcc/src/zxing_lib/zxing/common/Counted.h ****       object_->release();
 6155              		.loc 3 75 0
 6156 0818 1C009DE5 		ldr	r0, [sp, #28]
 6157 081c 000050E3 		cmp	r0, #0
 6158 0820 0400000A 		beq	.L320
 6159              	.LVL649:
 6160              	.LBB2217:
 6161              	.LBB2218:
  40:/home/zkmike/workspace/RZA2M/rza2m_2d_barcode_sample_freertos_gcc/src/zxing_lib/zxing/common/Counted.h ****     if (count_ == 0) {
 6162              		.loc 3 40 0
 6163 0824 043090E5 		ldr	r3, [r0, #4]
 6164 0828 013043E2 		sub	r3, r3, #1
 6165 082c 043080E5 		str	r3, [r0, #4]
  41:/home/zkmike/workspace/RZA2M/rza2m_2d_barcode_sample_freertos_gcc/src/zxing_lib/zxing/common/Counted.h ****       count_ = 0xDEADF001;
 6166              		.loc 3 41 0
 6167 0830 000053E3 		cmp	r3, #0
 6168 0834 3600000A 		beq	.L370
 6169              	.LVL650:
 6170              	.L320:
 6171              	.LBE2218:
 6172              	.LBE2217:
 6173              	.LBE2216:
 6174              	.LBE2215:
 6175              	.LBB2222:
 6176              	.LBB2223:
  75:/home/zkmike/workspace/RZA2M/rza2m_2d_barcode_sample_freertos_gcc/src/zxing_lib/zxing/common/Counted.h ****       object_->release();
 6177              		.loc 3 75 0
 6178 0838 18009DE5 		ldr	r0, [sp, #24]
 6179 083c 000050E3 		cmp	r0, #0
 6180 0840 0400000A 		beq	.L321
 6181              	.LVL651:
 6182              	.LBB2224:
 6183              	.LBB2225:
  40:/home/zkmike/workspace/RZA2M/rza2m_2d_barcode_sample_freertos_gcc/src/zxing_lib/zxing/common/Counted.h ****     if (count_ == 0) {
 6184              		.loc 3 40 0
 6185 0844 043090E5 		ldr	r3, [r0, #4]
 6186 0848 013043E2 		sub	r3, r3, #1
 6187 084c 043080E5 		str	r3, [r0, #4]
  41:/home/zkmike/workspace/RZA2M/rza2m_2d_barcode_sample_freertos_gcc/src/zxing_lib/zxing/common/Counted.h ****       count_ = 0xDEADF001;
 6188              		.loc 3 41 0
 6189 0850 000053E3 		cmp	r3, #0
 6190 0854 3500000A 		beq	.L371
 6191              	.LVL652:
 6192              	.L321:
 6193              	.LBE2225:
 6194              	.LBE2224:
 6195              	.LBE2223:
 6196              	.LBE2222:
 6197              	.LBB2229:
 6198              	.LBB2230:
  75:/home/zkmike/workspace/RZA2M/rza2m_2d_barcode_sample_freertos_gcc/src/zxing_lib/zxing/common/Counted.h ****       object_->release();
 6199              		.loc 3 75 0
 6200 0858 14009DE5 		ldr	r0, [sp, #20]
 6201 085c 000050E3 		cmp	r0, #0
 6202 0860 0400000A 		beq	.L322
 6203              	.LVL653:
 6204              	.LBB2231:
 6205              	.LBB2232:
  40:/home/zkmike/workspace/RZA2M/rza2m_2d_barcode_sample_freertos_gcc/src/zxing_lib/zxing/common/Counted.h ****     if (count_ == 0) {
 6206              		.loc 3 40 0
 6207 0864 043090E5 		ldr	r3, [r0, #4]
 6208 0868 013043E2 		sub	r3, r3, #1
 6209 086c 043080E5 		str	r3, [r0, #4]
  41:/home/zkmike/workspace/RZA2M/rza2m_2d_barcode_sample_freertos_gcc/src/zxing_lib/zxing/common/Counted.h ****       count_ = 0xDEADF001;
 6210              		.loc 3 41 0
 6211 0870 000053E3 		cmp	r3, #0
 6212 0874 3400000A 		beq	.L372
 6213              	.LVL654:
 6214              	.L322:
 6215              	.LBE2232:
 6216              	.LBE2231:
 6217              	.LBE2230:
 6218              	.LBE2229:
 6219              	.LBB2236:
 6220              	.LBB2237:
  75:/home/zkmike/workspace/RZA2M/rza2m_2d_barcode_sample_freertos_gcc/src/zxing_lib/zxing/common/Counted.h ****       object_->release();
 6221              		.loc 3 75 0
 6222 0878 10009DE5 		ldr	r0, [sp, #16]
 6223 087c 000050E3 		cmp	r0, #0
 6224 0880 0400000A 		beq	.L262
 6225              	.LVL655:
 6226              	.LBB2238:
 6227              	.LBB2239:
  40:/home/zkmike/workspace/RZA2M/rza2m_2d_barcode_sample_freertos_gcc/src/zxing_lib/zxing/common/Counted.h ****     if (count_ == 0) {
 6228              		.loc 3 40 0
 6229 0884 043090E5 		ldr	r3, [r0, #4]
 6230 0888 013043E2 		sub	r3, r3, #1
 6231 088c 043080E5 		str	r3, [r0, #4]
  41:/home/zkmike/workspace/RZA2M/rza2m_2d_barcode_sample_freertos_gcc/src/zxing_lib/zxing/common/Counted.h ****       count_ = 0xDEADF001;
 6232              		.loc 3 41 0
 6233 0890 000053E3 		cmp	r3, #0
 6234 0894 3300000A 		beq	.L373
 6235              	.LVL656:
 6236              	.L262:
 6237              	.LBE2239:
 6238              	.LBE2238:
 6239              	.LBE2237:
 6240              	.LBE2236:
 6241              	.LBE1971:
 6242              	.LBE1970:
 229:../src/zxing_lib/zxing/common/detector/WhiteRectangleDetector.cpp **** 
 6243              		.loc 4 229 0
 6244 0898 0C009DE5 		ldr	r0, [sp, #12]
 6245 089c 44D08DE2 		add	sp, sp, #68
 6246              		.cfi_remember_state
 6247              		.cfi_def_cfa_offset 36
 6248              		@ sp needed
 6249 08a0 F08FBDE8 		pop	{r4, r5, r6, r7, r8, r9, r10, fp, pc}
 6250              	.LVL657:
 6251              	.L366:
 6252              		.cfi_restore_state
 6253              	.LBB2289:
 6254              	.LBB2283:
 6255              	.LBB2243:
 6256              	.LBB2193:
 6257              	.LBB2192:
 6258              	.LBB2191:
  42:/home/zkmike/workspace/RZA2M/rza2m_2d_barcode_sample_freertos_gcc/src/zxing_lib/zxing/common/Counted.h ****       delete this;
 6259              		.loc 3 42 0
 6260 08a4 01300FE3 		movw	r3, #61441
 6261 08a8 AD3E4DE3 		movt	r3, 57005
 6262 08ac 043080E5 		str	r3, [r0, #4]
  43:/home/zkmike/workspace/RZA2M/rza2m_2d_barcode_sample_freertos_gcc/src/zxing_lib/zxing/common/Counted.h ****     }
 6263              		.loc 3 43 0
 6264 08b0 003090E5 		ldr	r3, [r0]
 6265 08b4 043093E5 		ldr	r3, [r3, #4]
 6266 08b8 33FF2FE1 		blx	r3
 6267              	.LVL658:
 6268 08bc BDFFFFEA 		b	.L316
 6269              	.LVL659:
 6270              	.L367:
 6271              	.LBE2191:
 6272              	.LBE2192:
 6273              	.LBE2193:
 6274              	.LBE2243:
 6275              	.LBB2244:
 6276              	.LBB2200:
 6277              	.LBB2199:
 6278              	.LBB2198:
  42:/home/zkmike/workspace/RZA2M/rza2m_2d_barcode_sample_freertos_gcc/src/zxing_lib/zxing/common/Counted.h ****       delete this;
 6279              		.loc 3 42 0
 6280 08c0 01300FE3 		movw	r3, #61441
 6281 08c4 AD3E4DE3 		movt	r3, 57005
 6282 08c8 043080E5 		str	r3, [r0, #4]
  43:/home/zkmike/workspace/RZA2M/rza2m_2d_barcode_sample_freertos_gcc/src/zxing_lib/zxing/common/Counted.h ****     }
 6283              		.loc 3 43 0
 6284 08cc 003090E5 		ldr	r3, [r0]
 6285 08d0 043093E5 		ldr	r3, [r3, #4]
 6286 08d4 33FF2FE1 		blx	r3
 6287              	.LVL660:
 6288 08d8 BEFFFFEA 		b	.L317
 6289              	.LVL661:
 6290              	.L368:
 6291              	.LBE2198:
 6292              	.LBE2199:
 6293              	.LBE2200:
 6294              	.LBE2244:
 6295              	.LBB2245:
 6296              	.LBB2207:
 6297              	.LBB2206:
 6298              	.LBB2205:
  42:/home/zkmike/workspace/RZA2M/rza2m_2d_barcode_sample_freertos_gcc/src/zxing_lib/zxing/common/Counted.h ****       delete this;
 6299              		.loc 3 42 0
 6300 08dc 01300FE3 		movw	r3, #61441
 6301 08e0 AD3E4DE3 		movt	r3, 57005
 6302 08e4 043080E5 		str	r3, [r0, #4]
  43:/home/zkmike/workspace/RZA2M/rza2m_2d_barcode_sample_freertos_gcc/src/zxing_lib/zxing/common/Counted.h ****     }
 6303              		.loc 3 43 0
 6304 08e8 003090E5 		ldr	r3, [r0]
 6305 08ec 043093E5 		ldr	r3, [r3, #4]
 6306 08f0 33FF2FE1 		blx	r3
 6307              	.LVL662:
 6308 08f4 BFFFFFEA 		b	.L318
 6309              	.LVL663:
 6310              	.L369:
 6311              	.LBE2205:
 6312              	.LBE2206:
 6313              	.LBE2207:
 6314              	.LBE2245:
 6315              	.LBB2246:
 6316              	.LBB2214:
 6317              	.LBB2213:
 6318              	.LBB2212:
  42:/home/zkmike/workspace/RZA2M/rza2m_2d_barcode_sample_freertos_gcc/src/zxing_lib/zxing/common/Counted.h ****       delete this;
 6319              		.loc 3 42 0
 6320 08f8 01300FE3 		movw	r3, #61441
 6321 08fc AD3E4DE3 		movt	r3, 57005
 6322 0900 043080E5 		str	r3, [r0, #4]
  43:/home/zkmike/workspace/RZA2M/rza2m_2d_barcode_sample_freertos_gcc/src/zxing_lib/zxing/common/Counted.h ****     }
 6323              		.loc 3 43 0
 6324 0904 003090E5 		ldr	r3, [r0]
 6325 0908 043093E5 		ldr	r3, [r3, #4]
 6326 090c 33FF2FE1 		blx	r3
 6327              	.LVL664:
 6328 0910 C0FFFFEA 		b	.L319
 6329              	.LVL665:
 6330              	.L370:
 6331              	.LBE2212:
 6332              	.LBE2213:
 6333              	.LBE2214:
 6334              	.LBE2246:
 6335              	.LBB2247:
 6336              	.LBB2221:
 6337              	.LBB2220:
 6338              	.LBB2219:
  42:/home/zkmike/workspace/RZA2M/rza2m_2d_barcode_sample_freertos_gcc/src/zxing_lib/zxing/common/Counted.h ****       delete this;
 6339              		.loc 3 42 0
 6340 0914 01300FE3 		movw	r3, #61441
 6341 0918 AD3E4DE3 		movt	r3, 57005
 6342 091c 043080E5 		str	r3, [r0, #4]
  43:/home/zkmike/workspace/RZA2M/rza2m_2d_barcode_sample_freertos_gcc/src/zxing_lib/zxing/common/Counted.h ****     }
 6343              		.loc 3 43 0
 6344 0920 003090E5 		ldr	r3, [r0]
 6345 0924 043093E5 		ldr	r3, [r3, #4]
 6346 0928 33FF2FE1 		blx	r3
 6347              	.LVL666:
 6348 092c C1FFFFEA 		b	.L320
 6349              	.LVL667:
 6350              	.L371:
 6351              	.LBE2219:
 6352              	.LBE2220:
 6353              	.LBE2221:
 6354              	.LBE2247:
 6355              	.LBB2248:
 6356              	.LBB2228:
 6357              	.LBB2227:
 6358              	.LBB2226:
  42:/home/zkmike/workspace/RZA2M/rza2m_2d_barcode_sample_freertos_gcc/src/zxing_lib/zxing/common/Counted.h ****       delete this;
 6359              		.loc 3 42 0
 6360 0930 01300FE3 		movw	r3, #61441
 6361 0934 AD3E4DE3 		movt	r3, 57005
 6362 0938 043080E5 		str	r3, [r0, #4]
  43:/home/zkmike/workspace/RZA2M/rza2m_2d_barcode_sample_freertos_gcc/src/zxing_lib/zxing/common/Counted.h ****     }
 6363              		.loc 3 43 0
 6364 093c 003090E5 		ldr	r3, [r0]
 6365 0940 043093E5 		ldr	r3, [r3, #4]
 6366 0944 33FF2FE1 		blx	r3
 6367              	.LVL668:
 6368 0948 C2FFFFEA 		b	.L321
 6369              	.LVL669:
 6370              	.L372:
 6371              	.LBE2226:
 6372              	.LBE2227:
 6373              	.LBE2228:
 6374              	.LBE2248:
 6375              	.LBB2249:
 6376              	.LBB2235:
 6377              	.LBB2234:
 6378              	.LBB2233:
  42:/home/zkmike/workspace/RZA2M/rza2m_2d_barcode_sample_freertos_gcc/src/zxing_lib/zxing/common/Counted.h ****       delete this;
 6379              		.loc 3 42 0
 6380 094c 01300FE3 		movw	r3, #61441
 6381 0950 AD3E4DE3 		movt	r3, 57005
 6382 0954 043080E5 		str	r3, [r0, #4]
  43:/home/zkmike/workspace/RZA2M/rza2m_2d_barcode_sample_freertos_gcc/src/zxing_lib/zxing/common/Counted.h ****     }
 6383              		.loc 3 43 0
 6384 0958 003090E5 		ldr	r3, [r0]
 6385 095c 043093E5 		ldr	r3, [r3, #4]
 6386 0960 33FF2FE1 		blx	r3
 6387              	.LVL670:
 6388 0964 C3FFFFEA 		b	.L322
 6389              	.LVL671:
 6390              	.L373:
 6391              	.LBE2233:
 6392              	.LBE2234:
 6393              	.LBE2235:
 6394              	.LBE2249:
 6395              	.LBB2250:
 6396              	.LBB2242:
 6397              	.LBB2241:
 6398              	.LBB2240:
  42:/home/zkmike/workspace/RZA2M/rza2m_2d_barcode_sample_freertos_gcc/src/zxing_lib/zxing/common/Counted.h ****       delete this;
 6399              		.loc 3 42 0
 6400 0968 01300FE3 		movw	r3, #61441
 6401 096c AD3E4DE3 		movt	r3, 57005
 6402 0970 043080E5 		str	r3, [r0, #4]
  43:/home/zkmike/workspace/RZA2M/rza2m_2d_barcode_sample_freertos_gcc/src/zxing_lib/zxing/common/Counted.h ****     }
 6403              		.loc 3 43 0
 6404 0974 003090E5 		ldr	r3, [r0]
 6405 0978 043093E5 		ldr	r3, [r3, #4]
 6406 097c 33FF2FE1 		blx	r3
 6407              	.LVL672:
 6408              	.LBE2240:
 6409              	.LBE2241:
 6410              	.LBE2242:
 6411              	.LBE2250:
 224:../src/zxing_lib/zxing/common/detector/WhiteRectangleDetector.cpp **** 
 6412              		.loc 4 224 0
 6413 0980 C4FFFFEA 		b	.L262
 6414              	.LVL673:
 6415              	.L279:
 6416              	.LBE2283:
 227:../src/zxing_lib/zxing/common/detector/WhiteRectangleDetector.cpp ****   }
 6417              		.loc 4 227 0
 6418 0984 0800A0E3 		mov	r0, #8
 6419 0988 FEFFFFEB 		bl	__cxa_allocate_exception
 6420              	.LVL674:
 6421 098c 0040A0E1 		mov	r4, r0
 6422              	.LVL675:
 6423              	.LBB2284:
 6424              	.LBB2285:
 6425              	.LBB2286:
 6426              	.LBB2287:
  31:/home/zkmike/workspace/RZA2M/rza2m_2d_barcode_sample_freertos_gcc/src/zxing_lib/zxing/ReaderException.h ****   ~ReaderException() throw() {}
 6427              		.loc 7 31 0
 6428 0990 001000E3 		movw	r1, #:lower16:.LC6
 6429 0994 001040E3 		movt	r1, #:upper16:.LC6
 6430 0998 FEFFFFEB 		bl	_ZN5zxing9ExceptionC2EPKc
 6431              	.LVL676:
 6432              	.LBE2287:
 6433              	.LBE2286:
  29:/home/zkmike/workspace/RZA2M/rza2m_2d_barcode_sample_freertos_gcc/src/zxing_lib/zxing/NotFoundException.h ****   ~NotFoundException() throw() {}
 6434              		.loc 6 29 0
 6435 099c DC319FE5 		ldr	r3, .L374
 6436 09a0 003084E5 		str	r3, [r4]
 6437              	.LVL677:
 6438              	.LBE2285:
 6439              	.LBE2284:
 227:../src/zxing_lib/zxing/common/detector/WhiteRectangleDetector.cpp ****   }
 6440              		.loc 4 227 0
 6441 09a4 002000E3 		movw	r2, #:lower16:_ZN5zxing17NotFoundExceptionD1Ev
 6442 09a8 002040E3 		movt	r2, #:upper16:_ZN5zxing17NotFoundExceptionD1Ev
 6443 09ac 001000E3 		movw	r1, #:lower16:_ZTIN5zxing17NotFoundExceptionE
 6444 09b0 001040E3 		movt	r1, #:upper16:_ZTIN5zxing17NotFoundExceptionE
 6445 09b4 0400A0E1 		mov	r0, r4
 6446              	.LEHB45:
 6447 09b8 FEFFFFEB 		bl	__cxa_throw
 6448              	.LVL678:
 6449              	.L343:
 6450              	.LBB2288:
 6451              	.LBB2251:
 6452              	.LBB2252:
  75:/home/zkmike/workspace/RZA2M/rza2m_2d_barcode_sample_freertos_gcc/src/zxing_lib/zxing/common/Counted.h ****       object_->release();
 6453              		.loc 3 75 0
 6454 09bc 3C009DE5 		ldr	r0, [sp, #60]
 6455 09c0 000050E3 		cmp	r0, #0
 6456 09c4 0A00000A 		beq	.L325
 6457              	.LVL679:
 6458              	.LBB2253:
 6459              	.LBB2254:
  40:/home/zkmike/workspace/RZA2M/rza2m_2d_barcode_sample_freertos_gcc/src/zxing_lib/zxing/common/Counted.h ****     if (count_ == 0) {
 6460              		.loc 3 40 0
 6461 09c8 043090E5 		ldr	r3, [r0, #4]
 6462 09cc 013043E2 		sub	r3, r3, #1
 6463 09d0 043080E5 		str	r3, [r0, #4]
  41:/home/zkmike/workspace/RZA2M/rza2m_2d_barcode_sample_freertos_gcc/src/zxing_lib/zxing/common/Counted.h ****       count_ = 0xDEADF001;
 6464              		.loc 3 41 0
 6465 09d4 000053E3 		cmp	r3, #0
 6466 09d8 0500001A 		bne	.L325
  42:/home/zkmike/workspace/RZA2M/rza2m_2d_barcode_sample_freertos_gcc/src/zxing_lib/zxing/common/Counted.h ****       delete this;
 6467              		.loc 3 42 0
 6468 09dc 01300FE3 		movw	r3, #61441
 6469 09e0 AD3E4DE3 		movt	r3, 57005
 6470 09e4 043080E5 		str	r3, [r0, #4]
  43:/home/zkmike/workspace/RZA2M/rza2m_2d_barcode_sample_freertos_gcc/src/zxing_lib/zxing/common/Counted.h ****     }
 6471              		.loc 3 43 0
 6472 09e8 003090E5 		ldr	r3, [r0]
 6473 09ec 043093E5 		ldr	r3, [r3, #4]
 6474 09f0 33FF2FE1 		blx	r3
 6475              	.LVL680:
 6476              	.L325:
 6477              	.LBE2254:
 6478              	.LBE2253:
 6479              	.LBE2252:
 6480              	.LBE2251:
 6481              	.LBB2255:
 6482              	.LBB2256:
  75:/home/zkmike/workspace/RZA2M/rza2m_2d_barcode_sample_freertos_gcc/src/zxing_lib/zxing/common/Counted.h ****       object_->release();
 6483              		.loc 3 75 0
 6484 09f4 38009DE5 		ldr	r0, [sp, #56]
 6485 09f8 000050E3 		cmp	r0, #0
 6486 09fc 0A00000A 		beq	.L326
 6487              	.LVL681:
 6488              	.LBB2257:
 6489              	.LBB2258:
  40:/home/zkmike/workspace/RZA2M/rza2m_2d_barcode_sample_freertos_gcc/src/zxing_lib/zxing/common/Counted.h ****     if (count_ == 0) {
 6490              		.loc 3 40 0
 6491 0a00 043090E5 		ldr	r3, [r0, #4]
 6492 0a04 013043E2 		sub	r3, r3, #1
 6493 0a08 043080E5 		str	r3, [r0, #4]
  41:/home/zkmike/workspace/RZA2M/rza2m_2d_barcode_sample_freertos_gcc/src/zxing_lib/zxing/common/Counted.h ****       count_ = 0xDEADF001;
 6494              		.loc 3 41 0
 6495 0a0c 000053E3 		cmp	r3, #0
 6496 0a10 0500001A 		bne	.L326
  42:/home/zkmike/workspace/RZA2M/rza2m_2d_barcode_sample_freertos_gcc/src/zxing_lib/zxing/common/Counted.h ****       delete this;
 6497              		.loc 3 42 0
 6498 0a14 01300FE3 		movw	r3, #61441
 6499 0a18 AD3E4DE3 		movt	r3, 57005
 6500 0a1c 043080E5 		str	r3, [r0, #4]
  43:/home/zkmike/workspace/RZA2M/rza2m_2d_barcode_sample_freertos_gcc/src/zxing_lib/zxing/common/Counted.h ****     }
 6501              		.loc 3 43 0
 6502 0a20 003090E5 		ldr	r3, [r0]
 6503 0a24 043093E5 		ldr	r3, [r3, #4]
 6504 0a28 33FF2FE1 		blx	r3
 6505              	.LVL682:
 6506              	.L326:
 6507              	.LBE2258:
 6508              	.LBE2257:
 6509              	.LBE2256:
 6510              	.LBE2255:
 6511              	.LBB2259:
 6512              	.LBB2260:
  75:/home/zkmike/workspace/RZA2M/rza2m_2d_barcode_sample_freertos_gcc/src/zxing_lib/zxing/common/Counted.h ****       object_->release();
 6513              		.loc 3 75 0
 6514 0a2c 34009DE5 		ldr	r0, [sp, #52]
 6515 0a30 000050E3 		cmp	r0, #0
 6516 0a34 0A00000A 		beq	.L327
 6517              	.LVL683:
 6518              	.LBB2261:
 6519              	.LBB2262:
  40:/home/zkmike/workspace/RZA2M/rza2m_2d_barcode_sample_freertos_gcc/src/zxing_lib/zxing/common/Counted.h ****     if (count_ == 0) {
 6520              		.loc 3 40 0
 6521 0a38 043090E5 		ldr	r3, [r0, #4]
 6522 0a3c 013043E2 		sub	r3, r3, #1
 6523 0a40 043080E5 		str	r3, [r0, #4]
  41:/home/zkmike/workspace/RZA2M/rza2m_2d_barcode_sample_freertos_gcc/src/zxing_lib/zxing/common/Counted.h ****       count_ = 0xDEADF001;
 6524              		.loc 3 41 0
 6525 0a44 000053E3 		cmp	r3, #0
 6526 0a48 0500001A 		bne	.L327
  42:/home/zkmike/workspace/RZA2M/rza2m_2d_barcode_sample_freertos_gcc/src/zxing_lib/zxing/common/Counted.h ****       delete this;
 6527              		.loc 3 42 0
 6528 0a4c 01300FE3 		movw	r3, #61441
 6529 0a50 AD3E4DE3 		movt	r3, 57005
 6530 0a54 043080E5 		str	r3, [r0, #4]
  43:/home/zkmike/workspace/RZA2M/rza2m_2d_barcode_sample_freertos_gcc/src/zxing_lib/zxing/common/Counted.h ****     }
 6531              		.loc 3 43 0
 6532 0a58 003090E5 		ldr	r3, [r0]
 6533 0a5c 043093E5 		ldr	r3, [r3, #4]
 6534 0a60 33FF2FE1 		blx	r3
 6535              	.LVL684:
 6536              	.L327:
 6537              	.LBE2262:
 6538              	.LBE2261:
 6539              	.LBE2260:
 6540              	.LBE2259:
 6541              	.LBB2263:
 6542              	.LBB2264:
  75:/home/zkmike/workspace/RZA2M/rza2m_2d_barcode_sample_freertos_gcc/src/zxing_lib/zxing/common/Counted.h ****       object_->release();
 6543              		.loc 3 75 0
 6544 0a64 30009DE5 		ldr	r0, [sp, #48]
 6545 0a68 000050E3 		cmp	r0, #0
 6546 0a6c 0A00000A 		beq	.L329
 6547              	.LVL685:
 6548              	.LBB2265:
 6549              	.LBB2266:
  40:/home/zkmike/workspace/RZA2M/rza2m_2d_barcode_sample_freertos_gcc/src/zxing_lib/zxing/common/Counted.h ****     if (count_ == 0) {
 6550              		.loc 3 40 0
 6551 0a70 043090E5 		ldr	r3, [r0, #4]
 6552 0a74 013043E2 		sub	r3, r3, #1
 6553 0a78 043080E5 		str	r3, [r0, #4]
  41:/home/zkmike/workspace/RZA2M/rza2m_2d_barcode_sample_freertos_gcc/src/zxing_lib/zxing/common/Counted.h ****       count_ = 0xDEADF001;
 6554              		.loc 3 41 0
 6555 0a7c 000053E3 		cmp	r3, #0
 6556 0a80 0500001A 		bne	.L329
  42:/home/zkmike/workspace/RZA2M/rza2m_2d_barcode_sample_freertos_gcc/src/zxing_lib/zxing/common/Counted.h ****       delete this;
 6557              		.loc 3 42 0
 6558 0a84 01300FE3 		movw	r3, #61441
 6559 0a88 AD3E4DE3 		movt	r3, 57005
 6560 0a8c 043080E5 		str	r3, [r0, #4]
  43:/home/zkmike/workspace/RZA2M/rza2m_2d_barcode_sample_freertos_gcc/src/zxing_lib/zxing/common/Counted.h ****     }
 6561              		.loc 3 43 0
 6562 0a90 003090E5 		ldr	r3, [r0]
 6563 0a94 043093E5 		ldr	r3, [r3, #4]
 6564 0a98 33FF2FE1 		blx	r3
 6565              	.LVL686:
 6566              	.L329:
 6567              	.LBE2266:
 6568              	.LBE2265:
 6569              	.LBE2264:
 6570              	.LBE2263:
 6571              	.LBB2267:
 6572              	.LBB2268:
  75:/home/zkmike/workspace/RZA2M/rza2m_2d_barcode_sample_freertos_gcc/src/zxing_lib/zxing/common/Counted.h ****       object_->release();
 6573              		.loc 3 75 0
 6574 0a9c 1C009DE5 		ldr	r0, [sp, #28]
 6575 0aa0 000050E3 		cmp	r0, #0
 6576 0aa4 0A00000A 		beq	.L331
 6577              	.LVL687:
 6578              	.LBB2269:
 6579              	.LBB2270:
  40:/home/zkmike/workspace/RZA2M/rza2m_2d_barcode_sample_freertos_gcc/src/zxing_lib/zxing/common/Counted.h ****     if (count_ == 0) {
 6580              		.loc 3 40 0
 6581 0aa8 043090E5 		ldr	r3, [r0, #4]
 6582 0aac 013043E2 		sub	r3, r3, #1
 6583 0ab0 043080E5 		str	r3, [r0, #4]
  41:/home/zkmike/workspace/RZA2M/rza2m_2d_barcode_sample_freertos_gcc/src/zxing_lib/zxing/common/Counted.h ****       count_ = 0xDEADF001;
 6584              		.loc 3 41 0
 6585 0ab4 000053E3 		cmp	r3, #0
 6586 0ab8 0500001A 		bne	.L331
  42:/home/zkmike/workspace/RZA2M/rza2m_2d_barcode_sample_freertos_gcc/src/zxing_lib/zxing/common/Counted.h ****       delete this;
 6587              		.loc 3 42 0
 6588 0abc 01300FE3 		movw	r3, #61441
 6589 0ac0 AD3E4DE3 		movt	r3, 57005
 6590 0ac4 043080E5 		str	r3, [r0, #4]
  43:/home/zkmike/workspace/RZA2M/rza2m_2d_barcode_sample_freertos_gcc/src/zxing_lib/zxing/common/Counted.h ****     }
 6591              		.loc 3 43 0
 6592 0ac8 003090E5 		ldr	r3, [r0]
 6593 0acc 043093E5 		ldr	r3, [r3, #4]
 6594 0ad0 33FF2FE1 		blx	r3
 6595              	.LVL688:
 6596              	.L331:
 6597              	.LBE2270:
 6598              	.LBE2269:
 6599              	.LBE2268:
 6600              	.LBE2267:
 6601              	.LBB2271:
 6602              	.LBB2272:
  75:/home/zkmike/workspace/RZA2M/rza2m_2d_barcode_sample_freertos_gcc/src/zxing_lib/zxing/common/Counted.h ****       object_->release();
 6603              		.loc 3 75 0
 6604 0ad4 18009DE5 		ldr	r0, [sp, #24]
 6605 0ad8 000050E3 		cmp	r0, #0
 6606 0adc 0A00000A 		beq	.L333
 6607              	.LVL689:
 6608              	.LBB2273:
 6609              	.LBB2274:
  40:/home/zkmike/workspace/RZA2M/rza2m_2d_barcode_sample_freertos_gcc/src/zxing_lib/zxing/common/Counted.h ****     if (count_ == 0) {
 6610              		.loc 3 40 0
 6611 0ae0 043090E5 		ldr	r3, [r0, #4]
 6612 0ae4 013043E2 		sub	r3, r3, #1
 6613 0ae8 043080E5 		str	r3, [r0, #4]
  41:/home/zkmike/workspace/RZA2M/rza2m_2d_barcode_sample_freertos_gcc/src/zxing_lib/zxing/common/Counted.h ****       count_ = 0xDEADF001;
 6614              		.loc 3 41 0
 6615 0aec 000053E3 		cmp	r3, #0
 6616 0af0 0500001A 		bne	.L333
  42:/home/zkmike/workspace/RZA2M/rza2m_2d_barcode_sample_freertos_gcc/src/zxing_lib/zxing/common/Counted.h ****       delete this;
 6617              		.loc 3 42 0
 6618 0af4 01300FE3 		movw	r3, #61441
 6619 0af8 AD3E4DE3 		movt	r3, 57005
 6620 0afc 043080E5 		str	r3, [r0, #4]
  43:/home/zkmike/workspace/RZA2M/rza2m_2d_barcode_sample_freertos_gcc/src/zxing_lib/zxing/common/Counted.h ****     }
 6621              		.loc 3 43 0
 6622 0b00 003090E5 		ldr	r3, [r0]
 6623 0b04 043093E5 		ldr	r3, [r3, #4]
 6624 0b08 33FF2FE1 		blx	r3
 6625              	.LVL690:
 6626              	.L333:
 6627              	.LBE2274:
 6628              	.LBE2273:
 6629              	.LBE2272:
 6630              	.LBE2271:
 6631              	.LBB2275:
 6632              	.LBB2276:
  75:/home/zkmike/workspace/RZA2M/rza2m_2d_barcode_sample_freertos_gcc/src/zxing_lib/zxing/common/Counted.h ****       object_->release();
 6633              		.loc 3 75 0
 6634 0b0c 14009DE5 		ldr	r0, [sp, #20]
 6635 0b10 000050E3 		cmp	r0, #0
 6636 0b14 0A00000A 		beq	.L335
 6637              	.LVL691:
 6638              	.LBB2277:
 6639              	.LBB2278:
  40:/home/zkmike/workspace/RZA2M/rza2m_2d_barcode_sample_freertos_gcc/src/zxing_lib/zxing/common/Counted.h ****     if (count_ == 0) {
 6640              		.loc 3 40 0
 6641 0b18 043090E5 		ldr	r3, [r0, #4]
 6642 0b1c 013043E2 		sub	r3, r3, #1
 6643 0b20 043080E5 		str	r3, [r0, #4]
  41:/home/zkmike/workspace/RZA2M/rza2m_2d_barcode_sample_freertos_gcc/src/zxing_lib/zxing/common/Counted.h ****       count_ = 0xDEADF001;
 6644              		.loc 3 41 0
 6645 0b24 000053E3 		cmp	r3, #0
 6646 0b28 0500001A 		bne	.L335
  42:/home/zkmike/workspace/RZA2M/rza2m_2d_barcode_sample_freertos_gcc/src/zxing_lib/zxing/common/Counted.h ****       delete this;
 6647              		.loc 3 42 0
 6648 0b2c 01300FE3 		movw	r3, #61441
 6649 0b30 AD3E4DE3 		movt	r3, 57005
 6650 0b34 043080E5 		str	r3, [r0, #4]
  43:/home/zkmike/workspace/RZA2M/rza2m_2d_barcode_sample_freertos_gcc/src/zxing_lib/zxing/common/Counted.h ****     }
 6651              		.loc 3 43 0
 6652 0b38 003090E5 		ldr	r3, [r0]
 6653 0b3c 043093E5 		ldr	r3, [r3, #4]
 6654 0b40 33FF2FE1 		blx	r3
 6655              	.LVL692:
 6656              	.L335:
 6657              	.LBE2278:
 6658              	.LBE2277:
 6659              	.LBE2276:
 6660              	.LBE2275:
 6661              	.LBB2279:
 6662              	.LBB2280:
  75:/home/zkmike/workspace/RZA2M/rza2m_2d_barcode_sample_freertos_gcc/src/zxing_lib/zxing/common/Counted.h ****       object_->release();
 6663              		.loc 3 75 0
 6664 0b44 10009DE5 		ldr	r0, [sp, #16]
 6665 0b48 000050E3 		cmp	r0, #0
 6666 0b4c 0A00000A 		beq	.L336
 6667              	.LVL693:
 6668              	.LBB2281:
 6669              	.LBB2282:
  40:/home/zkmike/workspace/RZA2M/rza2m_2d_barcode_sample_freertos_gcc/src/zxing_lib/zxing/common/Counted.h ****     if (count_ == 0) {
 6670              		.loc 3 40 0
 6671 0b50 043090E5 		ldr	r3, [r0, #4]
 6672 0b54 013043E2 		sub	r3, r3, #1
 6673 0b58 043080E5 		str	r3, [r0, #4]
  41:/home/zkmike/workspace/RZA2M/rza2m_2d_barcode_sample_freertos_gcc/src/zxing_lib/zxing/common/Counted.h ****       count_ = 0xDEADF001;
 6674              		.loc 3 41 0
 6675 0b5c 000053E3 		cmp	r3, #0
 6676 0b60 0500001A 		bne	.L336
  42:/home/zkmike/workspace/RZA2M/rza2m_2d_barcode_sample_freertos_gcc/src/zxing_lib/zxing/common/Counted.h ****       delete this;
 6677              		.loc 3 42 0
 6678 0b64 01300FE3 		movw	r3, #61441
 6679 0b68 AD3E4DE3 		movt	r3, 57005
 6680 0b6c 043080E5 		str	r3, [r0, #4]
  43:/home/zkmike/workspace/RZA2M/rza2m_2d_barcode_sample_freertos_gcc/src/zxing_lib/zxing/common/Counted.h ****     }
 6681              		.loc 3 43 0
 6682 0b70 003090E5 		ldr	r3, [r0]
 6683 0b74 043093E5 		ldr	r3, [r3, #4]
 6684 0b78 33FF2FE1 		blx	r3
 6685              	.LVL694:
 6686              	.L336:
 6687 0b7c FEFFFFEB 		bl	__cxa_end_cleanup
 6688              	.LVL695:
 6689              	.LEHE45:
 6690              	.L375:
 6691              		.align	2
 6692              	.L374:
 6693 0b80 08000000 		.word	_ZTVN5zxing17NotFoundExceptionE+8
 6694              	.LBE2282:
 6695              	.LBE2281:
 6696              	.LBE2280:
 6697              	.LBE2279:
 6698              	.LBE2288:
 6699              	.LBE2289:
 6700              		.cfi_endproc
 6701              	.LFE2326:
 6702              		.personality	__gxx_personality_v0
 6703              		.handlerdata
 6704              	.LLSDA2326:
 6705 0008 FF       		.byte	0xff
 6706 0009 FF       		.byte	0xff
 6707 000a 01       		.byte	0x1
 6708 000b 2D       		.uleb128 .LLSDACSE2326-.LLSDACSB2326
 6709              	.LLSDACSB2326:
 6710 000c 9C04     		.uleb128 .LEHB39-.LFB2326
 6711 000e 9001     		.uleb128 .LEHE39-.LEHB39
 6712 0010 AC05     		.uleb128 .L339-.LFB2326
 6713 0012 00       		.uleb128 0
 6714 0013 BC06     		.uleb128 .LEHB40-.LFB2326
 6715 0015 9001     		.uleb128 .LEHE40-.LEHB40
 6716 0017 CC07     		.uleb128 .L340-.LFB2326
 6717 0019 00       		.uleb128 0
 6718 001a DC08     		.uleb128 .LEHB41-.LFB2326
 6719 001c 9001     		.uleb128 .LEHE41-.LEHB41
 6720 001e EC09     		.uleb128 .L341-.LFB2326
 6721 0020 00       		.uleb128 0
 6722 0021 FC0A     		.uleb128 .LEHB42-.LFB2326
 6723 0023 04       		.uleb128 .LEHE42-.LEHB42
 6724 0024 A40E     		.uleb128 .L342-.LFB2326
 6725 0026 00       		.uleb128 0
 6726 0027 E40D     		.uleb128 .LEHB43-.LFB2326
 6727 0029 04       		.uleb128 .LEHE43-.LEHB43
 6728 002a BC13     		.uleb128 .L343-.LFB2326
 6729 002c 00       		.uleb128 0
 6730 002d A00E     		.uleb128 .LEHB44-.LFB2326
 6731 002f 04       		.uleb128 .LEHE44-.LEHB44
 6732 0030 A40E     		.uleb128 .L342-.LFB2326
 6733 0032 00       		.uleb128 0
 6734 0033 B813     		.uleb128 .LEHB45-.LFB2326
 6735 0035 C803     		.uleb128 .LEHE45-.LEHB45
 6736 0037 00       		.uleb128 0
 6737 0038 00       		.uleb128 0
 6738              	.LLSDACSE2326:
 6739              		.section	.text._ZN5zxing22WhiteRectangleDetector6detectEv
 6740              		.fnend
 6742              		.section	.text._GLOBAL__sub_I__ZN5zxing22WhiteRectangleDetector9INIT_SIZEE,"ax",%progbits
 6743              		.align	2
 6744              		.syntax unified
 6745              		.arm
 6746              		.fpu neon
 6748              	_GLOBAL__sub_I__ZN5zxing22WhiteRectangleDetector9INIT_SIZEE:
 6749              		.fnstart
 6750              	.LFB2870:
 6751              		.loc 4 330 0
 6752              		.cfi_startproc
 6753              		@ args = 0, pretend = 0, frame = 0
 6754              		@ frame_needed = 0, uses_anonymous_args = 0
 6755 0000 10402DE9 		push	{r4, lr}
 6756              		.cfi_def_cfa_offset 8
 6757              		.cfi_offset 4, -8
 6758              		.cfi_offset 14, -4
 6759              		.loc 4 330 0
 6760 0004 FF1F0FE3 		movw	r1, #65535
 6761 0008 0100A0E3 		mov	r0, #1
 6762 000c FEFFFFEB 		bl	_Z41__static_initialization_and_destruction_0ii
 6763              	.LVL696:
 6764 0010 1080BDE8 		pop	{r4, pc}
 6765              		.cfi_endproc
 6766              	.LFE2870:
 6767              		.cantunwind
 6768              		.fnend
 6770              		.section	.init_array,"aw",%init_array
 6771              		.align	2
 6772 0000 00000000 		.word	_GLOBAL__sub_I__ZN5zxing22WhiteRectangleDetector9INIT_SIZEE(target1)
 6773              		.weak	_ZTSN5zxing9ExceptionE
 6774              		.section	.rodata._ZTSN5zxing9ExceptionE,"aG",%progbits,_ZTSN5zxing9ExceptionE,comdat
 6775              		.align	2
 6778              	_ZTSN5zxing9ExceptionE:
 6779 0000 4E357A78 		.ascii	"N5zxing9ExceptionE\000"
 6779      696E6739 
 6779      45786365 
 6779      7074696F 
 6779      6E4500
 6780              		.weak	_ZTIN5zxing9ExceptionE
 6781              		.section	.rodata._ZTIN5zxing9ExceptionE,"aG",%progbits,_ZTIN5zxing9ExceptionE,comdat
 6782              		.align	2
 6785              	_ZTIN5zxing9ExceptionE:
 6786 0000 08000000 		.word	_ZTVN10__cxxabiv120__si_class_type_infoE+8
 6787 0004 00000000 		.word	_ZTSN5zxing9ExceptionE
 6788 0008 00000000 		.word	_ZTISt9exception
 6789              		.weak	_ZTSN5zxing15ReaderExceptionE
 6790              		.section	.rodata._ZTSN5zxing15ReaderExceptionE,"aG",%progbits,_ZTSN5zxing15ReaderExceptionE,comdat
 6791              		.align	2
 6794              	_ZTSN5zxing15ReaderExceptionE:
 6795 0000 4E357A78 		.ascii	"N5zxing15ReaderExceptionE\000"
 6795      696E6731 
 6795      35526561 
 6795      64657245 
 6795      78636570 
 6796              		.weak	_ZTIN5zxing15ReaderExceptionE
 6797              		.section	.rodata._ZTIN5zxing15ReaderExceptionE,"aG",%progbits,_ZTIN5zxing15ReaderExceptionE,comdat
 6798              		.align	2
 6801              	_ZTIN5zxing15ReaderExceptionE:
 6802 0000 08000000 		.word	_ZTVN10__cxxabiv120__si_class_type_infoE+8
 6803 0004 00000000 		.word	_ZTSN5zxing15ReaderExceptionE
 6804 0008 00000000 		.word	_ZTIN5zxing9ExceptionE
 6805              		.weak	_ZTSN5zxing17NotFoundExceptionE
 6806              		.section	.rodata._ZTSN5zxing17NotFoundExceptionE,"aG",%progbits,_ZTSN5zxing17NotFoundExceptionE,co
 6807              		.align	2
 6810              	_ZTSN5zxing17NotFoundExceptionE:
 6811 0000 4E357A78 		.ascii	"N5zxing17NotFoundExceptionE\000"
 6811      696E6731 
 6811      374E6F74 
 6811      466F756E 
 6811      64457863 
 6812              		.weak	_ZTIN5zxing17NotFoundExceptionE
 6813              		.section	.rodata._ZTIN5zxing17NotFoundExceptionE,"aG",%progbits,_ZTIN5zxing17NotFoundExceptionE,co
 6814              		.align	2
 6817              	_ZTIN5zxing17NotFoundExceptionE:
 6818 0000 08000000 		.word	_ZTVN10__cxxabiv120__si_class_type_infoE+8
 6819 0004 00000000 		.word	_ZTSN5zxing17NotFoundExceptionE
 6820 0008 00000000 		.word	_ZTIN5zxing15ReaderExceptionE
 6821              		.weak	_ZTSN5zxing7CountedE
 6822              		.section	.rodata._ZTSN5zxing7CountedE,"aG",%progbits,_ZTSN5zxing7CountedE,comdat
 6823              		.align	2
 6826              	_ZTSN5zxing7CountedE:
 6827 0000 4E357A78 		.ascii	"N5zxing7CountedE\000"
 6827      696E6737 
 6827      436F756E 
 6827      74656445 
 6827      00
 6828              		.weak	_ZTIN5zxing7CountedE
 6829              		.section	.rodata._ZTIN5zxing7CountedE,"aG",%progbits,_ZTIN5zxing7CountedE,comdat
 6830              		.align	2
 6833              	_ZTIN5zxing7CountedE:
 6834 0000 08000000 		.word	_ZTVN10__cxxabiv117__class_type_infoE+8
 6835 0004 00000000 		.word	_ZTSN5zxing7CountedE
 6836              		.weak	_ZTSN5zxing22WhiteRectangleDetectorE
 6837              		.section	.rodata._ZTSN5zxing22WhiteRectangleDetectorE,"aG",%progbits,_ZTSN5zxing22WhiteRectangleDe
 6838              		.align	2
 6841              	_ZTSN5zxing22WhiteRectangleDetectorE:
 6842 0000 4E357A78 		.ascii	"N5zxing22WhiteRectangleDetectorE\000"
 6842      696E6732 
 6842      32576869 
 6842      74655265 
 6842      6374616E 
 6843              		.weak	_ZTIN5zxing22WhiteRectangleDetectorE
 6844              		.section	.rodata._ZTIN5zxing22WhiteRectangleDetectorE,"aG",%progbits,_ZTIN5zxing22WhiteRectangleDe
 6845              		.align	2
 6848              	_ZTIN5zxing22WhiteRectangleDetectorE:
 6849 0000 08000000 		.word	_ZTVN10__cxxabiv120__si_class_type_infoE+8
 6850 0004 00000000 		.word	_ZTSN5zxing22WhiteRectangleDetectorE
 6851 0008 00000000 		.word	_ZTIN5zxing7CountedE
 6852              		.weak	_ZTVN5zxing9ExceptionE
 6853              		.section	.rodata._ZTVN5zxing9ExceptionE,"aG",%progbits,_ZTVN5zxing9ExceptionE,comdat
 6854              		.align	2
 6857              	_ZTVN5zxing9ExceptionE:
 6858 0000 00000000 		.word	0
 6859 0004 00000000 		.word	_ZTIN5zxing9ExceptionE
 6860 0008 00000000 		.word	_ZN5zxing9ExceptionD1Ev
 6861 000c 00000000 		.word	_ZN5zxing9ExceptionD0Ev
 6862 0010 00000000 		.word	_ZNK5zxing9Exception4whatEv
 6863              		.weak	_ZTVN5zxing15ReaderExceptionE
 6864              		.section	.rodata._ZTVN5zxing15ReaderExceptionE,"aG",%progbits,_ZTVN5zxing15ReaderExceptionE,comdat
 6865              		.align	2
 6868              	_ZTVN5zxing15ReaderExceptionE:
 6869 0000 00000000 		.word	0
 6870 0004 00000000 		.word	_ZTIN5zxing15ReaderExceptionE
 6871 0008 00000000 		.word	_ZN5zxing15ReaderExceptionD1Ev
 6872 000c 00000000 		.word	_ZN5zxing15ReaderExceptionD0Ev
 6873 0010 00000000 		.word	_ZNK5zxing9Exception4whatEv
 6874              		.weak	_ZTVN5zxing17NotFoundExceptionE
 6875              		.section	.rodata._ZTVN5zxing17NotFoundExceptionE,"aG",%progbits,_ZTVN5zxing17NotFoundExceptionE,co
 6876              		.align	2
 6879              	_ZTVN5zxing17NotFoundExceptionE:
 6880 0000 00000000 		.word	0
 6881 0004 00000000 		.word	_ZTIN5zxing17NotFoundExceptionE
 6882 0008 00000000 		.word	_ZN5zxing17NotFoundExceptionD1Ev
 6883 000c 00000000 		.word	_ZN5zxing17NotFoundExceptionD0Ev
 6884 0010 00000000 		.word	_ZNK5zxing9Exception4whatEv
 6885              		.weak	_ZTVN5zxing22WhiteRectangleDetectorE
 6886              		.section	.rodata._ZTVN5zxing22WhiteRectangleDetectorE,"aG",%progbits,_ZTVN5zxing22WhiteRectangleDe
 6887              		.align	2
 6890              	_ZTVN5zxing22WhiteRectangleDetectorE:
 6891 0000 00000000 		.word	0
 6892 0004 00000000 		.word	_ZTIN5zxing22WhiteRectangleDetectorE
 6893 0008 00000000 		.word	_ZN5zxing22WhiteRectangleDetectorD1Ev
 6894 000c 00000000 		.word	_ZN5zxing22WhiteRectangleDetectorD0Ev
 6895              		.global	_ZN5zxing22WhiteRectangleDetector4CORRE
 6896              		.global	_ZN5zxing22WhiteRectangleDetector9INIT_SIZEE
 6897              		.section	.bss._ZStL8__ioinit,"aw",%nobits
 6898              		.align	2
 6899              		.set	.LANCHOR0,. + 0
 6902              	_ZStL8__ioinit:
 6903 0000 00       		.space	1
 6904              		.section	.data._ZN5zxing22WhiteRectangleDetector4CORRE,"aw",%progbits
 6905              		.align	2
 6906              		.set	.LANCHOR2,. + 0
 6909              	_ZN5zxing22WhiteRectangleDetector4CORRE:
 6910 0000 01000000 		.word	1
 6911              		.section	.data._ZN5zxing22WhiteRectangleDetector9INIT_SIZEE,"aw",%progbits
 6912              		.align	2
 6913              		.set	.LANCHOR1,. + 0
 6916              	_ZN5zxing22WhiteRectangleDetector9INIT_SIZEE:
 6917 0000 1E000000 		.word	30
 6918              		.section	.rodata._ZN5zxing22WhiteRectangleDetector6detectEv.str1.4,"aMS",%progbits,1
 6919              		.align	2
 6920              	.LC2:
 6921 0000 7A203D3D 		.ascii	"z == NULL\000"
 6921      204E554C 
 6921      4C00
 6922 000a 0000     		.space	2
 6923              	.LC3:
 6924 000c 74203D3D 		.ascii	"t == NULL\000"
 6924      204E554C 
 6924      4C00
 6925 0016 0000     		.space	2
 6926              	.LC4:
 6927 0018 78203D3D 		.ascii	"x == NULL\000"
 6927      204E554C 
 6927      4C00
 6928 0022 0000     		.space	2
 6929              	.LC5:
 6930 0024 79203D3D 		.ascii	"y == NULL\000"
 6930      204E554C 
 6930      4C00
 6931 002e 0000     		.space	2
 6932              	.LC6:
 6933 0030 4E6F2062 		.ascii	"No black point found on border\000"
 6933      6C61636B 
 6933      20706F69 
 6933      6E742066 
 6933      6F756E64 
 6934              		.section	.rodata._ZN5zxing22WhiteRectangleDetectorC2ENS_3RefINS_9BitMatrixEEE.str1.4,"aMS",%progbi
 6935              		.align	2
 6936              	.LC1:
 6937 0000 496E7661 		.ascii	"Invalid dimensions WhiteRectangleDetector\000"
 6937      6C696420 
 6937      64696D65 
 6937      6E73696F 
 6937      6E732057 
 6938              		.section	.rodata._ZNK5zxing9Exception4whatEv.str1.4,"aMS",%progbits,1
 6939              		.align	2
 6940              	.LC0:
 6941 0000 00       		.ascii	"\000"
 6942              		.text
 6943              	.Letext0:
 6944              		.file 15 "/home/zkmike/.local/share/renesas/e2_studio/toolchains/gcc_arm/gcc-arm-none-eabi-6-2017-
 6945              		.file 16 "/home/zkmike/.local/share/renesas/e2_studio/toolchains/gcc_arm/gcc-arm-none-eabi-6-2017-
 6946              		.file 17 "/home/zkmike/.local/share/renesas/e2_studio/toolchains/gcc_arm/gcc-arm-none-eabi-6-2017-
 6947              		.file 18 "/home/zkmike/.local/share/renesas/e2_studio/toolchains/gcc_arm/gcc-arm-none-eabi-6-2017-
 6948              		.file 19 "/home/zkmike/.local/share/renesas/e2_studio/toolchains/gcc_arm/gcc-arm-none-eabi-6-2017-
 6949              		.file 20 "/home/zkmike/.local/share/renesas/e2_studio/toolchains/gcc_arm/gcc-arm-none-eabi-6-2017-
 6950              		.file 21 "/home/zkmike/.local/share/renesas/e2_studio/toolchains/gcc_arm/gcc-arm-none-eabi-6-2017-
 6951              		.file 22 "/home/zkmike/.local/share/renesas/e2_studio/toolchains/gcc_arm/gcc-arm-none-eabi-6-2017-
 6952              		.file 23 "/home/zkmike/.local/share/renesas/e2_studio/toolchains/gcc_arm/gcc-arm-none-eabi-6-2017-
 6953              		.file 24 "/home/zkmike/.local/share/renesas/e2_studio/toolchains/gcc_arm/gcc-arm-none-eabi-6-2017-
 6954              		.file 25 "/home/zkmike/.local/share/renesas/e2_studio/toolchains/gcc_arm/gcc-arm-none-eabi-6-2017-
 6955              		.file 26 "/home/zkmike/.local/share/renesas/e2_studio/toolchains/gcc_arm/gcc-arm-none-eabi-6-2017-
 6956              		.file 27 "/home/zkmike/.local/share/renesas/e2_studio/toolchains/gcc_arm/gcc-arm-none-eabi-6-2017-
 6957              		.file 28 "/home/zkmike/.local/share/renesas/e2_studio/toolchains/gcc_arm/gcc-arm-none-eabi-6-2017-
 6958              		.file 29 "/home/zkmike/.local/share/renesas/e2_studio/toolchains/gcc_arm/gcc-arm-none-eabi-6-2017-
 6959              		.file 30 "/home/zkmike/.local/share/renesas/e2_studio/toolchains/gcc_arm/gcc-arm-none-eabi-6-2017-
 6960              		.file 31 "/home/zkmike/.local/share/renesas/e2_studio/toolchains/gcc_arm/gcc-arm-none-eabi-6-2017-
 6961              		.file 32 "/home/zkmike/.local/share/renesas/e2_studio/toolchains/gcc_arm/gcc-arm-none-eabi-6-2017-
 6962              		.file 33 "/home/zkmike/.local/share/renesas/e2_studio/toolchains/gcc_arm/gcc-arm-none-eabi-6-2017-
 6963              		.file 34 "/home/zkmike/.local/share/renesas/e2_studio/toolchains/gcc_arm/gcc-arm-none-eabi-6-2017-
 6964              		.file 35 "/home/zkmike/.local/share/renesas/e2_studio/toolchains/gcc_arm/gcc-arm-none-eabi-6-2017-
 6965              		.file 36 "/home/zkmike/.local/share/renesas/e2_studio/toolchains/gcc_arm/gcc-arm-none-eabi-6-2017-
 6966              		.file 37 "/home/zkmike/.local/share/renesas/e2_studio/toolchains/gcc_arm/gcc-arm-none-eabi-6-2017-
 6967              		.file 38 "/home/zkmike/.local/share/renesas/e2_studio/toolchains/gcc_arm/gcc-arm-none-eabi-6-2017-
 6968              		.file 39 "/home/zkmike/.local/share/renesas/e2_studio/toolchains/gcc_arm/gcc-arm-none-eabi-6-2017-
 6969              		.file 40 "/home/zkmike/.local/share/renesas/e2_studio/toolchains/gcc_arm/gcc-arm-none-eabi-6-2017-
 6970              		.file 41 "/home/zkmike/.local/share/renesas/e2_studio/toolchains/gcc_arm/gcc-arm-none-eabi-6-2017-
 6971              		.file 42 "/home/zkmike/.local/share/renesas/e2_studio/toolchains/gcc_arm/gcc-arm-none-eabi-6-2017-
 6972              		.file 43 "/home/zkmike/.local/share/renesas/e2_studio/toolchains/gcc_arm/gcc-arm-none-eabi-6-2017-
 6973              		.file 44 "/home/zkmike/.local/share/renesas/e2_studio/toolchains/gcc_arm/gcc-arm-none-eabi-6-2017-
 6974              		.file 45 "/home/zkmike/.local/share/renesas/e2_studio/toolchains/gcc_arm/gcc-arm-none-eabi-6-2017-
 6975              		.file 46 "/home/zkmike/.local/share/renesas/e2_studio/toolchains/gcc_arm/gcc-arm-none-eabi-6-2017-
 6976              		.file 47 "/home/zkmike/.local/share/renesas/e2_studio/toolchains/gcc_arm/gcc-arm-none-eabi-6-2017-
 6977              		.file 48 "/home/zkmike/.local/share/renesas/e2_studio/toolchains/gcc_arm/gcc-arm-none-eabi-6-2017-
 6978              		.file 49 "/home/zkmike/.local/share/renesas/e2_studio/toolchains/gcc_arm/gcc-arm-none-eabi-6-2017-
 6979              		.file 50 "<built-in>"
 6980              		.file 51 "/home/zkmike/.local/share/renesas/e2_studio/toolchains/gcc_arm/gcc-arm-none-eabi-6-2017-
 6981              		.file 52 "/home/zkmike/.local/share/renesas/e2_studio/toolchains/gcc_arm/gcc-arm-none-eabi-6-2017-
 6982              		.file 53 "/home/zkmike/.local/share/renesas/e2_studio/toolchains/gcc_arm/gcc-arm-none-eabi-6-2017-
 6983              		.file 54 "/home/zkmike/.local/share/renesas/e2_studio/toolchains/gcc_arm/gcc-arm-none-eabi-6-2017-
 6984              		.file 55 "/home/zkmike/.local/share/renesas/e2_studio/toolchains/gcc_arm/gcc-arm-none-eabi-6-2017-
 6985              		.file 56 "/home/zkmike/.local/share/renesas/e2_studio/toolchains/gcc_arm/gcc-arm-none-eabi-6-2017-
 6986              		.file 57 "/home/zkmike/.local/share/renesas/e2_studio/toolchains/gcc_arm/gcc-arm-none-eabi-6-2017-
 6987              		.file 58 "/home/zkmike/.local/share/renesas/e2_studio/toolchains/gcc_arm/gcc-arm-none-eabi-6-2017-
 6988              		.file 59 "/home/zkmike/.local/share/renesas/e2_studio/toolchains/gcc_arm/gcc-arm-none-eabi-6-2017-
 6989              		.file 60 "/home/zkmike/.local/share/renesas/e2_studio/toolchains/gcc_arm/gcc-arm-none-eabi-6-2017-
 6990              		.file 61 "/home/zkmike/.local/share/renesas/e2_studio/toolchains/gcc_arm/gcc-arm-none-eabi-6-2017-
DEFINED SYMBOLS
                            *ABS*:0000000000000000 WhiteRectangleDetector.cpp
     /tmp/ccMHOY6a.s:17     .text._ZNK5zxing9Exception4whatEv:0000000000000000 $a
     /tmp/ccMHOY6a.s:23     .text._ZNK5zxing9Exception4whatEv:0000000000000000 _ZNK5zxing9Exception4whatEv
     /tmp/ccMHOY6a.s:6940   .rodata._ZNK5zxing9Exception4whatEv.str1.4:0000000000000000 .LC0
.ARM.exidx.text._ZNK5zxing9Exception4whatEv:0000000000000000 $d
     /tmp/ccMHOY6a.s:47     .text._ZN5zxing22WhiteRectangleDetectorD2Ev:0000000000000000 $a
     /tmp/ccMHOY6a.s:53     .text._ZN5zxing22WhiteRectangleDetectorD2Ev:0000000000000000 _ZN5zxing22WhiteRectangleDetectorD2Ev
     /tmp/ccMHOY6a.s:120    .text._ZN5zxing22WhiteRectangleDetectorD2Ev:0000000000000054 $d
     /tmp/ccMHOY6a.s:6890   .rodata._ZTVN5zxing22WhiteRectangleDetectorE:0000000000000000 _ZTVN5zxing22WhiteRectangleDetectorE
.ARM.exidx.text._ZN5zxing22WhiteRectangleDetectorD2Ev:0000000000000000 $d
     /tmp/ccMHOY6a.s:53     .text._ZN5zxing22WhiteRectangleDetectorD2Ev:0000000000000000 _ZN5zxing22WhiteRectangleDetectorD1Ev
     /tmp/ccMHOY6a.s:134    .text._ZN5zxing22WhiteRectangleDetectorD0Ev:0000000000000000 $a
     /tmp/ccMHOY6a.s:140    .text._ZN5zxing22WhiteRectangleDetectorD0Ev:0000000000000000 _ZN5zxing22WhiteRectangleDetectorD0Ev
     /tmp/ccMHOY6a.s:213    .text._ZN5zxing22WhiteRectangleDetectorD0Ev:0000000000000060 $d
.ARM.exidx.text._ZN5zxing22WhiteRectangleDetectorD0Ev:0000000000000000 $d
     /tmp/ccMHOY6a.s:226    .text._ZN5zxing9ExceptionD2Ev:0000000000000000 $a
     /tmp/ccMHOY6a.s:232    .text._ZN5zxing9ExceptionD2Ev:0000000000000000 _ZN5zxing9ExceptionD2Ev
     /tmp/ccMHOY6a.s:294    .text._ZN5zxing9ExceptionD2Ev:0000000000000058 $d
     /tmp/ccMHOY6a.s:6857   .rodata._ZTVN5zxing9ExceptionE:0000000000000000 _ZTVN5zxing9ExceptionE
.ARM.extab.text._ZN5zxing9ExceptionD2Ev:0000000000000000 $d
.ARM.exidx.text._ZN5zxing9ExceptionD2Ev:0000000000000000 $d
     /tmp/ccMHOY6a.s:232    .text._ZN5zxing9ExceptionD2Ev:0000000000000000 _ZN5zxing9ExceptionD1Ev
     /tmp/ccMHOY6a.s:331    .text._Z41__static_initialization_and_destruction_0ii:0000000000000000 $a
     /tmp/ccMHOY6a.s:336    .text._Z41__static_initialization_and_destruction_0ii:0000000000000000 _Z41__static_initialization_and_destruction_0ii
     /tmp/ccMHOY6a.s:6899   .bss._ZStL8__ioinit:0000000000000000 .LANCHOR0
.ARM.exidx.text._Z41__static_initialization_and_destruction_0ii:0000000000000000 $d
     /tmp/ccMHOY6a.s:378    .text._ZN5zxing17NotFoundExceptionD2Ev:0000000000000000 $a
     /tmp/ccMHOY6a.s:384    .text._ZN5zxing17NotFoundExceptionD2Ev:0000000000000000 _ZN5zxing17NotFoundExceptionD2Ev
     /tmp/ccMHOY6a.s:456    .text._ZN5zxing17NotFoundExceptionD2Ev:0000000000000058 $d
.ARM.extab.text._ZN5zxing17NotFoundExceptionD2Ev:0000000000000000 $d
.ARM.exidx.text._ZN5zxing17NotFoundExceptionD2Ev:0000000000000000 $d
     /tmp/ccMHOY6a.s:384    .text._ZN5zxing17NotFoundExceptionD2Ev:0000000000000000 _ZN5zxing17NotFoundExceptionD1Ev
     /tmp/ccMHOY6a.s:492    .text._ZN5zxing15ReaderExceptionD2Ev:0000000000000000 $a
     /tmp/ccMHOY6a.s:498    .text._ZN5zxing15ReaderExceptionD2Ev:0000000000000000 _ZN5zxing15ReaderExceptionD2Ev
     /tmp/ccMHOY6a.s:568    .text._ZN5zxing15ReaderExceptionD2Ev:0000000000000058 $d
.ARM.extab.text._ZN5zxing15ReaderExceptionD2Ev:0000000000000000 $d
.ARM.exidx.text._ZN5zxing15ReaderExceptionD2Ev:0000000000000000 $d
     /tmp/ccMHOY6a.s:498    .text._ZN5zxing15ReaderExceptionD2Ev:0000000000000000 _ZN5zxing15ReaderExceptionD1Ev
     /tmp/ccMHOY6a.s:604    .text._ZN5zxing9ExceptionD0Ev:0000000000000000 $a
     /tmp/ccMHOY6a.s:610    .text._ZN5zxing9ExceptionD0Ev:0000000000000000 _ZN5zxing9ExceptionD0Ev
     /tmp/ccMHOY6a.s:681    .text._ZN5zxing9ExceptionD0Ev:0000000000000064 $d
.ARM.extab.text._ZN5zxing9ExceptionD0Ev:0000000000000000 $d
.ARM.exidx.text._ZN5zxing9ExceptionD0Ev:0000000000000000 $d
     /tmp/ccMHOY6a.s:715    .text._ZN5zxing15ReaderExceptionD0Ev:0000000000000000 $a
     /tmp/ccMHOY6a.s:721    .text._ZN5zxing15ReaderExceptionD0Ev:0000000000000000 _ZN5zxing15ReaderExceptionD0Ev
     /tmp/ccMHOY6a.s:796    .text._ZN5zxing15ReaderExceptionD0Ev:0000000000000064 $d
.ARM.extab.text._ZN5zxing15ReaderExceptionD0Ev:0000000000000000 $d
.ARM.exidx.text._ZN5zxing15ReaderExceptionD0Ev:0000000000000000 $d
     /tmp/ccMHOY6a.s:830    .text._ZN5zxing17NotFoundExceptionD0Ev:0000000000000000 $a
     /tmp/ccMHOY6a.s:836    .text._ZN5zxing17NotFoundExceptionD0Ev:0000000000000000 _ZN5zxing17NotFoundExceptionD0Ev
     /tmp/ccMHOY6a.s:913    .text._ZN5zxing17NotFoundExceptionD0Ev:0000000000000064 $d
.ARM.extab.text._ZN5zxing17NotFoundExceptionD0Ev:0000000000000000 $d
.ARM.exidx.text._ZN5zxing17NotFoundExceptionD0Ev:0000000000000000 $d
     /tmp/ccMHOY6a.s:947    .text._ZN5zxing9ExceptionC2EPKc:0000000000000000 $a
     /tmp/ccMHOY6a.s:953    .text._ZN5zxing9ExceptionC2EPKc:0000000000000000 _ZN5zxing9ExceptionC2EPKc
     /tmp/ccMHOY6a.s:1008   .text._ZN5zxing9ExceptionC2EPKc:000000000000004c $d
.ARM.extab.text._ZN5zxing9ExceptionC2EPKc:0000000000000000 $d
.ARM.exidx.text._ZN5zxing9ExceptionC2EPKc:0000000000000000 $d
     /tmp/ccMHOY6a.s:953    .text._ZN5zxing9ExceptionC2EPKc:0000000000000000 _ZN5zxing9ExceptionC1EPKc
     /tmp/ccMHOY6a.s:1044   .text._ZN5zxing22WhiteRectangleDetectorC2ENS_3RefINS_9BitMatrixEEE:0000000000000000 $a
     /tmp/ccMHOY6a.s:1050   .text._ZN5zxing22WhiteRectangleDetectorC2ENS_3RefINS_9BitMatrixEEE:0000000000000000 _ZN5zxing22WhiteRectangleDetectorC2ENS_3RefINS_9BitMatrixEEE
     /tmp/ccMHOY6a.s:6913   .data._ZN5zxing22WhiteRectangleDetector9INIT_SIZEE:0000000000000000 .LANCHOR1
     /tmp/ccMHOY6a.s:6936   .rodata._ZN5zxing22WhiteRectangleDetectorC2ENS_3RefINS_9BitMatrixEEE.str1.4:0000000000000000 .LC1
     /tmp/ccMHOY6a.s:6817   .rodata._ZTIN5zxing17NotFoundExceptionE:0000000000000000 _ZTIN5zxing17NotFoundExceptionE
     /tmp/ccMHOY6a.s:1274   .text._ZN5zxing22WhiteRectangleDetectorC2ENS_3RefINS_9BitMatrixEEE:000000000000016c $d
     /tmp/ccMHOY6a.s:6879   .rodata._ZTVN5zxing17NotFoundExceptionE:0000000000000000 _ZTVN5zxing17NotFoundExceptionE
.ARM.extab.text._ZN5zxing22WhiteRectangleDetectorC2ENS_3RefINS_9BitMatrixEEE:0000000000000000 $d
.ARM.exidx.text._ZN5zxing22WhiteRectangleDetectorC2ENS_3RefINS_9BitMatrixEEE:0000000000000000 $d
     /tmp/ccMHOY6a.s:1050   .text._ZN5zxing22WhiteRectangleDetectorC2ENS_3RefINS_9BitMatrixEEE:0000000000000000 _ZN5zxing22WhiteRectangleDetectorC1ENS_3RefINS_9BitMatrixEEE
     /tmp/ccMHOY6a.s:1306   .text._ZN5zxing22WhiteRectangleDetectorC2ENS_3RefINS_9BitMatrixEEEiii:0000000000000000 $a
     /tmp/ccMHOY6a.s:1312   .text._ZN5zxing22WhiteRectangleDetectorC2ENS_3RefINS_9BitMatrixEEEiii:0000000000000000 _ZN5zxing22WhiteRectangleDetectorC2ENS_3RefINS_9BitMatrixEEEiii
     /tmp/ccMHOY6a.s:1549   .text._ZN5zxing22WhiteRectangleDetectorC2ENS_3RefINS_9BitMatrixEEEiii:0000000000000160 $d
.ARM.extab.text._ZN5zxing22WhiteRectangleDetectorC2ENS_3RefINS_9BitMatrixEEEiii:0000000000000000 $d
.ARM.exidx.text._ZN5zxing22WhiteRectangleDetectorC2ENS_3RefINS_9BitMatrixEEEiii:0000000000000000 $d
     /tmp/ccMHOY6a.s:1312   .text._ZN5zxing22WhiteRectangleDetectorC2ENS_3RefINS_9BitMatrixEEEiii:0000000000000000 _ZN5zxing22WhiteRectangleDetectorC1ENS_3RefINS_9BitMatrixEEEiii
     /tmp/ccMHOY6a.s:1581   .text._ZN5zxing22WhiteRectangleDetector22getBlackPointOnSegmentEiiii:0000000000000000 $a
     /tmp/ccMHOY6a.s:1587   .text._ZN5zxing22WhiteRectangleDetector22getBlackPointOnSegmentEiiii:0000000000000000 _ZN5zxing22WhiteRectangleDetector22getBlackPointOnSegmentEiiii
.ARM.extab.text._ZN5zxing22WhiteRectangleDetector22getBlackPointOnSegmentEiiii:0000000000000000 $d
.ARM.exidx.text._ZN5zxing22WhiteRectangleDetector22getBlackPointOnSegmentEiiii:0000000000000000 $d
     /tmp/ccMHOY6a.s:2134   .text._ZN5zxing22WhiteRectangleDetector11centerEdgesENS_3RefINS_11ResultPointEEES3_S3_S3_:0000000000000000 $a
     /tmp/ccMHOY6a.s:2140   .text._ZN5zxing22WhiteRectangleDetector11centerEdgesENS_3RefINS_11ResultPointEEES3_S3_S3_:0000000000000000 _ZN5zxing22WhiteRectangleDetector11centerEdgesENS_3RefINS_11ResultPointEEES3_S3_S3_
     /tmp/ccMHOY6a.s:6906   .data._ZN5zxing22WhiteRectangleDetector4CORRE:0000000000000000 .LANCHOR2
.ARM.extab.text._ZN5zxing22WhiteRectangleDetector11centerEdgesENS_3RefINS_11ResultPointEEES3_S3_S3_:0000000000000000 $d
.ARM.exidx.text._ZN5zxing22WhiteRectangleDetector11centerEdgesENS_3RefINS_11ResultPointEEES3_S3_S3_:0000000000000000 $d
     /tmp/ccMHOY6a.s:4526   .text._ZN5zxing22WhiteRectangleDetector18containsBlackPointEiiib:0000000000000000 $a
     /tmp/ccMHOY6a.s:4532   .text._ZN5zxing22WhiteRectangleDetector18containsBlackPointEiiib:0000000000000000 _ZN5zxing22WhiteRectangleDetector18containsBlackPointEiiib
.ARM.exidx.text._ZN5zxing22WhiteRectangleDetector18containsBlackPointEiiib:0000000000000000 $d
     /tmp/ccMHOY6a.s:4686   .text._ZN5zxing22WhiteRectangleDetector6detectEv:0000000000000000 $a
     /tmp/ccMHOY6a.s:4692   .text._ZN5zxing22WhiteRectangleDetector6detectEv:0000000000000000 _ZN5zxing22WhiteRectangleDetector6detectEv
     /tmp/ccMHOY6a.s:6920   .rodata._ZN5zxing22WhiteRectangleDetector6detectEv.str1.4:0000000000000000 .LC2
     /tmp/ccMHOY6a.s:6923   .rodata._ZN5zxing22WhiteRectangleDetector6detectEv.str1.4:000000000000000c .LC3
     /tmp/ccMHOY6a.s:6926   .rodata._ZN5zxing22WhiteRectangleDetector6detectEv.str1.4:0000000000000018 .LC4
     /tmp/ccMHOY6a.s:6929   .rodata._ZN5zxing22WhiteRectangleDetector6detectEv.str1.4:0000000000000024 .LC5
     /tmp/ccMHOY6a.s:6932   .rodata._ZN5zxing22WhiteRectangleDetector6detectEv.str1.4:0000000000000030 .LC6
     /tmp/ccMHOY6a.s:6693   .text._ZN5zxing22WhiteRectangleDetector6detectEv:0000000000000b80 $d
.ARM.extab.text._ZN5zxing22WhiteRectangleDetector6detectEv:0000000000000000 $d
.ARM.exidx.text._ZN5zxing22WhiteRectangleDetector6detectEv:0000000000000000 $d
     /tmp/ccMHOY6a.s:6743   .text._GLOBAL__sub_I__ZN5zxing22WhiteRectangleDetector9INIT_SIZEE:0000000000000000 $a
     /tmp/ccMHOY6a.s:6748   .text._GLOBAL__sub_I__ZN5zxing22WhiteRectangleDetector9INIT_SIZEE:0000000000000000 _GLOBAL__sub_I__ZN5zxing22WhiteRectangleDetector9INIT_SIZEE
.ARM.exidx.text._GLOBAL__sub_I__ZN5zxing22WhiteRectangleDetector9INIT_SIZEE:0000000000000000 $d
     /tmp/ccMHOY6a.s:6771   .init_array:0000000000000000 $d
     /tmp/ccMHOY6a.s:6778   .rodata._ZTSN5zxing9ExceptionE:0000000000000000 _ZTSN5zxing9ExceptionE
     /tmp/ccMHOY6a.s:6775   .rodata._ZTSN5zxing9ExceptionE:0000000000000000 $d
     /tmp/ccMHOY6a.s:6785   .rodata._ZTIN5zxing9ExceptionE:0000000000000000 _ZTIN5zxing9ExceptionE
     /tmp/ccMHOY6a.s:6782   .rodata._ZTIN5zxing9ExceptionE:0000000000000000 $d
     /tmp/ccMHOY6a.s:6794   .rodata._ZTSN5zxing15ReaderExceptionE:0000000000000000 _ZTSN5zxing15ReaderExceptionE
     /tmp/ccMHOY6a.s:6791   .rodata._ZTSN5zxing15ReaderExceptionE:0000000000000000 $d
     /tmp/ccMHOY6a.s:6801   .rodata._ZTIN5zxing15ReaderExceptionE:0000000000000000 _ZTIN5zxing15ReaderExceptionE
     /tmp/ccMHOY6a.s:6798   .rodata._ZTIN5zxing15ReaderExceptionE:0000000000000000 $d
     /tmp/ccMHOY6a.s:6810   .rodata._ZTSN5zxing17NotFoundExceptionE:0000000000000000 _ZTSN5zxing17NotFoundExceptionE
     /tmp/ccMHOY6a.s:6807   .rodata._ZTSN5zxing17NotFoundExceptionE:0000000000000000 $d
     /tmp/ccMHOY6a.s:6814   .rodata._ZTIN5zxing17NotFoundExceptionE:0000000000000000 $d
     /tmp/ccMHOY6a.s:6826   .rodata._ZTSN5zxing7CountedE:0000000000000000 _ZTSN5zxing7CountedE
     /tmp/ccMHOY6a.s:6823   .rodata._ZTSN5zxing7CountedE:0000000000000000 $d
     /tmp/ccMHOY6a.s:6833   .rodata._ZTIN5zxing7CountedE:0000000000000000 _ZTIN5zxing7CountedE
     /tmp/ccMHOY6a.s:6830   .rodata._ZTIN5zxing7CountedE:0000000000000000 $d
     /tmp/ccMHOY6a.s:6841   .rodata._ZTSN5zxing22WhiteRectangleDetectorE:0000000000000000 _ZTSN5zxing22WhiteRectangleDetectorE
     /tmp/ccMHOY6a.s:6838   .rodata._ZTSN5zxing22WhiteRectangleDetectorE:0000000000000000 $d
     /tmp/ccMHOY6a.s:6848   .rodata._ZTIN5zxing22WhiteRectangleDetectorE:0000000000000000 _ZTIN5zxing22WhiteRectangleDetectorE
     /tmp/ccMHOY6a.s:6845   .rodata._ZTIN5zxing22WhiteRectangleDetectorE:0000000000000000 $d
     /tmp/ccMHOY6a.s:6854   .rodata._ZTVN5zxing9ExceptionE:0000000000000000 $d
     /tmp/ccMHOY6a.s:6868   .rodata._ZTVN5zxing15ReaderExceptionE:0000000000000000 _ZTVN5zxing15ReaderExceptionE
     /tmp/ccMHOY6a.s:6865   .rodata._ZTVN5zxing15ReaderExceptionE:0000000000000000 $d
     /tmp/ccMHOY6a.s:6876   .rodata._ZTVN5zxing17NotFoundExceptionE:0000000000000000 $d
     /tmp/ccMHOY6a.s:6887   .rodata._ZTVN5zxing22WhiteRectangleDetectorE:0000000000000000 $d
     /tmp/ccMHOY6a.s:6909   .data._ZN5zxing22WhiteRectangleDetector4CORRE:0000000000000000 _ZN5zxing22WhiteRectangleDetector4CORRE
     /tmp/ccMHOY6a.s:6916   .data._ZN5zxing22WhiteRectangleDetector9INIT_SIZEE:0000000000000000 _ZN5zxing22WhiteRectangleDetector9INIT_SIZEE
     /tmp/ccMHOY6a.s:6898   .bss._ZStL8__ioinit:0000000000000000 $d
     /tmp/ccMHOY6a.s:6902   .bss._ZStL8__ioinit:0000000000000000 _ZStL8__ioinit
     /tmp/ccMHOY6a.s:6905   .data._ZN5zxing22WhiteRectangleDetector4CORRE:0000000000000000 $d
     /tmp/ccMHOY6a.s:6912   .data._ZN5zxing22WhiteRectangleDetector9INIT_SIZEE:0000000000000000 $d
     /tmp/ccMHOY6a.s:6919   .rodata._ZN5zxing22WhiteRectangleDetector6detectEv.str1.4:0000000000000000 $d
     /tmp/ccMHOY6a.s:6935   .rodata._ZN5zxing22WhiteRectangleDetectorC2ENS_3RefINS_9BitMatrixEEE.str1.4:0000000000000000 $d
     /tmp/ccMHOY6a.s:6939   .rodata._ZNK5zxing9Exception4whatEv.str1.4:0000000000000000 $d
                     .debug_frame:0000000000000010 $d
                           .group:0000000000000000 _ZN5zxing22WhiteRectangleDetectorD5Ev
                           .group:0000000000000000 _ZN5zxing9ExceptionD5Ev
                           .group:0000000000000000 _ZN5zxing17NotFoundExceptionD5Ev
                           .group:0000000000000000 _ZN5zxing15ReaderExceptionD5Ev
                           .group:0000000000000000 _ZN5zxing9ExceptionC5EPKc
                           .group:0000000000000000 wm4.0.cd1e96de8a8c4f34e746a820772853ad
                           .group:0000000000000000 wm4.cconfig.h.31.21483d26c3710eb58c7a44c20d82c775
                           .group:0000000000000000 wm4.cpu_defines.h.31.54d44f9d3e7c42875c5a7fd49795eb93
                           .group:0000000000000000 wm4.cconfig.h.515.5e729db314ae74226e291b4ae081e353
                           .group:0000000000000000 wm4.exception_defines.h.31.ca6841b9be3287386aafc5c717935b2e
                           .group:0000000000000000 wm4.cpp_type_traits.h.33.9f2bfd8c4471a9a299f6da3ec24c745c
                           .group:0000000000000000 wm4.numeric_traits.h.30.aa01a98564b7e55086aad9e53c7e5c53
                           .group:0000000000000000 wm4.concept_check.h.31.f19605d278e56917c68a56d378be308c
                           .group:0000000000000000 wm4.type_traits.30.967137c3695c72a3f7c65b682f1a104e
                           .group:0000000000000000 wm4.move.h.152.41d7b9e6779674d169b7813982cfa003
                           .group:0000000000000000 wm4.assertions.h.30.51d443923f0d242550e04246a7819b39
                           .group:0000000000000000 wm4.stl_iterator.h.406.6718c794fa6a1331f8340656b5c8c55c
                           .group:0000000000000000 wm4.debug.h.30.5c1f223b12199e851d4d42805b788ccf
                           .group:0000000000000000 wm4.stl_algobase.h.491.ec4060988bfff82dc579decdb75c72d6
                           .group:0000000000000000 wm4._newlib_version.h.4.3572908597b70d672d181fc7fc501c19
                           .group:0000000000000000 wm4.newlib.h.21.59901f4bf241ab46c63694665baa7297
                           .group:0000000000000000 wm4.features.h.22.5cdadbb3efe495d1c9e38350b8c376c7
                           .group:0000000000000000 wm4.config.h.219.65a553ab5bef5482f0d7880b0d33015e
                           .group:0000000000000000 wm4._ansi.h.23.1ee1144430bedaab1a14c7b57a6c8384
                           .group:0000000000000000 wm4.stddef.h.39.fa2e86d241f4df50b9327c72832885e1
                           .group:0000000000000000 wm4._default_types.h.6.959254cf5f09734ea7516c89e8bb21bd
                           .group:0000000000000000 wm4.lock.h.2.1461d1fff82dffe8bfddc23307f6484f
                           .group:0000000000000000 wm4._types.h.125.5cf8a495f1f7ef36777ad868a1e32068
                           .group:0000000000000000 wm4.stddef.h.161.7e98c9c86da0ed2d27af2ef92af7d013
                           .group:0000000000000000 wm4._types.h.183.c226d164ceca1f2ecb9ae9360c54a098
                           .group:0000000000000000 wm4.reent.h.17.23b059516345f8f5abfa01ddc379570f
                           .group:0000000000000000 wm4.wchar.h.8.acdef4366e64def8c588421024712d23
                           .group:0000000000000000 wm4.stddef.h.161.9f48187563b2a85291a91832aa425498
                           .group:0000000000000000 wm4.cdefs.h.47.9bc8274c84fddbf05edd550eb0bf48cd
                           .group:0000000000000000 wm4.stdarg.h.34.3a23a216c0c293b3d2ea2e89281481e6
                           .group:0000000000000000 wm4.wchar.h.29.7ec19a1c094c7903732828676a0a91b2
                           .group:0000000000000000 wm4.wchar.h.76.90478bd2c784f576b769c4535c98839d
                           .group:0000000000000000 wm4.cwchar.48.c4e882638bf84f6da89479dda6fe8e17
                           .group:0000000000000000 wm4.stdint.h.4.659be5aa44c4ab4eb7c7cc2b24d8ceee
                           .group:0000000000000000 wm4._intsup.h.10.cce27fed8484c08a33f522034c30d2b5
                           .group:0000000000000000 wm4._stdint.h.10.c24fa3af3bc1706662bb5593a907e841
                           .group:0000000000000000 wm4.stdint.h.23.4c107c5a20920bfc6e94fb2672bbd9ee
                           .group:0000000000000000 wm4.atomic_lockfree_defines.h.31.d5c6334fb1e95c9462b052951f1411df
                           .group:0000000000000000 wm4.allocator.h.52.0ceafb36dc1b82dbfa6b05003082e3f5
                           .group:0000000000000000 wm4.stddef.h.161.38688f2eb958a8ed58fdb61ffe554c94
                           .group:0000000000000000 wm4.locale.h.16.90d16f662e7119f5b192650a45179c6c
                           .group:0000000000000000 wm4.clocale.45.c36d2d5b631a875aa5273176b54fdf0f
                           .group:0000000000000000 wm4.ctype.h.2.cf64fe4c5e8c0ac0f52f1143312d4909
                           .group:0000000000000000 wm4.cctype.45.0da5714876b0be7f2d816b53d9670403
                           .group:0000000000000000 wm4.stl_function.h.57.472a8ffdc5144ddcd047558cd884dda0
                           .group:0000000000000000 wm4.gthr.h.27.ceb1c66b926f052afcba57e8784df0d4
                           .group:0000000000000000 wm4.gthrdefault.h.27.edc94d4398c0534988962be77dc3c2e1
                           .group:0000000000000000 wm4.atomic_word.h.30.9e0ac69fd462d5e650933e05133b4afa
                           .group:0000000000000000 wm4.alloc_traits.h.31.c41c7c4789404962122a4e991dfa3abf
                           .group:0000000000000000 wm4.cstdlib.44.52c5efdfb0f3c176bd11e611a0b94959
                           .group:0000000000000000 wm4.stdlib.h.13.4ed386f5c1a80d71e72172885d946ef2
                           .group:0000000000000000 wm4.alloca.h.8.dfc0c703c47ec3e69746825b17d9e66d
                           .group:0000000000000000 wm4.stdlib.h.56.d4493cd3736e51e9d56335045f26df45
                           .group:0000000000000000 wm4.cstdlib.76.ae666499c8f9b0ace1b4b23fe143da2c
                           .group:0000000000000000 wm4.stdio.h.27.3fc80220048df77954e38daec3bb9670
                           .group:0000000000000000 wm4.types.h.40.e8c16e7ec36ba55f133d0616070e25fc
                           .group:0000000000000000 wm4._endian.h.31.65a10590763c3dde1ac4a7f66d7d4891
                           .group:0000000000000000 wm4.endian.h.9.49f3a4695c1b61e8a0808de3c4a106cb
                           .group:0000000000000000 wm4._timeval.h.30.0e8bfd94e85db17dda3286ee81496fe6
                           .group:0000000000000000 wm4.timespec.h.41.d855182eb0e690443ab8651bcedca6e1
                           .group:0000000000000000 wm4.select.h.30.bbece7fa40993a78092dcc5805132560
                           .group:0000000000000000 wm4.types.h.69.ed3eae3cf73030a737515151ebcab7a1
                           .group:0000000000000000 wm4.stdio.h.2.4aa87247282eca6c8f36f9de33d8df1a
                           .group:0000000000000000 wm4.stdio.h.81.edc2fd66146f9635463a729e8fe0add3
                           .group:0000000000000000 wm4.cstdio.45.1ffaea3e7c26dce1e03f5847a7439edb
                           .group:0000000000000000 wm4.errno.h.2.ba016d646105af6cad23be83630b6a3f
                           .group:0000000000000000 wm4.errno.h.9.1ecd7b1049497a0ab61da0f6cbd4b0c6
                           .group:0000000000000000 wm4.functional_hash.h.98.3bf7680ffcc8d24d09fa83ac1339c79d
                           .group:0000000000000000 wm4.wctype.h.2.898a9b94aa35d125e245195b099726a8
                           .group:0000000000000000 wm4.wctype.h.21.aec4d35c940c33b3f9c6f879c49edcd8
                           .group:0000000000000000 wm4.cwctype.54.6582aca101688c1c3785d03bc15e2af6
                           .group:0000000000000000 wm4.locale_facets.h.56.0d4bb655ce5e76ea564363ed7c5a34fc
                           .group:0000000000000000 wm4.ZXing.h.18.e57217e2bd13bffdbef9ea3dcbec75d3
                           .group:0000000000000000 wm4.limits.38.40c6c565f51037fae3aa9b94f36ded7a
                           .group:0000000000000000 wm4.math.h.13.4f1ab8d1725735081bbdb9ebcf6dba66
                           .group:0000000000000000 wm4.cmath.46.d6e5b776115d39075860ed881d18f087
                           .group:0000000000000000 wm4.ZXing.h.127.586c16e6a699510970dac3542705a0b6
                           .group:0000000000000000 wm4.cmath.44.b3bcbb5fe53ec6617dec8aa8eb7b03cc

UNDEFINED SYMBOLS
_ZdlPvj
__gxx_personality_v0
_ZN5zxing9Exception13deleteMessageEv
_ZNSt9exceptionD2Ev
__cxa_end_cleanup
__cxa_call_unexpected
_ZNSt8ios_base4InitC1Ev
__dso_handle
_ZNSt8ios_base4InitD1Ev
__aeabi_atexit
_ZN5zxing9Exception4copyEPKc
_ZNK5zxing9BitMatrix8getWidthEv
_ZNK5zxing9BitMatrix9getHeightEv
__cxa_allocate_exception
__cxa_throw
sqrt
_Znwj
_ZN5zxing11ResultPointC1Eff
_ZdlPv
_ZTVN10__cxxabiv120__si_class_type_infoE
_ZTISt9exception
_ZTVN10__cxxabiv117__class_type_infoE
