   1              		.cpu cortex-a9
   2              		.eabi_attribute 28, 1
   3              		.eabi_attribute 20, 1
   4              		.eabi_attribute 21, 1
   5              		.eabi_attribute 23, 3
   6              		.eabi_attribute 24, 1
   7              		.eabi_attribute 25, 1
   8              		.eabi_attribute 26, 1
   9              		.eabi_attribute 30, 1
  10              		.eabi_attribute 34, 0
  11              		.eabi_attribute 18, 4
  12              		.file	"WhiteRectangleDetector.cpp"
  13              		.text
  14              	.Ltext0:
  15              		.cfi_sections	.debug_frame
  16              		.section	.text._ZNK5zxing9Exception4whatEv,"axG",%progbits,_ZNK5zxing9Exception4whatEv,comdat
  17              		.align	2
  18              		.weak	_ZNK5zxing9Exception4whatEv
  19              		.syntax unified
  20              		.arm
  21              		.fpu neon
  23              	_ZNK5zxing9Exception4whatEv:
  24              		.fnstart
  25              	.LFB941:
  26              		.file 1 "/home/zkmike/workspace/RZA2M/rza2m_2d_barcode_sample_freertos_gcc/src/zxing_lib/zxing/Exc
   1:/home/zkmike/workspace/RZA2M/rza2m_2d_barcode_sample_freertos_gcc/src/zxing_lib/zxing/Exception.h **** // -*- mode:c++; tab-width:2; indent-tabs-mode:nil; c-basic-offset:2 -*-
   2:/home/zkmike/workspace/RZA2M/rza2m_2d_barcode_sample_freertos_gcc/src/zxing_lib/zxing/Exception.h **** #ifndef __EXCEPTION_H__
   3:/home/zkmike/workspace/RZA2M/rza2m_2d_barcode_sample_freertos_gcc/src/zxing_lib/zxing/Exception.h **** #define __EXCEPTION_H__
   4:/home/zkmike/workspace/RZA2M/rza2m_2d_barcode_sample_freertos_gcc/src/zxing_lib/zxing/Exception.h **** 
   5:/home/zkmike/workspace/RZA2M/rza2m_2d_barcode_sample_freertos_gcc/src/zxing_lib/zxing/Exception.h **** /*
   6:/home/zkmike/workspace/RZA2M/rza2m_2d_barcode_sample_freertos_gcc/src/zxing_lib/zxing/Exception.h ****  *  Exception.h
   7:/home/zkmike/workspace/RZA2M/rza2m_2d_barcode_sample_freertos_gcc/src/zxing_lib/zxing/Exception.h ****  *  ZXing
   8:/home/zkmike/workspace/RZA2M/rza2m_2d_barcode_sample_freertos_gcc/src/zxing_lib/zxing/Exception.h ****  *
   9:/home/zkmike/workspace/RZA2M/rza2m_2d_barcode_sample_freertos_gcc/src/zxing_lib/zxing/Exception.h ****  *  Copyright 2010 ZXing authors All rights reserved.
  10:/home/zkmike/workspace/RZA2M/rza2m_2d_barcode_sample_freertos_gcc/src/zxing_lib/zxing/Exception.h ****  *
  11:/home/zkmike/workspace/RZA2M/rza2m_2d_barcode_sample_freertos_gcc/src/zxing_lib/zxing/Exception.h ****  * Licensed under the Apache License, Version 2.0 (the "License");
  12:/home/zkmike/workspace/RZA2M/rza2m_2d_barcode_sample_freertos_gcc/src/zxing_lib/zxing/Exception.h ****  * you may not use this file except in compliance with the License.
  13:/home/zkmike/workspace/RZA2M/rza2m_2d_barcode_sample_freertos_gcc/src/zxing_lib/zxing/Exception.h ****  * You may obtain a copy of the License at
  14:/home/zkmike/workspace/RZA2M/rza2m_2d_barcode_sample_freertos_gcc/src/zxing_lib/zxing/Exception.h ****  *
  15:/home/zkmike/workspace/RZA2M/rza2m_2d_barcode_sample_freertos_gcc/src/zxing_lib/zxing/Exception.h ****  *      http://www.apache.org/licenses/LICENSE-2.0
  16:/home/zkmike/workspace/RZA2M/rza2m_2d_barcode_sample_freertos_gcc/src/zxing_lib/zxing/Exception.h ****  *
  17:/home/zkmike/workspace/RZA2M/rza2m_2d_barcode_sample_freertos_gcc/src/zxing_lib/zxing/Exception.h ****  * Unless required by applicable law or agreed to in writing, software
  18:/home/zkmike/workspace/RZA2M/rza2m_2d_barcode_sample_freertos_gcc/src/zxing_lib/zxing/Exception.h ****  * distributed under the License is distributed on an "AS IS" BASIS,
  19:/home/zkmike/workspace/RZA2M/rza2m_2d_barcode_sample_freertos_gcc/src/zxing_lib/zxing/Exception.h ****  * WITHOUT WARRANTIES OR CONDITIONS OF ANY KIND, either express or implied.
  20:/home/zkmike/workspace/RZA2M/rza2m_2d_barcode_sample_freertos_gcc/src/zxing_lib/zxing/Exception.h ****  * See the License for the specific language governing permissions and
  21:/home/zkmike/workspace/RZA2M/rza2m_2d_barcode_sample_freertos_gcc/src/zxing_lib/zxing/Exception.h ****  * limitations under the License.
  22:/home/zkmike/workspace/RZA2M/rza2m_2d_barcode_sample_freertos_gcc/src/zxing_lib/zxing/Exception.h ****  */
  23:/home/zkmike/workspace/RZA2M/rza2m_2d_barcode_sample_freertos_gcc/src/zxing_lib/zxing/Exception.h **** 
  24:/home/zkmike/workspace/RZA2M/rza2m_2d_barcode_sample_freertos_gcc/src/zxing_lib/zxing/Exception.h **** #include <string>
  25:/home/zkmike/workspace/RZA2M/rza2m_2d_barcode_sample_freertos_gcc/src/zxing_lib/zxing/Exception.h **** #include <exception>
  26:/home/zkmike/workspace/RZA2M/rza2m_2d_barcode_sample_freertos_gcc/src/zxing_lib/zxing/Exception.h **** 
  27:/home/zkmike/workspace/RZA2M/rza2m_2d_barcode_sample_freertos_gcc/src/zxing_lib/zxing/Exception.h **** namespace zxing {
  28:/home/zkmike/workspace/RZA2M/rza2m_2d_barcode_sample_freertos_gcc/src/zxing_lib/zxing/Exception.h **** 
  29:/home/zkmike/workspace/RZA2M/rza2m_2d_barcode_sample_freertos_gcc/src/zxing_lib/zxing/Exception.h **** class Exception : public std::exception {
  30:/home/zkmike/workspace/RZA2M/rza2m_2d_barcode_sample_freertos_gcc/src/zxing_lib/zxing/Exception.h **** private:
  31:/home/zkmike/workspace/RZA2M/rza2m_2d_barcode_sample_freertos_gcc/src/zxing_lib/zxing/Exception.h ****   char const* const message;
  32:/home/zkmike/workspace/RZA2M/rza2m_2d_barcode_sample_freertos_gcc/src/zxing_lib/zxing/Exception.h **** 
  33:/home/zkmike/workspace/RZA2M/rza2m_2d_barcode_sample_freertos_gcc/src/zxing_lib/zxing/Exception.h **** public:
  34:/home/zkmike/workspace/RZA2M/rza2m_2d_barcode_sample_freertos_gcc/src/zxing_lib/zxing/Exception.h ****   Exception() throw() : message(0) {}
  35:/home/zkmike/workspace/RZA2M/rza2m_2d_barcode_sample_freertos_gcc/src/zxing_lib/zxing/Exception.h ****   Exception(const char* msg) throw() : message(copy(msg)) {}
  36:/home/zkmike/workspace/RZA2M/rza2m_2d_barcode_sample_freertos_gcc/src/zxing_lib/zxing/Exception.h ****   Exception(Exception const& that) throw() : std::exception(that), message(copy(that.message)) {}
  37:/home/zkmike/workspace/RZA2M/rza2m_2d_barcode_sample_freertos_gcc/src/zxing_lib/zxing/Exception.h ****   ~Exception() throw() {
  38:/home/zkmike/workspace/RZA2M/rza2m_2d_barcode_sample_freertos_gcc/src/zxing_lib/zxing/Exception.h ****     if(message) {
  39:/home/zkmike/workspace/RZA2M/rza2m_2d_barcode_sample_freertos_gcc/src/zxing_lib/zxing/Exception.h ****       deleteMessage();
  40:/home/zkmike/workspace/RZA2M/rza2m_2d_barcode_sample_freertos_gcc/src/zxing_lib/zxing/Exception.h ****     }
  41:/home/zkmike/workspace/RZA2M/rza2m_2d_barcode_sample_freertos_gcc/src/zxing_lib/zxing/Exception.h ****   }
  42:/home/zkmike/workspace/RZA2M/rza2m_2d_barcode_sample_freertos_gcc/src/zxing_lib/zxing/Exception.h ****   char const* what() const throw() {return message ? message : "";}
  27              		.loc 1 42 0
  28              		.cfi_startproc
  29              		@ args = 0, pretend = 0, frame = 0
  30              		@ frame_needed = 0, uses_anonymous_args = 0
  31              		@ link register save eliminated.
  32              	.LVL0:
  33              		.loc 1 42 0
  34 0000 040090E5 		ldr	r0, [r0, #4]
  35              	.LVL1:
  36 0004 000050E3 		cmp	r0, #0
  37 0008 1EFF2F11 		bxne	lr
  38 000c 000000E3 		movw	r0, #:lower16:.LC0
  39 0010 000040E3 		movt	r0, #:upper16:.LC0
  40 0014 1EFF2FE1 		bx	lr
  41              		.cfi_endproc
  42              	.LFE941:
  43              		.cantunwind
  44              		.fnend
  46              		.section	.text._ZN5zxing22WhiteRectangleDetectorD2Ev,"axG",%progbits,_ZN5zxing22WhiteRectangleDete
  47              		.align	2
  48              		.weak	_ZN5zxing22WhiteRectangleDetectorD2Ev
  49              		.syntax unified
  50              		.arm
  51              		.fpu neon
  53              	_ZN5zxing22WhiteRectangleDetectorD2Ev:
  54              		.fnstart
  55              	.LFB2866:
  56              		.file 2 "/home/zkmike/workspace/RZA2M/rza2m_2d_barcode_sample_freertos_gcc/src/zxing_lib/zxing/com
   1:/home/zkmike/workspace/RZA2M/rza2m_2d_barcode_sample_freertos_gcc/src/zxing_lib/zxing/common/detector/WhiteRectangleDetector.h **** #ifndef __WHITERECTANGLEDETECTOR_H__
   2:/home/zkmike/workspace/RZA2M/rza2m_2d_barcode_sample_freertos_gcc/src/zxing_lib/zxing/common/detector/WhiteRectangleDetector.h **** #define __WHITERECTANGLEDETECTOR_H__
   3:/home/zkmike/workspace/RZA2M/rza2m_2d_barcode_sample_freertos_gcc/src/zxing_lib/zxing/common/detector/WhiteRectangleDetector.h **** 
   4:/home/zkmike/workspace/RZA2M/rza2m_2d_barcode_sample_freertos_gcc/src/zxing_lib/zxing/common/detector/WhiteRectangleDetector.h **** /*
   5:/home/zkmike/workspace/RZA2M/rza2m_2d_barcode_sample_freertos_gcc/src/zxing_lib/zxing/common/detector/WhiteRectangleDetector.h ****  *  WhiteRectangleDetector.h
   6:/home/zkmike/workspace/RZA2M/rza2m_2d_barcode_sample_freertos_gcc/src/zxing_lib/zxing/common/detector/WhiteRectangleDetector.h ****  *
   7:/home/zkmike/workspace/RZA2M/rza2m_2d_barcode_sample_freertos_gcc/src/zxing_lib/zxing/common/detector/WhiteRectangleDetector.h ****  *
   8:/home/zkmike/workspace/RZA2M/rza2m_2d_barcode_sample_freertos_gcc/src/zxing_lib/zxing/common/detector/WhiteRectangleDetector.h ****  *  Created by Luiz Silva on 09/02/2010.
   9:/home/zkmike/workspace/RZA2M/rza2m_2d_barcode_sample_freertos_gcc/src/zxing_lib/zxing/common/detector/WhiteRectangleDetector.h ****  *  Copyright 2010  authors All rights reserved.
  10:/home/zkmike/workspace/RZA2M/rza2m_2d_barcode_sample_freertos_gcc/src/zxing_lib/zxing/common/detector/WhiteRectangleDetector.h ****  *
  11:/home/zkmike/workspace/RZA2M/rza2m_2d_barcode_sample_freertos_gcc/src/zxing_lib/zxing/common/detector/WhiteRectangleDetector.h ****  * Licensed under the Apache License, Version 2.0 (the "License");
  12:/home/zkmike/workspace/RZA2M/rza2m_2d_barcode_sample_freertos_gcc/src/zxing_lib/zxing/common/detector/WhiteRectangleDetector.h ****  * you may not use this file except in compliance with the License.
  13:/home/zkmike/workspace/RZA2M/rza2m_2d_barcode_sample_freertos_gcc/src/zxing_lib/zxing/common/detector/WhiteRectangleDetector.h ****  * You may obtain a copy of the License at
  14:/home/zkmike/workspace/RZA2M/rza2m_2d_barcode_sample_freertos_gcc/src/zxing_lib/zxing/common/detector/WhiteRectangleDetector.h ****  *
  15:/home/zkmike/workspace/RZA2M/rza2m_2d_barcode_sample_freertos_gcc/src/zxing_lib/zxing/common/detector/WhiteRectangleDetector.h ****  *      http://www.apache.org/licenses/LICENSE-2.0
  16:/home/zkmike/workspace/RZA2M/rza2m_2d_barcode_sample_freertos_gcc/src/zxing_lib/zxing/common/detector/WhiteRectangleDetector.h ****  *
  17:/home/zkmike/workspace/RZA2M/rza2m_2d_barcode_sample_freertos_gcc/src/zxing_lib/zxing/common/detector/WhiteRectangleDetector.h ****  * Unless required by applicable law or agreed to in writing, software
  18:/home/zkmike/workspace/RZA2M/rza2m_2d_barcode_sample_freertos_gcc/src/zxing_lib/zxing/common/detector/WhiteRectangleDetector.h ****  * distributed under the License is distributed on an "AS IS" BASIS,
  19:/home/zkmike/workspace/RZA2M/rza2m_2d_barcode_sample_freertos_gcc/src/zxing_lib/zxing/common/detector/WhiteRectangleDetector.h ****  * WITHOUT WARRANTIES OR CONDITIONS OF ANY KIND, either express or implied.
  20:/home/zkmike/workspace/RZA2M/rza2m_2d_barcode_sample_freertos_gcc/src/zxing_lib/zxing/common/detector/WhiteRectangleDetector.h ****  * See the License for the specific language governing permissions and
  21:/home/zkmike/workspace/RZA2M/rza2m_2d_barcode_sample_freertos_gcc/src/zxing_lib/zxing/common/detector/WhiteRectangleDetector.h ****  * limitations under the License.
  22:/home/zkmike/workspace/RZA2M/rza2m_2d_barcode_sample_freertos_gcc/src/zxing_lib/zxing/common/detector/WhiteRectangleDetector.h ****  */
  23:/home/zkmike/workspace/RZA2M/rza2m_2d_barcode_sample_freertos_gcc/src/zxing_lib/zxing/common/detector/WhiteRectangleDetector.h **** 
  24:/home/zkmike/workspace/RZA2M/rza2m_2d_barcode_sample_freertos_gcc/src/zxing_lib/zxing/common/detector/WhiteRectangleDetector.h **** #include <vector>
  25:/home/zkmike/workspace/RZA2M/rza2m_2d_barcode_sample_freertos_gcc/src/zxing_lib/zxing/common/detector/WhiteRectangleDetector.h **** #include <zxing/ReaderException.h>
  26:/home/zkmike/workspace/RZA2M/rza2m_2d_barcode_sample_freertos_gcc/src/zxing_lib/zxing/common/detector/WhiteRectangleDetector.h **** #include <zxing/ResultPoint.h>
  27:/home/zkmike/workspace/RZA2M/rza2m_2d_barcode_sample_freertos_gcc/src/zxing_lib/zxing/common/detector/WhiteRectangleDetector.h **** #include <zxing/common/BitMatrix.h>
  28:/home/zkmike/workspace/RZA2M/rza2m_2d_barcode_sample_freertos_gcc/src/zxing_lib/zxing/common/detector/WhiteRectangleDetector.h **** #include <zxing/common/Counted.h>
  29:/home/zkmike/workspace/RZA2M/rza2m_2d_barcode_sample_freertos_gcc/src/zxing_lib/zxing/common/detector/WhiteRectangleDetector.h **** #include <zxing/ResultPoint.h>
  30:/home/zkmike/workspace/RZA2M/rza2m_2d_barcode_sample_freertos_gcc/src/zxing_lib/zxing/common/detector/WhiteRectangleDetector.h **** 
  31:/home/zkmike/workspace/RZA2M/rza2m_2d_barcode_sample_freertos_gcc/src/zxing_lib/zxing/common/detector/WhiteRectangleDetector.h **** 
  32:/home/zkmike/workspace/RZA2M/rza2m_2d_barcode_sample_freertos_gcc/src/zxing_lib/zxing/common/detector/WhiteRectangleDetector.h **** namespace zxing {
  33:/home/zkmike/workspace/RZA2M/rza2m_2d_barcode_sample_freertos_gcc/src/zxing_lib/zxing/common/detector/WhiteRectangleDetector.h **** 
  34:/home/zkmike/workspace/RZA2M/rza2m_2d_barcode_sample_freertos_gcc/src/zxing_lib/zxing/common/detector/WhiteRectangleDetector.h **** class WhiteRectangleDetector : public Counted {
  57              		.loc 2 34 0
  58              		.cfi_startproc
  59              		@ args = 0, pretend = 0, frame = 0
  60              		@ frame_needed = 0, uses_anonymous_args = 0
  61              	.LVL2:
  62 0000 10402DE9 		push	{r4, lr}
  63              		.cfi_def_cfa_offset 8
  64              		.cfi_offset 4, -8
  65              		.cfi_offset 14, -4
  66 0004 0040A0E1 		mov	r4, r0
  67              	.LBB677:
  68              		.loc 2 34 0
  69 0008 44309FE5 		ldr	r3, .L7
  70 000c 003080E5 		str	r3, [r0]
  71              	.LVL3:
  72              	.LBB678:
  73              	.LBB679:
  74              		.file 3 "/home/zkmike/workspace/RZA2M/rza2m_2d_barcode_sample_freertos_gcc/src/zxing_lib/zxing/com
   1:/home/zkmike/workspace/RZA2M/rza2m_2d_barcode_sample_freertos_gcc/src/zxing_lib/zxing/common/Counted.h **** // -*- mode:c++; tab-width:2; indent-tabs-mode:nil; c-basic-offset:2 -*-
   2:/home/zkmike/workspace/RZA2M/rza2m_2d_barcode_sample_freertos_gcc/src/zxing_lib/zxing/common/Counted.h **** #ifndef __COUNTED_H__
   3:/home/zkmike/workspace/RZA2M/rza2m_2d_barcode_sample_freertos_gcc/src/zxing_lib/zxing/common/Counted.h **** #define __COUNTED_H__
   4:/home/zkmike/workspace/RZA2M/rza2m_2d_barcode_sample_freertos_gcc/src/zxing_lib/zxing/common/Counted.h **** 
   5:/home/zkmike/workspace/RZA2M/rza2m_2d_barcode_sample_freertos_gcc/src/zxing_lib/zxing/common/Counted.h **** /*
   6:/home/zkmike/workspace/RZA2M/rza2m_2d_barcode_sample_freertos_gcc/src/zxing_lib/zxing/common/Counted.h ****  *  Copyright 2010 ZXing authors All rights reserved.
   7:/home/zkmike/workspace/RZA2M/rza2m_2d_barcode_sample_freertos_gcc/src/zxing_lib/zxing/common/Counted.h ****  *
   8:/home/zkmike/workspace/RZA2M/rza2m_2d_barcode_sample_freertos_gcc/src/zxing_lib/zxing/common/Counted.h ****  * Licensed under the Apache License, Version 2.0 (the "License");
   9:/home/zkmike/workspace/RZA2M/rza2m_2d_barcode_sample_freertos_gcc/src/zxing_lib/zxing/common/Counted.h ****  * you may not use this file except in compliance with the License.
  10:/home/zkmike/workspace/RZA2M/rza2m_2d_barcode_sample_freertos_gcc/src/zxing_lib/zxing/common/Counted.h ****  * You may obtain a copy of the License at
  11:/home/zkmike/workspace/RZA2M/rza2m_2d_barcode_sample_freertos_gcc/src/zxing_lib/zxing/common/Counted.h ****  *
  12:/home/zkmike/workspace/RZA2M/rza2m_2d_barcode_sample_freertos_gcc/src/zxing_lib/zxing/common/Counted.h ****  *      http://www.apache.org/licenses/LICENSE-2.0
  13:/home/zkmike/workspace/RZA2M/rza2m_2d_barcode_sample_freertos_gcc/src/zxing_lib/zxing/common/Counted.h ****  *
  14:/home/zkmike/workspace/RZA2M/rza2m_2d_barcode_sample_freertos_gcc/src/zxing_lib/zxing/common/Counted.h ****  * Unless required by applicable law or agreed to in writing, software
  15:/home/zkmike/workspace/RZA2M/rza2m_2d_barcode_sample_freertos_gcc/src/zxing_lib/zxing/common/Counted.h ****  * distributed under the License is distributed on an "AS IS" BASIS,
  16:/home/zkmike/workspace/RZA2M/rza2m_2d_barcode_sample_freertos_gcc/src/zxing_lib/zxing/common/Counted.h ****  * WITHOUT WARRANTIES OR CONDITIONS OF ANY KIND, either express or implied.
  17:/home/zkmike/workspace/RZA2M/rza2m_2d_barcode_sample_freertos_gcc/src/zxing_lib/zxing/common/Counted.h ****  * See the License for the specific language governing permissions and
  18:/home/zkmike/workspace/RZA2M/rza2m_2d_barcode_sample_freertos_gcc/src/zxing_lib/zxing/common/Counted.h ****  * limitations under the License.
  19:/home/zkmike/workspace/RZA2M/rza2m_2d_barcode_sample_freertos_gcc/src/zxing_lib/zxing/common/Counted.h ****  */
  20:/home/zkmike/workspace/RZA2M/rza2m_2d_barcode_sample_freertos_gcc/src/zxing_lib/zxing/common/Counted.h **** 
  21:/home/zkmike/workspace/RZA2M/rza2m_2d_barcode_sample_freertos_gcc/src/zxing_lib/zxing/common/Counted.h **** #include <iostream>
  22:/home/zkmike/workspace/RZA2M/rza2m_2d_barcode_sample_freertos_gcc/src/zxing_lib/zxing/common/Counted.h **** 
  23:/home/zkmike/workspace/RZA2M/rza2m_2d_barcode_sample_freertos_gcc/src/zxing_lib/zxing/common/Counted.h **** namespace zxing {
  24:/home/zkmike/workspace/RZA2M/rza2m_2d_barcode_sample_freertos_gcc/src/zxing_lib/zxing/common/Counted.h **** 
  25:/home/zkmike/workspace/RZA2M/rza2m_2d_barcode_sample_freertos_gcc/src/zxing_lib/zxing/common/Counted.h **** /* base class for reference-counted objects */
  26:/home/zkmike/workspace/RZA2M/rza2m_2d_barcode_sample_freertos_gcc/src/zxing_lib/zxing/common/Counted.h **** class Counted {
  27:/home/zkmike/workspace/RZA2M/rza2m_2d_barcode_sample_freertos_gcc/src/zxing_lib/zxing/common/Counted.h **** private:
  28:/home/zkmike/workspace/RZA2M/rza2m_2d_barcode_sample_freertos_gcc/src/zxing_lib/zxing/common/Counted.h ****   unsigned int count_;
  29:/home/zkmike/workspace/RZA2M/rza2m_2d_barcode_sample_freertos_gcc/src/zxing_lib/zxing/common/Counted.h **** public:
  30:/home/zkmike/workspace/RZA2M/rza2m_2d_barcode_sample_freertos_gcc/src/zxing_lib/zxing/common/Counted.h ****   Counted() :
  31:/home/zkmike/workspace/RZA2M/rza2m_2d_barcode_sample_freertos_gcc/src/zxing_lib/zxing/common/Counted.h ****       count_(0) {
  32:/home/zkmike/workspace/RZA2M/rza2m_2d_barcode_sample_freertos_gcc/src/zxing_lib/zxing/common/Counted.h ****   }
  33:/home/zkmike/workspace/RZA2M/rza2m_2d_barcode_sample_freertos_gcc/src/zxing_lib/zxing/common/Counted.h ****   virtual ~Counted() {
  34:/home/zkmike/workspace/RZA2M/rza2m_2d_barcode_sample_freertos_gcc/src/zxing_lib/zxing/common/Counted.h ****   }
  35:/home/zkmike/workspace/RZA2M/rza2m_2d_barcode_sample_freertos_gcc/src/zxing_lib/zxing/common/Counted.h ****   Counted *retain() {
  36:/home/zkmike/workspace/RZA2M/rza2m_2d_barcode_sample_freertos_gcc/src/zxing_lib/zxing/common/Counted.h ****     count_++;
  37:/home/zkmike/workspace/RZA2M/rza2m_2d_barcode_sample_freertos_gcc/src/zxing_lib/zxing/common/Counted.h ****     return this;
  38:/home/zkmike/workspace/RZA2M/rza2m_2d_barcode_sample_freertos_gcc/src/zxing_lib/zxing/common/Counted.h ****   }
  39:/home/zkmike/workspace/RZA2M/rza2m_2d_barcode_sample_freertos_gcc/src/zxing_lib/zxing/common/Counted.h ****   void release() {
  40:/home/zkmike/workspace/RZA2M/rza2m_2d_barcode_sample_freertos_gcc/src/zxing_lib/zxing/common/Counted.h ****     count_--;
  41:/home/zkmike/workspace/RZA2M/rza2m_2d_barcode_sample_freertos_gcc/src/zxing_lib/zxing/common/Counted.h ****     if (count_ == 0) {
  42:/home/zkmike/workspace/RZA2M/rza2m_2d_barcode_sample_freertos_gcc/src/zxing_lib/zxing/common/Counted.h ****       count_ = 0xDEADF001;
  43:/home/zkmike/workspace/RZA2M/rza2m_2d_barcode_sample_freertos_gcc/src/zxing_lib/zxing/common/Counted.h ****       delete this;
  44:/home/zkmike/workspace/RZA2M/rza2m_2d_barcode_sample_freertos_gcc/src/zxing_lib/zxing/common/Counted.h ****     }
  45:/home/zkmike/workspace/RZA2M/rza2m_2d_barcode_sample_freertos_gcc/src/zxing_lib/zxing/common/Counted.h ****   }
  46:/home/zkmike/workspace/RZA2M/rza2m_2d_barcode_sample_freertos_gcc/src/zxing_lib/zxing/common/Counted.h **** 
  47:/home/zkmike/workspace/RZA2M/rza2m_2d_barcode_sample_freertos_gcc/src/zxing_lib/zxing/common/Counted.h **** 
  48:/home/zkmike/workspace/RZA2M/rza2m_2d_barcode_sample_freertos_gcc/src/zxing_lib/zxing/common/Counted.h ****   /* return the current count for denugging purposes or similar */
  49:/home/zkmike/workspace/RZA2M/rza2m_2d_barcode_sample_freertos_gcc/src/zxing_lib/zxing/common/Counted.h ****   int count() const {
  50:/home/zkmike/workspace/RZA2M/rza2m_2d_barcode_sample_freertos_gcc/src/zxing_lib/zxing/common/Counted.h ****     return count_;
  51:/home/zkmike/workspace/RZA2M/rza2m_2d_barcode_sample_freertos_gcc/src/zxing_lib/zxing/common/Counted.h ****   }
  52:/home/zkmike/workspace/RZA2M/rza2m_2d_barcode_sample_freertos_gcc/src/zxing_lib/zxing/common/Counted.h **** };
  53:/home/zkmike/workspace/RZA2M/rza2m_2d_barcode_sample_freertos_gcc/src/zxing_lib/zxing/common/Counted.h **** 
  54:/home/zkmike/workspace/RZA2M/rza2m_2d_barcode_sample_freertos_gcc/src/zxing_lib/zxing/common/Counted.h **** /* counting reference to reference-counted objects */
  55:/home/zkmike/workspace/RZA2M/rza2m_2d_barcode_sample_freertos_gcc/src/zxing_lib/zxing/common/Counted.h **** template<typename T> class Ref {
  56:/home/zkmike/workspace/RZA2M/rza2m_2d_barcode_sample_freertos_gcc/src/zxing_lib/zxing/common/Counted.h **** private:
  57:/home/zkmike/workspace/RZA2M/rza2m_2d_barcode_sample_freertos_gcc/src/zxing_lib/zxing/common/Counted.h **** public:
  58:/home/zkmike/workspace/RZA2M/rza2m_2d_barcode_sample_freertos_gcc/src/zxing_lib/zxing/common/Counted.h ****   T *object_;
  59:/home/zkmike/workspace/RZA2M/rza2m_2d_barcode_sample_freertos_gcc/src/zxing_lib/zxing/common/Counted.h ****   explicit Ref(T *o = 0) :
  60:/home/zkmike/workspace/RZA2M/rza2m_2d_barcode_sample_freertos_gcc/src/zxing_lib/zxing/common/Counted.h ****       object_(0) {
  61:/home/zkmike/workspace/RZA2M/rza2m_2d_barcode_sample_freertos_gcc/src/zxing_lib/zxing/common/Counted.h ****     reset(o);
  62:/home/zkmike/workspace/RZA2M/rza2m_2d_barcode_sample_freertos_gcc/src/zxing_lib/zxing/common/Counted.h ****   }
  63:/home/zkmike/workspace/RZA2M/rza2m_2d_barcode_sample_freertos_gcc/src/zxing_lib/zxing/common/Counted.h ****   Ref(const Ref &other) :
  64:/home/zkmike/workspace/RZA2M/rza2m_2d_barcode_sample_freertos_gcc/src/zxing_lib/zxing/common/Counted.h ****       object_(0) {
  65:/home/zkmike/workspace/RZA2M/rza2m_2d_barcode_sample_freertos_gcc/src/zxing_lib/zxing/common/Counted.h ****     reset(other.object_);
  66:/home/zkmike/workspace/RZA2M/rza2m_2d_barcode_sample_freertos_gcc/src/zxing_lib/zxing/common/Counted.h ****   }
  67:/home/zkmike/workspace/RZA2M/rza2m_2d_barcode_sample_freertos_gcc/src/zxing_lib/zxing/common/Counted.h **** 
  68:/home/zkmike/workspace/RZA2M/rza2m_2d_barcode_sample_freertos_gcc/src/zxing_lib/zxing/common/Counted.h ****   template<class Y>
  69:/home/zkmike/workspace/RZA2M/rza2m_2d_barcode_sample_freertos_gcc/src/zxing_lib/zxing/common/Counted.h ****   Ref(const Ref<Y> &other) :
  70:/home/zkmike/workspace/RZA2M/rza2m_2d_barcode_sample_freertos_gcc/src/zxing_lib/zxing/common/Counted.h ****       object_(0) {
  71:/home/zkmike/workspace/RZA2M/rza2m_2d_barcode_sample_freertos_gcc/src/zxing_lib/zxing/common/Counted.h ****     reset(other.object_);
  72:/home/zkmike/workspace/RZA2M/rza2m_2d_barcode_sample_freertos_gcc/src/zxing_lib/zxing/common/Counted.h ****   }
  73:/home/zkmike/workspace/RZA2M/rza2m_2d_barcode_sample_freertos_gcc/src/zxing_lib/zxing/common/Counted.h **** 
  74:/home/zkmike/workspace/RZA2M/rza2m_2d_barcode_sample_freertos_gcc/src/zxing_lib/zxing/common/Counted.h ****   ~Ref() {
  75:/home/zkmike/workspace/RZA2M/rza2m_2d_barcode_sample_freertos_gcc/src/zxing_lib/zxing/common/Counted.h ****     if (object_) {
  75              		.loc 3 75 0
  76 0010 080090E5 		ldr	r0, [r0, #8]
  77              	.LVL4:
  78 0014 000050E3 		cmp	r0, #0
  79 0018 0400000A 		beq	.L4
  80              	.LVL5:
  81              	.LBB680:
  82              	.LBB681:
  40:/home/zkmike/workspace/RZA2M/rza2m_2d_barcode_sample_freertos_gcc/src/zxing_lib/zxing/common/Counted.h ****     if (count_ == 0) {
  83              		.loc 3 40 0
  84 001c 043090E5 		ldr	r3, [r0, #4]
  85 0020 013043E2 		sub	r3, r3, #1
  86 0024 043080E5 		str	r3, [r0, #4]
  41:/home/zkmike/workspace/RZA2M/rza2m_2d_barcode_sample_freertos_gcc/src/zxing_lib/zxing/common/Counted.h ****       count_ = 0xDEADF001;
  87              		.loc 3 41 0
  88 0028 000053E3 		cmp	r3, #0
  89 002c 0100000A 		beq	.L6
  90              	.LVL6:
  91              	.L4:
  92              	.LBE681:
  93              	.LBE680:
  94              	.LBE679:
  95              	.LBE678:
  96              	.LBE677:
  97              		.loc 2 34 0
  98 0030 0400A0E1 		mov	r0, r4
  99 0034 1080BDE8 		pop	{r4, pc}
 100              	.LVL7:
 101              	.L6:
 102              	.LBB686:
 103              	.LBB685:
 104              	.LBB684:
 105              	.LBB683:
 106              	.LBB682:
  42:/home/zkmike/workspace/RZA2M/rza2m_2d_barcode_sample_freertos_gcc/src/zxing_lib/zxing/common/Counted.h ****       delete this;
 107              		.loc 3 42 0
 108 0038 01300FE3 		movw	r3, #61441
 109 003c AD3E4DE3 		movt	r3, 57005
 110 0040 043080E5 		str	r3, [r0, #4]
  43:/home/zkmike/workspace/RZA2M/rza2m_2d_barcode_sample_freertos_gcc/src/zxing_lib/zxing/common/Counted.h ****     }
 111              		.loc 3 43 0
 112 0044 003090E5 		ldr	r3, [r0]
 113 0048 043093E5 		ldr	r3, [r3, #4]
 114 004c 33FF2FE1 		blx	r3
 115              	.LVL8:
 116 0050 F6FFFFEA 		b	.L4
 117              	.L8:
 118              		.align	2
 119              	.L7:
 120 0054 08000000 		.word	_ZTVN5zxing22WhiteRectangleDetectorE+8
 121              	.LBE682:
 122              	.LBE683:
 123              	.LBE684:
 124              	.LBE685:
 125              	.LBE686:
 126              		.cfi_endproc
 127              	.LFE2866:
 128              		.cantunwind
 129              		.fnend
 131              		.weak	_ZN5zxing22WhiteRectangleDetectorD1Ev
 132              		.set	_ZN5zxing22WhiteRectangleDetectorD1Ev,_ZN5zxing22WhiteRectangleDetectorD2Ev
 133              		.section	.text._ZN5zxing22WhiteRectangleDetectorD0Ev,"axG",%progbits,_ZN5zxing22WhiteRectangleDete
 134              		.align	2
 135              		.weak	_ZN5zxing22WhiteRectangleDetectorD0Ev
 136              		.syntax unified
 137              		.arm
 138              		.fpu neon
 140              	_ZN5zxing22WhiteRectangleDetectorD0Ev:
 141              		.fnstart
 142              	.LFB2868:
 143              		.loc 2 34 0
 144              		.cfi_startproc
 145              		@ args = 0, pretend = 0, frame = 0
 146              		@ frame_needed = 0, uses_anonymous_args = 0
 147              	.LVL9:
 148 0000 10402DE9 		push	{r4, lr}
 149              		.cfi_def_cfa_offset 8
 150              		.cfi_offset 4, -8
 151              		.cfi_offset 14, -4
 152 0004 0040A0E1 		mov	r4, r0
 153              	.LVL10:
 154              	.LBB687:
 155              	.LBB688:
 156              		.loc 2 34 0
 157 0008 50309FE5 		ldr	r3, .L13
 158 000c 003080E5 		str	r3, [r0]
 159              	.LVL11:
 160              	.LBB689:
 161              	.LBB690:
 162              		.loc 3 75 0
 163 0010 080090E5 		ldr	r0, [r0, #8]
 164              	.LVL12:
 165 0014 000050E3 		cmp	r0, #0
 166 0018 0400000A 		beq	.L10
 167              	.LVL13:
 168              	.LBB691:
 169              	.LBB692:
  40:/home/zkmike/workspace/RZA2M/rza2m_2d_barcode_sample_freertos_gcc/src/zxing_lib/zxing/common/Counted.h ****     if (count_ == 0) {
 170              		.loc 3 40 0
 171 001c 043090E5 		ldr	r3, [r0, #4]
 172 0020 013043E2 		sub	r3, r3, #1
 173 0024 043080E5 		str	r3, [r0, #4]
  41:/home/zkmike/workspace/RZA2M/rza2m_2d_barcode_sample_freertos_gcc/src/zxing_lib/zxing/common/Counted.h ****       count_ = 0xDEADF001;
 174              		.loc 3 41 0
 175 0028 000053E3 		cmp	r3, #0
 176 002c 0400000A 		beq	.L12
 177              	.LVL14:
 178              	.L10:
 179              	.LBE692:
 180              	.LBE691:
 181              	.LBE690:
 182              	.LBE689:
 183              	.LBE688:
 184              	.LBE687:
 185              		.loc 2 34 0
 186 0030 2410A0E3 		mov	r1, #36
 187 0034 0400A0E1 		mov	r0, r4
 188 0038 FEFFFFEB 		bl	_ZdlPvj
 189              	.LVL15:
 190 003c 0400A0E1 		mov	r0, r4
 191 0040 1080BDE8 		pop	{r4, pc}
 192              	.LVL16:
 193              	.L12:
 194              	.LBB698:
 195              	.LBB697:
 196              	.LBB696:
 197              	.LBB695:
 198              	.LBB694:
 199              	.LBB693:
  42:/home/zkmike/workspace/RZA2M/rza2m_2d_barcode_sample_freertos_gcc/src/zxing_lib/zxing/common/Counted.h ****       delete this;
 200              		.loc 3 42 0
 201 0044 01300FE3 		movw	r3, #61441
 202 0048 AD3E4DE3 		movt	r3, 57005
 203 004c 043080E5 		str	r3, [r0, #4]
  43:/home/zkmike/workspace/RZA2M/rza2m_2d_barcode_sample_freertos_gcc/src/zxing_lib/zxing/common/Counted.h ****     }
 204              		.loc 3 43 0
 205 0050 003090E5 		ldr	r3, [r0]
 206 0054 043093E5 		ldr	r3, [r3, #4]
 207 0058 33FF2FE1 		blx	r3
 208              	.LVL17:
 209 005c F3FFFFEA 		b	.L10
 210              	.L14:
 211              		.align	2
 212              	.L13:
 213 0060 08000000 		.word	_ZTVN5zxing22WhiteRectangleDetectorE+8
 214              	.LBE693:
 215              	.LBE694:
 216              	.LBE695:
 217              	.LBE696:
 218              	.LBE697:
 219              	.LBE698:
 220              		.cfi_endproc
 221              	.LFE2868:
 222              		.cantunwind
 223              		.fnend
 225              		.section	.text._ZN5zxing9ExceptionD2Ev,"axG",%progbits,_ZN5zxing9ExceptionD5Ev,comdat
 226              		.align	2
 227              		.weak	_ZN5zxing9ExceptionD2Ev
 228              		.syntax unified
 229              		.arm
 230              		.fpu neon
 232              	_ZN5zxing9ExceptionD2Ev:
 233              		.fnstart
 234              	.LFB938:
  37:/home/zkmike/workspace/RZA2M/rza2m_2d_barcode_sample_freertos_gcc/src/zxing_lib/zxing/Exception.h ****     if(message) {
 235              		.loc 1 37 0
 236              		.cfi_startproc
 237              		.cfi_personality 0,__gxx_personality_v0
 238              		.cfi_lsda 0,.LLSDA938
 239              		@ args = 0, pretend = 0, frame = 0
 240              		@ frame_needed = 0, uses_anonymous_args = 0
 241              	.LVL18:
 242 0000 70402DE9 		push	{r4, r5, r6, lr}
 243              		.save {r4, r5, r6, lr}
 244              		.cfi_def_cfa_offset 16
 245              		.cfi_offset 4, -16
 246              		.cfi_offset 5, -12
 247              		.cfi_offset 6, -8
 248              		.cfi_offset 14, -4
 249 0004 0040A0E1 		mov	r4, r0
 250              	.LBB700:
  37:/home/zkmike/workspace/RZA2M/rza2m_2d_barcode_sample_freertos_gcc/src/zxing_lib/zxing/Exception.h ****     if(message) {
 251              		.loc 1 37 0
 252 0008 48309FE5 		ldr	r3, .L22
 253 000c 003080E5 		str	r3, [r0]
  38:/home/zkmike/workspace/RZA2M/rza2m_2d_barcode_sample_freertos_gcc/src/zxing_lib/zxing/Exception.h ****       deleteMessage();
 254              		.loc 1 38 0
 255 0010 043090E5 		ldr	r3, [r0, #4]
 256 0014 000053E3 		cmp	r3, #0
 257 0018 0A00000A 		beq	.L16
 258              	.LEHB0:
  39:/home/zkmike/workspace/RZA2M/rza2m_2d_barcode_sample_freertos_gcc/src/zxing_lib/zxing/Exception.h ****     }
 259              		.loc 1 39 0
 260 001c FEFFFFEB 		bl	_ZN5zxing9Exception13deleteMessageEv
 261              	.LVL19:
 262              	.LEHE0:
 263 0020 080000EA 		b	.L16
 264              	.L19:
 265 0024 0050A0E1 		mov	r5, r0
 266 0028 0160A0E1 		mov	r6, r1
  37:/home/zkmike/workspace/RZA2M/rza2m_2d_barcode_sample_freertos_gcc/src/zxing_lib/zxing/Exception.h ****     if(message) {
 267              		.loc 1 37 0
 268 002c 0400A0E1 		mov	r0, r4
 269 0030 FEFFFFEB 		bl	_ZNSt9exceptionD2Ev
 270              	.LVL20:
 271 0034 010076E3 		cmn	r6, #1
 272 0038 0000000A 		beq	.L18
 273              	.LEHB1:
 274 003c FEFFFFEB 		bl	__cxa_end_cleanup
 275              	.LVL21:
 276              	.L18:
 277              	.LBE700:
 278 0040 0500A0E1 		mov	r0, r5
 279 0044 FEFFFFEB 		bl	__cxa_call_unexpected
 280              	.LVL22:
 281              	.LEHE1:
 282              	.L16:
 283              	.LBB701:
 284 0048 0400A0E1 		mov	r0, r4
 285 004c FEFFFFEB 		bl	_ZNSt9exceptionD2Ev
 286              	.LVL23:
 287              	.LBE701:
  41:/home/zkmike/workspace/RZA2M/rza2m_2d_barcode_sample_freertos_gcc/src/zxing_lib/zxing/Exception.h ****   char const* what() const throw() {return message ? message : "";}
 288              		.loc 1 41 0
 289 0050 0400A0E1 		mov	r0, r4
 290 0054 7080BDE8 		pop	{r4, r5, r6, pc}
 291              	.L23:
 292              		.align	2
 293              	.L22:
 294 0058 08000000 		.word	_ZTVN5zxing9ExceptionE+8
 295              		.cfi_endproc
 296              	.LFE938:
 297              		.global	__gxx_personality_v0
 298              		.personality	__gxx_personality_v0
 299              		.handlerdata
 300              		.align	2
 301              	.LLSDA938:
 302 0008 FF       		.byte	0xff
 303 0009 10       		.byte	0x10
 304 000a 11       		.uleb128 .LLSDATT938-.LLSDATTD938
 305              	.LLSDATTD938:
 306 000b 01       		.byte	0x1
 307 000c 08       		.uleb128 .LLSDACSE938-.LLSDACSB938
 308              	.LLSDACSB938:
 309 000d 1C       		.uleb128 .LEHB0-.LFB938
 310 000e 04       		.uleb128 .LEHE0-.LEHB0
 311 000f 24       		.uleb128 .L19-.LFB938
 312 0010 03       		.uleb128 0x3
 313 0011 3C       		.uleb128 .LEHB1-.LFB938
 314 0012 0C       		.uleb128 .LEHE1-.LEHB1
 315 0013 00       		.uleb128 0
 316 0014 00       		.uleb128 0
 317              	.LLSDACSE938:
 318 0015 7F       		.byte	0x7f
 319 0016 00       		.byte	0
 320 0017 00       		.byte	0
 321 0018 7D       		.byte	0x7d
 322 0019 000000   		.align	2
 323              	.LLSDATT938:
 324 001c 00000000 		.word	0
 325              		.section	.text._ZN5zxing9ExceptionD2Ev,"axG",%progbits,_ZN5zxing9ExceptionD5Ev,comdat
 326              		.fnend
 328              		.weak	_ZN5zxing9ExceptionD1Ev
 329              		.set	_ZN5zxing9ExceptionD1Ev,_ZN5zxing9ExceptionD2Ev
 330              		.section	.text._Z41__static_initialization_and_destruction_0ii,"ax",%progbits
 331              		.align	2
 332              		.syntax unified
 333              		.arm
 334              		.fpu neon
 336              	_Z41__static_initialization_and_destruction_0ii:
 337              		.fnstart
 338              	.LFB2869:
 339              		.file 4 "../src/zxing_lib/zxing/common/detector/WhiteRectangleDetector.cpp"
   1:../src/zxing_lib/zxing/common/detector/WhiteRectangleDetector.cpp **** // -*- mode:c++; tab-width:2; indent-tabs-mode:nil; c-basic-offset:2 -*-
   2:../src/zxing_lib/zxing/common/detector/WhiteRectangleDetector.cpp **** /*
   3:../src/zxing_lib/zxing/common/detector/WhiteRectangleDetector.cpp ****  *  WhiteRectangleDetector.cpp
   4:../src/zxing_lib/zxing/common/detector/WhiteRectangleDetector.cpp ****  *  y_wmk
   5:../src/zxing_lib/zxing/common/detector/WhiteRectangleDetector.cpp ****  *
   6:../src/zxing_lib/zxing/common/detector/WhiteRectangleDetector.cpp ****  *  Created by Luiz Silva on 09/02/2010.
   7:../src/zxing_lib/zxing/common/detector/WhiteRectangleDetector.cpp ****  *  Copyright 2010 y_wmk authors All rights reserved.
   8:../src/zxing_lib/zxing/common/detector/WhiteRectangleDetector.cpp ****  *
   9:../src/zxing_lib/zxing/common/detector/WhiteRectangleDetector.cpp ****  * Licensed under the Apache License, Version 2.0 (the "License");
  10:../src/zxing_lib/zxing/common/detector/WhiteRectangleDetector.cpp ****  * you may not use this file except in compliance with the License.
  11:../src/zxing_lib/zxing/common/detector/WhiteRectangleDetector.cpp ****  * You may obtain a copy of the License at
  12:../src/zxing_lib/zxing/common/detector/WhiteRectangleDetector.cpp ****  *
  13:../src/zxing_lib/zxing/common/detector/WhiteRectangleDetector.cpp ****  *      http://www.apache.org/licenses/LICENSE-2.0
  14:../src/zxing_lib/zxing/common/detector/WhiteRectangleDetector.cpp ****  *
  15:../src/zxing_lib/zxing/common/detector/WhiteRectangleDetector.cpp ****  * Unless required by applicable law or agreed to in writing, software
  16:../src/zxing_lib/zxing/common/detector/WhiteRectangleDetector.cpp ****  * distributed under the License is distributed on an "AS IS" BASIS,
  17:../src/zxing_lib/zxing/common/detector/WhiteRectangleDetector.cpp ****  * WITHOUT WARRANTIES OR CONDITIONS OF ANY KIND, either express or implied.
  18:../src/zxing_lib/zxing/common/detector/WhiteRectangleDetector.cpp ****  * See the License for the specific language governing permissions and
  19:../src/zxing_lib/zxing/common/detector/WhiteRectangleDetector.cpp ****  * limitations under the License.
  20:../src/zxing_lib/zxing/common/detector/WhiteRectangleDetector.cpp ****  */
  21:../src/zxing_lib/zxing/common/detector/WhiteRectangleDetector.cpp **** 
  22:../src/zxing_lib/zxing/common/detector/WhiteRectangleDetector.cpp **** #include <zxing/NotFoundException.h>
  23:../src/zxing_lib/zxing/common/detector/WhiteRectangleDetector.cpp **** #include <zxing/common/detector/WhiteRectangleDetector.h>
  24:../src/zxing_lib/zxing/common/detector/WhiteRectangleDetector.cpp **** #include <zxing/common/detector/MathUtils.h>
  25:../src/zxing_lib/zxing/common/detector/WhiteRectangleDetector.cpp **** #include <sstream>
  26:../src/zxing_lib/zxing/common/detector/WhiteRectangleDetector.cpp **** 
  27:../src/zxing_lib/zxing/common/detector/WhiteRectangleDetector.cpp **** using std::vector;
  28:../src/zxing_lib/zxing/common/detector/WhiteRectangleDetector.cpp **** using zxing::Ref;
  29:../src/zxing_lib/zxing/common/detector/WhiteRectangleDetector.cpp **** using zxing::ResultPoint;
  30:../src/zxing_lib/zxing/common/detector/WhiteRectangleDetector.cpp **** using zxing::WhiteRectangleDetector;
  31:../src/zxing_lib/zxing/common/detector/WhiteRectangleDetector.cpp **** using zxing::common::detector::MathUtils;
  32:../src/zxing_lib/zxing/common/detector/WhiteRectangleDetector.cpp **** 
  33:../src/zxing_lib/zxing/common/detector/WhiteRectangleDetector.cpp **** // VC++
  34:../src/zxing_lib/zxing/common/detector/WhiteRectangleDetector.cpp **** using zxing::BitMatrix;
  35:../src/zxing_lib/zxing/common/detector/WhiteRectangleDetector.cpp **** 
  36:../src/zxing_lib/zxing/common/detector/WhiteRectangleDetector.cpp **** int WhiteRectangleDetector::INIT_SIZE = 30;
  37:../src/zxing_lib/zxing/common/detector/WhiteRectangleDetector.cpp **** int WhiteRectangleDetector::CORR = 1;
  38:../src/zxing_lib/zxing/common/detector/WhiteRectangleDetector.cpp **** 
  39:../src/zxing_lib/zxing/common/detector/WhiteRectangleDetector.cpp **** WhiteRectangleDetector::WhiteRectangleDetector(Ref<BitMatrix> image) : image_(image) {
  40:../src/zxing_lib/zxing/common/detector/WhiteRectangleDetector.cpp ****   width_ = image->getWidth();
  41:../src/zxing_lib/zxing/common/detector/WhiteRectangleDetector.cpp ****   height_ = image->getHeight();
  42:../src/zxing_lib/zxing/common/detector/WhiteRectangleDetector.cpp ****   
  43:../src/zxing_lib/zxing/common/detector/WhiteRectangleDetector.cpp ****   leftInit_ = (width_ - INIT_SIZE) >> 1;
  44:../src/zxing_lib/zxing/common/detector/WhiteRectangleDetector.cpp ****   rightInit_ = (width_ + INIT_SIZE) >> 1;
  45:../src/zxing_lib/zxing/common/detector/WhiteRectangleDetector.cpp ****   upInit_ = (height_ - INIT_SIZE) >> 1;
  46:../src/zxing_lib/zxing/common/detector/WhiteRectangleDetector.cpp ****   downInit_ = (height_ + INIT_SIZE) >> 1;
  47:../src/zxing_lib/zxing/common/detector/WhiteRectangleDetector.cpp ****   
  48:../src/zxing_lib/zxing/common/detector/WhiteRectangleDetector.cpp ****   if (upInit_ < 0 || leftInit_ < 0 || downInit_ >= height_ || rightInit_ >= width_) {
  49:../src/zxing_lib/zxing/common/detector/WhiteRectangleDetector.cpp ****     throw NotFoundException("Invalid dimensions WhiteRectangleDetector");
  50:../src/zxing_lib/zxing/common/detector/WhiteRectangleDetector.cpp **** }
  51:../src/zxing_lib/zxing/common/detector/WhiteRectangleDetector.cpp **** }
  52:../src/zxing_lib/zxing/common/detector/WhiteRectangleDetector.cpp **** 
  53:../src/zxing_lib/zxing/common/detector/WhiteRectangleDetector.cpp **** WhiteRectangleDetector::WhiteRectangleDetector(Ref<BitMatrix> image, int initSize, int x, int y) : 
  54:../src/zxing_lib/zxing/common/detector/WhiteRectangleDetector.cpp ****   width_ = image->getWidth();
  55:../src/zxing_lib/zxing/common/detector/WhiteRectangleDetector.cpp ****   height_ = image->getHeight();
  56:../src/zxing_lib/zxing/common/detector/WhiteRectangleDetector.cpp ****   
  57:../src/zxing_lib/zxing/common/detector/WhiteRectangleDetector.cpp ****   int halfsize = initSize >> 1;
  58:../src/zxing_lib/zxing/common/detector/WhiteRectangleDetector.cpp ****   leftInit_ = x - halfsize;
  59:../src/zxing_lib/zxing/common/detector/WhiteRectangleDetector.cpp ****   rightInit_ = x + halfsize;
  60:../src/zxing_lib/zxing/common/detector/WhiteRectangleDetector.cpp ****   upInit_ = y - halfsize;
  61:../src/zxing_lib/zxing/common/detector/WhiteRectangleDetector.cpp ****   downInit_ = y + halfsize;
  62:../src/zxing_lib/zxing/common/detector/WhiteRectangleDetector.cpp ****   
  63:../src/zxing_lib/zxing/common/detector/WhiteRectangleDetector.cpp ****   if (upInit_ < 0 || leftInit_ < 0 || downInit_ >= height_ || rightInit_ >= width_) {
  64:../src/zxing_lib/zxing/common/detector/WhiteRectangleDetector.cpp ****     throw NotFoundException("Invalid dimensions WhiteRectangleDetector");
  65:../src/zxing_lib/zxing/common/detector/WhiteRectangleDetector.cpp ****   }
  66:../src/zxing_lib/zxing/common/detector/WhiteRectangleDetector.cpp **** }
  67:../src/zxing_lib/zxing/common/detector/WhiteRectangleDetector.cpp **** 
  68:../src/zxing_lib/zxing/common/detector/WhiteRectangleDetector.cpp **** /**
  69:../src/zxing_lib/zxing/common/detector/WhiteRectangleDetector.cpp ****  * <p>
  70:../src/zxing_lib/zxing/common/detector/WhiteRectangleDetector.cpp ****  * Detects a candidate barcode-like rectangular region within an image. It
  71:../src/zxing_lib/zxing/common/detector/WhiteRectangleDetector.cpp ****  * starts around the center of the image, increases the size of the candidate
  72:../src/zxing_lib/zxing/common/detector/WhiteRectangleDetector.cpp ****  * region until it finds a white rectangular region.
  73:../src/zxing_lib/zxing/common/detector/WhiteRectangleDetector.cpp ****  * </p>
  74:../src/zxing_lib/zxing/common/detector/WhiteRectangleDetector.cpp ****  *
  75:../src/zxing_lib/zxing/common/detector/WhiteRectangleDetector.cpp ****  * @return {@link vector<Ref<ResultPoint> >} describing the corners of the rectangular
  76:../src/zxing_lib/zxing/common/detector/WhiteRectangleDetector.cpp ****  *         region. The first and last points are opposed on the diagonal, as
  77:../src/zxing_lib/zxing/common/detector/WhiteRectangleDetector.cpp ****  *         are the second and third. The first point will be the topmost
  78:../src/zxing_lib/zxing/common/detector/WhiteRectangleDetector.cpp ****  *         point and the last, the bottommost. The second point will be
  79:../src/zxing_lib/zxing/common/detector/WhiteRectangleDetector.cpp ****  *         leftmost and the third, the rightmost
  80:../src/zxing_lib/zxing/common/detector/WhiteRectangleDetector.cpp ****  * @throws NotFoundException if no Data Matrix Code can be found
  81:../src/zxing_lib/zxing/common/detector/WhiteRectangleDetector.cpp **** */
  82:../src/zxing_lib/zxing/common/detector/WhiteRectangleDetector.cpp **** std::vector<Ref<ResultPoint> > WhiteRectangleDetector::detect() {
  83:../src/zxing_lib/zxing/common/detector/WhiteRectangleDetector.cpp ****   int left = leftInit_;
  84:../src/zxing_lib/zxing/common/detector/WhiteRectangleDetector.cpp ****   int right = rightInit_;
  85:../src/zxing_lib/zxing/common/detector/WhiteRectangleDetector.cpp ****   int up = upInit_;
  86:../src/zxing_lib/zxing/common/detector/WhiteRectangleDetector.cpp ****   int down = downInit_;
  87:../src/zxing_lib/zxing/common/detector/WhiteRectangleDetector.cpp **** 
  88:../src/zxing_lib/zxing/common/detector/WhiteRectangleDetector.cpp ****   bool sizeExceeded = false;
  89:../src/zxing_lib/zxing/common/detector/WhiteRectangleDetector.cpp ****   bool aBlackPointFoundOnBorder = true;
  90:../src/zxing_lib/zxing/common/detector/WhiteRectangleDetector.cpp ****   bool atLeastOneBlackPointFoundOnBorder = false;
  91:../src/zxing_lib/zxing/common/detector/WhiteRectangleDetector.cpp **** 
  92:../src/zxing_lib/zxing/common/detector/WhiteRectangleDetector.cpp ****   while (aBlackPointFoundOnBorder) {
  93:../src/zxing_lib/zxing/common/detector/WhiteRectangleDetector.cpp ****     aBlackPointFoundOnBorder = false;
  94:../src/zxing_lib/zxing/common/detector/WhiteRectangleDetector.cpp **** 
  95:../src/zxing_lib/zxing/common/detector/WhiteRectangleDetector.cpp ****     // .....
  96:../src/zxing_lib/zxing/common/detector/WhiteRectangleDetector.cpp ****     // .   |
  97:../src/zxing_lib/zxing/common/detector/WhiteRectangleDetector.cpp ****     // .....
  98:../src/zxing_lib/zxing/common/detector/WhiteRectangleDetector.cpp ****     bool rightBorderNotWhite = true;
  99:../src/zxing_lib/zxing/common/detector/WhiteRectangleDetector.cpp ****     while (rightBorderNotWhite && right < width_) {
 100:../src/zxing_lib/zxing/common/detector/WhiteRectangleDetector.cpp ****       rightBorderNotWhite = containsBlackPoint(up, down, right, false);
 101:../src/zxing_lib/zxing/common/detector/WhiteRectangleDetector.cpp ****       if (rightBorderNotWhite) {
 102:../src/zxing_lib/zxing/common/detector/WhiteRectangleDetector.cpp ****         right++;
 103:../src/zxing_lib/zxing/common/detector/WhiteRectangleDetector.cpp ****         aBlackPointFoundOnBorder = true;
 104:../src/zxing_lib/zxing/common/detector/WhiteRectangleDetector.cpp ****       }
 105:../src/zxing_lib/zxing/common/detector/WhiteRectangleDetector.cpp ****     }
 106:../src/zxing_lib/zxing/common/detector/WhiteRectangleDetector.cpp **** 
 107:../src/zxing_lib/zxing/common/detector/WhiteRectangleDetector.cpp ****     if (right >= width_) {
 108:../src/zxing_lib/zxing/common/detector/WhiteRectangleDetector.cpp ****       sizeExceeded = true;
 109:../src/zxing_lib/zxing/common/detector/WhiteRectangleDetector.cpp ****       break;
 110:../src/zxing_lib/zxing/common/detector/WhiteRectangleDetector.cpp ****     }
 111:../src/zxing_lib/zxing/common/detector/WhiteRectangleDetector.cpp **** 
 112:../src/zxing_lib/zxing/common/detector/WhiteRectangleDetector.cpp ****     // .....
 113:../src/zxing_lib/zxing/common/detector/WhiteRectangleDetector.cpp ****     // .   .
 114:../src/zxing_lib/zxing/common/detector/WhiteRectangleDetector.cpp ****     // .___.
 115:../src/zxing_lib/zxing/common/detector/WhiteRectangleDetector.cpp ****     bool bottomBorderNotWhite = true;
 116:../src/zxing_lib/zxing/common/detector/WhiteRectangleDetector.cpp ****     while (bottomBorderNotWhite && down < height_) {
 117:../src/zxing_lib/zxing/common/detector/WhiteRectangleDetector.cpp ****       bottomBorderNotWhite = containsBlackPoint(left, right, down, true);
 118:../src/zxing_lib/zxing/common/detector/WhiteRectangleDetector.cpp ****       if (bottomBorderNotWhite) {
 119:../src/zxing_lib/zxing/common/detector/WhiteRectangleDetector.cpp ****         down++;
 120:../src/zxing_lib/zxing/common/detector/WhiteRectangleDetector.cpp ****         aBlackPointFoundOnBorder = true;
 121:../src/zxing_lib/zxing/common/detector/WhiteRectangleDetector.cpp ****       }
 122:../src/zxing_lib/zxing/common/detector/WhiteRectangleDetector.cpp ****     }
 123:../src/zxing_lib/zxing/common/detector/WhiteRectangleDetector.cpp **** 
 124:../src/zxing_lib/zxing/common/detector/WhiteRectangleDetector.cpp ****     if (down >= height_) {
 125:../src/zxing_lib/zxing/common/detector/WhiteRectangleDetector.cpp ****       sizeExceeded = true;
 126:../src/zxing_lib/zxing/common/detector/WhiteRectangleDetector.cpp ****       break;
 127:../src/zxing_lib/zxing/common/detector/WhiteRectangleDetector.cpp ****     }
 128:../src/zxing_lib/zxing/common/detector/WhiteRectangleDetector.cpp **** 
 129:../src/zxing_lib/zxing/common/detector/WhiteRectangleDetector.cpp ****     // .....
 130:../src/zxing_lib/zxing/common/detector/WhiteRectangleDetector.cpp ****     // |   .
 131:../src/zxing_lib/zxing/common/detector/WhiteRectangleDetector.cpp ****     // .....
 132:../src/zxing_lib/zxing/common/detector/WhiteRectangleDetector.cpp ****     bool leftBorderNotWhite = true;
 133:../src/zxing_lib/zxing/common/detector/WhiteRectangleDetector.cpp ****     while (leftBorderNotWhite && left >= 0) {
 134:../src/zxing_lib/zxing/common/detector/WhiteRectangleDetector.cpp ****       leftBorderNotWhite = containsBlackPoint(up, down, left, false);
 135:../src/zxing_lib/zxing/common/detector/WhiteRectangleDetector.cpp ****       if (leftBorderNotWhite) {
 136:../src/zxing_lib/zxing/common/detector/WhiteRectangleDetector.cpp ****         left--;
 137:../src/zxing_lib/zxing/common/detector/WhiteRectangleDetector.cpp ****         aBlackPointFoundOnBorder = true;
 138:../src/zxing_lib/zxing/common/detector/WhiteRectangleDetector.cpp ****       }
 139:../src/zxing_lib/zxing/common/detector/WhiteRectangleDetector.cpp ****     }
 140:../src/zxing_lib/zxing/common/detector/WhiteRectangleDetector.cpp **** 
 141:../src/zxing_lib/zxing/common/detector/WhiteRectangleDetector.cpp ****     if (left < 0) {
 142:../src/zxing_lib/zxing/common/detector/WhiteRectangleDetector.cpp ****       sizeExceeded = true;
 143:../src/zxing_lib/zxing/common/detector/WhiteRectangleDetector.cpp ****       break;
 144:../src/zxing_lib/zxing/common/detector/WhiteRectangleDetector.cpp ****     }
 145:../src/zxing_lib/zxing/common/detector/WhiteRectangleDetector.cpp **** 
 146:../src/zxing_lib/zxing/common/detector/WhiteRectangleDetector.cpp ****     // .___.
 147:../src/zxing_lib/zxing/common/detector/WhiteRectangleDetector.cpp ****     // .   .
 148:../src/zxing_lib/zxing/common/detector/WhiteRectangleDetector.cpp ****     // .....
 149:../src/zxing_lib/zxing/common/detector/WhiteRectangleDetector.cpp ****     bool topBorderNotWhite = true;
 150:../src/zxing_lib/zxing/common/detector/WhiteRectangleDetector.cpp ****     while (topBorderNotWhite && up >= 0) {
 151:../src/zxing_lib/zxing/common/detector/WhiteRectangleDetector.cpp ****       topBorderNotWhite = containsBlackPoint(left, right, up, true);
 152:../src/zxing_lib/zxing/common/detector/WhiteRectangleDetector.cpp ****       if (topBorderNotWhite) {
 153:../src/zxing_lib/zxing/common/detector/WhiteRectangleDetector.cpp ****         up--;
 154:../src/zxing_lib/zxing/common/detector/WhiteRectangleDetector.cpp ****         aBlackPointFoundOnBorder = true;
 155:../src/zxing_lib/zxing/common/detector/WhiteRectangleDetector.cpp ****       }
 156:../src/zxing_lib/zxing/common/detector/WhiteRectangleDetector.cpp ****     }
 157:../src/zxing_lib/zxing/common/detector/WhiteRectangleDetector.cpp **** 
 158:../src/zxing_lib/zxing/common/detector/WhiteRectangleDetector.cpp ****     if (up < 0) {
 159:../src/zxing_lib/zxing/common/detector/WhiteRectangleDetector.cpp ****       sizeExceeded = true;
 160:../src/zxing_lib/zxing/common/detector/WhiteRectangleDetector.cpp ****       break;
 161:../src/zxing_lib/zxing/common/detector/WhiteRectangleDetector.cpp ****     }
 162:../src/zxing_lib/zxing/common/detector/WhiteRectangleDetector.cpp **** 
 163:../src/zxing_lib/zxing/common/detector/WhiteRectangleDetector.cpp ****     if (aBlackPointFoundOnBorder) {
 164:../src/zxing_lib/zxing/common/detector/WhiteRectangleDetector.cpp ****       atLeastOneBlackPointFoundOnBorder = true;
 165:../src/zxing_lib/zxing/common/detector/WhiteRectangleDetector.cpp ****     }
 166:../src/zxing_lib/zxing/common/detector/WhiteRectangleDetector.cpp **** 
 167:../src/zxing_lib/zxing/common/detector/WhiteRectangleDetector.cpp ****   }
 168:../src/zxing_lib/zxing/common/detector/WhiteRectangleDetector.cpp ****   if (!sizeExceeded && atLeastOneBlackPointFoundOnBorder) {
 169:../src/zxing_lib/zxing/common/detector/WhiteRectangleDetector.cpp **** 
 170:../src/zxing_lib/zxing/common/detector/WhiteRectangleDetector.cpp ****     int maxSize = right - left;
 171:../src/zxing_lib/zxing/common/detector/WhiteRectangleDetector.cpp **** 
 172:../src/zxing_lib/zxing/common/detector/WhiteRectangleDetector.cpp ****     Ref<ResultPoint> z(NULL);
 173:../src/zxing_lib/zxing/common/detector/WhiteRectangleDetector.cpp ****     //go up right
 174:../src/zxing_lib/zxing/common/detector/WhiteRectangleDetector.cpp ****     for (int i = 1; i < maxSize; i++) {
 175:../src/zxing_lib/zxing/common/detector/WhiteRectangleDetector.cpp ****       z = getBlackPointOnSegment(left, down - i, left + i, down);
 176:../src/zxing_lib/zxing/common/detector/WhiteRectangleDetector.cpp ****       if (z != NULL) {
 177:../src/zxing_lib/zxing/common/detector/WhiteRectangleDetector.cpp ****         break;
 178:../src/zxing_lib/zxing/common/detector/WhiteRectangleDetector.cpp ****       }
 179:../src/zxing_lib/zxing/common/detector/WhiteRectangleDetector.cpp ****     }
 180:../src/zxing_lib/zxing/common/detector/WhiteRectangleDetector.cpp **** 
 181:../src/zxing_lib/zxing/common/detector/WhiteRectangleDetector.cpp ****     if (z == NULL) {
 182:../src/zxing_lib/zxing/common/detector/WhiteRectangleDetector.cpp ****       throw NotFoundException("z == NULL");
 183:../src/zxing_lib/zxing/common/detector/WhiteRectangleDetector.cpp ****     }
 184:../src/zxing_lib/zxing/common/detector/WhiteRectangleDetector.cpp **** 
 185:../src/zxing_lib/zxing/common/detector/WhiteRectangleDetector.cpp ****     Ref<ResultPoint> t(NULL);
 186:../src/zxing_lib/zxing/common/detector/WhiteRectangleDetector.cpp ****     //go down right
 187:../src/zxing_lib/zxing/common/detector/WhiteRectangleDetector.cpp ****     for (int i = 1; i < maxSize; i++) {
 188:../src/zxing_lib/zxing/common/detector/WhiteRectangleDetector.cpp ****       t = getBlackPointOnSegment(left, up + i, left + i, up);
 189:../src/zxing_lib/zxing/common/detector/WhiteRectangleDetector.cpp ****       if (t != NULL) {
 190:../src/zxing_lib/zxing/common/detector/WhiteRectangleDetector.cpp ****         break;
 191:../src/zxing_lib/zxing/common/detector/WhiteRectangleDetector.cpp ****       }
 192:../src/zxing_lib/zxing/common/detector/WhiteRectangleDetector.cpp ****     }
 193:../src/zxing_lib/zxing/common/detector/WhiteRectangleDetector.cpp **** 
 194:../src/zxing_lib/zxing/common/detector/WhiteRectangleDetector.cpp ****     if (t == NULL) {
 195:../src/zxing_lib/zxing/common/detector/WhiteRectangleDetector.cpp ****       throw NotFoundException("t == NULL");
 196:../src/zxing_lib/zxing/common/detector/WhiteRectangleDetector.cpp ****     }
 197:../src/zxing_lib/zxing/common/detector/WhiteRectangleDetector.cpp **** 
 198:../src/zxing_lib/zxing/common/detector/WhiteRectangleDetector.cpp ****     Ref<ResultPoint> x(NULL);
 199:../src/zxing_lib/zxing/common/detector/WhiteRectangleDetector.cpp ****     //go down left
 200:../src/zxing_lib/zxing/common/detector/WhiteRectangleDetector.cpp ****     for (int i = 1; i < maxSize; i++) {
 201:../src/zxing_lib/zxing/common/detector/WhiteRectangleDetector.cpp ****       x = getBlackPointOnSegment(right, up + i, right - i, up);
 202:../src/zxing_lib/zxing/common/detector/WhiteRectangleDetector.cpp ****       if (x != NULL) {
 203:../src/zxing_lib/zxing/common/detector/WhiteRectangleDetector.cpp ****         break;
 204:../src/zxing_lib/zxing/common/detector/WhiteRectangleDetector.cpp ****       }
 205:../src/zxing_lib/zxing/common/detector/WhiteRectangleDetector.cpp ****     }
 206:../src/zxing_lib/zxing/common/detector/WhiteRectangleDetector.cpp **** 
 207:../src/zxing_lib/zxing/common/detector/WhiteRectangleDetector.cpp ****     if (x == NULL) {
 208:../src/zxing_lib/zxing/common/detector/WhiteRectangleDetector.cpp ****       throw NotFoundException("x == NULL");
 209:../src/zxing_lib/zxing/common/detector/WhiteRectangleDetector.cpp ****     }
 210:../src/zxing_lib/zxing/common/detector/WhiteRectangleDetector.cpp **** 
 211:../src/zxing_lib/zxing/common/detector/WhiteRectangleDetector.cpp ****     Ref<ResultPoint> y(NULL);
 212:../src/zxing_lib/zxing/common/detector/WhiteRectangleDetector.cpp ****     //go up left
 213:../src/zxing_lib/zxing/common/detector/WhiteRectangleDetector.cpp ****     for (int i = 1; i < maxSize; i++) {
 214:../src/zxing_lib/zxing/common/detector/WhiteRectangleDetector.cpp ****       y = getBlackPointOnSegment(right, down - i, right - i, down);
 215:../src/zxing_lib/zxing/common/detector/WhiteRectangleDetector.cpp ****       if (y != NULL) {
 216:../src/zxing_lib/zxing/common/detector/WhiteRectangleDetector.cpp ****         break;
 217:../src/zxing_lib/zxing/common/detector/WhiteRectangleDetector.cpp ****       }
 218:../src/zxing_lib/zxing/common/detector/WhiteRectangleDetector.cpp ****     }
 219:../src/zxing_lib/zxing/common/detector/WhiteRectangleDetector.cpp **** 
 220:../src/zxing_lib/zxing/common/detector/WhiteRectangleDetector.cpp ****     if (y == NULL) {
 221:../src/zxing_lib/zxing/common/detector/WhiteRectangleDetector.cpp ****       throw NotFoundException("y == NULL");
 222:../src/zxing_lib/zxing/common/detector/WhiteRectangleDetector.cpp ****     }
 223:../src/zxing_lib/zxing/common/detector/WhiteRectangleDetector.cpp **** 
 224:../src/zxing_lib/zxing/common/detector/WhiteRectangleDetector.cpp ****     return centerEdges(y, z, x, t);
 225:../src/zxing_lib/zxing/common/detector/WhiteRectangleDetector.cpp **** 
 226:../src/zxing_lib/zxing/common/detector/WhiteRectangleDetector.cpp ****   } else {
 227:../src/zxing_lib/zxing/common/detector/WhiteRectangleDetector.cpp ****     throw NotFoundException("No black point found on border");
 228:../src/zxing_lib/zxing/common/detector/WhiteRectangleDetector.cpp ****   }
 229:../src/zxing_lib/zxing/common/detector/WhiteRectangleDetector.cpp **** }
 230:../src/zxing_lib/zxing/common/detector/WhiteRectangleDetector.cpp **** 
 231:../src/zxing_lib/zxing/common/detector/WhiteRectangleDetector.cpp **** Ref<ResultPoint>
 232:../src/zxing_lib/zxing/common/detector/WhiteRectangleDetector.cpp **** WhiteRectangleDetector::getBlackPointOnSegment(int aX_, int aY_, int bX_, int bY_) {
 233:../src/zxing_lib/zxing/common/detector/WhiteRectangleDetector.cpp ****   float aX = float(aX_), aY = float(aY_), bX = float(bX_), bY = float(bY_);
 234:../src/zxing_lib/zxing/common/detector/WhiteRectangleDetector.cpp ****   int dist = MathUtils::round(MathUtils::distance(aX, aY, bX, bY));
 235:../src/zxing_lib/zxing/common/detector/WhiteRectangleDetector.cpp ****   float xStep = (bX - aX) / dist;
 236:../src/zxing_lib/zxing/common/detector/WhiteRectangleDetector.cpp ****   float yStep = (bY - aY) / dist;
 237:../src/zxing_lib/zxing/common/detector/WhiteRectangleDetector.cpp **** 
 238:../src/zxing_lib/zxing/common/detector/WhiteRectangleDetector.cpp ****   for (int i = 0; i < dist; i++) {
 239:../src/zxing_lib/zxing/common/detector/WhiteRectangleDetector.cpp ****     int x = MathUtils::round(aX + i * xStep);
 240:../src/zxing_lib/zxing/common/detector/WhiteRectangleDetector.cpp ****     int y = MathUtils::round(aY + i * yStep);
 241:../src/zxing_lib/zxing/common/detector/WhiteRectangleDetector.cpp ****     if (image_->get(x, y)) {
 242:../src/zxing_lib/zxing/common/detector/WhiteRectangleDetector.cpp ****       Ref<ResultPoint> point(new ResultPoint(float(x), float(y)));
 243:../src/zxing_lib/zxing/common/detector/WhiteRectangleDetector.cpp ****       return point;
 244:../src/zxing_lib/zxing/common/detector/WhiteRectangleDetector.cpp ****     }
 245:../src/zxing_lib/zxing/common/detector/WhiteRectangleDetector.cpp ****   }
 246:../src/zxing_lib/zxing/common/detector/WhiteRectangleDetector.cpp ****   Ref<ResultPoint> point(NULL);
 247:../src/zxing_lib/zxing/common/detector/WhiteRectangleDetector.cpp ****   return point;
 248:../src/zxing_lib/zxing/common/detector/WhiteRectangleDetector.cpp **** }
 249:../src/zxing_lib/zxing/common/detector/WhiteRectangleDetector.cpp **** 
 250:../src/zxing_lib/zxing/common/detector/WhiteRectangleDetector.cpp **** /**
 251:../src/zxing_lib/zxing/common/detector/WhiteRectangleDetector.cpp ****  * recenters the points of a constant distance towards the center
 252:../src/zxing_lib/zxing/common/detector/WhiteRectangleDetector.cpp ****  *
 253:../src/zxing_lib/zxing/common/detector/WhiteRectangleDetector.cpp ****  * @param y bottom most point
 254:../src/zxing_lib/zxing/common/detector/WhiteRectangleDetector.cpp ****  * @param z left most point
 255:../src/zxing_lib/zxing/common/detector/WhiteRectangleDetector.cpp ****  * @param x right most point
 256:../src/zxing_lib/zxing/common/detector/WhiteRectangleDetector.cpp ****  * @param t top most point
 257:../src/zxing_lib/zxing/common/detector/WhiteRectangleDetector.cpp ****  * @return {@link vector<Ref<ResultPoint> >} describing the corners of the rectangular
 258:../src/zxing_lib/zxing/common/detector/WhiteRectangleDetector.cpp ****  *         region. The first and last points are opposed on the diagonal, as
 259:../src/zxing_lib/zxing/common/detector/WhiteRectangleDetector.cpp ****  *         are the second and third. The first point will be the topmost
 260:../src/zxing_lib/zxing/common/detector/WhiteRectangleDetector.cpp ****  *         point and the last, the bottommost. The second point will be
 261:../src/zxing_lib/zxing/common/detector/WhiteRectangleDetector.cpp ****  *         leftmost and the third, the rightmost
 262:../src/zxing_lib/zxing/common/detector/WhiteRectangleDetector.cpp ****  */
 263:../src/zxing_lib/zxing/common/detector/WhiteRectangleDetector.cpp **** vector<Ref<ResultPoint> > WhiteRectangleDetector::centerEdges(Ref<ResultPoint> y, Ref<ResultPoint> 
 264:../src/zxing_lib/zxing/common/detector/WhiteRectangleDetector.cpp ****                                   Ref<ResultPoint> x, Ref<ResultPoint> t) {
 265:../src/zxing_lib/zxing/common/detector/WhiteRectangleDetector.cpp **** 
 266:../src/zxing_lib/zxing/common/detector/WhiteRectangleDetector.cpp ****   //
 267:../src/zxing_lib/zxing/common/detector/WhiteRectangleDetector.cpp ****   //       t            t
 268:../src/zxing_lib/zxing/common/detector/WhiteRectangleDetector.cpp ****   //  z                      x
 269:../src/zxing_lib/zxing/common/detector/WhiteRectangleDetector.cpp ****   //        x    OR    z
 270:../src/zxing_lib/zxing/common/detector/WhiteRectangleDetector.cpp ****   //   y                    y
 271:../src/zxing_lib/zxing/common/detector/WhiteRectangleDetector.cpp ****   //
 272:../src/zxing_lib/zxing/common/detector/WhiteRectangleDetector.cpp **** 
 273:../src/zxing_lib/zxing/common/detector/WhiteRectangleDetector.cpp ****   float yi = y->getX();
 274:../src/zxing_lib/zxing/common/detector/WhiteRectangleDetector.cpp ****   float yj = y->getY();
 275:../src/zxing_lib/zxing/common/detector/WhiteRectangleDetector.cpp ****   float zi = z->getX();
 276:../src/zxing_lib/zxing/common/detector/WhiteRectangleDetector.cpp ****   float zj = z->getY();
 277:../src/zxing_lib/zxing/common/detector/WhiteRectangleDetector.cpp ****   float xi = x->getX();
 278:../src/zxing_lib/zxing/common/detector/WhiteRectangleDetector.cpp ****   float xj = x->getY();
 279:../src/zxing_lib/zxing/common/detector/WhiteRectangleDetector.cpp ****   float ti = t->getX();
 280:../src/zxing_lib/zxing/common/detector/WhiteRectangleDetector.cpp ****   float tj = t->getY();
 281:../src/zxing_lib/zxing/common/detector/WhiteRectangleDetector.cpp **** 
 282:../src/zxing_lib/zxing/common/detector/WhiteRectangleDetector.cpp ****   std::vector<Ref<ResultPoint> > corners(4);
 283:../src/zxing_lib/zxing/common/detector/WhiteRectangleDetector.cpp ****   if (yi < (float)width_/2.0f) {
 284:../src/zxing_lib/zxing/common/detector/WhiteRectangleDetector.cpp ****     Ref<ResultPoint> pointA(new ResultPoint(ti - CORR, tj + CORR));
 285:../src/zxing_lib/zxing/common/detector/WhiteRectangleDetector.cpp ****     Ref<ResultPoint> pointB(new ResultPoint(zi + CORR, zj + CORR));
 286:../src/zxing_lib/zxing/common/detector/WhiteRectangleDetector.cpp ****     Ref<ResultPoint> pointC(new ResultPoint(xi - CORR, xj - CORR));
 287:../src/zxing_lib/zxing/common/detector/WhiteRectangleDetector.cpp ****     Ref<ResultPoint> pointD(new ResultPoint(yi + CORR, yj - CORR));
 288:../src/zxing_lib/zxing/common/detector/WhiteRectangleDetector.cpp **** 	  corners[0].reset(pointA);
 289:../src/zxing_lib/zxing/common/detector/WhiteRectangleDetector.cpp **** 	  corners[1].reset(pointB);
 290:../src/zxing_lib/zxing/common/detector/WhiteRectangleDetector.cpp **** 	  corners[2].reset(pointC);
 291:../src/zxing_lib/zxing/common/detector/WhiteRectangleDetector.cpp **** 	  corners[3].reset(pointD);
 292:../src/zxing_lib/zxing/common/detector/WhiteRectangleDetector.cpp ****   } else {
 293:../src/zxing_lib/zxing/common/detector/WhiteRectangleDetector.cpp ****     Ref<ResultPoint> pointA(new ResultPoint(ti + CORR, tj + CORR));
 294:../src/zxing_lib/zxing/common/detector/WhiteRectangleDetector.cpp ****     Ref<ResultPoint> pointB(new ResultPoint(zi + CORR, zj - CORR));
 295:../src/zxing_lib/zxing/common/detector/WhiteRectangleDetector.cpp ****     Ref<ResultPoint> pointC(new ResultPoint(xi - CORR, xj + CORR));
 296:../src/zxing_lib/zxing/common/detector/WhiteRectangleDetector.cpp ****     Ref<ResultPoint> pointD(new ResultPoint(yi - CORR, yj - CORR));
 297:../src/zxing_lib/zxing/common/detector/WhiteRectangleDetector.cpp **** 	  corners[0].reset(pointA);
 298:../src/zxing_lib/zxing/common/detector/WhiteRectangleDetector.cpp **** 	  corners[1].reset(pointB);
 299:../src/zxing_lib/zxing/common/detector/WhiteRectangleDetector.cpp **** 	  corners[2].reset(pointC);
 300:../src/zxing_lib/zxing/common/detector/WhiteRectangleDetector.cpp **** 	  corners[3].reset(pointD);
 301:../src/zxing_lib/zxing/common/detector/WhiteRectangleDetector.cpp ****   }
 302:../src/zxing_lib/zxing/common/detector/WhiteRectangleDetector.cpp ****   return corners;
 303:../src/zxing_lib/zxing/common/detector/WhiteRectangleDetector.cpp **** }
 304:../src/zxing_lib/zxing/common/detector/WhiteRectangleDetector.cpp **** 
 305:../src/zxing_lib/zxing/common/detector/WhiteRectangleDetector.cpp **** /**
 306:../src/zxing_lib/zxing/common/detector/WhiteRectangleDetector.cpp ****  * Determines whether a segment contains a black point
 307:../src/zxing_lib/zxing/common/detector/WhiteRectangleDetector.cpp ****  *
 308:../src/zxing_lib/zxing/common/detector/WhiteRectangleDetector.cpp ****  * @param a          min value of the scanned coordinate
 309:../src/zxing_lib/zxing/common/detector/WhiteRectangleDetector.cpp ****  * @param b          max value of the scanned coordinate
 310:../src/zxing_lib/zxing/common/detector/WhiteRectangleDetector.cpp ****  * @param fixed      value of fixed coordinate
 311:../src/zxing_lib/zxing/common/detector/WhiteRectangleDetector.cpp ****  * @param horizontal set to true if scan must be horizontal, false if vertical
 312:../src/zxing_lib/zxing/common/detector/WhiteRectangleDetector.cpp ****  * @return true if a black point has been found, else false.
 313:../src/zxing_lib/zxing/common/detector/WhiteRectangleDetector.cpp ****  */
 314:../src/zxing_lib/zxing/common/detector/WhiteRectangleDetector.cpp **** bool WhiteRectangleDetector::containsBlackPoint(int a, int b, int fixed, bool horizontal) {
 315:../src/zxing_lib/zxing/common/detector/WhiteRectangleDetector.cpp ****   if (horizontal) {
 316:../src/zxing_lib/zxing/common/detector/WhiteRectangleDetector.cpp ****     for (int x = a; x <= b; x++) {
 317:../src/zxing_lib/zxing/common/detector/WhiteRectangleDetector.cpp ****       if (image_->get(x, fixed)) {
 318:../src/zxing_lib/zxing/common/detector/WhiteRectangleDetector.cpp ****         return true;
 319:../src/zxing_lib/zxing/common/detector/WhiteRectangleDetector.cpp ****       }
 320:../src/zxing_lib/zxing/common/detector/WhiteRectangleDetector.cpp ****     }
 321:../src/zxing_lib/zxing/common/detector/WhiteRectangleDetector.cpp ****   } else {
 322:../src/zxing_lib/zxing/common/detector/WhiteRectangleDetector.cpp ****     for (int y = a; y <= b; y++) {
 323:../src/zxing_lib/zxing/common/detector/WhiteRectangleDetector.cpp ****       if (image_->get(fixed, y)) {
 324:../src/zxing_lib/zxing/common/detector/WhiteRectangleDetector.cpp ****         return true;
 325:../src/zxing_lib/zxing/common/detector/WhiteRectangleDetector.cpp ****       }
 326:../src/zxing_lib/zxing/common/detector/WhiteRectangleDetector.cpp ****     }
 327:../src/zxing_lib/zxing/common/detector/WhiteRectangleDetector.cpp ****   }
 328:../src/zxing_lib/zxing/common/detector/WhiteRectangleDetector.cpp **** 
 329:../src/zxing_lib/zxing/common/detector/WhiteRectangleDetector.cpp ****   return false;
 330:../src/zxing_lib/zxing/common/detector/WhiteRectangleDetector.cpp **** }
 340              		.loc 4 330 0
 341              		.cfi_startproc
 342              		@ args = 0, pretend = 0, frame = 0
 343              		@ frame_needed = 0, uses_anonymous_args = 0
 344              	.LVL24:
 345 0000 010050E3 		cmp	r0, #1
 346 0004 1EFF2F11 		bxne	lr
 347              		.loc 4 330 0 is_stmt 0 discriminator 1
 348 0008 FF3F0FE3 		movw	r3, #65535
 349 000c 030051E1 		cmp	r1, r3
 350 0010 1EFF2F11 		bxne	lr
 351              		.loc 4 330 0
 352 0014 10402DE9 		push	{r4, lr}
 353              		.cfi_def_cfa_offset 8
 354              		.cfi_offset 4, -8
 355              		.cfi_offset 14, -4
 356              		.file 5 "/home/zkmike/.local/share/renesas/e2_studio/toolchains/gcc_arm/gcc-arm-none-eabi-6-2017-q
   1:/home/zkmike/.local/share/renesas/e2_studio/toolchains/gcc_arm/gcc-arm-none-eabi-6-2017-q2-update/arm-none-eabi/include/c++/6.3.1/iostream **** // Standard iostream objects -*- C++ -*-
   2:/home/zkmike/.local/share/renesas/e2_studio/toolchains/gcc_arm/gcc-arm-none-eabi-6-2017-q2-update/arm-none-eabi/include/c++/6.3.1/iostream **** 
   3:/home/zkmike/.local/share/renesas/e2_studio/toolchains/gcc_arm/gcc-arm-none-eabi-6-2017-q2-update/arm-none-eabi/include/c++/6.3.1/iostream **** // Copyright (C) 1997-2016 Free Software Foundation, Inc.
   4:/home/zkmike/.local/share/renesas/e2_studio/toolchains/gcc_arm/gcc-arm-none-eabi-6-2017-q2-update/arm-none-eabi/include/c++/6.3.1/iostream **** //
   5:/home/zkmike/.local/share/renesas/e2_studio/toolchains/gcc_arm/gcc-arm-none-eabi-6-2017-q2-update/arm-none-eabi/include/c++/6.3.1/iostream **** // This file is part of the GNU ISO C++ Library.  This library is free
   6:/home/zkmike/.local/share/renesas/e2_studio/toolchains/gcc_arm/gcc-arm-none-eabi-6-2017-q2-update/arm-none-eabi/include/c++/6.3.1/iostream **** // software; you can redistribute it and/or modify it under the
   7:/home/zkmike/.local/share/renesas/e2_studio/toolchains/gcc_arm/gcc-arm-none-eabi-6-2017-q2-update/arm-none-eabi/include/c++/6.3.1/iostream **** // terms of the GNU General Public License as published by the
   8:/home/zkmike/.local/share/renesas/e2_studio/toolchains/gcc_arm/gcc-arm-none-eabi-6-2017-q2-update/arm-none-eabi/include/c++/6.3.1/iostream **** // Free Software Foundation; either version 3, or (at your option)
   9:/home/zkmike/.local/share/renesas/e2_studio/toolchains/gcc_arm/gcc-arm-none-eabi-6-2017-q2-update/arm-none-eabi/include/c++/6.3.1/iostream **** // any later version.
  10:/home/zkmike/.local/share/renesas/e2_studio/toolchains/gcc_arm/gcc-arm-none-eabi-6-2017-q2-update/arm-none-eabi/include/c++/6.3.1/iostream **** 
  11:/home/zkmike/.local/share/renesas/e2_studio/toolchains/gcc_arm/gcc-arm-none-eabi-6-2017-q2-update/arm-none-eabi/include/c++/6.3.1/iostream **** // This library is distributed in the hope that it will be useful,
  12:/home/zkmike/.local/share/renesas/e2_studio/toolchains/gcc_arm/gcc-arm-none-eabi-6-2017-q2-update/arm-none-eabi/include/c++/6.3.1/iostream **** // but WITHOUT ANY WARRANTY; without even the implied warranty of
  13:/home/zkmike/.local/share/renesas/e2_studio/toolchains/gcc_arm/gcc-arm-none-eabi-6-2017-q2-update/arm-none-eabi/include/c++/6.3.1/iostream **** // MERCHANTABILITY or FITNESS FOR A PARTICULAR PURPOSE.  See the
  14:/home/zkmike/.local/share/renesas/e2_studio/toolchains/gcc_arm/gcc-arm-none-eabi-6-2017-q2-update/arm-none-eabi/include/c++/6.3.1/iostream **** // GNU General Public License for more details.
  15:/home/zkmike/.local/share/renesas/e2_studio/toolchains/gcc_arm/gcc-arm-none-eabi-6-2017-q2-update/arm-none-eabi/include/c++/6.3.1/iostream **** 
  16:/home/zkmike/.local/share/renesas/e2_studio/toolchains/gcc_arm/gcc-arm-none-eabi-6-2017-q2-update/arm-none-eabi/include/c++/6.3.1/iostream **** // Under Section 7 of GPL version 3, you are granted additional
  17:/home/zkmike/.local/share/renesas/e2_studio/toolchains/gcc_arm/gcc-arm-none-eabi-6-2017-q2-update/arm-none-eabi/include/c++/6.3.1/iostream **** // permissions described in the GCC Runtime Library Exception, version
  18:/home/zkmike/.local/share/renesas/e2_studio/toolchains/gcc_arm/gcc-arm-none-eabi-6-2017-q2-update/arm-none-eabi/include/c++/6.3.1/iostream **** // 3.1, as published by the Free Software Foundation.
  19:/home/zkmike/.local/share/renesas/e2_studio/toolchains/gcc_arm/gcc-arm-none-eabi-6-2017-q2-update/arm-none-eabi/include/c++/6.3.1/iostream **** 
  20:/home/zkmike/.local/share/renesas/e2_studio/toolchains/gcc_arm/gcc-arm-none-eabi-6-2017-q2-update/arm-none-eabi/include/c++/6.3.1/iostream **** // You should have received a copy of the GNU General Public License and
  21:/home/zkmike/.local/share/renesas/e2_studio/toolchains/gcc_arm/gcc-arm-none-eabi-6-2017-q2-update/arm-none-eabi/include/c++/6.3.1/iostream **** // a copy of the GCC Runtime Library Exception along with this program;
  22:/home/zkmike/.local/share/renesas/e2_studio/toolchains/gcc_arm/gcc-arm-none-eabi-6-2017-q2-update/arm-none-eabi/include/c++/6.3.1/iostream **** // see the files COPYING3 and COPYING.RUNTIME respectively.  If not, see
  23:/home/zkmike/.local/share/renesas/e2_studio/toolchains/gcc_arm/gcc-arm-none-eabi-6-2017-q2-update/arm-none-eabi/include/c++/6.3.1/iostream **** // <http://www.gnu.org/licenses/>.
  24:/home/zkmike/.local/share/renesas/e2_studio/toolchains/gcc_arm/gcc-arm-none-eabi-6-2017-q2-update/arm-none-eabi/include/c++/6.3.1/iostream **** 
  25:/home/zkmike/.local/share/renesas/e2_studio/toolchains/gcc_arm/gcc-arm-none-eabi-6-2017-q2-update/arm-none-eabi/include/c++/6.3.1/iostream **** /** @file include/iostream
  26:/home/zkmike/.local/share/renesas/e2_studio/toolchains/gcc_arm/gcc-arm-none-eabi-6-2017-q2-update/arm-none-eabi/include/c++/6.3.1/iostream ****  *  This is a Standard C++ Library header.
  27:/home/zkmike/.local/share/renesas/e2_studio/toolchains/gcc_arm/gcc-arm-none-eabi-6-2017-q2-update/arm-none-eabi/include/c++/6.3.1/iostream ****  */
  28:/home/zkmike/.local/share/renesas/e2_studio/toolchains/gcc_arm/gcc-arm-none-eabi-6-2017-q2-update/arm-none-eabi/include/c++/6.3.1/iostream **** 
  29:/home/zkmike/.local/share/renesas/e2_studio/toolchains/gcc_arm/gcc-arm-none-eabi-6-2017-q2-update/arm-none-eabi/include/c++/6.3.1/iostream **** //
  30:/home/zkmike/.local/share/renesas/e2_studio/toolchains/gcc_arm/gcc-arm-none-eabi-6-2017-q2-update/arm-none-eabi/include/c++/6.3.1/iostream **** // ISO C++ 14882: 27.3  Standard iostream objects
  31:/home/zkmike/.local/share/renesas/e2_studio/toolchains/gcc_arm/gcc-arm-none-eabi-6-2017-q2-update/arm-none-eabi/include/c++/6.3.1/iostream **** //
  32:/home/zkmike/.local/share/renesas/e2_studio/toolchains/gcc_arm/gcc-arm-none-eabi-6-2017-q2-update/arm-none-eabi/include/c++/6.3.1/iostream **** 
  33:/home/zkmike/.local/share/renesas/e2_studio/toolchains/gcc_arm/gcc-arm-none-eabi-6-2017-q2-update/arm-none-eabi/include/c++/6.3.1/iostream **** #ifndef _GLIBCXX_IOSTREAM
  34:/home/zkmike/.local/share/renesas/e2_studio/toolchains/gcc_arm/gcc-arm-none-eabi-6-2017-q2-update/arm-none-eabi/include/c++/6.3.1/iostream **** #define _GLIBCXX_IOSTREAM 1
  35:/home/zkmike/.local/share/renesas/e2_studio/toolchains/gcc_arm/gcc-arm-none-eabi-6-2017-q2-update/arm-none-eabi/include/c++/6.3.1/iostream **** 
  36:/home/zkmike/.local/share/renesas/e2_studio/toolchains/gcc_arm/gcc-arm-none-eabi-6-2017-q2-update/arm-none-eabi/include/c++/6.3.1/iostream **** #pragma GCC system_header
  37:/home/zkmike/.local/share/renesas/e2_studio/toolchains/gcc_arm/gcc-arm-none-eabi-6-2017-q2-update/arm-none-eabi/include/c++/6.3.1/iostream **** 
  38:/home/zkmike/.local/share/renesas/e2_studio/toolchains/gcc_arm/gcc-arm-none-eabi-6-2017-q2-update/arm-none-eabi/include/c++/6.3.1/iostream **** #include <bits/c++config.h>
  39:/home/zkmike/.local/share/renesas/e2_studio/toolchains/gcc_arm/gcc-arm-none-eabi-6-2017-q2-update/arm-none-eabi/include/c++/6.3.1/iostream **** #include <ostream>
  40:/home/zkmike/.local/share/renesas/e2_studio/toolchains/gcc_arm/gcc-arm-none-eabi-6-2017-q2-update/arm-none-eabi/include/c++/6.3.1/iostream **** #include <istream>
  41:/home/zkmike/.local/share/renesas/e2_studio/toolchains/gcc_arm/gcc-arm-none-eabi-6-2017-q2-update/arm-none-eabi/include/c++/6.3.1/iostream **** 
  42:/home/zkmike/.local/share/renesas/e2_studio/toolchains/gcc_arm/gcc-arm-none-eabi-6-2017-q2-update/arm-none-eabi/include/c++/6.3.1/iostream **** namespace std _GLIBCXX_VISIBILITY(default)
  43:/home/zkmike/.local/share/renesas/e2_studio/toolchains/gcc_arm/gcc-arm-none-eabi-6-2017-q2-update/arm-none-eabi/include/c++/6.3.1/iostream **** {
  44:/home/zkmike/.local/share/renesas/e2_studio/toolchains/gcc_arm/gcc-arm-none-eabi-6-2017-q2-update/arm-none-eabi/include/c++/6.3.1/iostream **** _GLIBCXX_BEGIN_NAMESPACE_VERSION
  45:/home/zkmike/.local/share/renesas/e2_studio/toolchains/gcc_arm/gcc-arm-none-eabi-6-2017-q2-update/arm-none-eabi/include/c++/6.3.1/iostream **** 
  46:/home/zkmike/.local/share/renesas/e2_studio/toolchains/gcc_arm/gcc-arm-none-eabi-6-2017-q2-update/arm-none-eabi/include/c++/6.3.1/iostream ****   /**
  47:/home/zkmike/.local/share/renesas/e2_studio/toolchains/gcc_arm/gcc-arm-none-eabi-6-2017-q2-update/arm-none-eabi/include/c++/6.3.1/iostream ****    *  @name Standard Stream Objects
  48:/home/zkmike/.local/share/renesas/e2_studio/toolchains/gcc_arm/gcc-arm-none-eabi-6-2017-q2-update/arm-none-eabi/include/c++/6.3.1/iostream ****    *
  49:/home/zkmike/.local/share/renesas/e2_studio/toolchains/gcc_arm/gcc-arm-none-eabi-6-2017-q2-update/arm-none-eabi/include/c++/6.3.1/iostream ****    *  The &lt;iostream&gt; header declares the eight <em>standard stream
  50:/home/zkmike/.local/share/renesas/e2_studio/toolchains/gcc_arm/gcc-arm-none-eabi-6-2017-q2-update/arm-none-eabi/include/c++/6.3.1/iostream ****    *  objects</em>.  For other declarations, see
  51:/home/zkmike/.local/share/renesas/e2_studio/toolchains/gcc_arm/gcc-arm-none-eabi-6-2017-q2-update/arm-none-eabi/include/c++/6.3.1/iostream ****    *  http://gcc.gnu.org/onlinedocs/libstdc++/manual/io.html
  52:/home/zkmike/.local/share/renesas/e2_studio/toolchains/gcc_arm/gcc-arm-none-eabi-6-2017-q2-update/arm-none-eabi/include/c++/6.3.1/iostream ****    *  and the @link iosfwd I/O forward declarations @endlink
  53:/home/zkmike/.local/share/renesas/e2_studio/toolchains/gcc_arm/gcc-arm-none-eabi-6-2017-q2-update/arm-none-eabi/include/c++/6.3.1/iostream ****    *
  54:/home/zkmike/.local/share/renesas/e2_studio/toolchains/gcc_arm/gcc-arm-none-eabi-6-2017-q2-update/arm-none-eabi/include/c++/6.3.1/iostream ****    *  They are required by default to cooperate with the global C
  55:/home/zkmike/.local/share/renesas/e2_studio/toolchains/gcc_arm/gcc-arm-none-eabi-6-2017-q2-update/arm-none-eabi/include/c++/6.3.1/iostream ****    *  library's @c FILE streams, and to be available during program
  56:/home/zkmike/.local/share/renesas/e2_studio/toolchains/gcc_arm/gcc-arm-none-eabi-6-2017-q2-update/arm-none-eabi/include/c++/6.3.1/iostream ****    *  startup and termination. For more information, see the section of the
  57:/home/zkmike/.local/share/renesas/e2_studio/toolchains/gcc_arm/gcc-arm-none-eabi-6-2017-q2-update/arm-none-eabi/include/c++/6.3.1/iostream ****    *  manual linked to above.
  58:/home/zkmike/.local/share/renesas/e2_studio/toolchains/gcc_arm/gcc-arm-none-eabi-6-2017-q2-update/arm-none-eabi/include/c++/6.3.1/iostream ****   */
  59:/home/zkmike/.local/share/renesas/e2_studio/toolchains/gcc_arm/gcc-arm-none-eabi-6-2017-q2-update/arm-none-eabi/include/c++/6.3.1/iostream ****   //@{
  60:/home/zkmike/.local/share/renesas/e2_studio/toolchains/gcc_arm/gcc-arm-none-eabi-6-2017-q2-update/arm-none-eabi/include/c++/6.3.1/iostream ****   extern istream cin;		/// Linked to standard input
  61:/home/zkmike/.local/share/renesas/e2_studio/toolchains/gcc_arm/gcc-arm-none-eabi-6-2017-q2-update/arm-none-eabi/include/c++/6.3.1/iostream ****   extern ostream cout;		/// Linked to standard output
  62:/home/zkmike/.local/share/renesas/e2_studio/toolchains/gcc_arm/gcc-arm-none-eabi-6-2017-q2-update/arm-none-eabi/include/c++/6.3.1/iostream ****   extern ostream cerr;		/// Linked to standard error (unbuffered)
  63:/home/zkmike/.local/share/renesas/e2_studio/toolchains/gcc_arm/gcc-arm-none-eabi-6-2017-q2-update/arm-none-eabi/include/c++/6.3.1/iostream ****   extern ostream clog;		/// Linked to standard error (buffered)
  64:/home/zkmike/.local/share/renesas/e2_studio/toolchains/gcc_arm/gcc-arm-none-eabi-6-2017-q2-update/arm-none-eabi/include/c++/6.3.1/iostream **** 
  65:/home/zkmike/.local/share/renesas/e2_studio/toolchains/gcc_arm/gcc-arm-none-eabi-6-2017-q2-update/arm-none-eabi/include/c++/6.3.1/iostream **** #ifdef _GLIBCXX_USE_WCHAR_T
  66:/home/zkmike/.local/share/renesas/e2_studio/toolchains/gcc_arm/gcc-arm-none-eabi-6-2017-q2-update/arm-none-eabi/include/c++/6.3.1/iostream ****   extern wistream wcin;		/// Linked to standard input
  67:/home/zkmike/.local/share/renesas/e2_studio/toolchains/gcc_arm/gcc-arm-none-eabi-6-2017-q2-update/arm-none-eabi/include/c++/6.3.1/iostream ****   extern wostream wcout;	/// Linked to standard output
  68:/home/zkmike/.local/share/renesas/e2_studio/toolchains/gcc_arm/gcc-arm-none-eabi-6-2017-q2-update/arm-none-eabi/include/c++/6.3.1/iostream ****   extern wostream wcerr;	/// Linked to standard error (unbuffered)
  69:/home/zkmike/.local/share/renesas/e2_studio/toolchains/gcc_arm/gcc-arm-none-eabi-6-2017-q2-update/arm-none-eabi/include/c++/6.3.1/iostream ****   extern wostream wclog;	/// Linked to standard error (buffered)
  70:/home/zkmike/.local/share/renesas/e2_studio/toolchains/gcc_arm/gcc-arm-none-eabi-6-2017-q2-update/arm-none-eabi/include/c++/6.3.1/iostream **** #endif
  71:/home/zkmike/.local/share/renesas/e2_studio/toolchains/gcc_arm/gcc-arm-none-eabi-6-2017-q2-update/arm-none-eabi/include/c++/6.3.1/iostream ****   //@}
  72:/home/zkmike/.local/share/renesas/e2_studio/toolchains/gcc_arm/gcc-arm-none-eabi-6-2017-q2-update/arm-none-eabi/include/c++/6.3.1/iostream **** 
  73:/home/zkmike/.local/share/renesas/e2_studio/toolchains/gcc_arm/gcc-arm-none-eabi-6-2017-q2-update/arm-none-eabi/include/c++/6.3.1/iostream ****   // For construction of filebuffers for cout, cin, cerr, clog et. al.
  74:/home/zkmike/.local/share/renesas/e2_studio/toolchains/gcc_arm/gcc-arm-none-eabi-6-2017-q2-update/arm-none-eabi/include/c++/6.3.1/iostream ****   static ios_base::Init __ioinit;
 357              		.loc 5 74 0 is_stmt 1
 358 0018 004000E3 		movw	r4, #:lower16:.LANCHOR0
 359 001c 004040E3 		movt	r4, #:upper16:.LANCHOR0
 360 0020 0400A0E1 		mov	r0, r4
 361              	.LVL25:
 362 0024 FEFFFFEB 		bl	_ZNSt8ios_base4InitC1Ev
 363              	.LVL26:
 364 0028 002000E3 		movw	r2, #:lower16:__dso_handle
 365 002c 002040E3 		movt	r2, #:upper16:__dso_handle
 366 0030 001000E3 		movw	r1, #:lower16:_ZNSt8ios_base4InitD1Ev
 367 0034 001040E3 		movt	r1, #:upper16:_ZNSt8ios_base4InitD1Ev
 368 0038 0400A0E1 		mov	r0, r4
 369 003c FEFFFFEB 		bl	__aeabi_atexit
 370              	.LVL27:
 371 0040 1080BDE8 		pop	{r4, pc}
 372              		.cfi_endproc
 373              	.LFE2869:
 374              		.cantunwind
 375              		.fnend
 377              		.section	.text._ZN5zxing17NotFoundExceptionD2Ev,"axG",%progbits,_ZN5zxing17NotFoundExceptionD5Ev,c
 378              		.align	2
 379              		.weak	_ZN5zxing17NotFoundExceptionD2Ev
 380              		.syntax unified
 381              		.arm
 382              		.fpu neon
 384              	_ZN5zxing17NotFoundExceptionD2Ev:
 385              		.fnstart
 386              	.LFB959:
 387              		.file 6 "/home/zkmike/workspace/RZA2M/rza2m_2d_barcode_sample_freertos_gcc/src/zxing_lib/zxing/Not
   1:/home/zkmike/workspace/RZA2M/rza2m_2d_barcode_sample_freertos_gcc/src/zxing_lib/zxing/NotFoundException.h **** // -*- mode:c++; tab-width:2; indent-tabs-mode:nil; c-basic-offset:2 -*-
   2:/home/zkmike/workspace/RZA2M/rza2m_2d_barcode_sample_freertos_gcc/src/zxing_lib/zxing/NotFoundException.h **** 
   3:/home/zkmike/workspace/RZA2M/rza2m_2d_barcode_sample_freertos_gcc/src/zxing_lib/zxing/NotFoundException.h **** #ifndef __NOT_FOUND_EXCEPTION_H__
   4:/home/zkmike/workspace/RZA2M/rza2m_2d_barcode_sample_freertos_gcc/src/zxing_lib/zxing/NotFoundException.h **** #define __NOT_FOUND_EXCEPTION_H__
   5:/home/zkmike/workspace/RZA2M/rza2m_2d_barcode_sample_freertos_gcc/src/zxing_lib/zxing/NotFoundException.h **** 
   6:/home/zkmike/workspace/RZA2M/rza2m_2d_barcode_sample_freertos_gcc/src/zxing_lib/zxing/NotFoundException.h **** /*
   7:/home/zkmike/workspace/RZA2M/rza2m_2d_barcode_sample_freertos_gcc/src/zxing_lib/zxing/NotFoundException.h ****  * Copyright 20011 ZXing authors
   8:/home/zkmike/workspace/RZA2M/rza2m_2d_barcode_sample_freertos_gcc/src/zxing_lib/zxing/NotFoundException.h ****  *
   9:/home/zkmike/workspace/RZA2M/rza2m_2d_barcode_sample_freertos_gcc/src/zxing_lib/zxing/NotFoundException.h ****  * Licensed under the Apache License, Version 2.0 (the "License");
  10:/home/zkmike/workspace/RZA2M/rza2m_2d_barcode_sample_freertos_gcc/src/zxing_lib/zxing/NotFoundException.h ****  * you may not use this file except in compliance with the License.
  11:/home/zkmike/workspace/RZA2M/rza2m_2d_barcode_sample_freertos_gcc/src/zxing_lib/zxing/NotFoundException.h ****  * You may obtain a copy of the License at
  12:/home/zkmike/workspace/RZA2M/rza2m_2d_barcode_sample_freertos_gcc/src/zxing_lib/zxing/NotFoundException.h ****  *
  13:/home/zkmike/workspace/RZA2M/rza2m_2d_barcode_sample_freertos_gcc/src/zxing_lib/zxing/NotFoundException.h ****  *      http://www.apache.org/licenses/LICENSE-2.0
  14:/home/zkmike/workspace/RZA2M/rza2m_2d_barcode_sample_freertos_gcc/src/zxing_lib/zxing/NotFoundException.h ****  *
  15:/home/zkmike/workspace/RZA2M/rza2m_2d_barcode_sample_freertos_gcc/src/zxing_lib/zxing/NotFoundException.h ****  * Unless required by applicable law or agreed to in writing, software
  16:/home/zkmike/workspace/RZA2M/rza2m_2d_barcode_sample_freertos_gcc/src/zxing_lib/zxing/NotFoundException.h ****  * distributed under the License is distributed on an "AS IS" BASIS,
  17:/home/zkmike/workspace/RZA2M/rza2m_2d_barcode_sample_freertos_gcc/src/zxing_lib/zxing/NotFoundException.h ****  * WITHOUT WARRANTIES OR CONDITIONS OF ANY KIND, either express or implied.
  18:/home/zkmike/workspace/RZA2M/rza2m_2d_barcode_sample_freertos_gcc/src/zxing_lib/zxing/NotFoundException.h ****  * See the License for the specific language governing permissions and
  19:/home/zkmike/workspace/RZA2M/rza2m_2d_barcode_sample_freertos_gcc/src/zxing_lib/zxing/NotFoundException.h ****  * limitations under the License.
  20:/home/zkmike/workspace/RZA2M/rza2m_2d_barcode_sample_freertos_gcc/src/zxing_lib/zxing/NotFoundException.h ****  */
  21:/home/zkmike/workspace/RZA2M/rza2m_2d_barcode_sample_freertos_gcc/src/zxing_lib/zxing/NotFoundException.h **** 
  22:/home/zkmike/workspace/RZA2M/rza2m_2d_barcode_sample_freertos_gcc/src/zxing_lib/zxing/NotFoundException.h **** #include <zxing/ReaderException.h>
  23:/home/zkmike/workspace/RZA2M/rza2m_2d_barcode_sample_freertos_gcc/src/zxing_lib/zxing/NotFoundException.h **** 
  24:/home/zkmike/workspace/RZA2M/rza2m_2d_barcode_sample_freertos_gcc/src/zxing_lib/zxing/NotFoundException.h **** namespace zxing {
  25:/home/zkmike/workspace/RZA2M/rza2m_2d_barcode_sample_freertos_gcc/src/zxing_lib/zxing/NotFoundException.h **** 
  26:/home/zkmike/workspace/RZA2M/rza2m_2d_barcode_sample_freertos_gcc/src/zxing_lib/zxing/NotFoundException.h **** class NotFoundException : public ReaderException {
  27:/home/zkmike/workspace/RZA2M/rza2m_2d_barcode_sample_freertos_gcc/src/zxing_lib/zxing/NotFoundException.h **** public:
  28:/home/zkmike/workspace/RZA2M/rza2m_2d_barcode_sample_freertos_gcc/src/zxing_lib/zxing/NotFoundException.h ****   NotFoundException() throw() {}
  29:/home/zkmike/workspace/RZA2M/rza2m_2d_barcode_sample_freertos_gcc/src/zxing_lib/zxing/NotFoundException.h ****   NotFoundException(const char *msg) throw() : ReaderException(msg) {}
  30:/home/zkmike/workspace/RZA2M/rza2m_2d_barcode_sample_freertos_gcc/src/zxing_lib/zxing/NotFoundException.h ****   ~NotFoundException() throw() {}
 388              		.loc 6 30 0
 389              		.cfi_startproc
 390              		.cfi_personality 0,__gxx_personality_v0
 391              		.cfi_lsda 0,.LLSDA959
 392              		@ args = 0, pretend = 0, frame = 0
 393              		@ frame_needed = 0, uses_anonymous_args = 0
 394              	.LVL28:
 395 0000 70402DE9 		push	{r4, r5, r6, lr}
 396              		.save {r4, r5, r6, lr}
 397              		.cfi_def_cfa_offset 16
 398              		.cfi_offset 4, -16
 399              		.cfi_offset 5, -12
 400              		.cfi_offset 6, -8
 401              		.cfi_offset 14, -4
 402 0004 0040A0E1 		mov	r4, r0
 403              	.LVL29:
 404              	.LBB708:
 405              	.LBB709:
 406              	.LBB710:
 407              	.LBB711:
 408              	.LBB712:
  37:/home/zkmike/workspace/RZA2M/rza2m_2d_barcode_sample_freertos_gcc/src/zxing_lib/zxing/Exception.h ****     if(message) {
 409              		.loc 1 37 0
 410 0008 48309FE5 		ldr	r3, .L37
 411 000c 003080E5 		str	r3, [r0]
  38:/home/zkmike/workspace/RZA2M/rza2m_2d_barcode_sample_freertos_gcc/src/zxing_lib/zxing/Exception.h ****       deleteMessage();
 412              		.loc 1 38 0
 413 0010 043090E5 		ldr	r3, [r0, #4]
 414 0014 000053E3 		cmp	r3, #0
 415 0018 0A00000A 		beq	.L31
 416              	.LEHB2:
  39:/home/zkmike/workspace/RZA2M/rza2m_2d_barcode_sample_freertos_gcc/src/zxing_lib/zxing/Exception.h ****     }
 417              		.loc 1 39 0
 418 001c FEFFFFEB 		bl	_ZN5zxing9Exception13deleteMessageEv
 419              	.LVL30:
 420              	.LEHE2:
 421 0020 080000EA 		b	.L31
 422              	.L34:
 423 0024 0050A0E1 		mov	r5, r0
 424 0028 0160A0E1 		mov	r6, r1
  37:/home/zkmike/workspace/RZA2M/rza2m_2d_barcode_sample_freertos_gcc/src/zxing_lib/zxing/Exception.h ****     if(message) {
 425              		.loc 1 37 0
 426 002c 0400A0E1 		mov	r0, r4
 427 0030 FEFFFFEB 		bl	_ZNSt9exceptionD2Ev
 428              	.LVL31:
 429 0034 010076E3 		cmn	r6, #1
 430 0038 0000000A 		beq	.L33
 431              	.LEHB3:
 432 003c FEFFFFEB 		bl	__cxa_end_cleanup
 433              	.LVL32:
 434              	.L33:
 435              	.LBE712:
 436 0040 0500A0E1 		mov	r0, r5
 437 0044 FEFFFFEB 		bl	__cxa_call_unexpected
 438              	.LVL33:
 439              	.LEHE3:
 440              	.L31:
 441              	.LBB713:
 442 0048 0400A0E1 		mov	r0, r4
 443 004c FEFFFFEB 		bl	_ZNSt9exceptionD2Ev
 444              	.LVL34:
 445              	.LBE713:
 446              	.LBE711:
 447              	.LBE710:
 448              	.LBE709:
 449              	.LBE708:
 450              		.loc 6 30 0
 451 0050 0400A0E1 		mov	r0, r4
 452 0054 7080BDE8 		pop	{r4, r5, r6, pc}
 453              	.L38:
 454              		.align	2
 455              	.L37:
 456 0058 08000000 		.word	_ZTVN5zxing9ExceptionE+8
 457              		.cfi_endproc
 458              	.LFE959:
 459              		.personality	__gxx_personality_v0
 460              		.handlerdata
 461              		.align	2
 462              	.LLSDA959:
 463 0008 FF       		.byte	0xff
 464 0009 10       		.byte	0x10
 465 000a 11       		.uleb128 .LLSDATT959-.LLSDATTD959
 466              	.LLSDATTD959:
 467 000b 01       		.byte	0x1
 468 000c 08       		.uleb128 .LLSDACSE959-.LLSDACSB959
 469              	.LLSDACSB959:
 470 000d 1C       		.uleb128 .LEHB2-.LFB959
 471 000e 04       		.uleb128 .LEHE2-.LEHB2
 472 000f 24       		.uleb128 .L34-.LFB959
 473 0010 03       		.uleb128 0x3
 474 0011 3C       		.uleb128 .LEHB3-.LFB959
 475 0012 0C       		.uleb128 .LEHE3-.LEHB3
 476 0013 00       		.uleb128 0
 477 0014 00       		.uleb128 0
 478              	.LLSDACSE959:
 479 0015 7F       		.byte	0x7f
 480 0016 00       		.byte	0
 481 0017 00       		.byte	0
 482 0018 7D       		.byte	0x7d
 483 0019 000000   		.align	2
 484              	.LLSDATT959:
 485 001c 00000000 		.word	0
 486              		.section	.text._ZN5zxing17NotFoundExceptionD2Ev,"axG",%progbits,_ZN5zxing17NotFoundExceptionD5Ev,c
 487              		.fnend
 489              		.weak	_ZN5zxing17NotFoundExceptionD1Ev
 490              		.set	_ZN5zxing17NotFoundExceptionD1Ev,_ZN5zxing17NotFoundExceptionD2Ev
 491              		.section	.text._ZN5zxing15ReaderExceptionD2Ev,"axG",%progbits,_ZN5zxing15ReaderExceptionD5Ev,comda
 492              		.align	2
 493              		.weak	_ZN5zxing15ReaderExceptionD2Ev
 494              		.syntax unified
 495              		.arm
 496              		.fpu neon
 498              	_ZN5zxing15ReaderExceptionD2Ev:
 499              		.fnstart
 500              	.LFB949:
 501              		.file 7 "/home/zkmike/workspace/RZA2M/rza2m_2d_barcode_sample_freertos_gcc/src/zxing_lib/zxing/Rea
   1:/home/zkmike/workspace/RZA2M/rza2m_2d_barcode_sample_freertos_gcc/src/zxing_lib/zxing/ReaderException.h **** // -*- mode:c++; tab-width:2; indent-tabs-mode:nil; c-basic-offset:2 -*-
   2:/home/zkmike/workspace/RZA2M/rza2m_2d_barcode_sample_freertos_gcc/src/zxing_lib/zxing/ReaderException.h **** #ifndef __READER_EXCEPTION_H__
   3:/home/zkmike/workspace/RZA2M/rza2m_2d_barcode_sample_freertos_gcc/src/zxing_lib/zxing/ReaderException.h **** #define __READER_EXCEPTION_H__
   4:/home/zkmike/workspace/RZA2M/rza2m_2d_barcode_sample_freertos_gcc/src/zxing_lib/zxing/ReaderException.h **** 
   5:/home/zkmike/workspace/RZA2M/rza2m_2d_barcode_sample_freertos_gcc/src/zxing_lib/zxing/ReaderException.h **** /*
   6:/home/zkmike/workspace/RZA2M/rza2m_2d_barcode_sample_freertos_gcc/src/zxing_lib/zxing/ReaderException.h ****  *  ReaderException.h
   7:/home/zkmike/workspace/RZA2M/rza2m_2d_barcode_sample_freertos_gcc/src/zxing_lib/zxing/ReaderException.h ****  *  zxing
   8:/home/zkmike/workspace/RZA2M/rza2m_2d_barcode_sample_freertos_gcc/src/zxing_lib/zxing/ReaderException.h ****  *
   9:/home/zkmike/workspace/RZA2M/rza2m_2d_barcode_sample_freertos_gcc/src/zxing_lib/zxing/ReaderException.h ****  *  Copyright 2010 ZXing authors All rights reserved.
  10:/home/zkmike/workspace/RZA2M/rza2m_2d_barcode_sample_freertos_gcc/src/zxing_lib/zxing/ReaderException.h ****  *
  11:/home/zkmike/workspace/RZA2M/rza2m_2d_barcode_sample_freertos_gcc/src/zxing_lib/zxing/ReaderException.h ****  * Licensed under the Apache License, Version 2.0 (the "License");
  12:/home/zkmike/workspace/RZA2M/rza2m_2d_barcode_sample_freertos_gcc/src/zxing_lib/zxing/ReaderException.h ****  * you may not use this file except in compliance with the License.
  13:/home/zkmike/workspace/RZA2M/rza2m_2d_barcode_sample_freertos_gcc/src/zxing_lib/zxing/ReaderException.h ****  * You may obtain a copy of the License at
  14:/home/zkmike/workspace/RZA2M/rza2m_2d_barcode_sample_freertos_gcc/src/zxing_lib/zxing/ReaderException.h ****  *
  15:/home/zkmike/workspace/RZA2M/rza2m_2d_barcode_sample_freertos_gcc/src/zxing_lib/zxing/ReaderException.h ****  *      http://www.apache.org/licenses/LICENSE-2.0
  16:/home/zkmike/workspace/RZA2M/rza2m_2d_barcode_sample_freertos_gcc/src/zxing_lib/zxing/ReaderException.h ****  *
  17:/home/zkmike/workspace/RZA2M/rza2m_2d_barcode_sample_freertos_gcc/src/zxing_lib/zxing/ReaderException.h ****  * Unless required by applicable law or agreed to in writing, software
  18:/home/zkmike/workspace/RZA2M/rza2m_2d_barcode_sample_freertos_gcc/src/zxing_lib/zxing/ReaderException.h ****  * distributed under the License is distributed on an "AS IS" BASIS,
  19:/home/zkmike/workspace/RZA2M/rza2m_2d_barcode_sample_freertos_gcc/src/zxing_lib/zxing/ReaderException.h ****  * WITHOUT WARRANTIES OR CONDITIONS OF ANY KIND, either express or implied.
  20:/home/zkmike/workspace/RZA2M/rza2m_2d_barcode_sample_freertos_gcc/src/zxing_lib/zxing/ReaderException.h ****  * See the License for the specific language governing permissions and
  21:/home/zkmike/workspace/RZA2M/rza2m_2d_barcode_sample_freertos_gcc/src/zxing_lib/zxing/ReaderException.h ****  * limitations under the License.
  22:/home/zkmike/workspace/RZA2M/rza2m_2d_barcode_sample_freertos_gcc/src/zxing_lib/zxing/ReaderException.h ****  */
  23:/home/zkmike/workspace/RZA2M/rza2m_2d_barcode_sample_freertos_gcc/src/zxing_lib/zxing/ReaderException.h **** 
  24:/home/zkmike/workspace/RZA2M/rza2m_2d_barcode_sample_freertos_gcc/src/zxing_lib/zxing/ReaderException.h **** #include <zxing/Exception.h>
  25:/home/zkmike/workspace/RZA2M/rza2m_2d_barcode_sample_freertos_gcc/src/zxing_lib/zxing/ReaderException.h **** 
  26:/home/zkmike/workspace/RZA2M/rza2m_2d_barcode_sample_freertos_gcc/src/zxing_lib/zxing/ReaderException.h **** namespace zxing {
  27:/home/zkmike/workspace/RZA2M/rza2m_2d_barcode_sample_freertos_gcc/src/zxing_lib/zxing/ReaderException.h **** 
  28:/home/zkmike/workspace/RZA2M/rza2m_2d_barcode_sample_freertos_gcc/src/zxing_lib/zxing/ReaderException.h **** class ReaderException : public Exception {
  29:/home/zkmike/workspace/RZA2M/rza2m_2d_barcode_sample_freertos_gcc/src/zxing_lib/zxing/ReaderException.h ****  public:
  30:/home/zkmike/workspace/RZA2M/rza2m_2d_barcode_sample_freertos_gcc/src/zxing_lib/zxing/ReaderException.h ****   ReaderException() throw() {}
  31:/home/zkmike/workspace/RZA2M/rza2m_2d_barcode_sample_freertos_gcc/src/zxing_lib/zxing/ReaderException.h ****   ReaderException(char const* msg) throw() : Exception(msg) {}
  32:/home/zkmike/workspace/RZA2M/rza2m_2d_barcode_sample_freertos_gcc/src/zxing_lib/zxing/ReaderException.h ****   ~ReaderException() throw() {}
 502              		.loc 7 32 0
 503              		.cfi_startproc
 504              		.cfi_personality 0,__gxx_personality_v0
 505              		.cfi_lsda 0,.LLSDA949
 506              		@ args = 0, pretend = 0, frame = 0
 507              		@ frame_needed = 0, uses_anonymous_args = 0
 508              	.LVL35:
 509 0000 70402DE9 		push	{r4, r5, r6, lr}
 510              		.save {r4, r5, r6, lr}
 511              		.cfi_def_cfa_offset 16
 512              		.cfi_offset 4, -16
 513              		.cfi_offset 5, -12
 514              		.cfi_offset 6, -8
 515              		.cfi_offset 14, -4
 516 0004 0040A0E1 		mov	r4, r0
 517              	.LVL36:
 518              	.LBB718:
 519              	.LBB719:
 520              	.LBB720:
 521              	.LBB721:
  37:/home/zkmike/workspace/RZA2M/rza2m_2d_barcode_sample_freertos_gcc/src/zxing_lib/zxing/Exception.h ****     if(message) {
 522              		.loc 1 37 0
 523 0008 48309FE5 		ldr	r3, .L46
 524 000c 003080E5 		str	r3, [r0]
  38:/home/zkmike/workspace/RZA2M/rza2m_2d_barcode_sample_freertos_gcc/src/zxing_lib/zxing/Exception.h ****       deleteMessage();
 525              		.loc 1 38 0
 526 0010 043090E5 		ldr	r3, [r0, #4]
 527 0014 000053E3 		cmp	r3, #0
 528 0018 0A00000A 		beq	.L40
 529              	.LEHB4:
  39:/home/zkmike/workspace/RZA2M/rza2m_2d_barcode_sample_freertos_gcc/src/zxing_lib/zxing/Exception.h ****     }
 530              		.loc 1 39 0
 531 001c FEFFFFEB 		bl	_ZN5zxing9Exception13deleteMessageEv
 532              	.LVL37:
 533              	.LEHE4:
 534 0020 080000EA 		b	.L40
 535              	.L43:
 536 0024 0050A0E1 		mov	r5, r0
 537 0028 0160A0E1 		mov	r6, r1
  37:/home/zkmike/workspace/RZA2M/rza2m_2d_barcode_sample_freertos_gcc/src/zxing_lib/zxing/Exception.h ****     if(message) {
 538              		.loc 1 37 0
 539 002c 0400A0E1 		mov	r0, r4
 540 0030 FEFFFFEB 		bl	_ZNSt9exceptionD2Ev
 541              	.LVL38:
 542 0034 010076E3 		cmn	r6, #1
 543 0038 0000000A 		beq	.L42
 544              	.LEHB5:
 545 003c FEFFFFEB 		bl	__cxa_end_cleanup
 546              	.LVL39:
 547              	.L42:
 548              	.LBE721:
 549 0040 0500A0E1 		mov	r0, r5
 550 0044 FEFFFFEB 		bl	__cxa_call_unexpected
 551              	.LVL40:
 552              	.LEHE5:
 553              	.L40:
 554              	.LBB722:
 555 0048 0400A0E1 		mov	r0, r4
 556 004c FEFFFFEB 		bl	_ZNSt9exceptionD2Ev
 557              	.LVL41:
 558              	.LBE722:
 559              	.LBE720:
 560              	.LBE719:
 561              	.LBE718:
 562              		.loc 7 32 0
 563 0050 0400A0E1 		mov	r0, r4
 564 0054 7080BDE8 		pop	{r4, r5, r6, pc}
 565              	.L47:
 566              		.align	2
 567              	.L46:
 568 0058 08000000 		.word	_ZTVN5zxing9ExceptionE+8
 569              		.cfi_endproc
 570              	.LFE949:
 571              		.personality	__gxx_personality_v0
 572              		.handlerdata
 573              		.align	2
 574              	.LLSDA949:
 575 0008 FF       		.byte	0xff
 576 0009 10       		.byte	0x10
 577 000a 11       		.uleb128 .LLSDATT949-.LLSDATTD949
 578              	.LLSDATTD949:
 579 000b 01       		.byte	0x1
 580 000c 08       		.uleb128 .LLSDACSE949-.LLSDACSB949
 581              	.LLSDACSB949:
 582 000d 1C       		.uleb128 .LEHB4-.LFB949
 583 000e 04       		.uleb128 .LEHE4-.LEHB4
 584 000f 24       		.uleb128 .L43-.LFB949
 585 0010 03       		.uleb128 0x3
 586 0011 3C       		.uleb128 .LEHB5-.LFB949
 587 0012 0C       		.uleb128 .LEHE5-.LEHB5
 588 0013 00       		.uleb128 0
 589 0014 00       		.uleb128 0
 590              	.LLSDACSE949:
 591 0015 7F       		.byte	0x7f
 592 0016 00       		.byte	0
 593 0017 00       		.byte	0
 594 0018 7D       		.byte	0x7d
 595 0019 000000   		.align	2
 596              	.LLSDATT949:
 597 001c 00000000 		.word	0
 598              		.section	.text._ZN5zxing15ReaderExceptionD2Ev,"axG",%progbits,_ZN5zxing15ReaderExceptionD5Ev,comda
 599              		.fnend
 601              		.weak	_ZN5zxing15ReaderExceptionD1Ev
 602              		.set	_ZN5zxing15ReaderExceptionD1Ev,_ZN5zxing15ReaderExceptionD2Ev
 603              		.section	.text._ZN5zxing9ExceptionD0Ev,"axG",%progbits,_ZN5zxing9ExceptionD5Ev,comdat
 604              		.align	2
 605              		.weak	_ZN5zxing9ExceptionD0Ev
 606              		.syntax unified
 607              		.arm
 608              		.fpu neon
 610              	_ZN5zxing9ExceptionD0Ev:
 611              		.fnstart
 612              	.LFB940:
  37:/home/zkmike/workspace/RZA2M/rza2m_2d_barcode_sample_freertos_gcc/src/zxing_lib/zxing/Exception.h ****     if(message) {
 613              		.loc 1 37 0
 614              		.cfi_startproc
 615              		.cfi_personality 0,__gxx_personality_v0
 616              		.cfi_lsda 0,.LLSDA940
 617              		@ args = 0, pretend = 0, frame = 0
 618              		@ frame_needed = 0, uses_anonymous_args = 0
 619              	.LVL42:
 620 0000 70402DE9 		push	{r4, r5, r6, lr}
 621              		.save {r4, r5, r6, lr}
 622              		.cfi_def_cfa_offset 16
 623              		.cfi_offset 4, -16
 624              		.cfi_offset 5, -12
 625              		.cfi_offset 6, -8
 626              		.cfi_offset 14, -4
 627 0004 0040A0E1 		mov	r4, r0
 628              	.LVL43:
 629              	.LBB726:
 630              	.LBB727:
 631              	.LBB728:
  37:/home/zkmike/workspace/RZA2M/rza2m_2d_barcode_sample_freertos_gcc/src/zxing_lib/zxing/Exception.h ****     if(message) {
 632              		.loc 1 37 0
 633 0008 54309FE5 		ldr	r3, .L55
 634 000c 003080E5 		str	r3, [r0]
  38:/home/zkmike/workspace/RZA2M/rza2m_2d_barcode_sample_freertos_gcc/src/zxing_lib/zxing/Exception.h ****       deleteMessage();
 635              		.loc 1 38 0
 636 0010 043090E5 		ldr	r3, [r0, #4]
 637 0014 000053E3 		cmp	r3, #0
 638 0018 0A00000A 		beq	.L49
 639              	.LEHB6:
  39:/home/zkmike/workspace/RZA2M/rza2m_2d_barcode_sample_freertos_gcc/src/zxing_lib/zxing/Exception.h ****     }
 640              		.loc 1 39 0
 641 001c FEFFFFEB 		bl	_ZN5zxing9Exception13deleteMessageEv
 642              	.LVL44:
 643              	.LEHE6:
 644 0020 080000EA 		b	.L49
 645              	.L52:
 646 0024 0050A0E1 		mov	r5, r0
 647 0028 0160A0E1 		mov	r6, r1
  37:/home/zkmike/workspace/RZA2M/rza2m_2d_barcode_sample_freertos_gcc/src/zxing_lib/zxing/Exception.h ****     if(message) {
 648              		.loc 1 37 0
 649 002c 0400A0E1 		mov	r0, r4
 650 0030 FEFFFFEB 		bl	_ZNSt9exceptionD2Ev
 651              	.LVL45:
 652 0034 010076E3 		cmn	r6, #1
 653 0038 0000000A 		beq	.L51
 654              	.LEHB7:
 655 003c FEFFFFEB 		bl	__cxa_end_cleanup
 656              	.LVL46:
 657              	.L51:
 658              	.LBE728:
 659 0040 0500A0E1 		mov	r0, r5
 660 0044 FEFFFFEB 		bl	__cxa_call_unexpected
 661              	.LVL47:
 662              	.LEHE7:
 663              	.L49:
 664              	.LBB729:
 665 0048 0400A0E1 		mov	r0, r4
 666 004c FEFFFFEB 		bl	_ZNSt9exceptionD2Ev
 667              	.LVL48:
 668              	.LBE729:
 669              	.LBE727:
 670              	.LBE726:
  41:/home/zkmike/workspace/RZA2M/rza2m_2d_barcode_sample_freertos_gcc/src/zxing_lib/zxing/Exception.h ****   char const* what() const throw() {return message ? message : "";}
 671              		.loc 1 41 0
 672 0050 0810A0E3 		mov	r1, #8
 673 0054 0400A0E1 		mov	r0, r4
 674 0058 FEFFFFEB 		bl	_ZdlPvj
 675              	.LVL49:
 676 005c 0400A0E1 		mov	r0, r4
 677 0060 7080BDE8 		pop	{r4, r5, r6, pc}
 678              	.L56:
 679              		.align	2
 680              	.L55:
 681 0064 08000000 		.word	_ZTVN5zxing9ExceptionE+8
 682              		.cfi_endproc
 683              	.LFE940:
 684              		.personality	__gxx_personality_v0
 685              		.handlerdata
 686              		.align	2
 687              	.LLSDA940:
 688 0008 FF       		.byte	0xff
 689 0009 10       		.byte	0x10
 690 000a 11       		.uleb128 .LLSDATT940-.LLSDATTD940
 691              	.LLSDATTD940:
 692 000b 01       		.byte	0x1
 693 000c 08       		.uleb128 .LLSDACSE940-.LLSDACSB940
 694              	.LLSDACSB940:
 695 000d 1C       		.uleb128 .LEHB6-.LFB940
 696 000e 04       		.uleb128 .LEHE6-.LEHB6
 697 000f 24       		.uleb128 .L52-.LFB940
 698 0010 03       		.uleb128 0x3
 699 0011 3C       		.uleb128 .LEHB7-.LFB940
 700 0012 0C       		.uleb128 .LEHE7-.LEHB7
 701 0013 00       		.uleb128 0
 702 0014 00       		.uleb128 0
 703              	.LLSDACSE940:
 704 0015 7F       		.byte	0x7f
 705 0016 00       		.byte	0
 706 0017 00       		.byte	0
 707 0018 7D       		.byte	0x7d
 708 0019 000000   		.align	2
 709              	.LLSDATT940:
 710 001c 00000000 		.word	0
 711              		.section	.text._ZN5zxing9ExceptionD0Ev,"axG",%progbits,_ZN5zxing9ExceptionD5Ev,comdat
 712              		.fnend
 714              		.section	.text._ZN5zxing15ReaderExceptionD0Ev,"axG",%progbits,_ZN5zxing15ReaderExceptionD5Ev,comda
 715              		.align	2
 716              		.weak	_ZN5zxing15ReaderExceptionD0Ev
 717              		.syntax unified
 718              		.arm
 719              		.fpu neon
 721              	_ZN5zxing15ReaderExceptionD0Ev:
 722              		.fnstart
 723              	.LFB951:
 724              		.loc 7 32 0
 725              		.cfi_startproc
 726              		.cfi_personality 0,__gxx_personality_v0
 727              		.cfi_lsda 0,.LLSDA951
 728              		@ args = 0, pretend = 0, frame = 0
 729              		@ frame_needed = 0, uses_anonymous_args = 0
 730              	.LVL50:
 731 0000 70402DE9 		push	{r4, r5, r6, lr}
 732              		.save {r4, r5, r6, lr}
 733              		.cfi_def_cfa_offset 16
 734              		.cfi_offset 4, -16
 735              		.cfi_offset 5, -12
 736              		.cfi_offset 6, -8
 737              		.cfi_offset 14, -4
 738 0004 0040A0E1 		mov	r4, r0
 739              	.LVL51:
 740              	.LBB735:
 741              	.LBB736:
 742              	.LBB737:
 743              	.LBB738:
 744              	.LBB739:
  37:/home/zkmike/workspace/RZA2M/rza2m_2d_barcode_sample_freertos_gcc/src/zxing_lib/zxing/Exception.h ****     if(message) {
 745              		.loc 1 37 0
 746 0008 54309FE5 		ldr	r3, .L64
 747 000c 003080E5 		str	r3, [r0]
  38:/home/zkmike/workspace/RZA2M/rza2m_2d_barcode_sample_freertos_gcc/src/zxing_lib/zxing/Exception.h ****       deleteMessage();
 748              		.loc 1 38 0
 749 0010 043090E5 		ldr	r3, [r0, #4]
 750 0014 000053E3 		cmp	r3, #0
 751 0018 0A00000A 		beq	.L58
 752              	.LEHB8:
  39:/home/zkmike/workspace/RZA2M/rza2m_2d_barcode_sample_freertos_gcc/src/zxing_lib/zxing/Exception.h ****     }
 753              		.loc 1 39 0
 754 001c FEFFFFEB 		bl	_ZN5zxing9Exception13deleteMessageEv
 755              	.LVL52:
 756              	.LEHE8:
 757 0020 080000EA 		b	.L58
 758              	.L61:
 759 0024 0050A0E1 		mov	r5, r0
 760 0028 0160A0E1 		mov	r6, r1
  37:/home/zkmike/workspace/RZA2M/rza2m_2d_barcode_sample_freertos_gcc/src/zxing_lib/zxing/Exception.h ****     if(message) {
 761              		.loc 1 37 0
 762 002c 0400A0E1 		mov	r0, r4
 763 0030 FEFFFFEB 		bl	_ZNSt9exceptionD2Ev
 764              	.LVL53:
 765 0034 010076E3 		cmn	r6, #1
 766 0038 0000000A 		beq	.L60
 767              	.LEHB9:
 768 003c FEFFFFEB 		bl	__cxa_end_cleanup
 769              	.LVL54:
 770              	.L60:
 771              	.LBE739:
 772 0040 0500A0E1 		mov	r0, r5
 773 0044 FEFFFFEB 		bl	__cxa_call_unexpected
 774              	.LVL55:
 775              	.LEHE9:
 776              	.L58:
 777              	.LBB740:
 778 0048 0400A0E1 		mov	r0, r4
 779 004c FEFFFFEB 		bl	_ZNSt9exceptionD2Ev
 780              	.LVL56:
 781              	.LBE740:
 782              	.LBE738:
 783              	.LBE737:
 784              	.LBE736:
 785              	.LBE735:
 786              		.loc 7 32 0
 787 0050 0810A0E3 		mov	r1, #8
 788 0054 0400A0E1 		mov	r0, r4
 789 0058 FEFFFFEB 		bl	_ZdlPvj
 790              	.LVL57:
 791 005c 0400A0E1 		mov	r0, r4
 792 0060 7080BDE8 		pop	{r4, r5, r6, pc}
 793              	.L65:
 794              		.align	2
 795              	.L64:
 796 0064 08000000 		.word	_ZTVN5zxing9ExceptionE+8
 797              		.cfi_endproc
 798              	.LFE951:
 799              		.personality	__gxx_personality_v0
 800              		.handlerdata
 801              		.align	2
 802              	.LLSDA951:
 803 0008 FF       		.byte	0xff
 804 0009 10       		.byte	0x10
 805 000a 11       		.uleb128 .LLSDATT951-.LLSDATTD951
 806              	.LLSDATTD951:
 807 000b 01       		.byte	0x1
 808 000c 08       		.uleb128 .LLSDACSE951-.LLSDACSB951
 809              	.LLSDACSB951:
 810 000d 1C       		.uleb128 .LEHB8-.LFB951
 811 000e 04       		.uleb128 .LEHE8-.LEHB8
 812 000f 24       		.uleb128 .L61-.LFB951
 813 0010 03       		.uleb128 0x3
 814 0011 3C       		.uleb128 .LEHB9-.LFB951
 815 0012 0C       		.uleb128 .LEHE9-.LEHB9
 816 0013 00       		.uleb128 0
 817 0014 00       		.uleb128 0
 818              	.LLSDACSE951:
 819 0015 7F       		.byte	0x7f
 820 0016 00       		.byte	0
 821 0017 00       		.byte	0
 822 0018 7D       		.byte	0x7d
 823 0019 000000   		.align	2
 824              	.LLSDATT951:
 825 001c 00000000 		.word	0
 826              		.section	.text._ZN5zxing15ReaderExceptionD0Ev,"axG",%progbits,_ZN5zxing15ReaderExceptionD5Ev,comda
 827              		.fnend
 829              		.section	.text._ZN5zxing17NotFoundExceptionD0Ev,"axG",%progbits,_ZN5zxing17NotFoundExceptionD5Ev,c
 830              		.align	2
 831              		.weak	_ZN5zxing17NotFoundExceptionD0Ev
 832              		.syntax unified
 833              		.arm
 834              		.fpu neon
 836              	_ZN5zxing17NotFoundExceptionD0Ev:
 837              		.fnstart
 838              	.LFB961:
 839              		.loc 6 30 0
 840              		.cfi_startproc
 841              		.cfi_personality 0,__gxx_personality_v0
 842              		.cfi_lsda 0,.LLSDA961
 843              		@ args = 0, pretend = 0, frame = 0
 844              		@ frame_needed = 0, uses_anonymous_args = 0
 845              	.LVL58:
 846 0000 70402DE9 		push	{r4, r5, r6, lr}
 847              		.save {r4, r5, r6, lr}
 848              		.cfi_def_cfa_offset 16
 849              		.cfi_offset 4, -16
 850              		.cfi_offset 5, -12
 851              		.cfi_offset 6, -8
 852              		.cfi_offset 14, -4
 853 0004 0040A0E1 		mov	r4, r0
 854              	.LVL59:
 855              	.LBB748:
 856              	.LBB749:
 857              	.LBB750:
 858              	.LBB751:
 859              	.LBB752:
 860              	.LBB753:
  37:/home/zkmike/workspace/RZA2M/rza2m_2d_barcode_sample_freertos_gcc/src/zxing_lib/zxing/Exception.h ****     if(message) {
 861              		.loc 1 37 0
 862 0008 54309FE5 		ldr	r3, .L73
 863 000c 003080E5 		str	r3, [r0]
  38:/home/zkmike/workspace/RZA2M/rza2m_2d_barcode_sample_freertos_gcc/src/zxing_lib/zxing/Exception.h ****       deleteMessage();
 864              		.loc 1 38 0
 865 0010 043090E5 		ldr	r3, [r0, #4]
 866 0014 000053E3 		cmp	r3, #0
 867 0018 0A00000A 		beq	.L67
 868              	.LEHB10:
  39:/home/zkmike/workspace/RZA2M/rza2m_2d_barcode_sample_freertos_gcc/src/zxing_lib/zxing/Exception.h ****     }
 869              		.loc 1 39 0
 870 001c FEFFFFEB 		bl	_ZN5zxing9Exception13deleteMessageEv
 871              	.LVL60:
 872              	.LEHE10:
 873 0020 080000EA 		b	.L67
 874              	.L70:
 875 0024 0050A0E1 		mov	r5, r0
 876 0028 0160A0E1 		mov	r6, r1
  37:/home/zkmike/workspace/RZA2M/rza2m_2d_barcode_sample_freertos_gcc/src/zxing_lib/zxing/Exception.h ****     if(message) {
 877              		.loc 1 37 0
 878 002c 0400A0E1 		mov	r0, r4
 879 0030 FEFFFFEB 		bl	_ZNSt9exceptionD2Ev
 880              	.LVL61:
 881 0034 010076E3 		cmn	r6, #1
 882 0038 0000000A 		beq	.L69
 883              	.LEHB11:
 884 003c FEFFFFEB 		bl	__cxa_end_cleanup
 885              	.LVL62:
 886              	.L69:
 887              	.LBE753:
 888 0040 0500A0E1 		mov	r0, r5
 889 0044 FEFFFFEB 		bl	__cxa_call_unexpected
 890              	.LVL63:
 891              	.LEHE11:
 892              	.L67:
 893              	.LBB754:
 894 0048 0400A0E1 		mov	r0, r4
 895 004c FEFFFFEB 		bl	_ZNSt9exceptionD2Ev
 896              	.LVL64:
 897              	.LBE754:
 898              	.LBE752:
 899              	.LBE751:
 900              	.LBE750:
 901              	.LBE749:
 902              	.LBE748:
 903              		.loc 6 30 0
 904 0050 0810A0E3 		mov	r1, #8
 905 0054 0400A0E1 		mov	r0, r4
 906 0058 FEFFFFEB 		bl	_ZdlPvj
 907              	.LVL65:
 908 005c 0400A0E1 		mov	r0, r4
 909 0060 7080BDE8 		pop	{r4, r5, r6, pc}
 910              	.L74:
 911              		.align	2
 912              	.L73:
 913 0064 08000000 		.word	_ZTVN5zxing9ExceptionE+8
 914              		.cfi_endproc
 915              	.LFE961:
 916              		.personality	__gxx_personality_v0
 917              		.handlerdata
 918              		.align	2
 919              	.LLSDA961:
 920 0008 FF       		.byte	0xff
 921 0009 10       		.byte	0x10
 922 000a 11       		.uleb128 .LLSDATT961-.LLSDATTD961
 923              	.LLSDATTD961:
 924 000b 01       		.byte	0x1
 925 000c 08       		.uleb128 .LLSDACSE961-.LLSDACSB961
 926              	.LLSDACSB961:
 927 000d 1C       		.uleb128 .LEHB10-.LFB961
 928 000e 04       		.uleb128 .LEHE10-.LEHB10
 929 000f 24       		.uleb128 .L70-.LFB961
 930 0010 03       		.uleb128 0x3
 931 0011 3C       		.uleb128 .LEHB11-.LFB961
 932 0012 0C       		.uleb128 .LEHE11-.LEHB11
 933 0013 00       		.uleb128 0
 934 0014 00       		.uleb128 0
 935              	.LLSDACSE961:
 936 0015 7F       		.byte	0x7f
 937 0016 00       		.byte	0
 938 0017 00       		.byte	0
 939 0018 7D       		.byte	0x7d
 940 0019 000000   		.align	2
 941              	.LLSDATT961:
 942 001c 00000000 		.word	0
 943              		.section	.text._ZN5zxing17NotFoundExceptionD0Ev,"axG",%progbits,_ZN5zxing17NotFoundExceptionD5Ev,c
 944              		.fnend
 946              		.section	.text._ZN5zxing9ExceptionC2EPKc,"axG",%progbits,_ZN5zxing9ExceptionC5EPKc,comdat
 947              		.align	2
 948              		.weak	_ZN5zxing9ExceptionC2EPKc
 949              		.syntax unified
 950              		.arm
 951              		.fpu neon
 953              	_ZN5zxing9ExceptionC2EPKc:
 954              		.fnstart
 955              	.LFB929:
  35:/home/zkmike/workspace/RZA2M/rza2m_2d_barcode_sample_freertos_gcc/src/zxing_lib/zxing/Exception.h ****   Exception(Exception const& that) throw() : std::exception(that), message(copy(that.message)) {}
 956              		.loc 1 35 0
 957              		.cfi_startproc
 958              		.cfi_personality 0,__gxx_personality_v0
 959              		.cfi_lsda 0,.LLSDA929
 960              		@ args = 0, pretend = 0, frame = 0
 961              		@ frame_needed = 0, uses_anonymous_args = 0
 962              	.LVL66:
 963 0000 70402DE9 		push	{r4, r5, r6, lr}
 964              		.save {r4, r5, r6, lr}
 965              		.cfi_def_cfa_offset 16
 966              		.cfi_offset 4, -16
 967              		.cfi_offset 5, -12
 968              		.cfi_offset 6, -8
 969              		.cfi_offset 14, -4
 970 0004 0040A0E1 		mov	r4, r0
 971              	.LBB755:
  35:/home/zkmike/workspace/RZA2M/rza2m_2d_barcode_sample_freertos_gcc/src/zxing_lib/zxing/Exception.h ****   Exception(Exception const& that) throw() : std::exception(that), message(copy(that.message)) {}
 972              		.loc 1 35 0
 973 0008 3C309FE5 		ldr	r3, .L83
 974 000c 003080E5 		str	r3, [r0]
 975 0010 0100A0E1 		mov	r0, r1
 976              	.LVL67:
 977              	.LEHB12:
 978 0014 FEFFFFEB 		bl	_ZN5zxing9Exception4copyEPKc
 979              	.LVL68:
 980              	.LEHE12:
 981 0018 080000EA 		b	.L82
 982              	.L78:
 983 001c 0050A0E1 		mov	r5, r0
 984 0020 0160A0E1 		mov	r6, r1
 985 0024 0400A0E1 		mov	r0, r4
 986 0028 FEFFFFEB 		bl	_ZNSt9exceptionD2Ev
 987              	.LVL69:
 988 002c 010076E3 		cmn	r6, #1
 989 0030 0000000A 		beq	.L77
 990              	.LEHB13:
 991 0034 FEFFFFEB 		bl	__cxa_end_cleanup
 992              	.LVL70:
 993              	.L77:
 994              	.LBE755:
 995 0038 0500A0E1 		mov	r0, r5
 996 003c FEFFFFEB 		bl	__cxa_call_unexpected
 997              	.LVL71:
 998              	.LEHE13:
 999              	.L82:
 1000              	.LBB756:
 1001 0040 040084E5 		str	r0, [r4, #4]
 1002              	.LBE756:
 1003 0044 0400A0E1 		mov	r0, r4
 1004 0048 7080BDE8 		pop	{r4, r5, r6, pc}
 1005              	.L84:
 1006              		.align	2
 1007              	.L83:
 1008 004c 08000000 		.word	_ZTVN5zxing9ExceptionE+8
 1009              		.cfi_endproc
 1010              	.LFE929:
 1011              		.personality	__gxx_personality_v0
 1012              		.handlerdata
 1013              		.align	2
 1014              	.LLSDA929:
 1015 0008 FF       		.byte	0xff
 1016 0009 10       		.byte	0x10
 1017 000a 11       		.uleb128 .LLSDATT929-.LLSDATTD929
 1018              	.LLSDATTD929:
 1019 000b 01       		.byte	0x1
 1020 000c 08       		.uleb128 .LLSDACSE929-.LLSDACSB929
 1021              	.LLSDACSB929:
 1022 000d 14       		.uleb128 .LEHB12-.LFB929
 1023 000e 04       		.uleb128 .LEHE12-.LEHB12
 1024 000f 1C       		.uleb128 .L78-.LFB929
 1025 0010 03       		.uleb128 0x3
 1026 0011 34       		.uleb128 .LEHB13-.LFB929
 1027 0012 0C       		.uleb128 .LEHE13-.LEHB13
 1028 0013 00       		.uleb128 0
 1029 0014 00       		.uleb128 0
 1030              	.LLSDACSE929:
 1031 0015 7F       		.byte	0x7f
 1032 0016 00       		.byte	0
 1033 0017 00       		.byte	0
 1034 0018 7D       		.byte	0x7d
 1035 0019 000000   		.align	2
 1036              	.LLSDATT929:
 1037 001c 00000000 		.word	0
 1038              		.section	.text._ZN5zxing9ExceptionC2EPKc,"axG",%progbits,_ZN5zxing9ExceptionC5EPKc,comdat
 1039              		.fnend
 1041              		.weak	_ZN5zxing9ExceptionC1EPKc
 1042              		.set	_ZN5zxing9ExceptionC1EPKc,_ZN5zxing9ExceptionC2EPKc
 1043              		.section	.text._ZN5zxing22WhiteRectangleDetectorC2ENS_3RefINS_9BitMatrixEEE,"ax",%progbits
 1044              		.align	2
 1045              		.global	_ZN5zxing22WhiteRectangleDetectorC2ENS_3RefINS_9BitMatrixEEE
 1046              		.syntax unified
 1047              		.arm
 1048              		.fpu neon
 1050              	_ZN5zxing22WhiteRectangleDetectorC2ENS_3RefINS_9BitMatrixEEE:
 1051              		.fnstart
 1052              	.LFB2321:
  39:../src/zxing_lib/zxing/common/detector/WhiteRectangleDetector.cpp ****   width_ = image->getWidth();
 1053              		.loc 4 39 0
 1054              		.cfi_startproc
 1055              		.cfi_personality 0,__gxx_personality_v0
 1056              		.cfi_lsda 0,.LLSDA2321
 1057              		@ args = 0, pretend = 0, frame = 0
 1058              		@ frame_needed = 0, uses_anonymous_args = 0
 1059              	.LVL72:
 1060 0000 70402DE9 		push	{r4, r5, r6, lr}
 1061              		.save {r4, r5, r6, lr}
 1062              		.cfi_def_cfa_offset 16
 1063              		.cfi_offset 4, -16
 1064              		.cfi_offset 5, -12
 1065              		.cfi_offset 6, -8
 1066              		.cfi_offset 14, -4
 1067 0004 0040A0E1 		mov	r4, r0
 1068 0008 0160A0E1 		mov	r6, r1
 1069              	.LVL73:
 1070              	.LBB784:
 1071              	.LBB785:
 1072              	.LBB786:
  31:/home/zkmike/workspace/RZA2M/rza2m_2d_barcode_sample_freertos_gcc/src/zxing_lib/zxing/common/Counted.h ****   }
 1073              		.loc 3 31 0
 1074 000c 0030A0E3 		mov	r3, #0
 1075 0010 043080E5 		str	r3, [r0, #4]
 1076              	.LVL74:
 1077              	.LBE786:
 1078              	.LBE785:
  39:../src/zxing_lib/zxing/common/detector/WhiteRectangleDetector.cpp ****   width_ = image->getWidth();
 1079              		.loc 4 39 0
 1080 0014 50219FE5 		ldr	r2, .L97
 1081 0018 002080E5 		str	r2, [r0]
 1082              	.LVL75:
 1083              	.LBB787:
 1084              	.LBB788:
  64:/home/zkmike/workspace/RZA2M/rza2m_2d_barcode_sample_freertos_gcc/src/zxing_lib/zxing/common/Counted.h ****     reset(other.object_);
 1085              		.loc 3 64 0
 1086 001c 083080E5 		str	r3, [r0, #8]
  65:/home/zkmike/workspace/RZA2M/rza2m_2d_barcode_sample_freertos_gcc/src/zxing_lib/zxing/common/Counted.h ****   }
 1087              		.loc 3 65 0
 1088 0020 005091E5 		ldr	r5, [r1]
 1089              	.LVL76:
 1090              	.LBB789:
 1091              	.LBB790:
  76:/home/zkmike/workspace/RZA2M/rza2m_2d_barcode_sample_freertos_gcc/src/zxing_lib/zxing/common/Counted.h ****       object_->release();
  77:/home/zkmike/workspace/RZA2M/rza2m_2d_barcode_sample_freertos_gcc/src/zxing_lib/zxing/common/Counted.h ****     }
  78:/home/zkmike/workspace/RZA2M/rza2m_2d_barcode_sample_freertos_gcc/src/zxing_lib/zxing/common/Counted.h ****   }
  79:/home/zkmike/workspace/RZA2M/rza2m_2d_barcode_sample_freertos_gcc/src/zxing_lib/zxing/common/Counted.h **** 
  80:/home/zkmike/workspace/RZA2M/rza2m_2d_barcode_sample_freertos_gcc/src/zxing_lib/zxing/common/Counted.h ****   void reset(T *o) {
  81:/home/zkmike/workspace/RZA2M/rza2m_2d_barcode_sample_freertos_gcc/src/zxing_lib/zxing/common/Counted.h ****     if (o) {
 1092              		.loc 3 81 0
 1093 0024 030055E1 		cmp	r5, r3
 1094              	.LVL77:
 1095              	.LBB791:
 1096              	.LBB792:
  36:/home/zkmike/workspace/RZA2M/rza2m_2d_barcode_sample_freertos_gcc/src/zxing_lib/zxing/common/Counted.h ****     return this;
 1097              		.loc 3 36 0
 1098 0028 04309515 		ldrne	r3, [r5, #4]
 1099 002c 01308312 		addne	r3, r3, #1
 1100 0030 04308515 		strne	r3, [r5, #4]
 1101              	.LVL78:
 1102              	.L86:
 1103              	.LBE792:
 1104              	.LBE791:
  82:/home/zkmike/workspace/RZA2M/rza2m_2d_barcode_sample_freertos_gcc/src/zxing_lib/zxing/common/Counted.h ****       o->retain();
  83:/home/zkmike/workspace/RZA2M/rza2m_2d_barcode_sample_freertos_gcc/src/zxing_lib/zxing/common/Counted.h ****     }
  84:/home/zkmike/workspace/RZA2M/rza2m_2d_barcode_sample_freertos_gcc/src/zxing_lib/zxing/common/Counted.h ****     if (object_ != 0) {
 1105              		.loc 3 84 0
 1106 0034 080094E5 		ldr	r0, [r4, #8]
 1107              	.LVL79:
 1108 0038 000050E3 		cmp	r0, #0
 1109 003c 0400000A 		beq	.L87
 1110              	.LVL80:
 1111              	.LBB793:
 1112              	.LBB794:
  40:/home/zkmike/workspace/RZA2M/rza2m_2d_barcode_sample_freertos_gcc/src/zxing_lib/zxing/common/Counted.h ****     if (count_ == 0) {
 1113              		.loc 3 40 0
 1114 0040 043090E5 		ldr	r3, [r0, #4]
 1115 0044 013043E2 		sub	r3, r3, #1
 1116 0048 043080E5 		str	r3, [r0, #4]
  41:/home/zkmike/workspace/RZA2M/rza2m_2d_barcode_sample_freertos_gcc/src/zxing_lib/zxing/common/Counted.h ****       count_ = 0xDEADF001;
 1117              		.loc 3 41 0
 1118 004c 000053E3 		cmp	r3, #0
 1119 0050 0300000A 		beq	.L95
 1120              	.LVL81:
 1121              	.L87:
 1122              	.LBE794:
 1123              	.LBE793:
  85:/home/zkmike/workspace/RZA2M/rza2m_2d_barcode_sample_freertos_gcc/src/zxing_lib/zxing/common/Counted.h ****       object_->release();
  86:/home/zkmike/workspace/RZA2M/rza2m_2d_barcode_sample_freertos_gcc/src/zxing_lib/zxing/common/Counted.h ****     }
  87:/home/zkmike/workspace/RZA2M/rza2m_2d_barcode_sample_freertos_gcc/src/zxing_lib/zxing/common/Counted.h ****     object_ = o;
 1124              		.loc 3 87 0
 1125 0054 085084E5 		str	r5, [r4, #8]
 1126              	.LVL82:
 1127              	.LBE790:
 1128              	.LBE789:
 1129              	.LBE788:
 1130              	.LBE787:
  40:../src/zxing_lib/zxing/common/detector/WhiteRectangleDetector.cpp ****   height_ = image->getHeight();
 1131              		.loc 4 40 0
 1132 0058 000096E5 		ldr	r0, [r6]
 1133              	.LEHB14:
 1134 005c FEFFFFEB 		bl	_ZNK5zxing9BitMatrix8getWidthEv
 1135              	.LVL83:
 1136 0060 060000EA 		b	.L96
 1137              	.LVL84:
 1138              	.L95:
 1139              	.LBB800:
 1140              	.LBB799:
 1141              	.LBB798:
 1142              	.LBB797:
 1143              	.LBB796:
 1144              	.LBB795:
  42:/home/zkmike/workspace/RZA2M/rza2m_2d_barcode_sample_freertos_gcc/src/zxing_lib/zxing/common/Counted.h ****       delete this;
 1145              		.loc 3 42 0
 1146 0064 01300FE3 		movw	r3, #61441
 1147 0068 AD3E4DE3 		movt	r3, 57005
 1148 006c 043080E5 		str	r3, [r0, #4]
  43:/home/zkmike/workspace/RZA2M/rza2m_2d_barcode_sample_freertos_gcc/src/zxing_lib/zxing/common/Counted.h ****     }
 1149              		.loc 3 43 0
 1150 0070 003090E5 		ldr	r3, [r0]
 1151 0074 043093E5 		ldr	r3, [r3, #4]
 1152 0078 33FF2FE1 		blx	r3
 1153              	.LVL85:
 1154 007c F4FFFFEA 		b	.L87
 1155              	.LVL86:
 1156              	.L96:
 1157              	.LBE795:
 1158              	.LBE796:
 1159              	.LBE797:
 1160              	.LBE798:
 1161              	.LBE799:
 1162              	.LBE800:
  40:../src/zxing_lib/zxing/common/detector/WhiteRectangleDetector.cpp ****   height_ = image->getHeight();
 1163              		.loc 4 40 0
 1164 0080 0C0084E5 		str	r0, [r4, #12]
  41:../src/zxing_lib/zxing/common/detector/WhiteRectangleDetector.cpp ****   
 1165              		.loc 4 41 0
 1166 0084 000096E5 		ldr	r0, [r6]
 1167 0088 FEFFFFEB 		bl	_ZNK5zxing9BitMatrix9getHeightEv
 1168              	.LVL87:
  41:../src/zxing_lib/zxing/common/detector/WhiteRectangleDetector.cpp ****   
 1169              		.loc 4 41 0 is_stmt 0 discriminator 1
 1170 008c 100084E5 		str	r0, [r4, #16]
  43:../src/zxing_lib/zxing/common/detector/WhiteRectangleDetector.cpp ****   rightInit_ = (width_ + INIT_SIZE) >> 1;
 1171              		.loc 4 43 0 is_stmt 1 discriminator 1
 1172 0090 0CE094E5 		ldr	lr, [r4, #12]
 1173 0094 003000E3 		movw	r3, #:lower16:.LANCHOR1
 1174 0098 003040E3 		movt	r3, #:upper16:.LANCHOR1
 1175 009c 003093E5 		ldr	r3, [r3]
 1176 00a0 03104EE0 		sub	r1, lr, r3
 1177 00a4 C110A0E1 		asr	r1, r1, #1
 1178 00a8 141084E5 		str	r1, [r4, #20]
  44:../src/zxing_lib/zxing/common/detector/WhiteRectangleDetector.cpp ****   upInit_ = (height_ - INIT_SIZE) >> 1;
 1179              		.loc 4 44 0 discriminator 1
 1180 00ac 03C08EE0 		add	ip, lr, r3
 1181 00b0 CCC0A0E1 		asr	ip, ip, #1
 1182 00b4 18C084E5 		str	ip, [r4, #24]
  45:../src/zxing_lib/zxing/common/detector/WhiteRectangleDetector.cpp ****   downInit_ = (height_ + INIT_SIZE) >> 1;
 1183              		.loc 4 45 0 discriminator 1
 1184 00b8 032040E0 		sub	r2, r0, r3
 1185 00bc C220A0E1 		asr	r2, r2, #1
 1186 00c0 202084E5 		str	r2, [r4, #32]
  46:../src/zxing_lib/zxing/common/detector/WhiteRectangleDetector.cpp ****   
 1187              		.loc 4 46 0 discriminator 1
 1188 00c4 033080E0 		add	r3, r0, r3
 1189 00c8 C330A0E1 		asr	r3, r3, #1
 1190 00cc 1C3084E5 		str	r3, [r4, #28]
  48:../src/zxing_lib/zxing/common/detector/WhiteRectangleDetector.cpp ****     throw NotFoundException("Invalid dimensions WhiteRectangleDetector");
 1191              		.loc 4 48 0 discriminator 1
 1192 00d0 000052E3 		cmp	r2, #0
 1193 00d4 070000BA 		blt	.L88
 1194 00d8 000051E3 		cmp	r1, #0
 1195 00dc 050000BA 		blt	.L88
  48:../src/zxing_lib/zxing/common/detector/WhiteRectangleDetector.cpp ****     throw NotFoundException("Invalid dimensions WhiteRectangleDetector");
 1196              		.loc 4 48 0 is_stmt 0 discriminator 2
 1197 00e0 030050E1 		cmp	r0, r3
 1198 00e4 030000DA 		ble	.L88
  48:../src/zxing_lib/zxing/common/detector/WhiteRectangleDetector.cpp ****     throw NotFoundException("Invalid dimensions WhiteRectangleDetector");
 1199              		.loc 4 48 0 discriminator 3
 1200 00e8 0C005EE1 		cmp	lr, ip
 1201 00ec 010000DA 		ble	.L88
 1202              	.LBE784:
  51:../src/zxing_lib/zxing/common/detector/WhiteRectangleDetector.cpp **** 
 1203              		.loc 4 51 0 is_stmt 1
 1204 00f0 0400A0E1 		mov	r0, r4
 1205 00f4 7080BDE8 		pop	{r4, r5, r6, pc}
 1206              	.L88:
 1207              	.LBB809:
  49:../src/zxing_lib/zxing/common/detector/WhiteRectangleDetector.cpp **** }
 1208              		.loc 4 49 0
 1209 00f8 0800A0E3 		mov	r0, #8
 1210 00fc FEFFFFEB 		bl	__cxa_allocate_exception
 1211              	.LVL88:
 1212 0100 0050A0E1 		mov	r5, r0
 1213              	.LVL89:
 1214              	.LBB801:
 1215              	.LBB802:
 1216              	.LBB803:
 1217              	.LBB804:
  31:/home/zkmike/workspace/RZA2M/rza2m_2d_barcode_sample_freertos_gcc/src/zxing_lib/zxing/ReaderException.h ****   ~ReaderException() throw() {}
 1218              		.loc 7 31 0
 1219 0104 001000E3 		movw	r1, #:lower16:.LC1
 1220 0108 001040E3 		movt	r1, #:upper16:.LC1
 1221 010c FEFFFFEB 		bl	_ZN5zxing9ExceptionC2EPKc
 1222              	.LVL90:
 1223              	.LBE804:
 1224              	.LBE803:
  29:/home/zkmike/workspace/RZA2M/rza2m_2d_barcode_sample_freertos_gcc/src/zxing_lib/zxing/NotFoundException.h ****   ~NotFoundException() throw() {}
 1225              		.loc 6 29 0
 1226 0110 58309FE5 		ldr	r3, .L97+4
 1227 0114 003085E5 		str	r3, [r5]
 1228              	.LVL91:
 1229              	.LBE802:
 1230              	.LBE801:
  49:../src/zxing_lib/zxing/common/detector/WhiteRectangleDetector.cpp **** }
 1231              		.loc 4 49 0
 1232 0118 002000E3 		movw	r2, #:lower16:_ZN5zxing17NotFoundExceptionD1Ev
 1233 011c 002040E3 		movt	r2, #:upper16:_ZN5zxing17NotFoundExceptionD1Ev
 1234 0120 001000E3 		movw	r1, #:lower16:_ZTIN5zxing17NotFoundExceptionE
 1235 0124 001040E3 		movt	r1, #:upper16:_ZTIN5zxing17NotFoundExceptionE
 1236 0128 0500A0E1 		mov	r0, r5
 1237 012c FEFFFFEB 		bl	__cxa_throw
 1238              	.LVL92:
 1239              	.LEHE14:
 1240              	.L92:
 1241              	.LBB805:
 1242              	.LBB806:
  75:/home/zkmike/workspace/RZA2M/rza2m_2d_barcode_sample_freertos_gcc/src/zxing_lib/zxing/common/Counted.h ****       object_->release();
 1243              		.loc 3 75 0
 1244 0130 080094E5 		ldr	r0, [r4, #8]
 1245 0134 000050E3 		cmp	r0, #0
 1246 0138 0A00000A 		beq	.L91
 1247              	.LVL93:
 1248              	.LBB807:
 1249              	.LBB808:
  40:/home/zkmike/workspace/RZA2M/rza2m_2d_barcode_sample_freertos_gcc/src/zxing_lib/zxing/common/Counted.h ****     if (count_ == 0) {
 1250              		.loc 3 40 0
 1251 013c 043090E5 		ldr	r3, [r0, #4]
 1252 0140 013043E2 		sub	r3, r3, #1
 1253 0144 043080E5 		str	r3, [r0, #4]
  41:/home/zkmike/workspace/RZA2M/rza2m_2d_barcode_sample_freertos_gcc/src/zxing_lib/zxing/common/Counted.h ****       count_ = 0xDEADF001;
 1254              		.loc 3 41 0
 1255 0148 000053E3 		cmp	r3, #0
 1256 014c 0500001A 		bne	.L91
  42:/home/zkmike/workspace/RZA2M/rza2m_2d_barcode_sample_freertos_gcc/src/zxing_lib/zxing/common/Counted.h ****       delete this;
 1257              		.loc 3 42 0
 1258 0150 01300FE3 		movw	r3, #61441
 1259 0154 AD3E4DE3 		movt	r3, 57005
 1260 0158 043080E5 		str	r3, [r0, #4]
  43:/home/zkmike/workspace/RZA2M/rza2m_2d_barcode_sample_freertos_gcc/src/zxing_lib/zxing/common/Counted.h ****     }
 1261              		.loc 3 43 0
 1262 015c 003090E5 		ldr	r3, [r0]
 1263 0160 043093E5 		ldr	r3, [r3, #4]
 1264 0164 33FF2FE1 		blx	r3
 1265              	.LVL94:
 1266              	.L91:
 1267              	.LEHB15:
 1268 0168 FEFFFFEB 		bl	__cxa_end_cleanup
 1269              	.LVL95:
 1270              	.LEHE15:
 1271              	.L98:
 1272              		.align	2
 1273              	.L97:
 1274 016c 08000000 		.word	_ZTVN5zxing22WhiteRectangleDetectorE+8
 1275 0170 08000000 		.word	_ZTVN5zxing17NotFoundExceptionE+8
 1276              	.LBE808:
 1277              	.LBE807:
 1278              	.LBE806:
 1279              	.LBE805:
 1280              	.LBE809:
 1281              		.cfi_endproc
 1282              	.LFE2321:
 1283              		.personality	__gxx_personality_v0
 1284              		.handlerdata
 1285              	.LLSDA2321:
 1286 0008 FF       		.byte	0xff
 1287 0009 FF       		.byte	0xff
 1288 000a 01       		.byte	0x1
 1289 000b 0B       		.uleb128 .LLSDACSE2321-.LLSDACSB2321
 1290              	.LLSDACSB2321:
 1291 000c 5C       		.uleb128 .LEHB14-.LFB2321
 1292 000d D401     		.uleb128 .LEHE14-.LEHB14
 1293 000f B002     		.uleb128 .L92-.LFB2321
 1294 0011 00       		.uleb128 0
 1295 0012 E802     		.uleb128 .LEHB15-.LFB2321
 1296 0014 04       		.uleb128 .LEHE15-.LEHB15
 1297 0015 00       		.uleb128 0
 1298 0016 00       		.uleb128 0
 1299              	.LLSDACSE2321:
 1300              		.section	.text._ZN5zxing22WhiteRectangleDetectorC2ENS_3RefINS_9BitMatrixEEE
 1301              		.fnend
 1303              		.global	_ZN5zxing22WhiteRectangleDetectorC1ENS_3RefINS_9BitMatrixEEE
 1304              		.set	_ZN5zxing22WhiteRectangleDetectorC1ENS_3RefINS_9BitMatrixEEE,_ZN5zxing22WhiteRectangleDetecto
 1305              		.section	.text._ZN5zxing22WhiteRectangleDetectorC2ENS_3RefINS_9BitMatrixEEEiii,"ax",%progbits
 1306              		.align	2
 1307              		.global	_ZN5zxing22WhiteRectangleDetectorC2ENS_3RefINS_9BitMatrixEEEiii
 1308              		.syntax unified
 1309              		.arm
 1310              		.fpu neon
 1312              	_ZN5zxing22WhiteRectangleDetectorC2ENS_3RefINS_9BitMatrixEEEiii:
 1313              		.fnstart
 1314              	.LFB2324:
  53:../src/zxing_lib/zxing/common/detector/WhiteRectangleDetector.cpp ****   width_ = image->getWidth();
 1315              		.loc 4 53 0
 1316              		.cfi_startproc
 1317              		.cfi_personality 0,__gxx_personality_v0
 1318              		.cfi_lsda 0,.LLSDA2324
 1319              		@ args = 4, pretend = 0, frame = 0
 1320              		@ frame_needed = 0, uses_anonymous_args = 0
 1321              	.LVL96:
 1322 0000 F0472DE9 		push	{r4, r5, r6, r7, r8, r9, r10, lr}
 1323              		.save {r4, r5, r6, r7, r8, r9, r10, lr}
 1324              		.cfi_def_cfa_offset 32
 1325              		.cfi_offset 4, -32
 1326              		.cfi_offset 5, -28
 1327              		.cfi_offset 6, -24
 1328              		.cfi_offset 7, -20
 1329              		.cfi_offset 8, -16
 1330              		.cfi_offset 9, -12
 1331              		.cfi_offset 10, -8
 1332              		.cfi_offset 14, -4
 1333 0004 0040A0E1 		mov	r4, r0
 1334 0008 0190A0E1 		mov	r9, r1
 1335 000c 0250A0E1 		mov	r5, r2
 1336 0010 0360A0E1 		mov	r6, r3
 1337 0014 20809DE5 		ldr	r8, [sp, #32]
 1338              	.LVL97:
 1339              	.LBB838:
 1340              	.LBB839:
 1341              	.LBB840:
  31:/home/zkmike/workspace/RZA2M/rza2m_2d_barcode_sample_freertos_gcc/src/zxing_lib/zxing/common/Counted.h ****   }
 1342              		.loc 3 31 0
 1343 0018 0030A0E3 		mov	r3, #0
 1344              	.LVL98:
 1345 001c 043080E5 		str	r3, [r0, #4]
 1346              	.LVL99:
 1347              	.LBE840:
 1348              	.LBE839:
  53:../src/zxing_lib/zxing/common/detector/WhiteRectangleDetector.cpp ****   width_ = image->getWidth();
 1349              		.loc 4 53 0
 1350 0020 38219FE5 		ldr	r2, .L111
 1351              	.LVL100:
 1352 0024 002080E5 		str	r2, [r0]
 1353              	.LVL101:
 1354              	.LBB841:
 1355              	.LBB842:
  64:/home/zkmike/workspace/RZA2M/rza2m_2d_barcode_sample_freertos_gcc/src/zxing_lib/zxing/common/Counted.h ****     reset(other.object_);
 1356              		.loc 3 64 0
 1357 0028 083080E5 		str	r3, [r0, #8]
  65:/home/zkmike/workspace/RZA2M/rza2m_2d_barcode_sample_freertos_gcc/src/zxing_lib/zxing/common/Counted.h ****   }
 1358              		.loc 3 65 0
 1359 002c 007091E5 		ldr	r7, [r1]
 1360              	.LVL102:
 1361              	.LBB843:
 1362              	.LBB844:
  81:/home/zkmike/workspace/RZA2M/rza2m_2d_barcode_sample_freertos_gcc/src/zxing_lib/zxing/common/Counted.h ****       o->retain();
 1363              		.loc 3 81 0
 1364 0030 030057E1 		cmp	r7, r3
 1365              	.LVL103:
 1366              	.LBB845:
 1367              	.LBB846:
  36:/home/zkmike/workspace/RZA2M/rza2m_2d_barcode_sample_freertos_gcc/src/zxing_lib/zxing/common/Counted.h ****     return this;
 1368              		.loc 3 36 0
 1369 0034 04309715 		ldrne	r3, [r7, #4]
 1370 0038 01308312 		addne	r3, r3, #1
 1371 003c 04308715 		strne	r3, [r7, #4]
 1372              	.LVL104:
 1373              	.L100:
 1374              	.LBE846:
 1375              	.LBE845:
  84:/home/zkmike/workspace/RZA2M/rza2m_2d_barcode_sample_freertos_gcc/src/zxing_lib/zxing/common/Counted.h ****       object_->release();
 1376              		.loc 3 84 0
 1377 0040 080094E5 		ldr	r0, [r4, #8]
 1378              	.LVL105:
 1379 0044 000050E3 		cmp	r0, #0
 1380 0048 0400000A 		beq	.L101
 1381              	.LVL106:
 1382              	.LBB847:
 1383              	.LBB848:
  40:/home/zkmike/workspace/RZA2M/rza2m_2d_barcode_sample_freertos_gcc/src/zxing_lib/zxing/common/Counted.h ****     if (count_ == 0) {
 1384              		.loc 3 40 0
 1385 004c 043090E5 		ldr	r3, [r0, #4]
 1386 0050 013043E2 		sub	r3, r3, #1
 1387 0054 043080E5 		str	r3, [r0, #4]
  41:/home/zkmike/workspace/RZA2M/rza2m_2d_barcode_sample_freertos_gcc/src/zxing_lib/zxing/common/Counted.h ****       count_ = 0xDEADF001;
 1388              		.loc 3 41 0
 1389 0058 000053E3 		cmp	r3, #0
 1390 005c 0300000A 		beq	.L109
 1391              	.LVL107:
 1392              	.L101:
 1393              	.LBE848:
 1394              	.LBE847:
 1395              		.loc 3 87 0
 1396 0060 087084E5 		str	r7, [r4, #8]
 1397              	.LVL108:
 1398              	.LBE844:
 1399              	.LBE843:
 1400              	.LBE842:
 1401              	.LBE841:
 1402              	.LBB854:
  54:../src/zxing_lib/zxing/common/detector/WhiteRectangleDetector.cpp ****   height_ = image->getHeight();
 1403              		.loc 4 54 0
 1404 0064 000099E5 		ldr	r0, [r9]
 1405              	.LEHB16:
 1406 0068 FEFFFFEB 		bl	_ZNK5zxing9BitMatrix8getWidthEv
 1407              	.LVL109:
 1408 006c 060000EA 		b	.L110
 1409              	.LVL110:
 1410              	.L109:
 1411              	.LBE854:
 1412              	.LBB859:
 1413              	.LBB853:
 1414              	.LBB852:
 1415              	.LBB851:
 1416              	.LBB850:
 1417              	.LBB849:
  42:/home/zkmike/workspace/RZA2M/rza2m_2d_barcode_sample_freertos_gcc/src/zxing_lib/zxing/common/Counted.h ****       delete this;
 1418              		.loc 3 42 0
 1419 0070 01300FE3 		movw	r3, #61441
 1420 0074 AD3E4DE3 		movt	r3, 57005
 1421 0078 043080E5 		str	r3, [r0, #4]
  43:/home/zkmike/workspace/RZA2M/rza2m_2d_barcode_sample_freertos_gcc/src/zxing_lib/zxing/common/Counted.h ****     }
 1422              		.loc 3 43 0
 1423 007c 003090E5 		ldr	r3, [r0]
 1424 0080 043093E5 		ldr	r3, [r3, #4]
 1425 0084 33FF2FE1 		blx	r3
 1426              	.LVL111:
 1427 0088 F4FFFFEA 		b	.L101
 1428              	.LVL112:
 1429              	.L110:
 1430              	.LBE849:
 1431              	.LBE850:
 1432              	.LBE851:
 1433              	.LBE852:
 1434              	.LBE853:
 1435              	.LBE859:
 1436              	.LBB860:
  54:../src/zxing_lib/zxing/common/detector/WhiteRectangleDetector.cpp ****   height_ = image->getHeight();
 1437              		.loc 4 54 0
 1438 008c 0C0084E5 		str	r0, [r4, #12]
  55:../src/zxing_lib/zxing/common/detector/WhiteRectangleDetector.cpp ****   
 1439              		.loc 4 55 0
 1440 0090 000099E5 		ldr	r0, [r9]
 1441 0094 FEFFFFEB 		bl	_ZNK5zxing9BitMatrix9getHeightEv
 1442              	.LVL113:
  55:../src/zxing_lib/zxing/common/detector/WhiteRectangleDetector.cpp ****   
 1443              		.loc 4 55 0 is_stmt 0 discriminator 1
 1444 0098 100084E5 		str	r0, [r4, #16]
  57:../src/zxing_lib/zxing/common/detector/WhiteRectangleDetector.cpp ****   leftInit_ = x - halfsize;
 1445              		.loc 4 57 0 is_stmt 1 discriminator 1
 1446 009c C520A0E1 		asr	r2, r5, #1
 1447              	.LVL114:
  58:../src/zxing_lib/zxing/common/detector/WhiteRectangleDetector.cpp ****   rightInit_ = x + halfsize;
 1448              		.loc 4 58 0 discriminator 1
 1449 00a0 021046E0 		sub	r1, r6, r2
 1450 00a4 141084E5 		str	r1, [r4, #20]
  59:../src/zxing_lib/zxing/common/detector/WhiteRectangleDetector.cpp ****   upInit_ = y - halfsize;
 1451              		.loc 4 59 0 discriminator 1
 1452 00a8 066082E0 		add	r6, r2, r6
 1453              	.LVL115:
 1454 00ac 186084E5 		str	r6, [r4, #24]
  60:../src/zxing_lib/zxing/common/detector/WhiteRectangleDetector.cpp ****   downInit_ = y + halfsize;
 1455              		.loc 4 60 0 discriminator 1
 1456 00b0 023048E0 		sub	r3, r8, r2
 1457 00b4 203084E5 		str	r3, [r4, #32]
  61:../src/zxing_lib/zxing/common/detector/WhiteRectangleDetector.cpp ****   
 1458              		.loc 4 61 0 discriminator 1
 1459 00b8 082082E0 		add	r2, r2, r8
 1460              	.LVL116:
 1461 00bc 1C2084E5 		str	r2, [r4, #28]
  63:../src/zxing_lib/zxing/common/detector/WhiteRectangleDetector.cpp ****     throw NotFoundException("Invalid dimensions WhiteRectangleDetector");
 1462              		.loc 4 63 0 discriminator 1
 1463 00c0 000053E3 		cmp	r3, #0
 1464 00c4 080000BA 		blt	.L102
 1465 00c8 000051E3 		cmp	r1, #0
 1466 00cc 060000BA 		blt	.L102
  63:../src/zxing_lib/zxing/common/detector/WhiteRectangleDetector.cpp ****     throw NotFoundException("Invalid dimensions WhiteRectangleDetector");
 1467              		.loc 4 63 0 is_stmt 0 discriminator 2
 1468 00d0 020050E1 		cmp	r0, r2
 1469 00d4 040000DA 		ble	.L102
  63:../src/zxing_lib/zxing/common/detector/WhiteRectangleDetector.cpp ****     throw NotFoundException("Invalid dimensions WhiteRectangleDetector");
 1470              		.loc 4 63 0 discriminator 3
 1471 00d8 0C3094E5 		ldr	r3, [r4, #12]
 1472 00dc 030056E1 		cmp	r6, r3
 1473 00e0 010000AA 		bge	.L102
 1474              	.LBE860:
 1475              	.LBE838:
  66:../src/zxing_lib/zxing/common/detector/WhiteRectangleDetector.cpp **** 
 1476              		.loc 4 66 0 is_stmt 1
 1477 00e4 0400A0E1 		mov	r0, r4
 1478 00e8 F087BDE8 		pop	{r4, r5, r6, r7, r8, r9, r10, pc}
 1479              	.L102:
 1480              	.LBB866:
 1481              	.LBB861:
  64:../src/zxing_lib/zxing/common/detector/WhiteRectangleDetector.cpp ****   }
 1482              		.loc 4 64 0
 1483 00ec 0800A0E3 		mov	r0, #8
 1484 00f0 FEFFFFEB 		bl	__cxa_allocate_exception
 1485              	.LVL117:
 1486 00f4 0050A0E1 		mov	r5, r0
 1487              	.LVL118:
 1488              	.LBB855:
 1489              	.LBB856:
 1490              	.LBB857:
 1491              	.LBB858:
  31:/home/zkmike/workspace/RZA2M/rza2m_2d_barcode_sample_freertos_gcc/src/zxing_lib/zxing/ReaderException.h ****   ~ReaderException() throw() {}
 1492              		.loc 7 31 0
 1493 00f8 001000E3 		movw	r1, #:lower16:.LC1
 1494 00fc 001040E3 		movt	r1, #:upper16:.LC1
 1495 0100 FEFFFFEB 		bl	_ZN5zxing9ExceptionC2EPKc
 1496              	.LVL119:
 1497              	.LBE858:
 1498              	.LBE857:
  29:/home/zkmike/workspace/RZA2M/rza2m_2d_barcode_sample_freertos_gcc/src/zxing_lib/zxing/NotFoundException.h ****   ~NotFoundException() throw() {}
 1499              		.loc 6 29 0
 1500 0104 58309FE5 		ldr	r3, .L111+4
 1501 0108 003085E5 		str	r3, [r5]
 1502              	.LVL120:
 1503              	.LBE856:
 1504              	.LBE855:
  64:../src/zxing_lib/zxing/common/detector/WhiteRectangleDetector.cpp ****   }
 1505              		.loc 4 64 0
 1506 010c 002000E3 		movw	r2, #:lower16:_ZN5zxing17NotFoundExceptionD1Ev
 1507 0110 002040E3 		movt	r2, #:upper16:_ZN5zxing17NotFoundExceptionD1Ev
 1508 0114 001000E3 		movw	r1, #:lower16:_ZTIN5zxing17NotFoundExceptionE
 1509 0118 001040E3 		movt	r1, #:upper16:_ZTIN5zxing17NotFoundExceptionE
 1510 011c 0500A0E1 		mov	r0, r5
 1511 0120 FEFFFFEB 		bl	__cxa_throw
 1512              	.LVL121:
 1513              	.LEHE16:
 1514              	.L106:
 1515              	.LBE861:
 1516              	.LBB862:
 1517              	.LBB863:
  75:/home/zkmike/workspace/RZA2M/rza2m_2d_barcode_sample_freertos_gcc/src/zxing_lib/zxing/common/Counted.h ****       object_->release();
 1518              		.loc 3 75 0
 1519 0124 080094E5 		ldr	r0, [r4, #8]
 1520 0128 000050E3 		cmp	r0, #0
 1521 012c 0A00000A 		beq	.L105
 1522              	.LVL122:
 1523              	.LBB864:
 1524              	.LBB865:
  40:/home/zkmike/workspace/RZA2M/rza2m_2d_barcode_sample_freertos_gcc/src/zxing_lib/zxing/common/Counted.h ****     if (count_ == 0) {
 1525              		.loc 3 40 0
 1526 0130 043090E5 		ldr	r3, [r0, #4]
 1527 0134 013043E2 		sub	r3, r3, #1
 1528 0138 043080E5 		str	r3, [r0, #4]
  41:/home/zkmike/workspace/RZA2M/rza2m_2d_barcode_sample_freertos_gcc/src/zxing_lib/zxing/common/Counted.h ****       count_ = 0xDEADF001;
 1529              		.loc 3 41 0
 1530 013c 000053E3 		cmp	r3, #0
 1531 0140 0500001A 		bne	.L105
  42:/home/zkmike/workspace/RZA2M/rza2m_2d_barcode_sample_freertos_gcc/src/zxing_lib/zxing/common/Counted.h ****       delete this;
 1532              		.loc 3 42 0
 1533 0144 01300FE3 		movw	r3, #61441
 1534 0148 AD3E4DE3 		movt	r3, 57005
 1535 014c 043080E5 		str	r3, [r0, #4]
  43:/home/zkmike/workspace/RZA2M/rza2m_2d_barcode_sample_freertos_gcc/src/zxing_lib/zxing/common/Counted.h ****     }
 1536              		.loc 3 43 0
 1537 0150 003090E5 		ldr	r3, [r0]
 1538 0154 043093E5 		ldr	r3, [r3, #4]
 1539 0158 33FF2FE1 		blx	r3
 1540              	.LVL123:
 1541              	.L105:
 1542              	.LEHB17:
 1543 015c FEFFFFEB 		bl	__cxa_end_cleanup
 1544              	.LVL124:
 1545              	.LEHE17:
 1546              	.L112:
 1547              		.align	2
 1548              	.L111:
 1549 0160 08000000 		.word	_ZTVN5zxing22WhiteRectangleDetectorE+8
 1550 0164 08000000 		.word	_ZTVN5zxing17NotFoundExceptionE+8
 1551              	.LBE865:
 1552              	.LBE864:
 1553              	.LBE863:
 1554              	.LBE862:
 1555              	.LBE866:
 1556              		.cfi_endproc
 1557              	.LFE2324:
 1558              		.personality	__gxx_personality_v0
 1559              		.handlerdata
 1560              	.LLSDA2324:
 1561 0008 FF       		.byte	0xff
 1562 0009 FF       		.byte	0xff
 1563 000a 01       		.byte	0x1
 1564 000b 0B       		.uleb128 .LLSDACSE2324-.LLSDACSB2324
 1565              	.LLSDACSB2324:
 1566 000c 68       		.uleb128 .LEHB16-.LFB2324
 1567 000d BC01     		.uleb128 .LEHE16-.LEHB16
 1568 000f A402     		.uleb128 .L106-.LFB2324
 1569 0011 00       		.uleb128 0
 1570 0012 DC02     		.uleb128 .LEHB17-.LFB2324
 1571 0014 04       		.uleb128 .LEHE17-.LEHB17
 1572 0015 00       		.uleb128 0
 1573 0016 00       		.uleb128 0
 1574              	.LLSDACSE2324:
 1575              		.section	.text._ZN5zxing22WhiteRectangleDetectorC2ENS_3RefINS_9BitMatrixEEEiii
 1576              		.fnend
 1578              		.global	_ZN5zxing22WhiteRectangleDetectorC1ENS_3RefINS_9BitMatrixEEEiii
 1579              		.set	_ZN5zxing22WhiteRectangleDetectorC1ENS_3RefINS_9BitMatrixEEEiii,_ZN5zxing22WhiteRectangleDete
 1580              		.section	.text._ZN5zxing22WhiteRectangleDetector22getBlackPointOnSegmentEiiii,"ax",%progbits
 1581              		.align	2
 1582              		.global	_ZN5zxing22WhiteRectangleDetector22getBlackPointOnSegmentEiiii
 1583              		.syntax unified
 1584              		.arm
 1585              		.fpu neon
 1587              	_ZN5zxing22WhiteRectangleDetector22getBlackPointOnSegmentEiiii:
 1588              		.fnstart
 1589              	.LFB2327:
 232:../src/zxing_lib/zxing/common/detector/WhiteRectangleDetector.cpp ****   float aX = float(aX_), aY = float(aY_), bX = float(bX_), bY = float(bY_);
 1590              		.loc 4 232 0
 1591              		.cfi_startproc
 1592              		.cfi_personality 0,__gxx_personality_v0
 1593              		.cfi_lsda 0,.LLSDA2327
 1594              		@ args = 8, pretend = 0, frame = 8
 1595              		@ frame_needed = 0, uses_anonymous_args = 0
 1596              	.LVL125:
 1597 0000 70402DE9 		push	{r4, r5, r6, lr}
 1598              		.save {r4, r5, r6, lr}
 1599              		.cfi_def_cfa_offset 16
 1600              		.cfi_offset 4, -16
 1601              		.cfi_offset 5, -12
 1602              		.cfi_offset 6, -8
 1603              		.cfi_offset 14, -4
 1604 0004 048B2DED 		vpush.64	{d8, d9}
 1605              		.vsave {d8, d9}
 1606              		.cfi_def_cfa_offset 32
 1607              		.cfi_offset 80, -32
 1608              		.cfi_offset 81, -28
 1609              		.cfi_offset 82, -24
 1610              		.cfi_offset 83, -20
 1611              		.pad #8
 1612 0008 08D04DE2 		sub	sp, sp, #8
 1613              		.cfi_def_cfa_offset 40
 1614 000c 0060A0E1 		mov	r6, r0
 1615 0010 0150A0E1 		mov	r5, r1
 233:../src/zxing_lib/zxing/common/detector/WhiteRectangleDetector.cpp ****   int dist = MathUtils::round(MathUtils::distance(aX, aY, bX, bY));
 1616              		.loc 4 233 0
 1617 0014 902A07EE 		vmov	s15, r2	@ int
 1618 0018 E79AB8EE 		vcvt.f32.s32	s18, s15
 1619              	.LVL126:
 1620 001c 903A07EE 		vmov	s15, r3	@ int
 1621 0020 E78AF8EE 		vcvt.f32.s32	s17, s15
 1622              	.LVL127:
 1623 0024 0A7ADDED 		vldr.32	s15, [sp, #40]	@ int
 1624 0028 E79AF8EE 		vcvt.f32.s32	s19, s15
 1625              	.LVL128:
 1626 002c 0B7ADDED 		vldr.32	s15, [sp, #44]	@ int
 1627 0030 E78AB8EE 		vcvt.f32.s32	s16, s15
 1628              	.LVL129:
 1629              	.LBB931:
 1630              	.LBB932:
 1631              		.file 8 "/home/zkmike/workspace/RZA2M/rza2m_2d_barcode_sample_freertos_gcc/src/zxing_lib/zxing/com
   1:/home/zkmike/workspace/RZA2M/rza2m_2d_barcode_sample_freertos_gcc/src/zxing_lib/zxing/common/detector/MathUtils.h **** // -*- mode:c++; tab-width:2; indent-tabs-mode:nil; c-basic-offset:2 -*-
   2:/home/zkmike/workspace/RZA2M/rza2m_2d_barcode_sample_freertos_gcc/src/zxing_lib/zxing/common/detector/MathUtils.h **** #ifndef __ZXING_COMMON_DETECTOR_MATHUTILS_H__
   3:/home/zkmike/workspace/RZA2M/rza2m_2d_barcode_sample_freertos_gcc/src/zxing_lib/zxing/common/detector/MathUtils.h **** #define __ZXING_COMMON_DETECTOR_MATHUTILS_H__
   4:/home/zkmike/workspace/RZA2M/rza2m_2d_barcode_sample_freertos_gcc/src/zxing_lib/zxing/common/detector/MathUtils.h **** /*
   5:/home/zkmike/workspace/RZA2M/rza2m_2d_barcode_sample_freertos_gcc/src/zxing_lib/zxing/common/detector/MathUtils.h ****  *  Copyright 2012 ZXing authors All rights reserved.
   6:/home/zkmike/workspace/RZA2M/rza2m_2d_barcode_sample_freertos_gcc/src/zxing_lib/zxing/common/detector/MathUtils.h ****  *
   7:/home/zkmike/workspace/RZA2M/rza2m_2d_barcode_sample_freertos_gcc/src/zxing_lib/zxing/common/detector/MathUtils.h ****  * Licensed under the Apache License, Version 2.0 (the "License");
   8:/home/zkmike/workspace/RZA2M/rza2m_2d_barcode_sample_freertos_gcc/src/zxing_lib/zxing/common/detector/MathUtils.h ****  * you may not use this file except in compliance with the License.
   9:/home/zkmike/workspace/RZA2M/rza2m_2d_barcode_sample_freertos_gcc/src/zxing_lib/zxing/common/detector/MathUtils.h ****  * You may obtain a copy of the License at
  10:/home/zkmike/workspace/RZA2M/rza2m_2d_barcode_sample_freertos_gcc/src/zxing_lib/zxing/common/detector/MathUtils.h ****  *
  11:/home/zkmike/workspace/RZA2M/rza2m_2d_barcode_sample_freertos_gcc/src/zxing_lib/zxing/common/detector/MathUtils.h ****  *      http://www.apache.org/licenses/LICENSE-2.0
  12:/home/zkmike/workspace/RZA2M/rza2m_2d_barcode_sample_freertos_gcc/src/zxing_lib/zxing/common/detector/MathUtils.h ****  *
  13:/home/zkmike/workspace/RZA2M/rza2m_2d_barcode_sample_freertos_gcc/src/zxing_lib/zxing/common/detector/MathUtils.h ****  * Unless required by applicable law or agreed to in writing, software
  14:/home/zkmike/workspace/RZA2M/rza2m_2d_barcode_sample_freertos_gcc/src/zxing_lib/zxing/common/detector/MathUtils.h ****  * distributed under the License is distributed on an "AS IS" BASIS,
  15:/home/zkmike/workspace/RZA2M/rza2m_2d_barcode_sample_freertos_gcc/src/zxing_lib/zxing/common/detector/MathUtils.h ****  * WITHOUT WARRANTIES OR CONDITIONS OF ANY KIND, either express or implied.
  16:/home/zkmike/workspace/RZA2M/rza2m_2d_barcode_sample_freertos_gcc/src/zxing_lib/zxing/common/detector/MathUtils.h ****  * See the License for the specific language governing permissions and
  17:/home/zkmike/workspace/RZA2M/rza2m_2d_barcode_sample_freertos_gcc/src/zxing_lib/zxing/common/detector/MathUtils.h ****  * limitations under the License.
  18:/home/zkmike/workspace/RZA2M/rza2m_2d_barcode_sample_freertos_gcc/src/zxing_lib/zxing/common/detector/MathUtils.h ****  */
  19:/home/zkmike/workspace/RZA2M/rza2m_2d_barcode_sample_freertos_gcc/src/zxing_lib/zxing/common/detector/MathUtils.h **** 
  20:/home/zkmike/workspace/RZA2M/rza2m_2d_barcode_sample_freertos_gcc/src/zxing_lib/zxing/common/detector/MathUtils.h **** #include <cmath>
  21:/home/zkmike/workspace/RZA2M/rza2m_2d_barcode_sample_freertos_gcc/src/zxing_lib/zxing/common/detector/MathUtils.h **** 
  22:/home/zkmike/workspace/RZA2M/rza2m_2d_barcode_sample_freertos_gcc/src/zxing_lib/zxing/common/detector/MathUtils.h **** namespace zxing {
  23:/home/zkmike/workspace/RZA2M/rza2m_2d_barcode_sample_freertos_gcc/src/zxing_lib/zxing/common/detector/MathUtils.h **** namespace common {
  24:/home/zkmike/workspace/RZA2M/rza2m_2d_barcode_sample_freertos_gcc/src/zxing_lib/zxing/common/detector/MathUtils.h **** namespace detector {
  25:/home/zkmike/workspace/RZA2M/rza2m_2d_barcode_sample_freertos_gcc/src/zxing_lib/zxing/common/detector/MathUtils.h **** 
  26:/home/zkmike/workspace/RZA2M/rza2m_2d_barcode_sample_freertos_gcc/src/zxing_lib/zxing/common/detector/MathUtils.h **** class MathUtils {
  27:/home/zkmike/workspace/RZA2M/rza2m_2d_barcode_sample_freertos_gcc/src/zxing_lib/zxing/common/detector/MathUtils.h ****  private:
  28:/home/zkmike/workspace/RZA2M/rza2m_2d_barcode_sample_freertos_gcc/src/zxing_lib/zxing/common/detector/MathUtils.h ****   MathUtils();
  29:/home/zkmike/workspace/RZA2M/rza2m_2d_barcode_sample_freertos_gcc/src/zxing_lib/zxing/common/detector/MathUtils.h ****   ~MathUtils();
  30:/home/zkmike/workspace/RZA2M/rza2m_2d_barcode_sample_freertos_gcc/src/zxing_lib/zxing/common/detector/MathUtils.h ****  public:
  31:/home/zkmike/workspace/RZA2M/rza2m_2d_barcode_sample_freertos_gcc/src/zxing_lib/zxing/common/detector/MathUtils.h **** 
  32:/home/zkmike/workspace/RZA2M/rza2m_2d_barcode_sample_freertos_gcc/src/zxing_lib/zxing/common/detector/MathUtils.h ****   /**
  33:/home/zkmike/workspace/RZA2M/rza2m_2d_barcode_sample_freertos_gcc/src/zxing_lib/zxing/common/detector/MathUtils.h ****    * Ends up being a bit faster than {@link Math#round(float)}. This merely rounds its
  34:/home/zkmike/workspace/RZA2M/rza2m_2d_barcode_sample_freertos_gcc/src/zxing_lib/zxing/common/detector/MathUtils.h ****    * argument to the nearest int, where x.5 rounds up to x+1.
  35:/home/zkmike/workspace/RZA2M/rza2m_2d_barcode_sample_freertos_gcc/src/zxing_lib/zxing/common/detector/MathUtils.h ****    */
  36:/home/zkmike/workspace/RZA2M/rza2m_2d_barcode_sample_freertos_gcc/src/zxing_lib/zxing/common/detector/MathUtils.h ****   static inline int round(float d) {
  37:/home/zkmike/workspace/RZA2M/rza2m_2d_barcode_sample_freertos_gcc/src/zxing_lib/zxing/common/detector/MathUtils.h ****     return (int) (d + 0.5f);
  38:/home/zkmike/workspace/RZA2M/rza2m_2d_barcode_sample_freertos_gcc/src/zxing_lib/zxing/common/detector/MathUtils.h ****   }
  39:/home/zkmike/workspace/RZA2M/rza2m_2d_barcode_sample_freertos_gcc/src/zxing_lib/zxing/common/detector/MathUtils.h **** 
  40:/home/zkmike/workspace/RZA2M/rza2m_2d_barcode_sample_freertos_gcc/src/zxing_lib/zxing/common/detector/MathUtils.h ****   static inline float distance(float aX, float aY, float bX, float bY) {
  41:/home/zkmike/workspace/RZA2M/rza2m_2d_barcode_sample_freertos_gcc/src/zxing_lib/zxing/common/detector/MathUtils.h ****     float xDiff = aX - bX;
 1632              		.loc 8 41 0
 1633 0034 697A79EE 		vsub.f32	s15, s18, s19
 1634              	.LVL130:
  42:/home/zkmike/workspace/RZA2M/rza2m_2d_barcode_sample_freertos_gcc/src/zxing_lib/zxing/common/detector/MathUtils.h ****     float yDiff = aY - bY;
 1635              		.loc 8 42 0
 1636 0038 C80A38EE 		vsub.f32	s0, s17, s16
 1637              	.LVL131:
  43:/home/zkmike/workspace/RZA2M/rza2m_2d_barcode_sample_freertos_gcc/src/zxing_lib/zxing/common/detector/MathUtils.h ****     return sqrt(xDiff * xDiff + yDiff * yDiff);
 1638              		.loc 8 43 0
 1639 003c 000A20EE 		vmul.f32	s0, s0, s0
 1640              	.LVL132:
 1641 0040 A70A07EE 		vmla.f32	s0, s15, s15
 1642 0044 C00AB7EE 		vcvt.f64.f32	d0, s0
 1643 0048 FEFFFFEB 		bl	sqrt
 1644              	.LVL133:
 1645 004c C00BB7EE 		vcvt.f32.f64	s0, d0
 1646              	.LVL134:
 1647              	.LBE932:
 1648              	.LBE931:
 1649              	.LBB933:
 1650              	.LBB934:
  37:/home/zkmike/workspace/RZA2M/rza2m_2d_barcode_sample_freertos_gcc/src/zxing_lib/zxing/common/detector/MathUtils.h ****   }
 1651              		.loc 8 37 0
 1652 0050 007AF6EE 		vmov.f32	s15, #5.0e-1
 1653 0054 270A30EE 		vadd.f32	s0, s0, s15
 1654 0058 C07AFDEE 		vcvt.s32.f32	s15, s0
 1655 005c 90CA17EE 		vmov	ip, s15	@ int
 1656              	.LBE934:
 1657              	.LBE933:
 235:../src/zxing_lib/zxing/common/detector/WhiteRectangleDetector.cpp ****   float yStep = (bY - aY) / dist;
 1658              		.loc 4 235 0
 1659 0060 C99A79EE 		vsub.f32	s19, s19, s18
 1660              	.LVL135:
 1661 0064 E77AF8EE 		vcvt.f32.s32	s15, s15
 1662 0068 A75AC9EE 		vdiv.f32	s11, s19, s15
 1663              	.LVL136:
 236:../src/zxing_lib/zxing/common/detector/WhiteRectangleDetector.cpp **** 
 1664              		.loc 4 236 0
 1665 006c 688A38EE 		vsub.f32	s16, s16, s17
 1666              	.LVL137:
 1667 0070 276A88EE 		vdiv.f32	s12, s16, s15
 1668              	.LVL138:
 1669              	.LBB935:
 238:../src/zxing_lib/zxing/common/detector/WhiteRectangleDetector.cpp ****     int x = MathUtils::round(aX + i * xStep);
 1670              		.loc 4 238 0
 1671 0074 0030A0E3 		mov	r3, #0
 1672              	.LVL139:
 1673              	.L122:
 238:../src/zxing_lib/zxing/common/detector/WhiteRectangleDetector.cpp ****     int x = MathUtils::round(aX + i * xStep);
 1674              		.loc 4 238 0 is_stmt 0 discriminator 1
 1675 0078 0C0053E1 		cmp	r3, ip
 1676 007c 5A0000AA 		bge	.L114
 1677              	.LBB936:
 239:../src/zxing_lib/zxing/common/detector/WhiteRectangleDetector.cpp ****     int y = MathUtils::round(aY + i * yStep);
 1678              		.loc 4 239 0 is_stmt 1
 1679 0080 903A07EE 		vmov	s15, r3	@ int
 1680 0084 E76AF8EE 		vcvt.f32.s32	s13, s15
 1681 0088 497AF0EE 		vmov.f32	s15, s18
 1682 008c A67A45EE 		vmla.f32	s15, s11, s13
 1683              	.LVL140:
 1684              	.LBB937:
 1685              	.LBB938:
  37:/home/zkmike/workspace/RZA2M/rza2m_2d_barcode_sample_freertos_gcc/src/zxing_lib/zxing/common/detector/MathUtils.h ****   }
 1686              		.loc 8 37 0
 1687 0090 007AB6EE 		vmov.f32	s14, #5.0e-1
 1688 0094 877A77EE 		vadd.f32	s15, s15, s14
 1689              	.LVL141:
 1690 0098 E77AFDEE 		vcvt.s32.f32	s15, s15
 1691 009c 904A17EE 		vmov	r4, s15	@ int
 1692              	.LVL142:
 1693              	.LBE938:
 1694              	.LBE937:
 240:../src/zxing_lib/zxing/common/detector/WhiteRectangleDetector.cpp ****     if (image_->get(x, y)) {
 1695              		.loc 4 240 0
 1696 00a0 688AB0EE 		vmov.f32	s16, s17
 1697 00a4 268A06EE 		vmla.f32	s16, s12, s13
 1698              	.LVL143:
 1699              	.LBB939:
 1700              	.LBB940:
  37:/home/zkmike/workspace/RZA2M/rza2m_2d_barcode_sample_freertos_gcc/src/zxing_lib/zxing/common/detector/MathUtils.h ****   }
 1701              		.loc 8 37 0
 1702 00a8 078A38EE 		vadd.f32	s16, s16, s14
 1703              	.LVL144:
 1704 00ac C88ABDEE 		vcvt.s32.f32	s16, s16
 1705              	.LVL145:
 1706              	.LBE940:
 1707              	.LBE939:
 1708              	.LBB941:
 1709              	.LBB942:
 1710              	.LBB943:
  88:/home/zkmike/workspace/RZA2M/rza2m_2d_barcode_sample_freertos_gcc/src/zxing_lib/zxing/common/Counted.h ****   }
  89:/home/zkmike/workspace/RZA2M/rza2m_2d_barcode_sample_freertos_gcc/src/zxing_lib/zxing/common/Counted.h ****   Ref& operator=(const Ref &other) {
  90:/home/zkmike/workspace/RZA2M/rza2m_2d_barcode_sample_freertos_gcc/src/zxing_lib/zxing/common/Counted.h ****     reset(other.object_);
  91:/home/zkmike/workspace/RZA2M/rza2m_2d_barcode_sample_freertos_gcc/src/zxing_lib/zxing/common/Counted.h ****     return *this;
  92:/home/zkmike/workspace/RZA2M/rza2m_2d_barcode_sample_freertos_gcc/src/zxing_lib/zxing/common/Counted.h ****   }
  93:/home/zkmike/workspace/RZA2M/rza2m_2d_barcode_sample_freertos_gcc/src/zxing_lib/zxing/common/Counted.h ****   template<class Y>
  94:/home/zkmike/workspace/RZA2M/rza2m_2d_barcode_sample_freertos_gcc/src/zxing_lib/zxing/common/Counted.h ****   Ref& operator=(const Ref<Y> &other) {
  95:/home/zkmike/workspace/RZA2M/rza2m_2d_barcode_sample_freertos_gcc/src/zxing_lib/zxing/common/Counted.h ****     reset(other.object_);
  96:/home/zkmike/workspace/RZA2M/rza2m_2d_barcode_sample_freertos_gcc/src/zxing_lib/zxing/common/Counted.h ****     return *this;
  97:/home/zkmike/workspace/RZA2M/rza2m_2d_barcode_sample_freertos_gcc/src/zxing_lib/zxing/common/Counted.h ****   }
  98:/home/zkmike/workspace/RZA2M/rza2m_2d_barcode_sample_freertos_gcc/src/zxing_lib/zxing/common/Counted.h ****   Ref& operator=(T* o) {
  99:/home/zkmike/workspace/RZA2M/rza2m_2d_barcode_sample_freertos_gcc/src/zxing_lib/zxing/common/Counted.h ****     reset(o);
 100:/home/zkmike/workspace/RZA2M/rza2m_2d_barcode_sample_freertos_gcc/src/zxing_lib/zxing/common/Counted.h ****     return *this;
 101:/home/zkmike/workspace/RZA2M/rza2m_2d_barcode_sample_freertos_gcc/src/zxing_lib/zxing/common/Counted.h ****   }
 102:/home/zkmike/workspace/RZA2M/rza2m_2d_barcode_sample_freertos_gcc/src/zxing_lib/zxing/common/Counted.h ****   template<class Y>
 103:/home/zkmike/workspace/RZA2M/rza2m_2d_barcode_sample_freertos_gcc/src/zxing_lib/zxing/common/Counted.h ****   Ref& operator=(Y* o) {
 104:/home/zkmike/workspace/RZA2M/rza2m_2d_barcode_sample_freertos_gcc/src/zxing_lib/zxing/common/Counted.h ****     reset(o);
 105:/home/zkmike/workspace/RZA2M/rza2m_2d_barcode_sample_freertos_gcc/src/zxing_lib/zxing/common/Counted.h ****     return *this;
 106:/home/zkmike/workspace/RZA2M/rza2m_2d_barcode_sample_freertos_gcc/src/zxing_lib/zxing/common/Counted.h ****   }
 107:/home/zkmike/workspace/RZA2M/rza2m_2d_barcode_sample_freertos_gcc/src/zxing_lib/zxing/common/Counted.h **** 
 108:/home/zkmike/workspace/RZA2M/rza2m_2d_barcode_sample_freertos_gcc/src/zxing_lib/zxing/common/Counted.h ****   T& operator*() {
 109:/home/zkmike/workspace/RZA2M/rza2m_2d_barcode_sample_freertos_gcc/src/zxing_lib/zxing/common/Counted.h ****     return *object_;
 110:/home/zkmike/workspace/RZA2M/rza2m_2d_barcode_sample_freertos_gcc/src/zxing_lib/zxing/common/Counted.h ****   }
 111:/home/zkmike/workspace/RZA2M/rza2m_2d_barcode_sample_freertos_gcc/src/zxing_lib/zxing/common/Counted.h ****   T* operator->() const {
 112:/home/zkmike/workspace/RZA2M/rza2m_2d_barcode_sample_freertos_gcc/src/zxing_lib/zxing/common/Counted.h ****     return object_;
 1711              		.loc 3 112 0
 1712 00b0 081095E5 		ldr	r1, [r5, #8]
 1713              	.LVL146:
 1714              	.LBE943:
 1715              	.LBE942:
 1716              	.LBB944:
 1717              	.LBB945:
 1718              		.file 9 "/home/zkmike/workspace/RZA2M/rza2m_2d_barcode_sample_freertos_gcc/src/zxing_lib/zxing/com
   1:/home/zkmike/workspace/RZA2M/rza2m_2d_barcode_sample_freertos_gcc/src/zxing_lib/zxing/common/BitMatrix.h **** // -*- mode:c++; tab-width:2; indent-tabs-mode:nil; c-basic-offset:2 -*-
   2:/home/zkmike/workspace/RZA2M/rza2m_2d_barcode_sample_freertos_gcc/src/zxing_lib/zxing/common/BitMatrix.h **** #ifndef __BIT_MATRIX_H__
   3:/home/zkmike/workspace/RZA2M/rza2m_2d_barcode_sample_freertos_gcc/src/zxing_lib/zxing/common/BitMatrix.h **** #define __BIT_MATRIX_H__
   4:/home/zkmike/workspace/RZA2M/rza2m_2d_barcode_sample_freertos_gcc/src/zxing_lib/zxing/common/BitMatrix.h **** 
   5:/home/zkmike/workspace/RZA2M/rza2m_2d_barcode_sample_freertos_gcc/src/zxing_lib/zxing/common/BitMatrix.h **** /*
   6:/home/zkmike/workspace/RZA2M/rza2m_2d_barcode_sample_freertos_gcc/src/zxing_lib/zxing/common/BitMatrix.h ****  *  BitMatrix.h
   7:/home/zkmike/workspace/RZA2M/rza2m_2d_barcode_sample_freertos_gcc/src/zxing_lib/zxing/common/BitMatrix.h ****  *  zxing
   8:/home/zkmike/workspace/RZA2M/rza2m_2d_barcode_sample_freertos_gcc/src/zxing_lib/zxing/common/BitMatrix.h ****  *
   9:/home/zkmike/workspace/RZA2M/rza2m_2d_barcode_sample_freertos_gcc/src/zxing_lib/zxing/common/BitMatrix.h ****  *  Copyright 2010 ZXing authors All rights reserved.
  10:/home/zkmike/workspace/RZA2M/rza2m_2d_barcode_sample_freertos_gcc/src/zxing_lib/zxing/common/BitMatrix.h ****  *
  11:/home/zkmike/workspace/RZA2M/rza2m_2d_barcode_sample_freertos_gcc/src/zxing_lib/zxing/common/BitMatrix.h ****  * Licensed under the Apache License, Version 2.0 (the "License");
  12:/home/zkmike/workspace/RZA2M/rza2m_2d_barcode_sample_freertos_gcc/src/zxing_lib/zxing/common/BitMatrix.h ****  * you may not use this file except in compliance with the License.
  13:/home/zkmike/workspace/RZA2M/rza2m_2d_barcode_sample_freertos_gcc/src/zxing_lib/zxing/common/BitMatrix.h ****  * You may obtain a copy of the License at
  14:/home/zkmike/workspace/RZA2M/rza2m_2d_barcode_sample_freertos_gcc/src/zxing_lib/zxing/common/BitMatrix.h ****  *
  15:/home/zkmike/workspace/RZA2M/rza2m_2d_barcode_sample_freertos_gcc/src/zxing_lib/zxing/common/BitMatrix.h ****  *      http://www.apache.org/licenses/LICENSE-2.0
  16:/home/zkmike/workspace/RZA2M/rza2m_2d_barcode_sample_freertos_gcc/src/zxing_lib/zxing/common/BitMatrix.h ****  *
  17:/home/zkmike/workspace/RZA2M/rza2m_2d_barcode_sample_freertos_gcc/src/zxing_lib/zxing/common/BitMatrix.h ****  * Unless required by applicable law or agreed to in writing, software
  18:/home/zkmike/workspace/RZA2M/rza2m_2d_barcode_sample_freertos_gcc/src/zxing_lib/zxing/common/BitMatrix.h ****  * distributed under the License is distributed on an "AS IS" BASIS,
  19:/home/zkmike/workspace/RZA2M/rza2m_2d_barcode_sample_freertos_gcc/src/zxing_lib/zxing/common/BitMatrix.h ****  * WITHOUT WARRANTIES OR CONDITIONS OF ANY KIND, either express or implied.
  20:/home/zkmike/workspace/RZA2M/rza2m_2d_barcode_sample_freertos_gcc/src/zxing_lib/zxing/common/BitMatrix.h ****  * See the License for the specific language governing permissions and
  21:/home/zkmike/workspace/RZA2M/rza2m_2d_barcode_sample_freertos_gcc/src/zxing_lib/zxing/common/BitMatrix.h ****  * limitations under the License.
  22:/home/zkmike/workspace/RZA2M/rza2m_2d_barcode_sample_freertos_gcc/src/zxing_lib/zxing/common/BitMatrix.h ****  */
  23:/home/zkmike/workspace/RZA2M/rza2m_2d_barcode_sample_freertos_gcc/src/zxing_lib/zxing/common/BitMatrix.h **** 
  24:/home/zkmike/workspace/RZA2M/rza2m_2d_barcode_sample_freertos_gcc/src/zxing_lib/zxing/common/BitMatrix.h **** #include <zxing/common/Counted.h>
  25:/home/zkmike/workspace/RZA2M/rza2m_2d_barcode_sample_freertos_gcc/src/zxing_lib/zxing/common/BitMatrix.h **** #include <zxing/common/BitArray.h>
  26:/home/zkmike/workspace/RZA2M/rza2m_2d_barcode_sample_freertos_gcc/src/zxing_lib/zxing/common/BitMatrix.h **** #include <zxing/common/Array.h>
  27:/home/zkmike/workspace/RZA2M/rza2m_2d_barcode_sample_freertos_gcc/src/zxing_lib/zxing/common/BitMatrix.h **** #include <limits>
  28:/home/zkmike/workspace/RZA2M/rza2m_2d_barcode_sample_freertos_gcc/src/zxing_lib/zxing/common/BitMatrix.h **** 
  29:/home/zkmike/workspace/RZA2M/rza2m_2d_barcode_sample_freertos_gcc/src/zxing_lib/zxing/common/BitMatrix.h **** namespace zxing {
  30:/home/zkmike/workspace/RZA2M/rza2m_2d_barcode_sample_freertos_gcc/src/zxing_lib/zxing/common/BitMatrix.h **** 
  31:/home/zkmike/workspace/RZA2M/rza2m_2d_barcode_sample_freertos_gcc/src/zxing_lib/zxing/common/BitMatrix.h **** class BitMatrix : public Counted {
  32:/home/zkmike/workspace/RZA2M/rza2m_2d_barcode_sample_freertos_gcc/src/zxing_lib/zxing/common/BitMatrix.h **** public:
  33:/home/zkmike/workspace/RZA2M/rza2m_2d_barcode_sample_freertos_gcc/src/zxing_lib/zxing/common/BitMatrix.h ****   static const int bitsPerWord = std::numeric_limits<unsigned int>::digits;
  34:/home/zkmike/workspace/RZA2M/rza2m_2d_barcode_sample_freertos_gcc/src/zxing_lib/zxing/common/BitMatrix.h **** 
  35:/home/zkmike/workspace/RZA2M/rza2m_2d_barcode_sample_freertos_gcc/src/zxing_lib/zxing/common/BitMatrix.h **** private:
  36:/home/zkmike/workspace/RZA2M/rza2m_2d_barcode_sample_freertos_gcc/src/zxing_lib/zxing/common/BitMatrix.h ****   int width;
  37:/home/zkmike/workspace/RZA2M/rza2m_2d_barcode_sample_freertos_gcc/src/zxing_lib/zxing/common/BitMatrix.h ****   int height;
  38:/home/zkmike/workspace/RZA2M/rza2m_2d_barcode_sample_freertos_gcc/src/zxing_lib/zxing/common/BitMatrix.h ****   int rowSize;
  39:/home/zkmike/workspace/RZA2M/rza2m_2d_barcode_sample_freertos_gcc/src/zxing_lib/zxing/common/BitMatrix.h ****   ArrayRef<int> bits;
  40:/home/zkmike/workspace/RZA2M/rza2m_2d_barcode_sample_freertos_gcc/src/zxing_lib/zxing/common/BitMatrix.h **** 
  41:/home/zkmike/workspace/RZA2M/rza2m_2d_barcode_sample_freertos_gcc/src/zxing_lib/zxing/common/BitMatrix.h **** #define ZX_LOG_DIGITS(digits) \
  42:/home/zkmike/workspace/RZA2M/rza2m_2d_barcode_sample_freertos_gcc/src/zxing_lib/zxing/common/BitMatrix.h ****     ((digits == 8) ? 3 : \
  43:/home/zkmike/workspace/RZA2M/rza2m_2d_barcode_sample_freertos_gcc/src/zxing_lib/zxing/common/BitMatrix.h ****      ((digits == 16) ? 4 : \
  44:/home/zkmike/workspace/RZA2M/rza2m_2d_barcode_sample_freertos_gcc/src/zxing_lib/zxing/common/BitMatrix.h ****       ((digits == 32) ? 5 : \
  45:/home/zkmike/workspace/RZA2M/rza2m_2d_barcode_sample_freertos_gcc/src/zxing_lib/zxing/common/BitMatrix.h ****        ((digits == 64) ? 6 : \
  46:/home/zkmike/workspace/RZA2M/rza2m_2d_barcode_sample_freertos_gcc/src/zxing_lib/zxing/common/BitMatrix.h ****         ((digits == 128) ? 7 : \
  47:/home/zkmike/workspace/RZA2M/rza2m_2d_barcode_sample_freertos_gcc/src/zxing_lib/zxing/common/BitMatrix.h ****          (-1))))))
  48:/home/zkmike/workspace/RZA2M/rza2m_2d_barcode_sample_freertos_gcc/src/zxing_lib/zxing/common/BitMatrix.h **** 
  49:/home/zkmike/workspace/RZA2M/rza2m_2d_barcode_sample_freertos_gcc/src/zxing_lib/zxing/common/BitMatrix.h ****   static const int logBits = ZX_LOG_DIGITS(bitsPerWord);
  50:/home/zkmike/workspace/RZA2M/rza2m_2d_barcode_sample_freertos_gcc/src/zxing_lib/zxing/common/BitMatrix.h ****   static const int bitsMask = (1 << logBits) - 1;
  51:/home/zkmike/workspace/RZA2M/rza2m_2d_barcode_sample_freertos_gcc/src/zxing_lib/zxing/common/BitMatrix.h **** 
  52:/home/zkmike/workspace/RZA2M/rza2m_2d_barcode_sample_freertos_gcc/src/zxing_lib/zxing/common/BitMatrix.h **** public:
  53:/home/zkmike/workspace/RZA2M/rza2m_2d_barcode_sample_freertos_gcc/src/zxing_lib/zxing/common/BitMatrix.h ****   BitMatrix(int dimension);
  54:/home/zkmike/workspace/RZA2M/rza2m_2d_barcode_sample_freertos_gcc/src/zxing_lib/zxing/common/BitMatrix.h ****   BitMatrix(int width, int height);
  55:/home/zkmike/workspace/RZA2M/rza2m_2d_barcode_sample_freertos_gcc/src/zxing_lib/zxing/common/BitMatrix.h **** 
  56:/home/zkmike/workspace/RZA2M/rza2m_2d_barcode_sample_freertos_gcc/src/zxing_lib/zxing/common/BitMatrix.h ****   ~BitMatrix();
  57:/home/zkmike/workspace/RZA2M/rza2m_2d_barcode_sample_freertos_gcc/src/zxing_lib/zxing/common/BitMatrix.h **** 
  58:/home/zkmike/workspace/RZA2M/rza2m_2d_barcode_sample_freertos_gcc/src/zxing_lib/zxing/common/BitMatrix.h ****   bool get(int x, int y) const {
  59:/home/zkmike/workspace/RZA2M/rza2m_2d_barcode_sample_freertos_gcc/src/zxing_lib/zxing/common/BitMatrix.h ****     int offset = y * rowSize + (x >> logBits);
 1719              		.loc 9 59 0
 1720 00b4 102091E5 		ldr	r2, [r1, #16]
 1721 00b8 C402A0E1 		asr	r0, r4, #5
 1722 00bc 10EA18EE 		vmov	lr, s16	@ int
 1723 00c0 9E0222E0 		mla	r2, lr, r2, r0
 1724              	.LVL147:
 1725              	.LBB946:
 1726              	.LBB947:
 1727              		.file 10 "/home/zkmike/workspace/RZA2M/rza2m_2d_barcode_sample_freertos_gcc/src/zxing_lib/zxing/co
   1:/home/zkmike/workspace/RZA2M/rza2m_2d_barcode_sample_freertos_gcc/src/zxing_lib/zxing/common/Array.h **** // -*- mode:c++; tab-width:2; indent-tabs-mode:nil; c-basic-offset:2 -*-
   2:/home/zkmike/workspace/RZA2M/rza2m_2d_barcode_sample_freertos_gcc/src/zxing_lib/zxing/common/Array.h **** #ifndef __ARRAY_H__
   3:/home/zkmike/workspace/RZA2M/rza2m_2d_barcode_sample_freertos_gcc/src/zxing_lib/zxing/common/Array.h **** #define __ARRAY_H__
   4:/home/zkmike/workspace/RZA2M/rza2m_2d_barcode_sample_freertos_gcc/src/zxing_lib/zxing/common/Array.h **** 
   5:/home/zkmike/workspace/RZA2M/rza2m_2d_barcode_sample_freertos_gcc/src/zxing_lib/zxing/common/Array.h **** /*
   6:/home/zkmike/workspace/RZA2M/rza2m_2d_barcode_sample_freertos_gcc/src/zxing_lib/zxing/common/Array.h ****  *  Array.h
   7:/home/zkmike/workspace/RZA2M/rza2m_2d_barcode_sample_freertos_gcc/src/zxing_lib/zxing/common/Array.h ****  *  zxing
   8:/home/zkmike/workspace/RZA2M/rza2m_2d_barcode_sample_freertos_gcc/src/zxing_lib/zxing/common/Array.h ****  *
   9:/home/zkmike/workspace/RZA2M/rza2m_2d_barcode_sample_freertos_gcc/src/zxing_lib/zxing/common/Array.h ****  *  Copyright 2010 ZXing authors All rights reserved.
  10:/home/zkmike/workspace/RZA2M/rza2m_2d_barcode_sample_freertos_gcc/src/zxing_lib/zxing/common/Array.h ****  *
  11:/home/zkmike/workspace/RZA2M/rza2m_2d_barcode_sample_freertos_gcc/src/zxing_lib/zxing/common/Array.h ****  * Licensed under the Apache License, Version 2.0 (the "License");
  12:/home/zkmike/workspace/RZA2M/rza2m_2d_barcode_sample_freertos_gcc/src/zxing_lib/zxing/common/Array.h ****  * you may not use this file except in compliance with the License.
  13:/home/zkmike/workspace/RZA2M/rza2m_2d_barcode_sample_freertos_gcc/src/zxing_lib/zxing/common/Array.h ****  * You may obtain a copy of the License at
  14:/home/zkmike/workspace/RZA2M/rza2m_2d_barcode_sample_freertos_gcc/src/zxing_lib/zxing/common/Array.h ****  *
  15:/home/zkmike/workspace/RZA2M/rza2m_2d_barcode_sample_freertos_gcc/src/zxing_lib/zxing/common/Array.h ****  *      http://www.apache.org/licenses/LICENSE-2.0
  16:/home/zkmike/workspace/RZA2M/rza2m_2d_barcode_sample_freertos_gcc/src/zxing_lib/zxing/common/Array.h ****  *
  17:/home/zkmike/workspace/RZA2M/rza2m_2d_barcode_sample_freertos_gcc/src/zxing_lib/zxing/common/Array.h ****  * Unless required by applicable law or agreed to in writing, software
  18:/home/zkmike/workspace/RZA2M/rza2m_2d_barcode_sample_freertos_gcc/src/zxing_lib/zxing/common/Array.h ****  * distributed under the License is distributed on an "AS IS" BASIS,
  19:/home/zkmike/workspace/RZA2M/rza2m_2d_barcode_sample_freertos_gcc/src/zxing_lib/zxing/common/Array.h ****  * WITHOUT WARRANTIES OR CONDITIONS OF ANY KIND, either express or implied.
  20:/home/zkmike/workspace/RZA2M/rza2m_2d_barcode_sample_freertos_gcc/src/zxing_lib/zxing/common/Array.h ****  * See the License for the specific language governing permissions and
  21:/home/zkmike/workspace/RZA2M/rza2m_2d_barcode_sample_freertos_gcc/src/zxing_lib/zxing/common/Array.h ****  * limitations under the License.
  22:/home/zkmike/workspace/RZA2M/rza2m_2d_barcode_sample_freertos_gcc/src/zxing_lib/zxing/common/Array.h ****  */
  23:/home/zkmike/workspace/RZA2M/rza2m_2d_barcode_sample_freertos_gcc/src/zxing_lib/zxing/common/Array.h **** 
  24:/home/zkmike/workspace/RZA2M/rza2m_2d_barcode_sample_freertos_gcc/src/zxing_lib/zxing/common/Array.h **** #include <vector>
  25:/home/zkmike/workspace/RZA2M/rza2m_2d_barcode_sample_freertos_gcc/src/zxing_lib/zxing/common/Array.h **** 
  26:/home/zkmike/workspace/RZA2M/rza2m_2d_barcode_sample_freertos_gcc/src/zxing_lib/zxing/common/Array.h **** #include <zxing/common/Counted.h>
  27:/home/zkmike/workspace/RZA2M/rza2m_2d_barcode_sample_freertos_gcc/src/zxing_lib/zxing/common/Array.h **** 
  28:/home/zkmike/workspace/RZA2M/rza2m_2d_barcode_sample_freertos_gcc/src/zxing_lib/zxing/common/Array.h **** namespace zxing {
  29:/home/zkmike/workspace/RZA2M/rza2m_2d_barcode_sample_freertos_gcc/src/zxing_lib/zxing/common/Array.h **** 
  30:/home/zkmike/workspace/RZA2M/rza2m_2d_barcode_sample_freertos_gcc/src/zxing_lib/zxing/common/Array.h **** template<typename T> class Array : public Counted {
  31:/home/zkmike/workspace/RZA2M/rza2m_2d_barcode_sample_freertos_gcc/src/zxing_lib/zxing/common/Array.h **** protected:
  32:/home/zkmike/workspace/RZA2M/rza2m_2d_barcode_sample_freertos_gcc/src/zxing_lib/zxing/common/Array.h **** public:
  33:/home/zkmike/workspace/RZA2M/rza2m_2d_barcode_sample_freertos_gcc/src/zxing_lib/zxing/common/Array.h ****   std::vector<T> values_;
  34:/home/zkmike/workspace/RZA2M/rza2m_2d_barcode_sample_freertos_gcc/src/zxing_lib/zxing/common/Array.h ****   Array() {}
  35:/home/zkmike/workspace/RZA2M/rza2m_2d_barcode_sample_freertos_gcc/src/zxing_lib/zxing/common/Array.h ****   Array(int n) :
  36:/home/zkmike/workspace/RZA2M/rza2m_2d_barcode_sample_freertos_gcc/src/zxing_lib/zxing/common/Array.h ****       Counted(), values_(n, T()) {
  37:/home/zkmike/workspace/RZA2M/rza2m_2d_barcode_sample_freertos_gcc/src/zxing_lib/zxing/common/Array.h ****   }
  38:/home/zkmike/workspace/RZA2M/rza2m_2d_barcode_sample_freertos_gcc/src/zxing_lib/zxing/common/Array.h ****   Array(T const* ts, int n) :
  39:/home/zkmike/workspace/RZA2M/rza2m_2d_barcode_sample_freertos_gcc/src/zxing_lib/zxing/common/Array.h ****       Counted(), values_(ts, ts+n) {
  40:/home/zkmike/workspace/RZA2M/rza2m_2d_barcode_sample_freertos_gcc/src/zxing_lib/zxing/common/Array.h ****   }
  41:/home/zkmike/workspace/RZA2M/rza2m_2d_barcode_sample_freertos_gcc/src/zxing_lib/zxing/common/Array.h ****   Array(T const* ts, T const* te) :
  42:/home/zkmike/workspace/RZA2M/rza2m_2d_barcode_sample_freertos_gcc/src/zxing_lib/zxing/common/Array.h ****       Counted(), values_(ts, te) {
  43:/home/zkmike/workspace/RZA2M/rza2m_2d_barcode_sample_freertos_gcc/src/zxing_lib/zxing/common/Array.h ****   }
  44:/home/zkmike/workspace/RZA2M/rza2m_2d_barcode_sample_freertos_gcc/src/zxing_lib/zxing/common/Array.h ****   Array(T v, int n) :
  45:/home/zkmike/workspace/RZA2M/rza2m_2d_barcode_sample_freertos_gcc/src/zxing_lib/zxing/common/Array.h ****       Counted(), values_(n, v) {
  46:/home/zkmike/workspace/RZA2M/rza2m_2d_barcode_sample_freertos_gcc/src/zxing_lib/zxing/common/Array.h ****   }
  47:/home/zkmike/workspace/RZA2M/rza2m_2d_barcode_sample_freertos_gcc/src/zxing_lib/zxing/common/Array.h ****   Array(std::vector<T> &v) :
  48:/home/zkmike/workspace/RZA2M/rza2m_2d_barcode_sample_freertos_gcc/src/zxing_lib/zxing/common/Array.h ****       Counted(), values_(v) {
  49:/home/zkmike/workspace/RZA2M/rza2m_2d_barcode_sample_freertos_gcc/src/zxing_lib/zxing/common/Array.h ****   }
  50:/home/zkmike/workspace/RZA2M/rza2m_2d_barcode_sample_freertos_gcc/src/zxing_lib/zxing/common/Array.h ****   Array(Array<T> &other) :
  51:/home/zkmike/workspace/RZA2M/rza2m_2d_barcode_sample_freertos_gcc/src/zxing_lib/zxing/common/Array.h ****       Counted(), values_(other.values_) {
  52:/home/zkmike/workspace/RZA2M/rza2m_2d_barcode_sample_freertos_gcc/src/zxing_lib/zxing/common/Array.h ****   }
  53:/home/zkmike/workspace/RZA2M/rza2m_2d_barcode_sample_freertos_gcc/src/zxing_lib/zxing/common/Array.h ****   Array(Array<T> *other) :
  54:/home/zkmike/workspace/RZA2M/rza2m_2d_barcode_sample_freertos_gcc/src/zxing_lib/zxing/common/Array.h ****       Counted(), values_(other->values_) {
  55:/home/zkmike/workspace/RZA2M/rza2m_2d_barcode_sample_freertos_gcc/src/zxing_lib/zxing/common/Array.h ****   }
  56:/home/zkmike/workspace/RZA2M/rza2m_2d_barcode_sample_freertos_gcc/src/zxing_lib/zxing/common/Array.h ****   virtual ~Array() {
  57:/home/zkmike/workspace/RZA2M/rza2m_2d_barcode_sample_freertos_gcc/src/zxing_lib/zxing/common/Array.h ****   }
  58:/home/zkmike/workspace/RZA2M/rza2m_2d_barcode_sample_freertos_gcc/src/zxing_lib/zxing/common/Array.h ****   Array<T>& operator=(const Array<T> &other) {
  59:/home/zkmike/workspace/RZA2M/rza2m_2d_barcode_sample_freertos_gcc/src/zxing_lib/zxing/common/Array.h ****     values_ = other.values_;
  60:/home/zkmike/workspace/RZA2M/rza2m_2d_barcode_sample_freertos_gcc/src/zxing_lib/zxing/common/Array.h ****     return *this;
  61:/home/zkmike/workspace/RZA2M/rza2m_2d_barcode_sample_freertos_gcc/src/zxing_lib/zxing/common/Array.h ****   }
  62:/home/zkmike/workspace/RZA2M/rza2m_2d_barcode_sample_freertos_gcc/src/zxing_lib/zxing/common/Array.h ****   Array<T>& operator=(const std::vector<T> &array) {
  63:/home/zkmike/workspace/RZA2M/rza2m_2d_barcode_sample_freertos_gcc/src/zxing_lib/zxing/common/Array.h ****     values_ = array;
  64:/home/zkmike/workspace/RZA2M/rza2m_2d_barcode_sample_freertos_gcc/src/zxing_lib/zxing/common/Array.h ****     return *this;
  65:/home/zkmike/workspace/RZA2M/rza2m_2d_barcode_sample_freertos_gcc/src/zxing_lib/zxing/common/Array.h ****   }
  66:/home/zkmike/workspace/RZA2M/rza2m_2d_barcode_sample_freertos_gcc/src/zxing_lib/zxing/common/Array.h ****   T const& operator[](int i) const {
  67:/home/zkmike/workspace/RZA2M/rza2m_2d_barcode_sample_freertos_gcc/src/zxing_lib/zxing/common/Array.h ****     return values_[i];
  68:/home/zkmike/workspace/RZA2M/rza2m_2d_barcode_sample_freertos_gcc/src/zxing_lib/zxing/common/Array.h ****   }
  69:/home/zkmike/workspace/RZA2M/rza2m_2d_barcode_sample_freertos_gcc/src/zxing_lib/zxing/common/Array.h ****   T& operator[](int i) {
  70:/home/zkmike/workspace/RZA2M/rza2m_2d_barcode_sample_freertos_gcc/src/zxing_lib/zxing/common/Array.h ****     return values_[i];
  71:/home/zkmike/workspace/RZA2M/rza2m_2d_barcode_sample_freertos_gcc/src/zxing_lib/zxing/common/Array.h ****   }
  72:/home/zkmike/workspace/RZA2M/rza2m_2d_barcode_sample_freertos_gcc/src/zxing_lib/zxing/common/Array.h ****   int size() const {
  73:/home/zkmike/workspace/RZA2M/rza2m_2d_barcode_sample_freertos_gcc/src/zxing_lib/zxing/common/Array.h ****     return values_.size();
  74:/home/zkmike/workspace/RZA2M/rza2m_2d_barcode_sample_freertos_gcc/src/zxing_lib/zxing/common/Array.h ****   }
  75:/home/zkmike/workspace/RZA2M/rza2m_2d_barcode_sample_freertos_gcc/src/zxing_lib/zxing/common/Array.h ****   bool empty() const {
  76:/home/zkmike/workspace/RZA2M/rza2m_2d_barcode_sample_freertos_gcc/src/zxing_lib/zxing/common/Array.h ****     return values_.size() == 0;
  77:/home/zkmike/workspace/RZA2M/rza2m_2d_barcode_sample_freertos_gcc/src/zxing_lib/zxing/common/Array.h ****   }
  78:/home/zkmike/workspace/RZA2M/rza2m_2d_barcode_sample_freertos_gcc/src/zxing_lib/zxing/common/Array.h ****   std::vector<T> const& values() const {
  79:/home/zkmike/workspace/RZA2M/rza2m_2d_barcode_sample_freertos_gcc/src/zxing_lib/zxing/common/Array.h ****     return values_;
  80:/home/zkmike/workspace/RZA2M/rza2m_2d_barcode_sample_freertos_gcc/src/zxing_lib/zxing/common/Array.h ****   }
  81:/home/zkmike/workspace/RZA2M/rza2m_2d_barcode_sample_freertos_gcc/src/zxing_lib/zxing/common/Array.h ****   std::vector<T>& values() {
  82:/home/zkmike/workspace/RZA2M/rza2m_2d_barcode_sample_freertos_gcc/src/zxing_lib/zxing/common/Array.h ****     return values_;
  83:/home/zkmike/workspace/RZA2M/rza2m_2d_barcode_sample_freertos_gcc/src/zxing_lib/zxing/common/Array.h ****   }
  84:/home/zkmike/workspace/RZA2M/rza2m_2d_barcode_sample_freertos_gcc/src/zxing_lib/zxing/common/Array.h **** };
  85:/home/zkmike/workspace/RZA2M/rza2m_2d_barcode_sample_freertos_gcc/src/zxing_lib/zxing/common/Array.h **** 
  86:/home/zkmike/workspace/RZA2M/rza2m_2d_barcode_sample_freertos_gcc/src/zxing_lib/zxing/common/Array.h **** template<typename T> class ArrayRef : public Counted {
  87:/home/zkmike/workspace/RZA2M/rza2m_2d_barcode_sample_freertos_gcc/src/zxing_lib/zxing/common/Array.h **** private:
  88:/home/zkmike/workspace/RZA2M/rza2m_2d_barcode_sample_freertos_gcc/src/zxing_lib/zxing/common/Array.h **** public:
  89:/home/zkmike/workspace/RZA2M/rza2m_2d_barcode_sample_freertos_gcc/src/zxing_lib/zxing/common/Array.h ****   Array<T> *array_;
  90:/home/zkmike/workspace/RZA2M/rza2m_2d_barcode_sample_freertos_gcc/src/zxing_lib/zxing/common/Array.h ****   ArrayRef() :
  91:/home/zkmike/workspace/RZA2M/rza2m_2d_barcode_sample_freertos_gcc/src/zxing_lib/zxing/common/Array.h ****       array_(0) {
  92:/home/zkmike/workspace/RZA2M/rza2m_2d_barcode_sample_freertos_gcc/src/zxing_lib/zxing/common/Array.h ****   }
  93:/home/zkmike/workspace/RZA2M/rza2m_2d_barcode_sample_freertos_gcc/src/zxing_lib/zxing/common/Array.h ****   explicit ArrayRef(int n) :
  94:/home/zkmike/workspace/RZA2M/rza2m_2d_barcode_sample_freertos_gcc/src/zxing_lib/zxing/common/Array.h ****       array_(0) {
  95:/home/zkmike/workspace/RZA2M/rza2m_2d_barcode_sample_freertos_gcc/src/zxing_lib/zxing/common/Array.h ****     reset(new Array<T> (n));
  96:/home/zkmike/workspace/RZA2M/rza2m_2d_barcode_sample_freertos_gcc/src/zxing_lib/zxing/common/Array.h ****   }
  97:/home/zkmike/workspace/RZA2M/rza2m_2d_barcode_sample_freertos_gcc/src/zxing_lib/zxing/common/Array.h ****   ArrayRef(T *ts, int n) :
  98:/home/zkmike/workspace/RZA2M/rza2m_2d_barcode_sample_freertos_gcc/src/zxing_lib/zxing/common/Array.h ****       array_(0) {
  99:/home/zkmike/workspace/RZA2M/rza2m_2d_barcode_sample_freertos_gcc/src/zxing_lib/zxing/common/Array.h ****     reset(new Array<T> (ts, n));
 100:/home/zkmike/workspace/RZA2M/rza2m_2d_barcode_sample_freertos_gcc/src/zxing_lib/zxing/common/Array.h ****   }
 101:/home/zkmike/workspace/RZA2M/rza2m_2d_barcode_sample_freertos_gcc/src/zxing_lib/zxing/common/Array.h ****   ArrayRef(Array<T> *a) :
 102:/home/zkmike/workspace/RZA2M/rza2m_2d_barcode_sample_freertos_gcc/src/zxing_lib/zxing/common/Array.h ****       array_(0) {
 103:/home/zkmike/workspace/RZA2M/rza2m_2d_barcode_sample_freertos_gcc/src/zxing_lib/zxing/common/Array.h ****     reset(a);
 104:/home/zkmike/workspace/RZA2M/rza2m_2d_barcode_sample_freertos_gcc/src/zxing_lib/zxing/common/Array.h ****   }
 105:/home/zkmike/workspace/RZA2M/rza2m_2d_barcode_sample_freertos_gcc/src/zxing_lib/zxing/common/Array.h ****   ArrayRef(const ArrayRef &other) :
 106:/home/zkmike/workspace/RZA2M/rza2m_2d_barcode_sample_freertos_gcc/src/zxing_lib/zxing/common/Array.h ****       Counted(), array_(0) {
 107:/home/zkmike/workspace/RZA2M/rza2m_2d_barcode_sample_freertos_gcc/src/zxing_lib/zxing/common/Array.h ****     reset(other.array_);
 108:/home/zkmike/workspace/RZA2M/rza2m_2d_barcode_sample_freertos_gcc/src/zxing_lib/zxing/common/Array.h ****   }
 109:/home/zkmike/workspace/RZA2M/rza2m_2d_barcode_sample_freertos_gcc/src/zxing_lib/zxing/common/Array.h **** 
 110:/home/zkmike/workspace/RZA2M/rza2m_2d_barcode_sample_freertos_gcc/src/zxing_lib/zxing/common/Array.h ****   template<class Y>
 111:/home/zkmike/workspace/RZA2M/rza2m_2d_barcode_sample_freertos_gcc/src/zxing_lib/zxing/common/Array.h ****   ArrayRef(const ArrayRef<Y> &other) :
 112:/home/zkmike/workspace/RZA2M/rza2m_2d_barcode_sample_freertos_gcc/src/zxing_lib/zxing/common/Array.h ****       array_(0) {
 113:/home/zkmike/workspace/RZA2M/rza2m_2d_barcode_sample_freertos_gcc/src/zxing_lib/zxing/common/Array.h ****     reset(static_cast<const Array<T> *>(other.array_));
 114:/home/zkmike/workspace/RZA2M/rza2m_2d_barcode_sample_freertos_gcc/src/zxing_lib/zxing/common/Array.h ****   }
 115:/home/zkmike/workspace/RZA2M/rza2m_2d_barcode_sample_freertos_gcc/src/zxing_lib/zxing/common/Array.h **** 
 116:/home/zkmike/workspace/RZA2M/rza2m_2d_barcode_sample_freertos_gcc/src/zxing_lib/zxing/common/Array.h ****   ~ArrayRef() {
 117:/home/zkmike/workspace/RZA2M/rza2m_2d_barcode_sample_freertos_gcc/src/zxing_lib/zxing/common/Array.h ****     if (array_) {
 118:/home/zkmike/workspace/RZA2M/rza2m_2d_barcode_sample_freertos_gcc/src/zxing_lib/zxing/common/Array.h ****       array_->release();
 119:/home/zkmike/workspace/RZA2M/rza2m_2d_barcode_sample_freertos_gcc/src/zxing_lib/zxing/common/Array.h ****     }
 120:/home/zkmike/workspace/RZA2M/rza2m_2d_barcode_sample_freertos_gcc/src/zxing_lib/zxing/common/Array.h ****     array_ = 0;
 121:/home/zkmike/workspace/RZA2M/rza2m_2d_barcode_sample_freertos_gcc/src/zxing_lib/zxing/common/Array.h ****   }
 122:/home/zkmike/workspace/RZA2M/rza2m_2d_barcode_sample_freertos_gcc/src/zxing_lib/zxing/common/Array.h **** 
 123:/home/zkmike/workspace/RZA2M/rza2m_2d_barcode_sample_freertos_gcc/src/zxing_lib/zxing/common/Array.h ****   T const& operator[](int i) const {
 124:/home/zkmike/workspace/RZA2M/rza2m_2d_barcode_sample_freertos_gcc/src/zxing_lib/zxing/common/Array.h ****     return (*array_)[i];
 1728              		.loc 10 124 0
 1729 00c4 1C1091E5 		ldr	r1, [r1, #28]
 1730              	.LVL148:
 1731              	.LBB948:
 1732              	.LBB949:
 1733              	.LBB950:
 1734              	.LBB951:
 1735              		.file 11 "/home/zkmike/.local/share/renesas/e2_studio/toolchains/gcc_arm/gcc-arm-none-eabi-6-2017-
   1:/home/zkmike/.local/share/renesas/e2_studio/toolchains/gcc_arm/gcc-arm-none-eabi-6-2017-q2-update/arm-none-eabi/include/c++/6.3.1/bits/stl_vector.h **** // Vector implementation -*- C++ -*-
   2:/home/zkmike/.local/share/renesas/e2_studio/toolchains/gcc_arm/gcc-arm-none-eabi-6-2017-q2-update/arm-none-eabi/include/c++/6.3.1/bits/stl_vector.h **** 
   3:/home/zkmike/.local/share/renesas/e2_studio/toolchains/gcc_arm/gcc-arm-none-eabi-6-2017-q2-update/arm-none-eabi/include/c++/6.3.1/bits/stl_vector.h **** // Copyright (C) 2001-2016 Free Software Foundation, Inc.
   4:/home/zkmike/.local/share/renesas/e2_studio/toolchains/gcc_arm/gcc-arm-none-eabi-6-2017-q2-update/arm-none-eabi/include/c++/6.3.1/bits/stl_vector.h **** //
   5:/home/zkmike/.local/share/renesas/e2_studio/toolchains/gcc_arm/gcc-arm-none-eabi-6-2017-q2-update/arm-none-eabi/include/c++/6.3.1/bits/stl_vector.h **** // This file is part of the GNU ISO C++ Library.  This library is free
   6:/home/zkmike/.local/share/renesas/e2_studio/toolchains/gcc_arm/gcc-arm-none-eabi-6-2017-q2-update/arm-none-eabi/include/c++/6.3.1/bits/stl_vector.h **** // software; you can redistribute it and/or modify it under the
   7:/home/zkmike/.local/share/renesas/e2_studio/toolchains/gcc_arm/gcc-arm-none-eabi-6-2017-q2-update/arm-none-eabi/include/c++/6.3.1/bits/stl_vector.h **** // terms of the GNU General Public License as published by the
   8:/home/zkmike/.local/share/renesas/e2_studio/toolchains/gcc_arm/gcc-arm-none-eabi-6-2017-q2-update/arm-none-eabi/include/c++/6.3.1/bits/stl_vector.h **** // Free Software Foundation; either version 3, or (at your option)
   9:/home/zkmike/.local/share/renesas/e2_studio/toolchains/gcc_arm/gcc-arm-none-eabi-6-2017-q2-update/arm-none-eabi/include/c++/6.3.1/bits/stl_vector.h **** // any later version.
  10:/home/zkmike/.local/share/renesas/e2_studio/toolchains/gcc_arm/gcc-arm-none-eabi-6-2017-q2-update/arm-none-eabi/include/c++/6.3.1/bits/stl_vector.h **** 
  11:/home/zkmike/.local/share/renesas/e2_studio/toolchains/gcc_arm/gcc-arm-none-eabi-6-2017-q2-update/arm-none-eabi/include/c++/6.3.1/bits/stl_vector.h **** // This library is distributed in the hope that it will be useful,
  12:/home/zkmike/.local/share/renesas/e2_studio/toolchains/gcc_arm/gcc-arm-none-eabi-6-2017-q2-update/arm-none-eabi/include/c++/6.3.1/bits/stl_vector.h **** // but WITHOUT ANY WARRANTY; without even the implied warranty of
  13:/home/zkmike/.local/share/renesas/e2_studio/toolchains/gcc_arm/gcc-arm-none-eabi-6-2017-q2-update/arm-none-eabi/include/c++/6.3.1/bits/stl_vector.h **** // MERCHANTABILITY or FITNESS FOR A PARTICULAR PURPOSE.  See the
  14:/home/zkmike/.local/share/renesas/e2_studio/toolchains/gcc_arm/gcc-arm-none-eabi-6-2017-q2-update/arm-none-eabi/include/c++/6.3.1/bits/stl_vector.h **** // GNU General Public License for more details.
  15:/home/zkmike/.local/share/renesas/e2_studio/toolchains/gcc_arm/gcc-arm-none-eabi-6-2017-q2-update/arm-none-eabi/include/c++/6.3.1/bits/stl_vector.h **** 
  16:/home/zkmike/.local/share/renesas/e2_studio/toolchains/gcc_arm/gcc-arm-none-eabi-6-2017-q2-update/arm-none-eabi/include/c++/6.3.1/bits/stl_vector.h **** // Under Section 7 of GPL version 3, you are granted additional
  17:/home/zkmike/.local/share/renesas/e2_studio/toolchains/gcc_arm/gcc-arm-none-eabi-6-2017-q2-update/arm-none-eabi/include/c++/6.3.1/bits/stl_vector.h **** // permissions described in the GCC Runtime Library Exception, version
  18:/home/zkmike/.local/share/renesas/e2_studio/toolchains/gcc_arm/gcc-arm-none-eabi-6-2017-q2-update/arm-none-eabi/include/c++/6.3.1/bits/stl_vector.h **** // 3.1, as published by the Free Software Foundation.
  19:/home/zkmike/.local/share/renesas/e2_studio/toolchains/gcc_arm/gcc-arm-none-eabi-6-2017-q2-update/arm-none-eabi/include/c++/6.3.1/bits/stl_vector.h **** 
  20:/home/zkmike/.local/share/renesas/e2_studio/toolchains/gcc_arm/gcc-arm-none-eabi-6-2017-q2-update/arm-none-eabi/include/c++/6.3.1/bits/stl_vector.h **** // You should have received a copy of the GNU General Public License and
  21:/home/zkmike/.local/share/renesas/e2_studio/toolchains/gcc_arm/gcc-arm-none-eabi-6-2017-q2-update/arm-none-eabi/include/c++/6.3.1/bits/stl_vector.h **** // a copy of the GCC Runtime Library Exception along with this program;
  22:/home/zkmike/.local/share/renesas/e2_studio/toolchains/gcc_arm/gcc-arm-none-eabi-6-2017-q2-update/arm-none-eabi/include/c++/6.3.1/bits/stl_vector.h **** // see the files COPYING3 and COPYING.RUNTIME respectively.  If not, see
  23:/home/zkmike/.local/share/renesas/e2_studio/toolchains/gcc_arm/gcc-arm-none-eabi-6-2017-q2-update/arm-none-eabi/include/c++/6.3.1/bits/stl_vector.h **** // <http://www.gnu.org/licenses/>.
  24:/home/zkmike/.local/share/renesas/e2_studio/toolchains/gcc_arm/gcc-arm-none-eabi-6-2017-q2-update/arm-none-eabi/include/c++/6.3.1/bits/stl_vector.h **** 
  25:/home/zkmike/.local/share/renesas/e2_studio/toolchains/gcc_arm/gcc-arm-none-eabi-6-2017-q2-update/arm-none-eabi/include/c++/6.3.1/bits/stl_vector.h **** /*
  26:/home/zkmike/.local/share/renesas/e2_studio/toolchains/gcc_arm/gcc-arm-none-eabi-6-2017-q2-update/arm-none-eabi/include/c++/6.3.1/bits/stl_vector.h ****  *
  27:/home/zkmike/.local/share/renesas/e2_studio/toolchains/gcc_arm/gcc-arm-none-eabi-6-2017-q2-update/arm-none-eabi/include/c++/6.3.1/bits/stl_vector.h ****  * Copyright (c) 1994
  28:/home/zkmike/.local/share/renesas/e2_studio/toolchains/gcc_arm/gcc-arm-none-eabi-6-2017-q2-update/arm-none-eabi/include/c++/6.3.1/bits/stl_vector.h ****  * Hewlett-Packard Company
  29:/home/zkmike/.local/share/renesas/e2_studio/toolchains/gcc_arm/gcc-arm-none-eabi-6-2017-q2-update/arm-none-eabi/include/c++/6.3.1/bits/stl_vector.h ****  *
  30:/home/zkmike/.local/share/renesas/e2_studio/toolchains/gcc_arm/gcc-arm-none-eabi-6-2017-q2-update/arm-none-eabi/include/c++/6.3.1/bits/stl_vector.h ****  * Permission to use, copy, modify, distribute and sell this software
  31:/home/zkmike/.local/share/renesas/e2_studio/toolchains/gcc_arm/gcc-arm-none-eabi-6-2017-q2-update/arm-none-eabi/include/c++/6.3.1/bits/stl_vector.h ****  * and its documentation for any purpose is hereby granted without fee,
  32:/home/zkmike/.local/share/renesas/e2_studio/toolchains/gcc_arm/gcc-arm-none-eabi-6-2017-q2-update/arm-none-eabi/include/c++/6.3.1/bits/stl_vector.h ****  * provided that the above copyright notice appear in all copies and
  33:/home/zkmike/.local/share/renesas/e2_studio/toolchains/gcc_arm/gcc-arm-none-eabi-6-2017-q2-update/arm-none-eabi/include/c++/6.3.1/bits/stl_vector.h ****  * that both that copyright notice and this permission notice appear
  34:/home/zkmike/.local/share/renesas/e2_studio/toolchains/gcc_arm/gcc-arm-none-eabi-6-2017-q2-update/arm-none-eabi/include/c++/6.3.1/bits/stl_vector.h ****  * in supporting documentation.  Hewlett-Packard Company makes no
  35:/home/zkmike/.local/share/renesas/e2_studio/toolchains/gcc_arm/gcc-arm-none-eabi-6-2017-q2-update/arm-none-eabi/include/c++/6.3.1/bits/stl_vector.h ****  * representations about the suitability of this software for any
  36:/home/zkmike/.local/share/renesas/e2_studio/toolchains/gcc_arm/gcc-arm-none-eabi-6-2017-q2-update/arm-none-eabi/include/c++/6.3.1/bits/stl_vector.h ****  * purpose.  It is provided "as is" without express or implied warranty.
  37:/home/zkmike/.local/share/renesas/e2_studio/toolchains/gcc_arm/gcc-arm-none-eabi-6-2017-q2-update/arm-none-eabi/include/c++/6.3.1/bits/stl_vector.h ****  *
  38:/home/zkmike/.local/share/renesas/e2_studio/toolchains/gcc_arm/gcc-arm-none-eabi-6-2017-q2-update/arm-none-eabi/include/c++/6.3.1/bits/stl_vector.h ****  *
  39:/home/zkmike/.local/share/renesas/e2_studio/toolchains/gcc_arm/gcc-arm-none-eabi-6-2017-q2-update/arm-none-eabi/include/c++/6.3.1/bits/stl_vector.h ****  * Copyright (c) 1996
  40:/home/zkmike/.local/share/renesas/e2_studio/toolchains/gcc_arm/gcc-arm-none-eabi-6-2017-q2-update/arm-none-eabi/include/c++/6.3.1/bits/stl_vector.h ****  * Silicon Graphics Computer Systems, Inc.
  41:/home/zkmike/.local/share/renesas/e2_studio/toolchains/gcc_arm/gcc-arm-none-eabi-6-2017-q2-update/arm-none-eabi/include/c++/6.3.1/bits/stl_vector.h ****  *
  42:/home/zkmike/.local/share/renesas/e2_studio/toolchains/gcc_arm/gcc-arm-none-eabi-6-2017-q2-update/arm-none-eabi/include/c++/6.3.1/bits/stl_vector.h ****  * Permission to use, copy, modify, distribute and sell this software
  43:/home/zkmike/.local/share/renesas/e2_studio/toolchains/gcc_arm/gcc-arm-none-eabi-6-2017-q2-update/arm-none-eabi/include/c++/6.3.1/bits/stl_vector.h ****  * and its documentation for any purpose is hereby granted without fee,
  44:/home/zkmike/.local/share/renesas/e2_studio/toolchains/gcc_arm/gcc-arm-none-eabi-6-2017-q2-update/arm-none-eabi/include/c++/6.3.1/bits/stl_vector.h ****  * provided that the above copyright notice appear in all copies and
  45:/home/zkmike/.local/share/renesas/e2_studio/toolchains/gcc_arm/gcc-arm-none-eabi-6-2017-q2-update/arm-none-eabi/include/c++/6.3.1/bits/stl_vector.h ****  * that both that copyright notice and this permission notice appear
  46:/home/zkmike/.local/share/renesas/e2_studio/toolchains/gcc_arm/gcc-arm-none-eabi-6-2017-q2-update/arm-none-eabi/include/c++/6.3.1/bits/stl_vector.h ****  * in supporting documentation.  Silicon Graphics makes no
  47:/home/zkmike/.local/share/renesas/e2_studio/toolchains/gcc_arm/gcc-arm-none-eabi-6-2017-q2-update/arm-none-eabi/include/c++/6.3.1/bits/stl_vector.h ****  * representations about the suitability of this  software for any
  48:/home/zkmike/.local/share/renesas/e2_studio/toolchains/gcc_arm/gcc-arm-none-eabi-6-2017-q2-update/arm-none-eabi/include/c++/6.3.1/bits/stl_vector.h ****  * purpose.  It is provided "as is" without express or implied warranty.
  49:/home/zkmike/.local/share/renesas/e2_studio/toolchains/gcc_arm/gcc-arm-none-eabi-6-2017-q2-update/arm-none-eabi/include/c++/6.3.1/bits/stl_vector.h ****  */
  50:/home/zkmike/.local/share/renesas/e2_studio/toolchains/gcc_arm/gcc-arm-none-eabi-6-2017-q2-update/arm-none-eabi/include/c++/6.3.1/bits/stl_vector.h **** 
  51:/home/zkmike/.local/share/renesas/e2_studio/toolchains/gcc_arm/gcc-arm-none-eabi-6-2017-q2-update/arm-none-eabi/include/c++/6.3.1/bits/stl_vector.h **** /** @file bits/stl_vector.h
  52:/home/zkmike/.local/share/renesas/e2_studio/toolchains/gcc_arm/gcc-arm-none-eabi-6-2017-q2-update/arm-none-eabi/include/c++/6.3.1/bits/stl_vector.h ****  *  This is an internal header file, included by other library headers.
  53:/home/zkmike/.local/share/renesas/e2_studio/toolchains/gcc_arm/gcc-arm-none-eabi-6-2017-q2-update/arm-none-eabi/include/c++/6.3.1/bits/stl_vector.h ****  *  Do not attempt to use it directly. @headername{vector}
  54:/home/zkmike/.local/share/renesas/e2_studio/toolchains/gcc_arm/gcc-arm-none-eabi-6-2017-q2-update/arm-none-eabi/include/c++/6.3.1/bits/stl_vector.h ****  */
  55:/home/zkmike/.local/share/renesas/e2_studio/toolchains/gcc_arm/gcc-arm-none-eabi-6-2017-q2-update/arm-none-eabi/include/c++/6.3.1/bits/stl_vector.h **** 
  56:/home/zkmike/.local/share/renesas/e2_studio/toolchains/gcc_arm/gcc-arm-none-eabi-6-2017-q2-update/arm-none-eabi/include/c++/6.3.1/bits/stl_vector.h **** #ifndef _STL_VECTOR_H
  57:/home/zkmike/.local/share/renesas/e2_studio/toolchains/gcc_arm/gcc-arm-none-eabi-6-2017-q2-update/arm-none-eabi/include/c++/6.3.1/bits/stl_vector.h **** #define _STL_VECTOR_H 1
  58:/home/zkmike/.local/share/renesas/e2_studio/toolchains/gcc_arm/gcc-arm-none-eabi-6-2017-q2-update/arm-none-eabi/include/c++/6.3.1/bits/stl_vector.h **** 
  59:/home/zkmike/.local/share/renesas/e2_studio/toolchains/gcc_arm/gcc-arm-none-eabi-6-2017-q2-update/arm-none-eabi/include/c++/6.3.1/bits/stl_vector.h **** #include <bits/stl_iterator_base_funcs.h>
  60:/home/zkmike/.local/share/renesas/e2_studio/toolchains/gcc_arm/gcc-arm-none-eabi-6-2017-q2-update/arm-none-eabi/include/c++/6.3.1/bits/stl_vector.h **** #include <bits/functexcept.h>
  61:/home/zkmike/.local/share/renesas/e2_studio/toolchains/gcc_arm/gcc-arm-none-eabi-6-2017-q2-update/arm-none-eabi/include/c++/6.3.1/bits/stl_vector.h **** #include <bits/concept_check.h>
  62:/home/zkmike/.local/share/renesas/e2_studio/toolchains/gcc_arm/gcc-arm-none-eabi-6-2017-q2-update/arm-none-eabi/include/c++/6.3.1/bits/stl_vector.h **** #if __cplusplus >= 201103L
  63:/home/zkmike/.local/share/renesas/e2_studio/toolchains/gcc_arm/gcc-arm-none-eabi-6-2017-q2-update/arm-none-eabi/include/c++/6.3.1/bits/stl_vector.h **** #include <initializer_list>
  64:/home/zkmike/.local/share/renesas/e2_studio/toolchains/gcc_arm/gcc-arm-none-eabi-6-2017-q2-update/arm-none-eabi/include/c++/6.3.1/bits/stl_vector.h **** #endif
  65:/home/zkmike/.local/share/renesas/e2_studio/toolchains/gcc_arm/gcc-arm-none-eabi-6-2017-q2-update/arm-none-eabi/include/c++/6.3.1/bits/stl_vector.h **** 
  66:/home/zkmike/.local/share/renesas/e2_studio/toolchains/gcc_arm/gcc-arm-none-eabi-6-2017-q2-update/arm-none-eabi/include/c++/6.3.1/bits/stl_vector.h **** namespace std _GLIBCXX_VISIBILITY(default)
  67:/home/zkmike/.local/share/renesas/e2_studio/toolchains/gcc_arm/gcc-arm-none-eabi-6-2017-q2-update/arm-none-eabi/include/c++/6.3.1/bits/stl_vector.h **** {
  68:/home/zkmike/.local/share/renesas/e2_studio/toolchains/gcc_arm/gcc-arm-none-eabi-6-2017-q2-update/arm-none-eabi/include/c++/6.3.1/bits/stl_vector.h **** _GLIBCXX_BEGIN_NAMESPACE_CONTAINER
  69:/home/zkmike/.local/share/renesas/e2_studio/toolchains/gcc_arm/gcc-arm-none-eabi-6-2017-q2-update/arm-none-eabi/include/c++/6.3.1/bits/stl_vector.h **** 
  70:/home/zkmike/.local/share/renesas/e2_studio/toolchains/gcc_arm/gcc-arm-none-eabi-6-2017-q2-update/arm-none-eabi/include/c++/6.3.1/bits/stl_vector.h ****   /// See bits/stl_deque.h's _Deque_base for an explanation.
  71:/home/zkmike/.local/share/renesas/e2_studio/toolchains/gcc_arm/gcc-arm-none-eabi-6-2017-q2-update/arm-none-eabi/include/c++/6.3.1/bits/stl_vector.h ****   template<typename _Tp, typename _Alloc>
  72:/home/zkmike/.local/share/renesas/e2_studio/toolchains/gcc_arm/gcc-arm-none-eabi-6-2017-q2-update/arm-none-eabi/include/c++/6.3.1/bits/stl_vector.h ****     struct _Vector_base
  73:/home/zkmike/.local/share/renesas/e2_studio/toolchains/gcc_arm/gcc-arm-none-eabi-6-2017-q2-update/arm-none-eabi/include/c++/6.3.1/bits/stl_vector.h ****     {
  74:/home/zkmike/.local/share/renesas/e2_studio/toolchains/gcc_arm/gcc-arm-none-eabi-6-2017-q2-update/arm-none-eabi/include/c++/6.3.1/bits/stl_vector.h ****       typedef typename __gnu_cxx::__alloc_traits<_Alloc>::template
  75:/home/zkmike/.local/share/renesas/e2_studio/toolchains/gcc_arm/gcc-arm-none-eabi-6-2017-q2-update/arm-none-eabi/include/c++/6.3.1/bits/stl_vector.h ****         rebind<_Tp>::other _Tp_alloc_type;
  76:/home/zkmike/.local/share/renesas/e2_studio/toolchains/gcc_arm/gcc-arm-none-eabi-6-2017-q2-update/arm-none-eabi/include/c++/6.3.1/bits/stl_vector.h ****       typedef typename __gnu_cxx::__alloc_traits<_Tp_alloc_type>::pointer
  77:/home/zkmike/.local/share/renesas/e2_studio/toolchains/gcc_arm/gcc-arm-none-eabi-6-2017-q2-update/arm-none-eabi/include/c++/6.3.1/bits/stl_vector.h ****        	pointer;
  78:/home/zkmike/.local/share/renesas/e2_studio/toolchains/gcc_arm/gcc-arm-none-eabi-6-2017-q2-update/arm-none-eabi/include/c++/6.3.1/bits/stl_vector.h **** 
  79:/home/zkmike/.local/share/renesas/e2_studio/toolchains/gcc_arm/gcc-arm-none-eabi-6-2017-q2-update/arm-none-eabi/include/c++/6.3.1/bits/stl_vector.h ****       struct _Vector_impl 
  80:/home/zkmike/.local/share/renesas/e2_studio/toolchains/gcc_arm/gcc-arm-none-eabi-6-2017-q2-update/arm-none-eabi/include/c++/6.3.1/bits/stl_vector.h ****       : public _Tp_alloc_type
  81:/home/zkmike/.local/share/renesas/e2_studio/toolchains/gcc_arm/gcc-arm-none-eabi-6-2017-q2-update/arm-none-eabi/include/c++/6.3.1/bits/stl_vector.h ****       {
  82:/home/zkmike/.local/share/renesas/e2_studio/toolchains/gcc_arm/gcc-arm-none-eabi-6-2017-q2-update/arm-none-eabi/include/c++/6.3.1/bits/stl_vector.h **** 	pointer _M_start;
  83:/home/zkmike/.local/share/renesas/e2_studio/toolchains/gcc_arm/gcc-arm-none-eabi-6-2017-q2-update/arm-none-eabi/include/c++/6.3.1/bits/stl_vector.h **** 	pointer _M_finish;
  84:/home/zkmike/.local/share/renesas/e2_studio/toolchains/gcc_arm/gcc-arm-none-eabi-6-2017-q2-update/arm-none-eabi/include/c++/6.3.1/bits/stl_vector.h **** 	pointer _M_end_of_storage;
  85:/home/zkmike/.local/share/renesas/e2_studio/toolchains/gcc_arm/gcc-arm-none-eabi-6-2017-q2-update/arm-none-eabi/include/c++/6.3.1/bits/stl_vector.h **** 
  86:/home/zkmike/.local/share/renesas/e2_studio/toolchains/gcc_arm/gcc-arm-none-eabi-6-2017-q2-update/arm-none-eabi/include/c++/6.3.1/bits/stl_vector.h **** 	_Vector_impl()
  87:/home/zkmike/.local/share/renesas/e2_studio/toolchains/gcc_arm/gcc-arm-none-eabi-6-2017-q2-update/arm-none-eabi/include/c++/6.3.1/bits/stl_vector.h **** 	: _Tp_alloc_type(), _M_start(), _M_finish(), _M_end_of_storage()
  88:/home/zkmike/.local/share/renesas/e2_studio/toolchains/gcc_arm/gcc-arm-none-eabi-6-2017-q2-update/arm-none-eabi/include/c++/6.3.1/bits/stl_vector.h **** 	{ }
  89:/home/zkmike/.local/share/renesas/e2_studio/toolchains/gcc_arm/gcc-arm-none-eabi-6-2017-q2-update/arm-none-eabi/include/c++/6.3.1/bits/stl_vector.h **** 
  90:/home/zkmike/.local/share/renesas/e2_studio/toolchains/gcc_arm/gcc-arm-none-eabi-6-2017-q2-update/arm-none-eabi/include/c++/6.3.1/bits/stl_vector.h **** 	_Vector_impl(_Tp_alloc_type const& __a) _GLIBCXX_NOEXCEPT
  91:/home/zkmike/.local/share/renesas/e2_studio/toolchains/gcc_arm/gcc-arm-none-eabi-6-2017-q2-update/arm-none-eabi/include/c++/6.3.1/bits/stl_vector.h **** 	: _Tp_alloc_type(__a), _M_start(), _M_finish(), _M_end_of_storage()
  92:/home/zkmike/.local/share/renesas/e2_studio/toolchains/gcc_arm/gcc-arm-none-eabi-6-2017-q2-update/arm-none-eabi/include/c++/6.3.1/bits/stl_vector.h **** 	{ }
  93:/home/zkmike/.local/share/renesas/e2_studio/toolchains/gcc_arm/gcc-arm-none-eabi-6-2017-q2-update/arm-none-eabi/include/c++/6.3.1/bits/stl_vector.h **** 
  94:/home/zkmike/.local/share/renesas/e2_studio/toolchains/gcc_arm/gcc-arm-none-eabi-6-2017-q2-update/arm-none-eabi/include/c++/6.3.1/bits/stl_vector.h **** #if __cplusplus >= 201103L
  95:/home/zkmike/.local/share/renesas/e2_studio/toolchains/gcc_arm/gcc-arm-none-eabi-6-2017-q2-update/arm-none-eabi/include/c++/6.3.1/bits/stl_vector.h **** 	_Vector_impl(_Tp_alloc_type&& __a) noexcept
  96:/home/zkmike/.local/share/renesas/e2_studio/toolchains/gcc_arm/gcc-arm-none-eabi-6-2017-q2-update/arm-none-eabi/include/c++/6.3.1/bits/stl_vector.h **** 	: _Tp_alloc_type(std::move(__a)),
  97:/home/zkmike/.local/share/renesas/e2_studio/toolchains/gcc_arm/gcc-arm-none-eabi-6-2017-q2-update/arm-none-eabi/include/c++/6.3.1/bits/stl_vector.h **** 	  _M_start(), _M_finish(), _M_end_of_storage()
  98:/home/zkmike/.local/share/renesas/e2_studio/toolchains/gcc_arm/gcc-arm-none-eabi-6-2017-q2-update/arm-none-eabi/include/c++/6.3.1/bits/stl_vector.h **** 	{ }
  99:/home/zkmike/.local/share/renesas/e2_studio/toolchains/gcc_arm/gcc-arm-none-eabi-6-2017-q2-update/arm-none-eabi/include/c++/6.3.1/bits/stl_vector.h **** #endif
 100:/home/zkmike/.local/share/renesas/e2_studio/toolchains/gcc_arm/gcc-arm-none-eabi-6-2017-q2-update/arm-none-eabi/include/c++/6.3.1/bits/stl_vector.h **** 
 101:/home/zkmike/.local/share/renesas/e2_studio/toolchains/gcc_arm/gcc-arm-none-eabi-6-2017-q2-update/arm-none-eabi/include/c++/6.3.1/bits/stl_vector.h **** 	void _M_swap_data(_Vector_impl& __x) _GLIBCXX_NOEXCEPT
 102:/home/zkmike/.local/share/renesas/e2_studio/toolchains/gcc_arm/gcc-arm-none-eabi-6-2017-q2-update/arm-none-eabi/include/c++/6.3.1/bits/stl_vector.h **** 	{
 103:/home/zkmike/.local/share/renesas/e2_studio/toolchains/gcc_arm/gcc-arm-none-eabi-6-2017-q2-update/arm-none-eabi/include/c++/6.3.1/bits/stl_vector.h **** 	  std::swap(_M_start, __x._M_start);
 104:/home/zkmike/.local/share/renesas/e2_studio/toolchains/gcc_arm/gcc-arm-none-eabi-6-2017-q2-update/arm-none-eabi/include/c++/6.3.1/bits/stl_vector.h **** 	  std::swap(_M_finish, __x._M_finish);
 105:/home/zkmike/.local/share/renesas/e2_studio/toolchains/gcc_arm/gcc-arm-none-eabi-6-2017-q2-update/arm-none-eabi/include/c++/6.3.1/bits/stl_vector.h **** 	  std::swap(_M_end_of_storage, __x._M_end_of_storage);
 106:/home/zkmike/.local/share/renesas/e2_studio/toolchains/gcc_arm/gcc-arm-none-eabi-6-2017-q2-update/arm-none-eabi/include/c++/6.3.1/bits/stl_vector.h **** 	}
 107:/home/zkmike/.local/share/renesas/e2_studio/toolchains/gcc_arm/gcc-arm-none-eabi-6-2017-q2-update/arm-none-eabi/include/c++/6.3.1/bits/stl_vector.h ****       };
 108:/home/zkmike/.local/share/renesas/e2_studio/toolchains/gcc_arm/gcc-arm-none-eabi-6-2017-q2-update/arm-none-eabi/include/c++/6.3.1/bits/stl_vector.h ****       
 109:/home/zkmike/.local/share/renesas/e2_studio/toolchains/gcc_arm/gcc-arm-none-eabi-6-2017-q2-update/arm-none-eabi/include/c++/6.3.1/bits/stl_vector.h ****     public:
 110:/home/zkmike/.local/share/renesas/e2_studio/toolchains/gcc_arm/gcc-arm-none-eabi-6-2017-q2-update/arm-none-eabi/include/c++/6.3.1/bits/stl_vector.h ****       typedef _Alloc allocator_type;
 111:/home/zkmike/.local/share/renesas/e2_studio/toolchains/gcc_arm/gcc-arm-none-eabi-6-2017-q2-update/arm-none-eabi/include/c++/6.3.1/bits/stl_vector.h **** 
 112:/home/zkmike/.local/share/renesas/e2_studio/toolchains/gcc_arm/gcc-arm-none-eabi-6-2017-q2-update/arm-none-eabi/include/c++/6.3.1/bits/stl_vector.h ****       _Tp_alloc_type&
 113:/home/zkmike/.local/share/renesas/e2_studio/toolchains/gcc_arm/gcc-arm-none-eabi-6-2017-q2-update/arm-none-eabi/include/c++/6.3.1/bits/stl_vector.h ****       _M_get_Tp_allocator() _GLIBCXX_NOEXCEPT
 114:/home/zkmike/.local/share/renesas/e2_studio/toolchains/gcc_arm/gcc-arm-none-eabi-6-2017-q2-update/arm-none-eabi/include/c++/6.3.1/bits/stl_vector.h ****       { return *static_cast<_Tp_alloc_type*>(&this->_M_impl); }
 115:/home/zkmike/.local/share/renesas/e2_studio/toolchains/gcc_arm/gcc-arm-none-eabi-6-2017-q2-update/arm-none-eabi/include/c++/6.3.1/bits/stl_vector.h **** 
 116:/home/zkmike/.local/share/renesas/e2_studio/toolchains/gcc_arm/gcc-arm-none-eabi-6-2017-q2-update/arm-none-eabi/include/c++/6.3.1/bits/stl_vector.h ****       const _Tp_alloc_type&
 117:/home/zkmike/.local/share/renesas/e2_studio/toolchains/gcc_arm/gcc-arm-none-eabi-6-2017-q2-update/arm-none-eabi/include/c++/6.3.1/bits/stl_vector.h ****       _M_get_Tp_allocator() const _GLIBCXX_NOEXCEPT
 118:/home/zkmike/.local/share/renesas/e2_studio/toolchains/gcc_arm/gcc-arm-none-eabi-6-2017-q2-update/arm-none-eabi/include/c++/6.3.1/bits/stl_vector.h ****       { return *static_cast<const _Tp_alloc_type*>(&this->_M_impl); }
 119:/home/zkmike/.local/share/renesas/e2_studio/toolchains/gcc_arm/gcc-arm-none-eabi-6-2017-q2-update/arm-none-eabi/include/c++/6.3.1/bits/stl_vector.h **** 
 120:/home/zkmike/.local/share/renesas/e2_studio/toolchains/gcc_arm/gcc-arm-none-eabi-6-2017-q2-update/arm-none-eabi/include/c++/6.3.1/bits/stl_vector.h ****       allocator_type
 121:/home/zkmike/.local/share/renesas/e2_studio/toolchains/gcc_arm/gcc-arm-none-eabi-6-2017-q2-update/arm-none-eabi/include/c++/6.3.1/bits/stl_vector.h ****       get_allocator() const _GLIBCXX_NOEXCEPT
 122:/home/zkmike/.local/share/renesas/e2_studio/toolchains/gcc_arm/gcc-arm-none-eabi-6-2017-q2-update/arm-none-eabi/include/c++/6.3.1/bits/stl_vector.h ****       { return allocator_type(_M_get_Tp_allocator()); }
 123:/home/zkmike/.local/share/renesas/e2_studio/toolchains/gcc_arm/gcc-arm-none-eabi-6-2017-q2-update/arm-none-eabi/include/c++/6.3.1/bits/stl_vector.h **** 
 124:/home/zkmike/.local/share/renesas/e2_studio/toolchains/gcc_arm/gcc-arm-none-eabi-6-2017-q2-update/arm-none-eabi/include/c++/6.3.1/bits/stl_vector.h ****       _Vector_base()
 125:/home/zkmike/.local/share/renesas/e2_studio/toolchains/gcc_arm/gcc-arm-none-eabi-6-2017-q2-update/arm-none-eabi/include/c++/6.3.1/bits/stl_vector.h ****       : _M_impl() { }
 126:/home/zkmike/.local/share/renesas/e2_studio/toolchains/gcc_arm/gcc-arm-none-eabi-6-2017-q2-update/arm-none-eabi/include/c++/6.3.1/bits/stl_vector.h **** 
 127:/home/zkmike/.local/share/renesas/e2_studio/toolchains/gcc_arm/gcc-arm-none-eabi-6-2017-q2-update/arm-none-eabi/include/c++/6.3.1/bits/stl_vector.h ****       _Vector_base(const allocator_type& __a) _GLIBCXX_NOEXCEPT
 128:/home/zkmike/.local/share/renesas/e2_studio/toolchains/gcc_arm/gcc-arm-none-eabi-6-2017-q2-update/arm-none-eabi/include/c++/6.3.1/bits/stl_vector.h ****       : _M_impl(__a) { }
 129:/home/zkmike/.local/share/renesas/e2_studio/toolchains/gcc_arm/gcc-arm-none-eabi-6-2017-q2-update/arm-none-eabi/include/c++/6.3.1/bits/stl_vector.h **** 
 130:/home/zkmike/.local/share/renesas/e2_studio/toolchains/gcc_arm/gcc-arm-none-eabi-6-2017-q2-update/arm-none-eabi/include/c++/6.3.1/bits/stl_vector.h ****       _Vector_base(size_t __n)
 131:/home/zkmike/.local/share/renesas/e2_studio/toolchains/gcc_arm/gcc-arm-none-eabi-6-2017-q2-update/arm-none-eabi/include/c++/6.3.1/bits/stl_vector.h ****       : _M_impl()
 132:/home/zkmike/.local/share/renesas/e2_studio/toolchains/gcc_arm/gcc-arm-none-eabi-6-2017-q2-update/arm-none-eabi/include/c++/6.3.1/bits/stl_vector.h ****       { _M_create_storage(__n); }
 133:/home/zkmike/.local/share/renesas/e2_studio/toolchains/gcc_arm/gcc-arm-none-eabi-6-2017-q2-update/arm-none-eabi/include/c++/6.3.1/bits/stl_vector.h **** 
 134:/home/zkmike/.local/share/renesas/e2_studio/toolchains/gcc_arm/gcc-arm-none-eabi-6-2017-q2-update/arm-none-eabi/include/c++/6.3.1/bits/stl_vector.h ****       _Vector_base(size_t __n, const allocator_type& __a)
 135:/home/zkmike/.local/share/renesas/e2_studio/toolchains/gcc_arm/gcc-arm-none-eabi-6-2017-q2-update/arm-none-eabi/include/c++/6.3.1/bits/stl_vector.h ****       : _M_impl(__a)
 136:/home/zkmike/.local/share/renesas/e2_studio/toolchains/gcc_arm/gcc-arm-none-eabi-6-2017-q2-update/arm-none-eabi/include/c++/6.3.1/bits/stl_vector.h ****       { _M_create_storage(__n); }
 137:/home/zkmike/.local/share/renesas/e2_studio/toolchains/gcc_arm/gcc-arm-none-eabi-6-2017-q2-update/arm-none-eabi/include/c++/6.3.1/bits/stl_vector.h **** 
 138:/home/zkmike/.local/share/renesas/e2_studio/toolchains/gcc_arm/gcc-arm-none-eabi-6-2017-q2-update/arm-none-eabi/include/c++/6.3.1/bits/stl_vector.h **** #if __cplusplus >= 201103L
 139:/home/zkmike/.local/share/renesas/e2_studio/toolchains/gcc_arm/gcc-arm-none-eabi-6-2017-q2-update/arm-none-eabi/include/c++/6.3.1/bits/stl_vector.h ****       _Vector_base(_Tp_alloc_type&& __a) noexcept
 140:/home/zkmike/.local/share/renesas/e2_studio/toolchains/gcc_arm/gcc-arm-none-eabi-6-2017-q2-update/arm-none-eabi/include/c++/6.3.1/bits/stl_vector.h ****       : _M_impl(std::move(__a)) { }
 141:/home/zkmike/.local/share/renesas/e2_studio/toolchains/gcc_arm/gcc-arm-none-eabi-6-2017-q2-update/arm-none-eabi/include/c++/6.3.1/bits/stl_vector.h **** 
 142:/home/zkmike/.local/share/renesas/e2_studio/toolchains/gcc_arm/gcc-arm-none-eabi-6-2017-q2-update/arm-none-eabi/include/c++/6.3.1/bits/stl_vector.h ****       _Vector_base(_Vector_base&& __x) noexcept
 143:/home/zkmike/.local/share/renesas/e2_studio/toolchains/gcc_arm/gcc-arm-none-eabi-6-2017-q2-update/arm-none-eabi/include/c++/6.3.1/bits/stl_vector.h ****       : _M_impl(std::move(__x._M_get_Tp_allocator()))
 144:/home/zkmike/.local/share/renesas/e2_studio/toolchains/gcc_arm/gcc-arm-none-eabi-6-2017-q2-update/arm-none-eabi/include/c++/6.3.1/bits/stl_vector.h ****       { this->_M_impl._M_swap_data(__x._M_impl); }
 145:/home/zkmike/.local/share/renesas/e2_studio/toolchains/gcc_arm/gcc-arm-none-eabi-6-2017-q2-update/arm-none-eabi/include/c++/6.3.1/bits/stl_vector.h **** 
 146:/home/zkmike/.local/share/renesas/e2_studio/toolchains/gcc_arm/gcc-arm-none-eabi-6-2017-q2-update/arm-none-eabi/include/c++/6.3.1/bits/stl_vector.h ****       _Vector_base(_Vector_base&& __x, const allocator_type& __a)
 147:/home/zkmike/.local/share/renesas/e2_studio/toolchains/gcc_arm/gcc-arm-none-eabi-6-2017-q2-update/arm-none-eabi/include/c++/6.3.1/bits/stl_vector.h ****       : _M_impl(__a)
 148:/home/zkmike/.local/share/renesas/e2_studio/toolchains/gcc_arm/gcc-arm-none-eabi-6-2017-q2-update/arm-none-eabi/include/c++/6.3.1/bits/stl_vector.h ****       {
 149:/home/zkmike/.local/share/renesas/e2_studio/toolchains/gcc_arm/gcc-arm-none-eabi-6-2017-q2-update/arm-none-eabi/include/c++/6.3.1/bits/stl_vector.h **** 	if (__x.get_allocator() == __a)
 150:/home/zkmike/.local/share/renesas/e2_studio/toolchains/gcc_arm/gcc-arm-none-eabi-6-2017-q2-update/arm-none-eabi/include/c++/6.3.1/bits/stl_vector.h **** 	  this->_M_impl._M_swap_data(__x._M_impl);
 151:/home/zkmike/.local/share/renesas/e2_studio/toolchains/gcc_arm/gcc-arm-none-eabi-6-2017-q2-update/arm-none-eabi/include/c++/6.3.1/bits/stl_vector.h **** 	else
 152:/home/zkmike/.local/share/renesas/e2_studio/toolchains/gcc_arm/gcc-arm-none-eabi-6-2017-q2-update/arm-none-eabi/include/c++/6.3.1/bits/stl_vector.h **** 	  {
 153:/home/zkmike/.local/share/renesas/e2_studio/toolchains/gcc_arm/gcc-arm-none-eabi-6-2017-q2-update/arm-none-eabi/include/c++/6.3.1/bits/stl_vector.h **** 	    size_t __n = __x._M_impl._M_finish - __x._M_impl._M_start;
 154:/home/zkmike/.local/share/renesas/e2_studio/toolchains/gcc_arm/gcc-arm-none-eabi-6-2017-q2-update/arm-none-eabi/include/c++/6.3.1/bits/stl_vector.h **** 	    _M_create_storage(__n);
 155:/home/zkmike/.local/share/renesas/e2_studio/toolchains/gcc_arm/gcc-arm-none-eabi-6-2017-q2-update/arm-none-eabi/include/c++/6.3.1/bits/stl_vector.h **** 	  }
 156:/home/zkmike/.local/share/renesas/e2_studio/toolchains/gcc_arm/gcc-arm-none-eabi-6-2017-q2-update/arm-none-eabi/include/c++/6.3.1/bits/stl_vector.h ****       }
 157:/home/zkmike/.local/share/renesas/e2_studio/toolchains/gcc_arm/gcc-arm-none-eabi-6-2017-q2-update/arm-none-eabi/include/c++/6.3.1/bits/stl_vector.h **** #endif
 158:/home/zkmike/.local/share/renesas/e2_studio/toolchains/gcc_arm/gcc-arm-none-eabi-6-2017-q2-update/arm-none-eabi/include/c++/6.3.1/bits/stl_vector.h **** 
 159:/home/zkmike/.local/share/renesas/e2_studio/toolchains/gcc_arm/gcc-arm-none-eabi-6-2017-q2-update/arm-none-eabi/include/c++/6.3.1/bits/stl_vector.h ****       ~_Vector_base() _GLIBCXX_NOEXCEPT
 160:/home/zkmike/.local/share/renesas/e2_studio/toolchains/gcc_arm/gcc-arm-none-eabi-6-2017-q2-update/arm-none-eabi/include/c++/6.3.1/bits/stl_vector.h ****       { _M_deallocate(this->_M_impl._M_start, this->_M_impl._M_end_of_storage
 161:/home/zkmike/.local/share/renesas/e2_studio/toolchains/gcc_arm/gcc-arm-none-eabi-6-2017-q2-update/arm-none-eabi/include/c++/6.3.1/bits/stl_vector.h **** 		      - this->_M_impl._M_start); }
 162:/home/zkmike/.local/share/renesas/e2_studio/toolchains/gcc_arm/gcc-arm-none-eabi-6-2017-q2-update/arm-none-eabi/include/c++/6.3.1/bits/stl_vector.h **** 
 163:/home/zkmike/.local/share/renesas/e2_studio/toolchains/gcc_arm/gcc-arm-none-eabi-6-2017-q2-update/arm-none-eabi/include/c++/6.3.1/bits/stl_vector.h ****     public:
 164:/home/zkmike/.local/share/renesas/e2_studio/toolchains/gcc_arm/gcc-arm-none-eabi-6-2017-q2-update/arm-none-eabi/include/c++/6.3.1/bits/stl_vector.h ****       _Vector_impl _M_impl;
 165:/home/zkmike/.local/share/renesas/e2_studio/toolchains/gcc_arm/gcc-arm-none-eabi-6-2017-q2-update/arm-none-eabi/include/c++/6.3.1/bits/stl_vector.h **** 
 166:/home/zkmike/.local/share/renesas/e2_studio/toolchains/gcc_arm/gcc-arm-none-eabi-6-2017-q2-update/arm-none-eabi/include/c++/6.3.1/bits/stl_vector.h ****       pointer
 167:/home/zkmike/.local/share/renesas/e2_studio/toolchains/gcc_arm/gcc-arm-none-eabi-6-2017-q2-update/arm-none-eabi/include/c++/6.3.1/bits/stl_vector.h ****       _M_allocate(size_t __n)
 168:/home/zkmike/.local/share/renesas/e2_studio/toolchains/gcc_arm/gcc-arm-none-eabi-6-2017-q2-update/arm-none-eabi/include/c++/6.3.1/bits/stl_vector.h ****       {
 169:/home/zkmike/.local/share/renesas/e2_studio/toolchains/gcc_arm/gcc-arm-none-eabi-6-2017-q2-update/arm-none-eabi/include/c++/6.3.1/bits/stl_vector.h **** 	typedef __gnu_cxx::__alloc_traits<_Tp_alloc_type> _Tr;
 170:/home/zkmike/.local/share/renesas/e2_studio/toolchains/gcc_arm/gcc-arm-none-eabi-6-2017-q2-update/arm-none-eabi/include/c++/6.3.1/bits/stl_vector.h **** 	return __n != 0 ? _Tr::allocate(_M_impl, __n) : pointer();
 171:/home/zkmike/.local/share/renesas/e2_studio/toolchains/gcc_arm/gcc-arm-none-eabi-6-2017-q2-update/arm-none-eabi/include/c++/6.3.1/bits/stl_vector.h ****       }
 172:/home/zkmike/.local/share/renesas/e2_studio/toolchains/gcc_arm/gcc-arm-none-eabi-6-2017-q2-update/arm-none-eabi/include/c++/6.3.1/bits/stl_vector.h **** 
 173:/home/zkmike/.local/share/renesas/e2_studio/toolchains/gcc_arm/gcc-arm-none-eabi-6-2017-q2-update/arm-none-eabi/include/c++/6.3.1/bits/stl_vector.h ****       void
 174:/home/zkmike/.local/share/renesas/e2_studio/toolchains/gcc_arm/gcc-arm-none-eabi-6-2017-q2-update/arm-none-eabi/include/c++/6.3.1/bits/stl_vector.h ****       _M_deallocate(pointer __p, size_t __n)
 175:/home/zkmike/.local/share/renesas/e2_studio/toolchains/gcc_arm/gcc-arm-none-eabi-6-2017-q2-update/arm-none-eabi/include/c++/6.3.1/bits/stl_vector.h ****       {
 176:/home/zkmike/.local/share/renesas/e2_studio/toolchains/gcc_arm/gcc-arm-none-eabi-6-2017-q2-update/arm-none-eabi/include/c++/6.3.1/bits/stl_vector.h **** 	typedef __gnu_cxx::__alloc_traits<_Tp_alloc_type> _Tr;
 177:/home/zkmike/.local/share/renesas/e2_studio/toolchains/gcc_arm/gcc-arm-none-eabi-6-2017-q2-update/arm-none-eabi/include/c++/6.3.1/bits/stl_vector.h **** 	if (__p)
 178:/home/zkmike/.local/share/renesas/e2_studio/toolchains/gcc_arm/gcc-arm-none-eabi-6-2017-q2-update/arm-none-eabi/include/c++/6.3.1/bits/stl_vector.h **** 	  _Tr::deallocate(_M_impl, __p, __n);
 179:/home/zkmike/.local/share/renesas/e2_studio/toolchains/gcc_arm/gcc-arm-none-eabi-6-2017-q2-update/arm-none-eabi/include/c++/6.3.1/bits/stl_vector.h ****       }
 180:/home/zkmike/.local/share/renesas/e2_studio/toolchains/gcc_arm/gcc-arm-none-eabi-6-2017-q2-update/arm-none-eabi/include/c++/6.3.1/bits/stl_vector.h **** 
 181:/home/zkmike/.local/share/renesas/e2_studio/toolchains/gcc_arm/gcc-arm-none-eabi-6-2017-q2-update/arm-none-eabi/include/c++/6.3.1/bits/stl_vector.h ****     private:
 182:/home/zkmike/.local/share/renesas/e2_studio/toolchains/gcc_arm/gcc-arm-none-eabi-6-2017-q2-update/arm-none-eabi/include/c++/6.3.1/bits/stl_vector.h ****       void
 183:/home/zkmike/.local/share/renesas/e2_studio/toolchains/gcc_arm/gcc-arm-none-eabi-6-2017-q2-update/arm-none-eabi/include/c++/6.3.1/bits/stl_vector.h ****       _M_create_storage(size_t __n)
 184:/home/zkmike/.local/share/renesas/e2_studio/toolchains/gcc_arm/gcc-arm-none-eabi-6-2017-q2-update/arm-none-eabi/include/c++/6.3.1/bits/stl_vector.h ****       {
 185:/home/zkmike/.local/share/renesas/e2_studio/toolchains/gcc_arm/gcc-arm-none-eabi-6-2017-q2-update/arm-none-eabi/include/c++/6.3.1/bits/stl_vector.h **** 	this->_M_impl._M_start = this->_M_allocate(__n);
 186:/home/zkmike/.local/share/renesas/e2_studio/toolchains/gcc_arm/gcc-arm-none-eabi-6-2017-q2-update/arm-none-eabi/include/c++/6.3.1/bits/stl_vector.h **** 	this->_M_impl._M_finish = this->_M_impl._M_start;
 187:/home/zkmike/.local/share/renesas/e2_studio/toolchains/gcc_arm/gcc-arm-none-eabi-6-2017-q2-update/arm-none-eabi/include/c++/6.3.1/bits/stl_vector.h **** 	this->_M_impl._M_end_of_storage = this->_M_impl._M_start + __n;
 188:/home/zkmike/.local/share/renesas/e2_studio/toolchains/gcc_arm/gcc-arm-none-eabi-6-2017-q2-update/arm-none-eabi/include/c++/6.3.1/bits/stl_vector.h ****       }
 189:/home/zkmike/.local/share/renesas/e2_studio/toolchains/gcc_arm/gcc-arm-none-eabi-6-2017-q2-update/arm-none-eabi/include/c++/6.3.1/bits/stl_vector.h ****     };
 190:/home/zkmike/.local/share/renesas/e2_studio/toolchains/gcc_arm/gcc-arm-none-eabi-6-2017-q2-update/arm-none-eabi/include/c++/6.3.1/bits/stl_vector.h **** 
 191:/home/zkmike/.local/share/renesas/e2_studio/toolchains/gcc_arm/gcc-arm-none-eabi-6-2017-q2-update/arm-none-eabi/include/c++/6.3.1/bits/stl_vector.h **** 
 192:/home/zkmike/.local/share/renesas/e2_studio/toolchains/gcc_arm/gcc-arm-none-eabi-6-2017-q2-update/arm-none-eabi/include/c++/6.3.1/bits/stl_vector.h ****   /**
 193:/home/zkmike/.local/share/renesas/e2_studio/toolchains/gcc_arm/gcc-arm-none-eabi-6-2017-q2-update/arm-none-eabi/include/c++/6.3.1/bits/stl_vector.h ****    *  @brief A standard container which offers fixed time access to
 194:/home/zkmike/.local/share/renesas/e2_studio/toolchains/gcc_arm/gcc-arm-none-eabi-6-2017-q2-update/arm-none-eabi/include/c++/6.3.1/bits/stl_vector.h ****    *  individual elements in any order.
 195:/home/zkmike/.local/share/renesas/e2_studio/toolchains/gcc_arm/gcc-arm-none-eabi-6-2017-q2-update/arm-none-eabi/include/c++/6.3.1/bits/stl_vector.h ****    *
 196:/home/zkmike/.local/share/renesas/e2_studio/toolchains/gcc_arm/gcc-arm-none-eabi-6-2017-q2-update/arm-none-eabi/include/c++/6.3.1/bits/stl_vector.h ****    *  @ingroup sequences
 197:/home/zkmike/.local/share/renesas/e2_studio/toolchains/gcc_arm/gcc-arm-none-eabi-6-2017-q2-update/arm-none-eabi/include/c++/6.3.1/bits/stl_vector.h ****    *
 198:/home/zkmike/.local/share/renesas/e2_studio/toolchains/gcc_arm/gcc-arm-none-eabi-6-2017-q2-update/arm-none-eabi/include/c++/6.3.1/bits/stl_vector.h ****    *  @tparam _Tp  Type of element.
 199:/home/zkmike/.local/share/renesas/e2_studio/toolchains/gcc_arm/gcc-arm-none-eabi-6-2017-q2-update/arm-none-eabi/include/c++/6.3.1/bits/stl_vector.h ****    *  @tparam _Alloc  Allocator type, defaults to allocator<_Tp>.
 200:/home/zkmike/.local/share/renesas/e2_studio/toolchains/gcc_arm/gcc-arm-none-eabi-6-2017-q2-update/arm-none-eabi/include/c++/6.3.1/bits/stl_vector.h ****    *
 201:/home/zkmike/.local/share/renesas/e2_studio/toolchains/gcc_arm/gcc-arm-none-eabi-6-2017-q2-update/arm-none-eabi/include/c++/6.3.1/bits/stl_vector.h ****    *  Meets the requirements of a <a href="tables.html#65">container</a>, a
 202:/home/zkmike/.local/share/renesas/e2_studio/toolchains/gcc_arm/gcc-arm-none-eabi-6-2017-q2-update/arm-none-eabi/include/c++/6.3.1/bits/stl_vector.h ****    *  <a href="tables.html#66">reversible container</a>, and a
 203:/home/zkmike/.local/share/renesas/e2_studio/toolchains/gcc_arm/gcc-arm-none-eabi-6-2017-q2-update/arm-none-eabi/include/c++/6.3.1/bits/stl_vector.h ****    *  <a href="tables.html#67">sequence</a>, including the
 204:/home/zkmike/.local/share/renesas/e2_studio/toolchains/gcc_arm/gcc-arm-none-eabi-6-2017-q2-update/arm-none-eabi/include/c++/6.3.1/bits/stl_vector.h ****    *  <a href="tables.html#68">optional sequence requirements</a> with the
 205:/home/zkmike/.local/share/renesas/e2_studio/toolchains/gcc_arm/gcc-arm-none-eabi-6-2017-q2-update/arm-none-eabi/include/c++/6.3.1/bits/stl_vector.h ****    *  %exception of @c push_front and @c pop_front.
 206:/home/zkmike/.local/share/renesas/e2_studio/toolchains/gcc_arm/gcc-arm-none-eabi-6-2017-q2-update/arm-none-eabi/include/c++/6.3.1/bits/stl_vector.h ****    *
 207:/home/zkmike/.local/share/renesas/e2_studio/toolchains/gcc_arm/gcc-arm-none-eabi-6-2017-q2-update/arm-none-eabi/include/c++/6.3.1/bits/stl_vector.h ****    *  In some terminology a %vector can be described as a dynamic
 208:/home/zkmike/.local/share/renesas/e2_studio/toolchains/gcc_arm/gcc-arm-none-eabi-6-2017-q2-update/arm-none-eabi/include/c++/6.3.1/bits/stl_vector.h ****    *  C-style array, it offers fast and efficient access to individual
 209:/home/zkmike/.local/share/renesas/e2_studio/toolchains/gcc_arm/gcc-arm-none-eabi-6-2017-q2-update/arm-none-eabi/include/c++/6.3.1/bits/stl_vector.h ****    *  elements in any order and saves the user from worrying about
 210:/home/zkmike/.local/share/renesas/e2_studio/toolchains/gcc_arm/gcc-arm-none-eabi-6-2017-q2-update/arm-none-eabi/include/c++/6.3.1/bits/stl_vector.h ****    *  memory and size allocation.  Subscripting ( @c [] ) access is
 211:/home/zkmike/.local/share/renesas/e2_studio/toolchains/gcc_arm/gcc-arm-none-eabi-6-2017-q2-update/arm-none-eabi/include/c++/6.3.1/bits/stl_vector.h ****    *  also provided as with C-style arrays.
 212:/home/zkmike/.local/share/renesas/e2_studio/toolchains/gcc_arm/gcc-arm-none-eabi-6-2017-q2-update/arm-none-eabi/include/c++/6.3.1/bits/stl_vector.h ****   */
 213:/home/zkmike/.local/share/renesas/e2_studio/toolchains/gcc_arm/gcc-arm-none-eabi-6-2017-q2-update/arm-none-eabi/include/c++/6.3.1/bits/stl_vector.h ****   template<typename _Tp, typename _Alloc = std::allocator<_Tp> >
 214:/home/zkmike/.local/share/renesas/e2_studio/toolchains/gcc_arm/gcc-arm-none-eabi-6-2017-q2-update/arm-none-eabi/include/c++/6.3.1/bits/stl_vector.h ****     class vector : protected _Vector_base<_Tp, _Alloc>
 215:/home/zkmike/.local/share/renesas/e2_studio/toolchains/gcc_arm/gcc-arm-none-eabi-6-2017-q2-update/arm-none-eabi/include/c++/6.3.1/bits/stl_vector.h ****     {
 216:/home/zkmike/.local/share/renesas/e2_studio/toolchains/gcc_arm/gcc-arm-none-eabi-6-2017-q2-update/arm-none-eabi/include/c++/6.3.1/bits/stl_vector.h ****       // Concept requirements.
 217:/home/zkmike/.local/share/renesas/e2_studio/toolchains/gcc_arm/gcc-arm-none-eabi-6-2017-q2-update/arm-none-eabi/include/c++/6.3.1/bits/stl_vector.h ****       typedef typename _Alloc::value_type                _Alloc_value_type;
 218:/home/zkmike/.local/share/renesas/e2_studio/toolchains/gcc_arm/gcc-arm-none-eabi-6-2017-q2-update/arm-none-eabi/include/c++/6.3.1/bits/stl_vector.h **** #if __cplusplus < 201103L
 219:/home/zkmike/.local/share/renesas/e2_studio/toolchains/gcc_arm/gcc-arm-none-eabi-6-2017-q2-update/arm-none-eabi/include/c++/6.3.1/bits/stl_vector.h ****       __glibcxx_class_requires(_Tp, _SGIAssignableConcept)
 220:/home/zkmike/.local/share/renesas/e2_studio/toolchains/gcc_arm/gcc-arm-none-eabi-6-2017-q2-update/arm-none-eabi/include/c++/6.3.1/bits/stl_vector.h **** #endif
 221:/home/zkmike/.local/share/renesas/e2_studio/toolchains/gcc_arm/gcc-arm-none-eabi-6-2017-q2-update/arm-none-eabi/include/c++/6.3.1/bits/stl_vector.h ****       __glibcxx_class_requires2(_Tp, _Alloc_value_type, _SameTypeConcept)
 222:/home/zkmike/.local/share/renesas/e2_studio/toolchains/gcc_arm/gcc-arm-none-eabi-6-2017-q2-update/arm-none-eabi/include/c++/6.3.1/bits/stl_vector.h ****       
 223:/home/zkmike/.local/share/renesas/e2_studio/toolchains/gcc_arm/gcc-arm-none-eabi-6-2017-q2-update/arm-none-eabi/include/c++/6.3.1/bits/stl_vector.h ****       typedef _Vector_base<_Tp, _Alloc>			 _Base;
 224:/home/zkmike/.local/share/renesas/e2_studio/toolchains/gcc_arm/gcc-arm-none-eabi-6-2017-q2-update/arm-none-eabi/include/c++/6.3.1/bits/stl_vector.h ****       typedef typename _Base::_Tp_alloc_type		 _Tp_alloc_type;
 225:/home/zkmike/.local/share/renesas/e2_studio/toolchains/gcc_arm/gcc-arm-none-eabi-6-2017-q2-update/arm-none-eabi/include/c++/6.3.1/bits/stl_vector.h ****       typedef __gnu_cxx::__alloc_traits<_Tp_alloc_type>  _Alloc_traits;
 226:/home/zkmike/.local/share/renesas/e2_studio/toolchains/gcc_arm/gcc-arm-none-eabi-6-2017-q2-update/arm-none-eabi/include/c++/6.3.1/bits/stl_vector.h **** 
 227:/home/zkmike/.local/share/renesas/e2_studio/toolchains/gcc_arm/gcc-arm-none-eabi-6-2017-q2-update/arm-none-eabi/include/c++/6.3.1/bits/stl_vector.h ****     public:
 228:/home/zkmike/.local/share/renesas/e2_studio/toolchains/gcc_arm/gcc-arm-none-eabi-6-2017-q2-update/arm-none-eabi/include/c++/6.3.1/bits/stl_vector.h ****       typedef _Tp					 value_type;
 229:/home/zkmike/.local/share/renesas/e2_studio/toolchains/gcc_arm/gcc-arm-none-eabi-6-2017-q2-update/arm-none-eabi/include/c++/6.3.1/bits/stl_vector.h ****       typedef typename _Base::pointer                    pointer;
 230:/home/zkmike/.local/share/renesas/e2_studio/toolchains/gcc_arm/gcc-arm-none-eabi-6-2017-q2-update/arm-none-eabi/include/c++/6.3.1/bits/stl_vector.h ****       typedef typename _Alloc_traits::const_pointer      const_pointer;
 231:/home/zkmike/.local/share/renesas/e2_studio/toolchains/gcc_arm/gcc-arm-none-eabi-6-2017-q2-update/arm-none-eabi/include/c++/6.3.1/bits/stl_vector.h ****       typedef typename _Alloc_traits::reference          reference;
 232:/home/zkmike/.local/share/renesas/e2_studio/toolchains/gcc_arm/gcc-arm-none-eabi-6-2017-q2-update/arm-none-eabi/include/c++/6.3.1/bits/stl_vector.h ****       typedef typename _Alloc_traits::const_reference    const_reference;
 233:/home/zkmike/.local/share/renesas/e2_studio/toolchains/gcc_arm/gcc-arm-none-eabi-6-2017-q2-update/arm-none-eabi/include/c++/6.3.1/bits/stl_vector.h ****       typedef __gnu_cxx::__normal_iterator<pointer, vector> iterator;
 234:/home/zkmike/.local/share/renesas/e2_studio/toolchains/gcc_arm/gcc-arm-none-eabi-6-2017-q2-update/arm-none-eabi/include/c++/6.3.1/bits/stl_vector.h ****       typedef __gnu_cxx::__normal_iterator<const_pointer, vector>
 235:/home/zkmike/.local/share/renesas/e2_studio/toolchains/gcc_arm/gcc-arm-none-eabi-6-2017-q2-update/arm-none-eabi/include/c++/6.3.1/bits/stl_vector.h ****       const_iterator;
 236:/home/zkmike/.local/share/renesas/e2_studio/toolchains/gcc_arm/gcc-arm-none-eabi-6-2017-q2-update/arm-none-eabi/include/c++/6.3.1/bits/stl_vector.h ****       typedef std::reverse_iterator<const_iterator>  const_reverse_iterator;
 237:/home/zkmike/.local/share/renesas/e2_studio/toolchains/gcc_arm/gcc-arm-none-eabi-6-2017-q2-update/arm-none-eabi/include/c++/6.3.1/bits/stl_vector.h ****       typedef std::reverse_iterator<iterator>		 reverse_iterator;
 238:/home/zkmike/.local/share/renesas/e2_studio/toolchains/gcc_arm/gcc-arm-none-eabi-6-2017-q2-update/arm-none-eabi/include/c++/6.3.1/bits/stl_vector.h ****       typedef size_t					 size_type;
 239:/home/zkmike/.local/share/renesas/e2_studio/toolchains/gcc_arm/gcc-arm-none-eabi-6-2017-q2-update/arm-none-eabi/include/c++/6.3.1/bits/stl_vector.h ****       typedef ptrdiff_t					 difference_type;
 240:/home/zkmike/.local/share/renesas/e2_studio/toolchains/gcc_arm/gcc-arm-none-eabi-6-2017-q2-update/arm-none-eabi/include/c++/6.3.1/bits/stl_vector.h ****       typedef _Alloc                        		 allocator_type;
 241:/home/zkmike/.local/share/renesas/e2_studio/toolchains/gcc_arm/gcc-arm-none-eabi-6-2017-q2-update/arm-none-eabi/include/c++/6.3.1/bits/stl_vector.h **** 
 242:/home/zkmike/.local/share/renesas/e2_studio/toolchains/gcc_arm/gcc-arm-none-eabi-6-2017-q2-update/arm-none-eabi/include/c++/6.3.1/bits/stl_vector.h ****     protected:
 243:/home/zkmike/.local/share/renesas/e2_studio/toolchains/gcc_arm/gcc-arm-none-eabi-6-2017-q2-update/arm-none-eabi/include/c++/6.3.1/bits/stl_vector.h ****       using _Base::_M_allocate;
 244:/home/zkmike/.local/share/renesas/e2_studio/toolchains/gcc_arm/gcc-arm-none-eabi-6-2017-q2-update/arm-none-eabi/include/c++/6.3.1/bits/stl_vector.h ****       using _Base::_M_deallocate;
 245:/home/zkmike/.local/share/renesas/e2_studio/toolchains/gcc_arm/gcc-arm-none-eabi-6-2017-q2-update/arm-none-eabi/include/c++/6.3.1/bits/stl_vector.h ****       using _Base::_M_impl;
 246:/home/zkmike/.local/share/renesas/e2_studio/toolchains/gcc_arm/gcc-arm-none-eabi-6-2017-q2-update/arm-none-eabi/include/c++/6.3.1/bits/stl_vector.h ****       using _Base::_M_get_Tp_allocator;
 247:/home/zkmike/.local/share/renesas/e2_studio/toolchains/gcc_arm/gcc-arm-none-eabi-6-2017-q2-update/arm-none-eabi/include/c++/6.3.1/bits/stl_vector.h **** 
 248:/home/zkmike/.local/share/renesas/e2_studio/toolchains/gcc_arm/gcc-arm-none-eabi-6-2017-q2-update/arm-none-eabi/include/c++/6.3.1/bits/stl_vector.h ****     public:
 249:/home/zkmike/.local/share/renesas/e2_studio/toolchains/gcc_arm/gcc-arm-none-eabi-6-2017-q2-update/arm-none-eabi/include/c++/6.3.1/bits/stl_vector.h ****       // [23.2.4.1] construct/copy/destroy
 250:/home/zkmike/.local/share/renesas/e2_studio/toolchains/gcc_arm/gcc-arm-none-eabi-6-2017-q2-update/arm-none-eabi/include/c++/6.3.1/bits/stl_vector.h ****       // (assign() and get_allocator() are also listed in this section)
 251:/home/zkmike/.local/share/renesas/e2_studio/toolchains/gcc_arm/gcc-arm-none-eabi-6-2017-q2-update/arm-none-eabi/include/c++/6.3.1/bits/stl_vector.h **** 
 252:/home/zkmike/.local/share/renesas/e2_studio/toolchains/gcc_arm/gcc-arm-none-eabi-6-2017-q2-update/arm-none-eabi/include/c++/6.3.1/bits/stl_vector.h ****       /**
 253:/home/zkmike/.local/share/renesas/e2_studio/toolchains/gcc_arm/gcc-arm-none-eabi-6-2017-q2-update/arm-none-eabi/include/c++/6.3.1/bits/stl_vector.h ****        *  @brief  Creates a %vector with no elements.
 254:/home/zkmike/.local/share/renesas/e2_studio/toolchains/gcc_arm/gcc-arm-none-eabi-6-2017-q2-update/arm-none-eabi/include/c++/6.3.1/bits/stl_vector.h ****        */
 255:/home/zkmike/.local/share/renesas/e2_studio/toolchains/gcc_arm/gcc-arm-none-eabi-6-2017-q2-update/arm-none-eabi/include/c++/6.3.1/bits/stl_vector.h ****       vector()
 256:/home/zkmike/.local/share/renesas/e2_studio/toolchains/gcc_arm/gcc-arm-none-eabi-6-2017-q2-update/arm-none-eabi/include/c++/6.3.1/bits/stl_vector.h **** #if __cplusplus >= 201103L
 257:/home/zkmike/.local/share/renesas/e2_studio/toolchains/gcc_arm/gcc-arm-none-eabi-6-2017-q2-update/arm-none-eabi/include/c++/6.3.1/bits/stl_vector.h ****       noexcept(is_nothrow_default_constructible<_Alloc>::value)
 258:/home/zkmike/.local/share/renesas/e2_studio/toolchains/gcc_arm/gcc-arm-none-eabi-6-2017-q2-update/arm-none-eabi/include/c++/6.3.1/bits/stl_vector.h **** #endif
 259:/home/zkmike/.local/share/renesas/e2_studio/toolchains/gcc_arm/gcc-arm-none-eabi-6-2017-q2-update/arm-none-eabi/include/c++/6.3.1/bits/stl_vector.h ****       : _Base() { }
 260:/home/zkmike/.local/share/renesas/e2_studio/toolchains/gcc_arm/gcc-arm-none-eabi-6-2017-q2-update/arm-none-eabi/include/c++/6.3.1/bits/stl_vector.h **** 
 261:/home/zkmike/.local/share/renesas/e2_studio/toolchains/gcc_arm/gcc-arm-none-eabi-6-2017-q2-update/arm-none-eabi/include/c++/6.3.1/bits/stl_vector.h ****       /**
 262:/home/zkmike/.local/share/renesas/e2_studio/toolchains/gcc_arm/gcc-arm-none-eabi-6-2017-q2-update/arm-none-eabi/include/c++/6.3.1/bits/stl_vector.h ****        *  @brief  Creates a %vector with no elements.
 263:/home/zkmike/.local/share/renesas/e2_studio/toolchains/gcc_arm/gcc-arm-none-eabi-6-2017-q2-update/arm-none-eabi/include/c++/6.3.1/bits/stl_vector.h ****        *  @param  __a  An allocator object.
 264:/home/zkmike/.local/share/renesas/e2_studio/toolchains/gcc_arm/gcc-arm-none-eabi-6-2017-q2-update/arm-none-eabi/include/c++/6.3.1/bits/stl_vector.h ****        */
 265:/home/zkmike/.local/share/renesas/e2_studio/toolchains/gcc_arm/gcc-arm-none-eabi-6-2017-q2-update/arm-none-eabi/include/c++/6.3.1/bits/stl_vector.h ****       explicit
 266:/home/zkmike/.local/share/renesas/e2_studio/toolchains/gcc_arm/gcc-arm-none-eabi-6-2017-q2-update/arm-none-eabi/include/c++/6.3.1/bits/stl_vector.h ****       vector(const allocator_type& __a) _GLIBCXX_NOEXCEPT
 267:/home/zkmike/.local/share/renesas/e2_studio/toolchains/gcc_arm/gcc-arm-none-eabi-6-2017-q2-update/arm-none-eabi/include/c++/6.3.1/bits/stl_vector.h ****       : _Base(__a) { }
 268:/home/zkmike/.local/share/renesas/e2_studio/toolchains/gcc_arm/gcc-arm-none-eabi-6-2017-q2-update/arm-none-eabi/include/c++/6.3.1/bits/stl_vector.h **** 
 269:/home/zkmike/.local/share/renesas/e2_studio/toolchains/gcc_arm/gcc-arm-none-eabi-6-2017-q2-update/arm-none-eabi/include/c++/6.3.1/bits/stl_vector.h **** #if __cplusplus >= 201103L
 270:/home/zkmike/.local/share/renesas/e2_studio/toolchains/gcc_arm/gcc-arm-none-eabi-6-2017-q2-update/arm-none-eabi/include/c++/6.3.1/bits/stl_vector.h ****       /**
 271:/home/zkmike/.local/share/renesas/e2_studio/toolchains/gcc_arm/gcc-arm-none-eabi-6-2017-q2-update/arm-none-eabi/include/c++/6.3.1/bits/stl_vector.h ****        *  @brief  Creates a %vector with default constructed elements.
 272:/home/zkmike/.local/share/renesas/e2_studio/toolchains/gcc_arm/gcc-arm-none-eabi-6-2017-q2-update/arm-none-eabi/include/c++/6.3.1/bits/stl_vector.h ****        *  @param  __n  The number of elements to initially create.
 273:/home/zkmike/.local/share/renesas/e2_studio/toolchains/gcc_arm/gcc-arm-none-eabi-6-2017-q2-update/arm-none-eabi/include/c++/6.3.1/bits/stl_vector.h ****        *  @param  __a  An allocator.
 274:/home/zkmike/.local/share/renesas/e2_studio/toolchains/gcc_arm/gcc-arm-none-eabi-6-2017-q2-update/arm-none-eabi/include/c++/6.3.1/bits/stl_vector.h ****        *
 275:/home/zkmike/.local/share/renesas/e2_studio/toolchains/gcc_arm/gcc-arm-none-eabi-6-2017-q2-update/arm-none-eabi/include/c++/6.3.1/bits/stl_vector.h ****        *  This constructor fills the %vector with @a __n default
 276:/home/zkmike/.local/share/renesas/e2_studio/toolchains/gcc_arm/gcc-arm-none-eabi-6-2017-q2-update/arm-none-eabi/include/c++/6.3.1/bits/stl_vector.h ****        *  constructed elements.
 277:/home/zkmike/.local/share/renesas/e2_studio/toolchains/gcc_arm/gcc-arm-none-eabi-6-2017-q2-update/arm-none-eabi/include/c++/6.3.1/bits/stl_vector.h ****        */
 278:/home/zkmike/.local/share/renesas/e2_studio/toolchains/gcc_arm/gcc-arm-none-eabi-6-2017-q2-update/arm-none-eabi/include/c++/6.3.1/bits/stl_vector.h ****       explicit
 279:/home/zkmike/.local/share/renesas/e2_studio/toolchains/gcc_arm/gcc-arm-none-eabi-6-2017-q2-update/arm-none-eabi/include/c++/6.3.1/bits/stl_vector.h ****       vector(size_type __n, const allocator_type& __a = allocator_type())
 280:/home/zkmike/.local/share/renesas/e2_studio/toolchains/gcc_arm/gcc-arm-none-eabi-6-2017-q2-update/arm-none-eabi/include/c++/6.3.1/bits/stl_vector.h ****       : _Base(__n, __a)
 281:/home/zkmike/.local/share/renesas/e2_studio/toolchains/gcc_arm/gcc-arm-none-eabi-6-2017-q2-update/arm-none-eabi/include/c++/6.3.1/bits/stl_vector.h ****       { _M_default_initialize(__n); }
 282:/home/zkmike/.local/share/renesas/e2_studio/toolchains/gcc_arm/gcc-arm-none-eabi-6-2017-q2-update/arm-none-eabi/include/c++/6.3.1/bits/stl_vector.h **** 
 283:/home/zkmike/.local/share/renesas/e2_studio/toolchains/gcc_arm/gcc-arm-none-eabi-6-2017-q2-update/arm-none-eabi/include/c++/6.3.1/bits/stl_vector.h ****       /**
 284:/home/zkmike/.local/share/renesas/e2_studio/toolchains/gcc_arm/gcc-arm-none-eabi-6-2017-q2-update/arm-none-eabi/include/c++/6.3.1/bits/stl_vector.h ****        *  @brief  Creates a %vector with copies of an exemplar element.
 285:/home/zkmike/.local/share/renesas/e2_studio/toolchains/gcc_arm/gcc-arm-none-eabi-6-2017-q2-update/arm-none-eabi/include/c++/6.3.1/bits/stl_vector.h ****        *  @param  __n  The number of elements to initially create.
 286:/home/zkmike/.local/share/renesas/e2_studio/toolchains/gcc_arm/gcc-arm-none-eabi-6-2017-q2-update/arm-none-eabi/include/c++/6.3.1/bits/stl_vector.h ****        *  @param  __value  An element to copy.
 287:/home/zkmike/.local/share/renesas/e2_studio/toolchains/gcc_arm/gcc-arm-none-eabi-6-2017-q2-update/arm-none-eabi/include/c++/6.3.1/bits/stl_vector.h ****        *  @param  __a  An allocator.
 288:/home/zkmike/.local/share/renesas/e2_studio/toolchains/gcc_arm/gcc-arm-none-eabi-6-2017-q2-update/arm-none-eabi/include/c++/6.3.1/bits/stl_vector.h ****        *
 289:/home/zkmike/.local/share/renesas/e2_studio/toolchains/gcc_arm/gcc-arm-none-eabi-6-2017-q2-update/arm-none-eabi/include/c++/6.3.1/bits/stl_vector.h ****        *  This constructor fills the %vector with @a __n copies of @a __value.
 290:/home/zkmike/.local/share/renesas/e2_studio/toolchains/gcc_arm/gcc-arm-none-eabi-6-2017-q2-update/arm-none-eabi/include/c++/6.3.1/bits/stl_vector.h ****        */
 291:/home/zkmike/.local/share/renesas/e2_studio/toolchains/gcc_arm/gcc-arm-none-eabi-6-2017-q2-update/arm-none-eabi/include/c++/6.3.1/bits/stl_vector.h ****       vector(size_type __n, const value_type& __value,
 292:/home/zkmike/.local/share/renesas/e2_studio/toolchains/gcc_arm/gcc-arm-none-eabi-6-2017-q2-update/arm-none-eabi/include/c++/6.3.1/bits/stl_vector.h **** 	     const allocator_type& __a = allocator_type())
 293:/home/zkmike/.local/share/renesas/e2_studio/toolchains/gcc_arm/gcc-arm-none-eabi-6-2017-q2-update/arm-none-eabi/include/c++/6.3.1/bits/stl_vector.h ****       : _Base(__n, __a)
 294:/home/zkmike/.local/share/renesas/e2_studio/toolchains/gcc_arm/gcc-arm-none-eabi-6-2017-q2-update/arm-none-eabi/include/c++/6.3.1/bits/stl_vector.h ****       { _M_fill_initialize(__n, __value); }
 295:/home/zkmike/.local/share/renesas/e2_studio/toolchains/gcc_arm/gcc-arm-none-eabi-6-2017-q2-update/arm-none-eabi/include/c++/6.3.1/bits/stl_vector.h **** #else
 296:/home/zkmike/.local/share/renesas/e2_studio/toolchains/gcc_arm/gcc-arm-none-eabi-6-2017-q2-update/arm-none-eabi/include/c++/6.3.1/bits/stl_vector.h ****       /**
 297:/home/zkmike/.local/share/renesas/e2_studio/toolchains/gcc_arm/gcc-arm-none-eabi-6-2017-q2-update/arm-none-eabi/include/c++/6.3.1/bits/stl_vector.h ****        *  @brief  Creates a %vector with copies of an exemplar element.
 298:/home/zkmike/.local/share/renesas/e2_studio/toolchains/gcc_arm/gcc-arm-none-eabi-6-2017-q2-update/arm-none-eabi/include/c++/6.3.1/bits/stl_vector.h ****        *  @param  __n  The number of elements to initially create.
 299:/home/zkmike/.local/share/renesas/e2_studio/toolchains/gcc_arm/gcc-arm-none-eabi-6-2017-q2-update/arm-none-eabi/include/c++/6.3.1/bits/stl_vector.h ****        *  @param  __value  An element to copy.
