   1              		.cpu cortex-a9
   2              		.eabi_attribute 28, 1
   3              		.eabi_attribute 20, 1
   4              		.eabi_attribute 21, 1
   5              		.eabi_attribute 23, 3
   6              		.eabi_attribute 24, 1
   7              		.eabi_attribute 25, 1
   8              		.eabi_attribute 26, 1
   9              		.eabi_attribute 30, 1
  10              		.eabi_attribute 34, 0
  11              		.eabi_attribute 18, 4
  12              		.file	"AztecReader.cpp"
  13              		.text
  14              	.Ltext0:
  15              		.cfi_sections	.debug_frame
  16              		.section	.text._ZN5zxing8ArrayRefINS_3RefINS_11ResultPointEEEED2Ev,"axG",%progbits,_ZN5zxing8Array
  17              		.align	2
  18              		.weak	_ZN5zxing8ArrayRefINS_3RefINS_11ResultPointEEEED2Ev
  19              		.syntax unified
  20              		.arm
  21              		.fpu neon
  23              	_ZN5zxing8ArrayRefINS_3RefINS_11ResultPointEEEED2Ev:
  24              		.fnstart
  25              	.LFB2504:
  26              		.file 1 "/home/zkmike/workspace/RZA2M/rza2m_2d_barcode_sample_freertos_gcc/src/zxing_lib/zxing/com
   1:/home/zkmike/workspace/RZA2M/rza2m_2d_barcode_sample_freertos_gcc/src/zxing_lib/zxing/common/Array.h **** // -*- mode:c++; tab-width:2; indent-tabs-mode:nil; c-basic-offset:2 -*-
   2:/home/zkmike/workspace/RZA2M/rza2m_2d_barcode_sample_freertos_gcc/src/zxing_lib/zxing/common/Array.h **** #ifndef __ARRAY_H__
   3:/home/zkmike/workspace/RZA2M/rza2m_2d_barcode_sample_freertos_gcc/src/zxing_lib/zxing/common/Array.h **** #define __ARRAY_H__
   4:/home/zkmike/workspace/RZA2M/rza2m_2d_barcode_sample_freertos_gcc/src/zxing_lib/zxing/common/Array.h **** 
   5:/home/zkmike/workspace/RZA2M/rza2m_2d_barcode_sample_freertos_gcc/src/zxing_lib/zxing/common/Array.h **** /*
   6:/home/zkmike/workspace/RZA2M/rza2m_2d_barcode_sample_freertos_gcc/src/zxing_lib/zxing/common/Array.h ****  *  Array.h
   7:/home/zkmike/workspace/RZA2M/rza2m_2d_barcode_sample_freertos_gcc/src/zxing_lib/zxing/common/Array.h ****  *  zxing
   8:/home/zkmike/workspace/RZA2M/rza2m_2d_barcode_sample_freertos_gcc/src/zxing_lib/zxing/common/Array.h ****  *
   9:/home/zkmike/workspace/RZA2M/rza2m_2d_barcode_sample_freertos_gcc/src/zxing_lib/zxing/common/Array.h ****  *  Copyright 2010 ZXing authors All rights reserved.
  10:/home/zkmike/workspace/RZA2M/rza2m_2d_barcode_sample_freertos_gcc/src/zxing_lib/zxing/common/Array.h ****  *
  11:/home/zkmike/workspace/RZA2M/rza2m_2d_barcode_sample_freertos_gcc/src/zxing_lib/zxing/common/Array.h ****  * Licensed under the Apache License, Version 2.0 (the "License");
  12:/home/zkmike/workspace/RZA2M/rza2m_2d_barcode_sample_freertos_gcc/src/zxing_lib/zxing/common/Array.h ****  * you may not use this file except in compliance with the License.
  13:/home/zkmike/workspace/RZA2M/rza2m_2d_barcode_sample_freertos_gcc/src/zxing_lib/zxing/common/Array.h ****  * You may obtain a copy of the License at
  14:/home/zkmike/workspace/RZA2M/rza2m_2d_barcode_sample_freertos_gcc/src/zxing_lib/zxing/common/Array.h ****  *
  15:/home/zkmike/workspace/RZA2M/rza2m_2d_barcode_sample_freertos_gcc/src/zxing_lib/zxing/common/Array.h ****  *      http://www.apache.org/licenses/LICENSE-2.0
  16:/home/zkmike/workspace/RZA2M/rza2m_2d_barcode_sample_freertos_gcc/src/zxing_lib/zxing/common/Array.h ****  *
  17:/home/zkmike/workspace/RZA2M/rza2m_2d_barcode_sample_freertos_gcc/src/zxing_lib/zxing/common/Array.h ****  * Unless required by applicable law or agreed to in writing, software
  18:/home/zkmike/workspace/RZA2M/rza2m_2d_barcode_sample_freertos_gcc/src/zxing_lib/zxing/common/Array.h ****  * distributed under the License is distributed on an "AS IS" BASIS,
  19:/home/zkmike/workspace/RZA2M/rza2m_2d_barcode_sample_freertos_gcc/src/zxing_lib/zxing/common/Array.h ****  * WITHOUT WARRANTIES OR CONDITIONS OF ANY KIND, either express or implied.
  20:/home/zkmike/workspace/RZA2M/rza2m_2d_barcode_sample_freertos_gcc/src/zxing_lib/zxing/common/Array.h ****  * See the License for the specific language governing permissions and
  21:/home/zkmike/workspace/RZA2M/rza2m_2d_barcode_sample_freertos_gcc/src/zxing_lib/zxing/common/Array.h ****  * limitations under the License.
  22:/home/zkmike/workspace/RZA2M/rza2m_2d_barcode_sample_freertos_gcc/src/zxing_lib/zxing/common/Array.h ****  */
  23:/home/zkmike/workspace/RZA2M/rza2m_2d_barcode_sample_freertos_gcc/src/zxing_lib/zxing/common/Array.h **** 
  24:/home/zkmike/workspace/RZA2M/rza2m_2d_barcode_sample_freertos_gcc/src/zxing_lib/zxing/common/Array.h **** #include <vector>
  25:/home/zkmike/workspace/RZA2M/rza2m_2d_barcode_sample_freertos_gcc/src/zxing_lib/zxing/common/Array.h **** 
  26:/home/zkmike/workspace/RZA2M/rza2m_2d_barcode_sample_freertos_gcc/src/zxing_lib/zxing/common/Array.h **** #include <zxing/common/Counted.h>
  27:/home/zkmike/workspace/RZA2M/rza2m_2d_barcode_sample_freertos_gcc/src/zxing_lib/zxing/common/Array.h **** 
  28:/home/zkmike/workspace/RZA2M/rza2m_2d_barcode_sample_freertos_gcc/src/zxing_lib/zxing/common/Array.h **** namespace zxing {
  29:/home/zkmike/workspace/RZA2M/rza2m_2d_barcode_sample_freertos_gcc/src/zxing_lib/zxing/common/Array.h **** 
  30:/home/zkmike/workspace/RZA2M/rza2m_2d_barcode_sample_freertos_gcc/src/zxing_lib/zxing/common/Array.h **** template<typename T> class Array : public Counted {
  31:/home/zkmike/workspace/RZA2M/rza2m_2d_barcode_sample_freertos_gcc/src/zxing_lib/zxing/common/Array.h **** protected:
  32:/home/zkmike/workspace/RZA2M/rza2m_2d_barcode_sample_freertos_gcc/src/zxing_lib/zxing/common/Array.h **** public:
  33:/home/zkmike/workspace/RZA2M/rza2m_2d_barcode_sample_freertos_gcc/src/zxing_lib/zxing/common/Array.h ****   std::vector<T> values_;
  34:/home/zkmike/workspace/RZA2M/rza2m_2d_barcode_sample_freertos_gcc/src/zxing_lib/zxing/common/Array.h ****   Array() {}
  35:/home/zkmike/workspace/RZA2M/rza2m_2d_barcode_sample_freertos_gcc/src/zxing_lib/zxing/common/Array.h ****   Array(int n) :
  36:/home/zkmike/workspace/RZA2M/rza2m_2d_barcode_sample_freertos_gcc/src/zxing_lib/zxing/common/Array.h ****       Counted(), values_(n, T()) {
  37:/home/zkmike/workspace/RZA2M/rza2m_2d_barcode_sample_freertos_gcc/src/zxing_lib/zxing/common/Array.h ****   }
  38:/home/zkmike/workspace/RZA2M/rza2m_2d_barcode_sample_freertos_gcc/src/zxing_lib/zxing/common/Array.h ****   Array(T const* ts, int n) :
  39:/home/zkmike/workspace/RZA2M/rza2m_2d_barcode_sample_freertos_gcc/src/zxing_lib/zxing/common/Array.h ****       Counted(), values_(ts, ts+n) {
  40:/home/zkmike/workspace/RZA2M/rza2m_2d_barcode_sample_freertos_gcc/src/zxing_lib/zxing/common/Array.h ****   }
  41:/home/zkmike/workspace/RZA2M/rza2m_2d_barcode_sample_freertos_gcc/src/zxing_lib/zxing/common/Array.h ****   Array(T const* ts, T const* te) :
  42:/home/zkmike/workspace/RZA2M/rza2m_2d_barcode_sample_freertos_gcc/src/zxing_lib/zxing/common/Array.h ****       Counted(), values_(ts, te) {
  43:/home/zkmike/workspace/RZA2M/rza2m_2d_barcode_sample_freertos_gcc/src/zxing_lib/zxing/common/Array.h ****   }
  44:/home/zkmike/workspace/RZA2M/rza2m_2d_barcode_sample_freertos_gcc/src/zxing_lib/zxing/common/Array.h ****   Array(T v, int n) :
  45:/home/zkmike/workspace/RZA2M/rza2m_2d_barcode_sample_freertos_gcc/src/zxing_lib/zxing/common/Array.h ****       Counted(), values_(n, v) {
  46:/home/zkmike/workspace/RZA2M/rza2m_2d_barcode_sample_freertos_gcc/src/zxing_lib/zxing/common/Array.h ****   }
  47:/home/zkmike/workspace/RZA2M/rza2m_2d_barcode_sample_freertos_gcc/src/zxing_lib/zxing/common/Array.h ****   Array(std::vector<T> &v) :
  48:/home/zkmike/workspace/RZA2M/rza2m_2d_barcode_sample_freertos_gcc/src/zxing_lib/zxing/common/Array.h ****       Counted(), values_(v) {
  49:/home/zkmike/workspace/RZA2M/rza2m_2d_barcode_sample_freertos_gcc/src/zxing_lib/zxing/common/Array.h ****   }
  50:/home/zkmike/workspace/RZA2M/rza2m_2d_barcode_sample_freertos_gcc/src/zxing_lib/zxing/common/Array.h ****   Array(Array<T> &other) :
  51:/home/zkmike/workspace/RZA2M/rza2m_2d_barcode_sample_freertos_gcc/src/zxing_lib/zxing/common/Array.h ****       Counted(), values_(other.values_) {
  52:/home/zkmike/workspace/RZA2M/rza2m_2d_barcode_sample_freertos_gcc/src/zxing_lib/zxing/common/Array.h ****   }
  53:/home/zkmike/workspace/RZA2M/rza2m_2d_barcode_sample_freertos_gcc/src/zxing_lib/zxing/common/Array.h ****   Array(Array<T> *other) :
  54:/home/zkmike/workspace/RZA2M/rza2m_2d_barcode_sample_freertos_gcc/src/zxing_lib/zxing/common/Array.h ****       Counted(), values_(other->values_) {
  55:/home/zkmike/workspace/RZA2M/rza2m_2d_barcode_sample_freertos_gcc/src/zxing_lib/zxing/common/Array.h ****   }
  56:/home/zkmike/workspace/RZA2M/rza2m_2d_barcode_sample_freertos_gcc/src/zxing_lib/zxing/common/Array.h ****   virtual ~Array() {
  57:/home/zkmike/workspace/RZA2M/rza2m_2d_barcode_sample_freertos_gcc/src/zxing_lib/zxing/common/Array.h ****   }
  58:/home/zkmike/workspace/RZA2M/rza2m_2d_barcode_sample_freertos_gcc/src/zxing_lib/zxing/common/Array.h ****   Array<T>& operator=(const Array<T> &other) {
  59:/home/zkmike/workspace/RZA2M/rza2m_2d_barcode_sample_freertos_gcc/src/zxing_lib/zxing/common/Array.h ****     values_ = other.values_;
  60:/home/zkmike/workspace/RZA2M/rza2m_2d_barcode_sample_freertos_gcc/src/zxing_lib/zxing/common/Array.h ****     return *this;
  61:/home/zkmike/workspace/RZA2M/rza2m_2d_barcode_sample_freertos_gcc/src/zxing_lib/zxing/common/Array.h ****   }
  62:/home/zkmike/workspace/RZA2M/rza2m_2d_barcode_sample_freertos_gcc/src/zxing_lib/zxing/common/Array.h ****   Array<T>& operator=(const std::vector<T> &array) {
  63:/home/zkmike/workspace/RZA2M/rza2m_2d_barcode_sample_freertos_gcc/src/zxing_lib/zxing/common/Array.h ****     values_ = array;
  64:/home/zkmike/workspace/RZA2M/rza2m_2d_barcode_sample_freertos_gcc/src/zxing_lib/zxing/common/Array.h ****     return *this;
  65:/home/zkmike/workspace/RZA2M/rza2m_2d_barcode_sample_freertos_gcc/src/zxing_lib/zxing/common/Array.h ****   }
  66:/home/zkmike/workspace/RZA2M/rza2m_2d_barcode_sample_freertos_gcc/src/zxing_lib/zxing/common/Array.h ****   T const& operator[](int i) const {
  67:/home/zkmike/workspace/RZA2M/rza2m_2d_barcode_sample_freertos_gcc/src/zxing_lib/zxing/common/Array.h ****     return values_[i];
  68:/home/zkmike/workspace/RZA2M/rza2m_2d_barcode_sample_freertos_gcc/src/zxing_lib/zxing/common/Array.h ****   }
  69:/home/zkmike/workspace/RZA2M/rza2m_2d_barcode_sample_freertos_gcc/src/zxing_lib/zxing/common/Array.h ****   T& operator[](int i) {
  70:/home/zkmike/workspace/RZA2M/rza2m_2d_barcode_sample_freertos_gcc/src/zxing_lib/zxing/common/Array.h ****     return values_[i];
  71:/home/zkmike/workspace/RZA2M/rza2m_2d_barcode_sample_freertos_gcc/src/zxing_lib/zxing/common/Array.h ****   }
  72:/home/zkmike/workspace/RZA2M/rza2m_2d_barcode_sample_freertos_gcc/src/zxing_lib/zxing/common/Array.h ****   int size() const {
  73:/home/zkmike/workspace/RZA2M/rza2m_2d_barcode_sample_freertos_gcc/src/zxing_lib/zxing/common/Array.h ****     return values_.size();
  74:/home/zkmike/workspace/RZA2M/rza2m_2d_barcode_sample_freertos_gcc/src/zxing_lib/zxing/common/Array.h ****   }
  75:/home/zkmike/workspace/RZA2M/rza2m_2d_barcode_sample_freertos_gcc/src/zxing_lib/zxing/common/Array.h ****   bool empty() const {
  76:/home/zkmike/workspace/RZA2M/rza2m_2d_barcode_sample_freertos_gcc/src/zxing_lib/zxing/common/Array.h ****     return values_.size() == 0;
  77:/home/zkmike/workspace/RZA2M/rza2m_2d_barcode_sample_freertos_gcc/src/zxing_lib/zxing/common/Array.h ****   }
  78:/home/zkmike/workspace/RZA2M/rza2m_2d_barcode_sample_freertos_gcc/src/zxing_lib/zxing/common/Array.h ****   std::vector<T> const& values() const {
  79:/home/zkmike/workspace/RZA2M/rza2m_2d_barcode_sample_freertos_gcc/src/zxing_lib/zxing/common/Array.h ****     return values_;
  80:/home/zkmike/workspace/RZA2M/rza2m_2d_barcode_sample_freertos_gcc/src/zxing_lib/zxing/common/Array.h ****   }
  81:/home/zkmike/workspace/RZA2M/rza2m_2d_barcode_sample_freertos_gcc/src/zxing_lib/zxing/common/Array.h ****   std::vector<T>& values() {
  82:/home/zkmike/workspace/RZA2M/rza2m_2d_barcode_sample_freertos_gcc/src/zxing_lib/zxing/common/Array.h ****     return values_;
  83:/home/zkmike/workspace/RZA2M/rza2m_2d_barcode_sample_freertos_gcc/src/zxing_lib/zxing/common/Array.h ****   }
  84:/home/zkmike/workspace/RZA2M/rza2m_2d_barcode_sample_freertos_gcc/src/zxing_lib/zxing/common/Array.h **** };
  85:/home/zkmike/workspace/RZA2M/rza2m_2d_barcode_sample_freertos_gcc/src/zxing_lib/zxing/common/Array.h **** 
  86:/home/zkmike/workspace/RZA2M/rza2m_2d_barcode_sample_freertos_gcc/src/zxing_lib/zxing/common/Array.h **** template<typename T> class ArrayRef : public Counted {
  87:/home/zkmike/workspace/RZA2M/rza2m_2d_barcode_sample_freertos_gcc/src/zxing_lib/zxing/common/Array.h **** private:
  88:/home/zkmike/workspace/RZA2M/rza2m_2d_barcode_sample_freertos_gcc/src/zxing_lib/zxing/common/Array.h **** public:
  89:/home/zkmike/workspace/RZA2M/rza2m_2d_barcode_sample_freertos_gcc/src/zxing_lib/zxing/common/Array.h ****   Array<T> *array_;
  90:/home/zkmike/workspace/RZA2M/rza2m_2d_barcode_sample_freertos_gcc/src/zxing_lib/zxing/common/Array.h ****   ArrayRef() :
  91:/home/zkmike/workspace/RZA2M/rza2m_2d_barcode_sample_freertos_gcc/src/zxing_lib/zxing/common/Array.h ****       array_(0) {
  92:/home/zkmike/workspace/RZA2M/rza2m_2d_barcode_sample_freertos_gcc/src/zxing_lib/zxing/common/Array.h ****   }
  93:/home/zkmike/workspace/RZA2M/rza2m_2d_barcode_sample_freertos_gcc/src/zxing_lib/zxing/common/Array.h ****   explicit ArrayRef(int n) :
  94:/home/zkmike/workspace/RZA2M/rza2m_2d_barcode_sample_freertos_gcc/src/zxing_lib/zxing/common/Array.h ****       array_(0) {
  95:/home/zkmike/workspace/RZA2M/rza2m_2d_barcode_sample_freertos_gcc/src/zxing_lib/zxing/common/Array.h ****     reset(new Array<T> (n));
  96:/home/zkmike/workspace/RZA2M/rza2m_2d_barcode_sample_freertos_gcc/src/zxing_lib/zxing/common/Array.h ****   }
  97:/home/zkmike/workspace/RZA2M/rza2m_2d_barcode_sample_freertos_gcc/src/zxing_lib/zxing/common/Array.h ****   ArrayRef(T *ts, int n) :
  98:/home/zkmike/workspace/RZA2M/rza2m_2d_barcode_sample_freertos_gcc/src/zxing_lib/zxing/common/Array.h ****       array_(0) {
  99:/home/zkmike/workspace/RZA2M/rza2m_2d_barcode_sample_freertos_gcc/src/zxing_lib/zxing/common/Array.h ****     reset(new Array<T> (ts, n));
 100:/home/zkmike/workspace/RZA2M/rza2m_2d_barcode_sample_freertos_gcc/src/zxing_lib/zxing/common/Array.h ****   }
 101:/home/zkmike/workspace/RZA2M/rza2m_2d_barcode_sample_freertos_gcc/src/zxing_lib/zxing/common/Array.h ****   ArrayRef(Array<T> *a) :
 102:/home/zkmike/workspace/RZA2M/rza2m_2d_barcode_sample_freertos_gcc/src/zxing_lib/zxing/common/Array.h ****       array_(0) {
 103:/home/zkmike/workspace/RZA2M/rza2m_2d_barcode_sample_freertos_gcc/src/zxing_lib/zxing/common/Array.h ****     reset(a);
 104:/home/zkmike/workspace/RZA2M/rza2m_2d_barcode_sample_freertos_gcc/src/zxing_lib/zxing/common/Array.h ****   }
 105:/home/zkmike/workspace/RZA2M/rza2m_2d_barcode_sample_freertos_gcc/src/zxing_lib/zxing/common/Array.h ****   ArrayRef(const ArrayRef &other) :
 106:/home/zkmike/workspace/RZA2M/rza2m_2d_barcode_sample_freertos_gcc/src/zxing_lib/zxing/common/Array.h ****       Counted(), array_(0) {
 107:/home/zkmike/workspace/RZA2M/rza2m_2d_barcode_sample_freertos_gcc/src/zxing_lib/zxing/common/Array.h ****     reset(other.array_);
 108:/home/zkmike/workspace/RZA2M/rza2m_2d_barcode_sample_freertos_gcc/src/zxing_lib/zxing/common/Array.h ****   }
 109:/home/zkmike/workspace/RZA2M/rza2m_2d_barcode_sample_freertos_gcc/src/zxing_lib/zxing/common/Array.h **** 
 110:/home/zkmike/workspace/RZA2M/rza2m_2d_barcode_sample_freertos_gcc/src/zxing_lib/zxing/common/Array.h ****   template<class Y>
 111:/home/zkmike/workspace/RZA2M/rza2m_2d_barcode_sample_freertos_gcc/src/zxing_lib/zxing/common/Array.h ****   ArrayRef(const ArrayRef<Y> &other) :
 112:/home/zkmike/workspace/RZA2M/rza2m_2d_barcode_sample_freertos_gcc/src/zxing_lib/zxing/common/Array.h ****       array_(0) {
 113:/home/zkmike/workspace/RZA2M/rza2m_2d_barcode_sample_freertos_gcc/src/zxing_lib/zxing/common/Array.h ****     reset(static_cast<const Array<T> *>(other.array_));
 114:/home/zkmike/workspace/RZA2M/rza2m_2d_barcode_sample_freertos_gcc/src/zxing_lib/zxing/common/Array.h ****   }
 115:/home/zkmike/workspace/RZA2M/rza2m_2d_barcode_sample_freertos_gcc/src/zxing_lib/zxing/common/Array.h **** 
 116:/home/zkmike/workspace/RZA2M/rza2m_2d_barcode_sample_freertos_gcc/src/zxing_lib/zxing/common/Array.h ****   ~ArrayRef() {
  27              		.loc 1 116 0
  28              		.cfi_startproc
  29              		@ args = 0, pretend = 0, frame = 0
  30              		@ frame_needed = 0, uses_anonymous_args = 0
  31              	.LVL0:
  32 0000 10402DE9 		push	{r4, lr}
  33              		.cfi_def_cfa_offset 8
  34              		.cfi_offset 4, -8
  35              		.cfi_offset 14, -4
  36 0004 0040A0E1 		mov	r4, r0
  37              	.LBB256:
 117:/home/zkmike/workspace/RZA2M/rza2m_2d_barcode_sample_freertos_gcc/src/zxing_lib/zxing/common/Array.h ****     if (array_) {
 118:/home/zkmike/workspace/RZA2M/rza2m_2d_barcode_sample_freertos_gcc/src/zxing_lib/zxing/common/Array.h ****       array_->release();
 119:/home/zkmike/workspace/RZA2M/rza2m_2d_barcode_sample_freertos_gcc/src/zxing_lib/zxing/common/Array.h ****     }
 120:/home/zkmike/workspace/RZA2M/rza2m_2d_barcode_sample_freertos_gcc/src/zxing_lib/zxing/common/Array.h ****     array_ = 0;
 121:/home/zkmike/workspace/RZA2M/rza2m_2d_barcode_sample_freertos_gcc/src/zxing_lib/zxing/common/Array.h ****   }
  38              		.loc 1 121 0
  39 0008 44309FE5 		ldr	r3, .L5
  40 000c 003080E5 		str	r3, [r0]
 117:/home/zkmike/workspace/RZA2M/rza2m_2d_barcode_sample_freertos_gcc/src/zxing_lib/zxing/common/Array.h ****     if (array_) {
  41              		.loc 1 117 0
  42 0010 080090E5 		ldr	r0, [r0, #8]
  43              	.LVL1:
  44 0014 000050E3 		cmp	r0, #0
  45 0018 0400000A 		beq	.L2
  46              	.LVL2:
  47              	.LBB257:
  48              	.LBB258:
  49              		.file 2 "/home/zkmike/workspace/RZA2M/rza2m_2d_barcode_sample_freertos_gcc/src/zxing_lib/zxing/com
   1:/home/zkmike/workspace/RZA2M/rza2m_2d_barcode_sample_freertos_gcc/src/zxing_lib/zxing/common/Counted.h **** // -*- mode:c++; tab-width:2; indent-tabs-mode:nil; c-basic-offset:2 -*-
   2:/home/zkmike/workspace/RZA2M/rza2m_2d_barcode_sample_freertos_gcc/src/zxing_lib/zxing/common/Counted.h **** #ifndef __COUNTED_H__
   3:/home/zkmike/workspace/RZA2M/rza2m_2d_barcode_sample_freertos_gcc/src/zxing_lib/zxing/common/Counted.h **** #define __COUNTED_H__
   4:/home/zkmike/workspace/RZA2M/rza2m_2d_barcode_sample_freertos_gcc/src/zxing_lib/zxing/common/Counted.h **** 
   5:/home/zkmike/workspace/RZA2M/rza2m_2d_barcode_sample_freertos_gcc/src/zxing_lib/zxing/common/Counted.h **** /*
   6:/home/zkmike/workspace/RZA2M/rza2m_2d_barcode_sample_freertos_gcc/src/zxing_lib/zxing/common/Counted.h ****  *  Copyright 2010 ZXing authors All rights reserved.
   7:/home/zkmike/workspace/RZA2M/rza2m_2d_barcode_sample_freertos_gcc/src/zxing_lib/zxing/common/Counted.h ****  *
   8:/home/zkmike/workspace/RZA2M/rza2m_2d_barcode_sample_freertos_gcc/src/zxing_lib/zxing/common/Counted.h ****  * Licensed under the Apache License, Version 2.0 (the "License");
   9:/home/zkmike/workspace/RZA2M/rza2m_2d_barcode_sample_freertos_gcc/src/zxing_lib/zxing/common/Counted.h ****  * you may not use this file except in compliance with the License.
  10:/home/zkmike/workspace/RZA2M/rza2m_2d_barcode_sample_freertos_gcc/src/zxing_lib/zxing/common/Counted.h ****  * You may obtain a copy of the License at
  11:/home/zkmike/workspace/RZA2M/rza2m_2d_barcode_sample_freertos_gcc/src/zxing_lib/zxing/common/Counted.h ****  *
  12:/home/zkmike/workspace/RZA2M/rza2m_2d_barcode_sample_freertos_gcc/src/zxing_lib/zxing/common/Counted.h ****  *      http://www.apache.org/licenses/LICENSE-2.0
  13:/home/zkmike/workspace/RZA2M/rza2m_2d_barcode_sample_freertos_gcc/src/zxing_lib/zxing/common/Counted.h ****  *
  14:/home/zkmike/workspace/RZA2M/rza2m_2d_barcode_sample_freertos_gcc/src/zxing_lib/zxing/common/Counted.h ****  * Unless required by applicable law or agreed to in writing, software
  15:/home/zkmike/workspace/RZA2M/rza2m_2d_barcode_sample_freertos_gcc/src/zxing_lib/zxing/common/Counted.h ****  * distributed under the License is distributed on an "AS IS" BASIS,
  16:/home/zkmike/workspace/RZA2M/rza2m_2d_barcode_sample_freertos_gcc/src/zxing_lib/zxing/common/Counted.h ****  * WITHOUT WARRANTIES OR CONDITIONS OF ANY KIND, either express or implied.
  17:/home/zkmike/workspace/RZA2M/rza2m_2d_barcode_sample_freertos_gcc/src/zxing_lib/zxing/common/Counted.h ****  * See the License for the specific language governing permissions and
  18:/home/zkmike/workspace/RZA2M/rza2m_2d_barcode_sample_freertos_gcc/src/zxing_lib/zxing/common/Counted.h ****  * limitations under the License.
  19:/home/zkmike/workspace/RZA2M/rza2m_2d_barcode_sample_freertos_gcc/src/zxing_lib/zxing/common/Counted.h ****  */
  20:/home/zkmike/workspace/RZA2M/rza2m_2d_barcode_sample_freertos_gcc/src/zxing_lib/zxing/common/Counted.h **** 
  21:/home/zkmike/workspace/RZA2M/rza2m_2d_barcode_sample_freertos_gcc/src/zxing_lib/zxing/common/Counted.h **** #include <iostream>
  22:/home/zkmike/workspace/RZA2M/rza2m_2d_barcode_sample_freertos_gcc/src/zxing_lib/zxing/common/Counted.h **** 
  23:/home/zkmike/workspace/RZA2M/rza2m_2d_barcode_sample_freertos_gcc/src/zxing_lib/zxing/common/Counted.h **** namespace zxing {
  24:/home/zkmike/workspace/RZA2M/rza2m_2d_barcode_sample_freertos_gcc/src/zxing_lib/zxing/common/Counted.h **** 
  25:/home/zkmike/workspace/RZA2M/rza2m_2d_barcode_sample_freertos_gcc/src/zxing_lib/zxing/common/Counted.h **** /* base class for reference-counted objects */
  26:/home/zkmike/workspace/RZA2M/rza2m_2d_barcode_sample_freertos_gcc/src/zxing_lib/zxing/common/Counted.h **** class Counted {
  27:/home/zkmike/workspace/RZA2M/rza2m_2d_barcode_sample_freertos_gcc/src/zxing_lib/zxing/common/Counted.h **** private:
  28:/home/zkmike/workspace/RZA2M/rza2m_2d_barcode_sample_freertos_gcc/src/zxing_lib/zxing/common/Counted.h ****   unsigned int count_;
  29:/home/zkmike/workspace/RZA2M/rza2m_2d_barcode_sample_freertos_gcc/src/zxing_lib/zxing/common/Counted.h **** public:
  30:/home/zkmike/workspace/RZA2M/rza2m_2d_barcode_sample_freertos_gcc/src/zxing_lib/zxing/common/Counted.h ****   Counted() :
  31:/home/zkmike/workspace/RZA2M/rza2m_2d_barcode_sample_freertos_gcc/src/zxing_lib/zxing/common/Counted.h ****       count_(0) {
  32:/home/zkmike/workspace/RZA2M/rza2m_2d_barcode_sample_freertos_gcc/src/zxing_lib/zxing/common/Counted.h ****   }
  33:/home/zkmike/workspace/RZA2M/rza2m_2d_barcode_sample_freertos_gcc/src/zxing_lib/zxing/common/Counted.h ****   virtual ~Counted() {
  34:/home/zkmike/workspace/RZA2M/rza2m_2d_barcode_sample_freertos_gcc/src/zxing_lib/zxing/common/Counted.h ****   }
  35:/home/zkmike/workspace/RZA2M/rza2m_2d_barcode_sample_freertos_gcc/src/zxing_lib/zxing/common/Counted.h ****   Counted *retain() {
  36:/home/zkmike/workspace/RZA2M/rza2m_2d_barcode_sample_freertos_gcc/src/zxing_lib/zxing/common/Counted.h ****     count_++;
  37:/home/zkmike/workspace/RZA2M/rza2m_2d_barcode_sample_freertos_gcc/src/zxing_lib/zxing/common/Counted.h ****     return this;
  38:/home/zkmike/workspace/RZA2M/rza2m_2d_barcode_sample_freertos_gcc/src/zxing_lib/zxing/common/Counted.h ****   }
  39:/home/zkmike/workspace/RZA2M/rza2m_2d_barcode_sample_freertos_gcc/src/zxing_lib/zxing/common/Counted.h ****   void release() {
  40:/home/zkmike/workspace/RZA2M/rza2m_2d_barcode_sample_freertos_gcc/src/zxing_lib/zxing/common/Counted.h ****     count_--;
  50              		.loc 2 40 0
  51 001c 043090E5 		ldr	r3, [r0, #4]
  52 0020 013043E2 		sub	r3, r3, #1
  53 0024 043080E5 		str	r3, [r0, #4]
  41:/home/zkmike/workspace/RZA2M/rza2m_2d_barcode_sample_freertos_gcc/src/zxing_lib/zxing/common/Counted.h ****     if (count_ == 0) {
  54              		.loc 2 41 0
  55 0028 000053E3 		cmp	r3, #0
  56 002c 0100000A 		beq	.L4
  57              	.LVL3:
  58              	.L2:
  59              	.LBE258:
  60              	.LBE257:
  61              	.LBE256:
  62              		.loc 1 121 0
  63 0030 0400A0E1 		mov	r0, r4
  64 0034 1080BDE8 		pop	{r4, pc}
  65              	.LVL4:
  66              	.L4:
  67              	.LBB261:
  68              	.LBB260:
  69              	.LBB259:
  42:/home/zkmike/workspace/RZA2M/rza2m_2d_barcode_sample_freertos_gcc/src/zxing_lib/zxing/common/Counted.h ****       count_ = 0xDEADF001;
  70              		.loc 2 42 0
  71 0038 01300FE3 		movw	r3, #61441
  72 003c AD3E4DE3 		movt	r3, 57005
  73 0040 043080E5 		str	r3, [r0, #4]
  43:/home/zkmike/workspace/RZA2M/rza2m_2d_barcode_sample_freertos_gcc/src/zxing_lib/zxing/common/Counted.h ****       delete this;
  74              		.loc 2 43 0
  75 0044 003090E5 		ldr	r3, [r0]
  76 0048 043093E5 		ldr	r3, [r3, #4]
  77 004c 33FF2FE1 		blx	r3
  78              	.LVL5:
  79 0050 F6FFFFEA 		b	.L2
  80              	.L6:
  81              		.align	2
  82              	.L5:
  83 0054 08000000 		.word	_ZTVN5zxing8ArrayRefINS_3RefINS_11ResultPointEEEEE+8
  84              	.LBE259:
  85              	.LBE260:
  86              	.LBE261:
  87              		.cfi_endproc
  88              	.LFE2504:
  89              		.cantunwind
  90              		.fnend
  92              		.weak	_ZN5zxing8ArrayRefINS_3RefINS_11ResultPointEEEED1Ev
  93              		.set	_ZN5zxing8ArrayRefINS_3RefINS_11ResultPointEEEED1Ev,_ZN5zxing8ArrayRefINS_3RefINS_11ResultPoi
  94              		.section	.text._ZN5zxing8ArrayRefIcED2Ev,"axG",%progbits,_ZN5zxing8ArrayRefIcED5Ev,comdat
  95              		.align	2
  96              		.weak	_ZN5zxing8ArrayRefIcED2Ev
  97              		.syntax unified
  98              		.arm
  99              		.fpu neon
 101              	_ZN5zxing8ArrayRefIcED2Ev:
 102              		.fnstart
 103              	.LFB2521:
 116:/home/zkmike/workspace/RZA2M/rza2m_2d_barcode_sample_freertos_gcc/src/zxing_lib/zxing/common/Array.h ****     if (array_) {
 104              		.loc 1 116 0
 105              		.cfi_startproc
 106              		@ args = 0, pretend = 0, frame = 0
 107              		@ frame_needed = 0, uses_anonymous_args = 0
 108              	.LVL6:
 109 0000 10402DE9 		push	{r4, lr}
 110              		.cfi_def_cfa_offset 8
 111              		.cfi_offset 4, -8
 112              		.cfi_offset 14, -4
 113 0004 0040A0E1 		mov	r4, r0
 114              	.LBB262:
 115              		.loc 1 121 0
 116 0008 44309FE5 		ldr	r3, .L11
 117 000c 003080E5 		str	r3, [r0]
 117:/home/zkmike/workspace/RZA2M/rza2m_2d_barcode_sample_freertos_gcc/src/zxing_lib/zxing/common/Array.h ****       array_->release();
 118              		.loc 1 117 0
 119 0010 080090E5 		ldr	r0, [r0, #8]
 120              	.LVL7:
 121 0014 000050E3 		cmp	r0, #0
 122 0018 0400000A 		beq	.L8
 123              	.LVL8:
 124              	.LBB263:
 125              	.LBB264:
  40:/home/zkmike/workspace/RZA2M/rza2m_2d_barcode_sample_freertos_gcc/src/zxing_lib/zxing/common/Counted.h ****     if (count_ == 0) {
 126              		.loc 2 40 0
 127 001c 043090E5 		ldr	r3, [r0, #4]
 128 0020 013043E2 		sub	r3, r3, #1
 129 0024 043080E5 		str	r3, [r0, #4]
  41:/home/zkmike/workspace/RZA2M/rza2m_2d_barcode_sample_freertos_gcc/src/zxing_lib/zxing/common/Counted.h ****       count_ = 0xDEADF001;
 130              		.loc 2 41 0
 131 0028 000053E3 		cmp	r3, #0
 132 002c 0100000A 		beq	.L10
 133              	.LVL9:
 134              	.L8:
 135              	.LBE264:
 136              	.LBE263:
 137              	.LBE262:
 138              		.loc 1 121 0
 139 0030 0400A0E1 		mov	r0, r4
 140 0034 1080BDE8 		pop	{r4, pc}
 141              	.LVL10:
 142              	.L10:
 143              	.LBB267:
 144              	.LBB266:
 145              	.LBB265:
  42:/home/zkmike/workspace/RZA2M/rza2m_2d_barcode_sample_freertos_gcc/src/zxing_lib/zxing/common/Counted.h ****       delete this;
 146              		.loc 2 42 0
 147 0038 01300FE3 		movw	r3, #61441
 148 003c AD3E4DE3 		movt	r3, 57005
 149 0040 043080E5 		str	r3, [r0, #4]
 150              		.loc 2 43 0
 151 0044 003090E5 		ldr	r3, [r0]
 152 0048 043093E5 		ldr	r3, [r3, #4]
 153 004c 33FF2FE1 		blx	r3
 154              	.LVL11:
 155 0050 F6FFFFEA 		b	.L8
 156              	.L12:
 157              		.align	2
 158              	.L11:
 159 0054 08000000 		.word	_ZTVN5zxing8ArrayRefIcEE+8
 160              	.LBE265:
 161              	.LBE266:
 162              	.LBE267:
 163              		.cfi_endproc
 164              	.LFE2521:
 165              		.cantunwind
 166              		.fnend
 168              		.weak	_ZN5zxing8ArrayRefIcED1Ev
 169              		.set	_ZN5zxing8ArrayRefIcED1Ev,_ZN5zxing8ArrayRefIcED2Ev
 170              		.section	.text._ZN5zxing5aztec11AztecReader6decodeENS_3RefINS_12BinaryBitmapEEENS_11DecodeHintsE,"
 171              		.align	2
 172              		.global	_ZN5zxing5aztec11AztecReader6decodeENS_3RefINS_12BinaryBitmapEEENS_11DecodeHintsE
 173              		.syntax unified
 174              		.arm
 175              		.fpu neon
 177              	_ZN5zxing5aztec11AztecReader6decodeENS_3RefINS_12BinaryBitmapEEENS_11DecodeHintsE:
 178              		.fnstart
 179              	.LFB2263:
 180              		.file 3 "../src/zxing_lib/zxing/aztec/AztecReader.cpp"
   1:../src/zxing_lib/zxing/aztec/AztecReader.cpp **** // -*- mode:c++; tab-width:2; indent-tabs-mode:nil; c-basic-offset:2 -*-
   2:../src/zxing_lib/zxing/aztec/AztecReader.cpp **** /*
   3:../src/zxing_lib/zxing/aztec/AztecReader.cpp ****  *  AztecReader.cpp
   4:../src/zxing_lib/zxing/aztec/AztecReader.cpp ****  *  zxing
   5:../src/zxing_lib/zxing/aztec/AztecReader.cpp ****  *
   6:../src/zxing_lib/zxing/aztec/AztecReader.cpp ****  *  Created by Lukas Stabe on 08/02/2012.
   7:../src/zxing_lib/zxing/aztec/AztecReader.cpp ****  *  Copyright 2012 ZXing authors All rights reserved.
   8:../src/zxing_lib/zxing/aztec/AztecReader.cpp ****  *
   9:../src/zxing_lib/zxing/aztec/AztecReader.cpp ****  * Licensed under the Apache License, Version 2.0 (the "License");
  10:../src/zxing_lib/zxing/aztec/AztecReader.cpp ****  * you may not use this file except in compliance with the License.
  11:../src/zxing_lib/zxing/aztec/AztecReader.cpp ****  * You may obtain a copy of the License at
  12:../src/zxing_lib/zxing/aztec/AztecReader.cpp ****  *
  13:../src/zxing_lib/zxing/aztec/AztecReader.cpp ****  *      http://www.apache.org/licenses/LICENSE-2.0
  14:../src/zxing_lib/zxing/aztec/AztecReader.cpp ****  *
  15:../src/zxing_lib/zxing/aztec/AztecReader.cpp ****  * Unless required by applicable law or agreed to in writing, software
  16:../src/zxing_lib/zxing/aztec/AztecReader.cpp ****  * distributed under the License is distributed on an "AS IS" BASIS,
  17:../src/zxing_lib/zxing/aztec/AztecReader.cpp ****  * WITHOUT WARRANTIES OR CONDITIONS OF ANY KIND, either express or implied.
  18:../src/zxing_lib/zxing/aztec/AztecReader.cpp ****  * See the License for the specific language governing permissions and
  19:../src/zxing_lib/zxing/aztec/AztecReader.cpp ****  * limitations under the License.
  20:../src/zxing_lib/zxing/aztec/AztecReader.cpp ****  */
  21:../src/zxing_lib/zxing/aztec/AztecReader.cpp **** 
  22:../src/zxing_lib/zxing/aztec/AztecReader.cpp **** #include <zxing/aztec/AztecReader.h>
  23:../src/zxing_lib/zxing/aztec/AztecReader.cpp **** #include <zxing/aztec/detector/Detector.h>
  24:../src/zxing_lib/zxing/aztec/AztecReader.cpp **** #include <zxing/common/DecoderResult.h>
  25:../src/zxing_lib/zxing/aztec/AztecReader.cpp **** #include <iostream>
  26:../src/zxing_lib/zxing/aztec/AztecReader.cpp **** 
  27:../src/zxing_lib/zxing/aztec/AztecReader.cpp **** using zxing::Ref;
  28:../src/zxing_lib/zxing/aztec/AztecReader.cpp **** using zxing::ArrayRef;
  29:../src/zxing_lib/zxing/aztec/AztecReader.cpp **** using zxing::Result;
  30:../src/zxing_lib/zxing/aztec/AztecReader.cpp **** using zxing::aztec::AztecReader;
  31:../src/zxing_lib/zxing/aztec/AztecReader.cpp **** 
  32:../src/zxing_lib/zxing/aztec/AztecReader.cpp **** // VC++
  33:../src/zxing_lib/zxing/aztec/AztecReader.cpp **** using zxing::BinaryBitmap;
  34:../src/zxing_lib/zxing/aztec/AztecReader.cpp **** using zxing::DecodeHints;
  35:../src/zxing_lib/zxing/aztec/AztecReader.cpp ****         
  36:../src/zxing_lib/zxing/aztec/AztecReader.cpp **** AztecReader::AztecReader() : decoder_() {
  37:../src/zxing_lib/zxing/aztec/AztecReader.cpp ****   // nothing
  38:../src/zxing_lib/zxing/aztec/AztecReader.cpp **** }
  39:../src/zxing_lib/zxing/aztec/AztecReader.cpp ****         
  40:../src/zxing_lib/zxing/aztec/AztecReader.cpp **** Ref<Result> AztecReader::decode(Ref<zxing::BinaryBitmap> image) {
  41:../src/zxing_lib/zxing/aztec/AztecReader.cpp ****   Detector detector(image->getBlackMatrix());
  42:../src/zxing_lib/zxing/aztec/AztecReader.cpp ****             
  43:../src/zxing_lib/zxing/aztec/AztecReader.cpp ****   Ref<AztecDetectorResult> detectorResult(detector.detect());
  44:../src/zxing_lib/zxing/aztec/AztecReader.cpp ****             
  45:../src/zxing_lib/zxing/aztec/AztecReader.cpp ****   ArrayRef< Ref<ResultPoint> > points(detectorResult->getPoints());
  46:../src/zxing_lib/zxing/aztec/AztecReader.cpp ****             
  47:../src/zxing_lib/zxing/aztec/AztecReader.cpp ****   Ref<DecoderResult> decoderResult(decoder_.decode(detectorResult));
  48:../src/zxing_lib/zxing/aztec/AztecReader.cpp ****             
  49:../src/zxing_lib/zxing/aztec/AztecReader.cpp ****   Ref<Result> result(new Result(decoderResult->getText(),
  50:../src/zxing_lib/zxing/aztec/AztecReader.cpp ****                                 decoderResult->getRawBytes(),
  51:../src/zxing_lib/zxing/aztec/AztecReader.cpp ****                                 points,
  52:../src/zxing_lib/zxing/aztec/AztecReader.cpp ****                                 BarcodeFormat::AZTEC));
  53:../src/zxing_lib/zxing/aztec/AztecReader.cpp ****             
  54:../src/zxing_lib/zxing/aztec/AztecReader.cpp ****   return result;
  55:../src/zxing_lib/zxing/aztec/AztecReader.cpp **** }
  56:../src/zxing_lib/zxing/aztec/AztecReader.cpp ****         
  57:../src/zxing_lib/zxing/aztec/AztecReader.cpp **** Ref<Result> AztecReader::decode(Ref<BinaryBitmap> image, DecodeHints) {
 181              		.loc 3 57 0
 182              		.cfi_startproc
 183              		.cfi_personality 0,__gxx_personality_v0
 184              		.cfi_lsda 0,.LLSDA2263
 185              		@ args = 0, pretend = 0, frame = 8
 186              		@ frame_needed = 0, uses_anonymous_args = 0
 187              	.LVL12:
 188 0000 F0402DE9 		push	{r4, r5, r6, r7, lr}
 189              		.save {r4, r5, r6, r7, lr}
 190              		.cfi_def_cfa_offset 20
 191              		.cfi_offset 4, -20
 192              		.cfi_offset 5, -16
 193              		.cfi_offset 6, -12
 194              		.cfi_offset 7, -8
 195              		.cfi_offset 14, -4
 196              		.pad #12
 197 0004 0CD04DE2 		sub	sp, sp, #12
 198              		.cfi_def_cfa_offset 32
 199 0008 0050A0E1 		mov	r5, r0
 200 000c 0160A0E1 		mov	r6, r1
  58:../src/zxing_lib/zxing/aztec/AztecReader.cpp ****   //cout << "decoding with hints not supported for aztec" << "\n" << flush;
  59:../src/zxing_lib/zxing/aztec/AztecReader.cpp ****   return this->decode(image);
 201              		.loc 3 59 0
 202 0010 003091E5 		ldr	r3, [r1]
 203 0014 087093E5 		ldr	r7, [r3, #8]
 204              	.LVL13:
 205              	.LBB285:
 206              	.LBB286:
 207              	.LBB287:
  44:/home/zkmike/workspace/RZA2M/rza2m_2d_barcode_sample_freertos_gcc/src/zxing_lib/zxing/common/Counted.h ****     }
  45:/home/zkmike/workspace/RZA2M/rza2m_2d_barcode_sample_freertos_gcc/src/zxing_lib/zxing/common/Counted.h ****   }
  46:/home/zkmike/workspace/RZA2M/rza2m_2d_barcode_sample_freertos_gcc/src/zxing_lib/zxing/common/Counted.h **** 
  47:/home/zkmike/workspace/RZA2M/rza2m_2d_barcode_sample_freertos_gcc/src/zxing_lib/zxing/common/Counted.h **** 
  48:/home/zkmike/workspace/RZA2M/rza2m_2d_barcode_sample_freertos_gcc/src/zxing_lib/zxing/common/Counted.h ****   /* return the current count for denugging purposes or similar */
  49:/home/zkmike/workspace/RZA2M/rza2m_2d_barcode_sample_freertos_gcc/src/zxing_lib/zxing/common/Counted.h ****   int count() const {
  50:/home/zkmike/workspace/RZA2M/rza2m_2d_barcode_sample_freertos_gcc/src/zxing_lib/zxing/common/Counted.h ****     return count_;
  51:/home/zkmike/workspace/RZA2M/rza2m_2d_barcode_sample_freertos_gcc/src/zxing_lib/zxing/common/Counted.h ****   }
  52:/home/zkmike/workspace/RZA2M/rza2m_2d_barcode_sample_freertos_gcc/src/zxing_lib/zxing/common/Counted.h **** };
  53:/home/zkmike/workspace/RZA2M/rza2m_2d_barcode_sample_freertos_gcc/src/zxing_lib/zxing/common/Counted.h **** 
  54:/home/zkmike/workspace/RZA2M/rza2m_2d_barcode_sample_freertos_gcc/src/zxing_lib/zxing/common/Counted.h **** /* counting reference to reference-counted objects */
  55:/home/zkmike/workspace/RZA2M/rza2m_2d_barcode_sample_freertos_gcc/src/zxing_lib/zxing/common/Counted.h **** template<typename T> class Ref {
  56:/home/zkmike/workspace/RZA2M/rza2m_2d_barcode_sample_freertos_gcc/src/zxing_lib/zxing/common/Counted.h **** private:
  57:/home/zkmike/workspace/RZA2M/rza2m_2d_barcode_sample_freertos_gcc/src/zxing_lib/zxing/common/Counted.h **** public:
  58:/home/zkmike/workspace/RZA2M/rza2m_2d_barcode_sample_freertos_gcc/src/zxing_lib/zxing/common/Counted.h ****   T *object_;
  59:/home/zkmike/workspace/RZA2M/rza2m_2d_barcode_sample_freertos_gcc/src/zxing_lib/zxing/common/Counted.h ****   explicit Ref(T *o = 0) :
  60:/home/zkmike/workspace/RZA2M/rza2m_2d_barcode_sample_freertos_gcc/src/zxing_lib/zxing/common/Counted.h ****       object_(0) {
  61:/home/zkmike/workspace/RZA2M/rza2m_2d_barcode_sample_freertos_gcc/src/zxing_lib/zxing/common/Counted.h ****     reset(o);
  62:/home/zkmike/workspace/RZA2M/rza2m_2d_barcode_sample_freertos_gcc/src/zxing_lib/zxing/common/Counted.h ****   }
  63:/home/zkmike/workspace/RZA2M/rza2m_2d_barcode_sample_freertos_gcc/src/zxing_lib/zxing/common/Counted.h ****   Ref(const Ref &other) :
  64:/home/zkmike/workspace/RZA2M/rza2m_2d_barcode_sample_freertos_gcc/src/zxing_lib/zxing/common/Counted.h ****       object_(0) {
 208              		.loc 2 64 0
 209 0018 0030A0E3 		mov	r3, #0
 210 001c 04308DE5 		str	r3, [sp, #4]
  65:/home/zkmike/workspace/RZA2M/rza2m_2d_barcode_sample_freertos_gcc/src/zxing_lib/zxing/common/Counted.h ****     reset(other.object_);
 211              		.loc 2 65 0
 212 0020 004092E5 		ldr	r4, [r2]
 213              	.LVL14:
 214              	.LBB288:
 215              	.LBB289:
  66:/home/zkmike/workspace/RZA2M/rza2m_2d_barcode_sample_freertos_gcc/src/zxing_lib/zxing/common/Counted.h ****   }
  67:/home/zkmike/workspace/RZA2M/rza2m_2d_barcode_sample_freertos_gcc/src/zxing_lib/zxing/common/Counted.h **** 
  68:/home/zkmike/workspace/RZA2M/rza2m_2d_barcode_sample_freertos_gcc/src/zxing_lib/zxing/common/Counted.h ****   template<class Y>
  69:/home/zkmike/workspace/RZA2M/rza2m_2d_barcode_sample_freertos_gcc/src/zxing_lib/zxing/common/Counted.h ****   Ref(const Ref<Y> &other) :
  70:/home/zkmike/workspace/RZA2M/rza2m_2d_barcode_sample_freertos_gcc/src/zxing_lib/zxing/common/Counted.h ****       object_(0) {
  71:/home/zkmike/workspace/RZA2M/rza2m_2d_barcode_sample_freertos_gcc/src/zxing_lib/zxing/common/Counted.h ****     reset(other.object_);
  72:/home/zkmike/workspace/RZA2M/rza2m_2d_barcode_sample_freertos_gcc/src/zxing_lib/zxing/common/Counted.h ****   }
  73:/home/zkmike/workspace/RZA2M/rza2m_2d_barcode_sample_freertos_gcc/src/zxing_lib/zxing/common/Counted.h **** 
  74:/home/zkmike/workspace/RZA2M/rza2m_2d_barcode_sample_freertos_gcc/src/zxing_lib/zxing/common/Counted.h ****   ~Ref() {
  75:/home/zkmike/workspace/RZA2M/rza2m_2d_barcode_sample_freertos_gcc/src/zxing_lib/zxing/common/Counted.h ****     if (object_) {
  76:/home/zkmike/workspace/RZA2M/rza2m_2d_barcode_sample_freertos_gcc/src/zxing_lib/zxing/common/Counted.h ****       object_->release();
  77:/home/zkmike/workspace/RZA2M/rza2m_2d_barcode_sample_freertos_gcc/src/zxing_lib/zxing/common/Counted.h ****     }
  78:/home/zkmike/workspace/RZA2M/rza2m_2d_barcode_sample_freertos_gcc/src/zxing_lib/zxing/common/Counted.h ****   }
  79:/home/zkmike/workspace/RZA2M/rza2m_2d_barcode_sample_freertos_gcc/src/zxing_lib/zxing/common/Counted.h **** 
  80:/home/zkmike/workspace/RZA2M/rza2m_2d_barcode_sample_freertos_gcc/src/zxing_lib/zxing/common/Counted.h ****   void reset(T *o) {
  81:/home/zkmike/workspace/RZA2M/rza2m_2d_barcode_sample_freertos_gcc/src/zxing_lib/zxing/common/Counted.h ****     if (o) {
 216              		.loc 2 81 0
 217 0024 030054E1 		cmp	r4, r3
 218              	.LVL15:
 219              	.LBB290:
 220              	.LBB291:
  36:/home/zkmike/workspace/RZA2M/rza2m_2d_barcode_sample_freertos_gcc/src/zxing_lib/zxing/common/Counted.h ****     return this;
 221              		.loc 2 36 0
 222 0028 04309415 		ldrne	r3, [r4, #4]
 223 002c 01308312 		addne	r3, r3, #1
 224 0030 04308415 		strne	r3, [r4, #4]
 225              	.LVL16:
 226              	.L14:
 227              	.LBE291:
 228              	.LBE290:
  82:/home/zkmike/workspace/RZA2M/rza2m_2d_barcode_sample_freertos_gcc/src/zxing_lib/zxing/common/Counted.h ****       o->retain();
  83:/home/zkmike/workspace/RZA2M/rza2m_2d_barcode_sample_freertos_gcc/src/zxing_lib/zxing/common/Counted.h ****     }
  84:/home/zkmike/workspace/RZA2M/rza2m_2d_barcode_sample_freertos_gcc/src/zxing_lib/zxing/common/Counted.h ****     if (object_ != 0) {
 229              		.loc 2 84 0
 230 0034 04009DE5 		ldr	r0, [sp, #4]
 231              	.LVL17:
 232 0038 000050E3 		cmp	r0, #0
 233 003c 0400000A 		beq	.L15
 234              	.LVL18:
 235              	.LBB292:
 236              	.LBB293:
  40:/home/zkmike/workspace/RZA2M/rza2m_2d_barcode_sample_freertos_gcc/src/zxing_lib/zxing/common/Counted.h ****     if (count_ == 0) {
 237              		.loc 2 40 0
 238 0040 043090E5 		ldr	r3, [r0, #4]
 239 0044 013043E2 		sub	r3, r3, #1
 240 0048 043080E5 		str	r3, [r0, #4]
  41:/home/zkmike/workspace/RZA2M/rza2m_2d_barcode_sample_freertos_gcc/src/zxing_lib/zxing/common/Counted.h ****       count_ = 0xDEADF001;
 241              		.loc 2 41 0
 242 004c 000053E3 		cmp	r3, #0
 243 0050 0500000A 		beq	.L21
 244              	.LVL19:
 245              	.L15:
 246              	.LBE293:
 247              	.LBE292:
  85:/home/zkmike/workspace/RZA2M/rza2m_2d_barcode_sample_freertos_gcc/src/zxing_lib/zxing/common/Counted.h ****       object_->release();
  86:/home/zkmike/workspace/RZA2M/rza2m_2d_barcode_sample_freertos_gcc/src/zxing_lib/zxing/common/Counted.h ****     }
  87:/home/zkmike/workspace/RZA2M/rza2m_2d_barcode_sample_freertos_gcc/src/zxing_lib/zxing/common/Counted.h ****     object_ = o;
 248              		.loc 2 87 0
 249 0054 08208DE2 		add	r2, sp, #8
 250 0058 044022E5 		str	r4, [r2, #-4]!
 251              	.LVL20:
 252              	.LBE289:
 253              	.LBE288:
 254              	.LBE287:
 255              	.LBE286:
 256              	.LBE285:
 257              		.loc 3 59 0
 258 005c 0610A0E1 		mov	r1, r6
 259 0060 0500A0E1 		mov	r0, r5
 260              	.LEHB0:
 261 0064 37FF2FE1 		blx	r7
 262              	.LVL21:
 263              	.LEHE0:
 264 0068 060000EA 		b	.L22
 265              	.LVL22:
 266              	.L21:
 267              	.LBB300:
 268              	.LBB299:
 269              	.LBB298:
 270              	.LBB297:
 271              	.LBB296:
 272              	.LBB295:
 273              	.LBB294:
  42:/home/zkmike/workspace/RZA2M/rza2m_2d_barcode_sample_freertos_gcc/src/zxing_lib/zxing/common/Counted.h ****       delete this;
 274              		.loc 2 42 0
 275 006c 01300FE3 		movw	r3, #61441
 276 0070 AD3E4DE3 		movt	r3, 57005
 277 0074 043080E5 		str	r3, [r0, #4]
  43:/home/zkmike/workspace/RZA2M/rza2m_2d_barcode_sample_freertos_gcc/src/zxing_lib/zxing/common/Counted.h ****     }
 278              		.loc 2 43 0
 279 0078 003090E5 		ldr	r3, [r0]
 280 007c 043093E5 		ldr	r3, [r3, #4]
 281 0080 33FF2FE1 		blx	r3
 282              	.LVL23:
 283 0084 F2FFFFEA 		b	.L15
 284              	.LVL24:
 285              	.L22:
 286              	.LBE294:
 287              	.LBE295:
 288              	.LBE296:
 289              	.LBE297:
 290              	.LBE298:
 291              	.LBE299:
 292              	.LBE300:
 293              	.LBB301:
 294              	.LBB302:
  75:/home/zkmike/workspace/RZA2M/rza2m_2d_barcode_sample_freertos_gcc/src/zxing_lib/zxing/common/Counted.h ****       object_->release();
 295              		.loc 2 75 0
 296 0088 04009DE5 		ldr	r0, [sp, #4]
 297 008c 000050E3 		cmp	r0, #0
 298 0090 0400000A 		beq	.L13
 299              	.LVL25:
 300              	.LBB303:
 301              	.LBB304:
  40:/home/zkmike/workspace/RZA2M/rza2m_2d_barcode_sample_freertos_gcc/src/zxing_lib/zxing/common/Counted.h ****     if (count_ == 0) {
 302              		.loc 2 40 0
 303 0094 043090E5 		ldr	r3, [r0, #4]
 304 0098 013043E2 		sub	r3, r3, #1
 305 009c 043080E5 		str	r3, [r0, #4]
  41:/home/zkmike/workspace/RZA2M/rza2m_2d_barcode_sample_freertos_gcc/src/zxing_lib/zxing/common/Counted.h ****       count_ = 0xDEADF001;
 306              		.loc 2 41 0
 307 00a0 000053E3 		cmp	r3, #0
 308 00a4 0200000A 		beq	.L23
 309              	.LVL26:
 310              	.L13:
 311              	.LBE304:
 312              	.LBE303:
 313              	.LBE302:
 314              	.LBE301:
  60:../src/zxing_lib/zxing/aztec/AztecReader.cpp **** }
 315              		.loc 3 60 0
 316 00a8 0500A0E1 		mov	r0, r5
 317 00ac 0CD08DE2 		add	sp, sp, #12
 318              		.cfi_remember_state
 319              		.cfi_def_cfa_offset 20
 320              		@ sp needed
 321 00b0 F080BDE8 		pop	{r4, r5, r6, r7, pc}
 322              	.LVL27:
 323              	.L23:
 324              		.cfi_restore_state
 325              	.LBB308:
 326              	.LBB307:
 327              	.LBB306:
 328              	.LBB305:
  42:/home/zkmike/workspace/RZA2M/rza2m_2d_barcode_sample_freertos_gcc/src/zxing_lib/zxing/common/Counted.h ****       delete this;
 329              		.loc 2 42 0
 330 00b4 01300FE3 		movw	r3, #61441
 331 00b8 AD3E4DE3 		movt	r3, 57005
 332 00bc 043080E5 		str	r3, [r0, #4]
  43:/home/zkmike/workspace/RZA2M/rza2m_2d_barcode_sample_freertos_gcc/src/zxing_lib/zxing/common/Counted.h ****     }
 333              		.loc 2 43 0
 334 00c0 003090E5 		ldr	r3, [r0]
 335 00c4 043093E5 		ldr	r3, [r3, #4]
 336 00c8 33FF2FE1 		blx	r3
 337              	.LVL28:
 338              	.LBE305:
 339              	.LBE306:
 340              	.LBE307:
 341              	.LBE308:
  59:../src/zxing_lib/zxing/aztec/AztecReader.cpp **** }
 342              		.loc 3 59 0
 343 00cc F5FFFFEA 		b	.L13
 344              	.L19:
 345              	.LVL29:
 346              	.LBB309:
 347              	.LBB310:
  75:/home/zkmike/workspace/RZA2M/rza2m_2d_barcode_sample_freertos_gcc/src/zxing_lib/zxing/common/Counted.h ****       object_->release();
 348              		.loc 2 75 0
 349 00d0 04009DE5 		ldr	r0, [sp, #4]
 350 00d4 000050E3 		cmp	r0, #0
 351 00d8 0A00000A 		beq	.L18
 352              	.LVL30:
 353              	.LBB311:
 354              	.LBB312:
  40:/home/zkmike/workspace/RZA2M/rza2m_2d_barcode_sample_freertos_gcc/src/zxing_lib/zxing/common/Counted.h ****     if (count_ == 0) {
 355              		.loc 2 40 0
 356 00dc 043090E5 		ldr	r3, [r0, #4]
 357 00e0 013043E2 		sub	r3, r3, #1
 358 00e4 043080E5 		str	r3, [r0, #4]
  41:/home/zkmike/workspace/RZA2M/rza2m_2d_barcode_sample_freertos_gcc/src/zxing_lib/zxing/common/Counted.h ****       count_ = 0xDEADF001;
 359              		.loc 2 41 0
 360 00e8 000053E3 		cmp	r3, #0
 361 00ec 0500001A 		bne	.L18
  42:/home/zkmike/workspace/RZA2M/rza2m_2d_barcode_sample_freertos_gcc/src/zxing_lib/zxing/common/Counted.h ****       delete this;
 362              		.loc 2 42 0
 363 00f0 01300FE3 		movw	r3, #61441
 364 00f4 AD3E4DE3 		movt	r3, 57005
 365 00f8 043080E5 		str	r3, [r0, #4]
  43:/home/zkmike/workspace/RZA2M/rza2m_2d_barcode_sample_freertos_gcc/src/zxing_lib/zxing/common/Counted.h ****     }
 366              		.loc 2 43 0
 367 00fc 003090E5 		ldr	r3, [r0]
 368 0100 043093E5 		ldr	r3, [r3, #4]
 369 0104 33FF2FE1 		blx	r3
 370              	.LVL31:
 371              	.L18:
 372              	.LEHB1:
 373 0108 FEFFFFEB 		bl	__cxa_end_cleanup
 374              	.LVL32:
 375              	.LEHE1:
 376              	.LBE312:
 377              	.LBE311:
 378              	.LBE310:
 379              	.LBE309:
 380              		.cfi_endproc
 381              	.LFE2263:
 382              		.global	__gxx_personality_v0
 383              		.personality	__gxx_personality_v0
 384              		.handlerdata
 385              	.LLSDA2263:
 386 0008 FF       		.byte	0xff
 387 0009 FF       		.byte	0xff
 388 000a 01       		.byte	0x1
 389 000b 0A       		.uleb128 .LLSDACSE2263-.LLSDACSB2263
 390              	.LLSDACSB2263:
 391 000c 64       		.uleb128 .LEHB0-.LFB2263
 392 000d 04       		.uleb128 .LEHE0-.LEHB0
 393 000e D001     		.uleb128 .L19-.LFB2263
 394 0010 00       		.uleb128 0
 395 0011 8802     		.uleb128 .LEHB1-.LFB2263
 396 0013 04       		.uleb128 .LEHE1-.LEHB1
 397 0014 00       		.uleb128 0
 398 0015 00       		.uleb128 0
 399              	.LLSDACSE2263:
 400              		.section	.text._ZN5zxing5aztec11AztecReader6decodeENS_3RefINS_12BinaryBitmapEEENS_11DecodeHintsE
 401              		.fnend
 403              		.section	.text._ZN5zxing5aztec7DecoderD2Ev,"axG",%progbits,_ZN5zxing5aztec7DecoderD5Ev,comdat
 404              		.align	2
 405              		.weak	_ZN5zxing5aztec7DecoderD2Ev
 406              		.syntax unified
 407              		.arm
 408              		.fpu neon
 410              	_ZN5zxing5aztec7DecoderD2Ev:
 411              		.fnstart
 412              	.LFB2791:
 413              		.file 4 "/home/zkmike/workspace/RZA2M/rza2m_2d_barcode_sample_freertos_gcc/src/zxing_lib/zxing/azt
   1:/home/zkmike/workspace/RZA2M/rza2m_2d_barcode_sample_freertos_gcc/src/zxing_lib/zxing/aztec/decoder/Decoder.h **** // -*- mode:c++; tab-width:2; indent-tabs-mode:nil; c-basic-offset:2 -*-
   2:/home/zkmike/workspace/RZA2M/rza2m_2d_barcode_sample_freertos_gcc/src/zxing_lib/zxing/aztec/decoder/Decoder.h **** /*
   3:/home/zkmike/workspace/RZA2M/rza2m_2d_barcode_sample_freertos_gcc/src/zxing_lib/zxing/aztec/decoder/Decoder.h ****  *  Decoder.h
   4:/home/zkmike/workspace/RZA2M/rza2m_2d_barcode_sample_freertos_gcc/src/zxing_lib/zxing/aztec/decoder/Decoder.h ****  *  zxing
   5:/home/zkmike/workspace/RZA2M/rza2m_2d_barcode_sample_freertos_gcc/src/zxing_lib/zxing/aztec/decoder/Decoder.h ****  *
   6:/home/zkmike/workspace/RZA2M/rza2m_2d_barcode_sample_freertos_gcc/src/zxing_lib/zxing/aztec/decoder/Decoder.h ****  *  Created by Lukas Stabe on 08/02/2012.
   7:/home/zkmike/workspace/RZA2M/rza2m_2d_barcode_sample_freertos_gcc/src/zxing_lib/zxing/aztec/decoder/Decoder.h ****  *  Copyright 2012 ZXing authors All rights reserved.
   8:/home/zkmike/workspace/RZA2M/rza2m_2d_barcode_sample_freertos_gcc/src/zxing_lib/zxing/aztec/decoder/Decoder.h ****  *
   9:/home/zkmike/workspace/RZA2M/rza2m_2d_barcode_sample_freertos_gcc/src/zxing_lib/zxing/aztec/decoder/Decoder.h ****  * Licensed under the Apache License, Version 2.0 (the "License");
  10:/home/zkmike/workspace/RZA2M/rza2m_2d_barcode_sample_freertos_gcc/src/zxing_lib/zxing/aztec/decoder/Decoder.h ****  * you may not use this file except in compliance with the License.
  11:/home/zkmike/workspace/RZA2M/rza2m_2d_barcode_sample_freertos_gcc/src/zxing_lib/zxing/aztec/decoder/Decoder.h ****  * You may obtain a copy of the License at
  12:/home/zkmike/workspace/RZA2M/rza2m_2d_barcode_sample_freertos_gcc/src/zxing_lib/zxing/aztec/decoder/Decoder.h ****  *
  13:/home/zkmike/workspace/RZA2M/rza2m_2d_barcode_sample_freertos_gcc/src/zxing_lib/zxing/aztec/decoder/Decoder.h ****  *      http://www.apache.org/licenses/LICENSE-2.0
  14:/home/zkmike/workspace/RZA2M/rza2m_2d_barcode_sample_freertos_gcc/src/zxing_lib/zxing/aztec/decoder/Decoder.h ****  *
  15:/home/zkmike/workspace/RZA2M/rza2m_2d_barcode_sample_freertos_gcc/src/zxing_lib/zxing/aztec/decoder/Decoder.h ****  * Unless required by applicable law or agreed to in writing, software
  16:/home/zkmike/workspace/RZA2M/rza2m_2d_barcode_sample_freertos_gcc/src/zxing_lib/zxing/aztec/decoder/Decoder.h ****  * distributed under the License is distributed on an "AS IS" BASIS,
  17:/home/zkmike/workspace/RZA2M/rza2m_2d_barcode_sample_freertos_gcc/src/zxing_lib/zxing/aztec/decoder/Decoder.h ****  * WITHOUT WARRANTIES OR CONDITIONS OF ANY KIND, either express or implied.
  18:/home/zkmike/workspace/RZA2M/rza2m_2d_barcode_sample_freertos_gcc/src/zxing_lib/zxing/aztec/decoder/Decoder.h ****  * See the License for the specific language governing permissions and
  19:/home/zkmike/workspace/RZA2M/rza2m_2d_barcode_sample_freertos_gcc/src/zxing_lib/zxing/aztec/decoder/Decoder.h ****  * limitations under the License.
  20:/home/zkmike/workspace/RZA2M/rza2m_2d_barcode_sample_freertos_gcc/src/zxing_lib/zxing/aztec/decoder/Decoder.h ****  */
  21:/home/zkmike/workspace/RZA2M/rza2m_2d_barcode_sample_freertos_gcc/src/zxing_lib/zxing/aztec/decoder/Decoder.h **** 
  22:/home/zkmike/workspace/RZA2M/rza2m_2d_barcode_sample_freertos_gcc/src/zxing_lib/zxing/aztec/decoder/Decoder.h **** #ifndef __ZXING_AZTEC_DECODER_DECODER_H__
  23:/home/zkmike/workspace/RZA2M/rza2m_2d_barcode_sample_freertos_gcc/src/zxing_lib/zxing/aztec/decoder/Decoder.h **** #define __ZXING_AZTEC_DECODER_DECODER_H__
  24:/home/zkmike/workspace/RZA2M/rza2m_2d_barcode_sample_freertos_gcc/src/zxing_lib/zxing/aztec/decoder/Decoder.h **** 
  25:/home/zkmike/workspace/RZA2M/rza2m_2d_barcode_sample_freertos_gcc/src/zxing_lib/zxing/aztec/decoder/Decoder.h **** #include <zxing/common/BitMatrix.h>
  26:/home/zkmike/workspace/RZA2M/rza2m_2d_barcode_sample_freertos_gcc/src/zxing_lib/zxing/aztec/decoder/Decoder.h **** #include <zxing/common/Str.h>
  27:/home/zkmike/workspace/RZA2M/rza2m_2d_barcode_sample_freertos_gcc/src/zxing_lib/zxing/aztec/decoder/Decoder.h **** #include <zxing/aztec/AztecDetectorResult.h>
  28:/home/zkmike/workspace/RZA2M/rza2m_2d_barcode_sample_freertos_gcc/src/zxing_lib/zxing/aztec/decoder/Decoder.h **** 
  29:/home/zkmike/workspace/RZA2M/rza2m_2d_barcode_sample_freertos_gcc/src/zxing_lib/zxing/aztec/decoder/Decoder.h **** namespace zxing {
  30:/home/zkmike/workspace/RZA2M/rza2m_2d_barcode_sample_freertos_gcc/src/zxing_lib/zxing/aztec/decoder/Decoder.h **** 
  31:/home/zkmike/workspace/RZA2M/rza2m_2d_barcode_sample_freertos_gcc/src/zxing_lib/zxing/aztec/decoder/Decoder.h **** class DecoderResult;
  32:/home/zkmike/workspace/RZA2M/rza2m_2d_barcode_sample_freertos_gcc/src/zxing_lib/zxing/aztec/decoder/Decoder.h ****         
  33:/home/zkmike/workspace/RZA2M/rza2m_2d_barcode_sample_freertos_gcc/src/zxing_lib/zxing/aztec/decoder/Decoder.h **** namespace aztec {
  34:/home/zkmike/workspace/RZA2M/rza2m_2d_barcode_sample_freertos_gcc/src/zxing_lib/zxing/aztec/decoder/Decoder.h **** 
  35:/home/zkmike/workspace/RZA2M/rza2m_2d_barcode_sample_freertos_gcc/src/zxing_lib/zxing/aztec/decoder/Decoder.h **** class Decoder : public Counted {
 414              		.loc 4 35 0
 415              		.cfi_startproc
 416              		@ args = 0, pretend = 0, frame = 0
 417              		@ frame_needed = 0, uses_anonymous_args = 0
 418              	.LVL33:
 419 0000 10402DE9 		push	{r4, lr}
 420              		.cfi_def_cfa_offset 8
 421              		.cfi_offset 4, -8
 422              		.cfi_offset 14, -4
 423 0004 0040A0E1 		mov	r4, r0
 424              	.LBB313:
 425              		.loc 4 35 0
 426 0008 44309FE5 		ldr	r3, .L28
 427 000c 003080E5 		str	r3, [r0]
 428              	.LVL34:
 429              	.LBB314:
 430              	.LBB315:
  75:/home/zkmike/workspace/RZA2M/rza2m_2d_barcode_sample_freertos_gcc/src/zxing_lib/zxing/common/Counted.h ****       object_->release();
 431              		.loc 2 75 0
 432 0010 100090E5 		ldr	r0, [r0, #16]
 433              	.LVL35:
 434 0014 000050E3 		cmp	r0, #0
 435 0018 0400000A 		beq	.L25
 436              	.LVL36:
 437              	.LBB316:
 438              	.LBB317:
  40:/home/zkmike/workspace/RZA2M/rza2m_2d_barcode_sample_freertos_gcc/src/zxing_lib/zxing/common/Counted.h ****     if (count_ == 0) {
 439              		.loc 2 40 0
 440 001c 043090E5 		ldr	r3, [r0, #4]
 441 0020 013043E2 		sub	r3, r3, #1
 442 0024 043080E5 		str	r3, [r0, #4]
  41:/home/zkmike/workspace/RZA2M/rza2m_2d_barcode_sample_freertos_gcc/src/zxing_lib/zxing/common/Counted.h ****       count_ = 0xDEADF001;
 443              		.loc 2 41 0
 444 0028 000053E3 		cmp	r3, #0
 445 002c 0100000A 		beq	.L27
 446              	.LVL37:
 447              	.L25:
 448              	.LBE317:
 449              	.LBE316:
 450              	.LBE315:
 451              	.LBE314:
 452              	.LBE313:
 453              		.loc 4 35 0
 454 0030 0400A0E1 		mov	r0, r4
 455 0034 1080BDE8 		pop	{r4, pc}
 456              	.LVL38:
 457              	.L27:
 458              	.LBB322:
 459              	.LBB321:
 460              	.LBB320:
 461              	.LBB319:
 462              	.LBB318:
  42:/home/zkmike/workspace/RZA2M/rza2m_2d_barcode_sample_freertos_gcc/src/zxing_lib/zxing/common/Counted.h ****       delete this;
 463              		.loc 2 42 0
 464 0038 01300FE3 		movw	r3, #61441
 465 003c AD3E4DE3 		movt	r3, 57005
 466 0040 043080E5 		str	r3, [r0, #4]
  43:/home/zkmike/workspace/RZA2M/rza2m_2d_barcode_sample_freertos_gcc/src/zxing_lib/zxing/common/Counted.h ****     }
 467              		.loc 2 43 0
 468 0044 003090E5 		ldr	r3, [r0]
 469 0048 043093E5 		ldr	r3, [r3, #4]
 470 004c 33FF2FE1 		blx	r3
 471              	.LVL39:
 472 0050 F6FFFFEA 		b	.L25
 473              	.L29:
 474              		.align	2
 475              	.L28:
 476 0054 08000000 		.word	_ZTVN5zxing5aztec7DecoderE+8
 477              	.LBE318:
 478              	.LBE319:
 479              	.LBE320:
 480              	.LBE321:
 481              	.LBE322:
 482              		.cfi_endproc
 483              	.LFE2791:
 484              		.cantunwind
 485              		.fnend
 487              		.weak	_ZN5zxing5aztec7DecoderD1Ev
 488              		.set	_ZN5zxing5aztec7DecoderD1Ev,_ZN5zxing5aztec7DecoderD2Ev
 489              		.section	.text._ZN5zxing5aztec8DetectorD2Ev,"axG",%progbits,_ZN5zxing5aztec8DetectorD5Ev,comdat
 490              		.align	2
 491              		.weak	_ZN5zxing5aztec8DetectorD2Ev
 492              		.syntax unified
 493              		.arm
 494              		.fpu neon
 496              	_ZN5zxing5aztec8DetectorD2Ev:
 497              		.fnstart
 498              	.LFB2795:
 499              		.file 5 "/home/zkmike/workspace/RZA2M/rza2m_2d_barcode_sample_freertos_gcc/src/zxing_lib/zxing/azt
   1:/home/zkmike/workspace/RZA2M/rza2m_2d_barcode_sample_freertos_gcc/src/zxing_lib/zxing/aztec/detector/Detector.h **** // -*- mode:c++; tab-width:2; indent-tabs-mode:nil; c-basic-offset:2 -*-
   2:/home/zkmike/workspace/RZA2M/rza2m_2d_barcode_sample_freertos_gcc/src/zxing_lib/zxing/aztec/detector/Detector.h **** /*
   3:/home/zkmike/workspace/RZA2M/rza2m_2d_barcode_sample_freertos_gcc/src/zxing_lib/zxing/aztec/detector/Detector.h ****  *  Detector.h
   4:/home/zkmike/workspace/RZA2M/rza2m_2d_barcode_sample_freertos_gcc/src/zxing_lib/zxing/aztec/detector/Detector.h ****  *  zxing
   5:/home/zkmike/workspace/RZA2M/rza2m_2d_barcode_sample_freertos_gcc/src/zxing_lib/zxing/aztec/detector/Detector.h ****  *
   6:/home/zkmike/workspace/RZA2M/rza2m_2d_barcode_sample_freertos_gcc/src/zxing_lib/zxing/aztec/detector/Detector.h ****  *  Created by Lukas Stabe on 08/02/2012.
   7:/home/zkmike/workspace/RZA2M/rza2m_2d_barcode_sample_freertos_gcc/src/zxing_lib/zxing/aztec/detector/Detector.h ****  *  Copyright 2012 ZXing authors All rights reserved.
   8:/home/zkmike/workspace/RZA2M/rza2m_2d_barcode_sample_freertos_gcc/src/zxing_lib/zxing/aztec/detector/Detector.h ****  *
   9:/home/zkmike/workspace/RZA2M/rza2m_2d_barcode_sample_freertos_gcc/src/zxing_lib/zxing/aztec/detector/Detector.h ****  * Licensed under the Apache License, Version 2.0 (the "License");
  10:/home/zkmike/workspace/RZA2M/rza2m_2d_barcode_sample_freertos_gcc/src/zxing_lib/zxing/aztec/detector/Detector.h ****  * you may not use this file except in compliance with the License.
  11:/home/zkmike/workspace/RZA2M/rza2m_2d_barcode_sample_freertos_gcc/src/zxing_lib/zxing/aztec/detector/Detector.h ****  * You may obtain a copy of the License at
  12:/home/zkmike/workspace/RZA2M/rza2m_2d_barcode_sample_freertos_gcc/src/zxing_lib/zxing/aztec/detector/Detector.h ****  *
  13:/home/zkmike/workspace/RZA2M/rza2m_2d_barcode_sample_freertos_gcc/src/zxing_lib/zxing/aztec/detector/Detector.h ****  *      http://www.apache.org/licenses/LICENSE-2.0
  14:/home/zkmike/workspace/RZA2M/rza2m_2d_barcode_sample_freertos_gcc/src/zxing_lib/zxing/aztec/detector/Detector.h ****  *
  15:/home/zkmike/workspace/RZA2M/rza2m_2d_barcode_sample_freertos_gcc/src/zxing_lib/zxing/aztec/detector/Detector.h ****  * Unless required by applicable law or agreed to in writing, software
  16:/home/zkmike/workspace/RZA2M/rza2m_2d_barcode_sample_freertos_gcc/src/zxing_lib/zxing/aztec/detector/Detector.h ****  * distributed under the License is distributed on an "AS IS" BASIS,
  17:/home/zkmike/workspace/RZA2M/rza2m_2d_barcode_sample_freertos_gcc/src/zxing_lib/zxing/aztec/detector/Detector.h ****  * WITHOUT WARRANTIES OR CONDITIONS OF ANY KIND, either express or implied.
  18:/home/zkmike/workspace/RZA2M/rza2m_2d_barcode_sample_freertos_gcc/src/zxing_lib/zxing/aztec/detector/Detector.h ****  * See the License for the specific language governing permissions and
  19:/home/zkmike/workspace/RZA2M/rza2m_2d_barcode_sample_freertos_gcc/src/zxing_lib/zxing/aztec/detector/Detector.h ****  * limitations under the License.
  20:/home/zkmike/workspace/RZA2M/rza2m_2d_barcode_sample_freertos_gcc/src/zxing_lib/zxing/aztec/detector/Detector.h ****  */
  21:/home/zkmike/workspace/RZA2M/rza2m_2d_barcode_sample_freertos_gcc/src/zxing_lib/zxing/aztec/detector/Detector.h **** 
  22:/home/zkmike/workspace/RZA2M/rza2m_2d_barcode_sample_freertos_gcc/src/zxing_lib/zxing/aztec/detector/Detector.h **** #ifndef __ZXING_AZTEC_DETECTOR_DETECTOR_H__
  23:/home/zkmike/workspace/RZA2M/rza2m_2d_barcode_sample_freertos_gcc/src/zxing_lib/zxing/aztec/detector/Detector.h **** #define __ZXING_AZTEC_DETECTOR_DETECTOR_H__
  24:/home/zkmike/workspace/RZA2M/rza2m_2d_barcode_sample_freertos_gcc/src/zxing_lib/zxing/aztec/detector/Detector.h **** 
  25:/home/zkmike/workspace/RZA2M/rza2m_2d_barcode_sample_freertos_gcc/src/zxing_lib/zxing/aztec/detector/Detector.h **** #include <vector>
  26:/home/zkmike/workspace/RZA2M/rza2m_2d_barcode_sample_freertos_gcc/src/zxing_lib/zxing/aztec/detector/Detector.h **** 
  27:/home/zkmike/workspace/RZA2M/rza2m_2d_barcode_sample_freertos_gcc/src/zxing_lib/zxing/aztec/detector/Detector.h **** #include <zxing/common/BitArray.h>
  28:/home/zkmike/workspace/RZA2M/rza2m_2d_barcode_sample_freertos_gcc/src/zxing_lib/zxing/aztec/detector/Detector.h **** #include <zxing/ResultPoint.h>
  29:/home/zkmike/workspace/RZA2M/rza2m_2d_barcode_sample_freertos_gcc/src/zxing_lib/zxing/aztec/detector/Detector.h **** #include <zxing/common/BitMatrix.h>
  30:/home/zkmike/workspace/RZA2M/rza2m_2d_barcode_sample_freertos_gcc/src/zxing_lib/zxing/aztec/detector/Detector.h **** #include <zxing/DecodeHints.h>
  31:/home/zkmike/workspace/RZA2M/rza2m_2d_barcode_sample_freertos_gcc/src/zxing_lib/zxing/aztec/detector/Detector.h **** #include <zxing/aztec/AztecDetectorResult.h>
  32:/home/zkmike/workspace/RZA2M/rza2m_2d_barcode_sample_freertos_gcc/src/zxing_lib/zxing/aztec/detector/Detector.h **** 
  33:/home/zkmike/workspace/RZA2M/rza2m_2d_barcode_sample_freertos_gcc/src/zxing_lib/zxing/aztec/detector/Detector.h **** namespace zxing {
  34:/home/zkmike/workspace/RZA2M/rza2m_2d_barcode_sample_freertos_gcc/src/zxing_lib/zxing/aztec/detector/Detector.h **** namespace aztec {
  35:/home/zkmike/workspace/RZA2M/rza2m_2d_barcode_sample_freertos_gcc/src/zxing_lib/zxing/aztec/detector/Detector.h **** 
  36:/home/zkmike/workspace/RZA2M/rza2m_2d_barcode_sample_freertos_gcc/src/zxing_lib/zxing/aztec/detector/Detector.h **** class Point : public Counted {
  37:/home/zkmike/workspace/RZA2M/rza2m_2d_barcode_sample_freertos_gcc/src/zxing_lib/zxing/aztec/detector/Detector.h ****  private:
  38:/home/zkmike/workspace/RZA2M/rza2m_2d_barcode_sample_freertos_gcc/src/zxing_lib/zxing/aztec/detector/Detector.h ****   const int x;
  39:/home/zkmike/workspace/RZA2M/rza2m_2d_barcode_sample_freertos_gcc/src/zxing_lib/zxing/aztec/detector/Detector.h ****   const int y;
  40:/home/zkmike/workspace/RZA2M/rza2m_2d_barcode_sample_freertos_gcc/src/zxing_lib/zxing/aztec/detector/Detector.h ****             
  41:/home/zkmike/workspace/RZA2M/rza2m_2d_barcode_sample_freertos_gcc/src/zxing_lib/zxing/aztec/detector/Detector.h ****  public:
  42:/home/zkmike/workspace/RZA2M/rza2m_2d_barcode_sample_freertos_gcc/src/zxing_lib/zxing/aztec/detector/Detector.h ****   Ref<ResultPoint> toResultPoint() { 
  43:/home/zkmike/workspace/RZA2M/rza2m_2d_barcode_sample_freertos_gcc/src/zxing_lib/zxing/aztec/detector/Detector.h ****     return Ref<ResultPoint>(new ResultPoint(float(x), float(y)));
  44:/home/zkmike/workspace/RZA2M/rza2m_2d_barcode_sample_freertos_gcc/src/zxing_lib/zxing/aztec/detector/Detector.h ****   }
  45:/home/zkmike/workspace/RZA2M/rza2m_2d_barcode_sample_freertos_gcc/src/zxing_lib/zxing/aztec/detector/Detector.h ****             
  46:/home/zkmike/workspace/RZA2M/rza2m_2d_barcode_sample_freertos_gcc/src/zxing_lib/zxing/aztec/detector/Detector.h ****   Point(int ax, int ay) : x(ax), y(ay) {}
  47:/home/zkmike/workspace/RZA2M/rza2m_2d_barcode_sample_freertos_gcc/src/zxing_lib/zxing/aztec/detector/Detector.h **** 
  48:/home/zkmike/workspace/RZA2M/rza2m_2d_barcode_sample_freertos_gcc/src/zxing_lib/zxing/aztec/detector/Detector.h ****   int getX() const { return x; }
  49:/home/zkmike/workspace/RZA2M/rza2m_2d_barcode_sample_freertos_gcc/src/zxing_lib/zxing/aztec/detector/Detector.h ****   int getY() const { return y; }
  50:/home/zkmike/workspace/RZA2M/rza2m_2d_barcode_sample_freertos_gcc/src/zxing_lib/zxing/aztec/detector/Detector.h **** };
  51:/home/zkmike/workspace/RZA2M/rza2m_2d_barcode_sample_freertos_gcc/src/zxing_lib/zxing/aztec/detector/Detector.h ****         
  52:/home/zkmike/workspace/RZA2M/rza2m_2d_barcode_sample_freertos_gcc/src/zxing_lib/zxing/aztec/detector/Detector.h **** class Detector : public Counted {
 500              		.loc 5 52 0
 501              		.cfi_startproc
 502              		@ args = 0, pretend = 0, frame = 0
 503              		@ frame_needed = 0, uses_anonymous_args = 0
 504              	.LVL40:
 505 0000 10402DE9 		push	{r4, lr}
 506              		.cfi_def_cfa_offset 8
 507              		.cfi_offset 4, -8
 508              		.cfi_offset 14, -4
 509 0004 0040A0E1 		mov	r4, r0
 510              	.LBB323:
 511              		.loc 5 52 0
 512 0008 44309FE5 		ldr	r3, .L34
 513 000c 003080E5 		str	r3, [r0]
 514              	.LVL41:
 515              	.LBB324:
 516              	.LBB325:
  75:/home/zkmike/workspace/RZA2M/rza2m_2d_barcode_sample_freertos_gcc/src/zxing_lib/zxing/common/Counted.h ****       object_->release();
 517              		.loc 2 75 0
 518 0010 080090E5 		ldr	r0, [r0, #8]
 519              	.LVL42:
 520 0014 000050E3 		cmp	r0, #0
 521 0018 0400000A 		beq	.L31
 522              	.LVL43:
 523              	.LBB326:
 524              	.LBB327:
  40:/home/zkmike/workspace/RZA2M/rza2m_2d_barcode_sample_freertos_gcc/src/zxing_lib/zxing/common/Counted.h ****     if (count_ == 0) {
 525              		.loc 2 40 0
 526 001c 043090E5 		ldr	r3, [r0, #4]
 527 0020 013043E2 		sub	r3, r3, #1
 528 0024 043080E5 		str	r3, [r0, #4]
  41:/home/zkmike/workspace/RZA2M/rza2m_2d_barcode_sample_freertos_gcc/src/zxing_lib/zxing/common/Counted.h ****       count_ = 0xDEADF001;
 529              		.loc 2 41 0
 530 0028 000053E3 		cmp	r3, #0
 531 002c 0100000A 		beq	.L33
 532              	.LVL44:
 533              	.L31:
 534              	.LBE327:
 535              	.LBE326:
 536              	.LBE325:
 537              	.LBE324:
 538              	.LBE323:
 539              		.loc 5 52 0
 540 0030 0400A0E1 		mov	r0, r4
 541 0034 1080BDE8 		pop	{r4, pc}
 542              	.LVL45:
 543              	.L33:
 544              	.LBB332:
 545              	.LBB331:
 546              	.LBB330:
 547              	.LBB329:
 548              	.LBB328:
  42:/home/zkmike/workspace/RZA2M/rza2m_2d_barcode_sample_freertos_gcc/src/zxing_lib/zxing/common/Counted.h ****       delete this;
 549              		.loc 2 42 0
 550 0038 01300FE3 		movw	r3, #61441
 551 003c AD3E4DE3 		movt	r3, 57005
 552 0040 043080E5 		str	r3, [r0, #4]
  43:/home/zkmike/workspace/RZA2M/rza2m_2d_barcode_sample_freertos_gcc/src/zxing_lib/zxing/common/Counted.h ****     }
 553              		.loc 2 43 0
 554 0044 003090E5 		ldr	r3, [r0]
 555 0048 043093E5 		ldr	r3, [r3, #4]
 556 004c 33FF2FE1 		blx	r3
 557              	.LVL46:
 558 0050 F6FFFFEA 		b	.L31
 559              	.L35:
 560              		.align	2
 561              	.L34:
 562 0054 08000000 		.word	_ZTVN5zxing5aztec8DetectorE+8
 563              	.LBE328:
 564              	.LBE329:
 565              	.LBE330:
 566              	.LBE331:
 567              	.LBE332:
 568              		.cfi_endproc
 569              	.LFE2795:
 570              		.cantunwind
 571              		.fnend
 573              		.weak	_ZN5zxing5aztec8DetectorD1Ev
 574              		.set	_ZN5zxing5aztec8DetectorD1Ev,_ZN5zxing5aztec8DetectorD2Ev
 575              		.section	.text._ZN5zxing5aztec11AztecReaderD2Ev,"ax",%progbits
 576              		.align	2
 577              		.global	_ZN5zxing5aztec11AztecReaderD2Ev
 578              		.syntax unified
 579              		.arm
 580              		.fpu neon
 582              	_ZN5zxing5aztec11AztecReaderD2Ev:
 583              		.fnstart
 584              	.LFB2265:
  61:../src/zxing_lib/zxing/aztec/AztecReader.cpp ****         
  62:../src/zxing_lib/zxing/aztec/AztecReader.cpp **** AztecReader::~AztecReader() {
 585              		.loc 3 62 0
 586              		.cfi_startproc
 587              		@ args = 0, pretend = 0, frame = 0
 588              		@ frame_needed = 0, uses_anonymous_args = 0
 589              	.LVL47:
 590 0000 10402DE9 		push	{r4, lr}
 591              		.cfi_def_cfa_offset 8
 592              		.cfi_offset 4, -8
 593              		.cfi_offset 14, -4
 594 0004 0040A0E1 		mov	r4, r0
 595              	.LBB333:
 596              		.loc 3 62 0
 597 0008 54309FE5 		ldr	r3, .L40
 598 000c 003080E5 		str	r3, [r0]
 599              	.LVL48:
 600              	.LBB334:
 601              	.LBB335:
 602              		.loc 4 35 0
 603 0010 50309FE5 		ldr	r3, .L40+4
 604 0014 083080E5 		str	r3, [r0, #8]
 605              	.LVL49:
 606              	.LBB336:
 607              	.LBB337:
  75:/home/zkmike/workspace/RZA2M/rza2m_2d_barcode_sample_freertos_gcc/src/zxing_lib/zxing/common/Counted.h ****       object_->release();
 608              		.loc 2 75 0
 609 0018 180090E5 		ldr	r0, [r0, #24]
 610              	.LVL50:
 611 001c 000050E3 		cmp	r0, #0
 612 0020 0400000A 		beq	.L37
 613              	.LVL51:
 614              	.LBB338:
 615              	.LBB339:
  40:/home/zkmike/workspace/RZA2M/rza2m_2d_barcode_sample_freertos_gcc/src/zxing_lib/zxing/common/Counted.h ****     if (count_ == 0) {
 616              		.loc 2 40 0
 617 0024 043090E5 		ldr	r3, [r0, #4]
 618 0028 013043E2 		sub	r3, r3, #1
 619 002c 043080E5 		str	r3, [r0, #4]
  41:/home/zkmike/workspace/RZA2M/rza2m_2d_barcode_sample_freertos_gcc/src/zxing_lib/zxing/common/Counted.h ****       count_ = 0xDEADF001;
 620              		.loc 2 41 0
 621 0030 000053E3 		cmp	r3, #0
 622 0034 0300000A 		beq	.L39
 623              	.LVL52:
 624              	.L37:
 625              	.LBE339:
 626              	.LBE338:
 627              	.LBE337:
 628              	.LBE336:
 629              	.LBE335:
 630              	.LBE334:
 631              		.loc 3 62 0
 632 0038 0400A0E1 		mov	r0, r4
 633 003c FEFFFFEB 		bl	_ZN5zxing6ReaderD2Ev
 634              	.LVL53:
 635              	.LBE333:
  63:../src/zxing_lib/zxing/aztec/AztecReader.cpp ****   // nothing
  64:../src/zxing_lib/zxing/aztec/AztecReader.cpp **** }
 636              		.loc 3 64 0
 637 0040 0400A0E1 		mov	r0, r4
 638 0044 1080BDE8 		pop	{r4, pc}
 639              	.LVL54:
 640              	.L39:
 641              	.LBB346:
 642              	.LBB345:
 643              	.LBB344:
 644              	.LBB343:
 645              	.LBB342:
 646              	.LBB341:
 647              	.LBB340:
  42:/home/zkmike/workspace/RZA2M/rza2m_2d_barcode_sample_freertos_gcc/src/zxing_lib/zxing/common/Counted.h ****       delete this;
 648              		.loc 2 42 0
 649 0048 01300FE3 		movw	r3, #61441
 650 004c AD3E4DE3 		movt	r3, 57005
 651 0050 043080E5 		str	r3, [r0, #4]
  43:/home/zkmike/workspace/RZA2M/rza2m_2d_barcode_sample_freertos_gcc/src/zxing_lib/zxing/common/Counted.h ****     }
 652              		.loc 2 43 0
 653 0054 003090E5 		ldr	r3, [r0]
 654 0058 043093E5 		ldr	r3, [r3, #4]
 655 005c 33FF2FE1 		blx	r3
 656              	.LVL55:
 657 0060 F4FFFFEA 		b	.L37
 658              	.L41:
 659              		.align	2
 660              	.L40:
 661 0064 08000000 		.word	.LANCHOR0+8
 662 0068 08000000 		.word	_ZTVN5zxing5aztec7DecoderE+8
 663              	.LBE340:
 664              	.LBE341:
 665              	.LBE342:
 666              	.LBE343:
 667              	.LBE344:
 668              	.LBE345:
 669              	.LBE346:
 670              		.cfi_endproc
 671              	.LFE2265:
 672              		.cantunwind
 673              		.fnend
 675              		.global	_ZN5zxing5aztec11AztecReaderD1Ev
 676              		.set	_ZN5zxing5aztec11AztecReaderD1Ev,_ZN5zxing5aztec11AztecReaderD2Ev
 677              		.section	.text._ZN5zxing8ArrayRefINS_3RefINS_11ResultPointEEEED0Ev,"axG",%progbits,_ZN5zxing8Array
 678              		.align	2
 679              		.weak	_ZN5zxing8ArrayRefINS_3RefINS_11ResultPointEEEED0Ev
 680              		.syntax unified
 681              		.arm
 682              		.fpu neon
 684              	_ZN5zxing8ArrayRefINS_3RefINS_11ResultPointEEEED0Ev:
 685              		.fnstart
 686              	.LFB2506:
 116:/home/zkmike/workspace/RZA2M/rza2m_2d_barcode_sample_freertos_gcc/src/zxing_lib/zxing/common/Array.h ****     if (array_) {
 687              		.loc 1 116 0
 688              		.cfi_startproc
 689              		@ args = 0, pretend = 0, frame = 0
 690              		@ frame_needed = 0, uses_anonymous_args = 0
 691              	.LVL56:
 692 0000 10402DE9 		push	{r4, lr}
 693              		.cfi_def_cfa_offset 8
 694              		.cfi_offset 4, -8
 695              		.cfi_offset 14, -4
 696 0004 0040A0E1 		mov	r4, r0
 697              	.LVL57:
 698              	.LBB347:
 699              	.LBB348:
 700              		.loc 1 121 0
 701 0008 50309FE5 		ldr	r3, .L46
 702 000c 003080E5 		str	r3, [r0]
 117:/home/zkmike/workspace/RZA2M/rza2m_2d_barcode_sample_freertos_gcc/src/zxing_lib/zxing/common/Array.h ****       array_->release();
 703              		.loc 1 117 0
 704 0010 080090E5 		ldr	r0, [r0, #8]
 705              	.LVL58:
 706 0014 000050E3 		cmp	r0, #0
 707 0018 0400000A 		beq	.L43
 708              	.LVL59:
 709              	.LBB349:
 710              	.LBB350:
  40:/home/zkmike/workspace/RZA2M/rza2m_2d_barcode_sample_freertos_gcc/src/zxing_lib/zxing/common/Counted.h ****     if (count_ == 0) {
 711              		.loc 2 40 0
 712 001c 043090E5 		ldr	r3, [r0, #4]
 713 0020 013043E2 		sub	r3, r3, #1
 714 0024 043080E5 		str	r3, [r0, #4]
  41:/home/zkmike/workspace/RZA2M/rza2m_2d_barcode_sample_freertos_gcc/src/zxing_lib/zxing/common/Counted.h ****       count_ = 0xDEADF001;
 715              		.loc 2 41 0
 716 0028 000053E3 		cmp	r3, #0
 717 002c 0400000A 		beq	.L45
 718              	.LVL60:
 719              	.L43:
 720              	.LBE350:
 721              	.LBE349:
 722              	.LBE348:
 723              	.LBE347:
 724              		.loc 1 121 0
 725 0030 0C10A0E3 		mov	r1, #12
 726 0034 0400A0E1 		mov	r0, r4
 727 0038 FEFFFFEB 		bl	_ZdlPvj
 728              	.LVL61:
 729 003c 0400A0E1 		mov	r0, r4
 730 0040 1080BDE8 		pop	{r4, pc}
 731              	.LVL62:
 732              	.L45:
 733              	.LBB354:
 734              	.LBB353:
 735              	.LBB352:
 736              	.LBB351:
  42:/home/zkmike/workspace/RZA2M/rza2m_2d_barcode_sample_freertos_gcc/src/zxing_lib/zxing/common/Counted.h ****       delete this;
 737              		.loc 2 42 0
 738 0044 01300FE3 		movw	r3, #61441
 739 0048 AD3E4DE3 		movt	r3, 57005
 740 004c 043080E5 		str	r3, [r0, #4]
  43:/home/zkmike/workspace/RZA2M/rza2m_2d_barcode_sample_freertos_gcc/src/zxing_lib/zxing/common/Counted.h ****     }
 741              		.loc 2 43 0
 742 0050 003090E5 		ldr	r3, [r0]
 743 0054 043093E5 		ldr	r3, [r3, #4]
 744 0058 33FF2FE1 		blx	r3
 745              	.LVL63:
 746 005c F3FFFFEA 		b	.L43
 747              	.L47:
 748              		.align	2
 749              	.L46:
 750 0060 08000000 		.word	_ZTVN5zxing8ArrayRefINS_3RefINS_11ResultPointEEEEE+8
 751              	.LBE351:
 752              	.LBE352:
 753              	.LBE353:
 754              	.LBE354:
 755              		.cfi_endproc
 756              	.LFE2506:
 757              		.cantunwind
 758              		.fnend
 760              		.section	.text._ZN5zxing8ArrayRefIcED0Ev,"axG",%progbits,_ZN5zxing8ArrayRefIcED5Ev,comdat
 761              		.align	2
 762              		.weak	_ZN5zxing8ArrayRefIcED0Ev
 763              		.syntax unified
 764              		.arm
 765              		.fpu neon
 767              	_ZN5zxing8ArrayRefIcED0Ev:
 768              		.fnstart
 769              	.LFB2523:
 116:/home/zkmike/workspace/RZA2M/rza2m_2d_barcode_sample_freertos_gcc/src/zxing_lib/zxing/common/Array.h ****     if (array_) {
 770              		.loc 1 116 0
 771              		.cfi_startproc
 772              		@ args = 0, pretend = 0, frame = 0
 773              		@ frame_needed = 0, uses_anonymous_args = 0
 774              	.LVL64:
 775 0000 10402DE9 		push	{r4, lr}
 776              		.cfi_def_cfa_offset 8
 777              		.cfi_offset 4, -8
 778              		.cfi_offset 14, -4
 779 0004 0040A0E1 		mov	r4, r0
 780              	.LVL65:
 781              	.LBB355:
 782              	.LBB356:
 783              		.loc 1 121 0
 784 0008 50309FE5 		ldr	r3, .L52
 785 000c 003080E5 		str	r3, [r0]
 117:/home/zkmike/workspace/RZA2M/rza2m_2d_barcode_sample_freertos_gcc/src/zxing_lib/zxing/common/Array.h ****       array_->release();
 786              		.loc 1 117 0
 787 0010 080090E5 		ldr	r0, [r0, #8]
 788              	.LVL66:
 789 0014 000050E3 		cmp	r0, #0
 790 0018 0400000A 		beq	.L49
 791              	.LVL67:
 792              	.LBB357:
 793              	.LBB358:
  40:/home/zkmike/workspace/RZA2M/rza2m_2d_barcode_sample_freertos_gcc/src/zxing_lib/zxing/common/Counted.h ****     if (count_ == 0) {
 794              		.loc 2 40 0
 795 001c 043090E5 		ldr	r3, [r0, #4]
 796 0020 013043E2 		sub	r3, r3, #1
 797 0024 043080E5 		str	r3, [r0, #4]
  41:/home/zkmike/workspace/RZA2M/rza2m_2d_barcode_sample_freertos_gcc/src/zxing_lib/zxing/common/Counted.h ****       count_ = 0xDEADF001;
 798              		.loc 2 41 0
 799 0028 000053E3 		cmp	r3, #0
 800 002c 0400000A 		beq	.L51
 801              	.LVL68:
 802              	.L49:
 803              	.LBE358:
 804              	.LBE357:
 805              	.LBE356:
 806              	.LBE355:
 807              		.loc 1 121 0
 808 0030 0C10A0E3 		mov	r1, #12
 809 0034 0400A0E1 		mov	r0, r4
 810 0038 FEFFFFEB 		bl	_ZdlPvj
 811              	.LVL69:
 812 003c 0400A0E1 		mov	r0, r4
 813 0040 1080BDE8 		pop	{r4, pc}
 814              	.LVL70:
 815              	.L51:
 816              	.LBB362:
 817              	.LBB361:
 818              	.LBB360:
 819              	.LBB359:
  42:/home/zkmike/workspace/RZA2M/rza2m_2d_barcode_sample_freertos_gcc/src/zxing_lib/zxing/common/Counted.h ****       delete this;
 820              		.loc 2 42 0
 821 0044 01300FE3 		movw	r3, #61441
 822 0048 AD3E4DE3 		movt	r3, 57005
 823 004c 043080E5 		str	r3, [r0, #4]
  43:/home/zkmike/workspace/RZA2M/rza2m_2d_barcode_sample_freertos_gcc/src/zxing_lib/zxing/common/Counted.h ****     }
 824              		.loc 2 43 0
 825 0050 003090E5 		ldr	r3, [r0]
 826 0054 043093E5 		ldr	r3, [r3, #4]
 827 0058 33FF2FE1 		blx	r3
 828              	.LVL71:
 829 005c F3FFFFEA 		b	.L49
 830              	.L53:
 831              		.align	2
 832              	.L52:
 833 0060 08000000 		.word	_ZTVN5zxing8ArrayRefIcEE+8
 834              	.LBE359:
 835              	.LBE360:
 836              	.LBE361:
 837              	.LBE362:
 838              		.cfi_endproc
 839              	.LFE2523:
 840              		.cantunwind
 841              		.fnend
 843              		.section	.text._ZN5zxing5aztec8DetectorD0Ev,"axG",%progbits,_ZN5zxing5aztec8DetectorD5Ev,comdat
 844              		.align	2
 845              		.weak	_ZN5zxing5aztec8DetectorD0Ev
 846              		.syntax unified
 847              		.arm
 848              		.fpu neon
 850              	_ZN5zxing5aztec8DetectorD0Ev:
 851              		.fnstart
 852              	.LFB2797:
 853              		.loc 5 52 0
 854              		.cfi_startproc
 855              		@ args = 0, pretend = 0, frame = 0
 856              		@ frame_needed = 0, uses_anonymous_args = 0
 857              	.LVL72:
 858 0000 10402DE9 		push	{r4, lr}
 859              		.cfi_def_cfa_offset 8
 860              		.cfi_offset 4, -8
 861              		.cfi_offset 14, -4
 862 0004 0040A0E1 		mov	r4, r0
 863              	.LVL73:
 864              	.LBB363:
 865              	.LBB364:
 866              		.loc 5 52 0
 867 0008 50309FE5 		ldr	r3, .L58
 868 000c 003080E5 		str	r3, [r0]
 869              	.LVL74:
 870              	.LBB365:
 871              	.LBB366:
  75:/home/zkmike/workspace/RZA2M/rza2m_2d_barcode_sample_freertos_gcc/src/zxing_lib/zxing/common/Counted.h ****       object_->release();
 872              		.loc 2 75 0
 873 0010 080090E5 		ldr	r0, [r0, #8]
 874              	.LVL75:
 875 0014 000050E3 		cmp	r0, #0
 876 0018 0400000A 		beq	.L55
 877              	.LVL76:
 878              	.LBB367:
 879              	.LBB368:
  40:/home/zkmike/workspace/RZA2M/rza2m_2d_barcode_sample_freertos_gcc/src/zxing_lib/zxing/common/Counted.h ****     if (count_ == 0) {
 880              		.loc 2 40 0
 881 001c 043090E5 		ldr	r3, [r0, #4]
 882 0020 013043E2 		sub	r3, r3, #1
 883 0024 043080E5 		str	r3, [r0, #4]
  41:/home/zkmike/workspace/RZA2M/rza2m_2d_barcode_sample_freertos_gcc/src/zxing_lib/zxing/common/Counted.h ****       count_ = 0xDEADF001;
 884              		.loc 2 41 0
 885 0028 000053E3 		cmp	r3, #0
 886 002c 0400000A 		beq	.L57
 887              	.LVL77:
 888              	.L55:
 889              	.LBE368:
 890              	.LBE367:
 891              	.LBE366:
 892              	.LBE365:
 893              	.LBE364:
 894              	.LBE363:
 895              		.loc 5 52 0
 896 0030 2010A0E3 		mov	r1, #32
 897 0034 0400A0E1 		mov	r0, r4
 898 0038 FEFFFFEB 		bl	_ZdlPvj
 899              	.LVL78:
 900 003c 0400A0E1 		mov	r0, r4
 901 0040 1080BDE8 		pop	{r4, pc}
 902              	.LVL79:
 903              	.L57:
 904              	.LBB374:
 905              	.LBB373:
 906              	.LBB372:
 907              	.LBB371:
 908              	.LBB370:
 909              	.LBB369:
  42:/home/zkmike/workspace/RZA2M/rza2m_2d_barcode_sample_freertos_gcc/src/zxing_lib/zxing/common/Counted.h ****       delete this;
 910              		.loc 2 42 0
 911 0044 01300FE3 		movw	r3, #61441
 912 0048 AD3E4DE3 		movt	r3, 57005
 913 004c 043080E5 		str	r3, [r0, #4]
  43:/home/zkmike/workspace/RZA2M/rza2m_2d_barcode_sample_freertos_gcc/src/zxing_lib/zxing/common/Counted.h ****     }
 914              		.loc 2 43 0
 915 0050 003090E5 		ldr	r3, [r0]
 916 0054 043093E5 		ldr	r3, [r3, #4]
 917 0058 33FF2FE1 		blx	r3
 918              	.LVL80:
 919 005c F3FFFFEA 		b	.L55
 920              	.L59:
 921              		.align	2
 922              	.L58:
 923 0060 08000000 		.word	_ZTVN5zxing5aztec8DetectorE+8
 924              	.LBE369:
 925              	.LBE370:
 926              	.LBE371:
 927              	.LBE372:
 928              	.LBE373:
 929              	.LBE374:
 930              		.cfi_endproc
 931              	.LFE2797:
 932              		.cantunwind
 933              		.fnend
 935              		.section	.text._ZN5zxing5aztec11AztecReaderD0Ev,"ax",%progbits
 936              		.align	2
 937              		.global	_ZN5zxing5aztec11AztecReaderD0Ev
 938              		.syntax unified
 939              		.arm
 940              		.fpu neon
 942              	_ZN5zxing5aztec11AztecReaderD0Ev:
 943              		.fnstart
 944              	.LFB2267:
  62:../src/zxing_lib/zxing/aztec/AztecReader.cpp ****   // nothing
 945              		.loc 3 62 0
 946              		.cfi_startproc
 947              		@ args = 0, pretend = 0, frame = 0
 948              		@ frame_needed = 0, uses_anonymous_args = 0
 949              	.LVL81:
 950 0000 10402DE9 		push	{r4, lr}
 951              		.cfi_def_cfa_offset 8
 952              		.cfi_offset 4, -8
 953              		.cfi_offset 14, -4
 954 0004 0040A0E1 		mov	r4, r0
 955              		.loc 3 64 0
 956 0008 FEFFFFEB 		bl	_ZN5zxing5aztec11AztecReaderD1Ev
 957              	.LVL82:
 958 000c 2010A0E3 		mov	r1, #32
 959 0010 0400A0E1 		mov	r0, r4
 960 0014 FEFFFFEB 		bl	_ZdlPvj
 961              	.LVL83:
 962 0018 0400A0E1 		mov	r0, r4
 963 001c 1080BDE8 		pop	{r4, pc}
 964              		.cfi_endproc
 965              	.LFE2267:
 966              		.cantunwind
 967              		.fnend
 969              		.section	.text._ZN5zxing5aztec7DecoderD0Ev,"axG",%progbits,_ZN5zxing5aztec7DecoderD5Ev,comdat
 970              		.align	2
 971              		.weak	_ZN5zxing5aztec7DecoderD0Ev
 972              		.syntax unified
 973              		.arm
 974              		.fpu neon
 976              	_ZN5zxing5aztec7DecoderD0Ev:
 977              		.fnstart
 978              	.LFB2793:
 979              		.loc 4 35 0
 980              		.cfi_startproc
 981              		@ args = 0, pretend = 0, frame = 0
 982              		@ frame_needed = 0, uses_anonymous_args = 0
 983              	.LVL84:
 984 0000 10402DE9 		push	{r4, lr}
 985              		.cfi_def_cfa_offset 8
 986              		.cfi_offset 4, -8
 987              		.cfi_offset 14, -4
 988 0004 0040A0E1 		mov	r4, r0
 989              	.LVL85:
 990              	.LBB375:
 991              	.LBB376:
 992              		.loc 4 35 0
 993 0008 50309FE5 		ldr	r3, .L66
 994 000c 003080E5 		str	r3, [r0]
 995              	.LVL86:
 996              	.LBB377:
 997              	.LBB378:
  75:/home/zkmike/workspace/RZA2M/rza2m_2d_barcode_sample_freertos_gcc/src/zxing_lib/zxing/common/Counted.h ****       object_->release();
 998              		.loc 2 75 0
 999 0010 100090E5 		ldr	r0, [r0, #16]
 1000              	.LVL87:
 1001 0014 000050E3 		cmp	r0, #0
 1002 0018 0400000A 		beq	.L63
 1003              	.LVL88:
 1004              	.LBB379:
 1005              	.LBB380:
  40:/home/zkmike/workspace/RZA2M/rza2m_2d_barcode_sample_freertos_gcc/src/zxing_lib/zxing/common/Counted.h ****     if (count_ == 0) {
 1006              		.loc 2 40 0
 1007 001c 043090E5 		ldr	r3, [r0, #4]
 1008 0020 013043E2 		sub	r3, r3, #1
 1009 0024 043080E5 		str	r3, [r0, #4]
  41:/home/zkmike/workspace/RZA2M/rza2m_2d_barcode_sample_freertos_gcc/src/zxing_lib/zxing/common/Counted.h ****       count_ = 0xDEADF001;
 1010              		.loc 2 41 0
 1011 0028 000053E3 		cmp	r3, #0
 1012 002c 0400000A 		beq	.L65
 1013              	.LVL89:
 1014              	.L63:
 1015              	.LBE380:
 1016              	.LBE379:
 1017              	.LBE378:
 1018              	.LBE377:
 1019              	.LBE376:
 1020              	.LBE375:
 1021              		.loc 4 35 0
 1022 0030 1810A0E3 		mov	r1, #24
 1023 0034 0400A0E1 		mov	r0, r4
 1024 0038 FEFFFFEB 		bl	_ZdlPvj
 1025              	.LVL90:
 1026 003c 0400A0E1 		mov	r0, r4
 1027 0040 1080BDE8 		pop	{r4, pc}
 1028              	.LVL91:
 1029              	.L65:
 1030              	.LBB386:
 1031              	.LBB385:
 1032              	.LBB384:
 1033              	.LBB383:
 1034              	.LBB382:
 1035              	.LBB381:
  42:/home/zkmike/workspace/RZA2M/rza2m_2d_barcode_sample_freertos_gcc/src/zxing_lib/zxing/common/Counted.h ****       delete this;
 1036              		.loc 2 42 0
 1037 0044 01300FE3 		movw	r3, #61441
 1038 0048 AD3E4DE3 		movt	r3, 57005
 1039 004c 043080E5 		str	r3, [r0, #4]
  43:/home/zkmike/workspace/RZA2M/rza2m_2d_barcode_sample_freertos_gcc/src/zxing_lib/zxing/common/Counted.h ****     }
 1040              		.loc 2 43 0
 1041 0050 003090E5 		ldr	r3, [r0]
 1042 0054 043093E5 		ldr	r3, [r3, #4]
 1043 0058 33FF2FE1 		blx	r3
 1044              	.LVL92:
 1045 005c F3FFFFEA 		b	.L63
 1046              	.L67:
 1047              		.align	2
 1048              	.L66:
 1049 0060 08000000 		.word	_ZTVN5zxing5aztec7DecoderE+8
 1050              	.LBE381:
 1051              	.LBE382:
 1052              	.LBE383:
 1053              	.LBE384:
 1054              	.LBE385:
 1055              	.LBE386:
 1056              		.cfi_endproc
 1057              	.LFE2793:
 1058              		.cantunwind
 1059              		.fnend
 1061              		.section	.text._ZN5zxing5aztec11AztecReader6decodeENS_3RefINS_12BinaryBitmapEEE,"ax",%progbits
 1062              		.align	2
 1063              		.global	_ZN5zxing5aztec11AztecReader6decodeENS_3RefINS_12BinaryBitmapEEE
 1064              		.syntax unified
 1065              		.arm
 1066              		.fpu neon
 1068              	_ZN5zxing5aztec11AztecReader6decodeENS_3RefINS_12BinaryBitmapEEE:
 1069              		.fnstart
 1070              	.LFB2262:
  40:../src/zxing_lib/zxing/aztec/AztecReader.cpp ****   Detector detector(image->getBlackMatrix());
 1071              		.loc 3 40 0
 1072              		.cfi_startproc
 1073              		.cfi_personality 0,__gxx_personality_v0
 1074              		.cfi_lsda 0,.LLSDA2262
 1075              		@ args = 0, pretend = 0, frame = 88
 1076              		@ frame_needed = 0, uses_anonymous_args = 0
 1077              	.LVL93:
 1078 0000 70402DE9 		push	{r4, r5, r6, lr}
 1079              		.save {r4, r5, r6, lr}
 1080              		.cfi_def_cfa_offset 16
 1081              		.cfi_offset 4, -16
 1082              		.cfi_offset 5, -12
 1083              		.cfi_offset 6, -8
 1084              		.cfi_offset 14, -4
 1085              		.pad #96
 1086 0004 60D04DE2 		sub	sp, sp, #96
 1087              		.cfi_def_cfa_offset 112
 1088 0008 0040A0E1 		mov	r4, r0
 1089 000c 0160A0E1 		mov	r6, r1
  41:../src/zxing_lib/zxing/aztec/AztecReader.cpp ****             
 1090              		.loc 3 41 0
 1091 0010 001092E5 		ldr	r1, [r2]
 1092              	.LVL94:
 1093 0014 3C008DE2 		add	r0, sp, #60
 1094              	.LVL95:
 1095              	.LEHB2:
 1096 0018 FEFFFFEB 		bl	_ZN5zxing12BinaryBitmap14getBlackMatrixEv
 1097              	.LVL96:
 1098              	.LEHE2:
 1099 001c 3C108DE2 		add	r1, sp, #60
 1100 0020 1C008DE2 		add	r0, sp, #28
 1101              	.LEHB3:
 1102 0024 FEFFFFEB 		bl	_ZN5zxing5aztec8DetectorC1ENS_3RefINS_9BitMatrixEEE
 1103              	.LVL97:
 1104              	.LEHE3:
 1105              	.LBB511:
 1106              	.LBB512:
  75:/home/zkmike/workspace/RZA2M/rza2m_2d_barcode_sample_freertos_gcc/src/zxing_lib/zxing/common/Counted.h ****       object_->release();
 1107              		.loc 2 75 0
 1108 0028 3C009DE5 		ldr	r0, [sp, #60]
 1109 002c 000050E3 		cmp	r0, #0
 1110 0030 0400000A 		beq	.L69
 1111              	.LVL98:
 1112              	.LBB513:
 1113              	.LBB514:
  40:/home/zkmike/workspace/RZA2M/rza2m_2d_barcode_sample_freertos_gcc/src/zxing_lib/zxing/common/Counted.h ****     if (count_ == 0) {
 1114              		.loc 2 40 0
 1115 0034 043090E5 		ldr	r3, [r0, #4]
 1116 0038 013043E2 		sub	r3, r3, #1
 1117 003c 043080E5 		str	r3, [r0, #4]
  41:/home/zkmike/workspace/RZA2M/rza2m_2d_barcode_sample_freertos_gcc/src/zxing_lib/zxing/common/Counted.h ****       count_ = 0xDEADF001;
 1118              		.loc 2 41 0
 1119 0040 000053E3 		cmp	r3, #0
 1120 0044 0300000A 		beq	.L111
 1121              	.LVL99:
 1122              	.L69:
 1123              	.LBE514:
 1124              	.LBE513:
 1125              	.LBE512:
 1126              	.LBE511:
  43:../src/zxing_lib/zxing/aztec/AztecReader.cpp ****             
 1127              		.loc 3 43 0
 1128 0048 1C108DE2 		add	r1, sp, #28
 1129 004c 18008DE2 		add	r0, sp, #24
 1130              	.LEHB4:
 1131 0050 FEFFFFEB 		bl	_ZN5zxing5aztec8Detector6detectEv
 1132              	.LVL100:
 1133              	.LEHE4:
 1134 0054 060000EA 		b	.L112
 1135              	.LVL101:
 1136              	.L111:
 1137              	.LBB518:
 1138              	.LBB517:
 1139              	.LBB516:
 1140              	.LBB515:
  42:/home/zkmike/workspace/RZA2M/rza2m_2d_barcode_sample_freertos_gcc/src/zxing_lib/zxing/common/Counted.h ****       delete this;
 1141              		.loc 2 42 0
 1142 0058 01300FE3 		movw	r3, #61441
 1143 005c AD3E4DE3 		movt	r3, 57005
 1144 0060 043080E5 		str	r3, [r0, #4]
  43:/home/zkmike/workspace/RZA2M/rza2m_2d_barcode_sample_freertos_gcc/src/zxing_lib/zxing/common/Counted.h ****     }
 1145              		.loc 2 43 0
 1146 0064 003090E5 		ldr	r3, [r0]
 1147 0068 043093E5 		ldr	r3, [r3, #4]
 1148 006c 33FF2FE1 		blx	r3
 1149              	.LVL102:
 1150 0070 F4FFFFEA 		b	.L69
 1151              	.LVL103:
 1152              	.L112:
 1153              	.LBE515:
 1154              	.LBE516:
 1155              	.LBE517:
 1156              	.LBE518:
  45:../src/zxing_lib/zxing/aztec/AztecReader.cpp ****             
 1157              		.loc 3 45 0
 1158 0074 18109DE5 		ldr	r1, [sp, #24]
 1159 0078 0C008DE2 		add	r0, sp, #12
 1160              	.LEHB5:
 1161 007c FEFFFFEB 		bl	_ZN5zxing14DetectorResult9getPointsEv
 1162              	.LVL104:
 1163              	.LEHE5:
  47:../src/zxing_lib/zxing/aztec/AztecReader.cpp ****             
 1164              		.loc 3 47 0
 1165 0080 086086E2 		add	r6, r6, #8
 1166              	.LVL105:
 1167              	.LBB519:
 1168              	.LBB520:
 1169              	.LBB521:
  64:/home/zkmike/workspace/RZA2M/rza2m_2d_barcode_sample_freertos_gcc/src/zxing_lib/zxing/common/Counted.h ****     reset(other.object_);
 1170              		.loc 2 64 0
 1171 0084 0030A0E3 		mov	r3, #0
 1172 0088 40308DE5 		str	r3, [sp, #64]
  65:/home/zkmike/workspace/RZA2M/rza2m_2d_barcode_sample_freertos_gcc/src/zxing_lib/zxing/common/Counted.h ****   }
 1173              		.loc 2 65 0
 1174 008c 18509DE5 		ldr	r5, [sp, #24]
 1175              	.LVL106:
 1176              	.LBB522:
 1177              	.LBB523:
  81:/home/zkmike/workspace/RZA2M/rza2m_2d_barcode_sample_freertos_gcc/src/zxing_lib/zxing/common/Counted.h ****       o->retain();
 1178              		.loc 2 81 0
 1179 0090 030055E1 		cmp	r5, r3
 1180              	.LVL107:
 1181              	.LBB524:
 1182              	.LBB525:
  36:/home/zkmike/workspace/RZA2M/rza2m_2d_barcode_sample_freertos_gcc/src/zxing_lib/zxing/common/Counted.h ****     return this;
 1183              		.loc 2 36 0
 1184 0094 04309515 		ldrne	r3, [r5, #4]
 1185 0098 01308312 		addne	r3, r3, #1
 1186 009c 04308515 		strne	r3, [r5, #4]
 1187              	.LVL108:
 1188              	.L70:
 1189              	.LBE525:
 1190              	.LBE524:
  84:/home/zkmike/workspace/RZA2M/rza2m_2d_barcode_sample_freertos_gcc/src/zxing_lib/zxing/common/Counted.h ****       object_->release();
 1191              		.loc 2 84 0
 1192 00a0 40009DE5 		ldr	r0, [sp, #64]
 1193 00a4 000050E3 		cmp	r0, #0
 1194 00a8 0400000A 		beq	.L71
 1195              	.LVL109:
 1196              	.LBB526:
 1197              	.LBB527:
  40:/home/zkmike/workspace/RZA2M/rza2m_2d_barcode_sample_freertos_gcc/src/zxing_lib/zxing/common/Counted.h ****     if (count_ == 0) {
 1198              		.loc 2 40 0
 1199 00ac 043090E5 		ldr	r3, [r0, #4]
 1200 00b0 013043E2 		sub	r3, r3, #1
 1201 00b4 043080E5 		str	r3, [r0, #4]
  41:/home/zkmike/workspace/RZA2M/rza2m_2d_barcode_sample_freertos_gcc/src/zxing_lib/zxing/common/Counted.h ****       count_ = 0xDEADF001;
 1202              		.loc 2 41 0
 1203 00b8 000053E3 		cmp	r3, #0
 1204 00bc 0500000A 		beq	.L113
 1205              	.LVL110:
 1206              	.L71:
 1207              	.LBE527:
 1208              	.LBE526:
 1209              		.loc 2 87 0
 1210 00c0 40508DE5 		str	r5, [sp, #64]
 1211              	.LVL111:
 1212              	.LBE523:
 1213              	.LBE522:
 1214              	.LBE521:
 1215              	.LBE520:
 1216              	.LBE519:
  47:../src/zxing_lib/zxing/aztec/AztecReader.cpp ****             
 1217              		.loc 3 47 0
 1218 00c4 40208DE2 		add	r2, sp, #64
 1219 00c8 0610A0E1 		mov	r1, r6
 1220 00cc 08008DE2 		add	r0, sp, #8
 1221              	.LEHB6:
 1222 00d0 FEFFFFEB 		bl	_ZN5zxing5aztec7Decoder6decodeENS_3RefINS0_19AztecDetectorResultEEE
 1223              	.LVL112:
 1224              	.LEHE6:
 1225 00d4 060000EA 		b	.L114
 1226              	.LVL113:
 1227              	.L113:
 1228              	.LBB534:
 1229              	.LBB533:
 1230              	.LBB532:
 1231              	.LBB531:
 1232              	.LBB530:
 1233              	.LBB529:
 1234              	.LBB528:
  42:/home/zkmike/workspace/RZA2M/rza2m_2d_barcode_sample_freertos_gcc/src/zxing_lib/zxing/common/Counted.h ****       delete this;
 1235              		.loc 2 42 0
 1236 00d8 01300FE3 		movw	r3, #61441
 1237 00dc AD3E4DE3 		movt	r3, 57005
 1238 00e0 043080E5 		str	r3, [r0, #4]
  43:/home/zkmike/workspace/RZA2M/rza2m_2d_barcode_sample_freertos_gcc/src/zxing_lib/zxing/common/Counted.h ****     }
 1239              		.loc 2 43 0
 1240 00e4 003090E5 		ldr	r3, [r0]
 1241 00e8 043093E5 		ldr	r3, [r3, #4]
 1242 00ec 33FF2FE1 		blx	r3
 1243              	.LVL114:
 1244 00f0 F2FFFFEA 		b	.L71
 1245              	.LVL115:
 1246              	.L114:
 1247              	.LBE528:
 1248              	.LBE529:
 1249              	.LBE530:
 1250              	.LBE531:
 1251              	.LBE532:
 1252              	.LBE533:
 1253              	.LBE534:
 1254              	.LBB535:
 1255              	.LBB536:
  75:/home/zkmike/workspace/RZA2M/rza2m_2d_barcode_sample_freertos_gcc/src/zxing_lib/zxing/common/Counted.h ****       object_->release();
 1256              		.loc 2 75 0
 1257 00f4 40009DE5 		ldr	r0, [sp, #64]
 1258 00f8 000050E3 		cmp	r0, #0
 1259 00fc 0400000A 		beq	.L72
 1260              	.LVL116:
 1261              	.LBB537:
 1262              	.LBB538:
  40:/home/zkmike/workspace/RZA2M/rza2m_2d_barcode_sample_freertos_gcc/src/zxing_lib/zxing/common/Counted.h ****     if (count_ == 0) {
 1263              		.loc 2 40 0
 1264 0100 043090E5 		ldr	r3, [r0, #4]
 1265 0104 013043E2 		sub	r3, r3, #1
 1266 0108 043080E5 		str	r3, [r0, #4]
  41:/home/zkmike/workspace/RZA2M/rza2m_2d_barcode_sample_freertos_gcc/src/zxing_lib/zxing/common/Counted.h ****       count_ = 0xDEADF001;
 1267              		.loc 2 41 0
 1268 010c 000053E3 		cmp	r3, #0
 1269 0110 0300000A 		beq	.L115
 1270              	.LVL117:
 1271              	.L72:
 1272              	.LBE538:
 1273              	.LBE537:
 1274              	.LBE536:
 1275              	.LBE535:
  49:../src/zxing_lib/zxing/aztec/AztecReader.cpp ****                                 decoderResult->getRawBytes(),
 1276              		.loc 3 49 0
 1277 0114 08109DE5 		ldr	r1, [sp, #8]
 1278 0118 44008DE2 		add	r0, sp, #68
 1279              	.LEHB7:
 1280 011c FEFFFFEB 		bl	_ZN5zxing13DecoderResult7getTextEv
 1281              	.LVL118:
 1282              	.LEHE7:
 1283 0120 060000EA 		b	.L116
 1284              	.LVL119:
 1285              	.L115:
 1286              	.LBB542:
 1287              	.LBB541:
 1288              	.LBB540:
 1289              	.LBB539:
  42:/home/zkmike/workspace/RZA2M/rza2m_2d_barcode_sample_freertos_gcc/src/zxing_lib/zxing/common/Counted.h ****       delete this;
 1290              		.loc 2 42 0
 1291 0124 01300FE3 		movw	r3, #61441
 1292 0128 AD3E4DE3 		movt	r3, 57005
 1293 012c 043080E5 		str	r3, [r0, #4]
  43:/home/zkmike/workspace/RZA2M/rza2m_2d_barcode_sample_freertos_gcc/src/zxing_lib/zxing/common/Counted.h ****     }
 1294              		.loc 2 43 0
 1295 0130 003090E5 		ldr	r3, [r0]
 1296 0134 043093E5 		ldr	r3, [r3, #4]
 1297 0138 33FF2FE1 		blx	r3
 1298              	.LVL120:
 1299 013c F4FFFFEA 		b	.L72
 1300              	.LVL121:
 1301              	.L116:
 1302              	.LBE539:
 1303              	.LBE540:
 1304              	.LBE541:
 1305              	.LBE542:
  50:../src/zxing_lib/zxing/aztec/AztecReader.cpp ****                                 points,
 1306              		.loc 3 50 0
 1307 0140 08109DE5 		ldr	r1, [sp, #8]
 1308 0144 48008DE2 		add	r0, sp, #72
 1309              	.LEHB8:
 1310 0148 FEFFFFEB 		bl	_ZN5zxing13DecoderResult11getRawBytesEv
 1311              	.LVL122:
 1312              	.LEHE8:
 1313              	.LBB543:
 1314              	.LBB544:
 1315              	.LBB545:
 1316              	.LBB546:
 1317              	.LBB547:
 1318              	.LBB548:
  31:/home/zkmike/workspace/RZA2M/rza2m_2d_barcode_sample_freertos_gcc/src/zxing_lib/zxing/common/Counted.h ****   }
 1319              		.loc 2 31 0
 1320 014c 0030A0E3 		mov	r3, #0
 1321 0150 58308DE5 		str	r3, [sp, #88]
 1322              	.LVL123:
 1323              	.LBE548:
 1324              	.LBE547:
 1325              	.LBE546:
 106:/home/zkmike/workspace/RZA2M/rza2m_2d_barcode_sample_freertos_gcc/src/zxing_lib/zxing/common/Array.h ****     reset(other.array_);
 1326              		.loc 1 106 0
 1327 0154 EC249FE5 		ldr	r2, .L127
 1328 0158 54208DE5 		str	r2, [sp, #84]
 1329 015c 5C308DE5 		str	r3, [sp, #92]
 107:/home/zkmike/workspace/RZA2M/rza2m_2d_barcode_sample_freertos_gcc/src/zxing_lib/zxing/common/Array.h ****   }
 1330              		.loc 1 107 0
 1331 0160 14509DE5 		ldr	r5, [sp, #20]
 1332              	.LVL124:
 1333              	.LBB549:
 1334              	.LBB550:
 122:/home/zkmike/workspace/RZA2M/rza2m_2d_barcode_sample_freertos_gcc/src/zxing_lib/zxing/common/Array.h **** 
 123:/home/zkmike/workspace/RZA2M/rza2m_2d_barcode_sample_freertos_gcc/src/zxing_lib/zxing/common/Array.h ****   T const& operator[](int i) const {
 124:/home/zkmike/workspace/RZA2M/rza2m_2d_barcode_sample_freertos_gcc/src/zxing_lib/zxing/common/Array.h ****     return (*array_)[i];
 125:/home/zkmike/workspace/RZA2M/rza2m_2d_barcode_sample_freertos_gcc/src/zxing_lib/zxing/common/Array.h ****   }
 126:/home/zkmike/workspace/RZA2M/rza2m_2d_barcode_sample_freertos_gcc/src/zxing_lib/zxing/common/Array.h **** 
 127:/home/zkmike/workspace/RZA2M/rza2m_2d_barcode_sample_freertos_gcc/src/zxing_lib/zxing/common/Array.h ****   T& operator[](int i) {
 128:/home/zkmike/workspace/RZA2M/rza2m_2d_barcode_sample_freertos_gcc/src/zxing_lib/zxing/common/Array.h ****     return (*array_)[i];
 129:/home/zkmike/workspace/RZA2M/rza2m_2d_barcode_sample_freertos_gcc/src/zxing_lib/zxing/common/Array.h ****   }
 130:/home/zkmike/workspace/RZA2M/rza2m_2d_barcode_sample_freertos_gcc/src/zxing_lib/zxing/common/Array.h **** 
 131:/home/zkmike/workspace/RZA2M/rza2m_2d_barcode_sample_freertos_gcc/src/zxing_lib/zxing/common/Array.h ****   void reset(Array<T> *a) {
 132:/home/zkmike/workspace/RZA2M/rza2m_2d_barcode_sample_freertos_gcc/src/zxing_lib/zxing/common/Array.h ****     if (a) {
 1335              		.loc 1 132 0
 1336 0164 030055E1 		cmp	r5, r3
 1337              	.LVL125:
 1338              	.LBB551:
 1339              	.LBB552:
  36:/home/zkmike/workspace/RZA2M/rza2m_2d_barcode_sample_freertos_gcc/src/zxing_lib/zxing/common/Counted.h ****     return this;
 1340              		.loc 2 36 0
 1341 0168 04309515 		ldrne	r3, [r5, #4]
 1342 016c 01308312 		addne	r3, r3, #1
 1343 0170 04308515 		strne	r3, [r5, #4]
 1344              	.LVL126:
 1345              	.L73:
 1346              	.LBE552:
 1347              	.LBE551:
 133:/home/zkmike/workspace/RZA2M/rza2m_2d_barcode_sample_freertos_gcc/src/zxing_lib/zxing/common/Array.h ****       a->retain();
 134:/home/zkmike/workspace/RZA2M/rza2m_2d_barcode_sample_freertos_gcc/src/zxing_lib/zxing/common/Array.h ****     }
 135:/home/zkmike/workspace/RZA2M/rza2m_2d_barcode_sample_freertos_gcc/src/zxing_lib/zxing/common/Array.h ****     if (array_) {
 1348              		.loc 1 135 0
 1349 0174 5C009DE5 		ldr	r0, [sp, #92]
 1350 0178 000050E3 		cmp	r0, #0
 1351 017c 0400000A 		beq	.L74
 1352              	.LVL127:
 1353              	.LBB553:
 1354              	.LBB554:
  40:/home/zkmike/workspace/RZA2M/rza2m_2d_barcode_sample_freertos_gcc/src/zxing_lib/zxing/common/Counted.h ****     if (count_ == 0) {
 1355              		.loc 2 40 0
 1356 0180 043090E5 		ldr	r3, [r0, #4]
 1357 0184 013043E2 		sub	r3, r3, #1
 1358 0188 043080E5 		str	r3, [r0, #4]
  41:/home/zkmike/workspace/RZA2M/rza2m_2d_barcode_sample_freertos_gcc/src/zxing_lib/zxing/common/Counted.h ****       count_ = 0xDEADF001;
 1359              		.loc 2 41 0
 1360 018c 000053E3 		cmp	r3, #0
 1361 0190 0300000A 		beq	.L117
 1362              	.LVL128:
 1363              	.L74:
 1364              	.LBE554:
 1365              	.LBE553:
 136:/home/zkmike/workspace/RZA2M/rza2m_2d_barcode_sample_freertos_gcc/src/zxing_lib/zxing/common/Array.h ****       array_->release();
 137:/home/zkmike/workspace/RZA2M/rza2m_2d_barcode_sample_freertos_gcc/src/zxing_lib/zxing/common/Array.h ****     }
 138:/home/zkmike/workspace/RZA2M/rza2m_2d_barcode_sample_freertos_gcc/src/zxing_lib/zxing/common/Array.h ****     array_ = a;
 1366              		.loc 1 138 0
 1367 0194 5C508DE5 		str	r5, [sp, #92]
 1368              	.LVL129:
 1369              	.LBE550:
 1370              	.LBE549:
 1371              	.LBE545:
 1372              	.LBE544:
 1373              	.LBE543:
  52:../src/zxing_lib/zxing/aztec/AztecReader.cpp ****             
 1374              		.loc 3 52 0
 1375 0198 2800A0E3 		mov	r0, #40
 1376              	.LEHB9:
 1377 019c FEFFFFEB 		bl	_Znwj
 1378              	.LVL130:
 1379              	.LEHE9:
 1380 01a0 060000EA 		b	.L118
 1381              	.LVL131:
 1382              	.L117:
 1383              	.LBB561:
 1384              	.LBB560:
 1385              	.LBB559:
 1386              	.LBB558:
 1387              	.LBB557:
 1388              	.LBB556:
 1389              	.LBB555:
  42:/home/zkmike/workspace/RZA2M/rza2m_2d_barcode_sample_freertos_gcc/src/zxing_lib/zxing/common/Counted.h ****       delete this;
 1390              		.loc 2 42 0
 1391 01a4 01300FE3 		movw	r3, #61441
 1392 01a8 AD3E4DE3 		movt	r3, 57005
 1393 01ac 043080E5 		str	r3, [r0, #4]
  43:/home/zkmike/workspace/RZA2M/rza2m_2d_barcode_sample_freertos_gcc/src/zxing_lib/zxing/common/Counted.h ****     }
 1394              		.loc 2 43 0
 1395 01b0 003090E5 		ldr	r3, [r0]
 1396 01b4 043093E5 		ldr	r3, [r3, #4]
 1397 01b8 33FF2FE1 		blx	r3
 1398              	.LVL132:
 1399 01bc F4FFFFEA 		b	.L74
 1400              	.LVL133:
 1401              	.L118:
 1402              	.LBE555:
 1403              	.LBE556:
 1404              	.LBE557:
 1405              	.LBE558:
 1406              	.LBE559:
 1407              	.LBE560:
 1408              	.LBE561:
  52:../src/zxing_lib/zxing/aztec/AztecReader.cpp ****             
 1409              		.loc 3 52 0
 1410 01c0 0050A0E1 		mov	r5, r0
 1411 01c4 0130A0E3 		mov	r3, #1
 1412 01c8 0030CDE5 		strb	r3, [sp]
 1413 01cc 54308DE2 		add	r3, sp, #84
 1414 01d0 48208DE2 		add	r2, sp, #72
 1415 01d4 44108DE2 		add	r1, sp, #68
 1416              	.LEHB10:
 1417 01d8 FEFFFFEB 		bl	_ZN5zxing6ResultC1ENS_3RefINS_6StringEEENS_8ArrayRefIcEENS4_INS1_INS_11ResultPointEEEEENS_13Bar
 1418              	.LVL134:
 1419              	.LEHE10:
 1420              	.LBB562:
 1421              	.LBB563:
  60:/home/zkmike/workspace/RZA2M/rza2m_2d_barcode_sample_freertos_gcc/src/zxing_lib/zxing/common/Counted.h ****     reset(o);
 1422              		.loc 2 60 0
 1423 01dc 0030A0E3 		mov	r3, #0
 1424 01e0 003084E5 		str	r3, [r4]
 1425              	.LVL135:
 1426              	.LBB564:
 1427              	.LBB565:
  81:/home/zkmike/workspace/RZA2M/rza2m_2d_barcode_sample_freertos_gcc/src/zxing_lib/zxing/common/Counted.h ****       o->retain();
 1428              		.loc 2 81 0
 1429 01e4 030055E1 		cmp	r5, r3
 1430              	.LVL136:
 1431              	.LBB566:
 1432              	.LBB567:
  36:/home/zkmike/workspace/RZA2M/rza2m_2d_barcode_sample_freertos_gcc/src/zxing_lib/zxing/common/Counted.h ****     return this;
 1433              		.loc 2 36 0
 1434 01e8 04309515 		ldrne	r3, [r5, #4]
 1435 01ec 01308312 		addne	r3, r3, #1
 1436 01f0 04308515 		strne	r3, [r5, #4]
 1437              	.LVL137:
 1438              	.L75:
 1439              	.LBE567:
 1440              	.LBE566:
  84:/home/zkmike/workspace/RZA2M/rza2m_2d_barcode_sample_freertos_gcc/src/zxing_lib/zxing/common/Counted.h ****       object_->release();
 1441              		.loc 2 84 0
 1442 01f4 000094E5 		ldr	r0, [r4]
 1443 01f8 000050E3 		cmp	r0, #0
 1444 01fc 0400000A 		beq	.L76
 1445              	.LVL138:
 1446              	.LBB568:
 1447              	.LBB569:
  40:/home/zkmike/workspace/RZA2M/rza2m_2d_barcode_sample_freertos_gcc/src/zxing_lib/zxing/common/Counted.h ****     if (count_ == 0) {
 1448              		.loc 2 40 0
 1449 0200 043090E5 		ldr	r3, [r0, #4]
 1450 0204 013043E2 		sub	r3, r3, #1
 1451 0208 043080E5 		str	r3, [r0, #4]
  41:/home/zkmike/workspace/RZA2M/rza2m_2d_barcode_sample_freertos_gcc/src/zxing_lib/zxing/common/Counted.h ****       count_ = 0xDEADF001;
 1452              		.loc 2 41 0
 1453 020c 000053E3 		cmp	r3, #0
 1454 0210 4300000A 		beq	.L119
 1455              	.LVL139:
 1456              	.L76:
 1457              	.LBE569:
 1458              	.LBE568:
 1459              		.loc 2 87 0
 1460 0214 005084E5 		str	r5, [r4]
 1461              	.LVL140:
 1462              	.LBE565:
 1463              	.LBE564:
 1464              	.LBE563:
 1465              	.LBE562:
 1466              	.LBB575:
 1467              	.LBB576:
 121:/home/zkmike/workspace/RZA2M/rza2m_2d_barcode_sample_freertos_gcc/src/zxing_lib/zxing/common/Array.h **** 
 1468              		.loc 1 121 0
 1469 0218 28349FE5 		ldr	r3, .L127
 1470 021c 54308DE5 		str	r3, [sp, #84]
 117:/home/zkmike/workspace/RZA2M/rza2m_2d_barcode_sample_freertos_gcc/src/zxing_lib/zxing/common/Array.h ****       array_->release();
 1471              		.loc 1 117 0
 1472 0220 5C009DE5 		ldr	r0, [sp, #92]
 1473 0224 000050E3 		cmp	r0, #0
 1474 0228 0400000A 		beq	.L77
 1475              	.LVL141:
 1476              	.LBB577:
 1477              	.LBB578:
  40:/home/zkmike/workspace/RZA2M/rza2m_2d_barcode_sample_freertos_gcc/src/zxing_lib/zxing/common/Counted.h ****     if (count_ == 0) {
 1478              		.loc 2 40 0
 1479 022c 043090E5 		ldr	r3, [r0, #4]
 1480 0230 013043E2 		sub	r3, r3, #1
 1481 0234 043080E5 		str	r3, [r0, #4]
  41:/home/zkmike/workspace/RZA2M/rza2m_2d_barcode_sample_freertos_gcc/src/zxing_lib/zxing/common/Counted.h ****       count_ = 0xDEADF001;
 1482              		.loc 2 41 0
 1483 0238 000053E3 		cmp	r3, #0
 1484 023c 3F00000A 		beq	.L120
 1485              	.LVL142:
 1486              	.L77:
 1487              	.LBE578:
 1488              	.LBE577:
 1489              	.LBE576:
 1490              	.LBE575:
 1491              	.LBB582:
 1492              	.LBB583:
 121:/home/zkmike/workspace/RZA2M/rza2m_2d_barcode_sample_freertos_gcc/src/zxing_lib/zxing/common/Array.h **** 
 1493              		.loc 1 121 0
 1494 0240 04349FE5 		ldr	r3, .L127+4
 1495 0244 48308DE5 		str	r3, [sp, #72]
 117:/home/zkmike/workspace/RZA2M/rza2m_2d_barcode_sample_freertos_gcc/src/zxing_lib/zxing/common/Array.h ****       array_->release();
 1496              		.loc 1 117 0
 1497 0248 50009DE5 		ldr	r0, [sp, #80]
 1498 024c 000050E3 		cmp	r0, #0
 1499 0250 0400000A 		beq	.L78
 1500              	.LVL143:
 1501              	.LBB584:
 1502              	.LBB585:
  40:/home/zkmike/workspace/RZA2M/rza2m_2d_barcode_sample_freertos_gcc/src/zxing_lib/zxing/common/Counted.h ****     if (count_ == 0) {
 1503              		.loc 2 40 0
 1504 0254 043090E5 		ldr	r3, [r0, #4]
 1505 0258 013043E2 		sub	r3, r3, #1
 1506 025c 043080E5 		str	r3, [r0, #4]
  41:/home/zkmike/workspace/RZA2M/rza2m_2d_barcode_sample_freertos_gcc/src/zxing_lib/zxing/common/Counted.h ****       count_ = 0xDEADF001;
 1507              		.loc 2 41 0
 1508 0260 000053E3 		cmp	r3, #0
 1509 0264 3C00000A 		beq	.L121
 1510              	.LVL144:
 1511              	.L78:
 1512              	.LBE585:
 1513              	.LBE584:
 1514              	.LBE583:
 1515              	.LBE582:
 1516              	.LBB589:
 1517              	.LBB590:
  75:/home/zkmike/workspace/RZA2M/rza2m_2d_barcode_sample_freertos_gcc/src/zxing_lib/zxing/common/Counted.h ****       object_->release();
 1518              		.loc 2 75 0
 1519 0268 44009DE5 		ldr	r0, [sp, #68]
 1520 026c 000050E3 		cmp	r0, #0
 1521 0270 0400000A 		beq	.L79
 1522              	.LVL145:
 1523              	.LBB591:
 1524              	.LBB592:
  40:/home/zkmike/workspace/RZA2M/rza2m_2d_barcode_sample_freertos_gcc/src/zxing_lib/zxing/common/Counted.h ****     if (count_ == 0) {
 1525              		.loc 2 40 0
 1526 0274 043090E5 		ldr	r3, [r0, #4]
 1527 0278 013043E2 		sub	r3, r3, #1
 1528 027c 043080E5 		str	r3, [r0, #4]
  41:/home/zkmike/workspace/RZA2M/rza2m_2d_barcode_sample_freertos_gcc/src/zxing_lib/zxing/common/Counted.h ****       count_ = 0xDEADF001;
 1529              		.loc 2 41 0
 1530 0280 000053E3 		cmp	r3, #0
 1531 0284 3B00000A 		beq	.L122
 1532              	.LVL146:
 1533              	.L79:
 1534              	.LBE592:
 1535              	.LBE591:
 1536              	.LBE590:
 1537              	.LBE589:
 1538              	.LBB596:
 1539              	.LBB597:
  75:/home/zkmike/workspace/RZA2M/rza2m_2d_barcode_sample_freertos_gcc/src/zxing_lib/zxing/common/Counted.h ****       object_->release();
 1540              		.loc 2 75 0
 1541 0288 08009DE5 		ldr	r0, [sp, #8]
 1542 028c 000050E3 		cmp	r0, #0
 1543 0290 0400000A 		beq	.L80
 1544              	.LVL147:
 1545              	.LBB598:
 1546              	.LBB599:
  40:/home/zkmike/workspace/RZA2M/rza2m_2d_barcode_sample_freertos_gcc/src/zxing_lib/zxing/common/Counted.h ****     if (count_ == 0) {
 1547              		.loc 2 40 0
 1548 0294 043090E5 		ldr	r3, [r0, #4]
 1549 0298 013043E2 		sub	r3, r3, #1
 1550 029c 043080E5 		str	r3, [r0, #4]
  41:/home/zkmike/workspace/RZA2M/rza2m_2d_barcode_sample_freertos_gcc/src/zxing_lib/zxing/common/Counted.h ****       count_ = 0xDEADF001;
 1551              		.loc 2 41 0
 1552 02a0 000053E3 		cmp	r3, #0
 1553 02a4 3A00000A 		beq	.L123
 1554              	.LVL148:
 1555              	.L80:
 1556              	.LBE599:
 1557              	.LBE598:
 1558              	.LBE597:
 1559              	.LBE596:
 1560              	.LBB603:
 1561              	.LBB604:
 121:/home/zkmike/workspace/RZA2M/rza2m_2d_barcode_sample_freertos_gcc/src/zxing_lib/zxing/common/Array.h **** 
 1562              		.loc 1 121 0
 1563 02a8 98339FE5 		ldr	r3, .L127
 1564 02ac 0C308DE5 		str	r3, [sp, #12]
 117:/home/zkmike/workspace/RZA2M/rza2m_2d_barcode_sample_freertos_gcc/src/zxing_lib/zxing/common/Array.h ****       array_->release();
 1565              		.loc 1 117 0
 1566 02b0 14009DE5 		ldr	r0, [sp, #20]
 1567 02b4 000050E3 		cmp	r0, #0
 1568 02b8 0400000A 		beq	.L81
 1569              	.LVL149:
 1570              	.LBB605:
 1571              	.LBB606:
  40:/home/zkmike/workspace/RZA2M/rza2m_2d_barcode_sample_freertos_gcc/src/zxing_lib/zxing/common/Counted.h ****     if (count_ == 0) {
 1572              		.loc 2 40 0
 1573 02bc 043090E5 		ldr	r3, [r0, #4]
 1574 02c0 013043E2 		sub	r3, r3, #1
 1575 02c4 043080E5 		str	r3, [r0, #4]
  41:/home/zkmike/workspace/RZA2M/rza2m_2d_barcode_sample_freertos_gcc/src/zxing_lib/zxing/common/Counted.h ****       count_ = 0xDEADF001;
 1576              		.loc 2 41 0
 1577 02c8 000053E3 		cmp	r3, #0
 1578 02cc 3700000A 		beq	.L124
 1579              	.LVL150:
 1580              	.L81:
 1581              	.LBE606:
 1582              	.LBE605:
 1583              	.LBE604:
 1584              	.LBE603:
 1585              	.LBB610:
 1586              	.LBB611:
  75:/home/zkmike/workspace/RZA2M/rza2m_2d_barcode_sample_freertos_gcc/src/zxing_lib/zxing/common/Counted.h ****       object_->release();
 1587              		.loc 2 75 0
 1588 02d0 18009DE5 		ldr	r0, [sp, #24]
 1589 02d4 000050E3 		cmp	r0, #0
 1590 02d8 0400000A 		beq	.L82
 1591              	.LVL151:
 1592              	.LBB612:
 1593              	.LBB613:
  40:/home/zkmike/workspace/RZA2M/rza2m_2d_barcode_sample_freertos_gcc/src/zxing_lib/zxing/common/Counted.h ****     if (count_ == 0) {
 1594              		.loc 2 40 0
 1595 02dc 043090E5 		ldr	r3, [r0, #4]
 1596 02e0 013043E2 		sub	r3, r3, #1
 1597 02e4 043080E5 		str	r3, [r0, #4]
  41:/home/zkmike/workspace/RZA2M/rza2m_2d_barcode_sample_freertos_gcc/src/zxing_lib/zxing/common/Counted.h ****       count_ = 0xDEADF001;
 1598              		.loc 2 41 0
 1599 02e8 000053E3 		cmp	r3, #0
 1600 02ec 3600000A 		beq	.L125
 1601              	.LVL152:
 1602              	.L82:
 1603              	.LBE613:
 1604              	.LBE612:
 1605              	.LBE611:
 1606              	.LBE610:
 1607              	.LBB617:
 1608              	.LBB618:
 1609              		.loc 5 52 0
 1610 02f0 58339FE5 		ldr	r3, .L127+8
 1611 02f4 1C308DE5 		str	r3, [sp, #28]
 1612              	.LVL153:
 1613              	.LBB619:
 1614              	.LBB620:
  75:/home/zkmike/workspace/RZA2M/rza2m_2d_barcode_sample_freertos_gcc/src/zxing_lib/zxing/common/Counted.h ****       object_->release();
 1615              		.loc 2 75 0
 1616 02f8 24009DE5 		ldr	r0, [sp, #36]
 1617 02fc 000050E3 		cmp	r0, #0
 1618 0300 0400000A 		beq	.L68
 1619              	.LVL154:
 1620              	.LBB621:
 1621              	.LBB622:
  40:/home/zkmike/workspace/RZA2M/rza2m_2d_barcode_sample_freertos_gcc/src/zxing_lib/zxing/common/Counted.h ****     if (count_ == 0) {
 1622              		.loc 2 40 0
 1623 0304 043090E5 		ldr	r3, [r0, #4]
 1624 0308 013043E2 		sub	r3, r3, #1
 1625 030c 043080E5 		str	r3, [r0, #4]
  41:/home/zkmike/workspace/RZA2M/rza2m_2d_barcode_sample_freertos_gcc/src/zxing_lib/zxing/common/Counted.h ****       count_ = 0xDEADF001;
 1626              		.loc 2 41 0
 1627 0310 000053E3 		cmp	r3, #0
 1628 0314 3300000A 		beq	.L126
 1629              	.LVL155:
 1630              	.L68:
 1631              	.LBE622:
 1632              	.LBE621:
 1633              	.LBE620:
 1634              	.LBE619:
 1635              	.LBE618:
 1636              	.LBE617:
  55:../src/zxing_lib/zxing/aztec/AztecReader.cpp ****         
 1637              		.loc 3 55 0
 1638 0318 0400A0E1 		mov	r0, r4
 1639 031c 60D08DE2 		add	sp, sp, #96
 1640              		.cfi_remember_state
 1641              		.cfi_def_cfa_offset 16
 1642              		@ sp needed
 1643 0320 7080BDE8 		pop	{r4, r5, r6, pc}
 1644              	.LVL156:
 1645              	.L119:
 1646              		.cfi_restore_state
 1647              	.LBB628:
 1648              	.LBB574:
 1649              	.LBB573:
 1650              	.LBB572:
 1651              	.LBB571:
 1652              	.LBB570:
  42:/home/zkmike/workspace/RZA2M/rza2m_2d_barcode_sample_freertos_gcc/src/zxing_lib/zxing/common/Counted.h ****       delete this;
 1653              		.loc 2 42 0
 1654 0324 01300FE3 		movw	r3, #61441
 1655 0328 AD3E4DE3 		movt	r3, 57005
 1656 032c 043080E5 		str	r3, [r0, #4]
  43:/home/zkmike/workspace/RZA2M/rza2m_2d_barcode_sample_freertos_gcc/src/zxing_lib/zxing/common/Counted.h ****     }
 1657              		.loc 2 43 0
 1658 0330 003090E5 		ldr	r3, [r0]
 1659 0334 043093E5 		ldr	r3, [r3, #4]
 1660 0338 33FF2FE1 		blx	r3
 1661              	.LVL157:
 1662 033c B4FFFFEA 		b	.L76
 1663              	.LVL158:
 1664              	.L120:
 1665              	.LBE570:
 1666              	.LBE571:
 1667              	.LBE572:
 1668              	.LBE573:
 1669              	.LBE574:
 1670              	.LBE628:
 1671              	.LBB629:
 1672              	.LBB581:
 1673              	.LBB580:
 1674              	.LBB579:
  42:/home/zkmike/workspace/RZA2M/rza2m_2d_barcode_sample_freertos_gcc/src/zxing_lib/zxing/common/Counted.h ****       delete this;
 1675              		.loc 2 42 0
 1676 0340 01300FE3 		movw	r3, #61441
 1677 0344 AD3E4DE3 		movt	r3, 57005
 1678 0348 043080E5 		str	r3, [r0, #4]
  43:/home/zkmike/workspace/RZA2M/rza2m_2d_barcode_sample_freertos_gcc/src/zxing_lib/zxing/common/Counted.h ****     }
 1679              		.loc 2 43 0
 1680 034c 003090E5 		ldr	r3, [r0]
 1681 0350 043093E5 		ldr	r3, [r3, #4]
 1682 0354 33FF2FE1 		blx	r3
 1683              	.LVL159:
 1684 0358 B8FFFFEA 		b	.L77
 1685              	.LVL160:
 1686              	.L121:
 1687              	.LBE579:
 1688              	.LBE580:
 1689              	.LBE581:
 1690              	.LBE629:
 1691              	.LBB630:
 1692              	.LBB588:
 1693              	.LBB587:
 1694              	.LBB586:
  42:/home/zkmike/workspace/RZA2M/rza2m_2d_barcode_sample_freertos_gcc/src/zxing_lib/zxing/common/Counted.h ****       delete this;
 1695              		.loc 2 42 0
 1696 035c 01300FE3 		movw	r3, #61441
 1697 0360 AD3E4DE3 		movt	r3, 57005
 1698 0364 043080E5 		str	r3, [r0, #4]
  43:/home/zkmike/workspace/RZA2M/rza2m_2d_barcode_sample_freertos_gcc/src/zxing_lib/zxing/common/Counted.h ****     }
 1699              		.loc 2 43 0
 1700 0368 003090E5 		ldr	r3, [r0]
 1701 036c 043093E5 		ldr	r3, [r3, #4]
 1702 0370 33FF2FE1 		blx	r3
 1703              	.LVL161:
 1704 0374 BBFFFFEA 		b	.L78
 1705              	.LVL162:
 1706              	.L122:
 1707              	.LBE586:
 1708              	.LBE587:
 1709              	.LBE588:
 1710              	.LBE630:
 1711              	.LBB631:
 1712              	.LBB595:
 1713              	.LBB594:
 1714              	.LBB593:
  42:/home/zkmike/workspace/RZA2M/rza2m_2d_barcode_sample_freertos_gcc/src/zxing_lib/zxing/common/Counted.h ****       delete this;
 1715              		.loc 2 42 0
 1716 0378 01300FE3 		movw	r3, #61441
 1717 037c AD3E4DE3 		movt	r3, 57005
 1718 0380 043080E5 		str	r3, [r0, #4]
  43:/home/zkmike/workspace/RZA2M/rza2m_2d_barcode_sample_freertos_gcc/src/zxing_lib/zxing/common/Counted.h ****     }
 1719              		.loc 2 43 0
 1720 0384 003090E5 		ldr	r3, [r0]
 1721 0388 043093E5 		ldr	r3, [r3, #4]
 1722 038c 33FF2FE1 		blx	r3
 1723              	.LVL163:
 1724 0390 BCFFFFEA 		b	.L79
 1725              	.LVL164:
 1726              	.L123:
 1727              	.LBE593:
 1728              	.LBE594:
 1729              	.LBE595:
 1730              	.LBE631:
 1731              	.LBB632:
 1732              	.LBB602:
 1733              	.LBB601:
 1734              	.LBB600:
  42:/home/zkmike/workspace/RZA2M/rza2m_2d_barcode_sample_freertos_gcc/src/zxing_lib/zxing/common/Counted.h ****       delete this;
 1735              		.loc 2 42 0
 1736 0394 01300FE3 		movw	r3, #61441
 1737 0398 AD3E4DE3 		movt	r3, 57005
 1738 039c 043080E5 		str	r3, [r0, #4]
  43:/home/zkmike/workspace/RZA2M/rza2m_2d_barcode_sample_freertos_gcc/src/zxing_lib/zxing/common/Counted.h ****     }
 1739              		.loc 2 43 0
 1740 03a0 003090E5 		ldr	r3, [r0]
 1741 03a4 043093E5 		ldr	r3, [r3, #4]
 1742 03a8 33FF2FE1 		blx	r3
 1743              	.LVL165:
 1744 03ac BDFFFFEA 		b	.L80
 1745              	.LVL166:
 1746              	.L124:
 1747              	.LBE600:
 1748              	.LBE601:
 1749              	.LBE602:
 1750              	.LBE632:
 1751              	.LBB633:
 1752              	.LBB609:
 1753              	.LBB608:
 1754              	.LBB607:
  42:/home/zkmike/workspace/RZA2M/rza2m_2d_barcode_sample_freertos_gcc/src/zxing_lib/zxing/common/Counted.h ****       delete this;
 1755              		.loc 2 42 0
 1756 03b0 01300FE3 		movw	r3, #61441
 1757 03b4 AD3E4DE3 		movt	r3, 57005
 1758 03b8 043080E5 		str	r3, [r0, #4]
  43:/home/zkmike/workspace/RZA2M/rza2m_2d_barcode_sample_freertos_gcc/src/zxing_lib/zxing/common/Counted.h ****     }
 1759              		.loc 2 43 0
 1760 03bc 003090E5 		ldr	r3, [r0]
 1761 03c0 043093E5 		ldr	r3, [r3, #4]
 1762 03c4 33FF2FE1 		blx	r3
 1763              	.LVL167:
 1764 03c8 C0FFFFEA 		b	.L81
 1765              	.LVL168:
 1766              	.L125:
 1767              	.LBE607:
 1768              	.LBE608:
 1769              	.LBE609:
 1770              	.LBE633:
 1771              	.LBB634:
 1772              	.LBB616:
 1773              	.LBB615:
 1774              	.LBB614:
  42:/home/zkmike/workspace/RZA2M/rza2m_2d_barcode_sample_freertos_gcc/src/zxing_lib/zxing/common/Counted.h ****       delete this;
 1775              		.loc 2 42 0
 1776 03cc 01300FE3 		movw	r3, #61441
 1777 03d0 AD3E4DE3 		movt	r3, 57005
 1778 03d4 043080E5 		str	r3, [r0, #4]
  43:/home/zkmike/workspace/RZA2M/rza2m_2d_barcode_sample_freertos_gcc/src/zxing_lib/zxing/common/Counted.h ****     }
 1779              		.loc 2 43 0
 1780 03d8 003090E5 		ldr	r3, [r0]
 1781 03dc 043093E5 		ldr	r3, [r3, #4]
 1782 03e0 33FF2FE1 		blx	r3
 1783              	.LVL169:
 1784 03e4 C1FFFFEA 		b	.L82
 1785              	.LVL170:
 1786              	.L126:
 1787              	.LBE614:
 1788              	.LBE615:
 1789              	.LBE616:
 1790              	.LBE634:
 1791              	.LBB635:
 1792              	.LBB627:
 1793              	.LBB626:
 1794              	.LBB625:
 1795              	.LBB624:
 1796              	.LBB623:
  42:/home/zkmike/workspace/RZA2M/rza2m_2d_barcode_sample_freertos_gcc/src/zxing_lib/zxing/common/Counted.h ****       delete this;
 1797              		.loc 2 42 0
 1798 03e8 01300FE3 		movw	r3, #61441
 1799 03ec AD3E4DE3 		movt	r3, 57005
 1800 03f0 043080E5 		str	r3, [r0, #4]
  43:/home/zkmike/workspace/RZA2M/rza2m_2d_barcode_sample_freertos_gcc/src/zxing_lib/zxing/common/Counted.h ****     }
 1801              		.loc 2 43 0
 1802 03f4 003090E5 		ldr	r3, [r0]
 1803 03f8 043093E5 		ldr	r3, [r3, #4]
 1804 03fc 33FF2FE1 		blx	r3
 1805              	.LVL171:
 1806              	.LBE623:
 1807              	.LBE624:
 1808              	.LBE625:
 1809              	.LBE626:
 1810              	.LBE627:
 1811              	.LBE635:
  54:../src/zxing_lib/zxing/aztec/AztecReader.cpp **** }
 1812              		.loc 3 54 0
 1813 0400 C4FFFFEA 		b	.L68
 1814              	.LVL172:
 1815              	.L102:
 1816              	.LBB636:
 1817              	.LBB637:
  75:/home/zkmike/workspace/RZA2M/rza2m_2d_barcode_sample_freertos_gcc/src/zxing_lib/zxing/common/Counted.h ****       object_->release();
 1818              		.loc 2 75 0
 1819 0404 3C009DE5 		ldr	r0, [sp, #60]
 1820 0408 000050E3 		cmp	r0, #0
 1821 040c 0A00000A 		beq	.L85
 1822              	.LVL173:
 1823              	.LBB638:
 1824              	.LBB639:
  40:/home/zkmike/workspace/RZA2M/rza2m_2d_barcode_sample_freertos_gcc/src/zxing_lib/zxing/common/Counted.h ****     if (count_ == 0) {
 1825              		.loc 2 40 0
 1826 0410 043090E5 		ldr	r3, [r0, #4]
 1827 0414 013043E2 		sub	r3, r3, #1
 1828 0418 043080E5 		str	r3, [r0, #4]
  41:/home/zkmike/workspace/RZA2M/rza2m_2d_barcode_sample_freertos_gcc/src/zxing_lib/zxing/common/Counted.h ****       count_ = 0xDEADF001;
 1829              		.loc 2 41 0
 1830 041c 000053E3 		cmp	r3, #0
 1831 0420 0500001A 		bne	.L85
  42:/home/zkmike/workspace/RZA2M/rza2m_2d_barcode_sample_freertos_gcc/src/zxing_lib/zxing/common/Counted.h ****       delete this;
 1832              		.loc 2 42 0
 1833 0424 01300FE3 		movw	r3, #61441
 1834 0428 AD3E4DE3 		movt	r3, 57005
 1835 042c 043080E5 		str	r3, [r0, #4]
  43:/home/zkmike/workspace/RZA2M/rza2m_2d_barcode_sample_freertos_gcc/src/zxing_lib/zxing/common/Counted.h ****     }
 1836              		.loc 2 43 0
 1837 0430 003090E5 		ldr	r3, [r0]
 1838 0434 043093E5 		ldr	r3, [r3, #4]
 1839 0438 33FF2FE1 		blx	r3
 1840              	.LVL174:
 1841              	.L85:
 1842              	.LEHB11:
 1843 043c FEFFFFEB 		bl	__cxa_end_cleanup
 1844              	.LVL175:
 1845              	.L105:
 1846              	.LBE639:
 1847              	.LBE638:
 1848              	.LBE637:
 1849              	.LBE636:
 1850              	.LBB640:
 1851              	.LBB641:
  75:/home/zkmike/workspace/RZA2M/rza2m_2d_barcode_sample_freertos_gcc/src/zxing_lib/zxing/common/Counted.h ****       object_->release();
 1852              		.loc 2 75 0
 1853 0440 40009DE5 		ldr	r0, [sp, #64]
 1854 0444 000050E3 		cmp	r0, #0
 1855 0448 0A00000A 		beq	.L88
 1856              	.LVL176:
 1857              	.LBB642:
 1858              	.LBB643:
  40:/home/zkmike/workspace/RZA2M/rza2m_2d_barcode_sample_freertos_gcc/src/zxing_lib/zxing/common/Counted.h ****     if (count_ == 0) {
 1859              		.loc 2 40 0
 1860 044c 043090E5 		ldr	r3, [r0, #4]
 1861 0450 013043E2 		sub	r3, r3, #1
 1862 0454 043080E5 		str	r3, [r0, #4]
  41:/home/zkmike/workspace/RZA2M/rza2m_2d_barcode_sample_freertos_gcc/src/zxing_lib/zxing/common/Counted.h ****       count_ = 0xDEADF001;
 1863              		.loc 2 41 0
 1864 0458 000053E3 		cmp	r3, #0
 1865 045c 0500001A 		bne	.L88
  42:/home/zkmike/workspace/RZA2M/rza2m_2d_barcode_sample_freertos_gcc/src/zxing_lib/zxing/common/Counted.h ****       delete this;
 1866              		.loc 2 42 0
 1867 0460 01300FE3 		movw	r3, #61441
 1868 0464 AD3E4DE3 		movt	r3, 57005
 1869 0468 043080E5 		str	r3, [r0, #4]
  43:/home/zkmike/workspace/RZA2M/rza2m_2d_barcode_sample_freertos_gcc/src/zxing_lib/zxing/common/Counted.h ****     }
 1870              		.loc 2 43 0
 1871 046c 003090E5 		ldr	r3, [r0]
 1872 0470 043093E5 		ldr	r3, [r3, #4]
 1873 0474 33FF2FE1 		blx	r3
 1874              	.LVL177:
 1875              	.L88:
 1876              	.LBE643:
 1877              	.LBE642:
 1878              	.LBE641:
 1879              	.LBE640:
 1880              	.LBB644:
 1881              	.LBB645:
 121:/home/zkmike/workspace/RZA2M/rza2m_2d_barcode_sample_freertos_gcc/src/zxing_lib/zxing/common/Array.h **** 
 1882              		.loc 1 121 0
 1883 0478 C8319FE5 		ldr	r3, .L127
 1884 047c 0C308DE5 		str	r3, [sp, #12]
 117:/home/zkmike/workspace/RZA2M/rza2m_2d_barcode_sample_freertos_gcc/src/zxing_lib/zxing/common/Array.h ****       array_->release();
 1885              		.loc 1 117 0
 1886 0480 14009DE5 		ldr	r0, [sp, #20]
 1887 0484 000050E3 		cmp	r0, #0
 1888 0488 0A00000A 		beq	.L98
 1889              	.LVL178:
 1890              	.LBB646:
 1891              	.LBB647:
  40:/home/zkmike/workspace/RZA2M/rza2m_2d_barcode_sample_freertos_gcc/src/zxing_lib/zxing/common/Counted.h ****     if (count_ == 0) {
 1892              		.loc 2 40 0
 1893 048c 043090E5 		ldr	r3, [r0, #4]
 1894 0490 013043E2 		sub	r3, r3, #1
 1895 0494 043080E5 		str	r3, [r0, #4]
  41:/home/zkmike/workspace/RZA2M/rza2m_2d_barcode_sample_freertos_gcc/src/zxing_lib/zxing/common/Counted.h ****       count_ = 0xDEADF001;
 1896              		.loc 2 41 0
 1897 0498 000053E3 		cmp	r3, #0
 1898 049c 0500001A 		bne	.L98
  42:/home/zkmike/workspace/RZA2M/rza2m_2d_barcode_sample_freertos_gcc/src/zxing_lib/zxing/common/Counted.h ****       delete this;
 1899              		.loc 2 42 0
 1900 04a0 01300FE3 		movw	r3, #61441
 1901 04a4 AD3E4DE3 		movt	r3, 57005
 1902 04a8 043080E5 		str	r3, [r0, #4]
  43:/home/zkmike/workspace/RZA2M/rza2m_2d_barcode_sample_freertos_gcc/src/zxing_lib/zxing/common/Counted.h ****     }
 1903              		.loc 2 43 0
 1904 04ac 003090E5 		ldr	r3, [r0]
 1905 04b0 043093E5 		ldr	r3, [r3, #4]
 1906 04b4 33FF2FE1 		blx	r3
 1907              	.LVL179:
 1908              	.L98:
 1909              	.LBE647:
 1910              	.LBE646:
 1911              	.LBE645:
 1912              	.LBE644:
 1913              	.LBB648:
 1914              	.LBB649:
  75:/home/zkmike/workspace/RZA2M/rza2m_2d_barcode_sample_freertos_gcc/src/zxing_lib/zxing/common/Counted.h ****       object_->release();
 1915              		.loc 2 75 0
 1916 04b8 18009DE5 		ldr	r0, [sp, #24]
 1917 04bc 000050E3 		cmp	r0, #0
 1918 04c0 0A00000A 		beq	.L100
 1919              	.LVL180:
 1920              	.LBB650:
 1921              	.LBB651:
  40:/home/zkmike/workspace/RZA2M/rza2m_2d_barcode_sample_freertos_gcc/src/zxing_lib/zxing/common/Counted.h ****     if (count_ == 0) {
 1922              		.loc 2 40 0
 1923 04c4 043090E5 		ldr	r3, [r0, #4]
 1924 04c8 013043E2 		sub	r3, r3, #1
 1925 04cc 043080E5 		str	r3, [r0, #4]
  41:/home/zkmike/workspace/RZA2M/rza2m_2d_barcode_sample_freertos_gcc/src/zxing_lib/zxing/common/Counted.h ****       count_ = 0xDEADF001;
 1926              		.loc 2 41 0
 1927 04d0 000053E3 		cmp	r3, #0
 1928 04d4 0500001A 		bne	.L100
  42:/home/zkmike/workspace/RZA2M/rza2m_2d_barcode_sample_freertos_gcc/src/zxing_lib/zxing/common/Counted.h ****       delete this;
 1929              		.loc 2 42 0
 1930 04d8 01300FE3 		movw	r3, #61441
 1931 04dc AD3E4DE3 		movt	r3, 57005
 1932 04e0 043080E5 		str	r3, [r0, #4]
  43:/home/zkmike/workspace/RZA2M/rza2m_2d_barcode_sample_freertos_gcc/src/zxing_lib/zxing/common/Counted.h ****     }
 1933              		.loc 2 43 0
 1934 04e4 003090E5 		ldr	r3, [r0]
 1935 04e8 043093E5 		ldr	r3, [r3, #4]
 1936 04ec 33FF2FE1 		blx	r3
 1937              	.LVL181:
 1938              	.L100:
 1939              	.LBE651:
 1940              	.LBE650:
 1941              	.LBE649:
 1942              	.LBE648:
 1943              	.LBB652:
 1944              	.LBB653:
 1945              		.loc 5 52 0
 1946 04f0 58319FE5 		ldr	r3, .L127+8
 1947 04f4 1C308DE5 		str	r3, [sp, #28]
 1948              	.LVL182:
 1949              	.LBB654:
 1950              	.LBB655:
  75:/home/zkmike/workspace/RZA2M/rza2m_2d_barcode_sample_freertos_gcc/src/zxing_lib/zxing/common/Counted.h ****       object_->release();
 1951              		.loc 2 75 0
 1952 04f8 24009DE5 		ldr	r0, [sp, #36]
 1953 04fc 000050E3 		cmp	r0, #0
 1954 0500 0A00000A 		beq	.L101
 1955              	.LVL183:
 1956              	.LBB656:
 1957              	.LBB657:
  40:/home/zkmike/workspace/RZA2M/rza2m_2d_barcode_sample_freertos_gcc/src/zxing_lib/zxing/common/Counted.h ****     if (count_ == 0) {
 1958              		.loc 2 40 0
 1959 0504 043090E5 		ldr	r3, [r0, #4]
 1960 0508 013043E2 		sub	r3, r3, #1
 1961 050c 043080E5 		str	r3, [r0, #4]
  41:/home/zkmike/workspace/RZA2M/rza2m_2d_barcode_sample_freertos_gcc/src/zxing_lib/zxing/common/Counted.h ****       count_ = 0xDEADF001;
 1962              		.loc 2 41 0
 1963 0510 000053E3 		cmp	r3, #0
 1964 0514 0500001A 		bne	.L101
  42:/home/zkmike/workspace/RZA2M/rza2m_2d_barcode_sample_freertos_gcc/src/zxing_lib/zxing/common/Counted.h ****       delete this;
 1965              		.loc 2 42 0
 1966 0518 01300FE3 		movw	r3, #61441
 1967 051c AD3E4DE3 		movt	r3, 57005
 1968 0520 043080E5 		str	r3, [r0, #4]
  43:/home/zkmike/workspace/RZA2M/rza2m_2d_barcode_sample_freertos_gcc/src/zxing_lib/zxing/common/Counted.h ****     }
 1969              		.loc 2 43 0
 1970 0524 003090E5 		ldr	r3, [r0]
 1971 0528 043093E5 		ldr	r3, [r3, #4]
 1972 052c 33FF2FE1 		blx	r3
 1973              	.LVL184:
 1974              	.L101:
 1975 0530 FEFFFFEB 		bl	__cxa_end_cleanup
 1976              	.LVL185:
 1977              	.LEHE11:
 1978              	.L109:
 1979              	.LBE657:
 1980              	.LBE656:
 1981              	.LBE655:
 1982              	.LBE654:
 1983              	.LBE653:
 1984              	.LBE652:
  52:../src/zxing_lib/zxing/aztec/AztecReader.cpp ****             
 1985              		.loc 3 52 0
 1986 0534 2810A0E3 		mov	r1, #40
 1987 0538 0500A0E1 		mov	r0, r5
 1988 053c FEFFFFEB 		bl	_ZdlPvj
 1989              	.LVL186:
 1990              	.L90:
 1991              	.LBB658:
 1992              	.LBB659:
 121:/home/zkmike/workspace/RZA2M/rza2m_2d_barcode_sample_freertos_gcc/src/zxing_lib/zxing/common/Array.h **** 
 1993              		.loc 1 121 0 discriminator 2
 1994 0540 00319FE5 		ldr	r3, .L127
 1995 0544 54308DE5 		str	r3, [sp, #84]
 117:/home/zkmike/workspace/RZA2M/rza2m_2d_barcode_sample_freertos_gcc/src/zxing_lib/zxing/common/Array.h ****       array_->release();
 1996              		.loc 1 117 0 discriminator 2
 1997 0548 5C009DE5 		ldr	r0, [sp, #92]
 1998 054c 000050E3 		cmp	r0, #0
 1999 0550 0A00000A 		beq	.L91
 2000              	.LVL187:
 2001              	.LBB660:
 2002              	.LBB661:
  40:/home/zkmike/workspace/RZA2M/rza2m_2d_barcode_sample_freertos_gcc/src/zxing_lib/zxing/common/Counted.h ****     if (count_ == 0) {
 2003              		.loc 2 40 0
 2004 0554 043090E5 		ldr	r3, [r0, #4]
 2005 0558 013043E2 		sub	r3, r3, #1
 2006 055c 043080E5 		str	r3, [r0, #4]
  41:/home/zkmike/workspace/RZA2M/rza2m_2d_barcode_sample_freertos_gcc/src/zxing_lib/zxing/common/Counted.h ****       count_ = 0xDEADF001;
 2007              		.loc 2 41 0
 2008 0560 000053E3 		cmp	r3, #0
 2009 0564 0500001A 		bne	.L91
  42:/home/zkmike/workspace/RZA2M/rza2m_2d_barcode_sample_freertos_gcc/src/zxing_lib/zxing/common/Counted.h ****       delete this;
 2010              		.loc 2 42 0
 2011 0568 01300FE3 		movw	r3, #61441
 2012 056c AD3E4DE3 		movt	r3, 57005
 2013 0570 043080E5 		str	r3, [r0, #4]
  43:/home/zkmike/workspace/RZA2M/rza2m_2d_barcode_sample_freertos_gcc/src/zxing_lib/zxing/common/Counted.h ****     }
 2014              		.loc 2 43 0
 2015 0574 003090E5 		ldr	r3, [r0]
 2016 0578 043093E5 		ldr	r3, [r3, #4]
 2017 057c 33FF2FE1 		blx	r3
 2018              	.LVL188:
 2019              	.L91:
 2020              	.LBE661:
 2021              	.LBE660:
 2022              	.LBE659:
 2023              	.LBE658:
 2024              	.LBB662:
 2025              	.LBB663:
 121:/home/zkmike/workspace/RZA2M/rza2m_2d_barcode_sample_freertos_gcc/src/zxing_lib/zxing/common/Array.h **** 
 2026              		.loc 1 121 0
 2027 0580 C4309FE5 		ldr	r3, .L127+4
 2028 0584 48308DE5 		str	r3, [sp, #72]
 117:/home/zkmike/workspace/RZA2M/rza2m_2d_barcode_sample_freertos_gcc/src/zxing_lib/zxing/common/Array.h ****       array_->release();
 2029              		.loc 1 117 0
 2030 0588 50009DE5 		ldr	r0, [sp, #80]
 2031 058c 000050E3 		cmp	r0, #0
 2032 0590 0A00000A 		beq	.L93
 2033              	.LVL189:
 2034              	.LBB664:
 2035              	.LBB665:
  40:/home/zkmike/workspace/RZA2M/rza2m_2d_barcode_sample_freertos_gcc/src/zxing_lib/zxing/common/Counted.h ****     if (count_ == 0) {
 2036              		.loc 2 40 0
 2037 0594 043090E5 		ldr	r3, [r0, #4]
 2038 0598 013043E2 		sub	r3, r3, #1
 2039 059c 043080E5 		str	r3, [r0, #4]
  41:/home/zkmike/workspace/RZA2M/rza2m_2d_barcode_sample_freertos_gcc/src/zxing_lib/zxing/common/Counted.h ****       count_ = 0xDEADF001;
 2040              		.loc 2 41 0
 2041 05a0 000053E3 		cmp	r3, #0
 2042 05a4 0500001A 		bne	.L93
  42:/home/zkmike/workspace/RZA2M/rza2m_2d_barcode_sample_freertos_gcc/src/zxing_lib/zxing/common/Counted.h ****       delete this;
 2043              		.loc 2 42 0
 2044 05a8 01300FE3 		movw	r3, #61441
 2045 05ac AD3E4DE3 		movt	r3, 57005
 2046 05b0 043080E5 		str	r3, [r0, #4]
  43:/home/zkmike/workspace/RZA2M/rza2m_2d_barcode_sample_freertos_gcc/src/zxing_lib/zxing/common/Counted.h ****     }
 2047              		.loc 2 43 0
 2048 05b4 003090E5 		ldr	r3, [r0]
 2049 05b8 043093E5 		ldr	r3, [r3, #4]
 2050 05bc 33FF2FE1 		blx	r3
 2051              	.LVL190:
 2052              	.L93:
 2053              	.LBE665:
 2054              	.LBE664:
 2055              	.LBE663:
 2056              	.LBE662:
 2057              	.LBB666:
 2058              	.LBB667:
  75:/home/zkmike/workspace/RZA2M/rza2m_2d_barcode_sample_freertos_gcc/src/zxing_lib/zxing/common/Counted.h ****       object_->release();
 2059              		.loc 2 75 0
 2060 05c0 44009DE5 		ldr	r0, [sp, #68]
 2061 05c4 000050E3 		cmp	r0, #0
 2062 05c8 0A00000A 		beq	.L95
 2063              	.LVL191:
 2064              	.LBB668:
 2065              	.LBB669:
  40:/home/zkmike/workspace/RZA2M/rza2m_2d_barcode_sample_freertos_gcc/src/zxing_lib/zxing/common/Counted.h ****     if (count_ == 0) {
 2066              		.loc 2 40 0
 2067 05cc 043090E5 		ldr	r3, [r0, #4]
 2068 05d0 013043E2 		sub	r3, r3, #1
 2069 05d4 043080E5 		str	r3, [r0, #4]
  41:/home/zkmike/workspace/RZA2M/rza2m_2d_barcode_sample_freertos_gcc/src/zxing_lib/zxing/common/Counted.h ****       count_ = 0xDEADF001;
 2070              		.loc 2 41 0
 2071 05d8 000053E3 		cmp	r3, #0
 2072 05dc 0500001A 		bne	.L95
  42:/home/zkmike/workspace/RZA2M/rza2m_2d_barcode_sample_freertos_gcc/src/zxing_lib/zxing/common/Counted.h ****       delete this;
 2073              		.loc 2 42 0
 2074 05e0 01300FE3 		movw	r3, #61441
 2075 05e4 AD3E4DE3 		movt	r3, 57005
 2076 05e8 043080E5 		str	r3, [r0, #4]
  43:/home/zkmike/workspace/RZA2M/rza2m_2d_barcode_sample_freertos_gcc/src/zxing_lib/zxing/common/Counted.h ****     }
 2077              		.loc 2 43 0
 2078 05ec 003090E5 		ldr	r3, [r0]
 2079 05f0 043093E5 		ldr	r3, [r3, #4]
 2080 05f4 33FF2FE1 		blx	r3
 2081              	.LVL192:
 2082              	.L95:
 2083              	.LBE669:
 2084              	.LBE668:
 2085              	.LBE667:
 2086              	.LBE666:
 2087              	.LBB670:
 2088              	.LBB671:
  75:/home/zkmike/workspace/RZA2M/rza2m_2d_barcode_sample_freertos_gcc/src/zxing_lib/zxing/common/Counted.h ****       object_->release();
 2089              		.loc 2 75 0
 2090 05f8 08009DE5 		ldr	r0, [sp, #8]
 2091 05fc 000050E3 		cmp	r0, #0
 2092 0600 9CFFFF0A 		beq	.L88
 2093              	.LVL193:
 2094              	.LBB672:
 2095              	.LBB673:
  40:/home/zkmike/workspace/RZA2M/rza2m_2d_barcode_sample_freertos_gcc/src/zxing_lib/zxing/common/Counted.h ****     if (count_ == 0) {
 2096              		.loc 2 40 0
 2097 0604 043090E5 		ldr	r3, [r0, #4]
 2098 0608 013043E2 		sub	r3, r3, #1
 2099 060c 043080E5 		str	r3, [r0, #4]
  41:/home/zkmike/workspace/RZA2M/rza2m_2d_barcode_sample_freertos_gcc/src/zxing_lib/zxing/common/Counted.h ****       count_ = 0xDEADF001;
 2100              		.loc 2 41 0
 2101 0610 000053E3 		cmp	r3, #0
 2102 0614 97FFFF1A 		bne	.L88
  42:/home/zkmike/workspace/RZA2M/rza2m_2d_barcode_sample_freertos_gcc/src/zxing_lib/zxing/common/Counted.h ****       delete this;
 2103              		.loc 2 42 0
 2104 0618 01300FE3 		movw	r3, #61441
 2105 061c AD3E4DE3 		movt	r3, 57005
 2106 0620 043080E5 		str	r3, [r0, #4]
  43:/home/zkmike/workspace/RZA2M/rza2m_2d_barcode_sample_freertos_gcc/src/zxing_lib/zxing/common/Counted.h ****     }
 2107              		.loc 2 43 0
 2108 0624 003090E5 		ldr	r3, [r0]
 2109 0628 043093E5 		ldr	r3, [r3, #4]
 2110 062c 33FF2FE1 		blx	r3
 2111              	.LVL194:
 2112 0630 90FFFFEA 		b	.L88
 2113              	.L108:
 2114 0634 C1FFFFEA 		b	.L90
 2115              	.L107:
 2116 0638 E0FFFFEA 		b	.L93
 2117              	.L106:
 2118 063c EDFFFFEA 		b	.L95
 2119              	.LVL195:
 2120              	.L104:
 2121 0640 9CFFFFEA 		b	.L98
 2122              	.L103:
 2123 0644 A9FFFFEA 		b	.L100
 2124              	.L128:
 2125              		.align	2
 2126              	.L127:
 2127 0648 08000000 		.word	_ZTVN5zxing8ArrayRefINS_3RefINS_11ResultPointEEEEE+8
 2128 064c 08000000 		.word	_ZTVN5zxing8ArrayRefIcEE+8
 2129 0650 08000000 		.word	_ZTVN5zxing5aztec8DetectorE+8
 2130              	.LBE673:
 2131              	.LBE672:
 2132              	.LBE671:
 2133              	.LBE670:
 2134              		.cfi_endproc
 2135              	.LFE2262:
 2136              		.personality	__gxx_personality_v0
 2137              		.handlerdata
 2138              	.LLSDA2262:
 2139 0008 FF       		.byte	0xff
 2140 0009 FF       		.byte	0xff
 2141 000a 01       		.byte	0x1
 2142 000b 37       		.uleb128 .LLSDACSE2262-.LLSDACSB2262
 2143              	.LLSDACSB2262:
 2144 000c 18       		.uleb128 .LEHB2-.LFB2262
 2145 000d 04       		.uleb128 .LEHE2-.LEHB2
 2146 000e 00       		.uleb128 0
 2147 000f 00       		.uleb128 0
 2148 0010 24       		.uleb128 .LEHB3-.LFB2262
 2149 0011 04       		.uleb128 .LEHE3-.LEHB3
 2150 0012 8408     		.uleb128 .L102-.LFB2262
 2151 0014 00       		.uleb128 0
 2152 0015 50       		.uleb128 .LEHB4-.LFB2262
 2153 0016 04       		.uleb128 .LEHE4-.LEHB4
 2154 0017 C40C     		.uleb128 .L103-.LFB2262
 2155 0019 00       		.uleb128 0
 2156 001a 7C       		.uleb128 .LEHB5-.LFB2262
 2157 001b 04       		.uleb128 .LEHE5-.LEHB5
 2158 001c C00C     		.uleb128 .L104-.LFB2262
 2159 001e 00       		.uleb128 0
 2160 001f D001     		.uleb128 .LEHB6-.LFB2262
 2161 0021 04       		.uleb128 .LEHE6-.LEHB6
 2162 0022 C008     		.uleb128 .L105-.LFB2262
 2163 0024 00       		.uleb128 0
 2164 0025 9C02     		.uleb128 .LEHB7-.LFB2262
 2165 0027 04       		.uleb128 .LEHE7-.LEHB7
 2166 0028 BC0C     		.uleb128 .L106-.LFB2262
 2167 002a 00       		.uleb128 0
 2168 002b C802     		.uleb128 .LEHB8-.LFB2262
 2169 002d 04       		.uleb128 .LEHE8-.LEHB8
 2170 002e B80C     		.uleb128 .L107-.LFB2262
 2171 0030 00       		.uleb128 0
 2172 0031 9C03     		.uleb128 .LEHB9-.LFB2262
 2173 0033 04       		.uleb128 .LEHE9-.LEHB9
 2174 0034 B40C     		.uleb128 .L108-.LFB2262
 2175 0036 00       		.uleb128 0
 2176 0037 D803     		.uleb128 .LEHB10-.LFB2262
 2177 0039 04       		.uleb128 .LEHE10-.LEHB10
 2178 003a B40A     		.uleb128 .L109-.LFB2262
 2179 003c 00       		.uleb128 0
 2180 003d BC08     		.uleb128 .LEHB11-.LFB2262
 2181 003f F801     		.uleb128 .LEHE11-.LEHB11
 2182 0041 00       		.uleb128 0
 2183 0042 00       		.uleb128 0
 2184              	.LLSDACSE2262:
 2185              		.section	.text._ZN5zxing5aztec11AztecReader6decodeENS_3RefINS_12BinaryBitmapEEE
 2186              		.fnend
 2188              		.section	.text._Z41__static_initialization_and_destruction_0ii,"ax",%progbits
 2189              		.align	2
 2190              		.syntax unified
 2191              		.arm
 2192              		.fpu neon
 2194              	_Z41__static_initialization_and_destruction_0ii:
 2195              		.fnstart
 2196              	.LFB2789:
  65:../src/zxing_lib/zxing/aztec/AztecReader.cpp ****         
  66:../src/zxing_lib/zxing/aztec/AztecReader.cpp **** zxing::aztec::Decoder& AztecReader::getDecoder() {
  67:../src/zxing_lib/zxing/aztec/AztecReader.cpp ****   return decoder_;
  68:../src/zxing_lib/zxing/aztec/AztecReader.cpp **** }
 2197              		.loc 3 68 0
 2198              		.cfi_startproc
 2199              		@ args = 0, pretend = 0, frame = 0
 2200              		@ frame_needed = 0, uses_anonymous_args = 0
 2201              	.LVL196:
 2202 0000 010050E3 		cmp	r0, #1
 2203 0004 1EFF2F11 		bxne	lr
 2204              		.loc 3 68 0 is_stmt 0 discriminator 1
 2205 0008 FF3F0FE3 		movw	r3, #65535
 2206 000c 030051E1 		cmp	r1, r3
 2207 0010 1EFF2F11 		bxne	lr
 2208              		.loc 3 68 0
 2209 0014 10402DE9 		push	{r4, lr}
 2210              		.cfi_def_cfa_offset 8
 2211              		.cfi_offset 4, -8
 2212              		.cfi_offset 14, -4
 2213              		.file 6 "/home/zkmike/.local/share/renesas/e2_studio/toolchains/gcc_arm/gcc-arm-none-eabi-6-2017-q
   1:/home/zkmike/.local/share/renesas/e2_studio/toolchains/gcc_arm/gcc-arm-none-eabi-6-2017-q2-update/arm-none-eabi/include/c++/6.3.1/iostream **** // Standard iostream objects -*- C++ -*-
   2:/home/zkmike/.local/share/renesas/e2_studio/toolchains/gcc_arm/gcc-arm-none-eabi-6-2017-q2-update/arm-none-eabi/include/c++/6.3.1/iostream **** 
   3:/home/zkmike/.local/share/renesas/e2_studio/toolchains/gcc_arm/gcc-arm-none-eabi-6-2017-q2-update/arm-none-eabi/include/c++/6.3.1/iostream **** // Copyright (C) 1997-2016 Free Software Foundation, Inc.
   4:/home/zkmike/.local/share/renesas/e2_studio/toolchains/gcc_arm/gcc-arm-none-eabi-6-2017-q2-update/arm-none-eabi/include/c++/6.3.1/iostream **** //
   5:/home/zkmike/.local/share/renesas/e2_studio/toolchains/gcc_arm/gcc-arm-none-eabi-6-2017-q2-update/arm-none-eabi/include/c++/6.3.1/iostream **** // This file is part of the GNU ISO C++ Library.  This library is free
   6:/home/zkmike/.local/share/renesas/e2_studio/toolchains/gcc_arm/gcc-arm-none-eabi-6-2017-q2-update/arm-none-eabi/include/c++/6.3.1/iostream **** // software; you can redistribute it and/or modify it under the
   7:/home/zkmike/.local/share/renesas/e2_studio/toolchains/gcc_arm/gcc-arm-none-eabi-6-2017-q2-update/arm-none-eabi/include/c++/6.3.1/iostream **** // terms of the GNU General Public License as published by the
   8:/home/zkmike/.local/share/renesas/e2_studio/toolchains/gcc_arm/gcc-arm-none-eabi-6-2017-q2-update/arm-none-eabi/include/c++/6.3.1/iostream **** // Free Software Foundation; either version 3, or (at your option)
   9:/home/zkmike/.local/share/renesas/e2_studio/toolchains/gcc_arm/gcc-arm-none-eabi-6-2017-q2-update/arm-none-eabi/include/c++/6.3.1/iostream **** // any later version.
  10:/home/zkmike/.local/share/renesas/e2_studio/toolchains/gcc_arm/gcc-arm-none-eabi-6-2017-q2-update/arm-none-eabi/include/c++/6.3.1/iostream **** 
  11:/home/zkmike/.local/share/renesas/e2_studio/toolchains/gcc_arm/gcc-arm-none-eabi-6-2017-q2-update/arm-none-eabi/include/c++/6.3.1/iostream **** // This library is distributed in the hope that it will be useful,
  12:/home/zkmike/.local/share/renesas/e2_studio/toolchains/gcc_arm/gcc-arm-none-eabi-6-2017-q2-update/arm-none-eabi/include/c++/6.3.1/iostream **** // but WITHOUT ANY WARRANTY; without even the implied warranty of
  13:/home/zkmike/.local/share/renesas/e2_studio/toolchains/gcc_arm/gcc-arm-none-eabi-6-2017-q2-update/arm-none-eabi/include/c++/6.3.1/iostream **** // MERCHANTABILITY or FITNESS FOR A PARTICULAR PURPOSE.  See the
  14:/home/zkmike/.local/share/renesas/e2_studio/toolchains/gcc_arm/gcc-arm-none-eabi-6-2017-q2-update/arm-none-eabi/include/c++/6.3.1/iostream **** // GNU General Public License for more details.
  15:/home/zkmike/.local/share/renesas/e2_studio/toolchains/gcc_arm/gcc-arm-none-eabi-6-2017-q2-update/arm-none-eabi/include/c++/6.3.1/iostream **** 
  16:/home/zkmike/.local/share/renesas/e2_studio/toolchains/gcc_arm/gcc-arm-none-eabi-6-2017-q2-update/arm-none-eabi/include/c++/6.3.1/iostream **** // Under Section 7 of GPL version 3, you are granted additional
  17:/home/zkmike/.local/share/renesas/e2_studio/toolchains/gcc_arm/gcc-arm-none-eabi-6-2017-q2-update/arm-none-eabi/include/c++/6.3.1/iostream **** // permissions described in the GCC Runtime Library Exception, version
  18:/home/zkmike/.local/share/renesas/e2_studio/toolchains/gcc_arm/gcc-arm-none-eabi-6-2017-q2-update/arm-none-eabi/include/c++/6.3.1/iostream **** // 3.1, as published by the Free Software Foundation.
  19:/home/zkmike/.local/share/renesas/e2_studio/toolchains/gcc_arm/gcc-arm-none-eabi-6-2017-q2-update/arm-none-eabi/include/c++/6.3.1/iostream **** 
  20:/home/zkmike/.local/share/renesas/e2_studio/toolchains/gcc_arm/gcc-arm-none-eabi-6-2017-q2-update/arm-none-eabi/include/c++/6.3.1/iostream **** // You should have received a copy of the GNU General Public License and
  21:/home/zkmike/.local/share/renesas/e2_studio/toolchains/gcc_arm/gcc-arm-none-eabi-6-2017-q2-update/arm-none-eabi/include/c++/6.3.1/iostream **** // a copy of the GCC Runtime Library Exception along with this program;
  22:/home/zkmike/.local/share/renesas/e2_studio/toolchains/gcc_arm/gcc-arm-none-eabi-6-2017-q2-update/arm-none-eabi/include/c++/6.3.1/iostream **** // see the files COPYING3 and COPYING.RUNTIME respectively.  If not, see
  23:/home/zkmike/.local/share/renesas/e2_studio/toolchains/gcc_arm/gcc-arm-none-eabi-6-2017-q2-update/arm-none-eabi/include/c++/6.3.1/iostream **** // <http://www.gnu.org/licenses/>.
  24:/home/zkmike/.local/share/renesas/e2_studio/toolchains/gcc_arm/gcc-arm-none-eabi-6-2017-q2-update/arm-none-eabi/include/c++/6.3.1/iostream **** 
  25:/home/zkmike/.local/share/renesas/e2_studio/toolchains/gcc_arm/gcc-arm-none-eabi-6-2017-q2-update/arm-none-eabi/include/c++/6.3.1/iostream **** /** @file include/iostream
  26:/home/zkmike/.local/share/renesas/e2_studio/toolchains/gcc_arm/gcc-arm-none-eabi-6-2017-q2-update/arm-none-eabi/include/c++/6.3.1/iostream ****  *  This is a Standard C++ Library header.
  27:/home/zkmike/.local/share/renesas/e2_studio/toolchains/gcc_arm/gcc-arm-none-eabi-6-2017-q2-update/arm-none-eabi/include/c++/6.3.1/iostream ****  */
  28:/home/zkmike/.local/share/renesas/e2_studio/toolchains/gcc_arm/gcc-arm-none-eabi-6-2017-q2-update/arm-none-eabi/include/c++/6.3.1/iostream **** 
  29:/home/zkmike/.local/share/renesas/e2_studio/toolchains/gcc_arm/gcc-arm-none-eabi-6-2017-q2-update/arm-none-eabi/include/c++/6.3.1/iostream **** //
  30:/home/zkmike/.local/share/renesas/e2_studio/toolchains/gcc_arm/gcc-arm-none-eabi-6-2017-q2-update/arm-none-eabi/include/c++/6.3.1/iostream **** // ISO C++ 14882: 27.3  Standard iostream objects
  31:/home/zkmike/.local/share/renesas/e2_studio/toolchains/gcc_arm/gcc-arm-none-eabi-6-2017-q2-update/arm-none-eabi/include/c++/6.3.1/iostream **** //
  32:/home/zkmike/.local/share/renesas/e2_studio/toolchains/gcc_arm/gcc-arm-none-eabi-6-2017-q2-update/arm-none-eabi/include/c++/6.3.1/iostream **** 
  33:/home/zkmike/.local/share/renesas/e2_studio/toolchains/gcc_arm/gcc-arm-none-eabi-6-2017-q2-update/arm-none-eabi/include/c++/6.3.1/iostream **** #ifndef _GLIBCXX_IOSTREAM
  34:/home/zkmike/.local/share/renesas/e2_studio/toolchains/gcc_arm/gcc-arm-none-eabi-6-2017-q2-update/arm-none-eabi/include/c++/6.3.1/iostream **** #define _GLIBCXX_IOSTREAM 1
  35:/home/zkmike/.local/share/renesas/e2_studio/toolchains/gcc_arm/gcc-arm-none-eabi-6-2017-q2-update/arm-none-eabi/include/c++/6.3.1/iostream **** 
  36:/home/zkmike/.local/share/renesas/e2_studio/toolchains/gcc_arm/gcc-arm-none-eabi-6-2017-q2-update/arm-none-eabi/include/c++/6.3.1/iostream **** #pragma GCC system_header
  37:/home/zkmike/.local/share/renesas/e2_studio/toolchains/gcc_arm/gcc-arm-none-eabi-6-2017-q2-update/arm-none-eabi/include/c++/6.3.1/iostream **** 
  38:/home/zkmike/.local/share/renesas/e2_studio/toolchains/gcc_arm/gcc-arm-none-eabi-6-2017-q2-update/arm-none-eabi/include/c++/6.3.1/iostream **** #include <bits/c++config.h>
  39:/home/zkmike/.local/share/renesas/e2_studio/toolchains/gcc_arm/gcc-arm-none-eabi-6-2017-q2-update/arm-none-eabi/include/c++/6.3.1/iostream **** #include <ostream>
  40:/home/zkmike/.local/share/renesas/e2_studio/toolchains/gcc_arm/gcc-arm-none-eabi-6-2017-q2-update/arm-none-eabi/include/c++/6.3.1/iostream **** #include <istream>
  41:/home/zkmike/.local/share/renesas/e2_studio/toolchains/gcc_arm/gcc-arm-none-eabi-6-2017-q2-update/arm-none-eabi/include/c++/6.3.1/iostream **** 
  42:/home/zkmike/.local/share/renesas/e2_studio/toolchains/gcc_arm/gcc-arm-none-eabi-6-2017-q2-update/arm-none-eabi/include/c++/6.3.1/iostream **** namespace std _GLIBCXX_VISIBILITY(default)
  43:/home/zkmike/.local/share/renesas/e2_studio/toolchains/gcc_arm/gcc-arm-none-eabi-6-2017-q2-update/arm-none-eabi/include/c++/6.3.1/iostream **** {
  44:/home/zkmike/.local/share/renesas/e2_studio/toolchains/gcc_arm/gcc-arm-none-eabi-6-2017-q2-update/arm-none-eabi/include/c++/6.3.1/iostream **** _GLIBCXX_BEGIN_NAMESPACE_VERSION
  45:/home/zkmike/.local/share/renesas/e2_studio/toolchains/gcc_arm/gcc-arm-none-eabi-6-2017-q2-update/arm-none-eabi/include/c++/6.3.1/iostream **** 
  46:/home/zkmike/.local/share/renesas/e2_studio/toolchains/gcc_arm/gcc-arm-none-eabi-6-2017-q2-update/arm-none-eabi/include/c++/6.3.1/iostream ****   /**
  47:/home/zkmike/.local/share/renesas/e2_studio/toolchains/gcc_arm/gcc-arm-none-eabi-6-2017-q2-update/arm-none-eabi/include/c++/6.3.1/iostream ****    *  @name Standard Stream Objects
  48:/home/zkmike/.local/share/renesas/e2_studio/toolchains/gcc_arm/gcc-arm-none-eabi-6-2017-q2-update/arm-none-eabi/include/c++/6.3.1/iostream ****    *
  49:/home/zkmike/.local/share/renesas/e2_studio/toolchains/gcc_arm/gcc-arm-none-eabi-6-2017-q2-update/arm-none-eabi/include/c++/6.3.1/iostream ****    *  The &lt;iostream&gt; header declares the eight <em>standard stream
  50:/home/zkmike/.local/share/renesas/e2_studio/toolchains/gcc_arm/gcc-arm-none-eabi-6-2017-q2-update/arm-none-eabi/include/c++/6.3.1/iostream ****    *  objects</em>.  For other declarations, see
  51:/home/zkmike/.local/share/renesas/e2_studio/toolchains/gcc_arm/gcc-arm-none-eabi-6-2017-q2-update/arm-none-eabi/include/c++/6.3.1/iostream ****    *  http://gcc.gnu.org/onlinedocs/libstdc++/manual/io.html
  52:/home/zkmike/.local/share/renesas/e2_studio/toolchains/gcc_arm/gcc-arm-none-eabi-6-2017-q2-update/arm-none-eabi/include/c++/6.3.1/iostream ****    *  and the @link iosfwd I/O forward declarations @endlink
  53:/home/zkmike/.local/share/renesas/e2_studio/toolchains/gcc_arm/gcc-arm-none-eabi-6-2017-q2-update/arm-none-eabi/include/c++/6.3.1/iostream ****    *
  54:/home/zkmike/.local/share/renesas/e2_studio/toolchains/gcc_arm/gcc-arm-none-eabi-6-2017-q2-update/arm-none-eabi/include/c++/6.3.1/iostream ****    *  They are required by default to cooperate with the global C
  55:/home/zkmike/.local/share/renesas/e2_studio/toolchains/gcc_arm/gcc-arm-none-eabi-6-2017-q2-update/arm-none-eabi/include/c++/6.3.1/iostream ****    *  library's @c FILE streams, and to be available during program
  56:/home/zkmike/.local/share/renesas/e2_studio/toolchains/gcc_arm/gcc-arm-none-eabi-6-2017-q2-update/arm-none-eabi/include/c++/6.3.1/iostream ****    *  startup and termination. For more information, see the section of the
  57:/home/zkmike/.local/share/renesas/e2_studio/toolchains/gcc_arm/gcc-arm-none-eabi-6-2017-q2-update/arm-none-eabi/include/c++/6.3.1/iostream ****    *  manual linked to above.
  58:/home/zkmike/.local/share/renesas/e2_studio/toolchains/gcc_arm/gcc-arm-none-eabi-6-2017-q2-update/arm-none-eabi/include/c++/6.3.1/iostream ****   */
  59:/home/zkmike/.local/share/renesas/e2_studio/toolchains/gcc_arm/gcc-arm-none-eabi-6-2017-q2-update/arm-none-eabi/include/c++/6.3.1/iostream ****   //@{
  60:/home/zkmike/.local/share/renesas/e2_studio/toolchains/gcc_arm/gcc-arm-none-eabi-6-2017-q2-update/arm-none-eabi/include/c++/6.3.1/iostream ****   extern istream cin;		/// Linked to standard input
  61:/home/zkmike/.local/share/renesas/e2_studio/toolchains/gcc_arm/gcc-arm-none-eabi-6-2017-q2-update/arm-none-eabi/include/c++/6.3.1/iostream ****   extern ostream cout;		/// Linked to standard output
  62:/home/zkmike/.local/share/renesas/e2_studio/toolchains/gcc_arm/gcc-arm-none-eabi-6-2017-q2-update/arm-none-eabi/include/c++/6.3.1/iostream ****   extern ostream cerr;		/// Linked to standard error (unbuffered)
  63:/home/zkmike/.local/share/renesas/e2_studio/toolchains/gcc_arm/gcc-arm-none-eabi-6-2017-q2-update/arm-none-eabi/include/c++/6.3.1/iostream ****   extern ostream clog;		/// Linked to standard error (buffered)
  64:/home/zkmike/.local/share/renesas/e2_studio/toolchains/gcc_arm/gcc-arm-none-eabi-6-2017-q2-update/arm-none-eabi/include/c++/6.3.1/iostream **** 
  65:/home/zkmike/.local/share/renesas/e2_studio/toolchains/gcc_arm/gcc-arm-none-eabi-6-2017-q2-update/arm-none-eabi/include/c++/6.3.1/iostream **** #ifdef _GLIBCXX_USE_WCHAR_T
  66:/home/zkmike/.local/share/renesas/e2_studio/toolchains/gcc_arm/gcc-arm-none-eabi-6-2017-q2-update/arm-none-eabi/include/c++/6.3.1/iostream ****   extern wistream wcin;		/// Linked to standard input
  67:/home/zkmike/.local/share/renesas/e2_studio/toolchains/gcc_arm/gcc-arm-none-eabi-6-2017-q2-update/arm-none-eabi/include/c++/6.3.1/iostream ****   extern wostream wcout;	/// Linked to standard output
  68:/home/zkmike/.local/share/renesas/e2_studio/toolchains/gcc_arm/gcc-arm-none-eabi-6-2017-q2-update/arm-none-eabi/include/c++/6.3.1/iostream ****   extern wostream wcerr;	/// Linked to standard error (unbuffered)
  69:/home/zkmike/.local/share/renesas/e2_studio/toolchains/gcc_arm/gcc-arm-none-eabi-6-2017-q2-update/arm-none-eabi/include/c++/6.3.1/iostream ****   extern wostream wclog;	/// Linked to standard error (buffered)
  70:/home/zkmike/.local/share/renesas/e2_studio/toolchains/gcc_arm/gcc-arm-none-eabi-6-2017-q2-update/arm-none-eabi/include/c++/6.3.1/iostream **** #endif
  71:/home/zkmike/.local/share/renesas/e2_studio/toolchains/gcc_arm/gcc-arm-none-eabi-6-2017-q2-update/arm-none-eabi/include/c++/6.3.1/iostream ****   //@}
  72:/home/zkmike/.local/share/renesas/e2_studio/toolchains/gcc_arm/gcc-arm-none-eabi-6-2017-q2-update/arm-none-eabi/include/c++/6.3.1/iostream **** 
  73:/home/zkmike/.local/share/renesas/e2_studio/toolchains/gcc_arm/gcc-arm-none-eabi-6-2017-q2-update/arm-none-eabi/include/c++/6.3.1/iostream ****   // For construction of filebuffers for cout, cin, cerr, clog et. al.
  74:/home/zkmike/.local/share/renesas/e2_studio/toolchains/gcc_arm/gcc-arm-none-eabi-6-2017-q2-update/arm-none-eabi/include/c++/6.3.1/iostream ****   static ios_base::Init __ioinit;
 2214              		.loc 6 74 0 is_stmt 1
 2215 0018 004000E3 		movw	r4, #:lower16:.LANCHOR1
 2216 001c 004040E3 		movt	r4, #:upper16:.LANCHOR1
 2217 0020 0400A0E1 		mov	r0, r4
 2218              	.LVL197:
 2219 0024 FEFFFFEB 		bl	_ZNSt8ios_base4InitC1Ev
 2220              	.LVL198:
 2221 0028 002000E3 		movw	r2, #:lower16:__dso_handle
 2222 002c 002040E3 		movt	r2, #:upper16:__dso_handle
 2223 0030 001000E3 		movw	r1, #:lower16:_ZNSt8ios_base4InitD1Ev
 2224 0034 001040E3 		movt	r1, #:upper16:_ZNSt8ios_base4InitD1Ev
 2225 0038 0400A0E1 		mov	r0, r4
 2226 003c FEFFFFEB 		bl	__aeabi_atexit
 2227              	.LVL199:
 2228 0040 1080BDE8 		pop	{r4, pc}
 2229              		.cfi_endproc
 2230              	.LFE2789:
 2231              		.cantunwind
 2232              		.fnend
 2234              		.section	.text._ZN5zxing5aztec11AztecReaderC2Ev,"ax",%progbits
 2235              		.align	2
 2236              		.global	_ZN5zxing5aztec11AztecReaderC2Ev
 2237              		.syntax unified
 2238              		.arm
 2239              		.fpu neon
 2241              	_ZN5zxing5aztec11AztecReaderC2Ev:
 2242              		.fnstart
 2243              	.LFB2260:
  36:../src/zxing_lib/zxing/aztec/AztecReader.cpp ****   // nothing
 2244              		.loc 3 36 0
 2245              		.cfi_startproc
 2246              		.cfi_personality 0,__gxx_personality_v0
 2247              		.cfi_lsda 0,.LLSDA2260
 2248              		@ args = 0, pretend = 0, frame = 0
 2249              		@ frame_needed = 0, uses_anonymous_args = 0
 2250              	.LVL200:
 2251 0000 10402DE9 		push	{r4, lr}
 2252              		.save {r4, lr}
 2253              		.cfi_def_cfa_offset 8
 2254              		.cfi_offset 4, -8
 2255              		.cfi_offset 14, -4
 2256 0004 0040A0E1 		mov	r4, r0
 2257              	.LVL201:
 2258              	.LBB674:
 2259              	.LBB675:
 2260              	.LBB676:
 2261              	.LBB677:
  31:/home/zkmike/workspace/RZA2M/rza2m_2d_barcode_sample_freertos_gcc/src/zxing_lib/zxing/common/Counted.h ****   }
 2262              		.loc 2 31 0
 2263 0008 0030A0E3 		mov	r3, #0
 2264 000c 043080E5 		str	r3, [r0, #4]
 2265              	.LVL202:
 2266              	.LBE677:
 2267              	.LBE676:
 2268              	.LBE675:
  36:../src/zxing_lib/zxing/aztec/AztecReader.cpp ****   // nothing
 2269              		.loc 3 36 0
 2270 0010 1C309FE5 		ldr	r3, .L141
 2271 0014 083080E4 		str	r3, [r0], #8
 2272              	.LVL203:
 2273              	.LEHB12:
 2274 0018 FEFFFFEB 		bl	_ZN5zxing5aztec7DecoderC1Ev
 2275              	.LVL204:
 2276              	.LEHE12:
 2277 001c 020000EA 		b	.L140
 2278              	.L137:
 2279 0020 0400A0E1 		mov	r0, r4
 2280 0024 FEFFFFEB 		bl	_ZN5zxing6ReaderD2Ev
 2281              	.LVL205:
 2282              	.LEHB13:
 2283 0028 FEFFFFEB 		bl	__cxa_end_cleanup
 2284              	.LVL206:
 2285              	.LEHE13:
 2286              	.L140:
 2287              	.LBE674:
  38:../src/zxing_lib/zxing/aztec/AztecReader.cpp ****         
 2288              		.loc 3 38 0
 2289 002c 0400A0E1 		mov	r0, r4
 2290 0030 1080BDE8 		pop	{r4, pc}
 2291              	.L142:
 2292              		.align	2
 2293              	.L141:
 2294 0034 08000000 		.word	.LANCHOR0+8
 2295              		.cfi_endproc
 2296              	.LFE2260:
 2297              		.personality	__gxx_personality_v0
 2298              		.handlerdata
 2299              	.LLSDA2260:
 2300 0008 FF       		.byte	0xff
 2301 0009 FF       		.byte	0xff
 2302 000a 01       		.byte	0x1
 2303 000b 08       		.uleb128 .LLSDACSE2260-.LLSDACSB2260
 2304              	.LLSDACSB2260:
 2305 000c 18       		.uleb128 .LEHB12-.LFB2260
 2306 000d 04       		.uleb128 .LEHE12-.LEHB12
 2307 000e 20       		.uleb128 .L137-.LFB2260
 2308 000f 00       		.uleb128 0
 2309 0010 28       		.uleb128 .LEHB13-.LFB2260
 2310 0011 04       		.uleb128 .LEHE13-.LEHB13
 2311 0012 00       		.uleb128 0
 2312 0013 00       		.uleb128 0
 2313              	.LLSDACSE2260:
 2314              		.section	.text._ZN5zxing5aztec11AztecReaderC2Ev
 2315              		.fnend
 2317              		.global	_ZN5zxing5aztec11AztecReaderC1Ev
 2318              		.set	_ZN5zxing5aztec11AztecReaderC1Ev,_ZN5zxing5aztec11AztecReaderC2Ev
 2319              		.section	.text._ZN5zxing5aztec11AztecReader10getDecoderEv,"ax",%progbits
 2320              		.align	2
 2321              		.global	_ZN5zxing5aztec11AztecReader10getDecoderEv
 2322              		.syntax unified
 2323              		.arm
 2324              		.fpu neon
 2326              	_ZN5zxing5aztec11AztecReader10getDecoderEv:
 2327              		.fnstart
 2328              	.LFB2268:
  66:../src/zxing_lib/zxing/aztec/AztecReader.cpp ****   return decoder_;
 2329              		.loc 3 66 0
 2330              		.cfi_startproc
 2331              		@ args = 0, pretend = 0, frame = 0
 2332              		@ frame_needed = 0, uses_anonymous_args = 0
 2333              		@ link register save eliminated.
 2334              	.LVL207:
 2335              		.loc 3 68 0
 2336 0000 080080E2 		add	r0, r0, #8
 2337              	.LVL208:
 2338 0004 1EFF2FE1 		bx	lr
 2339              		.cfi_endproc
 2340              	.LFE2268:
 2341              		.cantunwind
 2342              		.fnend
 2344              		.section	.text._GLOBAL__sub_I__ZN5zxing5aztec11AztecReaderC2Ev,"ax",%progbits
 2345              		.align	2
 2346              		.syntax unified
 2347              		.arm
 2348              		.fpu neon
 2350              	_GLOBAL__sub_I__ZN5zxing5aztec11AztecReaderC2Ev:
 2351              		.fnstart
 2352              	.LFB2798:
 2353              		.loc 3 68 0
 2354              		.cfi_startproc
 2355              		@ args = 0, pretend = 0, frame = 0
 2356              		@ frame_needed = 0, uses_anonymous_args = 0
 2357 0000 10402DE9 		push	{r4, lr}
 2358              		.cfi_def_cfa_offset 8
 2359              		.cfi_offset 4, -8
 2360              		.cfi_offset 14, -4
 2361              		.loc 3 68 0
 2362 0004 FF1F0FE3 		movw	r1, #65535
 2363 0008 0100A0E3 		mov	r0, #1
 2364 000c FEFFFFEB 		bl	_Z41__static_initialization_and_destruction_0ii
 2365              	.LVL209:
 2366 0010 1080BDE8 		pop	{r4, pc}
 2367              		.cfi_endproc
 2368              	.LFE2798:
 2369              		.cantunwind
 2370              		.fnend
 2372              		.section	.init_array,"aw",%init_array
 2373              		.align	2
 2374 0000 00000000 		.word	_GLOBAL__sub_I__ZN5zxing5aztec11AztecReaderC2Ev(target1)
 2375              		.weak	_ZTSN5zxing5aztec8DetectorE
 2376              		.section	.rodata._ZTSN5zxing5aztec8DetectorE,"aG",%progbits,_ZTSN5zxing5aztec8DetectorE,comdat
 2377              		.align	2
 2380              	_ZTSN5zxing5aztec8DetectorE:
 2381 0000 4E357A78 		.ascii	"N5zxing5aztec8DetectorE\000"
 2381      696E6735 
 2381      617A7465 
 2381      63384465 
 2381      74656374 
 2382              		.weak	_ZTSN5zxing5aztec7DecoderE
 2383              		.section	.rodata._ZTSN5zxing5aztec7DecoderE,"aG",%progbits,_ZTSN5zxing5aztec7DecoderE,comdat
 2384              		.align	2
 2387              	_ZTSN5zxing5aztec7DecoderE:
 2388 0000 4E357A78 		.ascii	"N5zxing5aztec7DecoderE\000"
 2388      696E6735 
 2388      617A7465 
 2388      63374465 
 2388      636F6465 
 2389              		.weak	_ZTSN5zxing7CountedE
 2390              		.section	.rodata._ZTSN5zxing7CountedE,"aG",%progbits,_ZTSN5zxing7CountedE,comdat
 2391              		.align	2
 2394              	_ZTSN5zxing7CountedE:
 2395 0000 4E357A78 		.ascii	"N5zxing7CountedE\000"
 2395      696E6737 
 2395      436F756E 
 2395      74656445 
 2395      00
 2396              		.weak	_ZTIN5zxing7CountedE
 2397              		.section	.rodata._ZTIN5zxing7CountedE,"aG",%progbits,_ZTIN5zxing7CountedE,comdat
 2398              		.align	2
 2401              	_ZTIN5zxing7CountedE:
 2402 0000 08000000 		.word	_ZTVN10__cxxabiv117__class_type_infoE+8
 2403 0004 00000000 		.word	_ZTSN5zxing7CountedE
 2404              		.weak	_ZTSN5zxing8ArrayRefIcEE
 2405              		.section	.rodata._ZTSN5zxing8ArrayRefIcEE,"aG",%progbits,_ZTSN5zxing8ArrayRefIcEE,comdat
 2406              		.align	2
 2409              	_ZTSN5zxing8ArrayRefIcEE:
 2410 0000 4E357A78 		.ascii	"N5zxing8ArrayRefIcEE\000"
 2410      696E6738 
 2410      41727261 
 2410      79526566 
 2410      49634545 
 2411              		.weak	_ZTIN5zxing8ArrayRefIcEE
 2412              		.section	.rodata._ZTIN5zxing8ArrayRefIcEE,"aG",%progbits,_ZTIN5zxing8ArrayRefIcEE,comdat
 2413              		.align	2
 2416              	_ZTIN5zxing8ArrayRefIcEE:
 2417 0000 08000000 		.word	_ZTVN10__cxxabiv120__si_class_type_infoE+8
 2418 0004 00000000 		.word	_ZTSN5zxing8ArrayRefIcEE
 2419 0008 00000000 		.word	_ZTIN5zxing7CountedE
 2420              		.weak	_ZTSN5zxing8ArrayRefINS_3RefINS_11ResultPointEEEEE
 2421              		.section	.rodata._ZTSN5zxing8ArrayRefINS_3RefINS_11ResultPointEEEEE,"aG",%progbits,_ZTSN5zxing8Arr
 2422              		.align	2
 2425              	_ZTSN5zxing8ArrayRefINS_3RefINS_11ResultPointEEEEE:
 2426 0000 4E357A78 		.ascii	"N5zxing8ArrayRefINS_3RefINS_11ResultPointEEEEE\000"
 2426      696E6738 
 2426      41727261 
 2426      79526566 
 2426      494E535F 
 2427              		.weak	_ZTIN5zxing8ArrayRefINS_3RefINS_11ResultPointEEEEE
 2428              		.section	.rodata._ZTIN5zxing8ArrayRefINS_3RefINS_11ResultPointEEEEE,"aG",%progbits,_ZTIN5zxing8Arr
 2429              		.align	2
 2432              	_ZTIN5zxing8ArrayRefINS_3RefINS_11ResultPointEEEEE:
 2433 0000 08000000 		.word	_ZTVN10__cxxabiv120__si_class_type_infoE+8
 2434 0004 00000000 		.word	_ZTSN5zxing8ArrayRefINS_3RefINS_11ResultPointEEEEE
 2435 0008 00000000 		.word	_ZTIN5zxing7CountedE
 2436              		.weak	_ZTIN5zxing5aztec7DecoderE
 2437              		.section	.rodata._ZTIN5zxing5aztec7DecoderE,"aG",%progbits,_ZTIN5zxing5aztec7DecoderE,comdat
 2438              		.align	2
 2441              	_ZTIN5zxing5aztec7DecoderE:
 2442 0000 08000000 		.word	_ZTVN10__cxxabiv120__si_class_type_infoE+8
 2443 0004 00000000 		.word	_ZTSN5zxing5aztec7DecoderE
 2444 0008 00000000 		.word	_ZTIN5zxing7CountedE
 2445              		.global	_ZTSN5zxing5aztec11AztecReaderE
 2446              		.global	_ZTIN5zxing5aztec11AztecReaderE
 2447              		.weak	_ZTIN5zxing5aztec8DetectorE
 2448              		.section	.rodata._ZTIN5zxing5aztec8DetectorE,"aG",%progbits,_ZTIN5zxing5aztec8DetectorE,comdat
 2449              		.align	2
 2452              	_ZTIN5zxing5aztec8DetectorE:
 2453 0000 08000000 		.word	_ZTVN10__cxxabiv120__si_class_type_infoE+8
 2454 0004 00000000 		.word	_ZTSN5zxing5aztec8DetectorE
 2455 0008 00000000 		.word	_ZTIN5zxing7CountedE
 2456              		.weak	_ZTVN5zxing8ArrayRefIcEE
 2457              		.section	.rodata._ZTVN5zxing8ArrayRefIcEE,"aG",%progbits,_ZTVN5zxing8ArrayRefIcEE,comdat
 2458              		.align	2
 2461              	_ZTVN5zxing8ArrayRefIcEE:
 2462 0000 00000000 		.word	0
 2463 0004 00000000 		.word	_ZTIN5zxing8ArrayRefIcEE
 2464 0008 00000000 		.word	_ZN5zxing8ArrayRefIcED1Ev
 2465 000c 00000000 		.word	_ZN5zxing8ArrayRefIcED0Ev
 2466              		.weak	_ZTVN5zxing8ArrayRefINS_3RefINS_11ResultPointEEEEE
 2467              		.section	.rodata._ZTVN5zxing8ArrayRefINS_3RefINS_11ResultPointEEEEE,"aG",%progbits,_ZTVN5zxing8Arr
 2468              		.align	2
 2471              	_ZTVN5zxing8ArrayRefINS_3RefINS_11ResultPointEEEEE:
 2472 0000 00000000 		.word	0
 2473 0004 00000000 		.word	_ZTIN5zxing8ArrayRefINS_3RefINS_11ResultPointEEEEE
 2474 0008 00000000 		.word	_ZN5zxing8ArrayRefINS_3RefINS_11ResultPointEEEED1Ev
 2475 000c 00000000 		.word	_ZN5zxing8ArrayRefINS_3RefINS_11ResultPointEEEED0Ev
 2476              		.weak	_ZTVN5zxing5aztec7DecoderE
 2477              		.section	.rodata._ZTVN5zxing5aztec7DecoderE,"aG",%progbits,_ZTVN5zxing5aztec7DecoderE,comdat
 2478              		.align	2
 2481              	_ZTVN5zxing5aztec7DecoderE:
 2482 0000 00000000 		.word	0
 2483 0004 00000000 		.word	_ZTIN5zxing5aztec7DecoderE
 2484 0008 00000000 		.word	_ZN5zxing5aztec7DecoderD1Ev
 2485 000c 00000000 		.word	_ZN5zxing5aztec7DecoderD0Ev
 2486              		.global	_ZTVN5zxing5aztec11AztecReaderE
 2487              		.weak	_ZTVN5zxing5aztec8DetectorE
 2488              		.section	.rodata._ZTVN5zxing5aztec8DetectorE,"aG",%progbits,_ZTVN5zxing5aztec8DetectorE,comdat
 2489              		.align	2
 2492              	_ZTVN5zxing5aztec8DetectorE:
 2493 0000 00000000 		.word	0
 2494 0004 00000000 		.word	_ZTIN5zxing5aztec8DetectorE
 2495 0008 00000000 		.word	_ZN5zxing5aztec8DetectorD1Ev
 2496 000c 00000000 		.word	_ZN5zxing5aztec8DetectorD0Ev
 2497              		.section	.bss._ZStL8__ioinit,"aw",%nobits
 2498              		.align	2
 2499              		.set	.LANCHOR1,. + 0
 2502              	_ZStL8__ioinit:
 2503 0000 00       		.space	1
 2504              		.section	.rodata._ZTIN5zxing5aztec11AztecReaderE,"a",%progbits
 2505              		.align	2
 2508              	_ZTIN5zxing5aztec11AztecReaderE:
 2509 0000 08000000 		.word	_ZTVN10__cxxabiv120__si_class_type_infoE+8
 2510 0004 00000000 		.word	_ZTSN5zxing5aztec11AztecReaderE
 2511 0008 00000000 		.word	_ZTIN5zxing6ReaderE
 2512              		.section	.rodata._ZTSN5zxing5aztec11AztecReaderE,"a",%progbits
 2513              		.align	2
 2516              	_ZTSN5zxing5aztec11AztecReaderE:
 2517 0000 4E357A78 		.ascii	"N5zxing5aztec11AztecReaderE\000"
 2517      696E6735 
 2517      617A7465 
 2517      63313141 
 2517      7A746563 
 2518              		.section	.rodata._ZTVN5zxing5aztec11AztecReaderE,"a",%progbits
 2519              		.align	2
 2520              		.set	.LANCHOR0,. + 0
 2523              	_ZTVN5zxing5aztec11AztecReaderE:
 2524 0000 00000000 		.word	0
 2525 0004 00000000 		.word	_ZTIN5zxing5aztec11AztecReaderE
 2526 0008 00000000 		.word	_ZN5zxing5aztec11AztecReaderD1Ev
 2527 000c 00000000 		.word	_ZN5zxing5aztec11AztecReaderD0Ev
 2528 0010 00000000 		.word	_ZN5zxing5aztec11AztecReader6decodeENS_3RefINS_12BinaryBitmapEEE
 2529 0014 00000000 		.word	_ZN5zxing5aztec11AztecReader6decodeENS_3RefINS_12BinaryBitmapEEENS_11DecodeHintsE
 2530              		.text
 2531              	.Letext0:
 2532              		.file 7 "/home/zkmike/.local/share/renesas/e2_studio/toolchains/gcc_arm/gcc-arm-none-eabi-6-2017-q
 2533              		.file 8 "/home/zkmike/.local/share/renesas/e2_studio/toolchains/gcc_arm/gcc-arm-none-eabi-6-2017-q
 2534              		.file 9 "/home/zkmike/.local/share/renesas/e2_studio/toolchains/gcc_arm/gcc-arm-none-eabi-6-2017-q
 2535              		.file 10 "/home/zkmike/.local/share/renesas/e2_studio/toolchains/gcc_arm/gcc-arm-none-eabi-6-2017-
 2536              		.file 11 "/home/zkmike/.local/share/renesas/e2_studio/toolchains/gcc_arm/gcc-arm-none-eabi-6-2017-
 2537              		.file 12 "/home/zkmike/.local/share/renesas/e2_studio/toolchains/gcc_arm/gcc-arm-none-eabi-6-2017-
 2538              		.file 13 "/home/zkmike/.local/share/renesas/e2_studio/toolchains/gcc_arm/gcc-arm-none-eabi-6-2017-
 2539              		.file 14 "/home/zkmike/.local/share/renesas/e2_studio/toolchains/gcc_arm/gcc-arm-none-eabi-6-2017-
 2540              		.file 15 "/home/zkmike/.local/share/renesas/e2_studio/toolchains/gcc_arm/gcc-arm-none-eabi-6-2017-
 2541              		.file 16 "/home/zkmike/.local/share/renesas/e2_studio/toolchains/gcc_arm/gcc-arm-none-eabi-6-2017-
 2542              		.file 17 "/home/zkmike/.local/share/renesas/e2_studio/toolchains/gcc_arm/gcc-arm-none-eabi-6-2017-
 2543              		.file 18 "/home/zkmike/.local/share/renesas/e2_studio/toolchains/gcc_arm/gcc-arm-none-eabi-6-2017-
 2544              		.file 19 "/home/zkmike/.local/share/renesas/e2_studio/toolchains/gcc_arm/gcc-arm-none-eabi-6-2017-
 2545              		.file 20 "/home/zkmike/.local/share/renesas/e2_studio/toolchains/gcc_arm/gcc-arm-none-eabi-6-2017-
 2546              		.file 21 "/home/zkmike/.local/share/renesas/e2_studio/toolchains/gcc_arm/gcc-arm-none-eabi-6-2017-
 2547              		.file 22 "/home/zkmike/.local/share/renesas/e2_studio/toolchains/gcc_arm/gcc-arm-none-eabi-6-2017-
 2548              		.file 23 "/home/zkmike/.local/share/renesas/e2_studio/toolchains/gcc_arm/gcc-arm-none-eabi-6-2017-
 2549              		.file 24 "/home/zkmike/.local/share/renesas/e2_studio/toolchains/gcc_arm/gcc-arm-none-eabi-6-2017-
 2550              		.file 25 "/home/zkmike/.local/share/renesas/e2_studio/toolchains/gcc_arm/gcc-arm-none-eabi-6-2017-
 2551              		.file 26 "/home/zkmike/.local/share/renesas/e2_studio/toolchains/gcc_arm/gcc-arm-none-eabi-6-2017-
 2552              		.file 27 "/home/zkmike/.local/share/renesas/e2_studio/toolchains/gcc_arm/gcc-arm-none-eabi-6-2017-
 2553              		.file 28 "/home/zkmike/.local/share/renesas/e2_studio/toolchains/gcc_arm/gcc-arm-none-eabi-6-2017-
 2554              		.file 29 "/home/zkmike/.local/share/renesas/e2_studio/toolchains/gcc_arm/gcc-arm-none-eabi-6-2017-
 2555              		.file 30 "/home/zkmike/.local/share/renesas/e2_studio/toolchains/gcc_arm/gcc-arm-none-eabi-6-2017-
 2556              		.file 31 "/home/zkmike/.local/share/renesas/e2_studio/toolchains/gcc_arm/gcc-arm-none-eabi-6-2017-
 2557              		.file 32 "/home/zkmike/.local/share/renesas/e2_studio/toolchains/gcc_arm/gcc-arm-none-eabi-6-2017-
 2558              		.file 33 "/home/zkmike/.local/share/renesas/e2_studio/toolchains/gcc_arm/gcc-arm-none-eabi-6-2017-
 2559              		.file 34 "<built-in>"
 2560              		.file 35 "/home/zkmike/.local/share/renesas/e2_studio/toolchains/gcc_arm/gcc-arm-none-eabi-6-2017-
 2561              		.file 36 "/home/zkmike/.local/share/renesas/e2_studio/toolchains/gcc_arm/gcc-arm-none-eabi-6-2017-
 2562              		.file 37 "/home/zkmike/.local/share/renesas/e2_studio/toolchains/gcc_arm/gcc-arm-none-eabi-6-2017-
 2563              		.file 38 "/home/zkmike/.local/share/renesas/e2_studio/toolchains/gcc_arm/gcc-arm-none-eabi-6-2017-
 2564              		.file 39 "/home/zkmike/.local/share/renesas/e2_studio/toolchains/gcc_arm/gcc-arm-none-eabi-6-2017-
 2565              		.file 40 "/home/zkmike/.local/share/renesas/e2_studio/toolchains/gcc_arm/gcc-arm-none-eabi-6-2017-
 2566              		.file 41 "/home/zkmike/.local/share/renesas/e2_studio/toolchains/gcc_arm/gcc-arm-none-eabi-6-2017-
 2567              		.file 42 "/home/zkmike/.local/share/renesas/e2_studio/toolchains/gcc_arm/gcc-arm-none-eabi-6-2017-
 2568              		.file 43 "/home/zkmike/.local/share/renesas/e2_studio/toolchains/gcc_arm/gcc-arm-none-eabi-6-2017-
 2569              		.file 44 "/home/zkmike/.local/share/renesas/e2_studio/toolchains/gcc_arm/gcc-arm-none-eabi-6-2017-
 2570              		.file 45 "/home/zkmike/.local/share/renesas/e2_studio/toolchains/gcc_arm/gcc-arm-none-eabi-6-2017-
 2571              		.file 46 "/home/zkmike/workspace/RZA2M/rza2m_2d_barcode_sample_freertos_gcc/src/zxing_lib/zxing/Ba
 2572              		.file 47 "/home/zkmike/workspace/RZA2M/rza2m_2d_barcode_sample_freertos_gcc/src/zxing_lib/zxing/De
 2573              		.file 48 "/home/zkmike/workspace/RZA2M/rza2m_2d_barcode_sample_freertos_gcc/src/zxing_lib/zxing/az
 2574              		.file 49 "/home/zkmike/workspace/RZA2M/rza2m_2d_barcode_sample_freertos_gcc/src/zxing_lib/zxing/az
 2575              		.file 50 "/home/zkmike/workspace/RZA2M/rza2m_2d_barcode_sample_freertos_gcc/src/zxing_lib/zxing/Bi
 2576              		.file 51 "/home/zkmike/workspace/RZA2M/rza2m_2d_barcode_sample_freertos_gcc/src/zxing_lib/zxing/co
 2577              		.file 52 "/home/zkmike/workspace/RZA2M/rza2m_2d_barcode_sample_freertos_gcc/src/zxing_lib/zxing/Re