   1              		.cpu cortex-a9
   2              		.eabi_attribute 28, 1
   3              		.eabi_attribute 20, 1
   4              		.eabi_attribute 21, 1
   5              		.eabi_attribute 23, 3
   6              		.eabi_attribute 24, 1
   7              		.eabi_attribute 25, 1
   8              		.eabi_attribute 26, 1
   9              		.eabi_attribute 30, 1
  10              		.eabi_attribute 34, 0
  11              		.eabi_attribute 18, 4
  12              		.file	"PDF417Reader.cpp"
  13              		.text
  14              	.Ltext0:
  15              		.cfi_sections	.debug_frame
  16              		.section	.text._ZNK5zxing9Exception4whatEv,"axG",%progbits,_ZNK5zxing9Exception4whatEv,comdat
  17              		.align	2
  18              		.weak	_ZNK5zxing9Exception4whatEv
  19              		.syntax unified
  20              		.arm
  21              		.fpu neon
  23              	_ZNK5zxing9Exception4whatEv:
  24              		.fnstart
  25              	.LFB1871:
  26              		.file 1 "/home/zkmike/workspace/RZA2M/rza2m_2d_barcode_sample_freertos_gcc/src/zxing_lib/zxing/Exc
   1:/home/zkmike/workspace/RZA2M/rza2m_2d_barcode_sample_freertos_gcc/src/zxing_lib/zxing/Exception.h **** // -*- mode:c++; tab-width:2; indent-tabs-mode:nil; c-basic-offset:2 -*-
   2:/home/zkmike/workspace/RZA2M/rza2m_2d_barcode_sample_freertos_gcc/src/zxing_lib/zxing/Exception.h **** #ifndef __EXCEPTION_H__
   3:/home/zkmike/workspace/RZA2M/rza2m_2d_barcode_sample_freertos_gcc/src/zxing_lib/zxing/Exception.h **** #define __EXCEPTION_H__
   4:/home/zkmike/workspace/RZA2M/rza2m_2d_barcode_sample_freertos_gcc/src/zxing_lib/zxing/Exception.h **** 
   5:/home/zkmike/workspace/RZA2M/rza2m_2d_barcode_sample_freertos_gcc/src/zxing_lib/zxing/Exception.h **** /*
   6:/home/zkmike/workspace/RZA2M/rza2m_2d_barcode_sample_freertos_gcc/src/zxing_lib/zxing/Exception.h ****  *  Exception.h
   7:/home/zkmike/workspace/RZA2M/rza2m_2d_barcode_sample_freertos_gcc/src/zxing_lib/zxing/Exception.h ****  *  ZXing
   8:/home/zkmike/workspace/RZA2M/rza2m_2d_barcode_sample_freertos_gcc/src/zxing_lib/zxing/Exception.h ****  *
   9:/home/zkmike/workspace/RZA2M/rza2m_2d_barcode_sample_freertos_gcc/src/zxing_lib/zxing/Exception.h ****  *  Copyright 2010 ZXing authors All rights reserved.
  10:/home/zkmike/workspace/RZA2M/rza2m_2d_barcode_sample_freertos_gcc/src/zxing_lib/zxing/Exception.h ****  *
  11:/home/zkmike/workspace/RZA2M/rza2m_2d_barcode_sample_freertos_gcc/src/zxing_lib/zxing/Exception.h ****  * Licensed under the Apache License, Version 2.0 (the "License");
  12:/home/zkmike/workspace/RZA2M/rza2m_2d_barcode_sample_freertos_gcc/src/zxing_lib/zxing/Exception.h ****  * you may not use this file except in compliance with the License.
  13:/home/zkmike/workspace/RZA2M/rza2m_2d_barcode_sample_freertos_gcc/src/zxing_lib/zxing/Exception.h ****  * You may obtain a copy of the License at
  14:/home/zkmike/workspace/RZA2M/rza2m_2d_barcode_sample_freertos_gcc/src/zxing_lib/zxing/Exception.h ****  *
  15:/home/zkmike/workspace/RZA2M/rza2m_2d_barcode_sample_freertos_gcc/src/zxing_lib/zxing/Exception.h ****  *      http://www.apache.org/licenses/LICENSE-2.0
  16:/home/zkmike/workspace/RZA2M/rza2m_2d_barcode_sample_freertos_gcc/src/zxing_lib/zxing/Exception.h ****  *
  17:/home/zkmike/workspace/RZA2M/rza2m_2d_barcode_sample_freertos_gcc/src/zxing_lib/zxing/Exception.h ****  * Unless required by applicable law or agreed to in writing, software
  18:/home/zkmike/workspace/RZA2M/rza2m_2d_barcode_sample_freertos_gcc/src/zxing_lib/zxing/Exception.h ****  * distributed under the License is distributed on an "AS IS" BASIS,
  19:/home/zkmike/workspace/RZA2M/rza2m_2d_barcode_sample_freertos_gcc/src/zxing_lib/zxing/Exception.h ****  * WITHOUT WARRANTIES OR CONDITIONS OF ANY KIND, either express or implied.
  20:/home/zkmike/workspace/RZA2M/rza2m_2d_barcode_sample_freertos_gcc/src/zxing_lib/zxing/Exception.h ****  * See the License for the specific language governing permissions and
  21:/home/zkmike/workspace/RZA2M/rza2m_2d_barcode_sample_freertos_gcc/src/zxing_lib/zxing/Exception.h ****  * limitations under the License.
  22:/home/zkmike/workspace/RZA2M/rza2m_2d_barcode_sample_freertos_gcc/src/zxing_lib/zxing/Exception.h ****  */
  23:/home/zkmike/workspace/RZA2M/rza2m_2d_barcode_sample_freertos_gcc/src/zxing_lib/zxing/Exception.h **** 
  24:/home/zkmike/workspace/RZA2M/rza2m_2d_barcode_sample_freertos_gcc/src/zxing_lib/zxing/Exception.h **** #include <string>
  25:/home/zkmike/workspace/RZA2M/rza2m_2d_barcode_sample_freertos_gcc/src/zxing_lib/zxing/Exception.h **** #include <exception>
  26:/home/zkmike/workspace/RZA2M/rza2m_2d_barcode_sample_freertos_gcc/src/zxing_lib/zxing/Exception.h **** 
  27:/home/zkmike/workspace/RZA2M/rza2m_2d_barcode_sample_freertos_gcc/src/zxing_lib/zxing/Exception.h **** namespace zxing {
  28:/home/zkmike/workspace/RZA2M/rza2m_2d_barcode_sample_freertos_gcc/src/zxing_lib/zxing/Exception.h **** 
  29:/home/zkmike/workspace/RZA2M/rza2m_2d_barcode_sample_freertos_gcc/src/zxing_lib/zxing/Exception.h **** class Exception : public std::exception {
  30:/home/zkmike/workspace/RZA2M/rza2m_2d_barcode_sample_freertos_gcc/src/zxing_lib/zxing/Exception.h **** private:
  31:/home/zkmike/workspace/RZA2M/rza2m_2d_barcode_sample_freertos_gcc/src/zxing_lib/zxing/Exception.h ****   char const* const message;
  32:/home/zkmike/workspace/RZA2M/rza2m_2d_barcode_sample_freertos_gcc/src/zxing_lib/zxing/Exception.h **** 
  33:/home/zkmike/workspace/RZA2M/rza2m_2d_barcode_sample_freertos_gcc/src/zxing_lib/zxing/Exception.h **** public:
  34:/home/zkmike/workspace/RZA2M/rza2m_2d_barcode_sample_freertos_gcc/src/zxing_lib/zxing/Exception.h ****   Exception() throw() : message(0) {}
  35:/home/zkmike/workspace/RZA2M/rza2m_2d_barcode_sample_freertos_gcc/src/zxing_lib/zxing/Exception.h ****   Exception(const char* msg) throw() : message(copy(msg)) {}
  36:/home/zkmike/workspace/RZA2M/rza2m_2d_barcode_sample_freertos_gcc/src/zxing_lib/zxing/Exception.h ****   Exception(Exception const& that) throw() : std::exception(that), message(copy(that.message)) {}
  37:/home/zkmike/workspace/RZA2M/rza2m_2d_barcode_sample_freertos_gcc/src/zxing_lib/zxing/Exception.h ****   ~Exception() throw() {
  38:/home/zkmike/workspace/RZA2M/rza2m_2d_barcode_sample_freertos_gcc/src/zxing_lib/zxing/Exception.h ****     if(message) {
  39:/home/zkmike/workspace/RZA2M/rza2m_2d_barcode_sample_freertos_gcc/src/zxing_lib/zxing/Exception.h ****       deleteMessage();
  40:/home/zkmike/workspace/RZA2M/rza2m_2d_barcode_sample_freertos_gcc/src/zxing_lib/zxing/Exception.h ****     }
  41:/home/zkmike/workspace/RZA2M/rza2m_2d_barcode_sample_freertos_gcc/src/zxing_lib/zxing/Exception.h ****   }
  42:/home/zkmike/workspace/RZA2M/rza2m_2d_barcode_sample_freertos_gcc/src/zxing_lib/zxing/Exception.h ****   char const* what() const throw() {return message ? message : "";}
  27              		.loc 1 42 0
  28              		.cfi_startproc
  29              		@ args = 0, pretend = 0, frame = 0
  30              		@ frame_needed = 0, uses_anonymous_args = 0
  31              		@ link register save eliminated.
  32              	.LVL0:
  33              		.loc 1 42 0
  34 0000 040090E5 		ldr	r0, [r0, #4]
  35              	.LVL1:
  36 0004 000050E3 		cmp	r0, #0
  37 0008 1EFF2F11 		bxne	lr
  38 000c 000000E3 		movw	r0, #:lower16:.LC0
  39 0010 000040E3 		movt	r0, #:upper16:.LC0
  40 0014 1EFF2FE1 		bx	lr
  41              		.cfi_endproc
  42              	.LFE1871:
  43              		.cantunwind
  44              		.fnend
  46              		.section	.text._ZN5zxing8ArrayRefINS_3RefINS_11ResultPointEEEED2Ev,"axG",%progbits,_ZN5zxing8Array
  47              		.align	2
  48              		.weak	_ZN5zxing8ArrayRefINS_3RefINS_11ResultPointEEEED2Ev
  49              		.syntax unified
  50              		.arm
  51              		.fpu neon
  53              	_ZN5zxing8ArrayRefINS_3RefINS_11ResultPointEEEED2Ev:
  54              		.fnstart
  55              	.LFB2528:
  56              		.file 2 "/home/zkmike/workspace/RZA2M/rza2m_2d_barcode_sample_freertos_gcc/src/zxing_lib/zxing/com
   1:/home/zkmike/workspace/RZA2M/rza2m_2d_barcode_sample_freertos_gcc/src/zxing_lib/zxing/common/Array.h **** // -*- mode:c++; tab-width:2; indent-tabs-mode:nil; c-basic-offset:2 -*-
   2:/home/zkmike/workspace/RZA2M/rza2m_2d_barcode_sample_freertos_gcc/src/zxing_lib/zxing/common/Array.h **** #ifndef __ARRAY_H__
   3:/home/zkmike/workspace/RZA2M/rza2m_2d_barcode_sample_freertos_gcc/src/zxing_lib/zxing/common/Array.h **** #define __ARRAY_H__
   4:/home/zkmike/workspace/RZA2M/rza2m_2d_barcode_sample_freertos_gcc/src/zxing_lib/zxing/common/Array.h **** 
   5:/home/zkmike/workspace/RZA2M/rza2m_2d_barcode_sample_freertos_gcc/src/zxing_lib/zxing/common/Array.h **** /*
   6:/home/zkmike/workspace/RZA2M/rza2m_2d_barcode_sample_freertos_gcc/src/zxing_lib/zxing/common/Array.h ****  *  Array.h
   7:/home/zkmike/workspace/RZA2M/rza2m_2d_barcode_sample_freertos_gcc/src/zxing_lib/zxing/common/Array.h ****  *  zxing
   8:/home/zkmike/workspace/RZA2M/rza2m_2d_barcode_sample_freertos_gcc/src/zxing_lib/zxing/common/Array.h ****  *
   9:/home/zkmike/workspace/RZA2M/rza2m_2d_barcode_sample_freertos_gcc/src/zxing_lib/zxing/common/Array.h ****  *  Copyright 2010 ZXing authors All rights reserved.
  10:/home/zkmike/workspace/RZA2M/rza2m_2d_barcode_sample_freertos_gcc/src/zxing_lib/zxing/common/Array.h ****  *
  11:/home/zkmike/workspace/RZA2M/rza2m_2d_barcode_sample_freertos_gcc/src/zxing_lib/zxing/common/Array.h ****  * Licensed under the Apache License, Version 2.0 (the "License");
  12:/home/zkmike/workspace/RZA2M/rza2m_2d_barcode_sample_freertos_gcc/src/zxing_lib/zxing/common/Array.h ****  * you may not use this file except in compliance with the License.
  13:/home/zkmike/workspace/RZA2M/rza2m_2d_barcode_sample_freertos_gcc/src/zxing_lib/zxing/common/Array.h ****  * You may obtain a copy of the License at
  14:/home/zkmike/workspace/RZA2M/rza2m_2d_barcode_sample_freertos_gcc/src/zxing_lib/zxing/common/Array.h ****  *
  15:/home/zkmike/workspace/RZA2M/rza2m_2d_barcode_sample_freertos_gcc/src/zxing_lib/zxing/common/Array.h ****  *      http://www.apache.org/licenses/LICENSE-2.0
  16:/home/zkmike/workspace/RZA2M/rza2m_2d_barcode_sample_freertos_gcc/src/zxing_lib/zxing/common/Array.h ****  *
  17:/home/zkmike/workspace/RZA2M/rza2m_2d_barcode_sample_freertos_gcc/src/zxing_lib/zxing/common/Array.h ****  * Unless required by applicable law or agreed to in writing, software
  18:/home/zkmike/workspace/RZA2M/rza2m_2d_barcode_sample_freertos_gcc/src/zxing_lib/zxing/common/Array.h ****  * distributed under the License is distributed on an "AS IS" BASIS,
  19:/home/zkmike/workspace/RZA2M/rza2m_2d_barcode_sample_freertos_gcc/src/zxing_lib/zxing/common/Array.h ****  * WITHOUT WARRANTIES OR CONDITIONS OF ANY KIND, either express or implied.
  20:/home/zkmike/workspace/RZA2M/rza2m_2d_barcode_sample_freertos_gcc/src/zxing_lib/zxing/common/Array.h ****  * See the License for the specific language governing permissions and
  21:/home/zkmike/workspace/RZA2M/rza2m_2d_barcode_sample_freertos_gcc/src/zxing_lib/zxing/common/Array.h ****  * limitations under the License.
  22:/home/zkmike/workspace/RZA2M/rza2m_2d_barcode_sample_freertos_gcc/src/zxing_lib/zxing/common/Array.h ****  */
  23:/home/zkmike/workspace/RZA2M/rza2m_2d_barcode_sample_freertos_gcc/src/zxing_lib/zxing/common/Array.h **** 
  24:/home/zkmike/workspace/RZA2M/rza2m_2d_barcode_sample_freertos_gcc/src/zxing_lib/zxing/common/Array.h **** #include <vector>
  25:/home/zkmike/workspace/RZA2M/rza2m_2d_barcode_sample_freertos_gcc/src/zxing_lib/zxing/common/Array.h **** 
  26:/home/zkmike/workspace/RZA2M/rza2m_2d_barcode_sample_freertos_gcc/src/zxing_lib/zxing/common/Array.h **** #include <zxing/common/Counted.h>
  27:/home/zkmike/workspace/RZA2M/rza2m_2d_barcode_sample_freertos_gcc/src/zxing_lib/zxing/common/Array.h **** 
  28:/home/zkmike/workspace/RZA2M/rza2m_2d_barcode_sample_freertos_gcc/src/zxing_lib/zxing/common/Array.h **** namespace zxing {
  29:/home/zkmike/workspace/RZA2M/rza2m_2d_barcode_sample_freertos_gcc/src/zxing_lib/zxing/common/Array.h **** 
  30:/home/zkmike/workspace/RZA2M/rza2m_2d_barcode_sample_freertos_gcc/src/zxing_lib/zxing/common/Array.h **** template<typename T> class Array : public Counted {
  31:/home/zkmike/workspace/RZA2M/rza2m_2d_barcode_sample_freertos_gcc/src/zxing_lib/zxing/common/Array.h **** protected:
  32:/home/zkmike/workspace/RZA2M/rza2m_2d_barcode_sample_freertos_gcc/src/zxing_lib/zxing/common/Array.h **** public:
  33:/home/zkmike/workspace/RZA2M/rza2m_2d_barcode_sample_freertos_gcc/src/zxing_lib/zxing/common/Array.h ****   std::vector<T> values_;
  34:/home/zkmike/workspace/RZA2M/rza2m_2d_barcode_sample_freertos_gcc/src/zxing_lib/zxing/common/Array.h ****   Array() {}
  35:/home/zkmike/workspace/RZA2M/rza2m_2d_barcode_sample_freertos_gcc/src/zxing_lib/zxing/common/Array.h ****   Array(int n) :
  36:/home/zkmike/workspace/RZA2M/rza2m_2d_barcode_sample_freertos_gcc/src/zxing_lib/zxing/common/Array.h ****       Counted(), values_(n, T()) {
  37:/home/zkmike/workspace/RZA2M/rza2m_2d_barcode_sample_freertos_gcc/src/zxing_lib/zxing/common/Array.h ****   }
  38:/home/zkmike/workspace/RZA2M/rza2m_2d_barcode_sample_freertos_gcc/src/zxing_lib/zxing/common/Array.h ****   Array(T const* ts, int n) :
  39:/home/zkmike/workspace/RZA2M/rza2m_2d_barcode_sample_freertos_gcc/src/zxing_lib/zxing/common/Array.h ****       Counted(), values_(ts, ts+n) {
  40:/home/zkmike/workspace/RZA2M/rza2m_2d_barcode_sample_freertos_gcc/src/zxing_lib/zxing/common/Array.h ****   }
  41:/home/zkmike/workspace/RZA2M/rza2m_2d_barcode_sample_freertos_gcc/src/zxing_lib/zxing/common/Array.h ****   Array(T const* ts, T const* te) :
  42:/home/zkmike/workspace/RZA2M/rza2m_2d_barcode_sample_freertos_gcc/src/zxing_lib/zxing/common/Array.h ****       Counted(), values_(ts, te) {
  43:/home/zkmike/workspace/RZA2M/rza2m_2d_barcode_sample_freertos_gcc/src/zxing_lib/zxing/common/Array.h ****   }
  44:/home/zkmike/workspace/RZA2M/rza2m_2d_barcode_sample_freertos_gcc/src/zxing_lib/zxing/common/Array.h ****   Array(T v, int n) :
  45:/home/zkmike/workspace/RZA2M/rza2m_2d_barcode_sample_freertos_gcc/src/zxing_lib/zxing/common/Array.h ****       Counted(), values_(n, v) {
  46:/home/zkmike/workspace/RZA2M/rza2m_2d_barcode_sample_freertos_gcc/src/zxing_lib/zxing/common/Array.h ****   }
  47:/home/zkmike/workspace/RZA2M/rza2m_2d_barcode_sample_freertos_gcc/src/zxing_lib/zxing/common/Array.h ****   Array(std::vector<T> &v) :
  48:/home/zkmike/workspace/RZA2M/rza2m_2d_barcode_sample_freertos_gcc/src/zxing_lib/zxing/common/Array.h ****       Counted(), values_(v) {
  49:/home/zkmike/workspace/RZA2M/rza2m_2d_barcode_sample_freertos_gcc/src/zxing_lib/zxing/common/Array.h ****   }
  50:/home/zkmike/workspace/RZA2M/rza2m_2d_barcode_sample_freertos_gcc/src/zxing_lib/zxing/common/Array.h ****   Array(Array<T> &other) :
  51:/home/zkmike/workspace/RZA2M/rza2m_2d_barcode_sample_freertos_gcc/src/zxing_lib/zxing/common/Array.h ****       Counted(), values_(other.values_) {
  52:/home/zkmike/workspace/RZA2M/rza2m_2d_barcode_sample_freertos_gcc/src/zxing_lib/zxing/common/Array.h ****   }
  53:/home/zkmike/workspace/RZA2M/rza2m_2d_barcode_sample_freertos_gcc/src/zxing_lib/zxing/common/Array.h ****   Array(Array<T> *other) :
  54:/home/zkmike/workspace/RZA2M/rza2m_2d_barcode_sample_freertos_gcc/src/zxing_lib/zxing/common/Array.h ****       Counted(), values_(other->values_) {
  55:/home/zkmike/workspace/RZA2M/rza2m_2d_barcode_sample_freertos_gcc/src/zxing_lib/zxing/common/Array.h ****   }
  56:/home/zkmike/workspace/RZA2M/rza2m_2d_barcode_sample_freertos_gcc/src/zxing_lib/zxing/common/Array.h ****   virtual ~Array() {
  57:/home/zkmike/workspace/RZA2M/rza2m_2d_barcode_sample_freertos_gcc/src/zxing_lib/zxing/common/Array.h ****   }
  58:/home/zkmike/workspace/RZA2M/rza2m_2d_barcode_sample_freertos_gcc/src/zxing_lib/zxing/common/Array.h ****   Array<T>& operator=(const Array<T> &other) {
  59:/home/zkmike/workspace/RZA2M/rza2m_2d_barcode_sample_freertos_gcc/src/zxing_lib/zxing/common/Array.h ****     values_ = other.values_;
  60:/home/zkmike/workspace/RZA2M/rza2m_2d_barcode_sample_freertos_gcc/src/zxing_lib/zxing/common/Array.h ****     return *this;
  61:/home/zkmike/workspace/RZA2M/rza2m_2d_barcode_sample_freertos_gcc/src/zxing_lib/zxing/common/Array.h ****   }
  62:/home/zkmike/workspace/RZA2M/rza2m_2d_barcode_sample_freertos_gcc/src/zxing_lib/zxing/common/Array.h ****   Array<T>& operator=(const std::vector<T> &array) {
  63:/home/zkmike/workspace/RZA2M/rza2m_2d_barcode_sample_freertos_gcc/src/zxing_lib/zxing/common/Array.h ****     values_ = array;
  64:/home/zkmike/workspace/RZA2M/rza2m_2d_barcode_sample_freertos_gcc/src/zxing_lib/zxing/common/Array.h ****     return *this;
  65:/home/zkmike/workspace/RZA2M/rza2m_2d_barcode_sample_freertos_gcc/src/zxing_lib/zxing/common/Array.h ****   }
  66:/home/zkmike/workspace/RZA2M/rza2m_2d_barcode_sample_freertos_gcc/src/zxing_lib/zxing/common/Array.h ****   T const& operator[](int i) const {
  67:/home/zkmike/workspace/RZA2M/rza2m_2d_barcode_sample_freertos_gcc/src/zxing_lib/zxing/common/Array.h ****     return values_[i];
  68:/home/zkmike/workspace/RZA2M/rza2m_2d_barcode_sample_freertos_gcc/src/zxing_lib/zxing/common/Array.h ****   }
  69:/home/zkmike/workspace/RZA2M/rza2m_2d_barcode_sample_freertos_gcc/src/zxing_lib/zxing/common/Array.h ****   T& operator[](int i) {
  70:/home/zkmike/workspace/RZA2M/rza2m_2d_barcode_sample_freertos_gcc/src/zxing_lib/zxing/common/Array.h ****     return values_[i];
  71:/home/zkmike/workspace/RZA2M/rza2m_2d_barcode_sample_freertos_gcc/src/zxing_lib/zxing/common/Array.h ****   }
  72:/home/zkmike/workspace/RZA2M/rza2m_2d_barcode_sample_freertos_gcc/src/zxing_lib/zxing/common/Array.h ****   int size() const {
  73:/home/zkmike/workspace/RZA2M/rza2m_2d_barcode_sample_freertos_gcc/src/zxing_lib/zxing/common/Array.h ****     return values_.size();
  74:/home/zkmike/workspace/RZA2M/rza2m_2d_barcode_sample_freertos_gcc/src/zxing_lib/zxing/common/Array.h ****   }
  75:/home/zkmike/workspace/RZA2M/rza2m_2d_barcode_sample_freertos_gcc/src/zxing_lib/zxing/common/Array.h ****   bool empty() const {
  76:/home/zkmike/workspace/RZA2M/rza2m_2d_barcode_sample_freertos_gcc/src/zxing_lib/zxing/common/Array.h ****     return values_.size() == 0;
  77:/home/zkmike/workspace/RZA2M/rza2m_2d_barcode_sample_freertos_gcc/src/zxing_lib/zxing/common/Array.h ****   }
  78:/home/zkmike/workspace/RZA2M/rza2m_2d_barcode_sample_freertos_gcc/src/zxing_lib/zxing/common/Array.h ****   std::vector<T> const& values() const {
  79:/home/zkmike/workspace/RZA2M/rza2m_2d_barcode_sample_freertos_gcc/src/zxing_lib/zxing/common/Array.h ****     return values_;
  80:/home/zkmike/workspace/RZA2M/rza2m_2d_barcode_sample_freertos_gcc/src/zxing_lib/zxing/common/Array.h ****   }
  81:/home/zkmike/workspace/RZA2M/rza2m_2d_barcode_sample_freertos_gcc/src/zxing_lib/zxing/common/Array.h ****   std::vector<T>& values() {
  82:/home/zkmike/workspace/RZA2M/rza2m_2d_barcode_sample_freertos_gcc/src/zxing_lib/zxing/common/Array.h ****     return values_;
  83:/home/zkmike/workspace/RZA2M/rza2m_2d_barcode_sample_freertos_gcc/src/zxing_lib/zxing/common/Array.h ****   }
  84:/home/zkmike/workspace/RZA2M/rza2m_2d_barcode_sample_freertos_gcc/src/zxing_lib/zxing/common/Array.h **** };
  85:/home/zkmike/workspace/RZA2M/rza2m_2d_barcode_sample_freertos_gcc/src/zxing_lib/zxing/common/Array.h **** 
  86:/home/zkmike/workspace/RZA2M/rza2m_2d_barcode_sample_freertos_gcc/src/zxing_lib/zxing/common/Array.h **** template<typename T> class ArrayRef : public Counted {
  87:/home/zkmike/workspace/RZA2M/rza2m_2d_barcode_sample_freertos_gcc/src/zxing_lib/zxing/common/Array.h **** private:
  88:/home/zkmike/workspace/RZA2M/rza2m_2d_barcode_sample_freertos_gcc/src/zxing_lib/zxing/common/Array.h **** public:
  89:/home/zkmike/workspace/RZA2M/rza2m_2d_barcode_sample_freertos_gcc/src/zxing_lib/zxing/common/Array.h ****   Array<T> *array_;
  90:/home/zkmike/workspace/RZA2M/rza2m_2d_barcode_sample_freertos_gcc/src/zxing_lib/zxing/common/Array.h ****   ArrayRef() :
  91:/home/zkmike/workspace/RZA2M/rza2m_2d_barcode_sample_freertos_gcc/src/zxing_lib/zxing/common/Array.h ****       array_(0) {
  92:/home/zkmike/workspace/RZA2M/rza2m_2d_barcode_sample_freertos_gcc/src/zxing_lib/zxing/common/Array.h ****   }
  93:/home/zkmike/workspace/RZA2M/rza2m_2d_barcode_sample_freertos_gcc/src/zxing_lib/zxing/common/Array.h ****   explicit ArrayRef(int n) :
  94:/home/zkmike/workspace/RZA2M/rza2m_2d_barcode_sample_freertos_gcc/src/zxing_lib/zxing/common/Array.h ****       array_(0) {
  95:/home/zkmike/workspace/RZA2M/rza2m_2d_barcode_sample_freertos_gcc/src/zxing_lib/zxing/common/Array.h ****     reset(new Array<T> (n));
  96:/home/zkmike/workspace/RZA2M/rza2m_2d_barcode_sample_freertos_gcc/src/zxing_lib/zxing/common/Array.h ****   }
  97:/home/zkmike/workspace/RZA2M/rza2m_2d_barcode_sample_freertos_gcc/src/zxing_lib/zxing/common/Array.h ****   ArrayRef(T *ts, int n) :
  98:/home/zkmike/workspace/RZA2M/rza2m_2d_barcode_sample_freertos_gcc/src/zxing_lib/zxing/common/Array.h ****       array_(0) {
  99:/home/zkmike/workspace/RZA2M/rza2m_2d_barcode_sample_freertos_gcc/src/zxing_lib/zxing/common/Array.h ****     reset(new Array<T> (ts, n));
 100:/home/zkmike/workspace/RZA2M/rza2m_2d_barcode_sample_freertos_gcc/src/zxing_lib/zxing/common/Array.h ****   }
 101:/home/zkmike/workspace/RZA2M/rza2m_2d_barcode_sample_freertos_gcc/src/zxing_lib/zxing/common/Array.h ****   ArrayRef(Array<T> *a) :
 102:/home/zkmike/workspace/RZA2M/rza2m_2d_barcode_sample_freertos_gcc/src/zxing_lib/zxing/common/Array.h ****       array_(0) {
 103:/home/zkmike/workspace/RZA2M/rza2m_2d_barcode_sample_freertos_gcc/src/zxing_lib/zxing/common/Array.h ****     reset(a);
 104:/home/zkmike/workspace/RZA2M/rza2m_2d_barcode_sample_freertos_gcc/src/zxing_lib/zxing/common/Array.h ****   }
 105:/home/zkmike/workspace/RZA2M/rza2m_2d_barcode_sample_freertos_gcc/src/zxing_lib/zxing/common/Array.h ****   ArrayRef(const ArrayRef &other) :
 106:/home/zkmike/workspace/RZA2M/rza2m_2d_barcode_sample_freertos_gcc/src/zxing_lib/zxing/common/Array.h ****       Counted(), array_(0) {
 107:/home/zkmike/workspace/RZA2M/rza2m_2d_barcode_sample_freertos_gcc/src/zxing_lib/zxing/common/Array.h ****     reset(other.array_);
 108:/home/zkmike/workspace/RZA2M/rza2m_2d_barcode_sample_freertos_gcc/src/zxing_lib/zxing/common/Array.h ****   }
 109:/home/zkmike/workspace/RZA2M/rza2m_2d_barcode_sample_freertos_gcc/src/zxing_lib/zxing/common/Array.h **** 
 110:/home/zkmike/workspace/RZA2M/rza2m_2d_barcode_sample_freertos_gcc/src/zxing_lib/zxing/common/Array.h ****   template<class Y>
 111:/home/zkmike/workspace/RZA2M/rza2m_2d_barcode_sample_freertos_gcc/src/zxing_lib/zxing/common/Array.h ****   ArrayRef(const ArrayRef<Y> &other) :
 112:/home/zkmike/workspace/RZA2M/rza2m_2d_barcode_sample_freertos_gcc/src/zxing_lib/zxing/common/Array.h ****       array_(0) {
 113:/home/zkmike/workspace/RZA2M/rza2m_2d_barcode_sample_freertos_gcc/src/zxing_lib/zxing/common/Array.h ****     reset(static_cast<const Array<T> *>(other.array_));
 114:/home/zkmike/workspace/RZA2M/rza2m_2d_barcode_sample_freertos_gcc/src/zxing_lib/zxing/common/Array.h ****   }
 115:/home/zkmike/workspace/RZA2M/rza2m_2d_barcode_sample_freertos_gcc/src/zxing_lib/zxing/common/Array.h **** 
 116:/home/zkmike/workspace/RZA2M/rza2m_2d_barcode_sample_freertos_gcc/src/zxing_lib/zxing/common/Array.h ****   ~ArrayRef() {
  57              		.loc 2 116 0
  58              		.cfi_startproc
  59              		@ args = 0, pretend = 0, frame = 0
  60              		@ frame_needed = 0, uses_anonymous_args = 0
  61              	.LVL2:
  62 0000 10402DE9 		push	{r4, lr}
  63              		.cfi_def_cfa_offset 8
  64              		.cfi_offset 4, -8
  65              		.cfi_offset 14, -4
  66 0004 0040A0E1 		mov	r4, r0
  67              	.LBB552:
 117:/home/zkmike/workspace/RZA2M/rza2m_2d_barcode_sample_freertos_gcc/src/zxing_lib/zxing/common/Array.h ****     if (array_) {
 118:/home/zkmike/workspace/RZA2M/rza2m_2d_barcode_sample_freertos_gcc/src/zxing_lib/zxing/common/Array.h ****       array_->release();
 119:/home/zkmike/workspace/RZA2M/rza2m_2d_barcode_sample_freertos_gcc/src/zxing_lib/zxing/common/Array.h ****     }
 120:/home/zkmike/workspace/RZA2M/rza2m_2d_barcode_sample_freertos_gcc/src/zxing_lib/zxing/common/Array.h ****     array_ = 0;
 121:/home/zkmike/workspace/RZA2M/rza2m_2d_barcode_sample_freertos_gcc/src/zxing_lib/zxing/common/Array.h ****   }
  68              		.loc 2 121 0
  69 0008 44309FE5 		ldr	r3, .L7
  70 000c 003080E5 		str	r3, [r0]
 117:/home/zkmike/workspace/RZA2M/rza2m_2d_barcode_sample_freertos_gcc/src/zxing_lib/zxing/common/Array.h ****     if (array_) {
  71              		.loc 2 117 0
  72 0010 080090E5 		ldr	r0, [r0, #8]
  73              	.LVL3:
  74 0014 000050E3 		cmp	r0, #0
  75 0018 0400000A 		beq	.L4
  76              	.LVL4:
  77              	.LBB553:
  78              	.LBB554:
  79              		.file 3 "/home/zkmike/workspace/RZA2M/rza2m_2d_barcode_sample_freertos_gcc/src/zxing_lib/zxing/com
   1:/home/zkmike/workspace/RZA2M/rza2m_2d_barcode_sample_freertos_gcc/src/zxing_lib/zxing/common/Counted.h **** // -*- mode:c++; tab-width:2; indent-tabs-mode:nil; c-basic-offset:2 -*-
   2:/home/zkmike/workspace/RZA2M/rza2m_2d_barcode_sample_freertos_gcc/src/zxing_lib/zxing/common/Counted.h **** #ifndef __COUNTED_H__
   3:/home/zkmike/workspace/RZA2M/rza2m_2d_barcode_sample_freertos_gcc/src/zxing_lib/zxing/common/Counted.h **** #define __COUNTED_H__
   4:/home/zkmike/workspace/RZA2M/rza2m_2d_barcode_sample_freertos_gcc/src/zxing_lib/zxing/common/Counted.h **** 
   5:/home/zkmike/workspace/RZA2M/rza2m_2d_barcode_sample_freertos_gcc/src/zxing_lib/zxing/common/Counted.h **** /*
   6:/home/zkmike/workspace/RZA2M/rza2m_2d_barcode_sample_freertos_gcc/src/zxing_lib/zxing/common/Counted.h ****  *  Copyright 2010 ZXing authors All rights reserved.
   7:/home/zkmike/workspace/RZA2M/rza2m_2d_barcode_sample_freertos_gcc/src/zxing_lib/zxing/common/Counted.h ****  *
   8:/home/zkmike/workspace/RZA2M/rza2m_2d_barcode_sample_freertos_gcc/src/zxing_lib/zxing/common/Counted.h ****  * Licensed under the Apache License, Version 2.0 (the "License");
   9:/home/zkmike/workspace/RZA2M/rza2m_2d_barcode_sample_freertos_gcc/src/zxing_lib/zxing/common/Counted.h ****  * you may not use this file except in compliance with the License.
  10:/home/zkmike/workspace/RZA2M/rza2m_2d_barcode_sample_freertos_gcc/src/zxing_lib/zxing/common/Counted.h ****  * You may obtain a copy of the License at
  11:/home/zkmike/workspace/RZA2M/rza2m_2d_barcode_sample_freertos_gcc/src/zxing_lib/zxing/common/Counted.h ****  *
  12:/home/zkmike/workspace/RZA2M/rza2m_2d_barcode_sample_freertos_gcc/src/zxing_lib/zxing/common/Counted.h ****  *      http://www.apache.org/licenses/LICENSE-2.0
  13:/home/zkmike/workspace/RZA2M/rza2m_2d_barcode_sample_freertos_gcc/src/zxing_lib/zxing/common/Counted.h ****  *
  14:/home/zkmike/workspace/RZA2M/rza2m_2d_barcode_sample_freertos_gcc/src/zxing_lib/zxing/common/Counted.h ****  * Unless required by applicable law or agreed to in writing, software
  15:/home/zkmike/workspace/RZA2M/rza2m_2d_barcode_sample_freertos_gcc/src/zxing_lib/zxing/common/Counted.h ****  * distributed under the License is distributed on an "AS IS" BASIS,
  16:/home/zkmike/workspace/RZA2M/rza2m_2d_barcode_sample_freertos_gcc/src/zxing_lib/zxing/common/Counted.h ****  * WITHOUT WARRANTIES OR CONDITIONS OF ANY KIND, either express or implied.
  17:/home/zkmike/workspace/RZA2M/rza2m_2d_barcode_sample_freertos_gcc/src/zxing_lib/zxing/common/Counted.h ****  * See the License for the specific language governing permissions and
  18:/home/zkmike/workspace/RZA2M/rza2m_2d_barcode_sample_freertos_gcc/src/zxing_lib/zxing/common/Counted.h ****  * limitations under the License.
  19:/home/zkmike/workspace/RZA2M/rza2m_2d_barcode_sample_freertos_gcc/src/zxing_lib/zxing/common/Counted.h ****  */
  20:/home/zkmike/workspace/RZA2M/rza2m_2d_barcode_sample_freertos_gcc/src/zxing_lib/zxing/common/Counted.h **** 
  21:/home/zkmike/workspace/RZA2M/rza2m_2d_barcode_sample_freertos_gcc/src/zxing_lib/zxing/common/Counted.h **** #include <iostream>
  22:/home/zkmike/workspace/RZA2M/rza2m_2d_barcode_sample_freertos_gcc/src/zxing_lib/zxing/common/Counted.h **** 
  23:/home/zkmike/workspace/RZA2M/rza2m_2d_barcode_sample_freertos_gcc/src/zxing_lib/zxing/common/Counted.h **** namespace zxing {
  24:/home/zkmike/workspace/RZA2M/rza2m_2d_barcode_sample_freertos_gcc/src/zxing_lib/zxing/common/Counted.h **** 
  25:/home/zkmike/workspace/RZA2M/rza2m_2d_barcode_sample_freertos_gcc/src/zxing_lib/zxing/common/Counted.h **** /* base class for reference-counted objects */
  26:/home/zkmike/workspace/RZA2M/rza2m_2d_barcode_sample_freertos_gcc/src/zxing_lib/zxing/common/Counted.h **** class Counted {
  27:/home/zkmike/workspace/RZA2M/rza2m_2d_barcode_sample_freertos_gcc/src/zxing_lib/zxing/common/Counted.h **** private:
  28:/home/zkmike/workspace/RZA2M/rza2m_2d_barcode_sample_freertos_gcc/src/zxing_lib/zxing/common/Counted.h ****   unsigned int count_;
  29:/home/zkmike/workspace/RZA2M/rza2m_2d_barcode_sample_freertos_gcc/src/zxing_lib/zxing/common/Counted.h **** public:
  30:/home/zkmike/workspace/RZA2M/rza2m_2d_barcode_sample_freertos_gcc/src/zxing_lib/zxing/common/Counted.h ****   Counted() :
  31:/home/zkmike/workspace/RZA2M/rza2m_2d_barcode_sample_freertos_gcc/src/zxing_lib/zxing/common/Counted.h ****       count_(0) {
  32:/home/zkmike/workspace/RZA2M/rza2m_2d_barcode_sample_freertos_gcc/src/zxing_lib/zxing/common/Counted.h ****   }
  33:/home/zkmike/workspace/RZA2M/rza2m_2d_barcode_sample_freertos_gcc/src/zxing_lib/zxing/common/Counted.h ****   virtual ~Counted() {
  34:/home/zkmike/workspace/RZA2M/rza2m_2d_barcode_sample_freertos_gcc/src/zxing_lib/zxing/common/Counted.h ****   }
  35:/home/zkmike/workspace/RZA2M/rza2m_2d_barcode_sample_freertos_gcc/src/zxing_lib/zxing/common/Counted.h ****   Counted *retain() {
  36:/home/zkmike/workspace/RZA2M/rza2m_2d_barcode_sample_freertos_gcc/src/zxing_lib/zxing/common/Counted.h ****     count_++;
  37:/home/zkmike/workspace/RZA2M/rza2m_2d_barcode_sample_freertos_gcc/src/zxing_lib/zxing/common/Counted.h ****     return this;
  38:/home/zkmike/workspace/RZA2M/rza2m_2d_barcode_sample_freertos_gcc/src/zxing_lib/zxing/common/Counted.h ****   }
  39:/home/zkmike/workspace/RZA2M/rza2m_2d_barcode_sample_freertos_gcc/src/zxing_lib/zxing/common/Counted.h ****   void release() {
  40:/home/zkmike/workspace/RZA2M/rza2m_2d_barcode_sample_freertos_gcc/src/zxing_lib/zxing/common/Counted.h ****     count_--;
  80              		.loc 3 40 0
  81 001c 043090E5 		ldr	r3, [r0, #4]
  82 0020 013043E2 		sub	r3, r3, #1
  83 0024 043080E5 		str	r3, [r0, #4]
  41:/home/zkmike/workspace/RZA2M/rza2m_2d_barcode_sample_freertos_gcc/src/zxing_lib/zxing/common/Counted.h ****     if (count_ == 0) {
  84              		.loc 3 41 0
  85 0028 000053E3 		cmp	r3, #0
  86 002c 0100000A 		beq	.L6
  87              	.LVL5:
  88              	.L4:
  89              	.LBE554:
  90              	.LBE553:
  91              	.LBE552:
  92              		.loc 2 121 0
  93 0030 0400A0E1 		mov	r0, r4
  94 0034 1080BDE8 		pop	{r4, pc}
  95              	.LVL6:
  96              	.L6:
  97              	.LBB557:
  98              	.LBB556:
  99              	.LBB555:
  42:/home/zkmike/workspace/RZA2M/rza2m_2d_barcode_sample_freertos_gcc/src/zxing_lib/zxing/common/Counted.h ****       count_ = 0xDEADF001;
 100              		.loc 3 42 0
 101 0038 01300FE3 		movw	r3, #61441
 102 003c AD3E4DE3 		movt	r3, 57005
 103 0040 043080E5 		str	r3, [r0, #4]
  43:/home/zkmike/workspace/RZA2M/rza2m_2d_barcode_sample_freertos_gcc/src/zxing_lib/zxing/common/Counted.h ****       delete this;
 104              		.loc 3 43 0
 105 0044 003090E5 		ldr	r3, [r0]
 106 0048 043093E5 		ldr	r3, [r3, #4]
 107 004c 33FF2FE1 		blx	r3
 108              	.LVL7:
 109 0050 F6FFFFEA 		b	.L4
 110              	.L8:
 111              		.align	2
 112              	.L7:
 113 0054 08000000 		.word	_ZTVN5zxing8ArrayRefINS_3RefINS_11ResultPointEEEEE+8
 114              	.LBE555:
 115              	.LBE556:
 116              	.LBE557:
 117              		.cfi_endproc
 118              	.LFE2528:
 119              		.cantunwind
 120              		.fnend
 122              		.weak	_ZN5zxing8ArrayRefINS_3RefINS_11ResultPointEEEED1Ev
 123              		.set	_ZN5zxing8ArrayRefINS_3RefINS_11ResultPointEEEED1Ev,_ZN5zxing8ArrayRefINS_3RefINS_11ResultPoi
 124              		.section	.text._ZN5zxing8ArrayRefIcED2Ev,"axG",%progbits,_ZN5zxing8ArrayRefIcED5Ev,comdat
 125              		.align	2
 126              		.weak	_ZN5zxing8ArrayRefIcED2Ev
 127              		.syntax unified
 128              		.arm
 129              		.fpu neon
 131              	_ZN5zxing8ArrayRefIcED2Ev:
 132              		.fnstart
 133              	.LFB2558:
 116:/home/zkmike/workspace/RZA2M/rza2m_2d_barcode_sample_freertos_gcc/src/zxing_lib/zxing/common/Array.h ****     if (array_) {
 134              		.loc 2 116 0
 135              		.cfi_startproc
 136              		@ args = 0, pretend = 0, frame = 0
 137              		@ frame_needed = 0, uses_anonymous_args = 0
 138              	.LVL8:
 139 0000 10402DE9 		push	{r4, lr}
 140              		.cfi_def_cfa_offset 8
 141              		.cfi_offset 4, -8
 142              		.cfi_offset 14, -4
 143 0004 0040A0E1 		mov	r4, r0
 144              	.LBB558:
 145              		.loc 2 121 0
 146 0008 44309FE5 		ldr	r3, .L13
 147 000c 003080E5 		str	r3, [r0]
 117:/home/zkmike/workspace/RZA2M/rza2m_2d_barcode_sample_freertos_gcc/src/zxing_lib/zxing/common/Array.h ****       array_->release();
 148              		.loc 2 117 0
 149 0010 080090E5 		ldr	r0, [r0, #8]
 150              	.LVL9:
 151 0014 000050E3 		cmp	r0, #0
 152 0018 0400000A 		beq	.L10
 153              	.LVL10:
 154              	.LBB559:
 155              	.LBB560:
  40:/home/zkmike/workspace/RZA2M/rza2m_2d_barcode_sample_freertos_gcc/src/zxing_lib/zxing/common/Counted.h ****     if (count_ == 0) {
 156              		.loc 3 40 0
 157 001c 043090E5 		ldr	r3, [r0, #4]
 158 0020 013043E2 		sub	r3, r3, #1
 159 0024 043080E5 		str	r3, [r0, #4]
  41:/home/zkmike/workspace/RZA2M/rza2m_2d_barcode_sample_freertos_gcc/src/zxing_lib/zxing/common/Counted.h ****       count_ = 0xDEADF001;
 160              		.loc 3 41 0
 161 0028 000053E3 		cmp	r3, #0
 162 002c 0100000A 		beq	.L12
 163              	.LVL11:
 164              	.L10:
 165              	.LBE560:
 166              	.LBE559:
 167              	.LBE558:
 168              		.loc 2 121 0
 169 0030 0400A0E1 		mov	r0, r4
 170 0034 1080BDE8 		pop	{r4, pc}
 171              	.LVL12:
 172              	.L12:
 173              	.LBB563:
 174              	.LBB562:
 175              	.LBB561:
  42:/home/zkmike/workspace/RZA2M/rza2m_2d_barcode_sample_freertos_gcc/src/zxing_lib/zxing/common/Counted.h ****       delete this;
 176              		.loc 3 42 0
 177 0038 01300FE3 		movw	r3, #61441
 178 003c AD3E4DE3 		movt	r3, 57005
 179 0040 043080E5 		str	r3, [r0, #4]
 180              		.loc 3 43 0
 181 0044 003090E5 		ldr	r3, [r0]
 182 0048 043093E5 		ldr	r3, [r3, #4]
 183 004c 33FF2FE1 		blx	r3
 184              	.LVL13:
 185 0050 F6FFFFEA 		b	.L10
 186              	.L14:
 187              		.align	2
 188              	.L13:
 189 0054 08000000 		.word	_ZTVN5zxing8ArrayRefIcEE+8
 190              	.LBE561:
 191              	.LBE562:
 192              	.LBE563:
 193              		.cfi_endproc
 194              	.LFE2558:
 195              		.cantunwind
 196              		.fnend
 198              		.weak	_ZN5zxing8ArrayRefIcED1Ev
 199              		.set	_ZN5zxing8ArrayRefIcED1Ev,_ZN5zxing8ArrayRefIcED2Ev
 200              		.section	.text._ZN5zxing8ArrayRefIiED2Ev,"axG",%progbits,_ZN5zxing8ArrayRefIiED5Ev,comdat
 201              		.align	2
 202              		.weak	_ZN5zxing8ArrayRefIiED2Ev
 203              		.syntax unified
 204              		.arm
 205              		.fpu neon
 207              	_ZN5zxing8ArrayRefIiED2Ev:
 208              		.fnstart
 209              	.LFB2578:
 116:/home/zkmike/workspace/RZA2M/rza2m_2d_barcode_sample_freertos_gcc/src/zxing_lib/zxing/common/Array.h ****     if (array_) {
 210              		.loc 2 116 0
 211              		.cfi_startproc
 212              		@ args = 0, pretend = 0, frame = 0
 213              		@ frame_needed = 0, uses_anonymous_args = 0
 214              	.LVL14:
 215 0000 10402DE9 		push	{r4, lr}
 216              		.cfi_def_cfa_offset 8
 217              		.cfi_offset 4, -8
 218              		.cfi_offset 14, -4
 219 0004 0040A0E1 		mov	r4, r0
 220              	.LBB564:
 221              		.loc 2 121 0
 222 0008 44309FE5 		ldr	r3, .L19
 223 000c 003080E5 		str	r3, [r0]
 117:/home/zkmike/workspace/RZA2M/rza2m_2d_barcode_sample_freertos_gcc/src/zxing_lib/zxing/common/Array.h ****       array_->release();
 224              		.loc 2 117 0
 225 0010 080090E5 		ldr	r0, [r0, #8]
 226              	.LVL15:
 227 0014 000050E3 		cmp	r0, #0
 228 0018 0400000A 		beq	.L16
 229              	.LVL16:
 230              	.LBB565:
 231              	.LBB566:
  40:/home/zkmike/workspace/RZA2M/rza2m_2d_barcode_sample_freertos_gcc/src/zxing_lib/zxing/common/Counted.h ****     if (count_ == 0) {
 232              		.loc 3 40 0
 233 001c 043090E5 		ldr	r3, [r0, #4]
 234 0020 013043E2 		sub	r3, r3, #1
 235 0024 043080E5 		str	r3, [r0, #4]
  41:/home/zkmike/workspace/RZA2M/rza2m_2d_barcode_sample_freertos_gcc/src/zxing_lib/zxing/common/Counted.h ****       count_ = 0xDEADF001;
 236              		.loc 3 41 0
 237 0028 000053E3 		cmp	r3, #0
 238 002c 0100000A 		beq	.L18
 239              	.LVL17:
 240              	.L16:
 241              	.LBE566:
 242              	.LBE565:
 243              	.LBE564:
 244              		.loc 2 121 0
 245 0030 0400A0E1 		mov	r0, r4
 246 0034 1080BDE8 		pop	{r4, pc}
 247              	.LVL18:
 248              	.L18:
 249              	.LBB569:
 250              	.LBB568:
 251              	.LBB567:
  42:/home/zkmike/workspace/RZA2M/rza2m_2d_barcode_sample_freertos_gcc/src/zxing_lib/zxing/common/Counted.h ****       delete this;
 252              		.loc 3 42 0
 253 0038 01300FE3 		movw	r3, #61441
 254 003c AD3E4DE3 		movt	r3, 57005
 255 0040 043080E5 		str	r3, [r0, #4]
 256              		.loc 3 43 0
 257 0044 003090E5 		ldr	r3, [r0]
 258 0048 043093E5 		ldr	r3, [r3, #4]
 259 004c 33FF2FE1 		blx	r3
 260              	.LVL19:
 261 0050 F6FFFFEA 		b	.L16
 262              	.L20:
 263              		.align	2
 264              	.L19:
 265 0054 08000000 		.word	_ZTVN5zxing8ArrayRefIiEE+8
 266              	.LBE567:
 267              	.LBE568:
 268              	.LBE569:
 269              		.cfi_endproc
 270              	.LFE2578:
 271              		.cantunwind
 272              		.fnend
 274              		.weak	_ZN5zxing8ArrayRefIiED1Ev
 275              		.set	_ZN5zxing8ArrayRefIiED1Ev,_ZN5zxing8ArrayRefIiED2Ev
 276              		.section	.text._ZN5zxing8ArrayRefINS_3RefINS_11ResultPointEEEED0Ev,"axG",%progbits,_ZN5zxing8Array
 277              		.align	2
 278              		.weak	_ZN5zxing8ArrayRefINS_3RefINS_11ResultPointEEEED0Ev
 279              		.syntax unified
 280              		.arm
 281              		.fpu neon
 283              	_ZN5zxing8ArrayRefINS_3RefINS_11ResultPointEEEED0Ev:
 284              		.fnstart
 285              	.LFB2530:
 116:/home/zkmike/workspace/RZA2M/rza2m_2d_barcode_sample_freertos_gcc/src/zxing_lib/zxing/common/Array.h ****     if (array_) {
 286              		.loc 2 116 0
 287              		.cfi_startproc
 288              		@ args = 0, pretend = 0, frame = 0
 289              		@ frame_needed = 0, uses_anonymous_args = 0
 290              	.LVL20:
 291 0000 10402DE9 		push	{r4, lr}
 292              		.cfi_def_cfa_offset 8
 293              		.cfi_offset 4, -8
 294              		.cfi_offset 14, -4
 295 0004 0040A0E1 		mov	r4, r0
 296              	.LVL21:
 297              	.LBB570:
 298              	.LBB571:
 299              		.loc 2 121 0
 300 0008 50309FE5 		ldr	r3, .L25
 301 000c 003080E5 		str	r3, [r0]
 117:/home/zkmike/workspace/RZA2M/rza2m_2d_barcode_sample_freertos_gcc/src/zxing_lib/zxing/common/Array.h ****       array_->release();
 302              		.loc 2 117 0
 303 0010 080090E5 		ldr	r0, [r0, #8]
 304              	.LVL22:
 305 0014 000050E3 		cmp	r0, #0
 306 0018 0400000A 		beq	.L22
 307              	.LVL23:
 308              	.LBB572:
 309              	.LBB573:
  40:/home/zkmike/workspace/RZA2M/rza2m_2d_barcode_sample_freertos_gcc/src/zxing_lib/zxing/common/Counted.h ****     if (count_ == 0) {
 310              		.loc 3 40 0
 311 001c 043090E5 		ldr	r3, [r0, #4]
 312 0020 013043E2 		sub	r3, r3, #1
 313 0024 043080E5 		str	r3, [r0, #4]
  41:/home/zkmike/workspace/RZA2M/rza2m_2d_barcode_sample_freertos_gcc/src/zxing_lib/zxing/common/Counted.h ****       count_ = 0xDEADF001;
 314              		.loc 3 41 0
 315 0028 000053E3 		cmp	r3, #0
 316 002c 0400000A 		beq	.L24
 317              	.LVL24:
 318              	.L22:
 319              	.LBE573:
 320              	.LBE572:
 321              	.LBE571:
 322              	.LBE570:
 323              		.loc 2 121 0
 324 0030 0C10A0E3 		mov	r1, #12
 325 0034 0400A0E1 		mov	r0, r4
 326 0038 FEFFFFEB 		bl	_ZdlPvj
 327              	.LVL25:
 328 003c 0400A0E1 		mov	r0, r4
 329 0040 1080BDE8 		pop	{r4, pc}
 330              	.LVL26:
 331              	.L24:
 332              	.LBB577:
 333              	.LBB576:
 334              	.LBB575:
 335              	.LBB574:
  42:/home/zkmike/workspace/RZA2M/rza2m_2d_barcode_sample_freertos_gcc/src/zxing_lib/zxing/common/Counted.h ****       delete this;
 336              		.loc 3 42 0
 337 0044 01300FE3 		movw	r3, #61441
 338 0048 AD3E4DE3 		movt	r3, 57005
 339 004c 043080E5 		str	r3, [r0, #4]
 340              		.loc 3 43 0
 341 0050 003090E5 		ldr	r3, [r0]
 342 0054 043093E5 		ldr	r3, [r3, #4]
 343 0058 33FF2FE1 		blx	r3
 344              	.LVL27:
 345 005c F3FFFFEA 		b	.L22
 346              	.L26:
 347              		.align	2
 348              	.L25:
 349 0060 08000000 		.word	_ZTVN5zxing8ArrayRefINS_3RefINS_11ResultPointEEEEE+8
 350              	.LBE574:
 351              	.LBE575:
 352              	.LBE576:
 353              	.LBE577:
 354              		.cfi_endproc
 355              	.LFE2530:
 356              		.cantunwind
 357              		.fnend
 359              		.section	.text._ZN5zxing8ArrayRefIcED0Ev,"axG",%progbits,_ZN5zxing8ArrayRefIcED5Ev,comdat
 360              		.align	2
 361              		.weak	_ZN5zxing8ArrayRefIcED0Ev
 362              		.syntax unified
 363              		.arm
 364              		.fpu neon
 366              	_ZN5zxing8ArrayRefIcED0Ev:
 367              		.fnstart
 368              	.LFB2560:
 116:/home/zkmike/workspace/RZA2M/rza2m_2d_barcode_sample_freertos_gcc/src/zxing_lib/zxing/common/Array.h ****     if (array_) {
 369              		.loc 2 116 0
 370              		.cfi_startproc
 371              		@ args = 0, pretend = 0, frame = 0
 372              		@ frame_needed = 0, uses_anonymous_args = 0
 373              	.LVL28:
 374 0000 10402DE9 		push	{r4, lr}
 375              		.cfi_def_cfa_offset 8
 376              		.cfi_offset 4, -8
 377              		.cfi_offset 14, -4
 378 0004 0040A0E1 		mov	r4, r0
 379              	.LVL29:
 380              	.LBB578:
 381              	.LBB579:
 382              		.loc 2 121 0
 383 0008 50309FE5 		ldr	r3, .L31
 384 000c 003080E5 		str	r3, [r0]
 117:/home/zkmike/workspace/RZA2M/rza2m_2d_barcode_sample_freertos_gcc/src/zxing_lib/zxing/common/Array.h ****       array_->release();
 385              		.loc 2 117 0
 386 0010 080090E5 		ldr	r0, [r0, #8]
 387              	.LVL30:
 388 0014 000050E3 		cmp	r0, #0
 389 0018 0400000A 		beq	.L28
 390              	.LVL31:
 391              	.LBB580:
 392              	.LBB581:
  40:/home/zkmike/workspace/RZA2M/rza2m_2d_barcode_sample_freertos_gcc/src/zxing_lib/zxing/common/Counted.h ****     if (count_ == 0) {
 393              		.loc 3 40 0
 394 001c 043090E5 		ldr	r3, [r0, #4]
 395 0020 013043E2 		sub	r3, r3, #1
 396 0024 043080E5 		str	r3, [r0, #4]
  41:/home/zkmike/workspace/RZA2M/rza2m_2d_barcode_sample_freertos_gcc/src/zxing_lib/zxing/common/Counted.h ****       count_ = 0xDEADF001;
 397              		.loc 3 41 0
 398 0028 000053E3 		cmp	r3, #0
 399 002c 0400000A 		beq	.L30
 400              	.LVL32:
 401              	.L28:
 402              	.LBE581:
 403              	.LBE580:
 404              	.LBE579:
 405              	.LBE578:
 406              		.loc 2 121 0
 407 0030 0C10A0E3 		mov	r1, #12
 408 0034 0400A0E1 		mov	r0, r4
 409 0038 FEFFFFEB 		bl	_ZdlPvj
 410              	.LVL33:
 411 003c 0400A0E1 		mov	r0, r4
 412 0040 1080BDE8 		pop	{r4, pc}
 413              	.LVL34:
 414              	.L30:
 415              	.LBB585:
 416              	.LBB584:
 417              	.LBB583:
 418              	.LBB582:
  42:/home/zkmike/workspace/RZA2M/rza2m_2d_barcode_sample_freertos_gcc/src/zxing_lib/zxing/common/Counted.h ****       delete this;
 419              		.loc 3 42 0
 420 0044 01300FE3 		movw	r3, #61441
 421 0048 AD3E4DE3 		movt	r3, 57005
 422 004c 043080E5 		str	r3, [r0, #4]
 423              		.loc 3 43 0
 424 0050 003090E5 		ldr	r3, [r0]
 425 0054 043093E5 		ldr	r3, [r3, #4]
 426 0058 33FF2FE1 		blx	r3
 427              	.LVL35:
 428 005c F3FFFFEA 		b	.L28
 429              	.L32:
 430              		.align	2
 431              	.L31:
 432 0060 08000000 		.word	_ZTVN5zxing8ArrayRefIcEE+8
 433              	.LBE582:
 434              	.LBE583:
 435              	.LBE584:
 436              	.LBE585:
 437              		.cfi_endproc
 438              	.LFE2560:
 439              		.cantunwind
 440              		.fnend
 442              		.section	.text._ZN5zxing8ArrayRefIiED0Ev,"axG",%progbits,_ZN5zxing8ArrayRefIiED5Ev,comdat
 443              		.align	2
 444              		.weak	_ZN5zxing8ArrayRefIiED0Ev
 445              		.syntax unified
 446              		.arm
 447              		.fpu neon
 449              	_ZN5zxing8ArrayRefIiED0Ev:
 450              		.fnstart
 451              	.LFB2580:
 116:/home/zkmike/workspace/RZA2M/rza2m_2d_barcode_sample_freertos_gcc/src/zxing_lib/zxing/common/Array.h ****     if (array_) {
 452              		.loc 2 116 0
 453              		.cfi_startproc
 454              		@ args = 0, pretend = 0, frame = 0
 455              		@ frame_needed = 0, uses_anonymous_args = 0
 456              	.LVL36:
 457 0000 10402DE9 		push	{r4, lr}
 458              		.cfi_def_cfa_offset 8
 459              		.cfi_offset 4, -8
 460              		.cfi_offset 14, -4
 461 0004 0040A0E1 		mov	r4, r0
 462              	.LVL37:
 463              	.LBB586:
 464              	.LBB587:
 465              		.loc 2 121 0
 466 0008 50309FE5 		ldr	r3, .L37
 467 000c 003080E5 		str	r3, [r0]
 117:/home/zkmike/workspace/RZA2M/rza2m_2d_barcode_sample_freertos_gcc/src/zxing_lib/zxing/common/Array.h ****       array_->release();
 468              		.loc 2 117 0
 469 0010 080090E5 		ldr	r0, [r0, #8]
 470              	.LVL38:
 471 0014 000050E3 		cmp	r0, #0
 472 0018 0400000A 		beq	.L34
 473              	.LVL39:
 474              	.LBB588:
 475              	.LBB589:
  40:/home/zkmike/workspace/RZA2M/rza2m_2d_barcode_sample_freertos_gcc/src/zxing_lib/zxing/common/Counted.h ****     if (count_ == 0) {
 476              		.loc 3 40 0
 477 001c 043090E5 		ldr	r3, [r0, #4]
 478 0020 013043E2 		sub	r3, r3, #1
 479 0024 043080E5 		str	r3, [r0, #4]
  41:/home/zkmike/workspace/RZA2M/rza2m_2d_barcode_sample_freertos_gcc/src/zxing_lib/zxing/common/Counted.h ****       count_ = 0xDEADF001;
 480              		.loc 3 41 0
 481 0028 000053E3 		cmp	r3, #0
 482 002c 0400000A 		beq	.L36
 483              	.LVL40:
 484              	.L34:
 485              	.LBE589:
 486              	.LBE588:
 487              	.LBE587:
 488              	.LBE586:
 489              		.loc 2 121 0
 490 0030 0C10A0E3 		mov	r1, #12
 491 0034 0400A0E1 		mov	r0, r4
 492 0038 FEFFFFEB 		bl	_ZdlPvj
 493              	.LVL41:
 494 003c 0400A0E1 		mov	r0, r4
 495 0040 1080BDE8 		pop	{r4, pc}
 496              	.LVL42:
 497              	.L36:
 498              	.LBB593:
 499              	.LBB592:
 500              	.LBB591:
 501              	.LBB590:
  42:/home/zkmike/workspace/RZA2M/rza2m_2d_barcode_sample_freertos_gcc/src/zxing_lib/zxing/common/Counted.h ****       delete this;
 502              		.loc 3 42 0
 503 0044 01300FE3 		movw	r3, #61441
 504 0048 AD3E4DE3 		movt	r3, 57005
 505 004c 043080E5 		str	r3, [r0, #4]
 506              		.loc 3 43 0
 507 0050 003090E5 		ldr	r3, [r0]
 508 0054 043093E5 		ldr	r3, [r3, #4]
 509 0058 33FF2FE1 		blx	r3
 510              	.LVL43:
 511 005c F3FFFFEA 		b	.L34
 512              	.L38:
 513              		.align	2
 514              	.L37:
 515 0060 08000000 		.word	_ZTVN5zxing8ArrayRefIiEE+8
 516              	.LBE590:
 517              	.LBE591:
 518              	.LBE592:
 519              	.LBE593:
 520              		.cfi_endproc
 521              	.LFE2580:
 522              		.cantunwind
 523              		.fnend
 525              		.section	.text._ZN5zxing9ExceptionD2Ev,"axG",%progbits,_ZN5zxing9ExceptionD5Ev,comdat
 526              		.align	2
 527              		.weak	_ZN5zxing9ExceptionD2Ev
 528              		.syntax unified
 529              		.arm
 530              		.fpu neon
 532              	_ZN5zxing9ExceptionD2Ev:
 533              		.fnstart
 534              	.LFB1868:
  37:/home/zkmike/workspace/RZA2M/rza2m_2d_barcode_sample_freertos_gcc/src/zxing_lib/zxing/Exception.h ****     if(message) {
 535              		.loc 1 37 0
 536              		.cfi_startproc
 537              		.cfi_personality 0,__gxx_personality_v0
 538              		.cfi_lsda 0,.LLSDA1868
 539              		@ args = 0, pretend = 0, frame = 0
 540              		@ frame_needed = 0, uses_anonymous_args = 0
 541              	.LVL44:
 542 0000 70402DE9 		push	{r4, r5, r6, lr}
 543              		.save {r4, r5, r6, lr}
 544              		.cfi_def_cfa_offset 16
 545              		.cfi_offset 4, -16
 546              		.cfi_offset 5, -12
 547              		.cfi_offset 6, -8
 548              		.cfi_offset 14, -4
 549 0004 0040A0E1 		mov	r4, r0
 550              	.LBB595:
  37:/home/zkmike/workspace/RZA2M/rza2m_2d_barcode_sample_freertos_gcc/src/zxing_lib/zxing/Exception.h ****     if(message) {
 551              		.loc 1 37 0
 552 0008 48309FE5 		ldr	r3, .L46
 553 000c 003080E5 		str	r3, [r0]
  38:/home/zkmike/workspace/RZA2M/rza2m_2d_barcode_sample_freertos_gcc/src/zxing_lib/zxing/Exception.h ****       deleteMessage();
 554              		.loc 1 38 0
 555 0010 043090E5 		ldr	r3, [r0, #4]
 556 0014 000053E3 		cmp	r3, #0
 557 0018 0A00000A 		beq	.L40
 558              	.LEHB0:
  39:/home/zkmike/workspace/RZA2M/rza2m_2d_barcode_sample_freertos_gcc/src/zxing_lib/zxing/Exception.h ****     }
 559              		.loc 1 39 0
 560 001c FEFFFFEB 		bl	_ZN5zxing9Exception13deleteMessageEv
 561              	.LVL45:
 562              	.LEHE0:
 563 0020 080000EA 		b	.L40
 564              	.L43:
 565 0024 0050A0E1 		mov	r5, r0
 566 0028 0160A0E1 		mov	r6, r1
  37:/home/zkmike/workspace/RZA2M/rza2m_2d_barcode_sample_freertos_gcc/src/zxing_lib/zxing/Exception.h ****     if(message) {
 567              		.loc 1 37 0
 568 002c 0400A0E1 		mov	r0, r4
 569 0030 FEFFFFEB 		bl	_ZNSt9exceptionD2Ev
 570              	.LVL46:
 571 0034 010076E3 		cmn	r6, #1
 572 0038 0000000A 		beq	.L42
 573              	.LEHB1:
 574 003c FEFFFFEB 		bl	__cxa_end_cleanup
 575              	.LVL47:
 576              	.L42:
 577              	.LBE595:
 578 0040 0500A0E1 		mov	r0, r5
 579 0044 FEFFFFEB 		bl	__cxa_call_unexpected
 580              	.LVL48:
 581              	.LEHE1:
 582              	.L40:
 583              	.LBB596:
 584 0048 0400A0E1 		mov	r0, r4
 585 004c FEFFFFEB 		bl	_ZNSt9exceptionD2Ev
 586              	.LVL49:
 587              	.LBE596:
  41:/home/zkmike/workspace/RZA2M/rza2m_2d_barcode_sample_freertos_gcc/src/zxing_lib/zxing/Exception.h ****   char const* what() const throw() {return message ? message : "";}
 588              		.loc 1 41 0
 589 0050 0400A0E1 		mov	r0, r4
 590 0054 7080BDE8 		pop	{r4, r5, r6, pc}
 591              	.L47:
 592              		.align	2
 593              	.L46:
 594 0058 08000000 		.word	_ZTVN5zxing9ExceptionE+8
 595              		.cfi_endproc
 596              	.LFE1868:
 597              		.global	__gxx_personality_v0
 598              		.personality	__gxx_personality_v0
 599              		.handlerdata
 600              		.align	2
 601              	.LLSDA1868:
 602 0008 FF       		.byte	0xff
 603 0009 10       		.byte	0x10
 604 000a 11       		.uleb128 .LLSDATT1868-.LLSDATTD1868
 605              	.LLSDATTD1868:
 606 000b 01       		.byte	0x1
 607 000c 08       		.uleb128 .LLSDACSE1868-.LLSDACSB1868
 608              	.LLSDACSB1868:
 609 000d 1C       		.uleb128 .LEHB0-.LFB1868
 610 000e 04       		.uleb128 .LEHE0-.LEHB0
 611 000f 24       		.uleb128 .L43-.LFB1868
 612 0010 03       		.uleb128 0x3
 613 0011 3C       		.uleb128 .LEHB1-.LFB1868
 614 0012 0C       		.uleb128 .LEHE1-.LEHB1
 615 0013 00       		.uleb128 0
 616 0014 00       		.uleb128 0
 617              	.LLSDACSE1868:
 618 0015 7F       		.byte	0x7f
 619 0016 00       		.byte	0
 620 0017 00       		.byte	0
 621 0018 7D       		.byte	0x7d
 622 0019 000000   		.align	2
 623              	.LLSDATT1868:
 624 001c 00000000 		.word	0
 625              		.section	.text._ZN5zxing9ExceptionD2Ev,"axG",%progbits,_ZN5zxing9ExceptionD5Ev,comdat
 626              		.fnend
 628              		.weak	_ZN5zxing9ExceptionD1Ev
 629              		.set	_ZN5zxing9ExceptionD1Ev,_ZN5zxing9ExceptionD2Ev
 630              		.section	.text._ZN5zxing6pdf41712PDF417ReaderD2Ev,"axG",%progbits,_ZN5zxing6pdf41712PDF417ReaderD5
 631              		.align	2
 632              		.weak	_ZN5zxing6pdf41712PDF417ReaderD2Ev
 633              		.syntax unified
 634              		.arm
 635              		.fpu neon
 637              	_ZN5zxing6pdf41712PDF417ReaderD2Ev:
 638              		.fnstart
 639              	.LFB2833:
 640              		.file 4 "/home/zkmike/workspace/RZA2M/rza2m_2d_barcode_sample_freertos_gcc/src/zxing_lib/zxing/pdf
   1:/home/zkmike/workspace/RZA2M/rza2m_2d_barcode_sample_freertos_gcc/src/zxing_lib/zxing/pdf417/PDF417Reader.h **** // -*- mode:c++; tab-width:2; indent-tabs-mode:nil; c-basic-offset:2 -*-
   2:/home/zkmike/workspace/RZA2M/rza2m_2d_barcode_sample_freertos_gcc/src/zxing_lib/zxing/pdf417/PDF417Reader.h **** #ifndef __PDF417_READER_H__
   3:/home/zkmike/workspace/RZA2M/rza2m_2d_barcode_sample_freertos_gcc/src/zxing_lib/zxing/pdf417/PDF417Reader.h **** #define __PDF417_READER_H__
   4:/home/zkmike/workspace/RZA2M/rza2m_2d_barcode_sample_freertos_gcc/src/zxing_lib/zxing/pdf417/PDF417Reader.h **** 
   5:/home/zkmike/workspace/RZA2M/rza2m_2d_barcode_sample_freertos_gcc/src/zxing_lib/zxing/pdf417/PDF417Reader.h **** /*
   6:/home/zkmike/workspace/RZA2M/rza2m_2d_barcode_sample_freertos_gcc/src/zxing_lib/zxing/pdf417/PDF417Reader.h ****  *  PDF417Reader.h
   7:/home/zkmike/workspace/RZA2M/rza2m_2d_barcode_sample_freertos_gcc/src/zxing_lib/zxing/pdf417/PDF417Reader.h ****  *  zxing
   8:/home/zkmike/workspace/RZA2M/rza2m_2d_barcode_sample_freertos_gcc/src/zxing_lib/zxing/pdf417/PDF417Reader.h ****  *
   9:/home/zkmike/workspace/RZA2M/rza2m_2d_barcode_sample_freertos_gcc/src/zxing_lib/zxing/pdf417/PDF417Reader.h ****  *  Copyright 2010,2012 ZXing authors All rights reserved.
  10:/home/zkmike/workspace/RZA2M/rza2m_2d_barcode_sample_freertos_gcc/src/zxing_lib/zxing/pdf417/PDF417Reader.h ****  *
  11:/home/zkmike/workspace/RZA2M/rza2m_2d_barcode_sample_freertos_gcc/src/zxing_lib/zxing/pdf417/PDF417Reader.h ****  * Licensed under the Apache License, Version 2.0 (the "License");
  12:/home/zkmike/workspace/RZA2M/rza2m_2d_barcode_sample_freertos_gcc/src/zxing_lib/zxing/pdf417/PDF417Reader.h ****  * you may not use this file except in compliance with the License.
  13:/home/zkmike/workspace/RZA2M/rza2m_2d_barcode_sample_freertos_gcc/src/zxing_lib/zxing/pdf417/PDF417Reader.h ****  * You may obtain a copy of the License at
  14:/home/zkmike/workspace/RZA2M/rza2m_2d_barcode_sample_freertos_gcc/src/zxing_lib/zxing/pdf417/PDF417Reader.h ****  *
  15:/home/zkmike/workspace/RZA2M/rza2m_2d_barcode_sample_freertos_gcc/src/zxing_lib/zxing/pdf417/PDF417Reader.h ****  *      http://www.apache.org/licenses/LICENSE-2.0
  16:/home/zkmike/workspace/RZA2M/rza2m_2d_barcode_sample_freertos_gcc/src/zxing_lib/zxing/pdf417/PDF417Reader.h ****  *
  17:/home/zkmike/workspace/RZA2M/rza2m_2d_barcode_sample_freertos_gcc/src/zxing_lib/zxing/pdf417/PDF417Reader.h ****  * Unless required by applicable law or agreed to in writing, software
  18:/home/zkmike/workspace/RZA2M/rza2m_2d_barcode_sample_freertos_gcc/src/zxing_lib/zxing/pdf417/PDF417Reader.h ****  * distributed under the License is distributed on an "AS IS" BASIS,
  19:/home/zkmike/workspace/RZA2M/rza2m_2d_barcode_sample_freertos_gcc/src/zxing_lib/zxing/pdf417/PDF417Reader.h ****  * WITHOUT WARRANTIES OR CONDITIONS OF ANY KIND, either express or implied.
  20:/home/zkmike/workspace/RZA2M/rza2m_2d_barcode_sample_freertos_gcc/src/zxing_lib/zxing/pdf417/PDF417Reader.h ****  * See the License for the specific language governing permissions and
  21:/home/zkmike/workspace/RZA2M/rza2m_2d_barcode_sample_freertos_gcc/src/zxing_lib/zxing/pdf417/PDF417Reader.h ****  * limitations under the License.
  22:/home/zkmike/workspace/RZA2M/rza2m_2d_barcode_sample_freertos_gcc/src/zxing_lib/zxing/pdf417/PDF417Reader.h ****  */
  23:/home/zkmike/workspace/RZA2M/rza2m_2d_barcode_sample_freertos_gcc/src/zxing_lib/zxing/pdf417/PDF417Reader.h **** 
  24:/home/zkmike/workspace/RZA2M/rza2m_2d_barcode_sample_freertos_gcc/src/zxing_lib/zxing/pdf417/PDF417Reader.h **** #include <zxing/Reader.h>
  25:/home/zkmike/workspace/RZA2M/rza2m_2d_barcode_sample_freertos_gcc/src/zxing_lib/zxing/pdf417/PDF417Reader.h **** #include <zxing/pdf417/decoder/Decoder.h>
  26:/home/zkmike/workspace/RZA2M/rza2m_2d_barcode_sample_freertos_gcc/src/zxing_lib/zxing/pdf417/PDF417Reader.h **** #include <zxing/DecodeHints.h>
  27:/home/zkmike/workspace/RZA2M/rza2m_2d_barcode_sample_freertos_gcc/src/zxing_lib/zxing/pdf417/PDF417Reader.h **** 
  28:/home/zkmike/workspace/RZA2M/rza2m_2d_barcode_sample_freertos_gcc/src/zxing_lib/zxing/pdf417/PDF417Reader.h **** namespace zxing {
  29:/home/zkmike/workspace/RZA2M/rza2m_2d_barcode_sample_freertos_gcc/src/zxing_lib/zxing/pdf417/PDF417Reader.h **** namespace pdf417 {
  30:/home/zkmike/workspace/RZA2M/rza2m_2d_barcode_sample_freertos_gcc/src/zxing_lib/zxing/pdf417/PDF417Reader.h **** 
  31:/home/zkmike/workspace/RZA2M/rza2m_2d_barcode_sample_freertos_gcc/src/zxing_lib/zxing/pdf417/PDF417Reader.h **** 
  32:/home/zkmike/workspace/RZA2M/rza2m_2d_barcode_sample_freertos_gcc/src/zxing_lib/zxing/pdf417/PDF417Reader.h **** class PDF417Reader : public Reader {
 641              		.loc 4 32 0
 642              		.cfi_startproc
 643              		@ args = 0, pretend = 0, frame = 0
 644              		@ frame_needed = 0, uses_anonymous_args = 0
 645              	.LVL50:
 646 0000 10402DE9 		push	{r4, lr}
 647              		.cfi_def_cfa_offset 8
 648              		.cfi_offset 4, -8
 649              		.cfi_offset 14, -4
 650 0004 0040A0E1 		mov	r4, r0
 651              	.LBB597:
 652              		.loc 4 32 0
 653 0008 0C309FE5 		ldr	r3, .L50
 654 000c 003080E5 		str	r3, [r0]
 655 0010 FEFFFFEB 		bl	_ZN5zxing6ReaderD2Ev
 656              	.LVL51:
 657              	.LBE597:
 658 0014 0400A0E1 		mov	r0, r4
 659 0018 1080BDE8 		pop	{r4, pc}
 660              	.L51:
 661              		.align	2
 662              	.L50:
 663 001c 08000000 		.word	.LANCHOR0+8
 664              		.cfi_endproc
 665              	.LFE2833:
 666              		.cantunwind
 667              		.fnend
 669              		.weak	_ZN5zxing6pdf41712PDF417ReaderD1Ev
 670              		.set	_ZN5zxing6pdf41712PDF417ReaderD1Ev,_ZN5zxing6pdf41712PDF417ReaderD2Ev
 671              		.section	.text._ZN5zxing6pdf41712PDF417ReaderD0Ev,"axG",%progbits,_ZN5zxing6pdf41712PDF417ReaderD5
 672              		.align	2
 673              		.weak	_ZN5zxing6pdf41712PDF417ReaderD0Ev
 674              		.syntax unified
 675              		.arm
 676              		.fpu neon
 678              	_ZN5zxing6pdf41712PDF417ReaderD0Ev:
 679              		.fnstart
 680              	.LFB2835:
 681              		.loc 4 32 0
 682              		.cfi_startproc
 683              		@ args = 0, pretend = 0, frame = 0
 684              		@ frame_needed = 0, uses_anonymous_args = 0
 685              	.LVL52:
 686 0000 10402DE9 		push	{r4, lr}
 687              		.cfi_def_cfa_offset 8
 688              		.cfi_offset 4, -8
 689              		.cfi_offset 14, -4
 690 0004 0040A0E1 		mov	r4, r0
 691              	.LVL53:
 692              	.LBB598:
 693              	.LBB599:
 694              		.loc 4 32 0
 695 0008 18309FE5 		ldr	r3, .L54
 696 000c 003080E5 		str	r3, [r0]
 697 0010 FEFFFFEB 		bl	_ZN5zxing6ReaderD2Ev
 698              	.LVL54:
 699              	.LBE599:
 700              	.LBE598:
 701 0014 0C10A0E3 		mov	r1, #12
 702 0018 0400A0E1 		mov	r0, r4
 703 001c FEFFFFEB 		bl	_ZdlPvj
 704              	.LVL55:
 705 0020 0400A0E1 		mov	r0, r4
 706 0024 1080BDE8 		pop	{r4, pc}
 707              	.L55:
 708              		.align	2
 709              	.L54:
 710 0028 08000000 		.word	.LANCHOR0+8
 711              		.cfi_endproc
 712              	.LFE2835:
 713              		.cantunwind
 714              		.fnend
 716              		.section	.text._Z41__static_initialization_and_destruction_0ii,"ax",%progbits
 717              		.align	2
 718              		.syntax unified
 719              		.arm
 720              		.fpu neon
 722              	_Z41__static_initialization_and_destruction_0ii:
 723              		.fnstart
 724              	.LFB2836:
 725              		.file 5 "../src/zxing_lib/zxing/pdf417/PDF417Reader.cpp"
   1:../src/zxing_lib/zxing/pdf417/PDF417Reader.cpp **** // -*- mode:c++; tab-width:2; indent-tabs-mode:nil; c-basic-offset:2 -*-
   2:../src/zxing_lib/zxing/pdf417/PDF417Reader.cpp **** /*
   3:../src/zxing_lib/zxing/pdf417/PDF417Reader.cpp ****  * Copyright 2010 ZXing authors All rights reserved.
   4:../src/zxing_lib/zxing/pdf417/PDF417Reader.cpp ****  *
   5:../src/zxing_lib/zxing/pdf417/PDF417Reader.cpp ****  * Licensed under the Apache License, Version 2.0 (the "License");
   6:../src/zxing_lib/zxing/pdf417/PDF417Reader.cpp ****  * you may not use this file except in compliance with the License.
   7:../src/zxing_lib/zxing/pdf417/PDF417Reader.cpp ****  * You may obtain a copy of the License at
   8:../src/zxing_lib/zxing/pdf417/PDF417Reader.cpp ****  *
   9:../src/zxing_lib/zxing/pdf417/PDF417Reader.cpp ****  *      http://www.apache.org/licenses/LICENSE-2.0
  10:../src/zxing_lib/zxing/pdf417/PDF417Reader.cpp ****  *
  11:../src/zxing_lib/zxing/pdf417/PDF417Reader.cpp ****  * Unless required by applicable law or agreed to in writing, software
  12:../src/zxing_lib/zxing/pdf417/PDF417Reader.cpp ****  * distributed under the License is distributed on an "AS IS" BASIS,
  13:../src/zxing_lib/zxing/pdf417/PDF417Reader.cpp ****  * WITHOUT WARRANTIES OR CONDITIONS OF ANY KIND, either express or implied.
  14:../src/zxing_lib/zxing/pdf417/PDF417Reader.cpp ****  * See the License for the specific language governing permissions and
  15:../src/zxing_lib/zxing/pdf417/PDF417Reader.cpp ****  * limitations under the License.
  16:../src/zxing_lib/zxing/pdf417/PDF417Reader.cpp ****  */
  17:../src/zxing_lib/zxing/pdf417/PDF417Reader.cpp **** 
  18:../src/zxing_lib/zxing/pdf417/PDF417Reader.cpp **** #include <zxing/pdf417/PDF417Reader.h>
  19:../src/zxing_lib/zxing/pdf417/PDF417Reader.cpp **** #include <zxing/pdf417/detector/Detector.h>
  20:../src/zxing_lib/zxing/pdf417/PDF417Reader.cpp **** 
  21:../src/zxing_lib/zxing/pdf417/PDF417Reader.cpp **** using zxing::Ref;
  22:../src/zxing_lib/zxing/pdf417/PDF417Reader.cpp **** using zxing::Result;
  23:../src/zxing_lib/zxing/pdf417/PDF417Reader.cpp **** using zxing::BitMatrix;
  24:../src/zxing_lib/zxing/pdf417/PDF417Reader.cpp **** using zxing::pdf417::PDF417Reader;
  25:../src/zxing_lib/zxing/pdf417/PDF417Reader.cpp **** using zxing::pdf417::detector::Detector;
  26:../src/zxing_lib/zxing/pdf417/PDF417Reader.cpp **** 
  27:../src/zxing_lib/zxing/pdf417/PDF417Reader.cpp **** // VC++
  28:../src/zxing_lib/zxing/pdf417/PDF417Reader.cpp **** using zxing::ArrayRef;
  29:../src/zxing_lib/zxing/pdf417/PDF417Reader.cpp **** using zxing::BinaryBitmap;
  30:../src/zxing_lib/zxing/pdf417/PDF417Reader.cpp **** using zxing::DecodeHints;
  31:../src/zxing_lib/zxing/pdf417/PDF417Reader.cpp **** 
  32:../src/zxing_lib/zxing/pdf417/PDF417Reader.cpp **** Ref<Result> PDF417Reader::decode(Ref<BinaryBitmap> image, DecodeHints hints) {
  33:../src/zxing_lib/zxing/pdf417/PDF417Reader.cpp ****   Ref<DecoderResult> decoderResult;
  34:../src/zxing_lib/zxing/pdf417/PDF417Reader.cpp ****   /* 2012-05-30 hfn C++ DecodeHintType does not yet know a type "PURE_BARCODE", */
  35:../src/zxing_lib/zxing/pdf417/PDF417Reader.cpp ****   /* therefore skip this for now, todo: may be add this type later */
  36:../src/zxing_lib/zxing/pdf417/PDF417Reader.cpp ****   /*
  37:../src/zxing_lib/zxing/pdf417/PDF417Reader.cpp ****     if (!hints.isEmpty() && hints.containsKey(DecodeHintType.PURE_BARCODE)) {
  38:../src/zxing_lib/zxing/pdf417/PDF417Reader.cpp ****     BitMatrix bits = extractPureBits(image.getBlackMatrix());
  39:../src/zxing_lib/zxing/pdf417/PDF417Reader.cpp ****     decoderResult = decoder.decode(bits);
  40:../src/zxing_lib/zxing/pdf417/PDF417Reader.cpp ****     points = NO_POINTS;
  41:../src/zxing_lib/zxing/pdf417/PDF417Reader.cpp ****     } else {
  42:../src/zxing_lib/zxing/pdf417/PDF417Reader.cpp ****   */
  43:../src/zxing_lib/zxing/pdf417/PDF417Reader.cpp ****   Detector detector(image);
  44:../src/zxing_lib/zxing/pdf417/PDF417Reader.cpp ****   Ref<DetectorResult> detectorResult = detector.detect(hints); /* 2012-09-17 hints ("try_harder") *
  45:../src/zxing_lib/zxing/pdf417/PDF417Reader.cpp ****   ArrayRef< Ref<ResultPoint> > points(detectorResult->getPoints());
  46:../src/zxing_lib/zxing/pdf417/PDF417Reader.cpp ****   
  47:../src/zxing_lib/zxing/pdf417/PDF417Reader.cpp ****   if (!hints.isEmpty()) {
  48:../src/zxing_lib/zxing/pdf417/PDF417Reader.cpp ****     Ref<ResultPointCallback> rpcb = hints.getResultPointCallback();
  49:../src/zxing_lib/zxing/pdf417/PDF417Reader.cpp ****     /* .get(DecodeHintType.NEED_RESULT_POINT_CALLBACK); */
  50:../src/zxing_lib/zxing/pdf417/PDF417Reader.cpp ****     if (rpcb != NULL) {
  51:../src/zxing_lib/zxing/pdf417/PDF417Reader.cpp ****       for (int i = 0; i < points->size(); i++) {
  52:../src/zxing_lib/zxing/pdf417/PDF417Reader.cpp ****         rpcb->foundPossibleResultPoint(*points[i]);
  53:../src/zxing_lib/zxing/pdf417/PDF417Reader.cpp ****       }
  54:../src/zxing_lib/zxing/pdf417/PDF417Reader.cpp ****     }
  55:../src/zxing_lib/zxing/pdf417/PDF417Reader.cpp ****   }
  56:../src/zxing_lib/zxing/pdf417/PDF417Reader.cpp ****   decoderResult = decoder.decode(detectorResult->getBits(),hints);
  57:../src/zxing_lib/zxing/pdf417/PDF417Reader.cpp ****   /*
  58:../src/zxing_lib/zxing/pdf417/PDF417Reader.cpp ****     }
  59:../src/zxing_lib/zxing/pdf417/PDF417Reader.cpp ****   */
  60:../src/zxing_lib/zxing/pdf417/PDF417Reader.cpp ****   Ref<Result> r(new Result(decoderResult->getText(), decoderResult->getRawBytes(), points,
  61:../src/zxing_lib/zxing/pdf417/PDF417Reader.cpp ****                            BarcodeFormat::PDF_417));
  62:../src/zxing_lib/zxing/pdf417/PDF417Reader.cpp ****   return r;
  63:../src/zxing_lib/zxing/pdf417/PDF417Reader.cpp **** }
  64:../src/zxing_lib/zxing/pdf417/PDF417Reader.cpp **** 
  65:../src/zxing_lib/zxing/pdf417/PDF417Reader.cpp **** void PDF417Reader::reset() {
  66:../src/zxing_lib/zxing/pdf417/PDF417Reader.cpp ****   // do nothing
  67:../src/zxing_lib/zxing/pdf417/PDF417Reader.cpp **** }
  68:../src/zxing_lib/zxing/pdf417/PDF417Reader.cpp **** 
  69:../src/zxing_lib/zxing/pdf417/PDF417Reader.cpp **** Ref<BitMatrix> PDF417Reader::extractPureBits(Ref<BitMatrix> image) {
  70:../src/zxing_lib/zxing/pdf417/PDF417Reader.cpp ****   ArrayRef<int> leftTopBlack = image->getTopLeftOnBit();
  71:../src/zxing_lib/zxing/pdf417/PDF417Reader.cpp ****   ArrayRef<int> rightBottomBlack = image->getBottomRightOnBit();
  72:../src/zxing_lib/zxing/pdf417/PDF417Reader.cpp ****   /* see BitMatrix::getTopLeftOnBit etc.:
  73:../src/zxing_lib/zxing/pdf417/PDF417Reader.cpp ****      if (leftTopBlack == null || rightBottomBlack == null) {
  74:../src/zxing_lib/zxing/pdf417/PDF417Reader.cpp ****      throw NotFoundException.getNotFoundInstance();
  75:../src/zxing_lib/zxing/pdf417/PDF417Reader.cpp ****      } */
  76:../src/zxing_lib/zxing/pdf417/PDF417Reader.cpp ****   
  77:../src/zxing_lib/zxing/pdf417/PDF417Reader.cpp ****   int nModuleSize = moduleSize(leftTopBlack, image);
  78:../src/zxing_lib/zxing/pdf417/PDF417Reader.cpp ****   
  79:../src/zxing_lib/zxing/pdf417/PDF417Reader.cpp ****   int top = leftTopBlack[1];
  80:../src/zxing_lib/zxing/pdf417/PDF417Reader.cpp ****   int bottom = rightBottomBlack[1];
  81:../src/zxing_lib/zxing/pdf417/PDF417Reader.cpp ****   int left = findPatternStart(leftTopBlack[0], top, image);
  82:../src/zxing_lib/zxing/pdf417/PDF417Reader.cpp ****   int right = findPatternEnd(leftTopBlack[0], top, image);
  83:../src/zxing_lib/zxing/pdf417/PDF417Reader.cpp ****   
  84:../src/zxing_lib/zxing/pdf417/PDF417Reader.cpp ****   int matrixWidth = (right - left + 1) / nModuleSize;
  85:../src/zxing_lib/zxing/pdf417/PDF417Reader.cpp ****   int matrixHeight = (bottom - top + 1) / nModuleSize;
  86:../src/zxing_lib/zxing/pdf417/PDF417Reader.cpp ****   if (matrixWidth <= 0 || matrixHeight <= 0) {
  87:../src/zxing_lib/zxing/pdf417/PDF417Reader.cpp ****     throw NotFoundException("PDF417Reader::extractPureBits: no matrix found!");
  88:../src/zxing_lib/zxing/pdf417/PDF417Reader.cpp ****   }
  89:../src/zxing_lib/zxing/pdf417/PDF417Reader.cpp ****   
  90:../src/zxing_lib/zxing/pdf417/PDF417Reader.cpp ****   // Push in the "border" by half the module width so that we start
  91:../src/zxing_lib/zxing/pdf417/PDF417Reader.cpp ****   // sampling in the middle of the module. Just in case the image is a
  92:../src/zxing_lib/zxing/pdf417/PDF417Reader.cpp ****   // little off, this will help recover.
  93:../src/zxing_lib/zxing/pdf417/PDF417Reader.cpp ****   int nudge = nModuleSize >> 1;
  94:../src/zxing_lib/zxing/pdf417/PDF417Reader.cpp ****   top += nudge;
  95:../src/zxing_lib/zxing/pdf417/PDF417Reader.cpp ****   left += nudge;
  96:../src/zxing_lib/zxing/pdf417/PDF417Reader.cpp ****   
  97:../src/zxing_lib/zxing/pdf417/PDF417Reader.cpp ****   // Now just read off the bits
  98:../src/zxing_lib/zxing/pdf417/PDF417Reader.cpp ****   Ref<BitMatrix> bits(new BitMatrix(matrixWidth, matrixHeight));
  99:../src/zxing_lib/zxing/pdf417/PDF417Reader.cpp ****   for (int y = 0; y < matrixHeight; y++) {
 100:../src/zxing_lib/zxing/pdf417/PDF417Reader.cpp ****     int iOffset = top + y * nModuleSize;
 101:../src/zxing_lib/zxing/pdf417/PDF417Reader.cpp ****     for (int x = 0; x < matrixWidth; x++) {
 102:../src/zxing_lib/zxing/pdf417/PDF417Reader.cpp ****       if (image->get(left + x * nModuleSize, iOffset)) {
 103:../src/zxing_lib/zxing/pdf417/PDF417Reader.cpp ****         bits->set(x, y);
 104:../src/zxing_lib/zxing/pdf417/PDF417Reader.cpp ****       }
 105:../src/zxing_lib/zxing/pdf417/PDF417Reader.cpp ****     }
 106:../src/zxing_lib/zxing/pdf417/PDF417Reader.cpp ****   }
 107:../src/zxing_lib/zxing/pdf417/PDF417Reader.cpp ****   return bits;
 108:../src/zxing_lib/zxing/pdf417/PDF417Reader.cpp **** }
 109:../src/zxing_lib/zxing/pdf417/PDF417Reader.cpp **** 
 110:../src/zxing_lib/zxing/pdf417/PDF417Reader.cpp **** int PDF417Reader::moduleSize(ArrayRef<int> leftTopBlack, Ref<BitMatrix> image) {
 111:../src/zxing_lib/zxing/pdf417/PDF417Reader.cpp ****   int x = leftTopBlack[0];
 112:../src/zxing_lib/zxing/pdf417/PDF417Reader.cpp ****   int y = leftTopBlack[1];
 113:../src/zxing_lib/zxing/pdf417/PDF417Reader.cpp ****   int width = image->getWidth();
 114:../src/zxing_lib/zxing/pdf417/PDF417Reader.cpp ****   while (x < width && image->get(x, y)) {
 115:../src/zxing_lib/zxing/pdf417/PDF417Reader.cpp ****     x++;
 116:../src/zxing_lib/zxing/pdf417/PDF417Reader.cpp ****   }
 117:../src/zxing_lib/zxing/pdf417/PDF417Reader.cpp ****   if (x == width) {
 118:../src/zxing_lib/zxing/pdf417/PDF417Reader.cpp ****     throw NotFoundException("PDF417Reader::moduleSize: not found!");
 119:../src/zxing_lib/zxing/pdf417/PDF417Reader.cpp ****   }
 120:../src/zxing_lib/zxing/pdf417/PDF417Reader.cpp ****   
 121:../src/zxing_lib/zxing/pdf417/PDF417Reader.cpp ****   int moduleSize = (int)(((unsigned)(x - leftTopBlack[0])) >> 3); // We've crossed left first bar, 
 122:../src/zxing_lib/zxing/pdf417/PDF417Reader.cpp ****   if (moduleSize == 0) {
 123:../src/zxing_lib/zxing/pdf417/PDF417Reader.cpp ****     throw NotFoundException("PDF417Reader::moduleSize: is zero!");
 124:../src/zxing_lib/zxing/pdf417/PDF417Reader.cpp ****   }
 125:../src/zxing_lib/zxing/pdf417/PDF417Reader.cpp ****   
 126:../src/zxing_lib/zxing/pdf417/PDF417Reader.cpp ****   return moduleSize;
 127:../src/zxing_lib/zxing/pdf417/PDF417Reader.cpp **** }
 128:../src/zxing_lib/zxing/pdf417/PDF417Reader.cpp **** 
 129:../src/zxing_lib/zxing/pdf417/PDF417Reader.cpp **** int PDF417Reader::findPatternStart(int x, int y, Ref<BitMatrix> image) {
 130:../src/zxing_lib/zxing/pdf417/PDF417Reader.cpp ****   int width = image->getWidth();
 131:../src/zxing_lib/zxing/pdf417/PDF417Reader.cpp ****   int start = x;
 132:../src/zxing_lib/zxing/pdf417/PDF417Reader.cpp ****   // start should be on black
 133:../src/zxing_lib/zxing/pdf417/PDF417Reader.cpp ****   int transitions = 0;
 134:../src/zxing_lib/zxing/pdf417/PDF417Reader.cpp ****   bool black = true;
 135:../src/zxing_lib/zxing/pdf417/PDF417Reader.cpp ****   while (start < width - 1 && transitions < 8) {
 136:../src/zxing_lib/zxing/pdf417/PDF417Reader.cpp ****     start++;
 137:../src/zxing_lib/zxing/pdf417/PDF417Reader.cpp ****     bool newBlack = image->get(start, y);
 138:../src/zxing_lib/zxing/pdf417/PDF417Reader.cpp ****     if (black != newBlack) {
 139:../src/zxing_lib/zxing/pdf417/PDF417Reader.cpp ****       transitions++;
 140:../src/zxing_lib/zxing/pdf417/PDF417Reader.cpp ****     }
 141:../src/zxing_lib/zxing/pdf417/PDF417Reader.cpp ****     black = newBlack;
 142:../src/zxing_lib/zxing/pdf417/PDF417Reader.cpp ****   }
 143:../src/zxing_lib/zxing/pdf417/PDF417Reader.cpp ****   if (start == width - 1) {
 144:../src/zxing_lib/zxing/pdf417/PDF417Reader.cpp ****     throw NotFoundException("PDF417Reader::findPatternStart: no pattern start found!");
 145:../src/zxing_lib/zxing/pdf417/PDF417Reader.cpp ****   }
 146:../src/zxing_lib/zxing/pdf417/PDF417Reader.cpp ****   return start;
 147:../src/zxing_lib/zxing/pdf417/PDF417Reader.cpp **** }
 148:../src/zxing_lib/zxing/pdf417/PDF417Reader.cpp **** 
 149:../src/zxing_lib/zxing/pdf417/PDF417Reader.cpp **** int PDF417Reader::findPatternEnd(int x, int y, Ref<BitMatrix> image) {
 150:../src/zxing_lib/zxing/pdf417/PDF417Reader.cpp ****   int width = image->getWidth();
 151:../src/zxing_lib/zxing/pdf417/PDF417Reader.cpp ****   int end = width - 1;
 152:../src/zxing_lib/zxing/pdf417/PDF417Reader.cpp ****   // end should be on black
 153:../src/zxing_lib/zxing/pdf417/PDF417Reader.cpp ****   while (end > x && !image->get(end, y)) {
 154:../src/zxing_lib/zxing/pdf417/PDF417Reader.cpp ****     end--;
 155:../src/zxing_lib/zxing/pdf417/PDF417Reader.cpp ****   }
 156:../src/zxing_lib/zxing/pdf417/PDF417Reader.cpp ****   int transitions = 0;
 157:../src/zxing_lib/zxing/pdf417/PDF417Reader.cpp ****   bool black = true;
 158:../src/zxing_lib/zxing/pdf417/PDF417Reader.cpp ****   while (end > x && transitions < 9) {
 159:../src/zxing_lib/zxing/pdf417/PDF417Reader.cpp ****     end--;
 160:../src/zxing_lib/zxing/pdf417/PDF417Reader.cpp ****     bool newBlack = image->get(end, y);
 161:../src/zxing_lib/zxing/pdf417/PDF417Reader.cpp ****     if (black != newBlack) {
 162:../src/zxing_lib/zxing/pdf417/PDF417Reader.cpp ****       transitions++;
 163:../src/zxing_lib/zxing/pdf417/PDF417Reader.cpp ****     }
 164:../src/zxing_lib/zxing/pdf417/PDF417Reader.cpp ****     black = newBlack;
 165:../src/zxing_lib/zxing/pdf417/PDF417Reader.cpp ****   }
 166:../src/zxing_lib/zxing/pdf417/PDF417Reader.cpp ****   if (end == x) {
 167:../src/zxing_lib/zxing/pdf417/PDF417Reader.cpp ****     throw NotFoundException("PDF417Reader::findPatternEnd: no pattern end found!");
 168:../src/zxing_lib/zxing/pdf417/PDF417Reader.cpp ****   }
 169:../src/zxing_lib/zxing/pdf417/PDF417Reader.cpp ****   return end;
 170:../src/zxing_lib/zxing/pdf417/PDF417Reader.cpp **** }
 726              		.loc 5 170 0
 727              		.cfi_startproc
 728              		@ args = 0, pretend = 0, frame = 0
 729              		@ frame_needed = 0, uses_anonymous_args = 0
 730              	.LVL56:
 731 0000 010050E3 		cmp	r0, #1
 732 0004 1EFF2F11 		bxne	lr
 733              		.loc 5 170 0 is_stmt 0 discriminator 1
 734 0008 FF3F0FE3 		movw	r3, #65535
 735 000c 030051E1 		cmp	r1, r3
 736 0010 1EFF2F11 		bxne	lr
 737              		.loc 5 170 0
 738 0014 10402DE9 		push	{r4, lr}
 739              		.cfi_def_cfa_offset 8
 740              		.cfi_offset 4, -8
 741              		.cfi_offset 14, -4
 742              		.file 6 "/home/zkmike/.local/share/renesas/e2_studio/toolchains/gcc_arm/gcc-arm-none-eabi-6-2017-q
   1:/home/zkmike/.local/share/renesas/e2_studio/toolchains/gcc_arm/gcc-arm-none-eabi-6-2017-q2-update/arm-none-eabi/include/c++/6.3.1/iostream **** // Standard iostream objects -*- C++ -*-
   2:/home/zkmike/.local/share/renesas/e2_studio/toolchains/gcc_arm/gcc-arm-none-eabi-6-2017-q2-update/arm-none-eabi/include/c++/6.3.1/iostream **** 
   3:/home/zkmike/.local/share/renesas/e2_studio/toolchains/gcc_arm/gcc-arm-none-eabi-6-2017-q2-update/arm-none-eabi/include/c++/6.3.1/iostream **** // Copyright (C) 1997-2016 Free Software Foundation, Inc.
   4:/home/zkmike/.local/share/renesas/e2_studio/toolchains/gcc_arm/gcc-arm-none-eabi-6-2017-q2-update/arm-none-eabi/include/c++/6.3.1/iostream **** //
   5:/home/zkmike/.local/share/renesas/e2_studio/toolchains/gcc_arm/gcc-arm-none-eabi-6-2017-q2-update/arm-none-eabi/include/c++/6.3.1/iostream **** // This file is part of the GNU ISO C++ Library.  This library is free
   6:/home/zkmike/.local/share/renesas/e2_studio/toolchains/gcc_arm/gcc-arm-none-eabi-6-2017-q2-update/arm-none-eabi/include/c++/6.3.1/iostream **** // software; you can redistribute it and/or modify it under the
   7:/home/zkmike/.local/share/renesas/e2_studio/toolchains/gcc_arm/gcc-arm-none-eabi-6-2017-q2-update/arm-none-eabi/include/c++/6.3.1/iostream **** // terms of the GNU General Public License as published by the
   8:/home/zkmike/.local/share/renesas/e2_studio/toolchains/gcc_arm/gcc-arm-none-eabi-6-2017-q2-update/arm-none-eabi/include/c++/6.3.1/iostream **** // Free Software Foundation; either version 3, or (at your option)
   9:/home/zkmike/.local/share/renesas/e2_studio/toolchains/gcc_arm/gcc-arm-none-eabi-6-2017-q2-update/arm-none-eabi/include/c++/6.3.1/iostream **** // any later version.
  10:/home/zkmike/.local/share/renesas/e2_studio/toolchains/gcc_arm/gcc-arm-none-eabi-6-2017-q2-update/arm-none-eabi/include/c++/6.3.1/iostream **** 
  11:/home/zkmike/.local/share/renesas/e2_studio/toolchains/gcc_arm/gcc-arm-none-eabi-6-2017-q2-update/arm-none-eabi/include/c++/6.3.1/iostream **** // This library is distributed in the hope that it will be useful,
  12:/home/zkmike/.local/share/renesas/e2_studio/toolchains/gcc_arm/gcc-arm-none-eabi-6-2017-q2-update/arm-none-eabi/include/c++/6.3.1/iostream **** // but WITHOUT ANY WARRANTY; without even the implied warranty of
  13:/home/zkmike/.local/share/renesas/e2_studio/toolchains/gcc_arm/gcc-arm-none-eabi-6-2017-q2-update/arm-none-eabi/include/c++/6.3.1/iostream **** // MERCHANTABILITY or FITNESS FOR A PARTICULAR PURPOSE.  See the
  14:/home/zkmike/.local/share/renesas/e2_studio/toolchains/gcc_arm/gcc-arm-none-eabi-6-2017-q2-update/arm-none-eabi/include/c++/6.3.1/iostream **** // GNU General Public License for more details.
  15:/home/zkmike/.local/share/renesas/e2_studio/toolchains/gcc_arm/gcc-arm-none-eabi-6-2017-q2-update/arm-none-eabi/include/c++/6.3.1/iostream **** 
  16:/home/zkmike/.local/share/renesas/e2_studio/toolchains/gcc_arm/gcc-arm-none-eabi-6-2017-q2-update/arm-none-eabi/include/c++/6.3.1/iostream **** // Under Section 7 of GPL version 3, you are granted additional
  17:/home/zkmike/.local/share/renesas/e2_studio/toolchains/gcc_arm/gcc-arm-none-eabi-6-2017-q2-update/arm-none-eabi/include/c++/6.3.1/iostream **** // permissions described in the GCC Runtime Library Exception, version
  18:/home/zkmike/.local/share/renesas/e2_studio/toolchains/gcc_arm/gcc-arm-none-eabi-6-2017-q2-update/arm-none-eabi/include/c++/6.3.1/iostream **** // 3.1, as published by the Free Software Foundation.
  19:/home/zkmike/.local/share/renesas/e2_studio/toolchains/gcc_arm/gcc-arm-none-eabi-6-2017-q2-update/arm-none-eabi/include/c++/6.3.1/iostream **** 
  20:/home/zkmike/.local/share/renesas/e2_studio/toolchains/gcc_arm/gcc-arm-none-eabi-6-2017-q2-update/arm-none-eabi/include/c++/6.3.1/iostream **** // You should have received a copy of the GNU General Public License and
  21:/home/zkmike/.local/share/renesas/e2_studio/toolchains/gcc_arm/gcc-arm-none-eabi-6-2017-q2-update/arm-none-eabi/include/c++/6.3.1/iostream **** // a copy of the GCC Runtime Library Exception along with this program;
  22:/home/zkmike/.local/share/renesas/e2_studio/toolchains/gcc_arm/gcc-arm-none-eabi-6-2017-q2-update/arm-none-eabi/include/c++/6.3.1/iostream **** // see the files COPYING3 and COPYING.RUNTIME respectively.  If not, see
  23:/home/zkmike/.local/share/renesas/e2_studio/toolchains/gcc_arm/gcc-arm-none-eabi-6-2017-q2-update/arm-none-eabi/include/c++/6.3.1/iostream **** // <http://www.gnu.org/licenses/>.
  24:/home/zkmike/.local/share/renesas/e2_studio/toolchains/gcc_arm/gcc-arm-none-eabi-6-2017-q2-update/arm-none-eabi/include/c++/6.3.1/iostream **** 
  25:/home/zkmike/.local/share/renesas/e2_studio/toolchains/gcc_arm/gcc-arm-none-eabi-6-2017-q2-update/arm-none-eabi/include/c++/6.3.1/iostream **** /** @file include/iostream
  26:/home/zkmike/.local/share/renesas/e2_studio/toolchains/gcc_arm/gcc-arm-none-eabi-6-2017-q2-update/arm-none-eabi/include/c++/6.3.1/iostream ****  *  This is a Standard C++ Library header.
  27:/home/zkmike/.local/share/renesas/e2_studio/toolchains/gcc_arm/gcc-arm-none-eabi-6-2017-q2-update/arm-none-eabi/include/c++/6.3.1/iostream ****  */
  28:/home/zkmike/.local/share/renesas/e2_studio/toolchains/gcc_arm/gcc-arm-none-eabi-6-2017-q2-update/arm-none-eabi/include/c++/6.3.1/iostream **** 
  29:/home/zkmike/.local/share/renesas/e2_studio/toolchains/gcc_arm/gcc-arm-none-eabi-6-2017-q2-update/arm-none-eabi/include/c++/6.3.1/iostream **** //
  30:/home/zkmike/.local/share/renesas/e2_studio/toolchains/gcc_arm/gcc-arm-none-eabi-6-2017-q2-update/arm-none-eabi/include/c++/6.3.1/iostream **** // ISO C++ 14882: 27.3  Standard iostream objects
  31:/home/zkmike/.local/share/renesas/e2_studio/toolchains/gcc_arm/gcc-arm-none-eabi-6-2017-q2-update/arm-none-eabi/include/c++/6.3.1/iostream **** //
  32:/home/zkmike/.local/share/renesas/e2_studio/toolchains/gcc_arm/gcc-arm-none-eabi-6-2017-q2-update/arm-none-eabi/include/c++/6.3.1/iostream **** 
  33:/home/zkmike/.local/share/renesas/e2_studio/toolchains/gcc_arm/gcc-arm-none-eabi-6-2017-q2-update/arm-none-eabi/include/c++/6.3.1/iostream **** #ifndef _GLIBCXX_IOSTREAM
  34:/home/zkmike/.local/share/renesas/e2_studio/toolchains/gcc_arm/gcc-arm-none-eabi-6-2017-q2-update/arm-none-eabi/include/c++/6.3.1/iostream **** #define _GLIBCXX_IOSTREAM 1
  35:/home/zkmike/.local/share/renesas/e2_studio/toolchains/gcc_arm/gcc-arm-none-eabi-6-2017-q2-update/arm-none-eabi/include/c++/6.3.1/iostream **** 
  36:/home/zkmike/.local/share/renesas/e2_studio/toolchains/gcc_arm/gcc-arm-none-eabi-6-2017-q2-update/arm-none-eabi/include/c++/6.3.1/iostream **** #pragma GCC system_header
  37:/home/zkmike/.local/share/renesas/e2_studio/toolchains/gcc_arm/gcc-arm-none-eabi-6-2017-q2-update/arm-none-eabi/include/c++/6.3.1/iostream **** 
  38:/home/zkmike/.local/share/renesas/e2_studio/toolchains/gcc_arm/gcc-arm-none-eabi-6-2017-q2-update/arm-none-eabi/include/c++/6.3.1/iostream **** #include <bits/c++config.h>
  39:/home/zkmike/.local/share/renesas/e2_studio/toolchains/gcc_arm/gcc-arm-none-eabi-6-2017-q2-update/arm-none-eabi/include/c++/6.3.1/iostream **** #include <ostream>
  40:/home/zkmike/.local/share/renesas/e2_studio/toolchains/gcc_arm/gcc-arm-none-eabi-6-2017-q2-update/arm-none-eabi/include/c++/6.3.1/iostream **** #include <istream>
  41:/home/zkmike/.local/share/renesas/e2_studio/toolchains/gcc_arm/gcc-arm-none-eabi-6-2017-q2-update/arm-none-eabi/include/c++/6.3.1/iostream **** 
  42:/home/zkmike/.local/share/renesas/e2_studio/toolchains/gcc_arm/gcc-arm-none-eabi-6-2017-q2-update/arm-none-eabi/include/c++/6.3.1/iostream **** namespace std _GLIBCXX_VISIBILITY(default)
  43:/home/zkmike/.local/share/renesas/e2_studio/toolchains/gcc_arm/gcc-arm-none-eabi-6-2017-q2-update/arm-none-eabi/include/c++/6.3.1/iostream **** {
  44:/home/zkmike/.local/share/renesas/e2_studio/toolchains/gcc_arm/gcc-arm-none-eabi-6-2017-q2-update/arm-none-eabi/include/c++/6.3.1/iostream **** _GLIBCXX_BEGIN_NAMESPACE_VERSION
  45:/home/zkmike/.local/share/renesas/e2_studio/toolchains/gcc_arm/gcc-arm-none-eabi-6-2017-q2-update/arm-none-eabi/include/c++/6.3.1/iostream **** 
  46:/home/zkmike/.local/share/renesas/e2_studio/toolchains/gcc_arm/gcc-arm-none-eabi-6-2017-q2-update/arm-none-eabi/include/c++/6.3.1/iostream ****   /**
  47:/home/zkmike/.local/share/renesas/e2_studio/toolchains/gcc_arm/gcc-arm-none-eabi-6-2017-q2-update/arm-none-eabi/include/c++/6.3.1/iostream ****    *  @name Standard Stream Objects
  48:/home/zkmike/.local/share/renesas/e2_studio/toolchains/gcc_arm/gcc-arm-none-eabi-6-2017-q2-update/arm-none-eabi/include/c++/6.3.1/iostream ****    *
  49:/home/zkmike/.local/share/renesas/e2_studio/toolchains/gcc_arm/gcc-arm-none-eabi-6-2017-q2-update/arm-none-eabi/include/c++/6.3.1/iostream ****    *  The &lt;iostream&gt; header declares the eight <em>standard stream
  50:/home/zkmike/.local/share/renesas/e2_studio/toolchains/gcc_arm/gcc-arm-none-eabi-6-2017-q2-update/arm-none-eabi/include/c++/6.3.1/iostream ****    *  objects</em>.  For other declarations, see
  51:/home/zkmike/.local/share/renesas/e2_studio/toolchains/gcc_arm/gcc-arm-none-eabi-6-2017-q2-update/arm-none-eabi/include/c++/6.3.1/iostream ****    *  http://gcc.gnu.org/onlinedocs/libstdc++/manual/io.html
  52:/home/zkmike/.local/share/renesas/e2_studio/toolchains/gcc_arm/gcc-arm-none-eabi-6-2017-q2-update/arm-none-eabi/include/c++/6.3.1/iostream ****    *  and the @link iosfwd I/O forward declarations @endlink
  53:/home/zkmike/.local/share/renesas/e2_studio/toolchains/gcc_arm/gcc-arm-none-eabi-6-2017-q2-update/arm-none-eabi/include/c++/6.3.1/iostream ****    *
  54:/home/zkmike/.local/share/renesas/e2_studio/toolchains/gcc_arm/gcc-arm-none-eabi-6-2017-q2-update/arm-none-eabi/include/c++/6.3.1/iostream ****    *  They are required by default to cooperate with the global C
  55:/home/zkmike/.local/share/renesas/e2_studio/toolchains/gcc_arm/gcc-arm-none-eabi-6-2017-q2-update/arm-none-eabi/include/c++/6.3.1/iostream ****    *  library's @c FILE streams, and to be available during program
  56:/home/zkmike/.local/share/renesas/e2_studio/toolchains/gcc_arm/gcc-arm-none-eabi-6-2017-q2-update/arm-none-eabi/include/c++/6.3.1/iostream ****    *  startup and termination. For more information, see the section of the
  57:/home/zkmike/.local/share/renesas/e2_studio/toolchains/gcc_arm/gcc-arm-none-eabi-6-2017-q2-update/arm-none-eabi/include/c++/6.3.1/iostream ****    *  manual linked to above.
  58:/home/zkmike/.local/share/renesas/e2_studio/toolchains/gcc_arm/gcc-arm-none-eabi-6-2017-q2-update/arm-none-eabi/include/c++/6.3.1/iostream ****   */
  59:/home/zkmike/.local/share/renesas/e2_studio/toolchains/gcc_arm/gcc-arm-none-eabi-6-2017-q2-update/arm-none-eabi/include/c++/6.3.1/iostream ****   //@{
  60:/home/zkmike/.local/share/renesas/e2_studio/toolchains/gcc_arm/gcc-arm-none-eabi-6-2017-q2-update/arm-none-eabi/include/c++/6.3.1/iostream ****   extern istream cin;		/// Linked to standard input
  61:/home/zkmike/.local/share/renesas/e2_studio/toolchains/gcc_arm/gcc-arm-none-eabi-6-2017-q2-update/arm-none-eabi/include/c++/6.3.1/iostream ****   extern ostream cout;		/// Linked to standard output
  62:/home/zkmike/.local/share/renesas/e2_studio/toolchains/gcc_arm/gcc-arm-none-eabi-6-2017-q2-update/arm-none-eabi/include/c++/6.3.1/iostream ****   extern ostream cerr;		/// Linked to standard error (unbuffered)
  63:/home/zkmike/.local/share/renesas/e2_studio/toolchains/gcc_arm/gcc-arm-none-eabi-6-2017-q2-update/arm-none-eabi/include/c++/6.3.1/iostream ****   extern ostream clog;		/// Linked to standard error (buffered)
  64:/home/zkmike/.local/share/renesas/e2_studio/toolchains/gcc_arm/gcc-arm-none-eabi-6-2017-q2-update/arm-none-eabi/include/c++/6.3.1/iostream **** 
  65:/home/zkmike/.local/share/renesas/e2_studio/toolchains/gcc_arm/gcc-arm-none-eabi-6-2017-q2-update/arm-none-eabi/include/c++/6.3.1/iostream **** #ifdef _GLIBCXX_USE_WCHAR_T
  66:/home/zkmike/.local/share/renesas/e2_studio/toolchains/gcc_arm/gcc-arm-none-eabi-6-2017-q2-update/arm-none-eabi/include/c++/6.3.1/iostream ****   extern wistream wcin;		/// Linked to standard input
  67:/home/zkmike/.local/share/renesas/e2_studio/toolchains/gcc_arm/gcc-arm-none-eabi-6-2017-q2-update/arm-none-eabi/include/c++/6.3.1/iostream ****   extern wostream wcout;	/// Linked to standard output
  68:/home/zkmike/.local/share/renesas/e2_studio/toolchains/gcc_arm/gcc-arm-none-eabi-6-2017-q2-update/arm-none-eabi/include/c++/6.3.1/iostream ****   extern wostream wcerr;	/// Linked to standard error (unbuffered)
  69:/home/zkmike/.local/share/renesas/e2_studio/toolchains/gcc_arm/gcc-arm-none-eabi-6-2017-q2-update/arm-none-eabi/include/c++/6.3.1/iostream ****   extern wostream wclog;	/// Linked to standard error (buffered)
  70:/home/zkmike/.local/share/renesas/e2_studio/toolchains/gcc_arm/gcc-arm-none-eabi-6-2017-q2-update/arm-none-eabi/include/c++/6.3.1/iostream **** #endif
  71:/home/zkmike/.local/share/renesas/e2_studio/toolchains/gcc_arm/gcc-arm-none-eabi-6-2017-q2-update/arm-none-eabi/include/c++/6.3.1/iostream ****   //@}
  72:/home/zkmike/.local/share/renesas/e2_studio/toolchains/gcc_arm/gcc-arm-none-eabi-6-2017-q2-update/arm-none-eabi/include/c++/6.3.1/iostream **** 
  73:/home/zkmike/.local/share/renesas/e2_studio/toolchains/gcc_arm/gcc-arm-none-eabi-6-2017-q2-update/arm-none-eabi/include/c++/6.3.1/iostream ****   // For construction of filebuffers for cout, cin, cerr, clog et. al.
  74:/home/zkmike/.local/share/renesas/e2_studio/toolchains/gcc_arm/gcc-arm-none-eabi-6-2017-q2-update/arm-none-eabi/include/c++/6.3.1/iostream ****   static ios_base::Init __ioinit;
 743              		.loc 6 74 0 is_stmt 1
 744 0018 004000E3 		movw	r4, #:lower16:.LANCHOR1
 745 001c 004040E3 		movt	r4, #:upper16:.LANCHOR1
 746 0020 0400A0E1 		mov	r0, r4
 747              	.LVL57:
 748 0024 FEFFFFEB 		bl	_ZNSt8ios_base4InitC1Ev
 749              	.LVL58:
 750 0028 002000E3 		movw	r2, #:lower16:__dso_handle
 751 002c 002040E3 		movt	r2, #:upper16:__dso_handle
 752 0030 001000E3 		movw	r1, #:lower16:_ZNSt8ios_base4InitD1Ev
 753 0034 001040E3 		movt	r1, #:upper16:_ZNSt8ios_base4InitD1Ev
 754 0038 0400A0E1 		mov	r0, r4
 755 003c FEFFFFEB 		bl	__aeabi_atexit
 756              	.LVL59:
 757 0040 1080BDE8 		pop	{r4, pc}
 758              		.cfi_endproc
 759              	.LFE2836:
 760              		.cantunwind
 761              		.fnend
 763              		.section	.text._ZN5zxing6pdf41712PDF417Reader6decodeENS_3RefINS_12BinaryBitmapEEENS_11DecodeHintsE
 764              		.align	2
 765              		.global	_ZN5zxing6pdf41712PDF417Reader6decodeENS_3RefINS_12BinaryBitmapEEENS_11DecodeHintsE
 766              		.syntax unified
 767              		.arm
 768              		.fpu neon
 770              	_ZN5zxing6pdf41712PDF417Reader6decodeENS_3RefINS_12BinaryBitmapEEENS_11DecodeHintsE:
 771              		.fnstart
 772              	.LFB2282:
  32:../src/zxing_lib/zxing/pdf417/PDF417Reader.cpp ****   Ref<DecoderResult> decoderResult;
 773              		.loc 5 32 0
 774              		.cfi_startproc
 775              		.cfi_personality 0,__gxx_personality_v0
 776              		.cfi_lsda 0,.LLSDA2282
 777              		@ args = 0, pretend = 0, frame = 72
 778              		@ frame_needed = 0, uses_anonymous_args = 0
 779              	.LVL60:
 780 0000 F0402DE9 		push	{r4, r5, r6, r7, lr}
 781              		.save {r4, r5, r6, r7, lr}
 782              		.cfi_def_cfa_offset 20
 783              		.cfi_offset 4, -20
 784              		.cfi_offset 5, -16
 785              		.cfi_offset 6, -12
 786              		.cfi_offset 7, -8
 787              		.cfi_offset 14, -4
 788              		.pad #84
 789 0004 54D04DE2 		sub	sp, sp, #84
 790              		.cfi_def_cfa_offset 104
 791 0008 0050A0E1 		mov	r5, r0
 792 000c 0170A0E1 		mov	r7, r1
 793 0010 0360A0E1 		mov	r6, r3
 794              	.LVL61:
 795              	.LBB774:
 796              	.LBB775:
 797              	.LBB776:
 798              	.LBB777:
 799              	.LBB778:
  44:/home/zkmike/workspace/RZA2M/rza2m_2d_barcode_sample_freertos_gcc/src/zxing_lib/zxing/common/Counted.h ****     }
  45:/home/zkmike/workspace/RZA2M/rza2m_2d_barcode_sample_freertos_gcc/src/zxing_lib/zxing/common/Counted.h ****   }
  46:/home/zkmike/workspace/RZA2M/rza2m_2d_barcode_sample_freertos_gcc/src/zxing_lib/zxing/common/Counted.h **** 
  47:/home/zkmike/workspace/RZA2M/rza2m_2d_barcode_sample_freertos_gcc/src/zxing_lib/zxing/common/Counted.h **** 
  48:/home/zkmike/workspace/RZA2M/rza2m_2d_barcode_sample_freertos_gcc/src/zxing_lib/zxing/common/Counted.h ****   /* return the current count for denugging purposes or similar */
  49:/home/zkmike/workspace/RZA2M/rza2m_2d_barcode_sample_freertos_gcc/src/zxing_lib/zxing/common/Counted.h ****   int count() const {
  50:/home/zkmike/workspace/RZA2M/rza2m_2d_barcode_sample_freertos_gcc/src/zxing_lib/zxing/common/Counted.h ****     return count_;
  51:/home/zkmike/workspace/RZA2M/rza2m_2d_barcode_sample_freertos_gcc/src/zxing_lib/zxing/common/Counted.h ****   }
  52:/home/zkmike/workspace/RZA2M/rza2m_2d_barcode_sample_freertos_gcc/src/zxing_lib/zxing/common/Counted.h **** };
  53:/home/zkmike/workspace/RZA2M/rza2m_2d_barcode_sample_freertos_gcc/src/zxing_lib/zxing/common/Counted.h **** 
  54:/home/zkmike/workspace/RZA2M/rza2m_2d_barcode_sample_freertos_gcc/src/zxing_lib/zxing/common/Counted.h **** /* counting reference to reference-counted objects */
  55:/home/zkmike/workspace/RZA2M/rza2m_2d_barcode_sample_freertos_gcc/src/zxing_lib/zxing/common/Counted.h **** template<typename T> class Ref {
  56:/home/zkmike/workspace/RZA2M/rza2m_2d_barcode_sample_freertos_gcc/src/zxing_lib/zxing/common/Counted.h **** private:
  57:/home/zkmike/workspace/RZA2M/rza2m_2d_barcode_sample_freertos_gcc/src/zxing_lib/zxing/common/Counted.h **** public:
  58:/home/zkmike/workspace/RZA2M/rza2m_2d_barcode_sample_freertos_gcc/src/zxing_lib/zxing/common/Counted.h ****   T *object_;
  59:/home/zkmike/workspace/RZA2M/rza2m_2d_barcode_sample_freertos_gcc/src/zxing_lib/zxing/common/Counted.h ****   explicit Ref(T *o = 0) :
  60:/home/zkmike/workspace/RZA2M/rza2m_2d_barcode_sample_freertos_gcc/src/zxing_lib/zxing/common/Counted.h ****       object_(0) {
  61:/home/zkmike/workspace/RZA2M/rza2m_2d_barcode_sample_freertos_gcc/src/zxing_lib/zxing/common/Counted.h ****     reset(o);
  62:/home/zkmike/workspace/RZA2M/rza2m_2d_barcode_sample_freertos_gcc/src/zxing_lib/zxing/common/Counted.h ****   }
  63:/home/zkmike/workspace/RZA2M/rza2m_2d_barcode_sample_freertos_gcc/src/zxing_lib/zxing/common/Counted.h ****   Ref(const Ref &other) :
  64:/home/zkmike/workspace/RZA2M/rza2m_2d_barcode_sample_freertos_gcc/src/zxing_lib/zxing/common/Counted.h ****       object_(0) {
  65:/home/zkmike/workspace/RZA2M/rza2m_2d_barcode_sample_freertos_gcc/src/zxing_lib/zxing/common/Counted.h ****     reset(other.object_);
  66:/home/zkmike/workspace/RZA2M/rza2m_2d_barcode_sample_freertos_gcc/src/zxing_lib/zxing/common/Counted.h ****   }
  67:/home/zkmike/workspace/RZA2M/rza2m_2d_barcode_sample_freertos_gcc/src/zxing_lib/zxing/common/Counted.h **** 
  68:/home/zkmike/workspace/RZA2M/rza2m_2d_barcode_sample_freertos_gcc/src/zxing_lib/zxing/common/Counted.h ****   template<class Y>
  69:/home/zkmike/workspace/RZA2M/rza2m_2d_barcode_sample_freertos_gcc/src/zxing_lib/zxing/common/Counted.h ****   Ref(const Ref<Y> &other) :
  70:/home/zkmike/workspace/RZA2M/rza2m_2d_barcode_sample_freertos_gcc/src/zxing_lib/zxing/common/Counted.h ****       object_(0) {
  71:/home/zkmike/workspace/RZA2M/rza2m_2d_barcode_sample_freertos_gcc/src/zxing_lib/zxing/common/Counted.h ****     reset(other.object_);
  72:/home/zkmike/workspace/RZA2M/rza2m_2d_barcode_sample_freertos_gcc/src/zxing_lib/zxing/common/Counted.h ****   }
  73:/home/zkmike/workspace/RZA2M/rza2m_2d_barcode_sample_freertos_gcc/src/zxing_lib/zxing/common/Counted.h **** 
  74:/home/zkmike/workspace/RZA2M/rza2m_2d_barcode_sample_freertos_gcc/src/zxing_lib/zxing/common/Counted.h ****   ~Ref() {
  75:/home/zkmike/workspace/RZA2M/rza2m_2d_barcode_sample_freertos_gcc/src/zxing_lib/zxing/common/Counted.h ****     if (object_) {
  76:/home/zkmike/workspace/RZA2M/rza2m_2d_barcode_sample_freertos_gcc/src/zxing_lib/zxing/common/Counted.h ****       object_->release();
  77:/home/zkmike/workspace/RZA2M/rza2m_2d_barcode_sample_freertos_gcc/src/zxing_lib/zxing/common/Counted.h ****     }
  78:/home/zkmike/workspace/RZA2M/rza2m_2d_barcode_sample_freertos_gcc/src/zxing_lib/zxing/common/Counted.h ****   }
  79:/home/zkmike/workspace/RZA2M/rza2m_2d_barcode_sample_freertos_gcc/src/zxing_lib/zxing/common/Counted.h **** 
  80:/home/zkmike/workspace/RZA2M/rza2m_2d_barcode_sample_freertos_gcc/src/zxing_lib/zxing/common/Counted.h ****   void reset(T *o) {
  81:/home/zkmike/workspace/RZA2M/rza2m_2d_barcode_sample_freertos_gcc/src/zxing_lib/zxing/common/Counted.h ****     if (o) {
  82:/home/zkmike/workspace/RZA2M/rza2m_2d_barcode_sample_freertos_gcc/src/zxing_lib/zxing/common/Counted.h ****       o->retain();
  83:/home/zkmike/workspace/RZA2M/rza2m_2d_barcode_sample_freertos_gcc/src/zxing_lib/zxing/common/Counted.h ****     }
  84:/home/zkmike/workspace/RZA2M/rza2m_2d_barcode_sample_freertos_gcc/src/zxing_lib/zxing/common/Counted.h ****     if (object_ != 0) {
  85:/home/zkmike/workspace/RZA2M/rza2m_2d_barcode_sample_freertos_gcc/src/zxing_lib/zxing/common/Counted.h ****       object_->release();
  86:/home/zkmike/workspace/RZA2M/rza2m_2d_barcode_sample_freertos_gcc/src/zxing_lib/zxing/common/Counted.h ****     }
  87:/home/zkmike/workspace/RZA2M/rza2m_2d_barcode_sample_freertos_gcc/src/zxing_lib/zxing/common/Counted.h ****     object_ = o;
 800              		.loc 3 87 0
 801 0014 0030A0E3 		mov	r3, #0
 802              	.LVL62:
 803 0018 24308DE5 		str	r3, [sp, #36]
 804              	.LVL63:
 805              	.LBE778:
 806              	.LBE777:
 807              	.LBE776:
 808              	.LBE775:
 809              	.LBE774:
 810              	.LBB779:
 811              	.LBB780:
 812              	.LBB781:
  64:/home/zkmike/workspace/RZA2M/rza2m_2d_barcode_sample_freertos_gcc/src/zxing_lib/zxing/common/Counted.h ****     reset(other.object_);
 813              		.loc 3 64 0
 814 001c 28308DE5 		str	r3, [sp, #40]
  65:/home/zkmike/workspace/RZA2M/rza2m_2d_barcode_sample_freertos_gcc/src/zxing_lib/zxing/common/Counted.h ****   }
 815              		.loc 3 65 0
 816 0020 004092E5 		ldr	r4, [r2]
 817              	.LVL64:
 818              	.LBB782:
 819              	.LBB783:
  81:/home/zkmike/workspace/RZA2M/rza2m_2d_barcode_sample_freertos_gcc/src/zxing_lib/zxing/common/Counted.h ****       o->retain();
 820              		.loc 3 81 0
 821 0024 030054E1 		cmp	r4, r3
 822              	.LVL65:
 823              	.LBB784:
 824              	.LBB785:
  36:/home/zkmike/workspace/RZA2M/rza2m_2d_barcode_sample_freertos_gcc/src/zxing_lib/zxing/common/Counted.h ****     return this;
 825              		.loc 3 36 0
 826 0028 04309415 		ldrne	r3, [r4, #4]
 827 002c 01308312 		addne	r3, r3, #1
 828 0030 04308415 		strne	r3, [r4, #4]
 829              	.LVL66:
 830              	.L64:
 831              	.LBE785:
 832              	.LBE784:
  84:/home/zkmike/workspace/RZA2M/rza2m_2d_barcode_sample_freertos_gcc/src/zxing_lib/zxing/common/Counted.h ****       object_->release();
 833              		.loc 3 84 0
 834 0034 28009DE5 		ldr	r0, [sp, #40]
 835              	.LVL67:
 836 0038 000050E3 		cmp	r0, #0
 837 003c 0400000A 		beq	.L65
 838              	.LVL68:
 839              	.LBB786:
 840              	.LBB787:
  40:/home/zkmike/workspace/RZA2M/rza2m_2d_barcode_sample_freertos_gcc/src/zxing_lib/zxing/common/Counted.h ****     if (count_ == 0) {
 841              		.loc 3 40 0
 842 0040 043090E5 		ldr	r3, [r0, #4]
 843 0044 013043E2 		sub	r3, r3, #1
 844 0048 043080E5 		str	r3, [r0, #4]
  41:/home/zkmike/workspace/RZA2M/rza2m_2d_barcode_sample_freertos_gcc/src/zxing_lib/zxing/common/Counted.h ****       count_ = 0xDEADF001;
 845              		.loc 3 41 0
 846 004c 000053E3 		cmp	r3, #0
 847 0050 0400000A 		beq	.L116
 848              	.LVL69:
 849              	.L65:
 850              	.LBE787:
 851              	.LBE786:
 852              		.loc 3 87 0
 853 0054 50108DE2 		add	r1, sp, #80
 854 0058 284021E5 		str	r4, [r1, #-40]!
 855              	.LVL70:
 856              	.LBE783:
 857              	.LBE782:
 858              	.LBE781:
 859              	.LBE780:
 860              	.LBE779:
  43:../src/zxing_lib/zxing/pdf417/PDF417Reader.cpp ****   Ref<DetectorResult> detectorResult = detector.detect(hints); /* 2012-09-17 hints ("try_harder") *
 861              		.loc 5 43 0
 862 005c 20008DE2 		add	r0, sp, #32
 863              	.LEHB2:
 864 0060 FEFFFFEB 		bl	_ZN5zxing6pdf4178detector8DetectorC1ENS_3RefINS_12BinaryBitmapEEE
 865              	.LVL71:
 866              	.LEHE2:
 867 0064 060000EA 		b	.L117
 868              	.LVL72:
 869              	.L116:
 870              	.LBB794:
 871              	.LBB793:
 872              	.LBB792:
 873              	.LBB791:
 874              	.LBB790:
 875              	.LBB789:
 876              	.LBB788:
  42:/home/zkmike/workspace/RZA2M/rza2m_2d_barcode_sample_freertos_gcc/src/zxing_lib/zxing/common/Counted.h ****       delete this;
 877              		.loc 3 42 0
 878 0068 01300FE3 		movw	r3, #61441
 879 006c AD3E4DE3 		movt	r3, 57005
 880 0070 043080E5 		str	r3, [r0, #4]
  43:/home/zkmike/workspace/RZA2M/rza2m_2d_barcode_sample_freertos_gcc/src/zxing_lib/zxing/common/Counted.h ****     }
 881              		.loc 3 43 0
 882 0074 003090E5 		ldr	r3, [r0]
 883 0078 043093E5 		ldr	r3, [r3, #4]
 884 007c 33FF2FE1 		blx	r3
 885              	.LVL73:
 886 0080 F3FFFFEA 		b	.L65
 887              	.LVL74:
 888              	.L117:
 889              	.LBE788:
 890              	.LBE789:
 891              	.LBE790:
 892              	.LBE791:
 893              	.LBE792:
 894              	.LBE793:
 895              	.LBE794:
 896              	.LBB795:
 897              	.LBB796:
  75:/home/zkmike/workspace/RZA2M/rza2m_2d_barcode_sample_freertos_gcc/src/zxing_lib/zxing/common/Counted.h ****       object_->release();
 898              		.loc 3 75 0
 899 0084 28009DE5 		ldr	r0, [sp, #40]
 900 0088 000050E3 		cmp	r0, #0
 901 008c 0400000A 		beq	.L66
 902              	.LVL75:
 903              	.LBB797:
 904              	.LBB798:
  40:/home/zkmike/workspace/RZA2M/rza2m_2d_barcode_sample_freertos_gcc/src/zxing_lib/zxing/common/Counted.h ****     if (count_ == 0) {
 905              		.loc 3 40 0
 906 0090 043090E5 		ldr	r3, [r0, #4]
 907 0094 013043E2 		sub	r3, r3, #1
 908 0098 043080E5 		str	r3, [r0, #4]
  41:/home/zkmike/workspace/RZA2M/rza2m_2d_barcode_sample_freertos_gcc/src/zxing_lib/zxing/common/Counted.h ****       count_ = 0xDEADF001;
 909              		.loc 3 41 0
 910 009c 000053E3 		cmp	r3, #0
 911 00a0 0400000A 		beq	.L118
 912              	.LVL76:
 913              	.L66:
 914              	.LBE798:
 915              	.LBE797:
 916              	.LBE796:
 917              	.LBE795:
  44:../src/zxing_lib/zxing/pdf417/PDF417Reader.cpp ****   ArrayRef< Ref<ResultPoint> > points(detectorResult->getPoints());
 918              		.loc 5 44 0
 919 00a4 0620A0E1 		mov	r2, r6
 920 00a8 20108DE2 		add	r1, sp, #32
 921 00ac 1C008DE2 		add	r0, sp, #28
 922              	.LEHB3:
 923 00b0 FEFFFFEB 		bl	_ZN5zxing6pdf4178detector8Detector6detectERKNS_11DecodeHintsE
 924              	.LVL77:
 925              	.LEHE3:
 926 00b4 060000EA 		b	.L119
 927              	.LVL78:
 928              	.L118:
 929              	.LBB802:
 930              	.LBB801:
 931              	.LBB800:
 932              	.LBB799:
  42:/home/zkmike/workspace/RZA2M/rza2m_2d_barcode_sample_freertos_gcc/src/zxing_lib/zxing/common/Counted.h ****       delete this;
 933              		.loc 3 42 0
 934 00b8 01300FE3 		movw	r3, #61441
 935 00bc AD3E4DE3 		movt	r3, 57005
 936 00c0 043080E5 		str	r3, [r0, #4]
  43:/home/zkmike/workspace/RZA2M/rza2m_2d_barcode_sample_freertos_gcc/src/zxing_lib/zxing/common/Counted.h ****     }
 937              		.loc 3 43 0
 938 00c4 003090E5 		ldr	r3, [r0]
 939 00c8 043093E5 		ldr	r3, [r3, #4]
 940 00cc 33FF2FE1 		blx	r3
 941              	.LVL79:
 942 00d0 F3FFFFEA 		b	.L66
 943              	.LVL80:
 944              	.L119:
 945              	.LBE799:
 946              	.LBE800:
 947              	.LBE801:
 948              	.LBE802:
  45:../src/zxing_lib/zxing/pdf417/PDF417Reader.cpp ****   
 949              		.loc 5 45 0
 950 00d4 1C109DE5 		ldr	r1, [sp, #28]
 951 00d8 10008DE2 		add	r0, sp, #16
 952              	.LEHB4:
 953 00dc FEFFFFEB 		bl	_ZN5zxing14DetectorResult9getPointsEv
 954              	.LVL81:
 955              	.LEHE4:
 956              	.LBB803:
 957              	.LBB804:
 958              	.LBB805:
 959              		.file 7 "/home/zkmike/workspace/RZA2M/rza2m_2d_barcode_sample_freertos_gcc/src/zxing_lib/zxing/Dec
   1:/home/zkmike/workspace/RZA2M/rza2m_2d_barcode_sample_freertos_gcc/src/zxing_lib/zxing/DecodeHints.h **** // -*- mode:c++; tab-width:2; indent-tabs-mode:nil; c-basic-offset:2 -*-
   2:/home/zkmike/workspace/RZA2M/rza2m_2d_barcode_sample_freertos_gcc/src/zxing_lib/zxing/DecodeHints.h **** #ifndef __DECODEHINTS_H_
   3:/home/zkmike/workspace/RZA2M/rza2m_2d_barcode_sample_freertos_gcc/src/zxing_lib/zxing/DecodeHints.h **** #define __DECODEHINTS_H_
   4:/home/zkmike/workspace/RZA2M/rza2m_2d_barcode_sample_freertos_gcc/src/zxing_lib/zxing/DecodeHints.h **** /*
   5:/home/zkmike/workspace/RZA2M/rza2m_2d_barcode_sample_freertos_gcc/src/zxing_lib/zxing/DecodeHints.h ****  *  DecodeHintType.h
   6:/home/zkmike/workspace/RZA2M/rza2m_2d_barcode_sample_freertos_gcc/src/zxing_lib/zxing/DecodeHints.h ****  *  zxing
   7:/home/zkmike/workspace/RZA2M/rza2m_2d_barcode_sample_freertos_gcc/src/zxing_lib/zxing/DecodeHints.h ****  *
   8:/home/zkmike/workspace/RZA2M/rza2m_2d_barcode_sample_freertos_gcc/src/zxing_lib/zxing/DecodeHints.h ****  *  Copyright 2010 ZXing authors All rights reserved.
   9:/home/zkmike/workspace/RZA2M/rza2m_2d_barcode_sample_freertos_gcc/src/zxing_lib/zxing/DecodeHints.h ****  *
  10:/home/zkmike/workspace/RZA2M/rza2m_2d_barcode_sample_freertos_gcc/src/zxing_lib/zxing/DecodeHints.h ****  * Licensed under the Apache License, Version 2.0 (the "License");
  11:/home/zkmike/workspace/RZA2M/rza2m_2d_barcode_sample_freertos_gcc/src/zxing_lib/zxing/DecodeHints.h ****  * you may not use this file except in compliance with the License.
  12:/home/zkmike/workspace/RZA2M/rza2m_2d_barcode_sample_freertos_gcc/src/zxing_lib/zxing/DecodeHints.h ****  * You may obtain a copy of the License at
  13:/home/zkmike/workspace/RZA2M/rza2m_2d_barcode_sample_freertos_gcc/src/zxing_lib/zxing/DecodeHints.h ****  *
  14:/home/zkmike/workspace/RZA2M/rza2m_2d_barcode_sample_freertos_gcc/src/zxing_lib/zxing/DecodeHints.h ****  *      http://www.apache.org/licenses/LICENSE-2.0
  15:/home/zkmike/workspace/RZA2M/rza2m_2d_barcode_sample_freertos_gcc/src/zxing_lib/zxing/DecodeHints.h ****  *
  16:/home/zkmike/workspace/RZA2M/rza2m_2d_barcode_sample_freertos_gcc/src/zxing_lib/zxing/DecodeHints.h ****  * Unless required by applicable law or agreed to in writing, software
  17:/home/zkmike/workspace/RZA2M/rza2m_2d_barcode_sample_freertos_gcc/src/zxing_lib/zxing/DecodeHints.h ****  * distributed under the License is distributed on an "AS IS" BASIS,
  18:/home/zkmike/workspace/RZA2M/rza2m_2d_barcode_sample_freertos_gcc/src/zxing_lib/zxing/DecodeHints.h ****  * WITHOUT WARRANTIES OR CONDITIONS OF ANY KIND, either express or implied.
  19:/home/zkmike/workspace/RZA2M/rza2m_2d_barcode_sample_freertos_gcc/src/zxing_lib/zxing/DecodeHints.h ****  * See the License for the specific language governing permissions and
  20:/home/zkmike/workspace/RZA2M/rza2m_2d_barcode_sample_freertos_gcc/src/zxing_lib/zxing/DecodeHints.h ****  * limitations under the License.
  21:/home/zkmike/workspace/RZA2M/rza2m_2d_barcode_sample_freertos_gcc/src/zxing_lib/zxing/DecodeHints.h ****  */
  22:/home/zkmike/workspace/RZA2M/rza2m_2d_barcode_sample_freertos_gcc/src/zxing_lib/zxing/DecodeHints.h **** 
  23:/home/zkmike/workspace/RZA2M/rza2m_2d_barcode_sample_freertos_gcc/src/zxing_lib/zxing/DecodeHints.h **** #include <zxing/BarcodeFormat.h>
  24:/home/zkmike/workspace/RZA2M/rza2m_2d_barcode_sample_freertos_gcc/src/zxing_lib/zxing/DecodeHints.h **** #include <zxing/ResultPointCallback.h>
  25:/home/zkmike/workspace/RZA2M/rza2m_2d_barcode_sample_freertos_gcc/src/zxing_lib/zxing/DecodeHints.h **** 
  26:/home/zkmike/workspace/RZA2M/rza2m_2d_barcode_sample_freertos_gcc/src/zxing_lib/zxing/DecodeHints.h **** namespace zxing {
  27:/home/zkmike/workspace/RZA2M/rza2m_2d_barcode_sample_freertos_gcc/src/zxing_lib/zxing/DecodeHints.h **** 
  28:/home/zkmike/workspace/RZA2M/rza2m_2d_barcode_sample_freertos_gcc/src/zxing_lib/zxing/DecodeHints.h **** typedef unsigned int DecodeHintType;
  29:/home/zkmike/workspace/RZA2M/rza2m_2d_barcode_sample_freertos_gcc/src/zxing_lib/zxing/DecodeHints.h **** class DecodeHints;
  30:/home/zkmike/workspace/RZA2M/rza2m_2d_barcode_sample_freertos_gcc/src/zxing_lib/zxing/DecodeHints.h **** DecodeHints operator | (DecodeHints const&, DecodeHints const&);
  31:/home/zkmike/workspace/RZA2M/rza2m_2d_barcode_sample_freertos_gcc/src/zxing_lib/zxing/DecodeHints.h **** 
  32:/home/zkmike/workspace/RZA2M/rza2m_2d_barcode_sample_freertos_gcc/src/zxing_lib/zxing/DecodeHints.h **** class DecodeHints {
  33:/home/zkmike/workspace/RZA2M/rza2m_2d_barcode_sample_freertos_gcc/src/zxing_lib/zxing/DecodeHints.h ****  private:
  34:/home/zkmike/workspace/RZA2M/rza2m_2d_barcode_sample_freertos_gcc/src/zxing_lib/zxing/DecodeHints.h ****   DecodeHintType hints;
  35:/home/zkmike/workspace/RZA2M/rza2m_2d_barcode_sample_freertos_gcc/src/zxing_lib/zxing/DecodeHints.h ****   Ref<ResultPointCallback> callback;
  36:/home/zkmike/workspace/RZA2M/rza2m_2d_barcode_sample_freertos_gcc/src/zxing_lib/zxing/DecodeHints.h **** 
  37:/home/zkmike/workspace/RZA2M/rza2m_2d_barcode_sample_freertos_gcc/src/zxing_lib/zxing/DecodeHints.h ****  public:
  38:/home/zkmike/workspace/RZA2M/rza2m_2d_barcode_sample_freertos_gcc/src/zxing_lib/zxing/DecodeHints.h ****   static const DecodeHintType AZTEC_HINT = 1 << BarcodeFormat::AZTEC;
  39:/home/zkmike/workspace/RZA2M/rza2m_2d_barcode_sample_freertos_gcc/src/zxing_lib/zxing/DecodeHints.h ****   static const DecodeHintType CODABAR_HINT = 1 << BarcodeFormat::CODABAR;
  40:/home/zkmike/workspace/RZA2M/rza2m_2d_barcode_sample_freertos_gcc/src/zxing_lib/zxing/DecodeHints.h ****   static const DecodeHintType CODE_39_HINT = 1 << BarcodeFormat::CODE_39;
  41:/home/zkmike/workspace/RZA2M/rza2m_2d_barcode_sample_freertos_gcc/src/zxing_lib/zxing/DecodeHints.h ****   static const DecodeHintType CODE_93_HINT = 1 << BarcodeFormat::CODE_93;
  42:/home/zkmike/workspace/RZA2M/rza2m_2d_barcode_sample_freertos_gcc/src/zxing_lib/zxing/DecodeHints.h ****   static const DecodeHintType CODE_128_HINT = 1 << BarcodeFormat::CODE_128;
  43:/home/zkmike/workspace/RZA2M/rza2m_2d_barcode_sample_freertos_gcc/src/zxing_lib/zxing/DecodeHints.h ****   static const DecodeHintType DATA_MATRIX_HINT = 1 << BarcodeFormat::DATA_MATRIX;
  44:/home/zkmike/workspace/RZA2M/rza2m_2d_barcode_sample_freertos_gcc/src/zxing_lib/zxing/DecodeHints.h ****   static const DecodeHintType EAN_8_HINT = 1 << BarcodeFormat::EAN_8;
  45:/home/zkmike/workspace/RZA2M/rza2m_2d_barcode_sample_freertos_gcc/src/zxing_lib/zxing/DecodeHints.h ****   static const DecodeHintType EAN_13_HINT = 1 << BarcodeFormat::EAN_13;
  46:/home/zkmike/workspace/RZA2M/rza2m_2d_barcode_sample_freertos_gcc/src/zxing_lib/zxing/DecodeHints.h ****   static const DecodeHintType ITF_HINT = 1 << BarcodeFormat::ITF;
  47:/home/zkmike/workspace/RZA2M/rza2m_2d_barcode_sample_freertos_gcc/src/zxing_lib/zxing/DecodeHints.h ****   static const DecodeHintType MAXICODE_HINT = 1 << BarcodeFormat::MAXICODE;
  48:/home/zkmike/workspace/RZA2M/rza2m_2d_barcode_sample_freertos_gcc/src/zxing_lib/zxing/DecodeHints.h ****   static const DecodeHintType PDF_417_HINT = 1 << BarcodeFormat::PDF_417;
  49:/home/zkmike/workspace/RZA2M/rza2m_2d_barcode_sample_freertos_gcc/src/zxing_lib/zxing/DecodeHints.h ****   static const DecodeHintType QR_CODE_HINT = 1 << BarcodeFormat::QR_CODE;
  50:/home/zkmike/workspace/RZA2M/rza2m_2d_barcode_sample_freertos_gcc/src/zxing_lib/zxing/DecodeHints.h ****   static const DecodeHintType RSS_14_HINT = 1 << BarcodeFormat::RSS_14;
  51:/home/zkmike/workspace/RZA2M/rza2m_2d_barcode_sample_freertos_gcc/src/zxing_lib/zxing/DecodeHints.h ****   static const DecodeHintType RSS_EXPANDED_HINT = 1 << BarcodeFormat::RSS_EXPANDED;
  52:/home/zkmike/workspace/RZA2M/rza2m_2d_barcode_sample_freertos_gcc/src/zxing_lib/zxing/DecodeHints.h ****   static const DecodeHintType UPC_A_HINT = 1 << BarcodeFormat::UPC_A;
  53:/home/zkmike/workspace/RZA2M/rza2m_2d_barcode_sample_freertos_gcc/src/zxing_lib/zxing/DecodeHints.h ****   static const DecodeHintType UPC_E_HINT = 1 << BarcodeFormat::UPC_E;
  54:/home/zkmike/workspace/RZA2M/rza2m_2d_barcode_sample_freertos_gcc/src/zxing_lib/zxing/DecodeHints.h ****   static const DecodeHintType UPC_EAN_EXTENSION_HINT = 1 << BarcodeFormat::UPC_EAN_EXTENSION;
  55:/home/zkmike/workspace/RZA2M/rza2m_2d_barcode_sample_freertos_gcc/src/zxing_lib/zxing/DecodeHints.h **** 
  56:/home/zkmike/workspace/RZA2M/rza2m_2d_barcode_sample_freertos_gcc/src/zxing_lib/zxing/DecodeHints.h ****   static const DecodeHintType TRYHARDER_HINT = 1 << 31;
  57:/home/zkmike/workspace/RZA2M/rza2m_2d_barcode_sample_freertos_gcc/src/zxing_lib/zxing/DecodeHints.h ****   static const DecodeHintType CHARACTER_SET = 1 << 30;
  58:/home/zkmike/workspace/RZA2M/rza2m_2d_barcode_sample_freertos_gcc/src/zxing_lib/zxing/DecodeHints.h ****   // static const DecodeHintType ALLOWED_LENGTHS = 1 << 29;
  59:/home/zkmike/workspace/RZA2M/rza2m_2d_barcode_sample_freertos_gcc/src/zxing_lib/zxing/DecodeHints.h ****   // static const DecodeHintType ASSUME_CODE_39_CHECK_DIGIT = 1 << 28;
  60:/home/zkmike/workspace/RZA2M/rza2m_2d_barcode_sample_freertos_gcc/src/zxing_lib/zxing/DecodeHints.h ****   static const DecodeHintType  ASSUME_GS1 = 1 << 27;
  61:/home/zkmike/workspace/RZA2M/rza2m_2d_barcode_sample_freertos_gcc/src/zxing_lib/zxing/DecodeHints.h ****   // static const DecodeHintType NEED_RESULT_POINT_CALLBACK = 1 << 26;
  62:/home/zkmike/workspace/RZA2M/rza2m_2d_barcode_sample_freertos_gcc/src/zxing_lib/zxing/DecodeHints.h ****   
  63:/home/zkmike/workspace/RZA2M/rza2m_2d_barcode_sample_freertos_gcc/src/zxing_lib/zxing/DecodeHints.h ****   static const DecodeHints PRODUCT_HINT;
  64:/home/zkmike/workspace/RZA2M/rza2m_2d_barcode_sample_freertos_gcc/src/zxing_lib/zxing/DecodeHints.h ****   static const DecodeHints ONED_HINT;
  65:/home/zkmike/workspace/RZA2M/rza2m_2d_barcode_sample_freertos_gcc/src/zxing_lib/zxing/DecodeHints.h ****   static const DecodeHints DEFAULT_HINT;
  66:/home/zkmike/workspace/RZA2M/rza2m_2d_barcode_sample_freertos_gcc/src/zxing_lib/zxing/DecodeHints.h **** 
  67:/home/zkmike/workspace/RZA2M/rza2m_2d_barcode_sample_freertos_gcc/src/zxing_lib/zxing/DecodeHints.h ****   DecodeHints();
  68:/home/zkmike/workspace/RZA2M/rza2m_2d_barcode_sample_freertos_gcc/src/zxing_lib/zxing/DecodeHints.h ****   DecodeHints(DecodeHintType init);
  69:/home/zkmike/workspace/RZA2M/rza2m_2d_barcode_sample_freertos_gcc/src/zxing_lib/zxing/DecodeHints.h **** 
  70:/home/zkmike/workspace/RZA2M/rza2m_2d_barcode_sample_freertos_gcc/src/zxing_lib/zxing/DecodeHints.h ****   void addFormat(BarcodeFormat toadd);
  71:/home/zkmike/workspace/RZA2M/rza2m_2d_barcode_sample_freertos_gcc/src/zxing_lib/zxing/DecodeHints.h ****   bool containsFormat(BarcodeFormat tocheck) const;
  72:/home/zkmike/workspace/RZA2M/rza2m_2d_barcode_sample_freertos_gcc/src/zxing_lib/zxing/DecodeHints.h ****   bool isEmpty() const {return (hints==0);}
 960              		.loc 7 72 0
 961 00e0 003096E5 		ldr	r3, [r6]
 962              	.LVL82:
 963              	.LBE805:
 964              	.LBE804:
  47:../src/zxing_lib/zxing/pdf417/PDF417Reader.cpp ****     Ref<ResultPointCallback> rpcb = hints.getResultPointCallback();
 965              		.loc 5 47 0
 966 00e4 000053E3 		cmp	r3, #0
 967 00e8 1C00000A 		beq	.L67
 968              	.LBB806:
  48:../src/zxing_lib/zxing/pdf417/PDF417Reader.cpp ****     /* .get(DecodeHintType.NEED_RESULT_POINT_CALLBACK); */
 969              		.loc 5 48 0
 970 00ec 0610A0E1 		mov	r1, r6
 971 00f0 0C008DE2 		add	r0, sp, #12
 972              	.LEHB5:
 973 00f4 FEFFFFEB 		bl	_ZNK5zxing11DecodeHints22getResultPointCallbackEv
 974              	.LVL83:
 975              	.LEHE5:
 976              	.LBB807:
 977              	.LBB808:
 978              	.LBB809:
 979              	.LBB810:
  88:/home/zkmike/workspace/RZA2M/rza2m_2d_barcode_sample_freertos_gcc/src/zxing_lib/zxing/common/Counted.h ****   }
  89:/home/zkmike/workspace/RZA2M/rza2m_2d_barcode_sample_freertos_gcc/src/zxing_lib/zxing/common/Counted.h ****   Ref& operator=(const Ref &other) {
  90:/home/zkmike/workspace/RZA2M/rza2m_2d_barcode_sample_freertos_gcc/src/zxing_lib/zxing/common/Counted.h ****     reset(other.object_);
  91:/home/zkmike/workspace/RZA2M/rza2m_2d_barcode_sample_freertos_gcc/src/zxing_lib/zxing/common/Counted.h ****     return *this;
  92:/home/zkmike/workspace/RZA2M/rza2m_2d_barcode_sample_freertos_gcc/src/zxing_lib/zxing/common/Counted.h ****   }
  93:/home/zkmike/workspace/RZA2M/rza2m_2d_barcode_sample_freertos_gcc/src/zxing_lib/zxing/common/Counted.h ****   template<class Y>
  94:/home/zkmike/workspace/RZA2M/rza2m_2d_barcode_sample_freertos_gcc/src/zxing_lib/zxing/common/Counted.h ****   Ref& operator=(const Ref<Y> &other) {
  95:/home/zkmike/workspace/RZA2M/rza2m_2d_barcode_sample_freertos_gcc/src/zxing_lib/zxing/common/Counted.h ****     reset(other.object_);
  96:/home/zkmike/workspace/RZA2M/rza2m_2d_barcode_sample_freertos_gcc/src/zxing_lib/zxing/common/Counted.h ****     return *this;
  97:/home/zkmike/workspace/RZA2M/rza2m_2d_barcode_sample_freertos_gcc/src/zxing_lib/zxing/common/Counted.h ****   }
  98:/home/zkmike/workspace/RZA2M/rza2m_2d_barcode_sample_freertos_gcc/src/zxing_lib/zxing/common/Counted.h ****   Ref& operator=(T* o) {
  99:/home/zkmike/workspace/RZA2M/rza2m_2d_barcode_sample_freertos_gcc/src/zxing_lib/zxing/common/Counted.h ****     reset(o);
 100:/home/zkmike/workspace/RZA2M/rza2m_2d_barcode_sample_freertos_gcc/src/zxing_lib/zxing/common/Counted.h ****     return *this;
 101:/home/zkmike/workspace/RZA2M/rza2m_2d_barcode_sample_freertos_gcc/src/zxing_lib/zxing/common/Counted.h ****   }
 102:/home/zkmike/workspace/RZA2M/rza2m_2d_barcode_sample_freertos_gcc/src/zxing_lib/zxing/common/Counted.h ****   template<class Y>
 103:/home/zkmike/workspace/RZA2M/rza2m_2d_barcode_sample_freertos_gcc/src/zxing_lib/zxing/common/Counted.h ****   Ref& operator=(Y* o) {
 104:/home/zkmike/workspace/RZA2M/rza2m_2d_barcode_sample_freertos_gcc/src/zxing_lib/zxing/common/Counted.h ****     reset(o);
 105:/home/zkmike/workspace/RZA2M/rza2m_2d_barcode_sample_freertos_gcc/src/zxing_lib/zxing/common/Counted.h ****     return *this;
 106:/home/zkmike/workspace/RZA2M/rza2m_2d_barcode_sample_freertos_gcc/src/zxing_lib/zxing/common/Counted.h ****   }
 107:/home/zkmike/workspace/RZA2M/rza2m_2d_barcode_sample_freertos_gcc/src/zxing_lib/zxing/common/Counted.h **** 
 108:/home/zkmike/workspace/RZA2M/rza2m_2d_barcode_sample_freertos_gcc/src/zxing_lib/zxing/common/Counted.h ****   T& operator*() {
 109:/home/zkmike/workspace/RZA2M/rza2m_2d_barcode_sample_freertos_gcc/src/zxing_lib/zxing/common/Counted.h ****     return *object_;
 110:/home/zkmike/workspace/RZA2M/rza2m_2d_barcode_sample_freertos_gcc/src/zxing_lib/zxing/common/Counted.h ****   }
 111:/home/zkmike/workspace/RZA2M/rza2m_2d_barcode_sample_freertos_gcc/src/zxing_lib/zxing/common/Counted.h ****   T* operator->() const {
 112:/home/zkmike/workspace/RZA2M/rza2m_2d_barcode_sample_freertos_gcc/src/zxing_lib/zxing/common/Counted.h ****     return object_;
 113:/home/zkmike/workspace/RZA2M/rza2m_2d_barcode_sample_freertos_gcc/src/zxing_lib/zxing/common/Counted.h ****   }
 114:/home/zkmike/workspace/RZA2M/rza2m_2d_barcode_sample_freertos_gcc/src/zxing_lib/zxing/common/Counted.h ****   operator T*() const {
 115:/home/zkmike/workspace/RZA2M/rza2m_2d_barcode_sample_freertos_gcc/src/zxing_lib/zxing/common/Counted.h ****     return object_;
 116:/home/zkmike/workspace/RZA2M/rza2m_2d_barcode_sample_freertos_gcc/src/zxing_lib/zxing/common/Counted.h ****   }
 117:/home/zkmike/workspace/RZA2M/rza2m_2d_barcode_sample_freertos_gcc/src/zxing_lib/zxing/common/Counted.h **** 
 118:/home/zkmike/workspace/RZA2M/rza2m_2d_barcode_sample_freertos_gcc/src/zxing_lib/zxing/common/Counted.h ****   bool operator==(const T* that) {
 119:/home/zkmike/workspace/RZA2M/rza2m_2d_barcode_sample_freertos_gcc/src/zxing_lib/zxing/common/Counted.h ****     return object_ == that;
 980              		.loc 3 119 0
 981 00f8 0C309DE5 		ldr	r3, [sp, #12]
 982              	.LVL84:
 983              	.LBE810:
 984              	.LBE809:
 985              	.LBE808:
  50:../src/zxing_lib/zxing/pdf417/PDF417Reader.cpp ****       for (int i = 0; i < points->size(); i++) {
 986              		.loc 5 50 0
 987 00fc 000053E3 		cmp	r3, #0
 988 0100 0E00000A 		beq	.L68
 989 0104 0040A0E3 		mov	r4, #0
 990 0108 000000EA 		b	.L69
 991              	.LVL85:
 992              	.L120:
 993              	.LBB811:
  51:../src/zxing_lib/zxing/pdf417/PDF417Reader.cpp ****         rpcb->foundPossibleResultPoint(*points[i]);
 994              		.loc 5 51 0 discriminator 2
 995 010c 014084E2 		add	r4, r4, #1
 996              	.LVL86:
 997              	.L69:
 998              	.LBB812:
 999              	.LBB813:
 122:/home/zkmike/workspace/RZA2M/rza2m_2d_barcode_sample_freertos_gcc/src/zxing_lib/zxing/common/Array.h **** 
 123:/home/zkmike/workspace/RZA2M/rza2m_2d_barcode_sample_freertos_gcc/src/zxing_lib/zxing/common/Array.h ****   T const& operator[](int i) const {
 124:/home/zkmike/workspace/RZA2M/rza2m_2d_barcode_sample_freertos_gcc/src/zxing_lib/zxing/common/Array.h ****     return (*array_)[i];
 125:/home/zkmike/workspace/RZA2M/rza2m_2d_barcode_sample_freertos_gcc/src/zxing_lib/zxing/common/Array.h ****   }
 126:/home/zkmike/workspace/RZA2M/rza2m_2d_barcode_sample_freertos_gcc/src/zxing_lib/zxing/common/Array.h **** 
 127:/home/zkmike/workspace/RZA2M/rza2m_2d_barcode_sample_freertos_gcc/src/zxing_lib/zxing/common/Array.h ****   T& operator[](int i) {
 128:/home/zkmike/workspace/RZA2M/rza2m_2d_barcode_sample_freertos_gcc/src/zxing_lib/zxing/common/Array.h ****     return (*array_)[i];
 129:/home/zkmike/workspace/RZA2M/rza2m_2d_barcode_sample_freertos_gcc/src/zxing_lib/zxing/common/Array.h ****   }
 130:/home/zkmike/workspace/RZA2M/rza2m_2d_barcode_sample_freertos_gcc/src/zxing_lib/zxing/common/Array.h **** 
 131:/home/zkmike/workspace/RZA2M/rza2m_2d_barcode_sample_freertos_gcc/src/zxing_lib/zxing/common/Array.h ****   void reset(Array<T> *a) {
 132:/home/zkmike/workspace/RZA2M/rza2m_2d_barcode_sample_freertos_gcc/src/zxing_lib/zxing/common/Array.h ****     if (a) {
 133:/home/zkmike/workspace/RZA2M/rza2m_2d_barcode_sample_freertos_gcc/src/zxing_lib/zxing/common/Array.h ****       a->retain();
 134:/home/zkmike/workspace/RZA2M/rza2m_2d_barcode_sample_freertos_gcc/src/zxing_lib/zxing/common/Array.h ****     }
 135:/home/zkmike/workspace/RZA2M/rza2m_2d_barcode_sample_freertos_gcc/src/zxing_lib/zxing/common/Array.h ****     if (array_) {
 136:/home/zkmike/workspace/RZA2M/rza2m_2d_barcode_sample_freertos_gcc/src/zxing_lib/zxing/common/Array.h ****       array_->release();
 137:/home/zkmike/workspace/RZA2M/rza2m_2d_barcode_sample_freertos_gcc/src/zxing_lib/zxing/common/Array.h ****     }
 138:/home/zkmike/workspace/RZA2M/rza2m_2d_barcode_sample_freertos_gcc/src/zxing_lib/zxing/common/Array.h ****     array_ = a;
 139:/home/zkmike/workspace/RZA2M/rza2m_2d_barcode_sample_freertos_gcc/src/zxing_lib/zxing/common/Array.h ****   }
 140:/home/zkmike/workspace/RZA2M/rza2m_2d_barcode_sample_freertos_gcc/src/zxing_lib/zxing/common/Array.h ****   void reset(const ArrayRef<T> &other) {
 141:/home/zkmike/workspace/RZA2M/rza2m_2d_barcode_sample_freertos_gcc/src/zxing_lib/zxing/common/Array.h ****     reset(other.array_);
 142:/home/zkmike/workspace/RZA2M/rza2m_2d_barcode_sample_freertos_gcc/src/zxing_lib/zxing/common/Array.h ****   }
 143:/home/zkmike/workspace/RZA2M/rza2m_2d_barcode_sample_freertos_gcc/src/zxing_lib/zxing/common/Array.h ****   ArrayRef<T>& operator=(const ArrayRef<T> &other) {
 144:/home/zkmike/workspace/RZA2M/rza2m_2d_barcode_sample_freertos_gcc/src/zxing_lib/zxing/common/Array.h ****     reset(other);
 145:/home/zkmike/workspace/RZA2M/rza2m_2d_barcode_sample_freertos_gcc/src/zxing_lib/zxing/common/Array.h ****     return *this;
 146:/home/zkmike/workspace/RZA2M/rza2m_2d_barcode_sample_freertos_gcc/src/zxing_lib/zxing/common/Array.h ****   }
 147:/home/zkmike/workspace/RZA2M/rza2m_2d_barcode_sample_freertos_gcc/src/zxing_lib/zxing/common/Array.h ****   ArrayRef<T>& operator=(Array<T> *a) {
 148:/home/zkmike/workspace/RZA2M/rza2m_2d_barcode_sample_freertos_gcc/src/zxing_lib/zxing/common/Array.h ****     reset(a);
 149:/home/zkmike/workspace/RZA2M/rza2m_2d_barcode_sample_freertos_gcc/src/zxing_lib/zxing/common/Array.h ****     return *this;
 150:/home/zkmike/workspace/RZA2M/rza2m_2d_barcode_sample_freertos_gcc/src/zxing_lib/zxing/common/Array.h ****   }
 151:/home/zkmike/workspace/RZA2M/rza2m_2d_barcode_sample_freertos_gcc/src/zxing_lib/zxing/common/Array.h **** 
 152:/home/zkmike/workspace/RZA2M/rza2m_2d_barcode_sample_freertos_gcc/src/zxing_lib/zxing/common/Array.h ****   Array<T>& operator*() const {
 153:/home/zkmike/workspace/RZA2M/rza2m_2d_barcode_sample_freertos_gcc/src/zxing_lib/zxing/common/Array.h ****     return *array_;
 154:/home/zkmike/workspace/RZA2M/rza2m_2d_barcode_sample_freertos_gcc/src/zxing_lib/zxing/common/Array.h ****   }
 155:/home/zkmike/workspace/RZA2M/rza2m_2d_barcode_sample_freertos_gcc/src/zxing_lib/zxing/common/Array.h **** 
 156:/home/zkmike/workspace/RZA2M/rza2m_2d_barcode_sample_freertos_gcc/src/zxing_lib/zxing/common/Array.h ****   Array<T>* operator->() const {
 157:/home/zkmike/workspace/RZA2M/rza2m_2d_barcode_sample_freertos_gcc/src/zxing_lib/zxing/common/Array.h ****     return array_;
 1000              		.loc 2 157 0 discriminator 1
 1001 0110 18209DE5 		ldr	r2, [sp, #24]
 1002              	.LVL87:
 1003              	.LBE813:
 1004              	.LBE812:
 1005              	.LBB814:
 1006              	.LBB815:
 1007              	.LBB816:
 1008              		.file 8 "/home/zkmike/.local/share/renesas/e2_studio/toolchains/gcc_arm/gcc-arm-none-eabi-6-2017-q
   1:/home/zkmike/.local/share/renesas/e2_studio/toolchains/gcc_arm/gcc-arm-none-eabi-6-2017-q2-update/arm-none-eabi/include/c++/6.3.1/bits/stl_vector.h **** // Vector implementation -*- C++ -*-
   2:/home/zkmike/.local/share/renesas/e2_studio/toolchains/gcc_arm/gcc-arm-none-eabi-6-2017-q2-update/arm-none-eabi/include/c++/6.3.1/bits/stl_vector.h **** 
   3:/home/zkmike/.local/share/renesas/e2_studio/toolchains/gcc_arm/gcc-arm-none-eabi-6-2017-q2-update/arm-none-eabi/include/c++/6.3.1/bits/stl_vector.h **** // Copyright (C) 2001-2016 Free Software Foundation, Inc.
   4:/home/zkmike/.local/share/renesas/e2_studio/toolchains/gcc_arm/gcc-arm-none-eabi-6-2017-q2-update/arm-none-eabi/include/c++/6.3.1/bits/stl_vector.h **** //
   5:/home/zkmike/.local/share/renesas/e2_studio/toolchains/gcc_arm/gcc-arm-none-eabi-6-2017-q2-update/arm-none-eabi/include/c++/6.3.1/bits/stl_vector.h **** // This file is part of the GNU ISO C++ Library.  This library is free
   6:/home/zkmike/.local/share/renesas/e2_studio/toolchains/gcc_arm/gcc-arm-none-eabi-6-2017-q2-update/arm-none-eabi/include/c++/6.3.1/bits/stl_vector.h **** // software; you can redistribute it and/or modify it under the
   7:/home/zkmike/.local/share/renesas/e2_studio/toolchains/gcc_arm/gcc-arm-none-eabi-6-2017-q2-update/arm-none-eabi/include/c++/6.3.1/bits/stl_vector.h **** // terms of the GNU General Public License as published by the
   8:/home/zkmike/.local/share/renesas/e2_studio/toolchains/gcc_arm/gcc-arm-none-eabi-6-2017-q2-update/arm-none-eabi/include/c++/6.3.1/bits/stl_vector.h **** // Free Software Foundation; either version 3, or (at your option)
   9:/home/zkmike/.local/share/renesas/e2_studio/toolchains/gcc_arm/gcc-arm-none-eabi-6-2017-q2-update/arm-none-eabi/include/c++/6.3.1/bits/stl_vector.h **** // any later version.
  10:/home/zkmike/.local/share/renesas/e2_studio/toolchains/gcc_arm/gcc-arm-none-eabi-6-2017-q2-update/arm-none-eabi/include/c++/6.3.1/bits/stl_vector.h **** 
  11:/home/zkmike/.local/share/renesas/e2_studio/toolchains/gcc_arm/gcc-arm-none-eabi-6-2017-q2-update/arm-none-eabi/include/c++/6.3.1/bits/stl_vector.h **** // This library is distributed in the hope that it will be useful,
  12:/home/zkmike/.local/share/renesas/e2_studio/toolchains/gcc_arm/gcc-arm-none-eabi-6-2017-q2-update/arm-none-eabi/include/c++/6.3.1/bits/stl_vector.h **** // but WITHOUT ANY WARRANTY; without even the implied warranty of
  13:/home/zkmike/.local/share/renesas/e2_studio/toolchains/gcc_arm/gcc-arm-none-eabi-6-2017-q2-update/arm-none-eabi/include/c++/6.3.1/bits/stl_vector.h **** // MERCHANTABILITY or FITNESS FOR A PARTICULAR PURPOSE.  See the
  14:/home/zkmike/.local/share/renesas/e2_studio/toolchains/gcc_arm/gcc-arm-none-eabi-6-2017-q2-update/arm-none-eabi/include/c++/6.3.1/bits/stl_vector.h **** // GNU General Public License for more details.
  15:/home/zkmike/.local/share/renesas/e2_studio/toolchains/gcc_arm/gcc-arm-none-eabi-6-2017-q2-update/arm-none-eabi/include/c++/6.3.1/bits/stl_vector.h **** 
  16:/home/zkmike/.local/share/renesas/e2_studio/toolchains/gcc_arm/gcc-arm-none-eabi-6-2017-q2-update/arm-none-eabi/include/c++/6.3.1/bits/stl_vector.h **** // Under Section 7 of GPL version 3, you are granted additional
  17:/home/zkmike/.local/share/renesas/e2_studio/toolchains/gcc_arm/gcc-arm-none-eabi-6-2017-q2-update/arm-none-eabi/include/c++/6.3.1/bits/stl_vector.h **** // permissions described in the GCC Runtime Library Exception, version
  18:/home/zkmike/.local/share/renesas/e2_studio/toolchains/gcc_arm/gcc-arm-none-eabi-6-2017-q2-update/arm-none-eabi/include/c++/6.3.1/bits/stl_vector.h **** // 3.1, as published by the Free Software Foundation.
  19:/home/zkmike/.local/share/renesas/e2_studio/toolchains/gcc_arm/gcc-arm-none-eabi-6-2017-q2-update/arm-none-eabi/include/c++/6.3.1/bits/stl_vector.h **** 
  20:/home/zkmike/.local/share/renesas/e2_studio/toolchains/gcc_arm/gcc-arm-none-eabi-6-2017-q2-update/arm-none-eabi/include/c++/6.3.1/bits/stl_vector.h **** // You should have received a copy of the GNU General Public License and
  21:/home/zkmike/.local/share/renesas/e2_studio/toolchains/gcc_arm/gcc-arm-none-eabi-6-2017-q2-update/arm-none-eabi/include/c++/6.3.1/bits/stl_vector.h **** // a copy of the GCC Runtime Library Exception along with this program;
  22:/home/zkmike/.local/share/renesas/e2_studio/toolchains/gcc_arm/gcc-arm-none-eabi-6-2017-q2-update/arm-none-eabi/include/c++/6.3.1/bits/stl_vector.h **** // see the files COPYING3 and COPYING.RUNTIME respectively.  If not, see
  23:/home/zkmike/.local/share/renesas/e2_studio/toolchains/gcc_arm/gcc-arm-none-eabi-6-2017-q2-update/arm-none-eabi/include/c++/6.3.1/bits/stl_vector.h **** // <http://www.gnu.org/licenses/>.
  24:/home/zkmike/.local/share/renesas/e2_studio/toolchains/gcc_arm/gcc-arm-none-eabi-6-2017-q2-update/arm-none-eabi/include/c++/6.3.1/bits/stl_vector.h **** 
  25:/home/zkmike/.local/share/renesas/e2_studio/toolchains/gcc_arm/gcc-arm-none-eabi-6-2017-q2-update/arm-none-eabi/include/c++/6.3.1/bits/stl_vector.h **** /*
  26:/home/zkmike/.local/share/renesas/e2_studio/toolchains/gcc_arm/gcc-arm-none-eabi-6-2017-q2-update/arm-none-eabi/include/c++/6.3.1/bits/stl_vector.h ****  *
  27:/home/zkmike/.local/share/renesas/e2_studio/toolchains/gcc_arm/gcc-arm-none-eabi-6-2017-q2-update/arm-none-eabi/include/c++/6.3.1/bits/stl_vector.h ****  * Copyright (c) 1994
  28:/home/zkmike/.local/share/renesas/e2_studio/toolchains/gcc_arm/gcc-arm-none-eabi-6-2017-q2-update/arm-none-eabi/include/c++/6.3.1/bits/stl_vector.h ****  * Hewlett-Packard Company
  29:/home/zkmike/.local/share/renesas/e2_studio/toolchains/gcc_arm/gcc-arm-none-eabi-6-2017-q2-update/arm-none-eabi/include/c++/6.3.1/bits/stl_vector.h ****  *
  30:/home/zkmike/.local/share/renesas/e2_studio/toolchains/gcc_arm/gcc-arm-none-eabi-6-2017-q2-update/arm-none-eabi/include/c++/6.3.1/bits/stl_vector.h ****  * Permission to use, copy, modify, distribute and sell this software
  31:/home/zkmike/.local/share/renesas/e2_studio/toolchains/gcc_arm/gcc-arm-none-eabi-6-2017-q2-update/arm-none-eabi/include/c++/6.3.1/bits/stl_vector.h ****  * and its documentation for any purpose is hereby granted without fee,
  32:/home/zkmike/.local/share/renesas/e2_studio/toolchains/gcc_arm/gcc-arm-none-eabi-6-2017-q2-update/arm-none-eabi/include/c++/6.3.1/bits/stl_vector.h ****  * provided that the above copyright notice appear in all copies and
  33:/home/zkmike/.local/share/renesas/e2_studio/toolchains/gcc_arm/gcc-arm-none-eabi-6-2017-q2-update/arm-none-eabi/include/c++/6.3.1/bits/stl_vector.h ****  * that both that copyright notice and this permission notice appear
  34:/home/zkmike/.local/share/renesas/e2_studio/toolchains/gcc_arm/gcc-arm-none-eabi-6-2017-q2-update/arm-none-eabi/include/c++/6.3.1/bits/stl_vector.h ****  * in supporting documentation.  Hewlett-Packard Company makes no
  35:/home/zkmike/.local/share/renesas/e2_studio/toolchains/gcc_arm/gcc-arm-none-eabi-6-2017-q2-update/arm-none-eabi/include/c++/6.3.1/bits/stl_vector.h ****  * representations about the suitability of this software for any
  36:/home/zkmike/.local/share/renesas/e2_studio/toolchains/gcc_arm/gcc-arm-none-eabi-6-2017-q2-update/arm-none-eabi/include/c++/6.3.1/bits/stl_vector.h ****  * purpose.  It is provided "as is" without express or implied warranty.
  37:/home/zkmike/.local/share/renesas/e2_studio/toolchains/gcc_arm/gcc-arm-none-eabi-6-2017-q2-update/arm-none-eabi/include/c++/6.3.1/bits/stl_vector.h ****  *
  38:/home/zkmike/.local/share/renesas/e2_studio/toolchains/gcc_arm/gcc-arm-none-eabi-6-2017-q2-update/arm-none-eabi/include/c++/6.3.1/bits/stl_vector.h ****  *
  39:/home/zkmike/.local/share/renesas/e2_studio/toolchains/gcc_arm/gcc-arm-none-eabi-6-2017-q2-update/arm-none-eabi/include/c++/6.3.1/bits/stl_vector.h ****  * Copyright (c) 1996
  40:/home/zkmike/.local/share/renesas/e2_studio/toolchains/gcc_arm/gcc-arm-none-eabi-6-2017-q2-update/arm-none-eabi/include/c++/6.3.1/bits/stl_vector.h ****  * Silicon Graphics Computer Systems, Inc.
  41:/home/zkmike/.local/share/renesas/e2_studio/toolchains/gcc_arm/gcc-arm-none-eabi-6-2017-q2-update/arm-none-eabi/include/c++/6.3.1/bits/stl_vector.h ****  *
  42:/home/zkmike/.local/share/renesas/e2_studio/toolchains/gcc_arm/gcc-arm-none-eabi-6-2017-q2-update/arm-none-eabi/include/c++/6.3.1/bits/stl_vector.h ****  * Permission to use, copy, modify, distribute and sell this software
  43:/home/zkmike/.local/share/renesas/e2_studio/toolchains/gcc_arm/gcc-arm-none-eabi-6-2017-q2-update/arm-none-eabi/include/c++/6.3.1/bits/stl_vector.h ****  * and its documentation for any purpose is hereby granted without fee,
  44:/home/zkmike/.local/share/renesas/e2_studio/toolchains/gcc_arm/gcc-arm-none-eabi-6-2017-q2-update/arm-none-eabi/include/c++/6.3.1/bits/stl_vector.h ****  * provided that the above copyright notice appear in all copies and
  45:/home/zkmike/.local/share/renesas/e2_studio/toolchains/gcc_arm/gcc-arm-none-eabi-6-2017-q2-update/arm-none-eabi/include/c++/6.3.1/bits/stl_vector.h ****  * that both that copyright notice and this permission notice appear
  46:/home/zkmike/.local/share/renesas/e2_studio/toolchains/gcc_arm/gcc-arm-none-eabi-6-2017-q2-update/arm-none-eabi/include/c++/6.3.1/bits/stl_vector.h ****  * in supporting documentation.  Silicon Graphics makes no
  47:/home/zkmike/.local/share/renesas/e2_studio/toolchains/gcc_arm/gcc-arm-none-eabi-6-2017-q2-update/arm-none-eabi/include/c++/6.3.1/bits/stl_vector.h ****  * representations about the suitability of this  software for any
  48:/home/zkmike/.local/share/renesas/e2_studio/toolchains/gcc_arm/gcc-arm-none-eabi-6-2017-q2-update/arm-none-eabi/include/c++/6.3.1/bits/stl_vector.h ****  * purpose.  It is provided "as is" without express or implied warranty.
  49:/home/zkmike/.local/share/renesas/e2_studio/toolchains/gcc_arm/gcc-arm-none-eabi-6-2017-q2-update/arm-none-eabi/include/c++/6.3.1/bits/stl_vector.h ****  */
  50:/home/zkmike/.local/share/renesas/e2_studio/toolchains/gcc_arm/gcc-arm-none-eabi-6-2017-q2-update/arm-none-eabi/include/c++/6.3.1/bits/stl_vector.h **** 
  51:/home/zkmike/.local/share/renesas/e2_studio/toolchains/gcc_arm/gcc-arm-none-eabi-6-2017-q2-update/arm-none-eabi/include/c++/6.3.1/bits/stl_vector.h **** /** @file bits/stl_vector.h
  52:/home/zkmike/.local/share/renesas/e2_studio/toolchains/gcc_arm/gcc-arm-none-eabi-6-2017-q2-update/arm-none-eabi/include/c++/6.3.1/bits/stl_vector.h ****  *  This is an internal header file, included by other library headers.
  53:/home/zkmike/.local/share/renesas/e2_studio/toolchains/gcc_arm/gcc-arm-none-eabi-6-2017-q2-update/arm-none-eabi/include/c++/6.3.1/bits/stl_vector.h ****  *  Do not attempt to use it directly. @headername{vector}
  54:/home/zkmike/.local/share/renesas/e2_studio/toolchains/gcc_arm/gcc-arm-none-eabi-6-2017-q2-update/arm-none-eabi/include/c++/6.3.1/bits/stl_vector.h ****  */
  55:/home/zkmike/.local/share/renesas/e2_studio/toolchains/gcc_arm/gcc-arm-none-eabi-6-2017-q2-update/arm-none-eabi/include/c++/6.3.1/bits/stl_vector.h **** 
  56:/home/zkmike/.local/share/renesas/e2_studio/toolchains/gcc_arm/gcc-arm-none-eabi-6-2017-q2-update/arm-none-eabi/include/c++/6.3.1/bits/stl_vector.h **** #ifndef _STL_VECTOR_H
  57:/home/zkmike/.local/share/renesas/e2_studio/toolchains/gcc_arm/gcc-arm-none-eabi-6-2017-q2-update/arm-none-eabi/include/c++/6.3.1/bits/stl_vector.h **** #define _STL_VECTOR_H 1
  58:/home/zkmike/.local/share/renesas/e2_studio/toolchains/gcc_arm/gcc-arm-none-eabi-6-2017-q2-update/arm-none-eabi/include/c++/6.3.1/bits/stl_vector.h **** 
  59:/home/zkmike/.local/share/renesas/e2_studio/toolchains/gcc_arm/gcc-arm-none-eabi-6-2017-q2-update/arm-none-eabi/include/c++/6.3.1/bits/stl_vector.h **** #include <bits/stl_iterator_base_funcs.h>
  60:/home/zkmike/.local/share/renesas/e2_studio/toolchains/gcc_arm/gcc-arm-none-eabi-6-2017-q2-update/arm-none-eabi/include/c++/6.3.1/bits/stl_vector.h **** #include <bits/functexcept.h>
  61:/home/zkmike/.local/share/renesas/e2_studio/toolchains/gcc_arm/gcc-arm-none-eabi-6-2017-q2-update/arm-none-eabi/include/c++/6.3.1/bits/stl_vector.h **** #include <bits/concept_check.h>
  62:/home/zkmike/.local/share/renesas/e2_studio/toolchains/gcc_arm/gcc-arm-none-eabi-6-2017-q2-update/arm-none-eabi/include/c++/6.3.1/bits/stl_vector.h **** #if __cplusplus >= 201103L
  63:/home/zkmike/.local/share/renesas/e2_studio/toolchains/gcc_arm/gcc-arm-none-eabi-6-2017-q2-update/arm-none-eabi/include/c++/6.3.1/bits/stl_vector.h **** #include <initializer_list>
  64:/home/zkmike/.local/share/renesas/e2_studio/toolchains/gcc_arm/gcc-arm-none-eabi-6-2017-q2-update/arm-none-eabi/include/c++/6.3.1/bits/stl_vector.h **** #endif
  65:/home/zkmike/.local/share/renesas/e2_studio/toolchains/gcc_arm/gcc-arm-none-eabi-6-2017-q2-update/arm-none-eabi/include/c++/6.3.1/bits/stl_vector.h **** 
  66:/home/zkmike/.local/share/renesas/e2_studio/toolchains/gcc_arm/gcc-arm-none-eabi-6-2017-q2-update/arm-none-eabi/include/c++/6.3.1/bits/stl_vector.h **** namespace std _GLIBCXX_VISIBILITY(default)
  67:/home/zkmike/.local/share/renesas/e2_studio/toolchains/gcc_arm/gcc-arm-none-eabi-6-2017-q2-update/arm-none-eabi/include/c++/6.3.1/bits/stl_vector.h **** {
  68:/home/zkmike/.local/share/renesas/e2_studio/toolchains/gcc_arm/gcc-arm-none-eabi-6-2017-q2-update/arm-none-eabi/include/c++/6.3.1/bits/stl_vector.h **** _GLIBCXX_BEGIN_NAMESPACE_CONTAINER
  69:/home/zkmike/.local/share/renesas/e2_studio/toolchains/gcc_arm/gcc-arm-none-eabi-6-2017-q2-update/arm-none-eabi/include/c++/6.3.1/bits/stl_vector.h **** 
  70:/home/zkmike/.local/share/renesas/e2_studio/toolchains/gcc_arm/gcc-arm-none-eabi-6-2017-q2-update/arm-none-eabi/include/c++/6.3.1/bits/stl_vector.h ****   /// See bits/stl_deque.h's _Deque_base for an explanation.
  71:/home/zkmike/.local/share/renesas/e2_studio/toolchains/gcc_arm/gcc-arm-none-eabi-6-2017-q2-update/arm-none-eabi/include/c++/6.3.1/bits/stl_vector.h ****   template<typename _Tp, typename _Alloc>
  72:/home/zkmike/.local/share/renesas/e2_studio/toolchains/gcc_arm/gcc-arm-none-eabi-6-2017-q2-update/arm-none-eabi/include/c++/6.3.1/bits/stl_vector.h ****     struct _Vector_base
  73:/home/zkmike/.local/share/renesas/e2_studio/toolchains/gcc_arm/gcc-arm-none-eabi-6-2017-q2-update/arm-none-eabi/include/c++/6.3.1/bits/stl_vector.h ****     {
  74:/home/zkmike/.local/share/renesas/e2_studio/toolchains/gcc_arm/gcc-arm-none-eabi-6-2017-q2-update/arm-none-eabi/include/c++/6.3.1/bits/stl_vector.h ****       typedef typename __gnu_cxx::__alloc_traits<_Alloc>::template
  75:/home/zkmike/.local/share/renesas/e2_studio/toolchains/gcc_arm/gcc-arm-none-eabi-6-2017-q2-update/arm-none-eabi/include/c++/6.3.1/bits/stl_vector.h ****         rebind<_Tp>::other _Tp_alloc_type;
  76:/home/zkmike/.local/share/renesas/e2_studio/toolchains/gcc_arm/gcc-arm-none-eabi-6-2017-q2-update/arm-none-eabi/include/c++/6.3.1/bits/stl_vector.h ****       typedef typename __gnu_cxx::__alloc_traits<_Tp_alloc_type>::pointer
  77:/home/zkmike/.local/share/renesas/e2_studio/toolchains/gcc_arm/gcc-arm-none-eabi-6-2017-q2-update/arm-none-eabi/include/c++/6.3.1/bits/stl_vector.h ****        	pointer;
  78:/home/zkmike/.local/share/renesas/e2_studio/toolchains/gcc_arm/gcc-arm-none-eabi-6-2017-q2-update/arm-none-eabi/include/c++/6.3.1/bits/stl_vector.h **** 
  79:/home/zkmike/.local/share/renesas/e2_studio/toolchains/gcc_arm/gcc-arm-none-eabi-6-2017-q2-update/arm-none-eabi/include/c++/6.3.1/bits/stl_vector.h ****       struct _Vector_impl 
  80:/home/zkmike/.local/share/renesas/e2_studio/toolchains/gcc_arm/gcc-arm-none-eabi-6-2017-q2-update/arm-none-eabi/include/c++/6.3.1/bits/stl_vector.h ****       : public _Tp_alloc_type
  81:/home/zkmike/.local/share/renesas/e2_studio/toolchains/gcc_arm/gcc-arm-none-eabi-6-2017-q2-update/arm-none-eabi/include/c++/6.3.1/bits/stl_vector.h ****       {
  82:/home/zkmike/.local/share/renesas/e2_studio/toolchains/gcc_arm/gcc-arm-none-eabi-6-2017-q2-update/arm-none-eabi/include/c++/6.3.1/bits/stl_vector.h **** 	pointer _M_start;
  83:/home/zkmike/.local/share/renesas/e2_studio/toolchains/gcc_arm/gcc-arm-none-eabi-6-2017-q2-update/arm-none-eabi/include/c++/6.3.1/bits/stl_vector.h **** 	pointer _M_finish;
  84:/home/zkmike/.local/share/renesas/e2_studio/toolchains/gcc_arm/gcc-arm-none-eabi-6-2017-q2-update/arm-none-eabi/include/c++/6.3.1/bits/stl_vector.h **** 	pointer _M_end_of_storage;
  85:/home/zkmike/.local/share/renesas/e2_studio/toolchains/gcc_arm/gcc-arm-none-eabi-6-2017-q2-update/arm-none-eabi/include/c++/6.3.1/bits/stl_vector.h **** 
  86:/home/zkmike/.local/share/renesas/e2_studio/toolchains/gcc_arm/gcc-arm-none-eabi-6-2017-q2-update/arm-none-eabi/include/c++/6.3.1/bits/stl_vector.h **** 	_Vector_impl()
  87:/home/zkmike/.local/share/renesas/e2_studio/toolchains/gcc_arm/gcc-arm-none-eabi-6-2017-q2-update/arm-none-eabi/include/c++/6.3.1/bits/stl_vector.h **** 	: _Tp_alloc_type(), _M_start(), _M_finish(), _M_end_of_storage()
  88:/home/zkmike/.local/share/renesas/e2_studio/toolchains/gcc_arm/gcc-arm-none-eabi-6-2017-q2-update/arm-none-eabi/include/c++/6.3.1/bits/stl_vector.h **** 	{ }
  89:/home/zkmike/.local/share/renesas/e2_studio/toolchains/gcc_arm/gcc-arm-none-eabi-6-2017-q2-update/arm-none-eabi/include/c++/6.3.1/bits/stl_vector.h **** 
  90:/home/zkmike/.local/share/renesas/e2_studio/toolchains/gcc_arm/gcc-arm-none-eabi-6-2017-q2-update/arm-none-eabi/include/c++/6.3.1/bits/stl_vector.h **** 	_Vector_impl(_Tp_alloc_type const& __a) _GLIBCXX_NOEXCEPT
  91:/home/zkmike/.local/share/renesas/e2_studio/toolchains/gcc_arm/gcc-arm-none-eabi-6-2017-q2-update/arm-none-eabi/include/c++/6.3.1/bits/stl_vector.h **** 	: _Tp_alloc_type(__a), _M_start(), _M_finish(), _M_end_of_storage()
  92:/home/zkmike/.local/share/renesas/e2_studio/toolchains/gcc_arm/gcc-arm-none-eabi-6-2017-q2-update/arm-none-eabi/include/c++/6.3.1/bits/stl_vector.h **** 	{ }
  93:/home/zkmike/.local/share/renesas/e2_studio/toolchains/gcc_arm/gcc-arm-none-eabi-6-2017-q2-update/arm-none-eabi/include/c++/6.3.1/bits/stl_vector.h **** 
  94:/home/zkmike/.local/share/renesas/e2_studio/toolchains/gcc_arm/gcc-arm-none-eabi-6-2017-q2-update/arm-none-eabi/include/c++/6.3.1/bits/stl_vector.h **** #if __cplusplus >= 201103L
  95:/home/zkmike/.local/share/renesas/e2_studio/toolchains/gcc_arm/gcc-arm-none-eabi-6-2017-q2-update/arm-none-eabi/include/c++/6.3.1/bits/stl_vector.h **** 	_Vector_impl(_Tp_alloc_type&& __a) noexcept
  96:/home/zkmike/.local/share/renesas/e2_studio/toolchains/gcc_arm/gcc-arm-none-eabi-6-2017-q2-update/arm-none-eabi/include/c++/6.3.1/bits/stl_vector.h **** 	: _Tp_alloc_type(std::move(__a)),
  97:/home/zkmike/.local/share/renesas/e2_studio/toolchains/gcc_arm/gcc-arm-none-eabi-6-2017-q2-update/arm-none-eabi/include/c++/6.3.1/bits/stl_vector.h **** 	  _M_start(), _M_finish(), _M_end_of_storage()
  98:/home/zkmike/.local/share/renesas/e2_studio/toolchains/gcc_arm/gcc-arm-none-eabi-6-2017-q2-update/arm-none-eabi/include/c++/6.3.1/bits/stl_vector.h **** 	{ }
  99:/home/zkmike/.local/share/renesas/e2_studio/toolchains/gcc_arm/gcc-arm-none-eabi-6-2017-q2-update/arm-none-eabi/include/c++/6.3.1/bits/stl_vector.h **** #endif
 100:/home/zkmike/.local/share/renesas/e2_studio/toolchains/gcc_arm/gcc-arm-none-eabi-6-2017-q2-update/arm-none-eabi/include/c++/6.3.1/bits/stl_vector.h **** 
 101:/home/zkmike/.local/share/renesas/e2_studio/toolchains/gcc_arm/gcc-arm-none-eabi-6-2017-q2-update/arm-none-eabi/include/c++/6.3.1/bits/stl_vector.h **** 	void _M_swap_data(_Vector_impl& __x) _GLIBCXX_NOEXCEPT
 102:/home/zkmike/.local/share/renesas/e2_studio/toolchains/gcc_arm/gcc-arm-none-eabi-6-2017-q2-update/arm-none-eabi/include/c++/6.3.1/bits/stl_vector.h **** 	{
 103:/home/zkmike/.local/share/renesas/e2_studio/toolchains/gcc_arm/gcc-arm-none-eabi-6-2017-q2-update/arm-none-eabi/include/c++/6.3.1/bits/stl_vector.h **** 	  std::swap(_M_start, __x._M_start);
 104:/home/zkmike/.local/share/renesas/e2_studio/toolchains/gcc_arm/gcc-arm-none-eabi-6-2017-q2-update/arm-none-eabi/include/c++/6.3.1/bits/stl_vector.h **** 	  std::swap(_M_finish, __x._M_finish);
 105:/home/zkmike/.local/share/renesas/e2_studio/toolchains/gcc_arm/gcc-arm-none-eabi-6-2017-q2-update/arm-none-eabi/include/c++/6.3.1/bits/stl_vector.h **** 	  std::swap(_M_end_of_storage, __x._M_end_of_storage);
 106:/home/zkmike/.local/share/renesas/e2_studio/toolchains/gcc_arm/gcc-arm-none-eabi-6-2017-q2-update/arm-none-eabi/include/c++/6.3.1/bits/stl_vector.h **** 	}
 107:/home/zkmike/.local/share/renesas/e2_studio/toolchains/gcc_arm/gcc-arm-none-eabi-6-2017-q2-update/arm-none-eabi/include/c++/6.3.1/bits/stl_vector.h ****       };
 108:/home/zkmike/.local/share/renesas/e2_studio/toolchains/gcc_arm/gcc-arm-none-eabi-6-2017-q2-update/arm-none-eabi/include/c++/6.3.1/bits/stl_vector.h ****       
 109:/home/zkmike/.local/share/renesas/e2_studio/toolchains/gcc_arm/gcc-arm-none-eabi-6-2017-q2-update/arm-none-eabi/include/c++/6.3.1/bits/stl_vector.h ****     public:
 110:/home/zkmike/.local/share/renesas/e2_studio/toolchains/gcc_arm/gcc-arm-none-eabi-6-2017-q2-update/arm-none-eabi/include/c++/6.3.1/bits/stl_vector.h ****       typedef _Alloc allocator_type;
 111:/home/zkmike/.local/share/renesas/e2_studio/toolchains/gcc_arm/gcc-arm-none-eabi-6-2017-q2-update/arm-none-eabi/include/c++/6.3.1/bits/stl_vector.h **** 
 112:/home/zkmike/.local/share/renesas/e2_studio/toolchains/gcc_arm/gcc-arm-none-eabi-6-2017-q2-update/arm-none-eabi/include/c++/6.3.1/bits/stl_vector.h ****       _Tp_alloc_type&
 113:/home/zkmike/.local/share/renesas/e2_studio/toolchains/gcc_arm/gcc-arm-none-eabi-6-2017-q2-update/arm-none-eabi/include/c++/6.3.1/bits/stl_vector.h ****       _M_get_Tp_allocator() _GLIBCXX_NOEXCEPT
 114:/home/zkmike/.local/share/renesas/e2_studio/toolchains/gcc_arm/gcc-arm-none-eabi-6-2017-q2-update/arm-none-eabi/include/c++/6.3.1/bits/stl_vector.h ****       { return *static_cast<_Tp_alloc_type*>(&this->_M_impl); }
 115:/home/zkmike/.local/share/renesas/e2_studio/toolchains/gcc_arm/gcc-arm-none-eabi-6-2017-q2-update/arm-none-eabi/include/c++/6.3.1/bits/stl_vector.h **** 
 116:/home/zkmike/.local/share/renesas/e2_studio/toolchains/gcc_arm/gcc-arm-none-eabi-6-2017-q2-update/arm-none-eabi/include/c++/6.3.1/bits/stl_vector.h ****       const _Tp_alloc_type&
 117:/home/zkmike/.local/share/renesas/e2_studio/toolchains/gcc_arm/gcc-arm-none-eabi-6-2017-q2-update/arm-none-eabi/include/c++/6.3.1/bits/stl_vector.h ****       _M_get_Tp_allocator() const _GLIBCXX_NOEXCEPT
 118:/home/zkmike/.local/share/renesas/e2_studio/toolchains/gcc_arm/gcc-arm-none-eabi-6-2017-q2-update/arm-none-eabi/include/c++/6.3.1/bits/stl_vector.h ****       { return *static_cast<const _Tp_alloc_type*>(&this->_M_impl); }
 119:/home/zkmike/.local/share/renesas/e2_studio/toolchains/gcc_arm/gcc-arm-none-eabi-6-2017-q2-update/arm-none-eabi/include/c++/6.3.1/bits/stl_vector.h **** 
 120:/home/zkmike/.local/share/renesas/e2_studio/toolchains/gcc_arm/gcc-arm-none-eabi-6-2017-q2-update/arm-none-eabi/include/c++/6.3.1/bits/stl_vector.h ****       allocator_type
 121:/home/zkmike/.local/share/renesas/e2_studio/toolchains/gcc_arm/gcc-arm-none-eabi-6-2017-q2-update/arm-none-eabi/include/c++/6.3.1/bits/stl_vector.h ****       get_allocator() const _GLIBCXX_NOEXCEPT
 122:/home/zkmike/.local/share/renesas/e2_studio/toolchains/gcc_arm/gcc-arm-none-eabi-6-2017-q2-update/arm-none-eabi/include/c++/6.3.1/bits/stl_vector.h ****       { return allocator_type(_M_get_Tp_allocator()); }
 123:/home/zkmike/.local/share/renesas/e2_studio/toolchains/gcc_arm/gcc-arm-none-eabi-6-2017-q2-update/arm-none-eabi/include/c++/6.3.1/bits/stl_vector.h **** 
 124:/home/zkmike/.local/share/renesas/e2_studio/toolchains/gcc_arm/gcc-arm-none-eabi-6-2017-q2-update/arm-none-eabi/include/c++/6.3.1/bits/stl_vector.h ****       _Vector_base()
 125:/home/zkmike/.local/share/renesas/e2_studio/toolchains/gcc_arm/gcc-arm-none-eabi-6-2017-q2-update/arm-none-eabi/include/c++/6.3.1/bits/stl_vector.h ****       : _M_impl() { }
 126:/home/zkmike/.local/share/renesas/e2_studio/toolchains/gcc_arm/gcc-arm-none-eabi-6-2017-q2-update/arm-none-eabi/include/c++/6.3.1/bits/stl_vector.h **** 
 127:/home/zkmike/.local/share/renesas/e2_studio/toolchains/gcc_arm/gcc-arm-none-eabi-6-2017-q2-update/arm-none-eabi/include/c++/6.3.1/bits/stl_vector.h ****       _Vector_base(const allocator_type& __a) _GLIBCXX_NOEXCEPT
 128:/home/zkmike/.local/share/renesas/e2_studio/toolchains/gcc_arm/gcc-arm-none-eabi-6-2017-q2-update/arm-none-eabi/include/c++/6.3.1/bits/stl_vector.h ****       : _M_impl(__a) { }
 129:/home/zkmike/.local/share/renesas/e2_studio/toolchains/gcc_arm/gcc-arm-none-eabi-6-2017-q2-update/arm-none-eabi/include/c++/6.3.1/bits/stl_vector.h **** 
 130:/home/zkmike/.local/share/renesas/e2_studio/toolchains/gcc_arm/gcc-arm-none-eabi-6-2017-q2-update/arm-none-eabi/include/c++/6.3.1/bits/stl_vector.h ****       _Vector_base(size_t __n)
 131:/home/zkmike/.local/share/renesas/e2_studio/toolchains/gcc_arm/gcc-arm-none-eabi-6-2017-q2-update/arm-none-eabi/include/c++/6.3.1/bits/stl_vector.h ****       : _M_impl()
 132:/home/zkmike/.local/share/renesas/e2_studio/toolchains/gcc_arm/gcc-arm-none-eabi-6-2017-q2-update/arm-none-eabi/include/c++/6.3.1/bits/stl_vector.h ****       { _M_create_storage(__n); }
 133:/home/zkmike/.local/share/renesas/e2_studio/toolchains/gcc_arm/gcc-arm-none-eabi-6-2017-q2-update/arm-none-eabi/include/c++/6.3.1/bits/stl_vector.h **** 
 134:/home/zkmike/.local/share/renesas/e2_studio/toolchains/gcc_arm/gcc-arm-none-eabi-6-2017-q2-update/arm-none-eabi/include/c++/6.3.1/bits/stl_vector.h ****       _Vector_base(size_t __n, const allocator_type& __a)
 135:/home/zkmike/.local/share/renesas/e2_studio/toolchains/gcc_arm/gcc-arm-none-eabi-6-2017-q2-update/arm-none-eabi/include/c++/6.3.1/bits/stl_vector.h ****       : _M_impl(__a)
 136:/home/zkmike/.local/share/renesas/e2_studio/toolchains/gcc_arm/gcc-arm-none-eabi-6-2017-q2-update/arm-none-eabi/include/c++/6.3.1/bits/stl_vector.h ****       { _M_create_storage(__n); }
 137:/home/zkmike/.local/share/renesas/e2_studio/toolchains/gcc_arm/gcc-arm-none-eabi-6-2017-q2-update/arm-none-eabi/include/c++/6.3.1/bits/stl_vector.h **** 
 138:/home/zkmike/.local/share/renesas/e2_studio/toolchains/gcc_arm/gcc-arm-none-eabi-6-2017-q2-update/arm-none-eabi/include/c++/6.3.1/bits/stl_vector.h **** #if __cplusplus >= 201103L
 139:/home/zkmike/.local/share/renesas/e2_studio/toolchains/gcc_arm/gcc-arm-none-eabi-6-2017-q2-update/arm-none-eabi/include/c++/6.3.1/bits/stl_vector.h ****       _Vector_base(_Tp_alloc_type&& __a) noexcept
 140:/home/zkmike/.local/share/renesas/e2_studio/toolchains/gcc_arm/gcc-arm-none-eabi-6-2017-q2-update/arm-none-eabi/include/c++/6.3.1/bits/stl_vector.h ****       : _M_impl(std::move(__a)) { }
 141:/home/zkmike/.local/share/renesas/e2_studio/toolchains/gcc_arm/gcc-arm-none-eabi-6-2017-q2-update/arm-none-eabi/include/c++/6.3.1/bits/stl_vector.h **** 
 142:/home/zkmike/.local/share/renesas/e2_studio/toolchains/gcc_arm/gcc-arm-none-eabi-6-2017-q2-update/arm-none-eabi/include/c++/6.3.1/bits/stl_vector.h ****       _Vector_base(_Vector_base&& __x) noexcept
 143:/home/zkmike/.local/share/renesas/e2_studio/toolchains/gcc_arm/gcc-arm-none-eabi-6-2017-q2-update/arm-none-eabi/include/c++/6.3.1/bits/stl_vector.h ****       : _M_impl(std::move(__x._M_get_Tp_allocator()))
 144:/home/zkmike/.local/share/renesas/e2_studio/toolchains/gcc_arm/gcc-arm-none-eabi-6-2017-q2-update/arm-none-eabi/include/c++/6.3.1/bits/stl_vector.h ****       { this->_M_impl._M_swap_data(__x._M_impl); }
 145:/home/zkmike/.local/share/renesas/e2_studio/toolchains/gcc_arm/gcc-arm-none-eabi-6-2017-q2-update/arm-none-eabi/include/c++/6.3.1/bits/stl_vector.h **** 
 146:/home/zkmike/.local/share/renesas/e2_studio/toolchains/gcc_arm/gcc-arm-none-eabi-6-2017-q2-update/arm-none-eabi/include/c++/6.3.1/bits/stl_vector.h ****       _Vector_base(_Vector_base&& __x, const allocator_type& __a)
 147:/home/zkmike/.local/share/renesas/e2_studio/toolchains/gcc_arm/gcc-arm-none-eabi-6-2017-q2-update/arm-none-eabi/include/c++/6.3.1/bits/stl_vector.h ****       : _M_impl(__a)
 148:/home/zkmike/.local/share/renesas/e2_studio/toolchains/gcc_arm/gcc-arm-none-eabi-6-2017-q2-update/arm-none-eabi/include/c++/6.3.1/bits/stl_vector.h ****       {
 149:/home/zkmike/.local/share/renesas/e2_studio/toolchains/gcc_arm/gcc-arm-none-eabi-6-2017-q2-update/arm-none-eabi/include/c++/6.3.1/bits/stl_vector.h **** 	if (__x.get_allocator() == __a)
 150:/home/zkmike/.local/share/renesas/e2_studio/toolchains/gcc_arm/gcc-arm-none-eabi-6-2017-q2-update/arm-none-eabi/include/c++/6.3.1/bits/stl_vector.h **** 	  this->_M_impl._M_swap_data(__x._M_impl);
 151:/home/zkmike/.local/share/renesas/e2_studio/toolchains/gcc_arm/gcc-arm-none-eabi-6-2017-q2-update/arm-none-eabi/include/c++/6.3.1/bits/stl_vector.h **** 	else
 152:/home/zkmike/.local/share/renesas/e2_studio/toolchains/gcc_arm/gcc-arm-none-eabi-6-2017-q2-update/arm-none-eabi/include/c++/6.3.1/bits/stl_vector.h **** 	  {
 153:/home/zkmike/.local/share/renesas/e2_studio/toolchains/gcc_arm/gcc-arm-none-eabi-6-2017-q2-update/arm-none-eabi/include/c++/6.3.1/bits/stl_vector.h **** 	    size_t __n = __x._M_impl._M_finish - __x._M_impl._M_start;
 154:/home/zkmike/.local/share/renesas/e2_studio/toolchains/gcc_arm/gcc-arm-none-eabi-6-2017-q2-update/arm-none-eabi/include/c++/6.3.1/bits/stl_vector.h **** 	    _M_create_storage(__n);
 155:/home/zkmike/.local/share/renesas/e2_studio/toolchains/gcc_arm/gcc-arm-none-eabi-6-2017-q2-update/arm-none-eabi/include/c++/6.3.1/bits/stl_vector.h **** 	  }
 156:/home/zkmike/.local/share/renesas/e2_studio/toolchains/gcc_arm/gcc-arm-none-eabi-6-2017-q2-update/arm-none-eabi/include/c++/6.3.1/bits/stl_vector.h ****       }
 157:/home/zkmike/.local/share/renesas/e2_studio/toolchains/gcc_arm/gcc-arm-none-eabi-6-2017-q2-update/arm-none-eabi/include/c++/6.3.1/bits/stl_vector.h **** #endif
 158:/home/zkmike/.local/share/renesas/e2_studio/toolchains/gcc_arm/gcc-arm-none-eabi-6-2017-q2-update/arm-none-eabi/include/c++/6.3.1/bits/stl_vector.h **** 
 159:/home/zkmike/.local/share/renesas/e2_studio/toolchains/gcc_arm/gcc-arm-none-eabi-6-2017-q2-update/arm-none-eabi/include/c++/6.3.1/bits/stl_vector.h ****       ~_Vector_base() _GLIBCXX_NOEXCEPT
 160:/home/zkmike/.local/share/renesas/e2_studio/toolchains/gcc_arm/gcc-arm-none-eabi-6-2017-q2-update/arm-none-eabi/include/c++/6.3.1/bits/stl_vector.h ****       { _M_deallocate(this->_M_impl._M_start, this->_M_impl._M_end_of_storage
 161:/home/zkmike/.local/share/renesas/e2_studio/toolchains/gcc_arm/gcc-arm-none-eabi-6-2017-q2-update/arm-none-eabi/include/c++/6.3.1/bits/stl_vector.h **** 		      - this->_M_impl._M_start); }
 162:/home/zkmike/.local/share/renesas/e2_studio/toolchains/gcc_arm/gcc-arm-none-eabi-6-2017-q2-update/arm-none-eabi/include/c++/6.3.1/bits/stl_vector.h **** 
 163:/home/zkmike/.local/share/renesas/e2_studio/toolchains/gcc_arm/gcc-arm-none-eabi-6-2017-q2-update/arm-none-eabi/include/c++/6.3.1/bits/stl_vector.h ****     public:
 164:/home/zkmike/.local/share/renesas/e2_studio/toolchains/gcc_arm/gcc-arm-none-eabi-6-2017-q2-update/arm-none-eabi/include/c++/6.3.1/bits/stl_vector.h ****       _Vector_impl _M_impl;
 165:/home/zkmike/.local/share/renesas/e2_studio/toolchains/gcc_arm/gcc-arm-none-eabi-6-2017-q2-update/arm-none-eabi/include/c++/6.3.1/bits/stl_vector.h **** 
 166:/home/zkmike/.local/share/renesas/e2_studio/toolchains/gcc_arm/gcc-arm-none-eabi-6-2017-q2-update/arm-none-eabi/include/c++/6.3.1/bits/stl_vector.h ****       pointer
 167:/home/zkmike/.local/share/renesas/e2_studio/toolchains/gcc_arm/gcc-arm-none-eabi-6-2017-q2-update/arm-none-eabi/include/c++/6.3.1/bits/stl_vector.h ****       _M_allocate(size_t __n)
 168:/home/zkmike/.local/share/renesas/e2_studio/toolchains/gcc_arm/gcc-arm-none-eabi-6-2017-q2-update/arm-none-eabi/include/c++/6.3.1/bits/stl_vector.h ****       {
 169:/home/zkmike/.local/share/renesas/e2_studio/toolchains/gcc_arm/gcc-arm-none-eabi-6-2017-q2-update/arm-none-eabi/include/c++/6.3.1/bits/stl_vector.h **** 	typedef __gnu_cxx::__alloc_traits<_Tp_alloc_type> _Tr;
 170:/home/zkmike/.local/share/renesas/e2_studio/toolchains/gcc_arm/gcc-arm-none-eabi-6-2017-q2-update/arm-none-eabi/include/c++/6.3.1/bits/stl_vector.h **** 	return __n != 0 ? _Tr::allocate(_M_impl, __n) : pointer();
 171:/home/zkmike/.local/share/renesas/e2_studio/toolchains/gcc_arm/gcc-arm-none-eabi-6-2017-q2-update/arm-none-eabi/include/c++/6.3.1/bits/stl_vector.h ****       }
 172:/home/zkmike/.local/share/renesas/e2_studio/toolchains/gcc_arm/gcc-arm-none-eabi-6-2017-q2-update/arm-none-eabi/include/c++/6.3.1/bits/stl_vector.h **** 
 173:/home/zkmike/.local/share/renesas/e2_studio/toolchains/gcc_arm/gcc-arm-none-eabi-6-2017-q2-update/arm-none-eabi/include/c++/6.3.1/bits/stl_vector.h ****       void
 174:/home/zkmike/.local/share/renesas/e2_studio/toolchains/gcc_arm/gcc-arm-none-eabi-6-2017-q2-update/arm-none-eabi/include/c++/6.3.1/bits/stl_vector.h ****       _M_deallocate(pointer __p, size_t __n)
 175:/home/zkmike/.local/share/renesas/e2_studio/toolchains/gcc_arm/gcc-arm-none-eabi-6-2017-q2-update/arm-none-eabi/include/c++/6.3.1/bits/stl_vector.h ****       {
 176:/home/zkmike/.local/share/renesas/e2_studio/toolchains/gcc_arm/gcc-arm-none-eabi-6-2017-q2-update/arm-none-eabi/include/c++/6.3.1/bits/stl_vector.h **** 	typedef __gnu_cxx::__alloc_traits<_Tp_alloc_type> _Tr;
 177:/home/zkmike/.local/share/renesas/e2_studio/toolchains/gcc_arm/gcc-arm-none-eabi-6-2017-q2-update/arm-none-eabi/include/c++/6.3.1/bits/stl_vector.h **** 	if (__p)
 178:/home/zkmike/.local/share/renesas/e2_studio/toolchains/gcc_arm/gcc-arm-none-eabi-6-2017-q2-update/arm-none-eabi/include/c++/6.3.1/bits/stl_vector.h **** 	  _Tr::deallocate(_M_impl, __p, __n);
 179:/home/zkmike/.local/share/renesas/e2_studio/toolchains/gcc_arm/gcc-arm-none-eabi-6-2017-q2-update/arm-none-eabi/include/c++/6.3.1/bits/stl_vector.h ****       }
 180:/home/zkmike/.local/share/renesas/e2_studio/toolchains/gcc_arm/gcc-arm-none-eabi-6-2017-q2-update/arm-none-eabi/include/c++/6.3.1/bits/stl_vector.h **** 
 181:/home/zkmike/.local/share/renesas/e2_studio/toolchains/gcc_arm/gcc-arm-none-eabi-6-2017-q2-update/arm-none-eabi/include/c++/6.3.1/bits/stl_vector.h ****     private:
 182:/home/zkmike/.local/share/renesas/e2_studio/toolchains/gcc_arm/gcc-arm-none-eabi-6-2017-q2-update/arm-none-eabi/include/c++/6.3.1/bits/stl_vector.h ****       void
 183:/home/zkmike/.local/share/renesas/e2_studio/toolchains/gcc_arm/gcc-arm-none-eabi-6-2017-q2-update/arm-none-eabi/include/c++/6.3.1/bits/stl_vector.h ****       _M_create_storage(size_t __n)
 184:/home/zkmike/.local/share/renesas/e2_studio/toolchains/gcc_arm/gcc-arm-none-eabi-6-2017-q2-update/arm-none-eabi/include/c++/6.3.1/bits/stl_vector.h ****       {
 185:/home/zkmike/.local/share/renesas/e2_studio/toolchains/gcc_arm/gcc-arm-none-eabi-6-2017-q2-update/arm-none-eabi/include/c++/6.3.1/bits/stl_vector.h **** 	this->_M_impl._M_start = this->_M_allocate(__n);
 186:/home/zkmike/.local/share/renesas/e2_studio/toolchains/gcc_arm/gcc-arm-none-eabi-6-2017-q2-update/arm-none-eabi/include/c++/6.3.1/bits/stl_vector.h **** 	this->_M_impl._M_finish = this->_M_impl._M_start;
 187:/home/zkmike/.local/share/renesas/e2_studio/toolchains/gcc_arm/gcc-arm-none-eabi-6-2017-q2-update/arm-none-eabi/include/c++/6.3.1/bits/stl_vector.h **** 	this->_M_impl._M_end_of_storage = this->_M_impl._M_start + __n;
 188:/home/zkmike/.local/share/renesas/e2_studio/toolchains/gcc_arm/gcc-arm-none-eabi-6-2017-q2-update/arm-none-eabi/include/c++/6.3.1/bits/stl_vector.h ****       }
 189:/home/zkmike/.local/share/renesas/e2_studio/toolchains/gcc_arm/gcc-arm-none-eabi-6-2017-q2-update/arm-none-eabi/include/c++/6.3.1/bits/stl_vector.h ****     };
 190:/home/zkmike/.local/share/renesas/e2_studio/toolchains/gcc_arm/gcc-arm-none-eabi-6-2017-q2-update/arm-none-eabi/include/c++/6.3.1/bits/stl_vector.h **** 
 191:/home/zkmike/.local/share/renesas/e2_studio/toolchains/gcc_arm/gcc-arm-none-eabi-6-2017-q2-update/arm-none-eabi/include/c++/6.3.1/bits/stl_vector.h **** 
 192:/home/zkmike/.local/share/renesas/e2_studio/toolchains/gcc_arm/gcc-arm-none-eabi-6-2017-q2-update/arm-none-eabi/include/c++/6.3.1/bits/stl_vector.h ****   /**
 193:/home/zkmike/.local/share/renesas/e2_studio/toolchains/gcc_arm/gcc-arm-none-eabi-6-2017-q2-update/arm-none-eabi/include/c++/6.3.1/bits/stl_vector.h ****    *  @brief A standard container which offers fixed time access to
 194:/home/zkmike/.local/share/renesas/e2_studio/toolchains/gcc_arm/gcc-arm-none-eabi-6-2017-q2-update/arm-none-eabi/include/c++/6.3.1/bits/stl_vector.h ****    *  individual elements in any order.
 195:/home/zkmike/.local/share/renesas/e2_studio/toolchains/gcc_arm/gcc-arm-none-eabi-6-2017-q2-update/arm-none-eabi/include/c++/6.3.1/bits/stl_vector.h ****    *
 196:/home/zkmike/.local/share/renesas/e2_studio/toolchains/gcc_arm/gcc-arm-none-eabi-6-2017-q2-update/arm-none-eabi/include/c++/6.3.1/bits/stl_vector.h ****    *  @ingroup sequences
 197:/home/zkmike/.local/share/renesas/e2_studio/toolchains/gcc_arm/gcc-arm-none-eabi-6-2017-q2-update/arm-none-eabi/include/c++/6.3.1/bits/stl_vector.h ****    *
 198:/home/zkmike/.local/share/renesas/e2_studio/toolchains/gcc_arm/gcc-arm-none-eabi-6-2017-q2-update/arm-none-eabi/include/c++/6.3.1/bits/stl_vector.h ****    *  @tparam _Tp  Type of element.
 199:/home/zkmike/.local/share/renesas/e2_studio/toolchains/gcc_arm/gcc-arm-none-eabi-6-2017-q2-update/arm-none-eabi/include/c++/6.3.1/bits/stl_vector.h ****    *  @tparam _Alloc  Allocator type, defaults to allocator<_Tp>.
 200:/home/zkmike/.local/share/renesas/e2_studio/toolchains/gcc_arm/gcc-arm-none-eabi-6-2017-q2-update/arm-none-eabi/include/c++/6.3.1/bits/stl_vector.h ****    *
 201:/home/zkmike/.local/share/renesas/e2_studio/toolchains/gcc_arm/gcc-arm-none-eabi-6-2017-q2-update/arm-none-eabi/include/c++/6.3.1/bits/stl_vector.h ****    *  Meets the requirements of a <a href="tables.html#65">container</a>, a
 202:/home/zkmike/.local/share/renesas/e2_studio/toolchains/gcc_arm/gcc-arm-none-eabi-6-2017-q2-update/arm-none-eabi/include/c++/6.3.1/bits/stl_vector.h ****    *  <a href="tables.html#66">reversible container</a>, and a
 203:/home/zkmike/.local/share/renesas/e2_studio/toolchains/gcc_arm/gcc-arm-none-eabi-6-2017-q2-update/arm-none-eabi/include/c++/6.3.1/bits/stl_vector.h ****    *  <a href="tables.html#67">sequence</a>, including the
 204:/home/zkmike/.local/share/renesas/e2_studio/toolchains/gcc_arm/gcc-arm-none-eabi-6-2017-q2-update/arm-none-eabi/include/c++/6.3.1/bits/stl_vector.h ****    *  <a href="tables.html#68">optional sequence requirements</a> with the
 205:/home/zkmike/.local/share/renesas/e2_studio/toolchains/gcc_arm/gcc-arm-none-eabi-6-2017-q2-update/arm-none-eabi/include/c++/6.3.1/bits/stl_vector.h ****    *  %exception of @c push_front and @c pop_front.
 206:/home/zkmike/.local/share/renesas/e2_studio/toolchains/gcc_arm/gcc-arm-none-eabi-6-2017-q2-update/arm-none-eabi/include/c++/6.3.1/bits/stl_vector.h ****    *
 207:/home/zkmike/.local/share/renesas/e2_studio/toolchains/gcc_arm/gcc-arm-none-eabi-6-2017-q2-update/arm-none-eabi/include/c++/6.3.1/bits/stl_vector.h ****    *  In some terminology a %vector can be described as a dynamic
 208:/home/zkmike/.local/share/renesas/e2_studio/toolchains/gcc_arm/gcc-arm-none-eabi-6-2017-q2-update/arm-none-eabi/include/c++/6.3.1/bits/stl_vector.h ****    *  C-style array, it offers fast and efficient access to individual
 209:/home/zkmike/.local/share/renesas/e2_studio/toolchains/gcc_arm/gcc-arm-none-eabi-6-2017-q2-update/arm-none-eabi/include/c++/6.3.1/bits/stl_vector.h ****    *  elements in any order and saves the user from worrying about
 210:/home/zkmike/.local/share/renesas/e2_studio/toolchains/gcc_arm/gcc-arm-none-eabi-6-2017-q2-update/arm-none-eabi/include/c++/6.3.1/bits/stl_vector.h ****    *  memory and size allocation.  Subscripting ( @c [] ) access is
 211:/home/zkmike/.local/share/renesas/e2_studio/toolchains/gcc_arm/gcc-arm-none-eabi-6-2017-q2-update/arm-none-eabi/include/c++/6.3.1/bits/stl_vector.h ****    *  also provided as with C-style arrays.
 212:/home/zkmike/.local/share/renesas/e2_studio/toolchains/gcc_arm/gcc-arm-none-eabi-6-2017-q2-update/arm-none-eabi/include/c++/6.3.1/bits/stl_vector.h ****   */
 213:/home/zkmike/.local/share/renesas/e2_studio/toolchains/gcc_arm/gcc-arm-none-eabi-6-2017-q2-update/arm-none-eabi/include/c++/6.3.1/bits/stl_vector.h ****   template<typename _Tp, typename _Alloc = std::allocator<_Tp> >
 214:/home/zkmike/.local/share/renesas/e2_studio/toolchains/gcc_arm/gcc-arm-none-eabi-6-2017-q2-update/arm-none-eabi/include/c++/6.3.1/bits/stl_vector.h ****     class vector : protected _Vector_base<_Tp, _Alloc>
 215:/home/zkmike/.local/share/renesas/e2_studio/toolchains/gcc_arm/gcc-arm-none-eabi-6-2017-q2-update/arm-none-eabi/include/c++/6.3.1/bits/stl_vector.h ****     {
 216:/home/zkmike/.local/share/renesas/e2_studio/toolchains/gcc_arm/gcc-arm-none-eabi-6-2017-q2-update/arm-none-eabi/include/c++/6.3.1/bits/stl_vector.h ****       // Concept requirements.
 217:/home/zkmike/.local/share/renesas/e2_studio/toolchains/gcc_arm/gcc-arm-none-eabi-6-2017-q2-update/arm-none-eabi/include/c++/6.3.1/bits/stl_vector.h ****       typedef typename _Alloc::value_type                _Alloc_value_type;
 218:/home/zkmike/.local/share/renesas/e2_studio/toolchains/gcc_arm/gcc-arm-none-eabi-6-2017-q2-update/arm-none-eabi/include/c++/6.3.1/bits/stl_vector.h **** #if __cplusplus < 201103L
 219:/home/zkmike/.local/share/renesas/e2_studio/toolchains/gcc_arm/gcc-arm-none-eabi-6-2017-q2-update/arm-none-eabi/include/c++/6.3.1/bits/stl_vector.h ****       __glibcxx_class_requires(_Tp, _SGIAssignableConcept)
 220:/home/zkmike/.local/share/renesas/e2_studio/toolchains/gcc_arm/gcc-arm-none-eabi-6-2017-q2-update/arm-none-eabi/include/c++/6.3.1/bits/stl_vector.h **** #endif
 221:/home/zkmike/.local/share/renesas/e2_studio/toolchains/gcc_arm/gcc-arm-none-eabi-6-2017-q2-update/arm-none-eabi/include/c++/6.3.1/bits/stl_vector.h ****       __glibcxx_class_requires2(_Tp, _Alloc_value_type, _SameTypeConcept)
 222:/home/zkmike/.local/share/renesas/e2_studio/toolchains/gcc_arm/gcc-arm-none-eabi-6-2017-q2-update/arm-none-eabi/include/c++/6.3.1/bits/stl_vector.h ****       
 223:/home/zkmike/.local/share/renesas/e2_studio/toolchains/gcc_arm/gcc-arm-none-eabi-6-2017-q2-update/arm-none-eabi/include/c++/6.3.1/bits/stl_vector.h ****       typedef _Vector_base<_Tp, _Alloc>			 _Base;
 224:/home/zkmike/.local/share/renesas/e2_studio/toolchains/gcc_arm/gcc-arm-none-eabi-6-2017-q2-update/arm-none-eabi/include/c++/6.3.1/bits/stl_vector.h ****       typedef typename _Base::_Tp_alloc_type		 _Tp_alloc_type;
 225:/home/zkmike/.local/share/renesas/e2_studio/toolchains/gcc_arm/gcc-arm-none-eabi-6-2017-q2-update/arm-none-eabi/include/c++/6.3.1/bits/stl_vector.h ****       typedef __gnu_cxx::__alloc_traits<_Tp_alloc_type>  _Alloc_traits;
 226:/home/zkmike/.local/share/renesas/e2_studio/toolchains/gcc_arm/gcc-arm-none-eabi-6-2017-q2-update/arm-none-eabi/include/c++/6.3.1/bits/stl_vector.h **** 
 227:/home/zkmike/.local/share/renesas/e2_studio/toolchains/gcc_arm/gcc-arm-none-eabi-6-2017-q2-update/arm-none-eabi/include/c++/6.3.1/bits/stl_vector.h ****     public:
 228:/home/zkmike/.local/share/renesas/e2_studio/toolchains/gcc_arm/gcc-arm-none-eabi-6-2017-q2-update/arm-none-eabi/include/c++/6.3.1/bits/stl_vector.h ****       typedef _Tp					 value_type;
 229:/home/zkmike/.local/share/renesas/e2_studio/toolchains/gcc_arm/gcc-arm-none-eabi-6-2017-q2-update/arm-none-eabi/include/c++/6.3.1/bits/stl_vector.h ****       typedef typename _Base::pointer                    pointer;
 230:/home/zkmike/.local/share/renesas/e2_studio/toolchains/gcc_arm/gcc-arm-none-eabi-6-2017-q2-update/arm-none-eabi/include/c++/6.3.1/bits/stl_vector.h ****       typedef typename _Alloc_traits::const_pointer      const_pointer;
 231:/home/zkmike/.local/share/renesas/e2_studio/toolchains/gcc_arm/gcc-arm-none-eabi-6-2017-q2-update/arm-none-eabi/include/c++/6.3.1/bits/stl_vector.h ****       typedef typename _Alloc_traits::reference          reference;
 232:/home/zkmike/.local/share/renesas/e2_studio/toolchains/gcc_arm/gcc-arm-none-eabi-6-2017-q2-update/arm-none-eabi/include/c++/6.3.1/bits/stl_vector.h ****       typedef typename _Alloc_traits::const_reference    const_reference;
 233:/home/zkmike/.local/share/renesas/e2_studio/toolchains/gcc_arm/gcc-arm-none-eabi-6-2017-q2-update/arm-none-eabi/include/c++/6.3.1/bits/stl_vector.h ****       typedef __gnu_cxx::__normal_iterator<pointer, vector> iterator;
 234:/home/zkmike/.local/share/renesas/e2_studio/toolchains/gcc_arm/gcc-arm-none-eabi-6-2017-q2-update/arm-none-eabi/include/c++/6.3.1/bits/stl_vector.h ****       typedef __gnu_cxx::__normal_iterator<const_pointer, vector>
 235:/home/zkmike/.local/share/renesas/e2_studio/toolchains/gcc_arm/gcc-arm-none-eabi-6-2017-q2-update/arm-none-eabi/include/c++/6.3.1/bits/stl_vector.h ****       const_iterator;
 236:/home/zkmike/.local/share/renesas/e2_studio/toolchains/gcc_arm/gcc-arm-none-eabi-6-2017-q2-update/arm-none-eabi/include/c++/6.3.1/bits/stl_vector.h ****       typedef std::reverse_iterator<const_iterator>  const_reverse_iterator;
 237:/home/zkmike/.local/share/renesas/e2_studio/toolchains/gcc_arm/gcc-arm-none-eabi-6-2017-q2-update/arm-none-eabi/include/c++/6.3.1/bits/stl_vector.h ****       typedef std::reverse_iterator<iterator>		 reverse_iterator;
 238:/home/zkmike/.local/share/renesas/e2_studio/toolchains/gcc_arm/gcc-arm-none-eabi-6-2017-q2-update/arm-none-eabi/include/c++/6.3.1/bits/stl_vector.h ****       typedef size_t					 size_type;
 239:/home/zkmike/.local/share/renesas/e2_studio/toolchains/gcc_arm/gcc-arm-none-eabi-6-2017-q2-update/arm-none-eabi/include/c++/6.3.1/bits/stl_vector.h ****       typedef ptrdiff_t					 difference_type;
 240:/home/zkmike/.local/share/renesas/e2_studio/toolchains/gcc_arm/gcc-arm-none-eabi-6-2017-q2-update/arm-none-eabi/include/c++/6.3.1/bits/stl_vector.h ****       typedef _Alloc                        		 allocator_type;
 241:/home/zkmike/.local/share/renesas/e2_studio/toolchains/gcc_arm/gcc-arm-none-eabi-6-2017-q2-update/arm-none-eabi/include/c++/6.3.1/bits/stl_vector.h **** 
 242:/home/zkmike/.local/share/renesas/e2_studio/toolchains/gcc_arm/gcc-arm-none-eabi-6-2017-q2-update/arm-none-eabi/include/c++/6.3.1/bits/stl_vector.h ****     protected:
 243:/home/zkmike/.local/share/renesas/e2_studio/toolchains/gcc_arm/gcc-arm-none-eabi-6-2017-q2-update/arm-none-eabi/include/c++/6.3.1/bits/stl_vector.h ****       using _Base::_M_allocate;
 244:/home/zkmike/.local/share/renesas/e2_studio/toolchains/gcc_arm/gcc-arm-none-eabi-6-2017-q2-update/arm-none-eabi/include/c++/6.3.1/bits/stl_vector.h ****       using _Base::_M_deallocate;
 245:/home/zkmike/.local/share/renesas/e2_studio/toolchains/gcc_arm/gcc-arm-none-eabi-6-2017-q2-update/arm-none-eabi/include/c++/6.3.1/bits/stl_vector.h ****       using _Base::_M_impl;
 246:/home/zkmike/.local/share/renesas/e2_studio/toolchains/gcc_arm/gcc-arm-none-eabi-6-2017-q2-update/arm-none-eabi/include/c++/6.3.1/bits/stl_vector.h ****       using _Base::_M_get_Tp_allocator;
 247:/home/zkmike/.local/share/renesas/e2_studio/toolchains/gcc_arm/gcc-arm-none-eabi-6-2017-q2-update/arm-none-eabi/include/c++/6.3.1/bits/stl_vector.h **** 
 248:/home/zkmike/.local/share/renesas/e2_studio/toolchains/gcc_arm/gcc-arm-none-eabi-6-2017-q2-update/arm-none-eabi/include/c++/6.3.1/bits/stl_vector.h ****     public:
 249:/home/zkmike/.local/share/renesas/e2_studio/toolchains/gcc_arm/gcc-arm-none-eabi-6-2017-q2-update/arm-none-eabi/include/c++/6.3.1/bits/stl_vector.h ****       // [23.2.4.1] construct/copy/destroy
 250:/home/zkmike/.local/share/renesas/e2_studio/toolchains/gcc_arm/gcc-arm-none-eabi-6-2017-q2-update/arm-none-eabi/include/c++/6.3.1/bits/stl_vector.h ****       // (assign() and get_allocator() are also listed in this section)
 251:/home/zkmike/.local/share/renesas/e2_studio/toolchains/gcc_arm/gcc-arm-none-eabi-6-2017-q2-update/arm-none-eabi/include/c++/6.3.1/bits/stl_vector.h **** 
 252:/home/zkmike/.local/share/renesas/e2_studio/toolchains/gcc_arm/gcc-arm-none-eabi-6-2017-q2-update/arm-none-eabi/include/c++/6.3.1/bits/stl_vector.h ****       /**
 253:/home/zkmike/.local/share/renesas/e2_studio/toolchains/gcc_arm/gcc-arm-none-eabi-6-2017-q2-update/arm-none-eabi/include/c++/6.3.1/bits/stl_vector.h ****        *  @brief  Creates a %vector with no elements.
 254:/home/zkmike/.local/share/renesas/e2_studio/toolchains/gcc_arm/gcc-arm-none-eabi-6-2017-q2-update/arm-none-eabi/include/c++/6.3.1/bits/stl_vector.h ****        */
 255:/home/zkmike/.local/share/renesas/e2_studio/toolchains/gcc_arm/gcc-arm-none-eabi-6-2017-q2-update/arm-none-eabi/include/c++/6.3.1/bits/stl_vector.h ****       vector()
 256:/home/zkmike/.local/share/renesas/e2_studio/toolchains/gcc_arm/gcc-arm-none-eabi-6-2017-q2-update/arm-none-eabi/include/c++/6.3.1/bits/stl_vector.h **** #if __cplusplus >= 201103L
 257:/home/zkmike/.local/share/renesas/e2_studio/toolchains/gcc_arm/gcc-arm-none-eabi-6-2017-q2-update/arm-none-eabi/include/c++/6.3.1/bits/stl_vector.h ****       noexcept(is_nothrow_default_constructible<_Alloc>::value)
 258:/home/zkmike/.local/share/renesas/e2_studio/toolchains/gcc_arm/gcc-arm-none-eabi-6-2017-q2-update/arm-none-eabi/include/c++/6.3.1/bits/stl_vector.h **** #endif
 259:/home/zkmike/.local/share/renesas/e2_studio/toolchains/gcc_arm/gcc-arm-none-eabi-6-2017-q2-update/arm-none-eabi/include/c++/6.3.1/bits/stl_vector.h ****       : _Base() { }
 260:/home/zkmike/.local/share/renesas/e2_studio/toolchains/gcc_arm/gcc-arm-none-eabi-6-2017-q2-update/arm-none-eabi/include/c++/6.3.1/bits/stl_vector.h **** 
 261:/home/zkmike/.local/share/renesas/e2_studio/toolchains/gcc_arm/gcc-arm-none-eabi-6-2017-q2-update/arm-none-eabi/include/c++/6.3.1/bits/stl_vector.h ****       /**
 262:/home/zkmike/.local/share/renesas/e2_studio/toolchains/gcc_arm/gcc-arm-none-eabi-6-2017-q2-update/arm-none-eabi/include/c++/6.3.1/bits/stl_vector.h ****        *  @brief  Creates a %vector with no elements.
 263:/home/zkmike/.local/share/renesas/e2_studio/toolchains/gcc_arm/gcc-arm-none-eabi-6-2017-q2-update/arm-none-eabi/include/c++/6.3.1/bits/stl_vector.h ****        *  @param  __a  An allocator object.
 264:/home/zkmike/.local/share/renesas/e2_studio/toolchains/gcc_arm/gcc-arm-none-eabi-6-2017-q2-update/arm-none-eabi/include/c++/6.3.1/bits/stl_vector.h ****        */
 265:/home/zkmike/.local/share/renesas/e2_studio/toolchains/gcc_arm/gcc-arm-none-eabi-6-2017-q2-update/arm-none-eabi/include/c++/6.3.1/bits/stl_vector.h ****       explicit
 266:/home/zkmike/.local/share/renesas/e2_studio/toolchains/gcc_arm/gcc-arm-none-eabi-6-2017-q2-update/arm-none-eabi/include/c++/6.3.1/bits/stl_vector.h ****       vector(const allocator_type& __a) _GLIBCXX_NOEXCEPT
 267:/home/zkmike/.local/share/renesas/e2_studio/toolchains/gcc_arm/gcc-arm-none-eabi-6-2017-q2-update/arm-none-eabi/include/c++/6.3.1/bits/stl_vector.h ****       : _Base(__a) { }
 268:/home/zkmike/.local/share/renesas/e2_studio/toolchains/gcc_arm/gcc-arm-none-eabi-6-2017-q2-update/arm-none-eabi/include/c++/6.3.1/bits/stl_vector.h **** 
 269:/home/zkmike/.local/share/renesas/e2_studio/toolchains/gcc_arm/gcc-arm-none-eabi-6-2017-q2-update/arm-none-eabi/include/c++/6.3.1/bits/stl_vector.h **** #if __cplusplus >= 201103L
 270:/home/zkmike/.local/share/renesas/e2_studio/toolchains/gcc_arm/gcc-arm-none-eabi-6-2017-q2-update/arm-none-eabi/include/c++/6.3.1/bits/stl_vector.h ****       /**
 271:/home/zkmike/.local/share/renesas/e2_studio/toolchains/gcc_arm/gcc-arm-none-eabi-6-2017-q2-update/arm-none-eabi/include/c++/6.3.1/bits/stl_vector.h ****        *  @brief  Creates a %vector with default constructed elements.
 272:/home/zkmike/.local/share/renesas/e2_studio/toolchains/gcc_arm/gcc-arm-none-eabi-6-2017-q2-update/arm-none-eabi/include/c++/6.3.1/bits/stl_vector.h ****        *  @param  __n  The number of elements to initially create.
 273:/home/zkmike/.local/share/renesas/e2_studio/toolchains/gcc_arm/gcc-arm-none-eabi-6-2017-q2-update/arm-none-eabi/include/c++/6.3.1/bits/stl_vector.h ****        *  @param  __a  An allocator.
 274:/home/zkmike/.local/share/renesas/e2_studio/toolchains/gcc_arm/gcc-arm-none-eabi-6-2017-q2-update/arm-none-eabi/include/c++/6.3.1/bits/stl_vector.h ****        *
 275:/home/zkmike/.local/share/renesas/e2_studio/toolchains/gcc_arm/gcc-arm-none-eabi-6-2017-q2-update/arm-none-eabi/include/c++/6.3.1/bits/stl_vector.h ****        *  This constructor fills the %vector with @a __n default
 276:/home/zkmike/.local/share/renesas/e2_studio/toolchains/gcc_arm/gcc-arm-none-eabi-6-2017-q2-update/arm-none-eabi/include/c++/6.3.1/bits/stl_vector.h ****        *  constructed elements.
 277:/home/zkmike/.local/share/renesas/e2_studio/toolchains/gcc_arm/gcc-arm-none-eabi-6-2017-q2-update/arm-none-eabi/include/c++/6.3.1/bits/stl_vector.h ****        */
 278:/home/zkmike/.local/share/renesas/e2_studio/toolchains/gcc_arm/gcc-arm-none-eabi-6-2017-q2-update/arm-none-eabi/include/c++/6.3.1/bits/stl_vector.h ****       explicit
 279:/home/zkmike/.local/share/renesas/e2_studio/toolchains/gcc_arm/gcc-arm-none-eabi-6-2017-q2-update/arm-none-eabi/include/c++/6.3.1/bits/stl_vector.h ****       vector(size_type __n, const allocator_type& __a = allocator_type())
 280:/home/zkmike/.local/share/renesas/e2_studio/toolchains/gcc_arm/gcc-arm-none-eabi-6-2017-q2-update/arm-none-eabi/include/c++/6.3.1/bits/stl_vector.h ****       : _Base(__n, __a)
 281:/home/zkmike/.local/share/renesas/e2_studio/toolchains/gcc_arm/gcc-arm-none-eabi-6-2017-q2-update/arm-none-eabi/include/c++/6.3.1/bits/stl_vector.h ****       { _M_default_initialize(__n); }
 282:/home/zkmike/.local/share/renesas/e2_studio/toolchains/gcc_arm/gcc-arm-none-eabi-6-2017-q2-update/arm-none-eabi/include/c++/6.3.1/bits/stl_vector.h **** 
 283:/home/zkmike/.local/share/renesas/e2_studio/toolchains/gcc_arm/gcc-arm-none-eabi-6-2017-q2-update/arm-none-eabi/include/c++/6.3.1/bits/stl_vector.h ****       /**
 284:/home/zkmike/.local/share/renesas/e2_studio/toolchains/gcc_arm/gcc-arm-none-eabi-6-2017-q2-update/arm-none-eabi/include/c++/6.3.1/bits/stl_vector.h ****        *  @brief  Creates a %vector with copies of an exemplar element.
 285:/home/zkmike/.local/share/renesas/e2_studio/toolchains/gcc_arm/gcc-arm-none-eabi-6-2017-q2-update/arm-none-eabi/include/c++/6.3.1/bits/stl_vector.h ****        *  @param  __n  The number of elements to initially create.
 286:/home/zkmike/.local/share/renesas/e2_studio/toolchains/gcc_arm/gcc-arm-none-eabi-6-2017-q2-update/arm-none-eabi/include/c++/6.3.1/bits/stl_vector.h ****        *  @param  __value  An element to copy.
 287:/home/zkmike/.local/share/renesas/e2_studio/toolchains/gcc_arm/gcc-arm-none-eabi-6-2017-q2-update/arm-none-eabi/include/c++/6.3.1/bits/stl_vector.h ****        *  @param  __a  An allocator.
 288:/home/zkmike/.local/share/renesas/e2_studio/toolchains/gcc_arm/gcc-arm-none-eabi-6-2017-q2-update/arm-none-eabi/include/c++/6.3.1/bits/stl_vector.h ****        *
 289:/home/zkmike/.local/share/renesas/e2_studio/toolchains/gcc_arm/gcc-arm-none-eabi-6-2017-q2-update/arm-none-eabi/include/c++/6.3.1/bits/stl_vector.h ****        *  This constructor fills the %vector with @a __n copies of @a __value.
 290:/home/zkmike/.local/share/renesas/e2_studio/toolchains/gcc_arm/gcc-arm-none-eabi-6-2017-q2-update/arm-none-eabi/include/c++/6.3.1/bits/stl_vector.h ****        */
 291:/home/zkmike/.local/share/renesas/e2_studio/toolchains/gcc_arm/gcc-arm-none-eabi-6-2017-q2-update/arm-none-eabi/include/c++/6.3.1/bits/stl_vector.h ****       vector(size_type __n, const value_type& __value,
 292:/home/zkmike/.local/share/renesas/e2_studio/toolchains/gcc_arm/gcc-arm-none-eabi-6-2017-q2-update/arm-none-eabi/include/c++/6.3.1/bits/stl_vector.h **** 	     const allocator_type& __a = allocator_type())
 293:/home/zkmike/.local/share/renesas/e2_studio/toolchains/gcc_arm/gcc-arm-none-eabi-6-2017-q2-update/arm-none-eabi/include/c++/6.3.1/bits/stl_vector.h ****       : _Base(__n, __a)
 294:/home/zkmike/.local/share/renesas/e2_studio/toolchains/gcc_arm/gcc-arm-none-eabi-6-2017-q2-update/arm-none-eabi/include/c++/6.3.1/bits/stl_vector.h ****       { _M_fill_initialize(__n, __value); }
 295:/home/zkmike/.local/share/renesas/e2_studio/toolchains/gcc_arm/gcc-arm-none-eabi-6-2017-q2-update/arm-none-eabi/include/c++/6.3.1/bits/stl_vector.h **** #else
 296:/home/zkmike/.local/share/renesas/e2_studio/toolchains/gcc_arm/gcc-arm-none-eabi-6-2017-q2-update/arm-none-eabi/include/c++/6.3.1/bits/stl_vector.h ****       /**
 297:/home/zkmike/.local/share/renesas/e2_studio/toolchains/gcc_arm/gcc-arm-none-eabi-6-2017-q2-update/arm-none-eabi/include/c++/6.3.1/bits/stl_vector.h ****        *  @brief  Creates a %vector with copies of an exemplar element.
 298:/home/zkmike/.local/share/renesas/e2_studio/toolchains/gcc_arm/gcc-arm-none-eabi-6-2017-q2-update/arm-none-eabi/include/c++/6.3.1/bits/stl_vector.h ****        *  @param  __n  The number of elements to initially create.
 299:/home/zkmike/.local/share/renesas/e2_studio/toolchains/gcc_arm/gcc-arm-none-eabi-6-2017-q2-update/arm-none-eabi/include/c++/6.3.1/bits/stl_vector.h ****        *  @param  __value  An element to copy.
 300:/home/zkmike/.local/share/renesas/e2_studio/toolchains/gcc_arm/gcc-arm-none-eabi-6-2017-q2-update/arm-none-eabi/include/c++/6.3.1/bits/stl_vector.h ****        *  @param  __a  An allocator.
 301:/home/zkmike/.local/share/renesas/e2_studio/toolchains/gcc_arm/gcc-arm-none-eabi-6-2017-q2-update/arm-none-eabi/include/c++/6.3.1/bits/stl_vector.h ****        *
 302:/home/zkmike/.local/share/renesas/e2_studio/toolchains/gcc_arm/gcc-arm-none-eabi-6-2017-q2-update/arm-none-eabi/include/c++/6.3.1/bits/stl_vector.h ****        *  This constructor fills the %vector with @a __n copies of @a __value.
 303:/home/zkmike/.local/share/renesas/e2_studio/toolchains/gcc_arm/gcc-arm-none-eabi-6-2017-q2-update/arm-none-eabi/include/c++/6.3.1/bits/stl_vector.h ****        */
 304:/home/zkmike/.local/share/renesas/e2_studio/toolchains/gcc_arm/gcc-arm-none-eabi-6-2017-q2-update/arm-none-eabi/include/c++/6.3.1/bits/stl_vector.h ****       explicit
 305:/home/zkmike/.local/share/renesas/e2_studio/toolchains/gcc_arm/gcc-arm-none-eabi-6-2017-q2-update/arm-none-eabi/include/c++/6.3.1/bits/stl_vector.h ****       vector(size_type __n, const value_type& __value = value_type(),
 306:/home/zkmike/.local/share/renesas/e2_studio/toolchains/gcc_arm/gcc-arm-none-eabi-6-2017-q2-update/arm-none-eabi/include/c++/6.3.1/bits/stl_vector.h **** 	     const allocator_type& __a = allocator_type())
 307:/home/zkmike/.local/share/renesas/e2_studio/toolchains/gcc_arm/gcc-arm-none-eabi-6-2017-q2-update/arm-none-eabi/include/c++/6.3.1/bits/stl_vector.h ****       : _Base(__n, __a)
 308:/home/zkmike/.local/share/renesas/e2_studio/toolchains/gcc_arm/gcc-arm-none-eabi-6-2017-q2-update/arm-none-eabi/include/c++/6.3.1/bits/stl_vector.h ****       { _M_fill_initialize(__n, __value); }
 309:/home/zkmike/.local/share/renesas/e2_studio/toolchains/gcc_arm/gcc-arm-none-eabi-6-2017-q2-update/arm-none-eabi/include/c++/6.3.1/bits/stl_vector.h **** #endif
 310:/home/zkmike/.local/share/renesas/e2_studio/toolchains/gcc_arm/gcc-arm-none-eabi-6-2017-q2-update/arm-none-eabi/include/c++/6.3.1/bits/stl_vector.h **** 
 311:/home/zkmike/.local/share/renesas/e2_studio/toolchains/gcc_arm/gcc-arm-none-eabi-6-2017-q2-update/arm-none-eabi/include/c++/6.3.1/bits/stl_vector.h ****       /**
 312:/home/zkmike/.local/share/renesas/e2_studio/toolchains/gcc_arm/gcc-arm-none-eabi-6-2017-q2-update/arm-none-eabi/include/c++/6.3.1/bits/stl_vector.h ****        *  @brief  %Vector copy constructor.
 313:/home/zkmike/.local/share/renesas/e2_studio/toolchains/gcc_arm/gcc-arm-none-eabi-6-2017-q2-update/arm-none-eabi/include/c++/6.3.1/bits/stl_vector.h ****        *  @param  __x  A %vector of identical element and allocator types.
 314:/home/zkmike/.local/share/renesas/e2_studio/toolchains/gcc_arm/gcc-arm-none-eabi-6-2017-q2-update/arm-none-eabi/include/c++/6.3.1/bits/stl_vector.h ****        *
 315:/home/zkmike/.local/share/renesas/e2_studio/toolchains/gcc_arm/gcc-arm-none-eabi-6-2017-q2-update/arm-none-eabi/include/c++/6.3.1/bits/stl_vector.h ****        *  The newly-created %vector uses a copy of the allocation
 316:/home/zkmike/.local/share/renesas/e2_studio/toolchains/gcc_arm/gcc-arm-none-eabi-6-2017-q2-update/arm-none-eabi/include/c++/6.3.1/bits/stl_vector.h ****        *  object used by @a __x.  All the elements of @a __x are copied,
 317:/home/zkmike/.local/share/renesas/e2_studio/toolchains/gcc_arm/gcc-arm-none-eabi-6-2017-q2-update/arm-none-eabi/include/c++/6.3.1/bits/stl_vector.h ****        *  but any extra memory in
 318:/home/zkmike/.local/share/renesas/e2_studio/toolchains/gcc_arm/gcc-arm-none-eabi-6-2017-q2-update/arm-none-eabi/include/c++/6.3.1/bits/stl_vector.h ****        *  @a __x (for fast expansion) will not be copied.
 319:/home/zkmike/.local/share/renesas/e2_studio/toolchains/gcc_arm/gcc-arm-none-eabi-6-2017-q2-update/arm-none-eabi/include/c++/6.3.1/bits/stl_vector.h ****        */
 320:/home/zkmike/.local/share/renesas/e2_studio/toolchains/gcc_arm/gcc-arm-none-eabi-6-2017-q2-update/arm-none-eabi/include/c++/6.3.1/bits/stl_vector.h ****       vector(const vector& __x)
 321:/home/zkmike/.local/share/renesas/e2_studio/toolchains/gcc_arm/gcc-arm-none-eabi-6-2017-q2-update/arm-none-eabi/include/c++/6.3.1/bits/stl_vector.h ****       : _Base(__x.size(),
 322:/home/zkmike/.local/share/renesas/e2_studio/toolchains/gcc_arm/gcc-arm-none-eabi-6-2017-q2-update/arm-none-eabi/include/c++/6.3.1/bits/stl_vector.h ****         _Alloc_traits::_S_select_on_copy(__x._M_get_Tp_allocator()))
 323:/home/zkmike/.local/share/renesas/e2_studio/toolchains/gcc_arm/gcc-arm-none-eabi-6-2017-q2-update/arm-none-eabi/include/c++/6.3.1/bits/stl_vector.h ****       { this->_M_impl._M_finish =
 324:/home/zkmike/.local/share/renesas/e2_studio/toolchains/gcc_arm/gcc-arm-none-eabi-6-2017-q2-update/arm-none-eabi/include/c++/6.3.1/bits/stl_vector.h **** 	  std::__uninitialized_copy_a(__x.begin(), __x.end(),
 325:/home/zkmike/.local/share/renesas/e2_studio/toolchains/gcc_arm/gcc-arm-none-eabi-6-2017-q2-update/arm-none-eabi/include/c++/6.3.1/bits/stl_vector.h **** 				      this->_M_impl._M_start,
 326:/home/zkmike/.local/share/renesas/e2_studio/toolchains/gcc_arm/gcc-arm-none-eabi-6-2017-q2-update/arm-none-eabi/include/c++/6.3.1/bits/stl_vector.h **** 				      _M_get_Tp_allocator());
 327:/home/zkmike/.local/share/renesas/e2_studio/toolchains/gcc_arm/gcc-arm-none-eabi-6-2017-q2-update/arm-none-eabi/include/c++/6.3.1/bits/stl_vector.h ****       }
 328:/home/zkmike/.local/share/renesas/e2_studio/toolchains/gcc_arm/gcc-arm-none-eabi-6-2017-q2-update/arm-none-eabi/include/c++/6.3.1/bits/stl_vector.h **** 
 329:/home/zkmike/.local/share/renesas/e2_studio/toolchains/gcc_arm/gcc-arm-none-eabi-6-2017-q2-update/arm-none-eabi/include/c++/6.3.1/bits/stl_vector.h **** #if __cplusplus >= 201103L
 330:/home/zkmike/.local/share/renesas/e2_studio/toolchains/gcc_arm/gcc-arm-none-eabi-6-2017-q2-update/arm-none-eabi/include/c++/6.3.1/bits/stl_vector.h ****       /**
 331:/home/zkmike/.local/share/renesas/e2_studio/toolchains/gcc_arm/gcc-arm-none-eabi-6-2017-q2-update/arm-none-eabi/include/c++/6.3.1/bits/stl_vector.h ****        *  @brief  %Vector move constructor.
 332:/home/zkmike/.local/share/renesas/e2_studio/toolchains/gcc_arm/gcc-arm-none-eabi-6-2017-q2-update/arm-none-eabi/include/c++/6.3.1/bits/stl_vector.h ****        *  @param  __x  A %vector of identical element and allocator types.
 333:/home/zkmike/.local/share/renesas/e2_studio/toolchains/gcc_arm/gcc-arm-none-eabi-6-2017-q2-update/arm-none-eabi/include/c++/6.3.1/bits/stl_vector.h ****        *
 334:/home/zkmike/.local/share/renesas/e2_studio/toolchains/gcc_arm/gcc-arm-none-eabi-6-2017-q2-update/arm-none-eabi/include/c++/6.3.1/bits/stl_vector.h ****        *  The newly-created %vector contains the exact contents of @a __x.
 335:/home/zkmike/.local/share/renesas/e2_studio/toolchains/gcc_arm/gcc-arm-none-eabi-6-2017-q2-update/arm-none-eabi/include/c++/6.3.1/bits/stl_vector.h ****        *  The contents of @a __x are a valid, but unspecified %vector.
 336:/home/zkmike/.local/share/renesas/e2_studio/toolchains/gcc_arm/gcc-arm-none-eabi-6-2017-q2-update/arm-none-eabi/include/c++/6.3.1/bits/stl_vector.h ****        */
 337:/home/zkmike/.local/share/renesas/e2_studio/toolchains/gcc_arm/gcc-arm-none-eabi-6-2017-q2-update/arm-none-eabi/include/c++/6.3.1/bits/stl_vector.h ****       vector(vector&& __x) noexcept
 338:/home/zkmike/.local/share/renesas/e2_studio/toolchains/gcc_arm/gcc-arm-none-eabi-6-2017-q2-update/arm-none-eabi/include/c++/6.3.1/bits/stl_vector.h ****       : _Base(std::move(__x)) { }
 339:/home/zkmike/.local/share/renesas/e2_studio/toolchains/gcc_arm/gcc-arm-none-eabi-6-2017-q2-update/arm-none-eabi/include/c++/6.3.1/bits/stl_vector.h **** 
 340:/home/zkmike/.local/share/renesas/e2_studio/toolchains/gcc_arm/gcc-arm-none-eabi-6-2017-q2-update/arm-none-eabi/include/c++/6.3.1/bits/stl_vector.h ****       /// Copy constructor with alternative allocator
 341:/home/zkmike/.local/share/renesas/e2_studio/toolchains/gcc_arm/gcc-arm-none-eabi-6-2017-q2-update/arm-none-eabi/include/c++/6.3.1/bits/stl_vector.h ****       vector(const vector& __x, const allocator_type& __a)
 342:/home/zkmike/.local/share/renesas/e2_studio/toolchains/gcc_arm/gcc-arm-none-eabi-6-2017-q2-update/arm-none-eabi/include/c++/6.3.1/bits/stl_vector.h ****       : _Base(__x.size(), __a)
 343:/home/zkmike/.local/share/renesas/e2_studio/toolchains/gcc_arm/gcc-arm-none-eabi-6-2017-q2-update/arm-none-eabi/include/c++/6.3.1/bits/stl_vector.h ****       { this->_M_impl._M_finish =
 344:/home/zkmike/.local/share/renesas/e2_studio/toolchains/gcc_arm/gcc-arm-none-eabi-6-2017-q2-update/arm-none-eabi/include/c++/6.3.1/bits/stl_vector.h **** 	  std::__uninitialized_copy_a(__x.begin(), __x.end(),
 345:/home/zkmike/.local/share/renesas/e2_studio/toolchains/gcc_arm/gcc-arm-none-eabi-6-2017-q2-update/arm-none-eabi/include/c++/6.3.1/bits/stl_vector.h **** 				      this->_M_impl._M_start,
 346:/home/zkmike/.local/share/renesas/e2_studio/toolchains/gcc_arm/gcc-arm-none-eabi-6-2017-q2-update/arm-none-eabi/include/c++/6.3.1/bits/stl_vector.h **** 				      _M_get_Tp_allocator());
 347:/home/zkmike/.local/share/renesas/e2_studio/toolchains/gcc_arm/gcc-arm-none-eabi-6-2017-q2-update/arm-none-eabi/include/c++/6.3.1/bits/stl_vector.h ****       }
 348:/home/zkmike/.local/share/renesas/e2_studio/toolchains/gcc_arm/gcc-arm-none-eabi-6-2017-q2-update/arm-none-eabi/include/c++/6.3.1/bits/stl_vector.h **** 
 349:/home/zkmike/.local/share/renesas/e2_studio/toolchains/gcc_arm/gcc-arm-none-eabi-6-2017-q2-update/arm-none-eabi/include/c++/6.3.1/bits/stl_vector.h ****       /// Move constructor with alternative allocator
 350:/home/zkmike/.local/share/renesas/e2_studio/toolchains/gcc_arm/gcc-arm-none-eabi-6-2017-q2-update/arm-none-eabi/include/c++/6.3.1/bits/stl_vector.h ****       vector(vector&& __rv, const allocator_type& __m)
 351:/home/zkmike/.local/share/renesas/e2_studio/toolchains/gcc_arm/gcc-arm-none-eabi-6-2017-q2-update/arm-none-eabi/include/c++/6.3.1/bits/stl_vector.h ****       noexcept(_Alloc_traits::_S_always_equal())
 352:/home/zkmike/.local/share/renesas/e2_studio/toolchains/gcc_arm/gcc-arm-none-eabi-6-2017-q2-update/arm-none-eabi/include/c++/6.3.1/bits/stl_vector.h ****       : _Base(std::move(__rv), __m)
 353:/home/zkmike/.local/share/renesas/e2_studio/toolchains/gcc_arm/gcc-arm-none-eabi-6-2017-q2-update/arm-none-eabi/include/c++/6.3.1/bits/stl_vector.h ****       {
 354:/home/zkmike/.local/share/renesas/e2_studio/toolchains/gcc_arm/gcc-arm-none-eabi-6-2017-q2-update/arm-none-eabi/include/c++/6.3.1/bits/stl_vector.h **** 	if (__rv.get_allocator() != __m)
 355:/home/zkmike/.local/share/renesas/e2_studio/toolchains/gcc_arm/gcc-arm-none-eabi-6-2017-q2-update/arm-none-eabi/include/c++/6.3.1/bits/stl_vector.h **** 	  {
 356:/home/zkmike/.local/share/renesas/e2_studio/toolchains/gcc_arm/gcc-arm-none-eabi-6-2017-q2-update/arm-none-eabi/include/c++/6.3.1/bits/stl_vector.h **** 	    this->_M_impl._M_finish =
 357:/home/zkmike/.local/share/renesas/e2_studio/toolchains/gcc_arm/gcc-arm-none-eabi-6-2017-q2-update/arm-none-eabi/include/c++/6.3.1/bits/stl_vector.h **** 	      std::__uninitialized_move_a(__rv.begin(), __rv.end(),
 358:/home/zkmike/.local/share/renesas/e2_studio/toolchains/gcc_arm/gcc-arm-none-eabi-6-2017-q2-update/arm-none-eabi/include/c++/6.3.1/bits/stl_vector.h **** 					  this->_M_impl._M_start,
 359:/home/zkmike/.local/share/renesas/e2_studio/toolchains/gcc_arm/gcc-arm-none-eabi-6-2017-q2-update/arm-none-eabi/include/c++/6.3.1/bits/stl_vector.h **** 					  _M_get_Tp_allocator());
 360:/home/zkmike/.local/share/renesas/e2_studio/toolchains/gcc_arm/gcc-arm-none-eabi-6-2017-q2-update/arm-none-eabi/include/c++/6.3.1/bits/stl_vector.h **** 	    __rv.clear();
 361:/home/zkmike/.local/share/renesas/e2_studio/toolchains/gcc_arm/gcc-arm-none-eabi-6-2017-q2-update/arm-none-eabi/include/c++/6.3.1/bits/stl_vector.h **** 	  }
 362:/home/zkmike/.local/share/renesas/e2_studio/toolchains/gcc_arm/gcc-arm-none-eabi-6-2017-q2-update/arm-none-eabi/include/c++/6.3.1/bits/stl_vector.h ****       }
 363:/home/zkmike/.local/share/renesas/e2_studio/toolchains/gcc_arm/gcc-arm-none-eabi-6-2017-q2-update/arm-none-eabi/include/c++/6.3.1/bits/stl_vector.h **** 
 364:/home/zkmike/.local/share/renesas/e2_studio/toolchains/gcc_arm/gcc-arm-none-eabi-6-2017-q2-update/arm-none-eabi/include/c++/6.3.1/bits/stl_vector.h ****       /**
 365:/home/zkmike/.local/share/renesas/e2_studio/toolchains/gcc_arm/gcc-arm-none-eabi-6-2017-q2-update/arm-none-eabi/include/c++/6.3.1/bits/stl_vector.h ****        *  @brief  Builds a %vector from an initializer list.
 366:/home/zkmike/.local/share/renesas/e2_studio/toolchains/gcc_arm/gcc-arm-none-eabi-6-2017-q2-update/arm-none-eabi/include/c++/6.3.1/bits/stl_vector.h ****        *  @param  __l  An initializer_list.
 367:/home/zkmike/.local/share/renesas/e2_studio/toolchains/gcc_arm/gcc-arm-none-eabi-6-2017-q2-update/arm-none-eabi/include/c++/6.3.1/bits/stl_vector.h ****        *  @param  __a  An allocator.
 368:/home/zkmike/.local/share/renesas/e2_studio/toolchains/gcc_arm/gcc-arm-none-eabi-6-2017-q2-update/arm-none-eabi/include/c++/6.3.1/bits/stl_vector.h ****        *
 369:/home/zkmike/.local/share/renesas/e2_studio/toolchains/gcc_arm/gcc-arm-none-eabi-6-2017-q2-update/arm-none-eabi/include/c++/6.3.1/bits/stl_vector.h ****        *  Create a %vector consisting of copies of the elements in the
 370:/home/zkmike/.local/share/renesas/e2_studio/toolchains/gcc_arm/gcc-arm-none-eabi-6-2017-q2-update/arm-none-eabi/include/c++/6.3.1/bits/stl_vector.h ****        *  initializer_list @a __l.
 371:/home/zkmike/.local/share/renesas/e2_studio/toolchains/gcc_arm/gcc-arm-none-eabi-6-2017-q2-update/arm-none-eabi/include/c++/6.3.1/bits/stl_vector.h ****        *
 372:/home/zkmike/.local/share/renesas/e2_studio/toolchains/gcc_arm/gcc-arm-none-eabi-6-2017-q2-update/arm-none-eabi/include/c++/6.3.1/bits/stl_vector.h ****        *  This will call the element type's copy constructor N times
 373:/home/zkmike/.local/share/renesas/e2_studio/toolchains/gcc_arm/gcc-arm-none-eabi-6-2017-q2-update/arm-none-eabi/include/c++/6.3.1/bits/stl_vector.h ****        *  (where N is @a __l.size()) and do no memory reallocation.
 374:/home/zkmike/.local/share/renesas/e2_studio/toolchains/gcc_arm/gcc-arm-none-eabi-6-2017-q2-update/arm-none-eabi/include/c++/6.3.1/bits/stl_vector.h ****        */
 375:/home/zkmike/.local/share/renesas/e2_studio/toolchains/gcc_arm/gcc-arm-none-eabi-6-2017-q2-update/arm-none-eabi/include/c++/6.3.1/bits/stl_vector.h ****       vector(initializer_list<value_type> __l,
 376:/home/zkmike/.local/share/renesas/e2_studio/toolchains/gcc_arm/gcc-arm-none-eabi-6-2017-q2-update/arm-none-eabi/include/c++/6.3.1/bits/stl_vector.h **** 	     const allocator_type& __a = allocator_type())
 377:/home/zkmike/.local/share/renesas/e2_studio/toolchains/gcc_arm/gcc-arm-none-eabi-6-2017-q2-update/arm-none-eabi/include/c++/6.3.1/bits/stl_vector.h ****       : _Base(__a)
 378:/home/zkmike/.local/share/renesas/e2_studio/toolchains/gcc_arm/gcc-arm-none-eabi-6-2017-q2-update/arm-none-eabi/include/c++/6.3.1/bits/stl_vector.h ****       {
 379:/home/zkmike/.local/share/renesas/e2_studio/toolchains/gcc_arm/gcc-arm-none-eabi-6-2017-q2-update/arm-none-eabi/include/c++/6.3.1/bits/stl_vector.h **** 	_M_range_initialize(__l.begin(), __l.end(),
 380:/home/zkmike/.local/share/renesas/e2_studio/toolchains/gcc_arm/gcc-arm-none-eabi-6-2017-q2-update/arm-none-eabi/include/c++/6.3.1/bits/stl_vector.h **** 			    random_access_iterator_tag());
 381:/home/zkmike/.local/share/renesas/e2_studio/toolchains/gcc_arm/gcc-arm-none-eabi-6-2017-q2-update/arm-none-eabi/include/c++/6.3.1/bits/stl_vector.h ****       }
 382:/home/zkmike/.local/share/renesas/e2_studio/toolchains/gcc_arm/gcc-arm-none-eabi-6-2017-q2-update/arm-none-eabi/include/c++/6.3.1/bits/stl_vector.h **** #endif
 383:/home/zkmike/.local/share/renesas/e2_studio/toolchains/gcc_arm/gcc-arm-none-eabi-6-2017-q2-update/arm-none-eabi/include/c++/6.3.1/bits/stl_vector.h **** 
 384:/home/zkmike/.local/share/renesas/e2_studio/toolchains/gcc_arm/gcc-arm-none-eabi-6-2017-q2-update/arm-none-eabi/include/c++/6.3.1/bits/stl_vector.h ****       /**
 385:/home/zkmike/.local/share/renesas/e2_studio/toolchains/gcc_arm/gcc-arm-none-eabi-6-2017-q2-update/arm-none-eabi/include/c++/6.3.1/bits/stl_vector.h ****        *  @brief  Builds a %vector from a range.
 386:/home/zkmike/.local/share/renesas/e2_studio/toolchains/gcc_arm/gcc-arm-none-eabi-6-2017-q2-update/arm-none-eabi/include/c++/6.3.1/bits/stl_vector.h ****        *  @param  __first  An input iterator.
 387:/home/zkmike/.local/share/renesas/e2_studio/toolchains/gcc_arm/gcc-arm-none-eabi-6-2017-q2-update/arm-none-eabi/include/c++/6.3.1/bits/stl_vector.h ****        *  @param  __last  An input iterator.
 388:/home/zkmike/.local/share/renesas/e2_studio/toolchains/gcc_arm/gcc-arm-none-eabi-6-2017-q2-update/arm-none-eabi/include/c++/6.3.1/bits/stl_vector.h ****        *  @param  __a  An allocator.
 389:/home/zkmike/.local/share/renesas/e2_studio/toolchains/gcc_arm/gcc-arm-none-eabi-6-2017-q2-update/arm-none-eabi/include/c++/6.3.1/bits/stl_vector.h ****        *
 390:/home/zkmike/.local/share/renesas/e2_studio/toolchains/gcc_arm/gcc-arm-none-eabi-6-2017-q2-update/arm-none-eabi/include/c++/6.3.1/bits/stl_vector.h ****        *  Create a %vector consisting of copies of the elements from
 391:/home/zkmike/.local/share/renesas/e2_studio/toolchains/gcc_arm/gcc-arm-none-eabi-6-2017-q2-update/arm-none-eabi/include/c++/6.3.1/bits/stl_vector.h ****        *  [first,last).
 392:/home/zkmike/.local/share/renesas/e2_studio/toolchains/gcc_arm/gcc-arm-none-eabi-6-2017-q2-update/arm-none-eabi/include/c++/6.3.1/bits/stl_vector.h ****        *
 393:/home/zkmike/.local/share/renesas/e2_studio/toolchains/gcc_arm/gcc-arm-none-eabi-6-2017-q2-update/arm-none-eabi/include/c++/6.3.1/bits/stl_vector.h ****        *  If the iterators are forward, bidirectional, or
 394:/home/zkmike/.local/share/renesas/e2_studio/toolchains/gcc_arm/gcc-arm-none-eabi-6-2017-q2-update/arm-none-eabi/include/c++/6.3.1/bits/stl_vector.h ****        *  random-access, then this will call the elements' copy
 395:/home/zkmike/.local/share/renesas/e2_studio/toolchains/gcc_arm/gcc-arm-none-eabi-6-2017-q2-update/arm-none-eabi/include/c++/6.3.1/bits/stl_vector.h ****        *  constructor N times (where N is distance(first,last)) and do
 396:/home/zkmike/.local/share/renesas/e2_studio/toolchains/gcc_arm/gcc-arm-none-eabi-6-2017-q2-update/arm-none-eabi/include/c++/6.3.1/bits/stl_vector.h ****        *  no memory reallocation.  But if only input iterators are
 397:/home/zkmike/.local/share/renesas/e2_studio/toolchains/gcc_arm/gcc-arm-none-eabi-6-2017-q2-update/arm-none-eabi/include/c++/6.3.1/bits/stl_vector.h ****        *  used, then this will do at most 2N calls to the copy
 398:/home/zkmike/.local/share/renesas/e2_studio/toolchains/gcc_arm/gcc-arm-none-eabi-6-2017-q2-update/arm-none-eabi/include/c++/6.3.1/bits/stl_vector.h ****        *  constructor, and logN memory reallocations.
 399:/home/zkmike/.local/share/renesas/e2_studio/toolchains/gcc_arm/gcc-arm-none-eabi-6-2017-q2-update/arm-none-eabi/include/c++/6.3.1/bits/stl_vector.h ****        */
 400:/home/zkmike/.local/share/renesas/e2_studio/toolchains/gcc_arm/gcc-arm-none-eabi-6-2017-q2-update/arm-none-eabi/include/c++/6.3.1/bits/stl_vector.h **** #if __cplusplus >= 201103L
 401:/home/zkmike/.local/share/renesas/e2_studio/toolchains/gcc_arm/gcc-arm-none-eabi-6-2017-q2-update/arm-none-eabi/include/c++/6.3.1/bits/stl_vector.h ****       template<typename _InputIterator,
 402:/home/zkmike/.local/share/renesas/e2_studio/toolchains/gcc_arm/gcc-arm-none-eabi-6-2017-q2-update/arm-none-eabi/include/c++/6.3.1/bits/stl_vector.h **** 	       typename = std::_RequireInputIter<_InputIterator>>
 403:/home/zkmike/.local/share/renesas/e2_studio/toolchains/gcc_arm/gcc-arm-none-eabi-6-2017-q2-update/arm-none-eabi/include/c++/6.3.1/bits/stl_vector.h ****         vector(_InputIterator __first, _InputIterator __last,
 404:/home/zkmike/.local/share/renesas/e2_studio/toolchains/gcc_arm/gcc-arm-none-eabi-6-2017-q2-update/arm-none-eabi/include/c++/6.3.1/bits/stl_vector.h **** 	       const allocator_type& __a = allocator_type())
 405:/home/zkmike/.local/share/renesas/e2_studio/toolchains/gcc_arm/gcc-arm-none-eabi-6-2017-q2-update/arm-none-eabi/include/c++/6.3.1/bits/stl_vector.h **** 	: _Base(__a)
 406:/home/zkmike/.local/share/renesas/e2_studio/toolchains/gcc_arm/gcc-arm-none-eabi-6-2017-q2-update/arm-none-eabi/include/c++/6.3.1/bits/stl_vector.h ****         { _M_initialize_dispatch(__first, __last, __false_type()); }
 407:/home/zkmike/.local/share/renesas/e2_studio/toolchains/gcc_arm/gcc-arm-none-eabi-6-2017-q2-update/arm-none-eabi/include/c++/6.3.1/bits/stl_vector.h **** #else
 408:/home/zkmike/.local/share/renesas/e2_studio/toolchains/gcc_arm/gcc-arm-none-eabi-6-2017-q2-update/arm-none-eabi/include/c++/6.3.1/bits/stl_vector.h ****       template<typename _InputIterator>
 409:/home/zkmike/.local/share/renesas/e2_studio/toolchains/gcc_arm/gcc-arm-none-eabi-6-2017-q2-update/arm-none-eabi/include/c++/6.3.1/bits/stl_vector.h ****         vector(_InputIterator __first, _InputIterator __last,
 410:/home/zkmike/.local/share/renesas/e2_studio/toolchains/gcc_arm/gcc-arm-none-eabi-6-2017-q2-update/arm-none-eabi/include/c++/6.3.1/bits/stl_vector.h **** 	       const allocator_type& __a = allocator_type())
 411:/home/zkmike/.local/share/renesas/e2_studio/toolchains/gcc_arm/gcc-arm-none-eabi-6-2017-q2-update/arm-none-eabi/include/c++/6.3.1/bits/stl_vector.h **** 	: _Base(__a)
 412:/home/zkmike/.local/share/renesas/e2_studio/toolchains/gcc_arm/gcc-arm-none-eabi-6-2017-q2-update/arm-none-eabi/include/c++/6.3.1/bits/stl_vector.h ****         {
 413:/home/zkmike/.local/share/renesas/e2_studio/toolchains/gcc_arm/gcc-arm-none-eabi-6-2017-q2-update/arm-none-eabi/include/c++/6.3.1/bits/stl_vector.h **** 	  // Check whether it's an integral type.  If so, it's not an iterator.
 414:/home/zkmike/.local/share/renesas/e2_studio/toolchains/gcc_arm/gcc-arm-none-eabi-6-2017-q2-update/arm-none-eabi/include/c++/6.3.1/bits/stl_vector.h **** 	  typedef typename std::__is_integer<_InputIterator>::__type _Integral;
 415:/home/zkmike/.local/share/renesas/e2_studio/toolchains/gcc_arm/gcc-arm-none-eabi-6-2017-q2-update/arm-none-eabi/include/c++/6.3.1/bits/stl_vector.h **** 	  _M_initialize_dispatch(__first, __last, _Integral());
 416:/home/zkmike/.local/share/renesas/e2_studio/toolchains/gcc_arm/gcc-arm-none-eabi-6-2017-q2-update/arm-none-eabi/include/c++/6.3.1/bits/stl_vector.h **** 	}
 417:/home/zkmike/.local/share/renesas/e2_studio/toolchains/gcc_arm/gcc-arm-none-eabi-6-2017-q2-update/arm-none-eabi/include/c++/6.3.1/bits/stl_vector.h **** #endif
 418:/home/zkmike/.local/share/renesas/e2_studio/toolchains/gcc_arm/gcc-arm-none-eabi-6-2017-q2-update/arm-none-eabi/include/c++/6.3.1/bits/stl_vector.h **** 
 419:/home/zkmike/.local/share/renesas/e2_studio/toolchains/gcc_arm/gcc-arm-none-eabi-6-2017-q2-update/arm-none-eabi/include/c++/6.3.1/bits/stl_vector.h ****       /**
 420:/home/zkmike/.local/share/renesas/e2_studio/toolchains/gcc_arm/gcc-arm-none-eabi-6-2017-q2-update/arm-none-eabi/include/c++/6.3.1/bits/stl_vector.h ****        *  The dtor only erases the elements, and note that if the
 421:/home/zkmike/.local/share/renesas/e2_studio/toolchains/gcc_arm/gcc-arm-none-eabi-6-2017-q2-update/arm-none-eabi/include/c++/6.3.1/bits/stl_vector.h ****        *  elements themselves are pointers, the pointed-to memory is
 422:/home/zkmike/.local/share/renesas/e2_studio/toolchains/gcc_arm/gcc-arm-none-eabi-6-2017-q2-update/arm-none-eabi/include/c++/6.3.1/bits/stl_vector.h ****        *  not touched in any way.  Managing the pointer is the user's
 423:/home/zkmike/.local/share/renesas/e2_studio/toolchains/gcc_arm/gcc-arm-none-eabi-6-2017-q2-update/arm-none-eabi/include/c++/6.3.1/bits/stl_vector.h ****        *  responsibility.
 424:/home/zkmike/.local/share/renesas/e2_studio/toolchains/gcc_arm/gcc-arm-none-eabi-6-2017-q2-update/arm-none-eabi/include/c++/6.3.1/bits/stl_vector.h ****        */
 425:/home/zkmike/.local/share/renesas/e2_studio/toolchains/gcc_arm/gcc-arm-none-eabi-6-2017-q2-update/arm-none-eabi/include/c++/6.3.1/bits/stl_vector.h ****       ~vector() _GLIBCXX_NOEXCEPT
 426:/home/zkmike/.local/share/renesas/e2_studio/toolchains/gcc_arm/gcc-arm-none-eabi-6-2017-q2-update/arm-none-eabi/include/c++/6.3.1/bits/stl_vector.h ****       { std::_Destroy(this->_M_impl._M_start, this->_M_impl._M_finish,
 427:/home/zkmike/.local/share/renesas/e2_studio/toolchains/gcc_arm/gcc-arm-none-eabi-6-2017-q2-update/arm-none-eabi/include/c++/6.3.1/bits/stl_vector.h **** 		      _M_get_Tp_allocator()); }
 428:/home/zkmike/.local/share/renesas/e2_studio/toolchains/gcc_arm/gcc-arm-none-eabi-6-2017-q2-update/arm-none-eabi/include/c++/6.3.1/bits/stl_vector.h **** 
 429:/home/zkmike/.local/share/renesas/e2_studio/toolchains/gcc_arm/gcc-arm-none-eabi-6-2017-q2-update/arm-none-eabi/include/c++/6.3.1/bits/stl_vector.h ****       /**
 430:/home/zkmike/.local/share/renesas/e2_studio/toolchains/gcc_arm/gcc-arm-none-eabi-6-2017-q2-update/arm-none-eabi/include/c++/6.3.1/bits/stl_vector.h ****        *  @brief  %Vector assignment operator.
 431:/home/zkmike/.local/share/renesas/e2_studio/toolchains/gcc_arm/gcc-arm-none-eabi-6-2017-q2-update/arm-none-eabi/include/c++/6.3.1/bits/stl_vector.h ****        *  @param  __x  A %vector of identical element and allocator types.
 432:/home/zkmike/.local/share/renesas/e2_studio/toolchains/gcc_arm/gcc-arm-none-eabi-6-2017-q2-update/arm-none-eabi/include/c++/6.3.1/bits/stl_vector.h ****        *
 433:/home/zkmike/.local/share/renesas/e2_studio/toolchains/gcc_arm/gcc-arm-none-eabi-6-2017-q2-update/arm-none-eabi/include/c++/6.3.1/bits/stl_vector.h ****        *  All the elements of @a __x are copied, but any extra memory in
 434:/home/zkmike/.local/share/renesas/e2_studio/toolchains/gcc_arm/gcc-arm-none-eabi-6-2017-q2-update/arm-none-eabi/include/c++/6.3.1/bits/stl_vector.h ****        *  @a __x (for fast expansion) will not be copied.  Unlike the
 435:/home/zkmike/.local/share/renesas/e2_studio/toolchains/gcc_arm/gcc-arm-none-eabi-6-2017-q2-update/arm-none-eabi/include/c++/6.3.1/bits/stl_vector.h ****        *  copy constructor, the allocator object is not copied.
 436:/home/zkmike/.local/share/renesas/e2_studio/toolchains/gcc_arm/gcc-arm-none-eabi-6-2017-q2-update/arm-none-eabi/include/c++/6.3.1/bits/stl_vector.h ****        */
 437:/home/zkmike/.local/share/renesas/e2_studio/toolchains/gcc_arm/gcc-arm-none-eabi-6-2017-q2-update/arm-none-eabi/include/c++/6.3.1/bits/stl_vector.h ****       vector&
 438:/home/zkmike/.local/share/renesas/e2_studio/toolchains/gcc_arm/gcc-arm-none-eabi-6-2017-q2-update/arm-none-eabi/include/c++/6.3.1/bits/stl_vector.h ****       operator=(const vector& __x);
 439:/home/zkmike/.local/share/renesas/e2_studio/toolchains/gcc_arm/gcc-arm-none-eabi-6-2017-q2-update/arm-none-eabi/include/c++/6.3.1/bits/stl_vector.h **** 
 440:/home/zkmike/.local/share/renesas/e2_studio/toolchains/gcc_arm/gcc-arm-none-eabi-6-2017-q2-update/arm-none-eabi/include/c++/6.3.1/bits/stl_vector.h **** #if __cplusplus >= 201103L
 441:/home/zkmike/.local/share/renesas/e2_studio/toolchains/gcc_arm/gcc-arm-none-eabi-6-2017-q2-update/arm-none-eabi/include/c++/6.3.1/bits/stl_vector.h ****       /**
 442:/home/zkmike/.local/share/renesas/e2_studio/toolchains/gcc_arm/gcc-arm-none-eabi-6-2017-q2-update/arm-none-eabi/include/c++/6.3.1/bits/stl_vector.h ****        *  @brief  %Vector move assignment operator.
 443:/home/zkmike/.local/share/renesas/e2_studio/toolchains/gcc_arm/gcc-arm-none-eabi-6-2017-q2-update/arm-none-eabi/include/c++/6.3.1/bits/stl_vector.h ****        *  @param  __x  A %vector of identical element and allocator types.
 444:/home/zkmike/.local/share/renesas/e2_studio/toolchains/gcc_arm/gcc-arm-none-eabi-6-2017-q2-update/arm-none-eabi/include/c++/6.3.1/bits/stl_vector.h ****        *
 445:/home/zkmike/.local/share/renesas/e2_studio/toolchains/gcc_arm/gcc-arm-none-eabi-6-2017-q2-update/arm-none-eabi/include/c++/6.3.1/bits/stl_vector.h ****        *  The contents of @a __x are moved into this %vector (without copying,
 446:/home/zkmike/.local/share/renesas/e2_studio/toolchains/gcc_arm/gcc-arm-none-eabi-6-2017-q2-update/arm-none-eabi/include/c++/6.3.1/bits/stl_vector.h ****        *  if the allocators permit it).
 447:/home/zkmike/.local/share/renesas/e2_studio/toolchains/gcc_arm/gcc-arm-none-eabi-6-2017-q2-update/arm-none-eabi/include/c++/6.3.1/bits/stl_vector.h ****        *  @a __x is a valid, but unspecified %vector.
 448:/home/zkmike/.local/share/renesas/e2_studio/toolchains/gcc_arm/gcc-arm-none-eabi-6-2017-q2-update/arm-none-eabi/include/c++/6.3.1/bits/stl_vector.h ****        */
 449:/home/zkmike/.local/share/renesas/e2_studio/toolchains/gcc_arm/gcc-arm-none-eabi-6-2017-q2-update/arm-none-eabi/include/c++/6.3.1/bits/stl_vector.h ****       vector&
 450:/home/zkmike/.local/share/renesas/e2_studio/toolchains/gcc_arm/gcc-arm-none-eabi-6-2017-q2-update/arm-none-eabi/include/c++/6.3.1/bits/stl_vector.h ****       operator=(vector&& __x) noexcept(_Alloc_traits::_S_nothrow_move())
 451:/home/zkmike/.local/share/renesas/e2_studio/toolchains/gcc_arm/gcc-arm-none-eabi-6-2017-q2-update/arm-none-eabi/include/c++/6.3.1/bits/stl_vector.h ****       {
 452:/home/zkmike/.local/share/renesas/e2_studio/toolchains/gcc_arm/gcc-arm-none-eabi-6-2017-q2-update/arm-none-eabi/include/c++/6.3.1/bits/stl_vector.h ****         constexpr bool __move_storage =
 453:/home/zkmike/.local/share/renesas/e2_studio/toolchains/gcc_arm/gcc-arm-none-eabi-6-2017-q2-update/arm-none-eabi/include/c++/6.3.1/bits/stl_vector.h ****           _Alloc_traits::_S_propagate_on_move_assign()
 454:/home/zkmike/.local/share/renesas/e2_studio/toolchains/gcc_arm/gcc-arm-none-eabi-6-2017-q2-update/arm-none-eabi/include/c++/6.3.1/bits/stl_vector.h ****           || _Alloc_traits::_S_always_equal();
 455:/home/zkmike/.local/share/renesas/e2_studio/toolchains/gcc_arm/gcc-arm-none-eabi-6-2017-q2-update/arm-none-eabi/include/c++/6.3.1/bits/stl_vector.h ****         _M_move_assign(std::move(__x), __bool_constant<__move_storage>());
 456:/home/zkmike/.local/share/renesas/e2_studio/toolchains/gcc_arm/gcc-arm-none-eabi-6-2017-q2-update/arm-none-eabi/include/c++/6.3.1/bits/stl_vector.h **** 	return *this;
 457:/home/zkmike/.local/share/renesas/e2_studio/toolchains/gcc_arm/gcc-arm-none-eabi-6-2017-q2-update/arm-none-eabi/include/c++/6.3.1/bits/stl_vector.h ****       }
 458:/home/zkmike/.local/share/renesas/e2_studio/toolchains/gcc_arm/gcc-arm-none-eabi-6-2017-q2-update/arm-none-eabi/include/c++/6.3.1/bits/stl_vector.h **** 
 459:/home/zkmike/.local/share/renesas/e2_studio/toolchains/gcc_arm/gcc-arm-none-eabi-6-2017-q2-update/arm-none-eabi/include/c++/6.3.1/bits/stl_vector.h ****       /**
 460:/home/zkmike/.local/share/renesas/e2_studio/toolchains/gcc_arm/gcc-arm-none-eabi-6-2017-q2-update/arm-none-eabi/include/c++/6.3.1/bits/stl_vector.h ****        *  @brief  %Vector list assignment operator.
 461:/home/zkmike/.local/share/renesas/e2_studio/toolchains/gcc_arm/gcc-arm-none-eabi-6-2017-q2-update/arm-none-eabi/include/c++/6.3.1/bits/stl_vector.h ****        *  @param  __l  An initializer_list.
 462:/home/zkmike/.local/share/renesas/e2_studio/toolchains/gcc_arm/gcc-arm-none-eabi-6-2017-q2-update/arm-none-eabi/include/c++/6.3.1/bits/stl_vector.h ****        *
 463:/home/zkmike/.local/share/renesas/e2_studio/toolchains/gcc_arm/gcc-arm-none-eabi-6-2017-q2-update/arm-none-eabi/include/c++/6.3.1/bits/stl_vector.h ****        *  This function fills a %vector with copies of the elements in the
 464:/home/zkmike/.local/share/renesas/e2_studio/toolchains/gcc_arm/gcc-arm-none-eabi-6-2017-q2-update/arm-none-eabi/include/c++/6.3.1/bits/stl_vector.h ****        *  initializer list @a __l.
 465:/home/zkmike/.local/share/renesas/e2_studio/toolchains/gcc_arm/gcc-arm-none-eabi-6-2017-q2-update/arm-none-eabi/include/c++/6.3.1/bits/stl_vector.h ****        *
 466:/home/zkmike/.local/share/renesas/e2_studio/toolchains/gcc_arm/gcc-arm-none-eabi-6-2017-q2-update/arm-none-eabi/include/c++/6.3.1/bits/stl_vector.h ****        *  Note that the assignment completely changes the %vector and
 467:/home/zkmike/.local/share/renesas/e2_studio/toolchains/gcc_arm/gcc-arm-none-eabi-6-2017-q2-update/arm-none-eabi/include/c++/6.3.1/bits/stl_vector.h ****        *  that the resulting %vector's size is the same as the number
 468:/home/zkmike/.local/share/renesas/e2_studio/toolchains/gcc_arm/gcc-arm-none-eabi-6-2017-q2-update/arm-none-eabi/include/c++/6.3.1/bits/stl_vector.h ****        *  of elements assigned.  Old data may be lost.
 469:/home/zkmike/.local/share/renesas/e2_studio/toolchains/gcc_arm/gcc-arm-none-eabi-6-2017-q2-update/arm-none-eabi/include/c++/6.3.1/bits/stl_vector.h ****        */
 470:/home/zkmike/.local/share/renesas/e2_studio/toolchains/gcc_arm/gcc-arm-none-eabi-6-2017-q2-update/arm-none-eabi/include/c++/6.3.1/bits/stl_vector.h ****       vector&
 471:/home/zkmike/.local/share/renesas/e2_studio/toolchains/gcc_arm/gcc-arm-none-eabi-6-2017-q2-update/arm-none-eabi/include/c++/6.3.1/bits/stl_vector.h ****       operator=(initializer_list<value_type> __l)
 472:/home/zkmike/.local/share/renesas/e2_studio/toolchains/gcc_arm/gcc-arm-none-eabi-6-2017-q2-update/arm-none-eabi/include/c++/6.3.1/bits/stl_vector.h ****       {
 473:/home/zkmike/.local/share/renesas/e2_studio/toolchains/gcc_arm/gcc-arm-none-eabi-6-2017-q2-update/arm-none-eabi/include/c++/6.3.1/bits/stl_vector.h **** 	this->assign(__l.begin(), __l.end());
 474:/home/zkmike/.local/share/renesas/e2_studio/toolchains/gcc_arm/gcc-arm-none-eabi-6-2017-q2-update/arm-none-eabi/include/c++/6.3.1/bits/stl_vector.h **** 	return *this;
 475:/home/zkmike/.local/share/renesas/e2_studio/toolchains/gcc_arm/gcc-arm-none-eabi-6-2017-q2-update/arm-none-eabi/include/c++/6.3.1/bits/stl_vector.h ****       }
 476:/home/zkmike/.local/share/renesas/e2_studio/toolchains/gcc_arm/gcc-arm-none-eabi-6-2017-q2-update/arm-none-eabi/include/c++/6.3.1/bits/stl_vector.h **** #endif
 477:/home/zkmike/.local/share/renesas/e2_studio/toolchains/gcc_arm/gcc-arm-none-eabi-6-2017-q2-update/arm-none-eabi/include/c++/6.3.1/bits/stl_vector.h **** 
 478:/home/zkmike/.local/share/renesas/e2_studio/toolchains/gcc_arm/gcc-arm-none-eabi-6-2017-q2-update/arm-none-eabi/include/c++/6.3.1/bits/stl_vector.h ****       /**
 479:/home/zkmike/.local/share/renesas/e2_studio/toolchains/gcc_arm/gcc-arm-none-eabi-6-2017-q2-update/arm-none-eabi/include/c++/6.3.1/bits/stl_vector.h ****        *  @brief  Assigns a given value to a %vector.
 480:/home/zkmike/.local/share/renesas/e2_studio/toolchains/gcc_arm/gcc-arm-none-eabi-6-2017-q2-update/arm-none-eabi/include/c++/6.3.1/bits/stl_vector.h ****        *  @param  __n  Number of elements to be assigned.
 481:/home/zkmike/.local/share/renesas/e2_studio/toolchains/gcc_arm/gcc-arm-none-eabi-6-2017-q2-update/arm-none-eabi/include/c++/6.3.1/bits/stl_vector.h ****        *  @param  __val  Value to be assigned.
 482:/home/zkmike/.local/share/renesas/e2_studio/toolchains/gcc_arm/gcc-arm-none-eabi-6-2017-q2-update/arm-none-eabi/include/c++/6.3.1/bits/stl_vector.h ****        *
 483:/home/zkmike/.local/share/renesas/e2_studio/toolchains/gcc_arm/gcc-arm-none-eabi-6-2017-q2-update/arm-none-eabi/include/c++/6.3.1/bits/stl_vector.h ****        *  This function fills a %vector with @a __n copies of the given
 484:/home/zkmike/.local/share/renesas/e2_studio/toolchains/gcc_arm/gcc-arm-none-eabi-6-2017-q2-update/arm-none-eabi/include/c++/6.3.1/bits/stl_vector.h ****        *  value.  Note that the assignment completely changes the
 485:/home/zkmike/.local/share/renesas/e2_studio/toolchains/gcc_arm/gcc-arm-none-eabi-6-2017-q2-update/arm-none-eabi/include/c++/6.3.1/bits/stl_vector.h ****        *  %vector and that the resulting %vector's size is the same as
 486:/home/zkmike/.local/share/renesas/e2_studio/toolchains/gcc_arm/gcc-arm-none-eabi-6-2017-q2-update/arm-none-eabi/include/c++/6.3.1/bits/stl_vector.h ****        *  the number of elements assigned.  Old data may be lost.
 487:/home/zkmike/.local/share/renesas/e2_studio/toolchains/gcc_arm/gcc-arm-none-eabi-6-2017-q2-update/arm-none-eabi/include/c++/6.3.1/bits/stl_vector.h ****        */
 488:/home/zkmike/.local/share/renesas/e2_studio/toolchains/gcc_arm/gcc-arm-none-eabi-6-2017-q2-update/arm-none-eabi/include/c++/6.3.1/bits/stl_vector.h ****       void
 489:/home/zkmike/.local/share/renesas/e2_studio/toolchains/gcc_arm/gcc-arm-none-eabi-6-2017-q2-update/arm-none-eabi/include/c++/6.3.1/bits/stl_vector.h ****       assign(size_type __n, const value_type& __val)
 490:/home/zkmike/.local/share/renesas/e2_studio/toolchains/gcc_arm/gcc-arm-none-eabi-6-2017-q2-update/arm-none-eabi/include/c++/6.3.1/bits/stl_vector.h ****       { _M_fill_assign(__n, __val); }
 491:/home/zkmike/.local/share/renesas/e2_studio/toolchains/gcc_arm/gcc-arm-none-eabi-6-2017-q2-update/arm-none-eabi/include/c++/6.3.1/bits/stl_vector.h **** 
 492:/home/zkmike/.local/share/renesas/e2_studio/toolchains/gcc_arm/gcc-arm-none-eabi-6-2017-q2-update/arm-none-eabi/include/c++/6.3.1/bits/stl_vector.h ****       /**
 493:/home/zkmike/.local/share/renesas/e2_studio/toolchains/gcc_arm/gcc-arm-none-eabi-6-2017-q2-update/arm-none-eabi/include/c++/6.3.1/bits/stl_vector.h ****        *  @brief  Assigns a range to a %vector.
 494:/home/zkmike/.local/share/renesas/e2_studio/toolchains/gcc_arm/gcc-arm-none-eabi-6-2017-q2-update/arm-none-eabi/include/c++/6.3.1/bits/stl_vector.h ****        *  @param  __first  An input iterator.
 495:/home/zkmike/.local/share/renesas/e2_studio/toolchains/gcc_arm/gcc-arm-none-eabi-6-2017-q2-update/arm-none-eabi/include/c++/6.3.1/bits/stl_vector.h ****        *  @param  __last   An input iterator.
 496:/home/zkmike/.local/share/renesas/e2_studio/toolchains/gcc_arm/gcc-arm-none-eabi-6-2017-q2-update/arm-none-eabi/include/c++/6.3.1/bits/stl_vector.h ****        *
 497:/home/zkmike/.local/share/renesas/e2_studio/toolchains/gcc_arm/gcc-arm-none-eabi-6-2017-q2-update/arm-none-eabi/include/c++/6.3.1/bits/stl_vector.h ****        *  This function fills a %vector with copies of the elements in the
 498:/home/zkmike/.local/share/renesas/e2_studio/toolchains/gcc_arm/gcc-arm-none-eabi-6-2017-q2-update/arm-none-eabi/include/c++/6.3.1/bits/stl_vector.h ****        *  range [__first,__last).
 499:/home/zkmike/.local/share/renesas/e2_studio/toolchains/gcc_arm/gcc-arm-none-eabi-6-2017-q2-update/arm-none-eabi/include/c++/6.3.1/bits/stl_vector.h ****        *
 500:/home/zkmike/.local/share/renesas/e2_studio/toolchains/gcc_arm/gcc-arm-none-eabi-6-2017-q2-update/arm-none-eabi/include/c++/6.3.1/bits/stl_vector.h ****        *  Note that the assignment completely changes the %vector and
 501:/home/zkmike/.local/share/renesas/e2_studio/toolchains/gcc_arm/gcc-arm-none-eabi-6-2017-q2-update/arm-none-eabi/include/c++/6.3.1/bits/stl_vector.h ****        *  that the resulting %vector's size is the same as the number
 502:/home/zkmike/.local/share/renesas/e2_studio/toolchains/gcc_arm/gcc-arm-none-eabi-6-2017-q2-update/arm-none-eabi/include/c++/6.3.1/bits/stl_vector.h ****        *  of elements assigned.  Old data may be lost.
 503:/home/zkmike/.local/share/renesas/e2_studio/toolchains/gcc_arm/gcc-arm-none-eabi-6-2017-q2-update/arm-none-eabi/include/c++/6.3.1/bits/stl_vector.h ****        */
 504:/home/zkmike/.local/share/renesas/e2_studio/toolchains/gcc_arm/gcc-arm-none-eabi-6-2017-q2-update/arm-none-eabi/include/c++/6.3.1/bits/stl_vector.h **** #if __cplusplus >= 201103L
 505:/home/zkmike/.local/share/renesas/e2_studio/toolchains/gcc_arm/gcc-arm-none-eabi-6-2017-q2-update/arm-none-eabi/include/c++/6.3.1/bits/stl_vector.h ****       template<typename _InputIterator,
 506:/home/zkmike/.local/share/renesas/e2_studio/toolchains/gcc_arm/gcc-arm-none-eabi-6-2017-q2-update/arm-none-eabi/include/c++/6.3.1/bits/stl_vector.h **** 	       typename = std::_RequireInputIter<_InputIterator>>
 507:/home/zkmike/.local/share/renesas/e2_studio/toolchains/gcc_arm/gcc-arm-none-eabi-6-2017-q2-update/arm-none-eabi/include/c++/6.3.1/bits/stl_vector.h ****         void
 508:/home/zkmike/.local/share/renesas/e2_studio/toolchains/gcc_arm/gcc-arm-none-eabi-6-2017-q2-update/arm-none-eabi/include/c++/6.3.1/bits/stl_vector.h ****         assign(_InputIterator __first, _InputIterator __last)
 509:/home/zkmike/.local/share/renesas/e2_studio/toolchains/gcc_arm/gcc-arm-none-eabi-6-2017-q2-update/arm-none-eabi/include/c++/6.3.1/bits/stl_vector.h ****         { _M_assign_dispatch(__first, __last, __false_type()); }
 510:/home/zkmike/.local/share/renesas/e2_studio/toolchains/gcc_arm/gcc-arm-none-eabi-6-2017-q2-update/arm-none-eabi/include/c++/6.3.1/bits/stl_vector.h **** #else
 511:/home/zkmike/.local/share/renesas/e2_studio/toolchains/gcc_arm/gcc-arm-none-eabi-6-2017-q2-update/arm-none-eabi/include/c++/6.3.1/bits/stl_vector.h ****       template<typename _InputIterator>
 512:/home/zkmike/.local/share/renesas/e2_studio/toolchains/gcc_arm/gcc-arm-none-eabi-6-2017-q2-update/arm-none-eabi/include/c++/6.3.1/bits/stl_vector.h ****         void
 513:/home/zkmike/.local/share/renesas/e2_studio/toolchains/gcc_arm/gcc-arm-none-eabi-6-2017-q2-update/arm-none-eabi/include/c++/6.3.1/bits/stl_vector.h ****         assign(_InputIterator __first, _InputIterator __last)
 514:/home/zkmike/.local/share/renesas/e2_studio/toolchains/gcc_arm/gcc-arm-none-eabi-6-2017-q2-update/arm-none-eabi/include/c++/6.3.1/bits/stl_vector.h ****         {
 515:/home/zkmike/.local/share/renesas/e2_studio/toolchains/gcc_arm/gcc-arm-none-eabi-6-2017-q2-update/arm-none-eabi/include/c++/6.3.1/bits/stl_vector.h **** 	  // Check whether it's an integral type.  If so, it's not an iterator.
 516:/home/zkmike/.local/share/renesas/e2_studio/toolchains/gcc_arm/gcc-arm-none-eabi-6-2017-q2-update/arm-none-eabi/include/c++/6.3.1/bits/stl_vector.h **** 	  typedef typename std::__is_integer<_InputIterator>::__type _Integral;
 517:/home/zkmike/.local/share/renesas/e2_studio/toolchains/gcc_arm/gcc-arm-none-eabi-6-2017-q2-update/arm-none-eabi/include/c++/6.3.1/bits/stl_vector.h **** 	  _M_assign_dispatch(__first, __last, _Integral());
 518:/home/zkmike/.local/share/renesas/e2_studio/toolchains/gcc_arm/gcc-arm-none-eabi-6-2017-q2-update/arm-none-eabi/include/c++/6.3.1/bits/stl_vector.h **** 	}
 519:/home/zkmike/.local/share/renesas/e2_studio/toolchains/gcc_arm/gcc-arm-none-eabi-6-2017-q2-update/arm-none-eabi/include/c++/6.3.1/bits/stl_vector.h **** #endif
 520:/home/zkmike/.local/share/renesas/e2_studio/toolchains/gcc_arm/gcc-arm-none-eabi-6-2017-q2-update/arm-none-eabi/include/c++/6.3.1/bits/stl_vector.h **** 
 521:/home/zkmike/.local/share/renesas/e2_studio/toolchains/gcc_arm/gcc-arm-none-eabi-6-2017-q2-update/arm-none-eabi/include/c++/6.3.1/bits/stl_vector.h **** #if __cplusplus >= 201103L
 522:/home/zkmike/.local/share/renesas/e2_studio/toolchains/gcc_arm/gcc-arm-none-eabi-6-2017-q2-update/arm-none-eabi/include/c++/6.3.1/bits/stl_vector.h ****       /**
 523:/home/zkmike/.local/share/renesas/e2_studio/toolchains/gcc_arm/gcc-arm-none-eabi-6-2017-q2-update/arm-none-eabi/include/c++/6.3.1/bits/stl_vector.h ****        *  @brief  Assigns an initializer list to a %vector.
 524:/home/zkmike/.local/share/renesas/e2_studio/toolchains/gcc_arm/gcc-arm-none-eabi-6-2017-q2-update/arm-none-eabi/include/c++/6.3.1/bits/stl_vector.h ****        *  @param  __l  An initializer_list.
 525:/home/zkmike/.local/share/renesas/e2_studio/toolchains/gcc_arm/gcc-arm-none-eabi-6-2017-q2-update/arm-none-eabi/include/c++/6.3.1/bits/stl_vector.h ****        *
 526:/home/zkmike/.local/share/renesas/e2_studio/toolchains/gcc_arm/gcc-arm-none-eabi-6-2017-q2-update/arm-none-eabi/include/c++/6.3.1/bits/stl_vector.h ****        *  This function fills a %vector with copies of the elements in the
 527:/home/zkmike/.local/share/renesas/e2_studio/toolchains/gcc_arm/gcc-arm-none-eabi-6-2017-q2-update/arm-none-eabi/include/c++/6.3.1/bits/stl_vector.h ****        *  initializer list @a __l.
 528:/home/zkmike/.local/share/renesas/e2_studio/toolchains/gcc_arm/gcc-arm-none-eabi-6-2017-q2-update/arm-none-eabi/include/c++/6.3.1/bits/stl_vector.h ****        *
 529:/home/zkmike/.local/share/renesas/e2_studio/toolchains/gcc_arm/gcc-arm-none-eabi-6-2017-q2-update/arm-none-eabi/include/c++/6.3.1/bits/stl_vector.h ****        *  Note that the assignment completely changes the %vector and
 530:/home/zkmike/.local/share/renesas/e2_studio/toolchains/gcc_arm/gcc-arm-none-eabi-6-2017-q2-update/arm-none-eabi/include/c++/6.3.1/bits/stl_vector.h ****        *  that the resulting %vector's size is the same as the number
 531:/home/zkmike/.local/share/renesas/e2_studio/toolchains/gcc_arm/gcc-arm-none-eabi-6-2017-q2-update/arm-none-eabi/include/c++/6.3.1/bits/stl_vector.h ****        *  of elements assigned.  Old data may be lost.
 532:/home/zkmike/.local/share/renesas/e2_studio/toolchains/gcc_arm/gcc-arm-none-eabi-6-2017-q2-update/arm-none-eabi/include/c++/6.3.1/bits/stl_vector.h ****        */
 533:/home/zkmike/.local/share/renesas/e2_studio/toolchains/gcc_arm/gcc-arm-none-eabi-6-2017-q2-update/arm-none-eabi/include/c++/6.3.1/bits/stl_vector.h ****       void
 534:/home/zkmike/.local/share/renesas/e2_studio/toolchains/gcc_arm/gcc-arm-none-eabi-6-2017-q2-update/arm-none-eabi/include/c++/6.3.1/bits/stl_vector.h ****       assign(initializer_list<value_type> __l)
 535:/home/zkmike/.local/share/renesas/e2_studio/toolchains/gcc_arm/gcc-arm-none-eabi-6-2017-q2-update/arm-none-eabi/include/c++/6.3.1/bits/stl_vector.h ****       { this->assign(__l.begin(), __l.end()); }
 536:/home/zkmike/.local/share/renesas/e2_studio/toolchains/gcc_arm/gcc-arm-none-eabi-6-2017-q2-update/arm-none-eabi/include/c++/6.3.1/bits/stl_vector.h **** #endif
 537:/home/zkmike/.local/share/renesas/e2_studio/toolchains/gcc_arm/gcc-arm-none-eabi-6-2017-q2-update/arm-none-eabi/include/c++/6.3.1/bits/stl_vector.h **** 
 538:/home/zkmike/.local/share/renesas/e2_studio/toolchains/gcc_arm/gcc-arm-none-eabi-6-2017-q2-update/arm-none-eabi/include/c++/6.3.1/bits/stl_vector.h ****       /// Get a copy of the memory allocation object.
 539:/home/zkmike/.local/share/renesas/e2_studio/toolchains/gcc_arm/gcc-arm-none-eabi-6-2017-q2-update/arm-none-eabi/include/c++/6.3.1/bits/stl_vector.h ****       using _Base::get_allocator;
 540:/home/zkmike/.local/share/renesas/e2_studio/toolchains/gcc_arm/gcc-arm-none-eabi-6-2017-q2-update/arm-none-eabi/include/c++/6.3.1/bits/stl_vector.h **** 
 541:/home/zkmike/.local/share/renesas/e2_studio/toolchains/gcc_arm/gcc-arm-none-eabi-6-2017-q2-update/arm-none-eabi/include/c++/6.3.1/bits/stl_vector.h ****       // iterators
 542:/home/zkmike/.local/share/renesas/e2_studio/toolchains/gcc_arm/gcc-arm-none-eabi-6-2017-q2-update/arm-none-eabi/include/c++/6.3.1/bits/stl_vector.h ****       /**
 543:/home/zkmike/.local/share/renesas/e2_studio/toolchains/gcc_arm/gcc-arm-none-eabi-6-2017-q2-update/arm-none-eabi/include/c++/6.3.1/bits/stl_vector.h ****        *  Returns a read/write iterator that points to the first
 544:/home/zkmike/.local/share/renesas/e2_studio/toolchains/gcc_arm/gcc-arm-none-eabi-6-2017-q2-update/arm-none-eabi/include/c++/6.3.1/bits/stl_vector.h ****        *  element in the %vector.  Iteration is done in ordinary
 545:/home/zkmike/.local/share/renesas/e2_studio/toolchains/gcc_arm/gcc-arm-none-eabi-6-2017-q2-update/arm-none-eabi/include/c++/6.3.1/bits/stl_vector.h ****        *  element order.
 546:/home/zkmike/.local/share/renesas/e2_studio/toolchains/gcc_arm/gcc-arm-none-eabi-6-2017-q2-update/arm-none-eabi/include/c++/6.3.1/bits/stl_vector.h ****        */
 547:/home/zkmike/.local/share/renesas/e2_studio/toolchains/gcc_arm/gcc-arm-none-eabi-6-2017-q2-update/arm-none-eabi/include/c++/6.3.1/bits/stl_vector.h ****       iterator
 548:/home/zkmike/.local/share/renesas/e2_studio/toolchains/gcc_arm/gcc-arm-none-eabi-6-2017-q2-update/arm-none-eabi/include/c++/6.3.1/bits/stl_vector.h ****       begin() _GLIBCXX_NOEXCEPT
 549:/home/zkmike/.local/share/renesas/e2_studio/toolchains/gcc_arm/gcc-arm-none-eabi-6-2017-q2-update/arm-none-eabi/include/c++/6.3.1/bits/stl_vector.h ****       { return iterator(this->_M_impl._M_start); }
 550:/home/zkmike/.local/share/renesas/e2_studio/toolchains/gcc_arm/gcc-arm-none-eabi-6-2017-q2-update/arm-none-eabi/include/c++/6.3.1/bits/stl_vector.h **** 
 551:/home/zkmike/.local/share/renesas/e2_studio/toolchains/gcc_arm/gcc-arm-none-eabi-6-2017-q2-update/arm-none-eabi/include/c++/6.3.1/bits/stl_vector.h ****       /**
 552:/home/zkmike/.local/share/renesas/e2_studio/toolchains/gcc_arm/gcc-arm-none-eabi-6-2017-q2-update/arm-none-eabi/include/c++/6.3.1/bits/stl_vector.h ****        *  Returns a read-only (constant) iterator that points to the
 553:/home/zkmike/.local/share/renesas/e2_studio/toolchains/gcc_arm/gcc-arm-none-eabi-6-2017-q2-update/arm-none-eabi/include/c++/6.3.1/bits/stl_vector.h ****        *  first element in the %vector.  Iteration is done in ordinary
 554:/home/zkmike/.local/share/renesas/e2_studio/toolchains/gcc_arm/gcc-arm-none-eabi-6-2017-q2-update/arm-none-eabi/include/c++/6.3.1/bits/stl_vector.h ****        *  element order.
 555:/home/zkmike/.local/share/renesas/e2_studio/toolchains/gcc_arm/gcc-arm-none-eabi-6-2017-q2-update/arm-none-eabi/include/c++/6.3.1/bits/stl_vector.h ****        */
 556:/home/zkmike/.local/share/renesas/e2_studio/toolchains/gcc_arm/gcc-arm-none-eabi-6-2017-q2-update/arm-none-eabi/include/c++/6.3.1/bits/stl_vector.h ****       const_iterator
 557:/home/zkmike/.local/share/renesas/e2_studio/toolchains/gcc_arm/gcc-arm-none-eabi-6-2017-q2-update/arm-none-eabi/include/c++/6.3.1/bits/stl_vector.h ****       begin() const _GLIBCXX_NOEXCEPT
 558:/home/zkmike/.local/share/renesas/e2_studio/toolchains/gcc_arm/gcc-arm-none-eabi-6-2017-q2-update/arm-none-eabi/include/c++/6.3.1/bits/stl_vector.h ****       { return const_iterator(this->_M_impl._M_start); }
 559:/home/zkmike/.local/share/renesas/e2_studio/toolchains/gcc_arm/gcc-arm-none-eabi-6-2017-q2-update/arm-none-eabi/include/c++/6.3.1/bits/stl_vector.h **** 
 560:/home/zkmike/.local/share/renesas/e2_studio/toolchains/gcc_arm/gcc-arm-none-eabi-6-2017-q2-update/arm-none-eabi/include/c++/6.3.1/bits/stl_vector.h ****       /**
 561:/home/zkmike/.local/share/renesas/e2_studio/toolchains/gcc_arm/gcc-arm-none-eabi-6-2017-q2-update/arm-none-eabi/include/c++/6.3.1/bits/stl_vector.h ****        *  Returns a read/write iterator that points one past the last
 562:/home/zkmike/.local/share/renesas/e2_studio/toolchains/gcc_arm/gcc-arm-none-eabi-6-2017-q2-update/arm-none-eabi/include/c++/6.3.1/bits/stl_vector.h ****        *  element in the %vector.  Iteration is done in ordinary
 563:/home/zkmike/.local/share/renesas/e2_studio/toolchains/gcc_arm/gcc-arm-none-eabi-6-2017-q2-update/arm-none-eabi/include/c++/6.3.1/bits/stl_vector.h ****        *  element order.
 564:/home/zkmike/.local/share/renesas/e2_studio/toolchains/gcc_arm/gcc-arm-none-eabi-6-2017-q2-update/arm-none-eabi/include/c++/6.3.1/bits/stl_vector.h ****        */
 565:/home/zkmike/.local/share/renesas/e2_studio/toolchains/gcc_arm/gcc-arm-none-eabi-6-2017-q2-update/arm-none-eabi/include/c++/6.3.1/bits/stl_vector.h ****       iterator
 566:/home/zkmike/.local/share/renesas/e2_studio/toolchains/gcc_arm/gcc-arm-none-eabi-6-2017-q2-update/arm-none-eabi/include/c++/6.3.1/bits/stl_vector.h ****       end() _GLIBCXX_NOEXCEPT
 567:/home/zkmike/.local/share/renesas/e2_studio/toolchains/gcc_arm/gcc-arm-none-eabi-6-2017-q2-update/arm-none-eabi/include/c++/6.3.1/bits/stl_vector.h ****       { return iterator(this->_M_impl._M_finish); }
 568:/home/zkmike/.local/share/renesas/e2_studio/toolchains/gcc_arm/gcc-arm-none-eabi-6-2017-q2-update/arm-none-eabi/include/c++/6.3.1/bits/stl_vector.h **** 
 569:/home/zkmike/.local/share/renesas/e2_studio/toolchains/gcc_arm/gcc-arm-none-eabi-6-2017-q2-update/arm-none-eabi/include/c++/6.3.1/bits/stl_vector.h ****       /**
 570:/home/zkmike/.local/share/renesas/e2_studio/toolchains/gcc_arm/gcc-arm-none-eabi-6-2017-q2-update/arm-none-eabi/include/c++/6.3.1/bits/stl_vector.h ****        *  Returns a read-only (constant) iterator that points one past
 571:/home/zkmike/.local/share/renesas/e2_studio/toolchains/gcc_arm/gcc-arm-none-eabi-6-2017-q2-update/arm-none-eabi/include/c++/6.3.1/bits/stl_vector.h ****        *  the last element in the %vector.  Iteration is done in
 572:/home/zkmike/.local/share/renesas/e2_studio/toolchains/gcc_arm/gcc-arm-none-eabi-6-2017-q2-update/arm-none-eabi/include/c++/6.3.1/bits/stl_vector.h ****        *  ordinary element order.
 573:/home/zkmike/.local/share/renesas/e2_studio/toolchains/gcc_arm/gcc-arm-none-eabi-6-2017-q2-update/arm-none-eabi/include/c++/6.3.1/bits/stl_vector.h ****        */
 574:/home/zkmike/.local/share/renesas/e2_studio/toolchains/gcc_arm/gcc-arm-none-eabi-6-2017-q2-update/arm-none-eabi/include/c++/6.3.1/bits/stl_vector.h ****       const_iterator
 575:/home/zkmike/.local/share/renesas/e2_studio/toolchains/gcc_arm/gcc-arm-none-eabi-6-2017-q2-update/arm-none-eabi/include/c++/6.3.1/bits/stl_vector.h ****       end() const _GLIBCXX_NOEXCEPT
 576:/home/zkmike/.local/share/renesas/e2_studio/toolchains/gcc_arm/gcc-arm-none-eabi-6-2017-q2-update/arm-none-eabi/include/c++/6.3.1/bits/stl_vector.h ****       { return const_iterator(this->_M_impl._M_finish); }
 577:/home/zkmike/.local/share/renesas/e2_studio/toolchains/gcc_arm/gcc-arm-none-eabi-6-2017-q2-update/arm-none-eabi/include/c++/6.3.1/bits/stl_vector.h **** 
 578:/home/zkmike/.local/share/renesas/e2_studio/toolchains/gcc_arm/gcc-arm-none-eabi-6-2017-q2-update/arm-none-eabi/include/c++/6.3.1/bits/stl_vector.h ****       /**
 579:/home/zkmike/.local/share/renesas/e2_studio/toolchains/gcc_arm/gcc-arm-none-eabi-6-2017-q2-update/arm-none-eabi/include/c++/6.3.1/bits/stl_vector.h ****        *  Returns a read/write reverse iterator that points to the
 580:/home/zkmike/.local/share/renesas/e2_studio/toolchains/gcc_arm/gcc-arm-none-eabi-6-2017-q2-update/arm-none-eabi/include/c++/6.3.1/bits/stl_vector.h ****        *  last element in the %vector.  Iteration is done in reverse
 581:/home/zkmike/.local/share/renesas/e2_studio/toolchains/gcc_arm/gcc-arm-none-eabi-6-2017-q2-update/arm-none-eabi/include/c++/6.3.1/bits/stl_vector.h ****        *  element order.
 582:/home/zkmike/.local/share/renesas/e2_studio/toolchains/gcc_arm/gcc-arm-none-eabi-6-2017-q2-update/arm-none-eabi/include/c++/6.3.1/bits/stl_vector.h ****        */
 583:/home/zkmike/.local/share/renesas/e2_studio/toolchains/gcc_arm/gcc-arm-none-eabi-6-2017-q2-update/arm-none-eabi/include/c++/6.3.1/bits/stl_vector.h ****       reverse_iterator
 584:/home/zkmike/.local/share/renesas/e2_studio/toolchains/gcc_arm/gcc-arm-none-eabi-6-2017-q2-update/arm-none-eabi/include/c++/6.3.1/bits/stl_vector.h ****       rbegin() _GLIBCXX_NOEXCEPT
 585:/home/zkmike/.local/share/renesas/e2_studio/toolchains/gcc_arm/gcc-arm-none-eabi-6-2017-q2-update/arm-none-eabi/include/c++/6.3.1/bits/stl_vector.h ****       { return reverse_iterator(end()); }
 586:/home/zkmike/.local/share/renesas/e2_studio/toolchains/gcc_arm/gcc-arm-none-eabi-6-2017-q2-update/arm-none-eabi/include/c++/6.3.1/bits/stl_vector.h **** 
 587:/home/zkmike/.local/share/renesas/e2_studio/toolchains/gcc_arm/gcc-arm-none-eabi-6-2017-q2-update/arm-none-eabi/include/c++/6.3.1/bits/stl_vector.h ****       /**
 588:/home/zkmike/.local/share/renesas/e2_studio/toolchains/gcc_arm/gcc-arm-none-eabi-6-2017-q2-update/arm-none-eabi/include/c++/6.3.1/bits/stl_vector.h ****        *  Returns a read-only (constant) reverse iterator that points
 589:/home/zkmike/.local/share/renesas/e2_studio/toolchains/gcc_arm/gcc-arm-none-eabi-6-2017-q2-update/arm-none-eabi/include/c++/6.3.1/bits/stl_vector.h ****        *  to the last element in the %vector.  Iteration is done in
 590:/home/zkmike/.local/share/renesas/e2_studio/toolchains/gcc_arm/gcc-arm-none-eabi-6-2017-q2-update/arm-none-eabi/include/c++/6.3.1/bits/stl_vector.h ****        *  reverse element order.
 591:/home/zkmike/.local/share/renesas/e2_studio/toolchains/gcc_arm/gcc-arm-none-eabi-6-2017-q2-update/arm-none-eabi/include/c++/6.3.1/bits/stl_vector.h ****        */
 592:/home/zkmike/.local/share/renesas/e2_studio/toolchains/gcc_arm/gcc-arm-none-eabi-6-2017-q2-update/arm-none-eabi/include/c++/6.3.1/bits/stl_vector.h ****       const_reverse_iterator
 593:/home/zkmike/.local/share/renesas/e2_studio/toolchains/gcc_arm/gcc-arm-none-eabi-6-2017-q2-update/arm-none-eabi/include/c++/6.3.1/bits/stl_vector.h ****       rbegin() const _GLIBCXX_NOEXCEPT
 594:/home/zkmike/.local/share/renesas/e2_studio/toolchains/gcc_arm/gcc-arm-none-eabi-6-2017-q2-update/arm-none-eabi/include/c++/6.3.1/bits/stl_vector.h ****       { return const_reverse_iterator(end()); }
 595:/home/zkmike/.local/share/renesas/e2_studio/toolchains/gcc_arm/gcc-arm-none-eabi-6-2017-q2-update/arm-none-eabi/include/c++/6.3.1/bits/stl_vector.h **** 
 596:/home/zkmike/.local/share/renesas/e2_studio/toolchains/gcc_arm/gcc-arm-none-eabi-6-2017-q2-update/arm-none-eabi/include/c++/6.3.1/bits/stl_vector.h ****       /**
 597:/home/zkmike/.local/share/renesas/e2_studio/toolchains/gcc_arm/gcc-arm-none-eabi-6-2017-q2-update/arm-none-eabi/include/c++/6.3.1/bits/stl_vector.h ****        *  Returns a read/write reverse iterator that points to one
 598:/home/zkmike/.local/share/renesas/e2_studio/toolchains/gcc_arm/gcc-arm-none-eabi-6-2017-q2-update/arm-none-eabi/include/c++/6.3.1/bits/stl_vector.h ****        *  before the first element in the %vector.  Iteration is done
 599:/home/zkmike/.local/share/renesas/e2_studio/toolchains/gcc_arm/gcc-arm-none-eabi-6-2017-q2-update/arm-none-eabi/include/c++/6.3.1/bits/stl_vector.h ****        *  in reverse element order.
 600:/home/zkmike/.local/share/renesas/e2_studio/toolchains/gcc_arm/gcc-arm-none-eabi-6-2017-q2-update/arm-none-eabi/include/c++/6.3.1/bits/stl_vector.h ****        */
 601:/home/zkmike/.local/share/renesas/e2_studio/toolchains/gcc_arm/gcc-arm-none-eabi-6-2017-q2-update/arm-none-eabi/include/c++/6.3.1/bits/stl_vector.h ****       reverse_iterator
 602:/home/zkmike/.local/share/renesas/e2_studio/toolchains/gcc_arm/gcc-arm-none-eabi-6-2017-q2-update/arm-none-eabi/include/c++/6.3.1/bits/stl_vector.h ****       rend() _GLIBCXX_NOEXCEPT
 603:/home/zkmike/.local/share/renesas/e2_studio/toolchains/gcc_arm/gcc-arm-none-eabi-6-2017-q2-update/arm-none-eabi/include/c++/6.3.1/bits/stl_vector.h ****       { return reverse_iterator(begin()); }
 604:/home/zkmike/.local/share/renesas/e2_studio/toolchains/gcc_arm/gcc-arm-none-eabi-6-2017-q2-update/arm-none-eabi/include/c++/6.3.1/bits/stl_vector.h **** 
 605:/home/zkmike/.local/share/renesas/e2_studio/toolchains/gcc_arm/gcc-arm-none-eabi-6-2017-q2-update/arm-none-eabi/include/c++/6.3.1/bits/stl_vector.h ****       /**
 606:/home/zkmike/.local/share/renesas/e2_studio/toolchains/gcc_arm/gcc-arm-none-eabi-6-2017-q2-update/arm-none-eabi/include/c++/6.3.1/bits/stl_vector.h ****        *  Returns a read-only (constant) reverse iterator that points
 607:/home/zkmike/.local/share/renesas/e2_studio/toolchains/gcc_arm/gcc-arm-none-eabi-6-2017-q2-update/arm-none-eabi/include/c++/6.3.1/bits/stl_vector.h ****        *  to one before the first element in the %vector.  Iteration
 608:/home/zkmike/.local/share/renesas/e2_studio/toolchains/gcc_arm/gcc-arm-none-eabi-6-2017-q2-update/arm-none-eabi/include/c++/6.3.1/bits/stl_vector.h ****        *  is done in reverse element order.
 609:/home/zkmike/.local/share/renesas/e2_studio/toolchains/gcc_arm/gcc-arm-none-eabi-6-2017-q2-update/arm-none-eabi/include/c++/6.3.1/bits/stl_vector.h ****        */
 610:/home/zkmike/.local/share/renesas/e2_studio/toolchains/gcc_arm/gcc-arm-none-eabi-6-2017-q2-update/arm-none-eabi/include/c++/6.3.1/bits/stl_vector.h ****       const_reverse_iterator
 611:/home/zkmike/.local/share/renesas/e2_studio/toolchains/gcc_arm/gcc-arm-none-eabi-6-2017-q2-update/arm-none-eabi/include/c++/6.3.1/bits/stl_vector.h ****       rend() const _GLIBCXX_NOEXCEPT
 612:/home/zkmike/.local/share/renesas/e2_studio/toolchains/gcc_arm/gcc-arm-none-eabi-6-2017-q2-update/arm-none-eabi/include/c++/6.3.1/bits/stl_vector.h ****       { return const_reverse_iterator(begin()); }
 613:/home/zkmike/.local/share/renesas/e2_studio/toolchains/gcc_arm/gcc-arm-none-eabi-6-2017-q2-update/arm-none-eabi/include/c++/6.3.1/bits/stl_vector.h **** 
 614:/home/zkmike/.local/share/renesas/e2_studio/toolchains/gcc_arm/gcc-arm-none-eabi-6-2017-q2-update/arm-none-eabi/include/c++/6.3.1/bits/stl_vector.h **** #if __cplusplus >= 201103L
 615:/home/zkmike/.local/share/renesas/e2_studio/toolchains/gcc_arm/gcc-arm-none-eabi-6-2017-q2-update/arm-none-eabi/include/c++/6.3.1/bits/stl_vector.h ****       /**
 616:/home/zkmike/.local/share/renesas/e2_studio/toolchains/gcc_arm/gcc-arm-none-eabi-6-2017-q2-update/arm-none-eabi/include/c++/6.3.1/bits/stl_vector.h ****        *  Returns a read-only (constant) iterator that points to the
 617:/home/zkmike/.local/share/renesas/e2_studio/toolchains/gcc_arm/gcc-arm-none-eabi-6-2017-q2-update/arm-none-eabi/include/c++/6.3.1/bits/stl_vector.h ****        *  first element in the %vector.  Iteration is done in ordinary
 618:/home/zkmike/.local/share/renesas/e2_studio/toolchains/gcc_arm/gcc-arm-none-eabi-6-2017-q2-update/arm-none-eabi/include/c++/6.3.1/bits/stl_vector.h ****        *  element order.
 619:/home/zkmike/.local/share/renesas/e2_studio/toolchains/gcc_arm/gcc-arm-none-eabi-6-2017-q2-update/arm-none-eabi/include/c++/6.3.1/bits/stl_vector.h ****        */
 620:/home/zkmike/.local/share/renesas/e2_studio/toolchains/gcc_arm/gcc-arm-none-eabi-6-2017-q2-update/arm-none-eabi/include/c++/6.3.1/bits/stl_vector.h ****       const_iterator
 621:/home/zkmike/.local/share/renesas/e2_studio/toolchains/gcc_arm/gcc-arm-none-eabi-6-2017-q2-update/arm-none-eabi/include/c++/6.3.1/bits/stl_vector.h ****       cbegin() const noexcept
 622:/home/zkmike/.local/share/renesas/e2_studio/toolchains/gcc_arm/gcc-arm-none-eabi-6-2017-q2-update/arm-none-eabi/include/c++/6.3.1/bits/stl_vector.h ****       { return const_iterator(this->_M_impl._M_start); }
 623:/home/zkmike/.local/share/renesas/e2_studio/toolchains/gcc_arm/gcc-arm-none-eabi-6-2017-q2-update/arm-none-eabi/include/c++/6.3.1/bits/stl_vector.h **** 
 624:/home/zkmike/.local/share/renesas/e2_studio/toolchains/gcc_arm/gcc-arm-none-eabi-6-2017-q2-update/arm-none-eabi/include/c++/6.3.1/bits/stl_vector.h ****       /**
 625:/home/zkmike/.local/share/renesas/e2_studio/toolchains/gcc_arm/gcc-arm-none-eabi-6-2017-q2-update/arm-none-eabi/include/c++/6.3.1/bits/stl_vector.h ****        *  Returns a read-only (constant) iterator that points one past
 626:/home/zkmike/.local/share/renesas/e2_studio/toolchains/gcc_arm/gcc-arm-none-eabi-6-2017-q2-update/arm-none-eabi/include/c++/6.3.1/bits/stl_vector.h ****        *  the last element in the %vector.  Iteration is done in
 627:/home/zkmike/.local/share/renesas/e2_studio/toolchains/gcc_arm/gcc-arm-none-eabi-6-2017-q2-update/arm-none-eabi/include/c++/6.3.1/bits/stl_vector.h ****        *  ordinary element order.
 628:/home/zkmike/.local/share/renesas/e2_studio/toolchains/gcc_arm/gcc-arm-none-eabi-6-2017-q2-update/arm-none-eabi/include/c++/6.3.1/bits/stl_vector.h ****        */
 629:/home/zkmike/.local/share/renesas/e2_studio/toolchains/gcc_arm/gcc-arm-none-eabi-6-2017-q2-update/arm-none-eabi/include/c++/6.3.1/bits/stl_vector.h ****       const_iterator
 630:/home/zkmike/.local/share/renesas/e2_studio/toolchains/gcc_arm/gcc-arm-none-eabi-6-2017-q2-update/arm-none-eabi/include/c++/6.3.1/bits/stl_vector.h ****       cend() const noexcept
 631:/home/zkmike/.local/share/renesas/e2_studio/toolchains/gcc_arm/gcc-arm-none-eabi-6-2017-q2-update/arm-none-eabi/include/c++/6.3.1/bits/stl_vector.h ****       { return const_iterator(this->_M_impl._M_finish); }
 632:/home/zkmike/.local/share/renesas/e2_studio/toolchains/gcc_arm/gcc-arm-none-eabi-6-2017-q2-update/arm-none-eabi/include/c++/6.3.1/bits/stl_vector.h **** 
 633:/home/zkmike/.local/share/renesas/e2_studio/toolchains/gcc_arm/gcc-arm-none-eabi-6-2017-q2-update/arm-none-eabi/include/c++/6.3.1/bits/stl_vector.h ****       /**
 634:/home/zkmike/.local/share/renesas/e2_studio/toolchains/gcc_arm/gcc-arm-none-eabi-6-2017-q2-update/arm-none-eabi/include/c++/6.3.1/bits/stl_vector.h ****        *  Returns a read-only (constant) reverse iterator that points
 635:/home/zkmike/.local/share/renesas/e2_studio/toolchains/gcc_arm/gcc-arm-none-eabi-6-2017-q2-update/arm-none-eabi/include/c++/6.3.1/bits/stl_vector.h ****        *  to the last element in the %vector.  Iteration is done in
 636:/home/zkmike/.local/share/renesas/e2_studio/toolchains/gcc_arm/gcc-arm-none-eabi-6-2017-q2-update/arm-none-eabi/include/c++/6.3.1/bits/stl_vector.h ****        *  reverse element order.
 637:/home/zkmike/.local/share/renesas/e2_studio/toolchains/gcc_arm/gcc-arm-none-eabi-6-2017-q2-update/arm-none-eabi/include/c++/6.3.1/bits/stl_vector.h ****        */
 638:/home/zkmike/.local/share/renesas/e2_studio/toolchains/gcc_arm/gcc-arm-none-eabi-6-2017-q2-update/arm-none-eabi/include/c++/6.3.1/bits/stl_vector.h ****       const_reverse_iterator
 639:/home/zkmike/.local/share/renesas/e2_studio/toolchains/gcc_arm/gcc-arm-none-eabi-6-2017-q2-update/arm-none-eabi/include/c++/6.3.1/bits/stl_vector.h ****       crbegin() const noexcept
 640:/home/zkmike/.local/share/renesas/e2_studio/toolchains/gcc_arm/gcc-arm-none-eabi-6-2017-q2-update/arm-none-eabi/include/c++/6.3.1/bits/stl_vector.h ****       { return const_reverse_iterator(end()); }
 641:/home/zkmike/.local/share/renesas/e2_studio/toolchains/gcc_arm/gcc-arm-none-eabi-6-2017-q2-update/arm-none-eabi/include/c++/6.3.1/bits/stl_vector.h **** 
 642:/home/zkmike/.local/share/renesas/e2_studio/toolchains/gcc_arm/gcc-arm-none-eabi-6-2017-q2-update/arm-none-eabi/include/c++/6.3.1/bits/stl_vector.h ****       /**
 643:/home/zkmike/.local/share/renesas/e2_studio/toolchains/gcc_arm/gcc-arm-none-eabi-6-2017-q2-update/arm-none-eabi/include/c++/6.3.1/bits/stl_vector.h ****        *  Returns a read-only (constant) reverse iterator that points
 644:/home/zkmike/.local/share/renesas/e2_studio/toolchains/gcc_arm/gcc-arm-none-eabi-6-2017-q2-update/arm-none-eabi/include/c++/6.3.1/bits/stl_vector.h ****        *  to one before the first element in the %vector.  Iteration
 645:/home/zkmike/.local/share/renesas/e2_studio/toolchains/gcc_arm/gcc-arm-none-eabi-6-2017-q2-update/arm-none-eabi/include/c++/6.3.1/bits/stl_vector.h ****        *  is done in reverse element order.
 646:/home/zkmike/.local/share/renesas/e2_studio/toolchains/gcc_arm/gcc-arm-none-eabi-6-2017-q2-update/arm-none-eabi/include/c++/6.3.1/bits/stl_vector.h ****        */
 647:/home/zkmike/.local/share/renesas/e2_studio/toolchains/gcc_arm/gcc-arm-none-eabi-6-2017-q2-update/arm-none-eabi/include/c++/6.3.1/bits/stl_vector.h ****       const_reverse_iterator
 648:/home/zkmike/.local/share/renesas/e2_studio/toolchains/gcc_arm/gcc-arm-none-eabi-6-2017-q2-update/arm-none-eabi/include/c++/6.3.1/bits/stl_vector.h ****       crend() const noexcept
 649:/home/zkmike/.local/share/renesas/e2_studio/toolchains/gcc_arm/gcc-arm-none-eabi-6-2017-q2-update/arm-none-eabi/include/c++/6.3.1/bits/stl_vector.h ****       { return const_reverse_iterator(begin()); }
 650:/home/zkmike/.local/share/renesas/e2_studio/toolchains/gcc_arm/gcc-arm-none-eabi-6-2017-q2-update/arm-none-eabi/include/c++/6.3.1/bits/stl_vector.h **** #endif
 651:/home/zkmike/.local/share/renesas/e2_studio/toolchains/gcc_arm/gcc-arm-none-eabi-6-2017-q2-update/arm-none-eabi/include/c++/6.3.1/bits/stl_vector.h **** 
 652:/home/zkmike/.local/share/renesas/e2_studio/toolchains/gcc_arm/gcc-arm-none-eabi-6-2017-q2-update/arm-none-eabi/include/c++/6.3.1/bits/stl_vector.h ****       // [23.2.4.2] capacity
 653:/home/zkmike/.local/share/renesas/e2_studio/toolchains/gcc_arm/gcc-arm-none-eabi-6-2017-q2-update/arm-none-eabi/include/c++/6.3.1/bits/stl_vector.h ****       /**  Returns the number of elements in the %vector.  */
 654:/home/zkmike/.local/share/renesas/e2_studio/toolchains/gcc_arm/gcc-arm-none-eabi-6-2017-q2-update/arm-none-eabi/include/c++/6.3.1/bits/stl_vector.h ****       size_type
 655:/home/zkmike/.local/share/renesas/e2_studio/toolchains/gcc_arm/gcc-arm-none-eabi-6-2017-q2-update/arm-none-eabi/include/c++/6.3.1/bits/stl_vector.h ****       size() const _GLIBCXX_NOEXCEPT
 656:/home/zkmike/.local/share/renesas/e2_studio/toolchains/gcc_arm/gcc-arm-none-eabi-6-2017-q2-update/arm-none-eabi/include/c++/6.3.1/bits/stl_vector.h ****       { return size_type(this->_M_impl._M_finish - this->_M_impl._M_start); }
 1009              		.loc 8 656 0 discriminator 1
 1010 0114 0C3092E5 		ldr	r3, [r2, #12]
 1011 0118 082092E5 		ldr	r2, [r2, #8]
 1012 011c 023043E0 		sub	r3, r3, r2
 1013              	.LBE816:
 1014              	.LBE815:
 1015              	.LBE814:
  51:../src/zxing_lib/zxing/pdf417/PDF417Reader.cpp ****         rpcb->foundPossibleResultPoint(*points[i]);
 1016              		.loc 5 51 0 discriminator 1
 1017 0120 430154E1 		cmp	r4, r3, asr #2
 1018 0124 050000AA 		bge	.L68
 1019              	.LVL88:
 1020              	.LBB817:
 1021              	.LBB818:
 112:/home/zkmike/workspace/RZA2M/rza2m_2d_barcode_sample_freertos_gcc/src/zxing_lib/zxing/common/Counted.h ****   }
 1022              		.loc 3 112 0
 1023 0128 0C009DE5 		ldr	r0, [sp, #12]
 1024              	.LVL89:
 1025              	.LBE818:
 1026              	.LBE817:
  52:../src/zxing_lib/zxing/pdf417/PDF417Reader.cpp ****       }
 1027              		.loc 5 52 0
 1028 012c 003090E5 		ldr	r3, [r0]
 1029 0130 083093E5 		ldr	r3, [r3, #8]
 1030 0134 041192E7 		ldr	r1, [r2, r4, lsl #2]
 1031              	.LEHB6:
 1032 0138 33FF2FE1 		blx	r3
 1033              	.LVL90:
 1034              	.LEHE6:
 1035 013c F2FFFFEA 		b	.L120
 1036              	.LVL91:
 1037              	.L68:
 1038              	.LBE811:
 1039              	.LBE807:
 1040              	.LBB819:
 1041              	.LBB820:
  75:/home/zkmike/workspace/RZA2M/rza2m_2d_barcode_sample_freertos_gcc/src/zxing_lib/zxing/common/Counted.h ****       object_->release();
 1042              		.loc 3 75 0 discriminator 1
 1043 0140 0C009DE5 		ldr	r0, [sp, #12]
 1044 0144 000050E3 		cmp	r0, #0
 1045 0148 0400000A 		beq	.L67
 1046              	.LVL92:
 1047              	.LBB821:
 1048              	.LBB822:
  40:/home/zkmike/workspace/RZA2M/rza2m_2d_barcode_sample_freertos_gcc/src/zxing_lib/zxing/common/Counted.h ****     if (count_ == 0) {
 1049              		.loc 3 40 0
 1050 014c 043090E5 		ldr	r3, [r0, #4]
 1051 0150 013043E2 		sub	r3, r3, #1
 1052 0154 043080E5 		str	r3, [r0, #4]
  41:/home/zkmike/workspace/RZA2M/rza2m_2d_barcode_sample_freertos_gcc/src/zxing_lib/zxing/common/Counted.h ****       count_ = 0xDEADF001;
 1053              		.loc 3 41 0
 1054 0158 000053E3 		cmp	r3, #0
 1055 015c 0400000A 		beq	.L121
 1056              	.LVL93:
 1057              	.L67:
 1058              	.LBE822:
 1059              	.LBE821:
 1060              	.LBE820:
 1061              	.LBE819:
 1062              	.LBE806:
 1063              	.LBE803:
  56:../src/zxing_lib/zxing/pdf417/PDF417Reader.cpp ****   /*
 1064              		.loc 5 56 0
 1065 0160 087087E2 		add	r7, r7, #8
 1066              	.LVL94:
 1067 0164 1C109DE5 		ldr	r1, [sp, #28]
 1068 0168 30008DE2 		add	r0, sp, #48
 1069              	.LEHB7:
 1070 016c FEFFFFEB 		bl	_ZN5zxing14DetectorResult7getBitsEv
 1071              	.LVL95:
 1072              	.LEHE7:
 1073 0170 060000EA 		b	.L122
 1074              	.LVL96:
 1075              	.L121:
 1076              	.LBB833:
 1077              	.LBB831:
 1078              	.LBB826:
 1079              	.LBB825:
 1080              	.LBB824:
 1081              	.LBB823:
  42:/home/zkmike/workspace/RZA2M/rza2m_2d_barcode_sample_freertos_gcc/src/zxing_lib/zxing/common/Counted.h ****       delete this;
 1082              		.loc 3 42 0
 1083 0174 01300FE3 		movw	r3, #61441
 1084 0178 AD3E4DE3 		movt	r3, 57005
 1085 017c 043080E5 		str	r3, [r0, #4]
  43:/home/zkmike/workspace/RZA2M/rza2m_2d_barcode_sample_freertos_gcc/src/zxing_lib/zxing/common/Counted.h ****     }
 1086              		.loc 3 43 0
 1087 0180 003090E5 		ldr	r3, [r0]
 1088 0184 043093E5 		ldr	r3, [r3, #4]
 1089 0188 33FF2FE1 		blx	r3
 1090              	.LVL97:
 1091 018c F3FFFFEA 		b	.L67
 1092              	.LVL98:
 1093              	.L122:
 1094              	.LBE823:
 1095              	.LBE824:
 1096              	.LBE825:
 1097              	.LBE826:
 1098              	.LBE831:
 1099              	.LBE833:
  56:../src/zxing_lib/zxing/pdf417/PDF417Reader.cpp ****   /*
 1100              		.loc 5 56 0 discriminator 1
 1101 0190 0630A0E1 		mov	r3, r6
 1102 0194 30208DE2 		add	r2, sp, #48
 1103 0198 0710A0E1 		mov	r1, r7
 1104 019c 2C008DE2 		add	r0, sp, #44
 1105              	.LEHB8:
 1106 01a0 FEFFFFEB 		bl	_ZN5zxing6pdf4177decoder7Decoder6decodeENS_3RefINS_9BitMatrixEEERKNS_11DecodeHintsE
 1107              	.LVL99:
 1108              	.LEHE8:
 1109              	.LBB834:
 1110              	.LBB835:
  90:/home/zkmike/workspace/RZA2M/rza2m_2d_barcode_sample_freertos_gcc/src/zxing_lib/zxing/common/Counted.h ****     return *this;
 1111              		.loc 3 90 0
 1112 01a4 2C409DE5 		ldr	r4, [sp, #44]
 1113              	.LVL100:
 1114              	.LBB836:
 1115              	.LBB837:
  81:/home/zkmike/workspace/RZA2M/rza2m_2d_barcode_sample_freertos_gcc/src/zxing_lib/zxing/common/Counted.h ****       o->retain();
 1116              		.loc 3 81 0
 1117 01a8 000054E3 		cmp	r4, #0
 1118              	.LVL101:
 1119              	.LBB838:
 1120              	.LBB839:
  36:/home/zkmike/workspace/RZA2M/rza2m_2d_barcode_sample_freertos_gcc/src/zxing_lib/zxing/common/Counted.h ****     return this;
 1121              		.loc 3 36 0
 1122 01ac 04309415 		ldrne	r3, [r4, #4]
 1123 01b0 01308312 		addne	r3, r3, #1
 1124 01b4 04308415 		strne	r3, [r4, #4]
 1125              	.LVL102:
 1126              	.L71:
 1127              	.LBE839:
 1128              	.LBE838:
  84:/home/zkmike/workspace/RZA2M/rza2m_2d_barcode_sample_freertos_gcc/src/zxing_lib/zxing/common/Counted.h ****       object_->release();
 1129              		.loc 3 84 0
 1130 01b8 24009DE5 		ldr	r0, [sp, #36]
 1131 01bc 000050E3 		cmp	r0, #0
 1132 01c0 0400000A 		beq	.L72
 1133              	.LVL103:
 1134              	.LBB840:
 1135              	.LBB841:
  40:/home/zkmike/workspace/RZA2M/rza2m_2d_barcode_sample_freertos_gcc/src/zxing_lib/zxing/common/Counted.h ****     if (count_ == 0) {
 1136              		.loc 3 40 0
 1137 01c4 043090E5 		ldr	r3, [r0, #4]
 1138 01c8 013043E2 		sub	r3, r3, #1
 1139 01cc 043080E5 		str	r3, [r0, #4]
  41:/home/zkmike/workspace/RZA2M/rza2m_2d_barcode_sample_freertos_gcc/src/zxing_lib/zxing/common/Counted.h ****       count_ = 0xDEADF001;
 1140              		.loc 3 41 0
 1141 01d0 000053E3 		cmp	r3, #0
 1142 01d4 1400000A 		beq	.L123
 1143              	.LVL104:
 1144              	.L72:
 1145              	.LBE841:
 1146              	.LBE840:
  87:/home/zkmike/workspace/RZA2M/rza2m_2d_barcode_sample_freertos_gcc/src/zxing_lib/zxing/common/Counted.h ****   }
 1147              		.loc 3 87 0
 1148 01d8 24408DE5 		str	r4, [sp, #36]
 1149              	.LVL105:
 1150              	.LBE837:
 1151              	.LBE836:
 1152              	.LBE835:
 1153              	.LBE834:
 1154              	.LBB847:
 1155              	.LBB848:
  75:/home/zkmike/workspace/RZA2M/rza2m_2d_barcode_sample_freertos_gcc/src/zxing_lib/zxing/common/Counted.h ****       object_->release();
 1156              		.loc 3 75 0
 1157 01dc 2C009DE5 		ldr	r0, [sp, #44]
 1158 01e0 000050E3 		cmp	r0, #0
 1159 01e4 0400000A 		beq	.L73
 1160              	.LVL106:
 1161              	.LBB849:
 1162              	.LBB850:
  40:/home/zkmike/workspace/RZA2M/rza2m_2d_barcode_sample_freertos_gcc/src/zxing_lib/zxing/common/Counted.h ****     if (count_ == 0) {
 1163              		.loc 3 40 0
 1164 01e8 043090E5 		ldr	r3, [r0, #4]
 1165 01ec 013043E2 		sub	r3, r3, #1
 1166 01f0 043080E5 		str	r3, [r0, #4]
  41:/home/zkmike/workspace/RZA2M/rza2m_2d_barcode_sample_freertos_gcc/src/zxing_lib/zxing/common/Counted.h ****       count_ = 0xDEADF001;
 1167              		.loc 3 41 0
 1168 01f4 000053E3 		cmp	r3, #0
 1169 01f8 1200000A 		beq	.L124
 1170              	.LVL107:
 1171              	.L73:
 1172              	.LBE850:
 1173              	.LBE849:
 1174              	.LBE848:
 1175              	.LBE847:
 1176              	.LBB854:
 1177              	.LBB855:
  75:/home/zkmike/workspace/RZA2M/rza2m_2d_barcode_sample_freertos_gcc/src/zxing_lib/zxing/common/Counted.h ****       object_->release();
 1178              		.loc 3 75 0
 1179 01fc 30009DE5 		ldr	r0, [sp, #48]
 1180 0200 000050E3 		cmp	r0, #0
 1181 0204 0400000A 		beq	.L74
 1182              	.LVL108:
 1183              	.LBB856:
 1184              	.LBB857:
  40:/home/zkmike/workspace/RZA2M/rza2m_2d_barcode_sample_freertos_gcc/src/zxing_lib/zxing/common/Counted.h ****     if (count_ == 0) {
 1185              		.loc 3 40 0
 1186 0208 043090E5 		ldr	r3, [r0, #4]
 1187 020c 013043E2 		sub	r3, r3, #1
 1188 0210 043080E5 		str	r3, [r0, #4]
  41:/home/zkmike/workspace/RZA2M/rza2m_2d_barcode_sample_freertos_gcc/src/zxing_lib/zxing/common/Counted.h ****       count_ = 0xDEADF001;
 1189              		.loc 3 41 0
 1190 0214 000053E3 		cmp	r3, #0
 1191 0218 1100000A 		beq	.L125
 1192              	.LVL109:
 1193              	.L74:
 1194              	.LBE857:
 1195              	.LBE856:
 1196              	.LBE855:
 1197              	.LBE854:
  60:../src/zxing_lib/zxing/pdf417/PDF417Reader.cpp ****                            BarcodeFormat::PDF_417));
 1198              		.loc 5 60 0
 1199 021c 24109DE5 		ldr	r1, [sp, #36]
 1200 0220 34008DE2 		add	r0, sp, #52
 1201              	.LEHB9:
 1202 0224 FEFFFFEB 		bl	_ZN5zxing13DecoderResult7getTextEv
 1203              	.LVL110:
 1204              	.LEHE9:
 1205 0228 140000EA 		b	.L126
 1206              	.LVL111:
 1207              	.L123:
 1208              	.LBB861:
 1209              	.LBB846:
 1210              	.LBB845:
 1211              	.LBB844:
 1212              	.LBB843:
 1213              	.LBB842:
  42:/home/zkmike/workspace/RZA2M/rza2m_2d_barcode_sample_freertos_gcc/src/zxing_lib/zxing/common/Counted.h ****       delete this;
 1214              		.loc 3 42 0
 1215 022c 01300FE3 		movw	r3, #61441
 1216 0230 AD3E4DE3 		movt	r3, 57005
 1217 0234 043080E5 		str	r3, [r0, #4]
  43:/home/zkmike/workspace/RZA2M/rza2m_2d_barcode_sample_freertos_gcc/src/zxing_lib/zxing/common/Counted.h ****     }
 1218              		.loc 3 43 0
 1219 0238 003090E5 		ldr	r3, [r0]
 1220 023c 043093E5 		ldr	r3, [r3, #4]
 1221 0240 33FF2FE1 		blx	r3
 1222              	.LVL112:
 1223 0244 E3FFFFEA 		b	.L72
 1224              	.LVL113:
 1225              	.L124:
 1226              	.LBE842:
 1227              	.LBE843:
 1228              	.LBE844:
 1229              	.LBE845:
 1230              	.LBE846:
 1231              	.LBE861:
 1232              	.LBB862:
 1233              	.LBB853:
 1234              	.LBB852:
 1235              	.LBB851:
  42:/home/zkmike/workspace/RZA2M/rza2m_2d_barcode_sample_freertos_gcc/src/zxing_lib/zxing/common/Counted.h ****       delete this;
 1236              		.loc 3 42 0
 1237 0248 01300FE3 		movw	r3, #61441
 1238 024c AD3E4DE3 		movt	r3, 57005
 1239 0250 043080E5 		str	r3, [r0, #4]
  43:/home/zkmike/workspace/RZA2M/rza2m_2d_barcode_sample_freertos_gcc/src/zxing_lib/zxing/common/Counted.h ****     }
 1240              		.loc 3 43 0
 1241 0254 003090E5 		ldr	r3, [r0]
 1242 0258 043093E5 		ldr	r3, [r3, #4]
 1243 025c 33FF2FE1 		blx	r3
 1244              	.LVL114:
 1245 0260 E5FFFFEA 		b	.L73
 1246              	.LVL115:
 1247              	.L125:
 1248              	.LBE851:
 1249              	.LBE852:
 1250              	.LBE853:
 1251              	.LBE862:
 1252              	.LBB863:
 1253              	.LBB860:
 1254              	.LBB859:
 1255              	.LBB858:
  42:/home/zkmike/workspace/RZA2M/rza2m_2d_barcode_sample_freertos_gcc/src/zxing_lib/zxing/common/Counted.h ****       delete this;
 1256              		.loc 3 42 0
 1257 0264 01300FE3 		movw	r3, #61441
 1258 0268 AD3E4DE3 		movt	r3, 57005
 1259 026c 043080E5 		str	r3, [r0, #4]
  43:/home/zkmike/workspace/RZA2M/rza2m_2d_barcode_sample_freertos_gcc/src/zxing_lib/zxing/common/Counted.h ****     }
 1260              		.loc 3 43 0
 1261 0270 003090E5 		ldr	r3, [r0]
 1262 0274 043093E5 		ldr	r3, [r3, #4]
 1263 0278 33FF2FE1 		blx	r3
 1264              	.LVL116:
 1265 027c E6FFFFEA 		b	.L74
 1266              	.LVL117:
 1267              	.L126:
 1268              	.LBE858:
 1269              	.LBE859:
 1270              	.LBE860:
 1271              	.LBE863:
  60:../src/zxing_lib/zxing/pdf417/PDF417Reader.cpp ****                            BarcodeFormat::PDF_417));
 1272              		.loc 5 60 0 discriminator 1
 1273 0280 24109DE5 		ldr	r1, [sp, #36]
 1274 0284 38008DE2 		add	r0, sp, #56
 1275              	.LEHB10:
 1276 0288 FEFFFFEB 		bl	_ZN5zxing13DecoderResult11getRawBytesEv
 1277              	.LVL118:
 1278              	.LEHE10:
 1279              	.LBB864:
 1280              	.LBB865:
 1281              	.LBB866:
 1282              	.LBB867:
 1283              	.LBB868:
 1284              	.LBB869:
  31:/home/zkmike/workspace/RZA2M/rza2m_2d_barcode_sample_freertos_gcc/src/zxing_lib/zxing/common/Counted.h ****   }
 1285              		.loc 3 31 0
 1286 028c 0030A0E3 		mov	r3, #0
 1287 0290 48308DE5 		str	r3, [sp, #72]
 1288              	.LVL119:
 1289              	.LBE869:
 1290              	.LBE868:
 1291              	.LBE867:
 106:/home/zkmike/workspace/RZA2M/rza2m_2d_barcode_sample_freertos_gcc/src/zxing_lib/zxing/common/Array.h ****     reset(other.array_);
 1292              		.loc 2 106 0
 1293 0294 18259FE5 		ldr	r2, .L137
 1294 0298 44208DE5 		str	r2, [sp, #68]
 1295 029c 4C308DE5 		str	r3, [sp, #76]
 107:/home/zkmike/workspace/RZA2M/rza2m_2d_barcode_sample_freertos_gcc/src/zxing_lib/zxing/common/Array.h ****   }
 1296              		.loc 2 107 0
 1297 02a0 18409DE5 		ldr	r4, [sp, #24]
 1298              	.LVL120:
 1299              	.LBB870:
 1300              	.LBB871:
 132:/home/zkmike/workspace/RZA2M/rza2m_2d_barcode_sample_freertos_gcc/src/zxing_lib/zxing/common/Array.h ****       a->retain();
 1301              		.loc 2 132 0
 1302 02a4 030054E1 		cmp	r4, r3
 1303              	.LVL121:
 1304              	.LBB872:
 1305              	.LBB873:
  36:/home/zkmike/workspace/RZA2M/rza2m_2d_barcode_sample_freertos_gcc/src/zxing_lib/zxing/common/Counted.h ****     return this;
 1306              		.loc 3 36 0
 1307 02a8 04309415 		ldrne	r3, [r4, #4]
 1308 02ac 01308312 		addne	r3, r3, #1
 1309 02b0 04308415 		strne	r3, [r4, #4]
 1310              	.LVL122:
 1311              	.L75:
 1312              	.LBE873:
 1313              	.LBE872:
 135:/home/zkmike/workspace/RZA2M/rza2m_2d_barcode_sample_freertos_gcc/src/zxing_lib/zxing/common/Array.h ****       array_->release();
 1314              		.loc 2 135 0
 1315 02b4 4C009DE5 		ldr	r0, [sp, #76]
 1316 02b8 000050E3 		cmp	r0, #0
 1317 02bc 0400000A 		beq	.L76
 1318              	.LVL123:
 1319              	.LBB874:
 1320              	.LBB875:
  40:/home/zkmike/workspace/RZA2M/rza2m_2d_barcode_sample_freertos_gcc/src/zxing_lib/zxing/common/Counted.h ****     if (count_ == 0) {
 1321              		.loc 3 40 0
 1322 02c0 043090E5 		ldr	r3, [r0, #4]
 1323 02c4 013043E2 		sub	r3, r3, #1
 1324 02c8 043080E5 		str	r3, [r0, #4]
  41:/home/zkmike/workspace/RZA2M/rza2m_2d_barcode_sample_freertos_gcc/src/zxing_lib/zxing/common/Counted.h ****       count_ = 0xDEADF001;
 1325              		.loc 3 41 0
 1326 02cc 000053E3 		cmp	r3, #0
 1327 02d0 0300000A 		beq	.L127
 1328              	.LVL124:
 1329              	.L76:
 1330              	.LBE875:
 1331              	.LBE874:
 138:/home/zkmike/workspace/RZA2M/rza2m_2d_barcode_sample_freertos_gcc/src/zxing_lib/zxing/common/Array.h ****   }
 1332              		.loc 2 138 0
 1333 02d4 4C408DE5 		str	r4, [sp, #76]
 1334              	.LVL125:
 1335              	.LBE871:
 1336              	.LBE870:
 1337              	.LBE866:
 1338              	.LBE865:
 1339              	.LBE864:
  61:../src/zxing_lib/zxing/pdf417/PDF417Reader.cpp ****   return r;
 1340              		.loc 5 61 0
 1341 02d8 2800A0E3 		mov	r0, #40
 1342              	.LEHB11:
 1343 02dc FEFFFFEB 		bl	_Znwj
 1344              	.LVL126:
 1345              	.LEHE11:
 1346 02e0 060000EA 		b	.L128
 1347              	.LVL127:
 1348              	.L127:
 1349              	.LBB882:
 1350              	.LBB881:
 1351              	.LBB880:
 1352              	.LBB879:
 1353              	.LBB878:
 1354              	.LBB877:
 1355              	.LBB876:
  42:/home/zkmike/workspace/RZA2M/rza2m_2d_barcode_sample_freertos_gcc/src/zxing_lib/zxing/common/Counted.h ****       delete this;
 1356              		.loc 3 42 0
 1357 02e4 01300FE3 		movw	r3, #61441
 1358 02e8 AD3E4DE3 		movt	r3, 57005
 1359 02ec 043080E5 		str	r3, [r0, #4]
  43:/home/zkmike/workspace/RZA2M/rza2m_2d_barcode_sample_freertos_gcc/src/zxing_lib/zxing/common/Counted.h ****     }
 1360              		.loc 3 43 0
 1361 02f0 003090E5 		ldr	r3, [r0]
 1362 02f4 043093E5 		ldr	r3, [r3, #4]
 1363 02f8 33FF2FE1 		blx	r3
 1364              	.LVL128:
 1365 02fc F4FFFFEA 		b	.L76
 1366              	.LVL129:
 1367              	.L128:
 1368              	.LBE876:
 1369              	.LBE877:
 1370              	.LBE878:
 1371              	.LBE879:
 1372              	.LBE880:
 1373              	.LBE881:
 1374              	.LBE882:
  61:../src/zxing_lib/zxing/pdf417/PDF417Reader.cpp ****   return r;
 1375              		.loc 5 61 0
 1376 0300 0040A0E1 		mov	r4, r0
 1377 0304 0B30A0E3 		mov	r3, #11
 1378 0308 0030CDE5 		strb	r3, [sp]
 1379 030c 44308DE2 		add	r3, sp, #68
 1380 0310 38208DE2 		add	r2, sp, #56
 1381 0314 34108DE2 		add	r1, sp, #52
 1382              	.LEHB12:
 1383 0318 FEFFFFEB 		bl	_ZN5zxing6ResultC1ENS_3RefINS_6StringEEENS_8ArrayRefIcEENS4_INS1_INS_11ResultPointEEEEENS_13Bar
 1384              	.LVL130:
 1385              	.LEHE12:
 1386              	.LBB883:
 1387              	.LBB884:
  60:/home/zkmike/workspace/RZA2M/rza2m_2d_barcode_sample_freertos_gcc/src/zxing_lib/zxing/common/Counted.h ****     reset(o);
 1388              		.loc 3 60 0
 1389 031c 0030A0E3 		mov	r3, #0
 1390 0320 003085E5 		str	r3, [r5]
 1391              	.LVL131:
 1392              	.LBB885:
 1393              	.LBB886:
  81:/home/zkmike/workspace/RZA2M/rza2m_2d_barcode_sample_freertos_gcc/src/zxing_lib/zxing/common/Counted.h ****       o->retain();
 1394              		.loc 3 81 0
 1395 0324 030054E1 		cmp	r4, r3
 1396              	.LVL132:
 1397              	.LBB887:
 1398              	.LBB888:
  36:/home/zkmike/workspace/RZA2M/rza2m_2d_barcode_sample_freertos_gcc/src/zxing_lib/zxing/common/Counted.h ****     return this;
 1399              		.loc 3 36 0
 1400 0328 04309415 		ldrne	r3, [r4, #4]
 1401 032c 01308312 		addne	r3, r3, #1
 1402 0330 04308415 		strne	r3, [r4, #4]
 1403              	.LVL133:
 1404              	.L77:
 1405              	.LBE888:
 1406              	.LBE887:
  84:/home/zkmike/workspace/RZA2M/rza2m_2d_barcode_sample_freertos_gcc/src/zxing_lib/zxing/common/Counted.h ****       object_->release();
 1407              		.loc 3 84 0
 1408 0334 000095E5 		ldr	r0, [r5]
 1409 0338 000050E3 		cmp	r0, #0
 1410 033c 0400000A 		beq	.L78
 1411              	.LVL134:
 1412              	.LBB889:
 1413              	.LBB890:
  40:/home/zkmike/workspace/RZA2M/rza2m_2d_barcode_sample_freertos_gcc/src/zxing_lib/zxing/common/Counted.h ****     if (count_ == 0) {
 1414              		.loc 3 40 0
 1415 0340 043090E5 		ldr	r3, [r0, #4]
 1416 0344 013043E2 		sub	r3, r3, #1
 1417 0348 043080E5 		str	r3, [r0, #4]
  41:/home/zkmike/workspace/RZA2M/rza2m_2d_barcode_sample_freertos_gcc/src/zxing_lib/zxing/common/Counted.h ****       count_ = 0xDEADF001;
 1418              		.loc 3 41 0
 1419 034c 000053E3 		cmp	r3, #0
 1420 0350 4100000A 		beq	.L129
 1421              	.LVL135:
 1422              	.L78:
 1423              	.LBE890:
 1424              	.LBE889:
  87:/home/zkmike/workspace/RZA2M/rza2m_2d_barcode_sample_freertos_gcc/src/zxing_lib/zxing/common/Counted.h ****   }
 1425              		.loc 3 87 0
 1426 0354 004085E5 		str	r4, [r5]
 1427              	.LVL136:
 1428              	.LBE886:
 1429              	.LBE885:
 1430              	.LBE884:
 1431              	.LBE883:
 1432              	.LBB896:
 1433              	.LBB897:
 121:/home/zkmike/workspace/RZA2M/rza2m_2d_barcode_sample_freertos_gcc/src/zxing_lib/zxing/common/Array.h **** 
 1434              		.loc 2 121 0
 1435 0358 54349FE5 		ldr	r3, .L137
 1436 035c 44308DE5 		str	r3, [sp, #68]
 117:/home/zkmike/workspace/RZA2M/rza2m_2d_barcode_sample_freertos_gcc/src/zxing_lib/zxing/common/Array.h ****       array_->release();
 1437              		.loc 2 117 0
 1438 0360 4C009DE5 		ldr	r0, [sp, #76]
 1439 0364 000050E3 		cmp	r0, #0
 1440 0368 0400000A 		beq	.L79
 1441              	.LVL137:
 1442              	.LBB898:
 1443              	.LBB899:
  40:/home/zkmike/workspace/RZA2M/rza2m_2d_barcode_sample_freertos_gcc/src/zxing_lib/zxing/common/Counted.h ****     if (count_ == 0) {
 1444              		.loc 3 40 0
 1445 036c 043090E5 		ldr	r3, [r0, #4]
 1446 0370 013043E2 		sub	r3, r3, #1
 1447 0374 043080E5 		str	r3, [r0, #4]
  41:/home/zkmike/workspace/RZA2M/rza2m_2d_barcode_sample_freertos_gcc/src/zxing_lib/zxing/common/Counted.h ****       count_ = 0xDEADF001;
 1448              		.loc 3 41 0
 1449 0378 000053E3 		cmp	r3, #0
 1450 037c 3D00000A 		beq	.L130
 1451              	.LVL138:
 1452              	.L79:
 1453              	.LBE899:
 1454              	.LBE898:
 1455              	.LBE897:
 1456              	.LBE896:
 1457              	.LBB903:
 1458              	.LBB904:
 121:/home/zkmike/workspace/RZA2M/rza2m_2d_barcode_sample_freertos_gcc/src/zxing_lib/zxing/common/Array.h **** 
 1459              		.loc 2 121 0
 1460 0380 30349FE5 		ldr	r3, .L137+4
 1461 0384 38308DE5 		str	r3, [sp, #56]
 117:/home/zkmike/workspace/RZA2M/rza2m_2d_barcode_sample_freertos_gcc/src/zxing_lib/zxing/common/Array.h ****       array_->release();
 1462              		.loc 2 117 0
 1463 0388 40009DE5 		ldr	r0, [sp, #64]
 1464 038c 000050E3 		cmp	r0, #0
 1465 0390 0400000A 		beq	.L80
 1466              	.LVL139:
 1467              	.LBB905:
 1468              	.LBB906:
  40:/home/zkmike/workspace/RZA2M/rza2m_2d_barcode_sample_freertos_gcc/src/zxing_lib/zxing/common/Counted.h ****     if (count_ == 0) {
 1469              		.loc 3 40 0
 1470 0394 043090E5 		ldr	r3, [r0, #4]
 1471 0398 013043E2 		sub	r3, r3, #1
 1472 039c 043080E5 		str	r3, [r0, #4]
  41:/home/zkmike/workspace/RZA2M/rza2m_2d_barcode_sample_freertos_gcc/src/zxing_lib/zxing/common/Counted.h ****       count_ = 0xDEADF001;
 1473              		.loc 3 41 0
 1474 03a0 000053E3 		cmp	r3, #0
 1475 03a4 3A00000A 		beq	.L131
 1476              	.LVL140:
 1477              	.L80:
 1478              	.LBE906:
 1479              	.LBE905:
 1480              	.LBE904:
 1481              	.LBE903:
 1482              	.LBB910:
 1483              	.LBB911:
  75:/home/zkmike/workspace/RZA2M/rza2m_2d_barcode_sample_freertos_gcc/src/zxing_lib/zxing/common/Counted.h ****       object_->release();
 1484              		.loc 3 75 0
 1485 03a8 34009DE5 		ldr	r0, [sp, #52]
 1486 03ac 000050E3 		cmp	r0, #0
 1487 03b0 0400000A 		beq	.L81
 1488              	.LVL141:
 1489              	.LBB912:
 1490              	.LBB913:
  40:/home/zkmike/workspace/RZA2M/rza2m_2d_barcode_sample_freertos_gcc/src/zxing_lib/zxing/common/Counted.h ****     if (count_ == 0) {
 1491              		.loc 3 40 0
 1492 03b4 043090E5 		ldr	r3, [r0, #4]
 1493 03b8 013043E2 		sub	r3, r3, #1
 1494 03bc 043080E5 		str	r3, [r0, #4]
  41:/home/zkmike/workspace/RZA2M/rza2m_2d_barcode_sample_freertos_gcc/src/zxing_lib/zxing/common/Counted.h ****       count_ = 0xDEADF001;
 1495              		.loc 3 41 0
 1496 03c0 000053E3 		cmp	r3, #0
 1497 03c4 3900000A 		beq	.L132
 1498              	.LVL142:
 1499              	.L81:
 1500              	.LBE913:
 1501              	.LBE912:
 1502              	.LBE911:
 1503              	.LBE910:
 1504              	.LBB917:
 1505              	.LBB918:
 121:/home/zkmike/workspace/RZA2M/rza2m_2d_barcode_sample_freertos_gcc/src/zxing_lib/zxing/common/Array.h **** 
 1506              		.loc 2 121 0
 1507 03c8 E4339FE5 		ldr	r3, .L137
 1508 03cc 10308DE5 		str	r3, [sp, #16]
 117:/home/zkmike/workspace/RZA2M/rza2m_2d_barcode_sample_freertos_gcc/src/zxing_lib/zxing/common/Array.h ****       array_->release();
 1509              		.loc 2 117 0
 1510 03d0 18009DE5 		ldr	r0, [sp, #24]
 1511 03d4 000050E3 		cmp	r0, #0
 1512 03d8 0400000A 		beq	.L82
 1513              	.LVL143:
 1514              	.LBB919:
 1515              	.LBB920:
  40:/home/zkmike/workspace/RZA2M/rza2m_2d_barcode_sample_freertos_gcc/src/zxing_lib/zxing/common/Counted.h ****     if (count_ == 0) {
 1516              		.loc 3 40 0
 1517 03dc 043090E5 		ldr	r3, [r0, #4]
 1518 03e0 013043E2 		sub	r3, r3, #1
 1519 03e4 043080E5 		str	r3, [r0, #4]
  41:/home/zkmike/workspace/RZA2M/rza2m_2d_barcode_sample_freertos_gcc/src/zxing_lib/zxing/common/Counted.h ****       count_ = 0xDEADF001;
 1520              		.loc 3 41 0
 1521 03e8 000053E3 		cmp	r3, #0
 1522 03ec 3600000A 		beq	.L133
 1523              	.LVL144:
 1524              	.L82:
 1525              	.LBE920:
 1526              	.LBE919:
 1527              	.LBE918:
 1528              	.LBE917:
 1529              	.LBB924:
 1530              	.LBB925:
  75:/home/zkmike/workspace/RZA2M/rza2m_2d_barcode_sample_freertos_gcc/src/zxing_lib/zxing/common/Counted.h ****       object_->release();
 1531              		.loc 3 75 0
 1532 03f0 1C009DE5 		ldr	r0, [sp, #28]
 1533 03f4 000050E3 		cmp	r0, #0
 1534 03f8 0400000A 		beq	.L83
 1535              	.LVL145:
 1536              	.LBB926:
 1537              	.LBB927:
  40:/home/zkmike/workspace/RZA2M/rza2m_2d_barcode_sample_freertos_gcc/src/zxing_lib/zxing/common/Counted.h ****     if (count_ == 0) {
 1538              		.loc 3 40 0
 1539 03fc 043090E5 		ldr	r3, [r0, #4]
 1540 0400 013043E2 		sub	r3, r3, #1
 1541 0404 043080E5 		str	r3, [r0, #4]
  41:/home/zkmike/workspace/RZA2M/rza2m_2d_barcode_sample_freertos_gcc/src/zxing_lib/zxing/common/Counted.h ****       count_ = 0xDEADF001;
 1542              		.loc 3 41 0
 1543 0408 000053E3 		cmp	r3, #0
 1544 040c 3500000A 		beq	.L134
 1545              	.LVL146:
 1546              	.L83:
 1547              	.LBE927:
 1548              	.LBE926:
 1549              	.LBE925:
 1550              	.LBE924:
 1551              	.LBB931:
 1552              	.LBB932:
 1553              	.LBB933:
 1554              	.LBB934:
  75:/home/zkmike/workspace/RZA2M/rza2m_2d_barcode_sample_freertos_gcc/src/zxing_lib/zxing/common/Counted.h ****       object_->release();
 1555              		.loc 3 75 0
 1556 0410 20009DE5 		ldr	r0, [sp, #32]
 1557 0414 000050E3 		cmp	r0, #0
 1558 0418 0400000A 		beq	.L84
 1559              	.LVL147:
 1560              	.LBB935:
 1561              	.LBB936:
  40:/home/zkmike/workspace/RZA2M/rza2m_2d_barcode_sample_freertos_gcc/src/zxing_lib/zxing/common/Counted.h ****     if (count_ == 0) {
 1562              		.loc 3 40 0
 1563 041c 043090E5 		ldr	r3, [r0, #4]
 1564 0420 013043E2 		sub	r3, r3, #1
 1565 0424 043080E5 		str	r3, [r0, #4]
  41:/home/zkmike/workspace/RZA2M/rza2m_2d_barcode_sample_freertos_gcc/src/zxing_lib/zxing/common/Counted.h ****       count_ = 0xDEADF001;
 1566              		.loc 3 41 0
 1567 0428 000053E3 		cmp	r3, #0
 1568 042c 3400000A 		beq	.L135
 1569              	.LVL148:
 1570              	.L84:
 1571              	.LBE936:
 1572              	.LBE935:
 1573              	.LBE934:
 1574              	.LBE933:
 1575              	.LBE932:
 1576              	.LBE931:
 1577              	.LBB942:
 1578              	.LBB943:
  75:/home/zkmike/workspace/RZA2M/rza2m_2d_barcode_sample_freertos_gcc/src/zxing_lib/zxing/common/Counted.h ****       object_->release();
 1579              		.loc 3 75 0
 1580 0430 24009DE5 		ldr	r0, [sp, #36]
 1581 0434 000050E3 		cmp	r0, #0
 1582 0438 0400000A 		beq	.L62
 1583              	.LVL149:
 1584              	.LBB944:
 1585              	.LBB945:
  40:/home/zkmike/workspace/RZA2M/rza2m_2d_barcode_sample_freertos_gcc/src/zxing_lib/zxing/common/Counted.h ****     if (count_ == 0) {
 1586              		.loc 3 40 0
 1587 043c 043090E5 		ldr	r3, [r0, #4]
 1588 0440 013043E2 		sub	r3, r3, #1
 1589 0444 043080E5 		str	r3, [r0, #4]
  41:/home/zkmike/workspace/RZA2M/rza2m_2d_barcode_sample_freertos_gcc/src/zxing_lib/zxing/common/Counted.h ****       count_ = 0xDEADF001;
 1590              		.loc 3 41 0
 1591 0448 000053E3 		cmp	r3, #0
 1592 044c 3300000A 		beq	.L136
 1593              	.LVL150:
 1594              	.L62:
 1595              	.LBE945:
 1596              	.LBE944:
 1597              	.LBE943:
 1598              	.LBE942:
  63:../src/zxing_lib/zxing/pdf417/PDF417Reader.cpp **** 
 1599              		.loc 5 63 0
 1600 0450 0500A0E1 		mov	r0, r5
 1601 0454 54D08DE2 		add	sp, sp, #84
 1602              		.cfi_remember_state
 1603              		.cfi_def_cfa_offset 20
 1604              		@ sp needed
 1605 0458 F080BDE8 		pop	{r4, r5, r6, r7, pc}
 1606              	.LVL151:
 1607              	.L129:
 1608              		.cfi_restore_state
 1609              	.LBB949:
 1610              	.LBB895:
 1611              	.LBB894:
 1612              	.LBB893:
 1613              	.LBB892:
 1614              	.LBB891:
  42:/home/zkmike/workspace/RZA2M/rza2m_2d_barcode_sample_freertos_gcc/src/zxing_lib/zxing/common/Counted.h ****       delete this;
 1615              		.loc 3 42 0
 1616 045c 01300FE3 		movw	r3, #61441
 1617 0460 AD3E4DE3 		movt	r3, 57005
 1618 0464 043080E5 		str	r3, [r0, #4]
  43:/home/zkmike/workspace/RZA2M/rza2m_2d_barcode_sample_freertos_gcc/src/zxing_lib/zxing/common/Counted.h ****     }
 1619              		.loc 3 43 0
 1620 0468 003090E5 		ldr	r3, [r0]
 1621 046c 043093E5 		ldr	r3, [r3, #4]
 1622 0470 33FF2FE1 		blx	r3
 1623              	.LVL152:
 1624 0474 B6FFFFEA 		b	.L78
 1625              	.LVL153:
 1626              	.L130:
 1627              	.LBE891:
 1628              	.LBE892:
 1629              	.LBE893:
 1630              	.LBE894:
 1631              	.LBE895:
 1632              	.LBE949:
 1633              	.LBB950:
 1634              	.LBB902:
 1635              	.LBB901:
 1636              	.LBB900:
  42:/home/zkmike/workspace/RZA2M/rza2m_2d_barcode_sample_freertos_gcc/src/zxing_lib/zxing/common/Counted.h ****       delete this;
 1637              		.loc 3 42 0
 1638 0478 01300FE3 		movw	r3, #61441
 1639 047c AD3E4DE3 		movt	r3, 57005
 1640 0480 043080E5 		str	r3, [r0, #4]
  43:/home/zkmike/workspace/RZA2M/rza2m_2d_barcode_sample_freertos_gcc/src/zxing_lib/zxing/common/Counted.h ****     }
 1641              		.loc 3 43 0
 1642 0484 003090E5 		ldr	r3, [r0]
 1643 0488 043093E5 		ldr	r3, [r3, #4]
 1644 048c 33FF2FE1 		blx	r3
 1645              	.LVL154:
 1646 0490 BAFFFFEA 		b	.L79
 1647              	.LVL155:
 1648              	.L131:
 1649              	.LBE900:
 1650              	.LBE901:
 1651              	.LBE902:
 1652              	.LBE950:
 1653              	.LBB951:
 1654              	.LBB909:
 1655              	.LBB908:
 1656              	.LBB907:
  42:/home/zkmike/workspace/RZA2M/rza2m_2d_barcode_sample_freertos_gcc/src/zxing_lib/zxing/common/Counted.h ****       delete this;
 1657              		.loc 3 42 0
 1658 0494 01300FE3 		movw	r3, #61441
 1659 0498 AD3E4DE3 		movt	r3, 57005
 1660 049c 043080E5 		str	r3, [r0, #4]
  43:/home/zkmike/workspace/RZA2M/rza2m_2d_barcode_sample_freertos_gcc/src/zxing_lib/zxing/common/Counted.h ****     }
 1661              		.loc 3 43 0
 1662 04a0 003090E5 		ldr	r3, [r0]
 1663 04a4 043093E5 		ldr	r3, [r3, #4]
 1664 04a8 33FF2FE1 		blx	r3
 1665              	.LVL156:
 1666 04ac BDFFFFEA 		b	.L80
 1667              	.LVL157:
 1668              	.L132:
 1669              	.LBE907:
 1670              	.LBE908:
 1671              	.LBE909:
 1672              	.LBE951:
 1673              	.LBB952:
 1674              	.LBB916:
 1675              	.LBB915:
 1676              	.LBB914:
  42:/home/zkmike/workspace/RZA2M/rza2m_2d_barcode_sample_freertos_gcc/src/zxing_lib/zxing/common/Counted.h ****       delete this;
 1677              		.loc 3 42 0
 1678 04b0 01300FE3 		movw	r3, #61441
 1679 04b4 AD3E4DE3 		movt	r3, 57005
 1680 04b8 043080E5 		str	r3, [r0, #4]
  43:/home/zkmike/workspace/RZA2M/rza2m_2d_barcode_sample_freertos_gcc/src/zxing_lib/zxing/common/Counted.h ****     }
 1681              		.loc 3 43 0
 1682 04bc 003090E5 		ldr	r3, [r0]
 1683 04c0 043093E5 		ldr	r3, [r3, #4]
 1684 04c4 33FF2FE1 		blx	r3
 1685              	.LVL158:
 1686 04c8 BEFFFFEA 		b	.L81
 1687              	.LVL159:
 1688              	.L133:
 1689              	.LBE914:
 1690              	.LBE915:
 1691              	.LBE916:
 1692              	.LBE952:
 1693              	.LBB953:
 1694              	.LBB923:
 1695              	.LBB922:
 1696              	.LBB921:
  42:/home/zkmike/workspace/RZA2M/rza2m_2d_barcode_sample_freertos_gcc/src/zxing_lib/zxing/common/Counted.h ****       delete this;
 1697              		.loc 3 42 0
 1698 04cc 01300FE3 		movw	r3, #61441
 1699 04d0 AD3E4DE3 		movt	r3, 57005
 1700 04d4 043080E5 		str	r3, [r0, #4]
  43:/home/zkmike/workspace/RZA2M/rza2m_2d_barcode_sample_freertos_gcc/src/zxing_lib/zxing/common/Counted.h ****     }
 1701              		.loc 3 43 0
 1702 04d8 003090E5 		ldr	r3, [r0]
 1703 04dc 043093E5 		ldr	r3, [r3, #4]
 1704 04e0 33FF2FE1 		blx	r3
 1705              	.LVL160:
 1706 04e4 C1FFFFEA 		b	.L82
 1707              	.LVL161:
 1708              	.L134:
 1709              	.LBE921:
 1710              	.LBE922:
 1711              	.LBE923:
 1712              	.LBE953:
 1713              	.LBB954:
 1714              	.LBB930:
 1715              	.LBB929:
 1716              	.LBB928:
  42:/home/zkmike/workspace/RZA2M/rza2m_2d_barcode_sample_freertos_gcc/src/zxing_lib/zxing/common/Counted.h ****       delete this;
 1717              		.loc 3 42 0
 1718 04e8 01300FE3 		movw	r3, #61441
 1719 04ec AD3E4DE3 		movt	r3, 57005
 1720 04f0 043080E5 		str	r3, [r0, #4]
  43:/home/zkmike/workspace/RZA2M/rza2m_2d_barcode_sample_freertos_gcc/src/zxing_lib/zxing/common/Counted.h ****     }
 1721              		.loc 3 43 0
 1722 04f4 003090E5 		ldr	r3, [r0]
 1723 04f8 043093E5 		ldr	r3, [r3, #4]
 1724 04fc 33FF2FE1 		blx	r3
 1725              	.LVL162:
 1726 0500 C2FFFFEA 		b	.L83
 1727              	.LVL163:
 1728              	.L135:
 1729              	.LBE928:
 1730              	.LBE929:
 1731              	.LBE930:
 1732              	.LBE954:
 1733              	.LBB955:
 1734              	.LBB941:
 1735              	.LBB940:
 1736              	.LBB939:
 1737              	.LBB938:
 1738              	.LBB937:
  42:/home/zkmike/workspace/RZA2M/rza2m_2d_barcode_sample_freertos_gcc/src/zxing_lib/zxing/common/Counted.h ****       delete this;
 1739              		.loc 3 42 0
 1740 0504 01300FE3 		movw	r3, #61441
 1741 0508 AD3E4DE3 		movt	r3, 57005
 1742 050c 043080E5 		str	r3, [r0, #4]
  43:/home/zkmike/workspace/RZA2M/rza2m_2d_barcode_sample_freertos_gcc/src/zxing_lib/zxing/common/Counted.h ****     }
 1743              		.loc 3 43 0
 1744 0510 003090E5 		ldr	r3, [r0]
 1745 0514 043093E5 		ldr	r3, [r3, #4]
 1746 0518 33FF2FE1 		blx	r3
 1747              	.LVL164:
 1748 051c C3FFFFEA 		b	.L84
 1749              	.LVL165:
 1750              	.L136:
 1751              	.LBE937:
 1752              	.LBE938:
 1753              	.LBE939:
 1754              	.LBE940:
 1755              	.LBE941:
 1756              	.LBE955:
 1757              	.LBB956:
 1758              	.LBB948:
 1759              	.LBB947:
 1760              	.LBB946:
  42:/home/zkmike/workspace/RZA2M/rza2m_2d_barcode_sample_freertos_gcc/src/zxing_lib/zxing/common/Counted.h ****       delete this;
 1761              		.loc 3 42 0
 1762 0520 01300FE3 		movw	r3, #61441
 1763 0524 AD3E4DE3 		movt	r3, 57005
 1764 0528 043080E5 		str	r3, [r0, #4]
  43:/home/zkmike/workspace/RZA2M/rza2m_2d_barcode_sample_freertos_gcc/src/zxing_lib/zxing/common/Counted.h ****     }
 1765              		.loc 3 43 0
 1766 052c 003090E5 		ldr	r3, [r0]
 1767 0530 043093E5 		ldr	r3, [r3, #4]
 1768 0534 33FF2FE1 		blx	r3
 1769              	.LVL166:
 1770              	.LBE946:
 1771              	.LBE947:
 1772              	.LBE948:
 1773              	.LBE956:
  62:../src/zxing_lib/zxing/pdf417/PDF417Reader.cpp **** }
 1774              		.loc 5 62 0
 1775 0538 C4FFFFEA 		b	.L62
 1776              	.LVL167:
 1777              	.L106:
 1778              	.LBB957:
 1779              	.LBB958:
  75:/home/zkmike/workspace/RZA2M/rza2m_2d_barcode_sample_freertos_gcc/src/zxing_lib/zxing/common/Counted.h ****       object_->release();
 1780              		.loc 3 75 0
 1781 053c 28009DE5 		ldr	r0, [sp, #40]
 1782 0540 000050E3 		cmp	r0, #0
 1783 0544 0A00000A 		beq	.L88
 1784              	.LVL168:
 1785              	.LBB959:
 1786              	.LBB960:
  40:/home/zkmike/workspace/RZA2M/rza2m_2d_barcode_sample_freertos_gcc/src/zxing_lib/zxing/common/Counted.h ****     if (count_ == 0) {
 1787              		.loc 3 40 0
 1788 0548 043090E5 		ldr	r3, [r0, #4]
 1789 054c 013043E2 		sub	r3, r3, #1
 1790 0550 043080E5 		str	r3, [r0, #4]
  41:/home/zkmike/workspace/RZA2M/rza2m_2d_barcode_sample_freertos_gcc/src/zxing_lib/zxing/common/Counted.h ****       count_ = 0xDEADF001;
 1791              		.loc 3 41 0
 1792 0554 000053E3 		cmp	r3, #0
 1793 0558 0500001A 		bne	.L88
  42:/home/zkmike/workspace/RZA2M/rza2m_2d_barcode_sample_freertos_gcc/src/zxing_lib/zxing/common/Counted.h ****       delete this;
 1794              		.loc 3 42 0
 1795 055c 01300FE3 		movw	r3, #61441
 1796 0560 AD3E4DE3 		movt	r3, 57005
 1797 0564 043080E5 		str	r3, [r0, #4]
  43:/home/zkmike/workspace/RZA2M/rza2m_2d_barcode_sample_freertos_gcc/src/zxing_lib/zxing/common/Counted.h ****     }
 1798              		.loc 3 43 0
 1799 0568 003090E5 		ldr	r3, [r0]
 1800 056c 043093E5 		ldr	r3, [r3, #4]
 1801 0570 33FF2FE1 		blx	r3
 1802              	.LVL169:
 1803              	.L88:
 1804              	.LBE960:
 1805              	.LBE959:
 1806              	.LBE958:
 1807              	.LBE957:
 1808              	.LBB961:
 1809              	.LBB962:
  75:/home/zkmike/workspace/RZA2M/rza2m_2d_barcode_sample_freertos_gcc/src/zxing_lib/zxing/common/Counted.h ****       object_->release();
 1810              		.loc 3 75 0
 1811 0574 24009DE5 		ldr	r0, [sp, #36]
 1812 0578 000050E3 		cmp	r0, #0
 1813 057c 0A00000A 		beq	.L105
 1814              	.LVL170:
 1815              	.LBB963:
 1816              	.LBB964:
  40:/home/zkmike/workspace/RZA2M/rza2m_2d_barcode_sample_freertos_gcc/src/zxing_lib/zxing/common/Counted.h ****     if (count_ == 0) {
 1817              		.loc 3 40 0
 1818 0580 043090E5 		ldr	r3, [r0, #4]
 1819 0584 013043E2 		sub	r3, r3, #1
 1820 0588 043080E5 		str	r3, [r0, #4]
  41:/home/zkmike/workspace/RZA2M/rza2m_2d_barcode_sample_freertos_gcc/src/zxing_lib/zxing/common/Counted.h ****       count_ = 0xDEADF001;
 1821              		.loc 3 41 0
 1822 058c 000053E3 		cmp	r3, #0
 1823 0590 0500001A 		bne	.L105
  42:/home/zkmike/workspace/RZA2M/rza2m_2d_barcode_sample_freertos_gcc/src/zxing_lib/zxing/common/Counted.h ****       delete this;
 1824              		.loc 3 42 0
 1825 0594 01300FE3 		movw	r3, #61441
 1826 0598 AD3E4DE3 		movt	r3, 57005
 1827 059c 043080E5 		str	r3, [r0, #4]
  43:/home/zkmike/workspace/RZA2M/rza2m_2d_barcode_sample_freertos_gcc/src/zxing_lib/zxing/common/Counted.h ****     }
 1828              		.loc 3 43 0
 1829 05a0 003090E5 		ldr	r3, [r0]
 1830 05a4 043093E5 		ldr	r3, [r3, #4]
 1831 05a8 33FF2FE1 		blx	r3
 1832              	.LVL171:
 1833              	.L105:
 1834              	.LEHB13:
 1835 05ac FEFFFFEB 		bl	__cxa_end_cleanup
 1836              	.LVL172:
 1837              	.LEHE13:
 1838              	.L109:
 1839              	.LBE964:
 1840              	.LBE963:
 1841              	.LBE962:
 1842              	.LBE961:
 1843              	.LBB965:
 1844              	.LBB832:
 1845              	.LBB827:
 1846              	.LBB828:
  75:/home/zkmike/workspace/RZA2M/rza2m_2d_barcode_sample_freertos_gcc/src/zxing_lib/zxing/common/Counted.h ****       object_->release();
 1847              		.loc 3 75 0
 1848 05b0 0C009DE5 		ldr	r0, [sp, #12]
 1849 05b4 000050E3 		cmp	r0, #0
 1850 05b8 0A00000A 		beq	.L91
 1851              	.LVL173:
 1852              	.LBB829:
 1853              	.LBB830:
  40:/home/zkmike/workspace/RZA2M/rza2m_2d_barcode_sample_freertos_gcc/src/zxing_lib/zxing/common/Counted.h ****     if (count_ == 0) {
 1854              		.loc 3 40 0
 1855 05bc 043090E5 		ldr	r3, [r0, #4]
 1856 05c0 013043E2 		sub	r3, r3, #1
 1857 05c4 043080E5 		str	r3, [r0, #4]
  41:/home/zkmike/workspace/RZA2M/rza2m_2d_barcode_sample_freertos_gcc/src/zxing_lib/zxing/common/Counted.h ****       count_ = 0xDEADF001;
 1858              		.loc 3 41 0
 1859 05c8 000053E3 		cmp	r3, #0
 1860 05cc 0500001A 		bne	.L91
  42:/home/zkmike/workspace/RZA2M/rza2m_2d_barcode_sample_freertos_gcc/src/zxing_lib/zxing/common/Counted.h ****       delete this;
 1861              		.loc 3 42 0
 1862 05d0 01300FE3 		movw	r3, #61441
 1863 05d4 AD3E4DE3 		movt	r3, 57005
 1864 05d8 043080E5 		str	r3, [r0, #4]
  43:/home/zkmike/workspace/RZA2M/rza2m_2d_barcode_sample_freertos_gcc/src/zxing_lib/zxing/common/Counted.h ****     }
 1865              		.loc 3 43 0
 1866 05dc 003090E5 		ldr	r3, [r0]
 1867 05e0 043093E5 		ldr	r3, [r3, #4]
 1868 05e4 33FF2FE1 		blx	r3
 1869              	.LVL174:
 1870              	.L91:
 1871              	.LBE830:
 1872              	.LBE829:
 1873              	.LBE828:
 1874              	.LBE827:
 1875              	.LBE832:
 1876              	.LBE965:
 1877              	.LBB966:
 1878              	.LBB967:
 121:/home/zkmike/workspace/RZA2M/rza2m_2d_barcode_sample_freertos_gcc/src/zxing_lib/zxing/common/Array.h **** 
 1879              		.loc 2 121 0
 1880 05e8 C4319FE5 		ldr	r3, .L137
 1881 05ec 10308DE5 		str	r3, [sp, #16]
 117:/home/zkmike/workspace/RZA2M/rza2m_2d_barcode_sample_freertos_gcc/src/zxing_lib/zxing/common/Array.h ****       array_->release();
 1882              		.loc 2 117 0
 1883 05f0 18009DE5 		ldr	r0, [sp, #24]
 1884 05f4 000050E3 		cmp	r0, #0
 1885 05f8 0A00000A 		beq	.L101
 1886              	.LVL175:
 1887              	.LBB968:
 1888              	.LBB969:
  40:/home/zkmike/workspace/RZA2M/rza2m_2d_barcode_sample_freertos_gcc/src/zxing_lib/zxing/common/Counted.h ****     if (count_ == 0) {
 1889              		.loc 3 40 0
 1890 05fc 043090E5 		ldr	r3, [r0, #4]
 1891 0600 013043E2 		sub	r3, r3, #1
 1892 0604 043080E5 		str	r3, [r0, #4]
  41:/home/zkmike/workspace/RZA2M/rza2m_2d_barcode_sample_freertos_gcc/src/zxing_lib/zxing/common/Counted.h ****       count_ = 0xDEADF001;
 1893              		.loc 3 41 0
 1894 0608 000053E3 		cmp	r3, #0
 1895 060c 0500001A 		bne	.L101
  42:/home/zkmike/workspace/RZA2M/rza2m_2d_barcode_sample_freertos_gcc/src/zxing_lib/zxing/common/Counted.h ****       delete this;
 1896              		.loc 3 42 0
 1897 0610 01300FE3 		movw	r3, #61441
 1898 0614 AD3E4DE3 		movt	r3, 57005
 1899 0618 043080E5 		str	r3, [r0, #4]
  43:/home/zkmike/workspace/RZA2M/rza2m_2d_barcode_sample_freertos_gcc/src/zxing_lib/zxing/common/Counted.h ****     }
 1900              		.loc 3 43 0
 1901 061c 003090E5 		ldr	r3, [r0]
 1902 0620 043093E5 		ldr	r3, [r3, #4]
 1903 0624 33FF2FE1 		blx	r3
 1904              	.LVL176:
 1905              	.L101:
 1906              	.LBE969:
 1907              	.LBE968:
 1908              	.LBE967:
 1909              	.LBE966:
 1910              	.LBB970:
 1911              	.LBB971:
  75:/home/zkmike/workspace/RZA2M/rza2m_2d_barcode_sample_freertos_gcc/src/zxing_lib/zxing/common/Counted.h ****       object_->release();
 1912              		.loc 3 75 0
 1913 0628 1C009DE5 		ldr	r0, [sp, #28]
 1914 062c 000050E3 		cmp	r0, #0
 1915 0630 0A00000A 		beq	.L103
 1916              	.LVL177:
 1917              	.LBB972:
 1918              	.LBB973:
  40:/home/zkmike/workspace/RZA2M/rza2m_2d_barcode_sample_freertos_gcc/src/zxing_lib/zxing/common/Counted.h ****     if (count_ == 0) {
 1919              		.loc 3 40 0
 1920 0634 043090E5 		ldr	r3, [r0, #4]
 1921 0638 013043E2 		sub	r3, r3, #1
 1922 063c 043080E5 		str	r3, [r0, #4]
  41:/home/zkmike/workspace/RZA2M/rza2m_2d_barcode_sample_freertos_gcc/src/zxing_lib/zxing/common/Counted.h ****       count_ = 0xDEADF001;
 1923              		.loc 3 41 0
 1924 0640 000053E3 		cmp	r3, #0
 1925 0644 0500001A 		bne	.L103
  42:/home/zkmike/workspace/RZA2M/rza2m_2d_barcode_sample_freertos_gcc/src/zxing_lib/zxing/common/Counted.h ****       delete this;
 1926              		.loc 3 42 0
 1927 0648 01300FE3 		movw	r3, #61441
 1928 064c AD3E4DE3 		movt	r3, 57005
 1929 0650 043080E5 		str	r3, [r0, #4]
  43:/home/zkmike/workspace/RZA2M/rza2m_2d_barcode_sample_freertos_gcc/src/zxing_lib/zxing/common/Counted.h ****     }
 1930              		.loc 3 43 0
 1931 0654 003090E5 		ldr	r3, [r0]
 1932 0658 043093E5 		ldr	r3, [r3, #4]
 1933 065c 33FF2FE1 		blx	r3
 1934              	.LVL178:
 1935              	.L103:
 1936              	.LBE973:
 1937              	.LBE972:
 1938              	.LBE971:
 1939              	.LBE970:
 1940              	.LBB974:
 1941              	.LBB975:
 1942              	.LBB976:
 1943              	.LBB977:
  75:/home/zkmike/workspace/RZA2M/rza2m_2d_barcode_sample_freertos_gcc/src/zxing_lib/zxing/common/Counted.h ****       object_->release();
 1944              		.loc 3 75 0
 1945 0660 20009DE5 		ldr	r0, [sp, #32]
 1946 0664 000050E3 		cmp	r0, #0
 1947 0668 C1FFFF0A 		beq	.L88
 1948              	.LVL179:
 1949              	.LBB978:
 1950              	.LBB979:
  40:/home/zkmike/workspace/RZA2M/rza2m_2d_barcode_sample_freertos_gcc/src/zxing_lib/zxing/common/Counted.h ****     if (count_ == 0) {
 1951              		.loc 3 40 0
 1952 066c 043090E5 		ldr	r3, [r0, #4]
 1953 0670 013043E2 		sub	r3, r3, #1
 1954 0674 043080E5 		str	r3, [r0, #4]
  41:/home/zkmike/workspace/RZA2M/rza2m_2d_barcode_sample_freertos_gcc/src/zxing_lib/zxing/common/Counted.h ****       count_ = 0xDEADF001;
 1955              		.loc 3 41 0
 1956 0678 000053E3 		cmp	r3, #0
 1957 067c BCFFFF1A 		bne	.L88
  42:/home/zkmike/workspace/RZA2M/rza2m_2d_barcode_sample_freertos_gcc/src/zxing_lib/zxing/common/Counted.h ****       delete this;
 1958              		.loc 3 42 0
 1959 0680 01300FE3 		movw	r3, #61441
 1960 0684 AD3E4DE3 		movt	r3, 57005
 1961 0688 043080E5 		str	r3, [r0, #4]
  43:/home/zkmike/workspace/RZA2M/rza2m_2d_barcode_sample_freertos_gcc/src/zxing_lib/zxing/common/Counted.h ****     }
 1962              		.loc 3 43 0
 1963 068c 003090E5 		ldr	r3, [r0]
 1964 0690 043093E5 		ldr	r3, [r3, #4]
 1965 0694 33FF2FE1 		blx	r3
 1966              	.LVL180:
 1967 0698 B5FFFFEA 		b	.L88
 1968              	.LVL181:
 1969              	.L111:
 1970              	.LBE979:
 1971              	.LBE978:
 1972              	.LBE977:
 1973              	.LBE976:
 1974              	.LBE975:
 1975              	.LBE974:
 1976              	.LBB980:
 1977              	.LBB981:
  75:/home/zkmike/workspace/RZA2M/rza2m_2d_barcode_sample_freertos_gcc/src/zxing_lib/zxing/common/Counted.h ****       object_->release();
 1978              		.loc 3 75 0
 1979 069c 30009DE5 		ldr	r0, [sp, #48]
 1980 06a0 000050E3 		cmp	r0, #0
 1981 06a4 CFFFFF0A 		beq	.L91
 1982              	.LVL182:
 1983              	.LBB982:
 1984              	.LBB983:
  40:/home/zkmike/workspace/RZA2M/rza2m_2d_barcode_sample_freertos_gcc/src/zxing_lib/zxing/common/Counted.h ****     if (count_ == 0) {
 1985              		.loc 3 40 0
 1986 06a8 043090E5 		ldr	r3, [r0, #4]
 1987 06ac 013043E2 		sub	r3, r3, #1
 1988 06b0 043080E5 		str	r3, [r0, #4]
  41:/home/zkmike/workspace/RZA2M/rza2m_2d_barcode_sample_freertos_gcc/src/zxing_lib/zxing/common/Counted.h ****       count_ = 0xDEADF001;
 1989              		.loc 3 41 0
 1990 06b4 000053E3 		cmp	r3, #0
 1991 06b8 CAFFFF1A 		bne	.L91
  42:/home/zkmike/workspace/RZA2M/rza2m_2d_barcode_sample_freertos_gcc/src/zxing_lib/zxing/common/Counted.h ****       delete this;
 1992              		.loc 3 42 0
 1993 06bc 01300FE3 		movw	r3, #61441
 1994 06c0 AD3E4DE3 		movt	r3, 57005
 1995 06c4 043080E5 		str	r3, [r0, #4]
  43:/home/zkmike/workspace/RZA2M/rza2m_2d_barcode_sample_freertos_gcc/src/zxing_lib/zxing/common/Counted.h ****     }
 1996              		.loc 3 43 0
 1997 06c8 003090E5 		ldr	r3, [r0]
 1998 06cc 043093E5 		ldr	r3, [r3, #4]
 1999 06d0 33FF2FE1 		blx	r3
 2000              	.LVL183:
 2001 06d4 C3FFFFEA 		b	.L91
 2002              	.L114:
 2003              	.LBE983:
 2004              	.LBE982:
 2005              	.LBE981:
 2006              	.LBE980:
  61:../src/zxing_lib/zxing/pdf417/PDF417Reader.cpp ****   return r;
 2007              		.loc 5 61 0
 2008 06d8 2810A0E3 		mov	r1, #40
 2009 06dc 0400A0E1 		mov	r0, r4
 2010 06e0 FEFFFFEB 		bl	_ZdlPvj
 2011              	.LVL184:
 2012              	.L95:
 2013              	.LBB984:
 2014              	.LBB985:
 121:/home/zkmike/workspace/RZA2M/rza2m_2d_barcode_sample_freertos_gcc/src/zxing_lib/zxing/common/Array.h **** 
 2015              		.loc 2 121 0 discriminator 2
 2016 06e4 C8309FE5 		ldr	r3, .L137
 2017 06e8 44308DE5 		str	r3, [sp, #68]
 117:/home/zkmike/workspace/RZA2M/rza2m_2d_barcode_sample_freertos_gcc/src/zxing_lib/zxing/common/Array.h ****       array_->release();
 2018              		.loc 2 117 0 discriminator 2
 2019 06ec 4C009DE5 		ldr	r0, [sp, #76]
 2020 06f0 000050E3 		cmp	r0, #0
 2021 06f4 0A00000A 		beq	.L96
 2022              	.LVL185:
 2023              	.LBB986:
 2024              	.LBB987:
  40:/home/zkmike/workspace/RZA2M/rza2m_2d_barcode_sample_freertos_gcc/src/zxing_lib/zxing/common/Counted.h ****     if (count_ == 0) {
 2025              		.loc 3 40 0
 2026 06f8 043090E5 		ldr	r3, [r0, #4]
 2027 06fc 013043E2 		sub	r3, r3, #1
 2028 0700 043080E5 		str	r3, [r0, #4]
  41:/home/zkmike/workspace/RZA2M/rza2m_2d_barcode_sample_freertos_gcc/src/zxing_lib/zxing/common/Counted.h ****       count_ = 0xDEADF001;
 2029              		.loc 3 41 0
 2030 0704 000053E3 		cmp	r3, #0
 2031 0708 0500001A 		bne	.L96
  42:/home/zkmike/workspace/RZA2M/rza2m_2d_barcode_sample_freertos_gcc/src/zxing_lib/zxing/common/Counted.h ****       delete this;
 2032              		.loc 3 42 0
 2033 070c 01300FE3 		movw	r3, #61441
 2034 0710 AD3E4DE3 		movt	r3, 57005
 2035 0714 043080E5 		str	r3, [r0, #4]
  43:/home/zkmike/workspace/RZA2M/rza2m_2d_barcode_sample_freertos_gcc/src/zxing_lib/zxing/common/Counted.h ****     }
 2036              		.loc 3 43 0
 2037 0718 003090E5 		ldr	r3, [r0]
 2038 071c 043093E5 		ldr	r3, [r3, #4]
 2039 0720 33FF2FE1 		blx	r3
 2040              	.LVL186:
 2041              	.L96:
 2042              	.LBE987:
 2043              	.LBE986:
 2044              	.LBE985:
 2045              	.LBE984:
 2046              	.LBB988:
 2047              	.LBB989:
 121:/home/zkmike/workspace/RZA2M/rza2m_2d_barcode_sample_freertos_gcc/src/zxing_lib/zxing/common/Array.h **** 
 2048              		.loc 2 121 0
 2049 0724 8C309FE5 		ldr	r3, .L137+4
 2050 0728 38308DE5 		str	r3, [sp, #56]
 117:/home/zkmike/workspace/RZA2M/rza2m_2d_barcode_sample_freertos_gcc/src/zxing_lib/zxing/common/Array.h ****       array_->release();
 2051              		.loc 2 117 0
 2052 072c 40009DE5 		ldr	r0, [sp, #64]
 2053 0730 000050E3 		cmp	r0, #0
 2054 0734 0A00000A 		beq	.L98
 2055              	.LVL187:
 2056              	.LBB990:
 2057              	.LBB991:
  40:/home/zkmike/workspace/RZA2M/rza2m_2d_barcode_sample_freertos_gcc/src/zxing_lib/zxing/common/Counted.h ****     if (count_ == 0) {
 2058              		.loc 3 40 0
 2059 0738 043090E5 		ldr	r3, [r0, #4]
 2060 073c 013043E2 		sub	r3, r3, #1
 2061 0740 043080E5 		str	r3, [r0, #4]
  41:/home/zkmike/workspace/RZA2M/rza2m_2d_barcode_sample_freertos_gcc/src/zxing_lib/zxing/common/Counted.h ****       count_ = 0xDEADF001;
 2062              		.loc 3 41 0
 2063 0744 000053E3 		cmp	r3, #0
 2064 0748 0500001A 		bne	.L98
  42:/home/zkmike/workspace/RZA2M/rza2m_2d_barcode_sample_freertos_gcc/src/zxing_lib/zxing/common/Counted.h ****       delete this;
 2065              		.loc 3 42 0
 2066 074c 01300FE3 		movw	r3, #61441
 2067 0750 AD3E4DE3 		movt	r3, 57005
 2068 0754 043080E5 		str	r3, [r0, #4]
  43:/home/zkmike/workspace/RZA2M/rza2m_2d_barcode_sample_freertos_gcc/src/zxing_lib/zxing/common/Counted.h ****     }
 2069              		.loc 3 43 0
 2070 0758 003090E5 		ldr	r3, [r0]
 2071 075c 043093E5 		ldr	r3, [r3, #4]
 2072 0760 33FF2FE1 		blx	r3
 2073              	.LVL188:
 2074              	.L98:
 2075              	.LBE991:
 2076              	.LBE990:
 2077              	.LBE989:
 2078              	.LBE988:
 2079              	.LBB992:
 2080              	.LBB993:
  75:/home/zkmike/workspace/RZA2M/rza2m_2d_barcode_sample_freertos_gcc/src/zxing_lib/zxing/common/Counted.h ****       object_->release();
 2081              		.loc 3 75 0
 2082 0764 34009DE5 		ldr	r0, [sp, #52]
 2083 0768 000050E3 		cmp	r0, #0
 2084 076c 9DFFFF0A 		beq	.L91
 2085              	.LVL189:
 2086              	.LBB994:
 2087              	.LBB995:
  40:/home/zkmike/workspace/RZA2M/rza2m_2d_barcode_sample_freertos_gcc/src/zxing_lib/zxing/common/Counted.h ****     if (count_ == 0) {
 2088              		.loc 3 40 0
 2089 0770 043090E5 		ldr	r3, [r0, #4]
 2090 0774 013043E2 		sub	r3, r3, #1
 2091 0778 043080E5 		str	r3, [r0, #4]
  41:/home/zkmike/workspace/RZA2M/rza2m_2d_barcode_sample_freertos_gcc/src/zxing_lib/zxing/common/Counted.h ****       count_ = 0xDEADF001;
 2092              		.loc 3 41 0
 2093 077c 000053E3 		cmp	r3, #0
 2094 0780 98FFFF1A 		bne	.L91
  42:/home/zkmike/workspace/RZA2M/rza2m_2d_barcode_sample_freertos_gcc/src/zxing_lib/zxing/common/Counted.h ****       delete this;
 2095              		.loc 3 42 0
 2096 0784 01300FE3 		movw	r3, #61441
 2097 0788 AD3E4DE3 		movt	r3, 57005
 2098 078c 043080E5 		str	r3, [r0, #4]
  43:/home/zkmike/workspace/RZA2M/rza2m_2d_barcode_sample_freertos_gcc/src/zxing_lib/zxing/common/Counted.h ****     }
 2099              		.loc 3 43 0
 2100 0790 003090E5 		ldr	r3, [r0]
 2101 0794 043093E5 		ldr	r3, [r3, #4]
 2102 0798 33FF2FE1 		blx	r3
 2103              	.LVL190:
 2104 079c 91FFFFEA 		b	.L91
 2105              	.L113:
 2106 07a0 CFFFFFEA 		b	.L95
 2107              	.L112:
 2108 07a4 EEFFFFEA 		b	.L98
 2109              	.LVL191:
 2110              	.L110:
 2111 07a8 8EFFFFEA 		b	.L91
 2112              	.LVL192:
 2113              	.L108:
 2114 07ac 9DFFFFEA 		b	.L101
 2115              	.L107:
 2116 07b0 AAFFFFEA 		b	.L103
 2117              	.L138:
 2118              		.align	2
 2119              	.L137:
 2120 07b4 08000000 		.word	_ZTVN5zxing8ArrayRefINS_3RefINS_11ResultPointEEEEE+8
 2121 07b8 08000000 		.word	_ZTVN5zxing8ArrayRefIcEE+8
 2122              	.LBE995:
 2123              	.LBE994:
 2124              	.LBE993:
 2125              	.LBE992:
 2126              		.cfi_endproc
 2127              	.LFE2282:
 2128              		.personality	__gxx_personality_v0
 2129              		.handlerdata
 2130              	.LLSDA2282:
 2131 0008 FF       		.byte	0xff
 2132 0009 FF       		.byte	0xff
 2133 000a 01       		.byte	0x1
 2134 000b 46       		.uleb128 .LLSDACSE2282-.LLSDACSB2282
 2135              	.LLSDACSB2282:
 2136 000c 60       		.uleb128 .LEHB2-.LFB2282
 2137 000d 04       		.uleb128 .LEHE2-.LEHB2
 2138 000e BC0A     		.uleb128 .L106-.LFB2282
 2139 0010 00       		.uleb128 0
 2140 0011 B001     		.uleb128 .LEHB3-.LFB2282
 2141 0013 04       		.uleb128 .LEHE3-.LEHB3
 2142 0014 B00F     		.uleb128 .L107-.LFB2282
 2143 0016 00       		.uleb128 0
 2144 0017 DC01     		.uleb128 .LEHB4-.LFB2282
 2145 0019 04       		.uleb128 .LEHE4-.LEHB4
 2146 001a AC0F     		.uleb128 .L108-.LFB2282
 2147 001c 00       		.uleb128 0
 2148 001d F401     		.uleb128 .LEHB5-.LFB2282
 2149 001f 04       		.uleb128 .LEHE5-.LEHB5
 2150 0020 A80F     		.uleb128 .L110-.LFB2282
 2151 0022 00       		.uleb128 0
 2152 0023 B802     		.uleb128 .LEHB6-.LFB2282
 2153 0025 04       		.uleb128 .LEHE6-.LEHB6
 2154 0026 B00B     		.uleb128 .L109-.LFB2282
 2155 0028 00       		.uleb128 0
 2156 0029 EC02     		.uleb128 .LEHB7-.LFB2282
 2157 002b 04       		.uleb128 .LEHE7-.LEHB7
 2158 002c A80F     		.uleb128 .L110-.LFB2282
 2159 002e 00       		.uleb128 0
 2160 002f A003     		.uleb128 .LEHB8-.LFB2282
 2161 0031 04       		.uleb128 .LEHE8-.LEHB8
 2162 0032 9C0D     		.uleb128 .L111-.LFB2282
 2163 0034 00       		.uleb128 0
 2164 0035 A404     		.uleb128 .LEHB9-.LFB2282
 2165 0037 04       		.uleb128 .LEHE9-.LEHB9
 2166 0038 A80F     		.uleb128 .L110-.LFB2282
 2167 003a 00       		.uleb128 0
 2168 003b 8805     		.uleb128 .LEHB10-.LFB2282
 2169 003d 04       		.uleb128 .LEHE10-.LEHB10
 2170 003e A40F     		.uleb128 .L112-.LFB2282
 2171 0040 00       		.uleb128 0
 2172 0041 DC05     		.uleb128 .LEHB11-.LFB2282
 2173 0043 04       		.uleb128 .LEHE11-.LEHB11
 2174 0044 A00F     		.uleb128 .L113-.LFB2282
 2175 0046 00       		.uleb128 0
 2176 0047 9806     		.uleb128 .LEHB12-.LFB2282
 2177 0049 04       		.uleb128 .LEHE12-.LEHB12
 2178 004a D80D     		.uleb128 .L114-.LFB2282
 2179 004c 00       		.uleb128 0
 2180 004d AC0B     		.uleb128 .LEHB13-.LFB2282
 2181 004f 04       		.uleb128 .LEHE13-.LEHB13
 2182 0050 00       		.uleb128 0
 2183 0051 00       		.uleb128 0
 2184              	.LLSDACSE2282:
 2185              		.section	.text._ZN5zxing6pdf41712PDF417Reader6decodeENS_3RefINS_12BinaryBitmapEEENS_11DecodeHintsE
 2186              		.fnend
 2188              		.section	.text._ZN5zxing17NotFoundExceptionD2Ev,"axG",%progbits,_ZN5zxing17NotFoundExceptionD5Ev,c
 2189              		.align	2
 2190              		.weak	_ZN5zxing17NotFoundExceptionD2Ev
 2191              		.syntax unified
 2192              		.arm
 2193              		.fpu neon
 2195              	_ZN5zxing17NotFoundExceptionD2Ev:
 2196              		.fnstart
 2197              	.LFB2279:
 2198              		.file 9 "/home/zkmike/workspace/RZA2M/rza2m_2d_barcode_sample_freertos_gcc/src/zxing_lib/zxing/Not
   1:/home/zkmike/workspace/RZA2M/rza2m_2d_barcode_sample_freertos_gcc/src/zxing_lib/zxing/NotFoundException.h **** // -*- mode:c++; tab-width:2; indent-tabs-mode:nil; c-basic-offset:2 -*-
   2:/home/zkmike/workspace/RZA2M/rza2m_2d_barcode_sample_freertos_gcc/src/zxing_lib/zxing/NotFoundException.h **** 
   3:/home/zkmike/workspace/RZA2M/rza2m_2d_barcode_sample_freertos_gcc/src/zxing_lib/zxing/NotFoundException.h **** #ifndef __NOT_FOUND_EXCEPTION_H__
   4:/home/zkmike/workspace/RZA2M/rza2m_2d_barcode_sample_freertos_gcc/src/zxing_lib/zxing/NotFoundException.h **** #define __NOT_FOUND_EXCEPTION_H__
   5:/home/zkmike/workspace/RZA2M/rza2m_2d_barcode_sample_freertos_gcc/src/zxing_lib/zxing/NotFoundException.h **** 
   6:/home/zkmike/workspace/RZA2M/rza2m_2d_barcode_sample_freertos_gcc/src/zxing_lib/zxing/NotFoundException.h **** /*
   7:/home/zkmike/workspace/RZA2M/rza2m_2d_barcode_sample_freertos_gcc/src/zxing_lib/zxing/NotFoundException.h ****  * Copyright 20011 ZXing authors
   8:/home/zkmike/workspace/RZA2M/rza2m_2d_barcode_sample_freertos_gcc/src/zxing_lib/zxing/NotFoundException.h ****  *
   9:/home/zkmike/workspace/RZA2M/rza2m_2d_barcode_sample_freertos_gcc/src/zxing_lib/zxing/NotFoundException.h ****  * Licensed under the Apache License, Version 2.0 (the "License");
  10:/home/zkmike/workspace/RZA2M/rza2m_2d_barcode_sample_freertos_gcc/src/zxing_lib/zxing/NotFoundException.h ****  * you may not use this file except in compliance with the License.
  11:/home/zkmike/workspace/RZA2M/rza2m_2d_barcode_sample_freertos_gcc/src/zxing_lib/zxing/NotFoundException.h ****  * You may obtain a copy of the License at
  12:/home/zkmike/workspace/RZA2M/rza2m_2d_barcode_sample_freertos_gcc/src/zxing_lib/zxing/NotFoundException.h ****  *
  13:/home/zkmike/workspace/RZA2M/rza2m_2d_barcode_sample_freertos_gcc/src/zxing_lib/zxing/NotFoundException.h ****  *      http://www.apache.org/licenses/LICENSE-2.0
  14:/home/zkmike/workspace/RZA2M/rza2m_2d_barcode_sample_freertos_gcc/src/zxing_lib/zxing/NotFoundException.h ****  *
  15:/home/zkmike/workspace/RZA2M/rza2m_2d_barcode_sample_freertos_gcc/src/zxing_lib/zxing/NotFoundException.h ****  * Unless required by applicable law or agreed to in writing, software
  16:/home/zkmike/workspace/RZA2M/rza2m_2d_barcode_sample_freertos_gcc/src/zxing_lib/zxing/NotFoundException.h ****  * distributed under the License is distributed on an "AS IS" BASIS,
  17:/home/zkmike/workspace/RZA2M/rza2m_2d_barcode_sample_freertos_gcc/src/zxing_lib/zxing/NotFoundException.h ****  * WITHOUT WARRANTIES OR CONDITIONS OF ANY KIND, either express or implied.
  18:/home/zkmike/workspace/RZA2M/rza2m_2d_barcode_sample_freertos_gcc/src/zxing_lib/zxing/NotFoundException.h ****  * See the License for the specific language governing permissions and
  19:/home/zkmike/workspace/RZA2M/rza2m_2d_barcode_sample_freertos_gcc/src/zxing_lib/zxing/NotFoundException.h ****  * limitations under the License.
  20:/home/zkmike/workspace/RZA2M/rza2m_2d_barcode_sample_freertos_gcc/src/zxing_lib/zxing/NotFoundException.h ****  */
  21:/home/zkmike/workspace/RZA2M/rza2m_2d_barcode_sample_freertos_gcc/src/zxing_lib/zxing/NotFoundException.h **** 
  22:/home/zkmike/workspace/RZA2M/rza2m_2d_barcode_sample_freertos_gcc/src/zxing_lib/zxing/NotFoundException.h **** #include <zxing/ReaderException.h>
  23:/home/zkmike/workspace/RZA2M/rza2m_2d_barcode_sample_freertos_gcc/src/zxing_lib/zxing/NotFoundException.h **** 
  24:/home/zkmike/workspace/RZA2M/rza2m_2d_barcode_sample_freertos_gcc/src/zxing_lib/zxing/NotFoundException.h **** namespace zxing {
  25:/home/zkmike/workspace/RZA2M/rza2m_2d_barcode_sample_freertos_gcc/src/zxing_lib/zxing/NotFoundException.h **** 
  26:/home/zkmike/workspace/RZA2M/rza2m_2d_barcode_sample_freertos_gcc/src/zxing_lib/zxing/NotFoundException.h **** class NotFoundException : public ReaderException {
  27:/home/zkmike/workspace/RZA2M/rza2m_2d_barcode_sample_freertos_gcc/src/zxing_lib/zxing/NotFoundException.h **** public:
  28:/home/zkmike/workspace/RZA2M/rza2m_2d_barcode_sample_freertos_gcc/src/zxing_lib/zxing/NotFoundException.h ****   NotFoundException() throw() {}
  29:/home/zkmike/workspace/RZA2M/rza2m_2d_barcode_sample_freertos_gcc/src/zxing_lib/zxing/NotFoundException.h ****   NotFoundException(const char *msg) throw() : ReaderException(msg) {}
  30:/home/zkmike/workspace/RZA2M/rza2m_2d_barcode_sample_freertos_gcc/src/zxing_lib/zxing/NotFoundException.h ****   ~NotFoundException() throw() {}
 2199              		.loc 9 30 0
 2200              		.cfi_startproc
 2201              		.cfi_personality 0,__gxx_personality_v0
 2202              		.cfi_lsda 0,.LLSDA2279
 2203              		@ args = 0, pretend = 0, frame = 0
 2204              		@ frame_needed = 0, uses_anonymous_args = 0
 2205              	.LVL193:
 2206 0000 70402DE9 		push	{r4, r5, r6, lr}
 2207              		.save {r4, r5, r6, lr}
 2208              		.cfi_def_cfa_offset 16
 2209              		.cfi_offset 4, -16
 2210              		.cfi_offset 5, -12
 2211              		.cfi_offset 6, -8
 2212              		.cfi_offset 14, -4
 2213 0004 0040A0E1 		mov	r4, r0
 2214              	.LVL194:
 2215              	.LBB1002:
 2216              	.LBB1003:
 2217              	.LBB1004:
 2218              	.LBB1005:
 2219              	.LBB1006:
  37:/home/zkmike/workspace/RZA2M/rza2m_2d_barcode_sample_freertos_gcc/src/zxing_lib/zxing/Exception.h ****     if(message) {
 2220              		.loc 1 37 0
 2221 0008 48309FE5 		ldr	r3, .L146
 2222 000c 003080E5 		str	r3, [r0]
  38:/home/zkmike/workspace/RZA2M/rza2m_2d_barcode_sample_freertos_gcc/src/zxing_lib/zxing/Exception.h ****       deleteMessage();
 2223              		.loc 1 38 0
 2224 0010 043090E5 		ldr	r3, [r0, #4]
 2225 0014 000053E3 		cmp	r3, #0
 2226 0018 0A00000A 		beq	.L140
 2227              	.LEHB14:
  39:/home/zkmike/workspace/RZA2M/rza2m_2d_barcode_sample_freertos_gcc/src/zxing_lib/zxing/Exception.h ****     }
 2228              		.loc 1 39 0
 2229 001c FEFFFFEB 		bl	_ZN5zxing9Exception13deleteMessageEv
 2230              	.LVL195:
 2231              	.LEHE14:
 2232 0020 080000EA 		b	.L140
 2233              	.L143:
 2234 0024 0050A0E1 		mov	r5, r0
 2235 0028 0160A0E1 		mov	r6, r1
  37:/home/zkmike/workspace/RZA2M/rza2m_2d_barcode_sample_freertos_gcc/src/zxing_lib/zxing/Exception.h ****     if(message) {
 2236              		.loc 1 37 0
 2237 002c 0400A0E1 		mov	r0, r4
 2238 0030 FEFFFFEB 		bl	_ZNSt9exceptionD2Ev
 2239              	.LVL196:
 2240 0034 010076E3 		cmn	r6, #1
 2241 0038 0000000A 		beq	.L142
 2242              	.LEHB15:
 2243 003c FEFFFFEB 		bl	__cxa_end_cleanup
 2244              	.LVL197:
 2245              	.L142:
 2246              	.LBE1006:
 2247 0040 0500A0E1 		mov	r0, r5
 2248 0044 FEFFFFEB 		bl	__cxa_call_unexpected
 2249              	.LVL198:
 2250              	.LEHE15:
 2251              	.L140:
 2252              	.LBB1007:
 2253 0048 0400A0E1 		mov	r0, r4
 2254 004c FEFFFFEB 		bl	_ZNSt9exceptionD2Ev
 2255              	.LVL199:
 2256              	.LBE1007:
 2257              	.LBE1005:
 2258              	.LBE1004:
 2259              	.LBE1003:
 2260              	.LBE1002:
 2261              		.loc 9 30 0
 2262 0050 0400A0E1 		mov	r0, r4
 2263 0054 7080BDE8 		pop	{r4, r5, r6, pc}
 2264              	.L147:
 2265              		.align	2
 2266              	.L146:
 2267 0058 08000000 		.word	_ZTVN5zxing9ExceptionE+8
 2268              		.cfi_endproc
 2269              	.LFE2279:
 2270              		.personality	__gxx_personality_v0
 2271              		.handlerdata
 2272              		.align	2
 2273              	.LLSDA2279:
 2274 0008 FF       		.byte	0xff
 2275 0009 10       		.byte	0x10
 2276 000a 11       		.uleb128 .LLSDATT2279-.LLSDATTD2279
 2277              	.LLSDATTD2279:
 2278 000b 01       		.byte	0x1
 2279 000c 08       		.uleb128 .LLSDACSE2279-.LLSDACSB2279
 2280              	.LLSDACSB2279:
 2281 000d 1C       		.uleb128 .LEHB14-.LFB2279
 2282 000e 04       		.uleb128 .LEHE14-.LEHB14
 2283 000f 24       		.uleb128 .L143-.LFB2279
 2284 0010 03       		.uleb128 0x3
 2285 0011 3C       		.uleb128 .LEHB15-.LFB2279
 2286 0012 0C       		.uleb128 .LEHE15-.LEHB15
 2287 0013 00       		.uleb128 0
 2288 0014 00       		.uleb128 0
 2289              	.LLSDACSE2279:
 2290 0015 7F       		.byte	0x7f
 2291 0016 00       		.byte	0
 2292 0017 00       		.byte	0
 2293 0018 7D       		.byte	0x7d
 2294 0019 000000   		.align	2
 2295              	.LLSDATT2279:
 2296 001c 00000000 		.word	0
 2297              		.section	.text._ZN5zxing17NotFoundExceptionD2Ev,"axG",%progbits,_ZN5zxing17NotFoundExceptionD5Ev,c
 2298              		.fnend
 2300              		.weak	_ZN5zxing17NotFoundExceptionD1Ev
 2301              		.set	_ZN5zxing17NotFoundExceptionD1Ev,_ZN5zxing17NotFoundExceptionD2Ev
 2302              		.section	.text._ZN5zxing15ReaderExceptionD2Ev,"axG",%progbits,_ZN5zxing15ReaderExceptionD5Ev,comda
 2303              		.align	2
 2304              		.weak	_ZN5zxing15ReaderExceptionD2Ev
 2305              		.syntax unified
 2306              		.arm
 2307              		.fpu neon
 2309              	_ZN5zxing15ReaderExceptionD2Ev:
 2310              		.fnstart
 2311              	.LFB2269:
 2312              		.file 10 "/home/zkmike/workspace/RZA2M/rza2m_2d_barcode_sample_freertos_gcc/src/zxing_lib/zxing/Re
   1:/home/zkmike/workspace/RZA2M/rza2m_2d_barcode_sample_freertos_gcc/src/zxing_lib/zxing/ReaderException.h **** // -*- mode:c++; tab-width:2; indent-tabs-mode:nil; c-basic-offset:2 -*-
   2:/home/zkmike/workspace/RZA2M/rza2m_2d_barcode_sample_freertos_gcc/src/zxing_lib/zxing/ReaderException.h **** #ifndef __READER_EXCEPTION_H__
   3:/home/zkmike/workspace/RZA2M/rza2m_2d_barcode_sample_freertos_gcc/src/zxing_lib/zxing/ReaderException.h **** #define __READER_EXCEPTION_H__
   4:/home/zkmike/workspace/RZA2M/rza2m_2d_barcode_sample_freertos_gcc/src/zxing_lib/zxing/ReaderException.h **** 
   5:/home/zkmike/workspace/RZA2M/rza2m_2d_barcode_sample_freertos_gcc/src/zxing_lib/zxing/ReaderException.h **** /*
   6:/home/zkmike/workspace/RZA2M/rza2m_2d_barcode_sample_freertos_gcc/src/zxing_lib/zxing/ReaderException.h ****  *  ReaderException.h
   7:/home/zkmike/workspace/RZA2M/rza2m_2d_barcode_sample_freertos_gcc/src/zxing_lib/zxing/ReaderException.h ****  *  zxing
   8:/home/zkmike/workspace/RZA2M/rza2m_2d_barcode_sample_freertos_gcc/src/zxing_lib/zxing/ReaderException.h ****  *
   9:/home/zkmike/workspace/RZA2M/rza2m_2d_barcode_sample_freertos_gcc/src/zxing_lib/zxing/ReaderException.h ****  *  Copyright 2010 ZXing authors All rights reserved.
  10:/home/zkmike/workspace/RZA2M/rza2m_2d_barcode_sample_freertos_gcc/src/zxing_lib/zxing/ReaderException.h ****  *
  11:/home/zkmike/workspace/RZA2M/rza2m_2d_barcode_sample_freertos_gcc/src/zxing_lib/zxing/ReaderException.h ****  * Licensed under the Apache License, Version 2.0 (the "License");
  12:/home/zkmike/workspace/RZA2M/rza2m_2d_barcode_sample_freertos_gcc/src/zxing_lib/zxing/ReaderException.h ****  * you may not use this file except in compliance with the License.
  13:/home/zkmike/workspace/RZA2M/rza2m_2d_barcode_sample_freertos_gcc/src/zxing_lib/zxing/ReaderException.h ****  * You may obtain a copy of the License at
  14:/home/zkmike/workspace/RZA2M/rza2m_2d_barcode_sample_freertos_gcc/src/zxing_lib/zxing/ReaderException.h ****  *
  15:/home/zkmike/workspace/RZA2M/rza2m_2d_barcode_sample_freertos_gcc/src/zxing_lib/zxing/ReaderException.h ****  *      http://www.apache.org/licenses/LICENSE-2.0
  16:/home/zkmike/workspace/RZA2M/rza2m_2d_barcode_sample_freertos_gcc/src/zxing_lib/zxing/ReaderException.h ****  *
  17:/home/zkmike/workspace/RZA2M/rza2m_2d_barcode_sample_freertos_gcc/src/zxing_lib/zxing/ReaderException.h ****  * Unless required by applicable law or agreed to in writing, software
  18:/home/zkmike/workspace/RZA2M/rza2m_2d_barcode_sample_freertos_gcc/src/zxing_lib/zxing/ReaderException.h ****  * distributed under the License is distributed on an "AS IS" BASIS,
  19:/home/zkmike/workspace/RZA2M/rza2m_2d_barcode_sample_freertos_gcc/src/zxing_lib/zxing/ReaderException.h ****  * WITHOUT WARRANTIES OR CONDITIONS OF ANY KIND, either express or implied.
  20:/home/zkmike/workspace/RZA2M/rza2m_2d_barcode_sample_freertos_gcc/src/zxing_lib/zxing/ReaderException.h ****  * See the License for the specific language governing permissions and
  21:/home/zkmike/workspace/RZA2M/rza2m_2d_barcode_sample_freertos_gcc/src/zxing_lib/zxing/ReaderException.h ****  * limitations under the License.
  22:/home/zkmike/workspace/RZA2M/rza2m_2d_barcode_sample_freertos_gcc/src/zxing_lib/zxing/ReaderException.h ****  */
  23:/home/zkmike/workspace/RZA2M/rza2m_2d_barcode_sample_freertos_gcc/src/zxing_lib/zxing/ReaderException.h **** 
  24:/home/zkmike/workspace/RZA2M/rza2m_2d_barcode_sample_freertos_gcc/src/zxing_lib/zxing/ReaderException.h **** #include <zxing/Exception.h>
  25:/home/zkmike/workspace/RZA2M/rza2m_2d_barcode_sample_freertos_gcc/src/zxing_lib/zxing/ReaderException.h **** 
  26:/home/zkmike/workspace/RZA2M/rza2m_2d_barcode_sample_freertos_gcc/src/zxing_lib/zxing/ReaderException.h **** namespace zxing {
  27:/home/zkmike/workspace/RZA2M/rza2m_2d_barcode_sample_freertos_gcc/src/zxing_lib/zxing/ReaderException.h **** 
  28:/home/zkmike/workspace/RZA2M/rza2m_2d_barcode_sample_freertos_gcc/src/zxing_lib/zxing/ReaderException.h **** class ReaderException : public Exception {
  29:/home/zkmike/workspace/RZA2M/rza2m_2d_barcode_sample_freertos_gcc/src/zxing_lib/zxing/ReaderException.h ****  public:
  30:/home/zkmike/workspace/RZA2M/rza2m_2d_barcode_sample_freertos_gcc/src/zxing_lib/zxing/ReaderException.h ****   ReaderException() throw() {}
  31:/home/zkmike/workspace/RZA2M/rza2m_2d_barcode_sample_freertos_gcc/src/zxing_lib/zxing/ReaderException.h ****   ReaderException(char const* msg) throw() : Exception(msg) {}
  32:/home/zkmike/workspace/RZA2M/rza2m_2d_barcode_sample_freertos_gcc/src/zxing_lib/zxing/ReaderException.h ****   ~ReaderException() throw() {}
 2313              		.loc 10 32 0
 2314              		.cfi_startproc
 2315              		.cfi_personality 0,__gxx_personality_v0
 2316              		.cfi_lsda 0,.LLSDA2269
 2317              		@ args = 0, pretend = 0, frame = 0
 2318              		@ frame_needed = 0, uses_anonymous_args = 0
 2319              	.LVL200:
 2320 0000 70402DE9 		push	{r4, r5, r6, lr}
 2321              		.save {r4, r5, r6, lr}
 2322              		.cfi_def_cfa_offset 16
 2323              		.cfi_offset 4, -16
 2324              		.cfi_offset 5, -12
 2325              		.cfi_offset 6, -8
 2326              		.cfi_offset 14, -4
 2327 0004 0040A0E1 		mov	r4, r0
 2328              	.LVL201:
 2329              	.LBB1012:
 2330              	.LBB1013:
 2331              	.LBB1014:
 2332              	.LBB1015:
  37:/home/zkmike/workspace/RZA2M/rza2m_2d_barcode_sample_freertos_gcc/src/zxing_lib/zxing/Exception.h ****     if(message) {
 2333              		.loc 1 37 0
 2334 0008 48309FE5 		ldr	r3, .L155
 2335 000c 003080E5 		str	r3, [r0]
  38:/home/zkmike/workspace/RZA2M/rza2m_2d_barcode_sample_freertos_gcc/src/zxing_lib/zxing/Exception.h ****       deleteMessage();
 2336              		.loc 1 38 0
 2337 0010 043090E5 		ldr	r3, [r0, #4]
 2338 0014 000053E3 		cmp	r3, #0
 2339 0018 0A00000A 		beq	.L149
 2340              	.LEHB16:
  39:/home/zkmike/workspace/RZA2M/rza2m_2d_barcode_sample_freertos_gcc/src/zxing_lib/zxing/Exception.h ****     }
 2341              		.loc 1 39 0
 2342 001c FEFFFFEB 		bl	_ZN5zxing9Exception13deleteMessageEv
 2343              	.LVL202:
 2344              	.LEHE16:
 2345 0020 080000EA 		b	.L149
 2346              	.L152:
 2347 0024 0050A0E1 		mov	r5, r0
 2348 0028 0160A0E1 		mov	r6, r1
  37:/home/zkmike/workspace/RZA2M/rza2m_2d_barcode_sample_freertos_gcc/src/zxing_lib/zxing/Exception.h ****     if(message) {
 2349              		.loc 1 37 0
 2350 002c 0400A0E1 		mov	r0, r4
 2351 0030 FEFFFFEB 		bl	_ZNSt9exceptionD2Ev
 2352              	.LVL203:
 2353 0034 010076E3 		cmn	r6, #1
 2354 0038 0000000A 		beq	.L151
 2355              	.LEHB17:
 2356 003c FEFFFFEB 		bl	__cxa_end_cleanup
 2357              	.LVL204:
 2358              	.L151:
 2359              	.LBE1015:
 2360 0040 0500A0E1 		mov	r0, r5
 2361 0044 FEFFFFEB 		bl	__cxa_call_unexpected
 2362              	.LVL205:
 2363              	.LEHE17:
 2364              	.L149:
 2365              	.LBB1016:
 2366 0048 0400A0E1 		mov	r0, r4
 2367 004c FEFFFFEB 		bl	_ZNSt9exceptionD2Ev
 2368              	.LVL206:
 2369              	.LBE1016:
 2370              	.LBE1014:
 2371              	.LBE1013:
 2372              	.LBE1012:
 2373              		.loc 10 32 0
 2374 0050 0400A0E1 		mov	r0, r4
 2375 0054 7080BDE8 		pop	{r4, r5, r6, pc}
 2376              	.L156:
 2377              		.align	2
 2378              	.L155:
 2379 0058 08000000 		.word	_ZTVN5zxing9ExceptionE+8
 2380              		.cfi_endproc
 2381              	.LFE2269:
 2382              		.personality	__gxx_personality_v0
 2383              		.handlerdata
 2384              		.align	2
 2385              	.LLSDA2269:
 2386 0008 FF       		.byte	0xff
 2387 0009 10       		.byte	0x10
 2388 000a 11       		.uleb128 .LLSDATT2269-.LLSDATTD2269
 2389              	.LLSDATTD2269:
 2390 000b 01       		.byte	0x1
 2391 000c 08       		.uleb128 .LLSDACSE2269-.LLSDACSB2269
 2392              	.LLSDACSB2269:
 2393 000d 1C       		.uleb128 .LEHB16-.LFB2269
 2394 000e 04       		.uleb128 .LEHE16-.LEHB16
 2395 000f 24       		.uleb128 .L152-.LFB2269
 2396 0010 03       		.uleb128 0x3
 2397 0011 3C       		.uleb128 .LEHB17-.LFB2269
 2398 0012 0C       		.uleb128 .LEHE17-.LEHB17
 2399 0013 00       		.uleb128 0
 2400 0014 00       		.uleb128 0
 2401              	.LLSDACSE2269:
 2402 0015 7F       		.byte	0x7f
 2403 0016 00       		.byte	0
 2404 0017 00       		.byte	0
 2405 0018 7D       		.byte	0x7d
 2406 0019 000000   		.align	2
 2407              	.LLSDATT2269:
 2408 001c 00000000 		.word	0
 2409              		.section	.text._ZN5zxing15ReaderExceptionD2Ev,"axG",%progbits,_ZN5zxing15ReaderExceptionD5Ev,comda
 2410              		.fnend
 2412              		.weak	_ZN5zxing15ReaderExceptionD1Ev
 2413              		.set	_ZN5zxing15ReaderExceptionD1Ev,_ZN5zxing15ReaderExceptionD2Ev
 2414              		.section	.text._ZN5zxing9ExceptionD0Ev,"axG",%progbits,_ZN5zxing9ExceptionD5Ev,comdat
 2415              		.align	2
 2416              		.weak	_ZN5zxing9ExceptionD0Ev
 2417              		.syntax unified
 2418              		.arm
 2419              		.fpu neon
 2421              	_ZN5zxing9ExceptionD0Ev:
 2422              		.fnstart
 2423              	.LFB1870:
  37:/home/zkmike/workspace/RZA2M/rza2m_2d_barcode_sample_freertos_gcc/src/zxing_lib/zxing/Exception.h ****     if(message) {
 2424              		.loc 1 37 0
 2425              		.cfi_startproc
 2426              		.cfi_personality 0,__gxx_personality_v0
 2427              		.cfi_lsda 0,.LLSDA1870
 2428              		@ args = 0, pretend = 0, frame = 0
 2429              		@ frame_needed = 0, uses_anonymous_args = 0
 2430              	.LVL207:
 2431 0000 70402DE9 		push	{r4, r5, r6, lr}
 2432              		.save {r4, r5, r6, lr}
 2433              		.cfi_def_cfa_offset 16
 2434              		.cfi_offset 4, -16
 2435              		.cfi_offset 5, -12
 2436              		.cfi_offset 6, -8
 2437              		.cfi_offset 14, -4
 2438 0004 0040A0E1 		mov	r4, r0
 2439              	.LVL208:
 2440              	.LBB1020:
 2441              	.LBB1021:
 2442              	.LBB1022:
  37:/home/zkmike/workspace/RZA2M/rza2m_2d_barcode_sample_freertos_gcc/src/zxing_lib/zxing/Exception.h ****     if(message) {
 2443              		.loc 1 37 0
 2444 0008 54309FE5 		ldr	r3, .L164
 2445 000c 003080E5 		str	r3, [r0]
  38:/home/zkmike/workspace/RZA2M/rza2m_2d_barcode_sample_freertos_gcc/src/zxing_lib/zxing/Exception.h ****       deleteMessage();
 2446              		.loc 1 38 0
 2447 0010 043090E5 		ldr	r3, [r0, #4]
 2448 0014 000053E3 		cmp	r3, #0
 2449 0018 0A00000A 		beq	.L158
 2450              	.LEHB18:
  39:/home/zkmike/workspace/RZA2M/rza2m_2d_barcode_sample_freertos_gcc/src/zxing_lib/zxing/Exception.h ****     }
 2451              		.loc 1 39 0
 2452 001c FEFFFFEB 		bl	_ZN5zxing9Exception13deleteMessageEv
 2453              	.LVL209:
 2454              	.LEHE18:
 2455 0020 080000EA 		b	.L158
 2456              	.L161:
 2457 0024 0050A0E1 		mov	r5, r0
 2458 0028 0160A0E1 		mov	r6, r1
  37:/home/zkmike/workspace/RZA2M/rza2m_2d_barcode_sample_freertos_gcc/src/zxing_lib/zxing/Exception.h ****     if(message) {
 2459              		.loc 1 37 0
 2460 002c 0400A0E1 		mov	r0, r4
 2461 0030 FEFFFFEB 		bl	_ZNSt9exceptionD2Ev
 2462              	.LVL210:
 2463 0034 010076E3 		cmn	r6, #1
 2464 0038 0000000A 		beq	.L160
 2465              	.LEHB19:
 2466 003c FEFFFFEB 		bl	__cxa_end_cleanup
 2467              	.LVL211:
 2468              	.L160:
 2469              	.LBE1022:
 2470 0040 0500A0E1 		mov	r0, r5
 2471 0044 FEFFFFEB 		bl	__cxa_call_unexpected
 2472              	.LVL212:
 2473              	.LEHE19:
 2474              	.L158:
 2475              	.LBB1023:
 2476 0048 0400A0E1 		mov	r0, r4
 2477 004c FEFFFFEB 		bl	_ZNSt9exceptionD2Ev
 2478              	.LVL213:
 2479              	.LBE1023:
 2480              	.LBE1021:
 2481              	.LBE1020:
  41:/home/zkmike/workspace/RZA2M/rza2m_2d_barcode_sample_freertos_gcc/src/zxing_lib/zxing/Exception.h ****   char const* what() const throw() {return message ? message : "";}
 2482              		.loc 1 41 0
 2483 0050 0810A0E3 		mov	r1, #8
 2484 0054 0400A0E1 		mov	r0, r4
 2485 0058 FEFFFFEB 		bl	_ZdlPvj
 2486              	.LVL214:
 2487 005c 0400A0E1 		mov	r0, r4
 2488 0060 7080BDE8 		pop	{r4, r5, r6, pc}
 2489              	.L165:
 2490              		.align	2
 2491              	.L164:
 2492 0064 08000000 		.word	_ZTVN5zxing9ExceptionE+8
 2493              		.cfi_endproc
 2494              	.LFE1870:
 2495              		.personality	__gxx_personality_v0
 2496              		.handlerdata
 2497              		.align	2
 2498              	.LLSDA1870:
 2499 0008 FF       		.byte	0xff
 2500 0009 10       		.byte	0x10
 2501 000a 11       		.uleb128 .LLSDATT1870-.LLSDATTD1870
 2502              	.LLSDATTD1870:
 2503 000b 01       		.byte	0x1
 2504 000c 08       		.uleb128 .LLSDACSE1870-.LLSDACSB1870
 2505              	.LLSDACSB1870:
 2506 000d 1C       		.uleb128 .LEHB18-.LFB1870
 2507 000e 04       		.uleb128 .LEHE18-.LEHB18
 2508 000f 24       		.uleb128 .L161-.LFB1870
 2509 0010 03       		.uleb128 0x3
 2510 0011 3C       		.uleb128 .LEHB19-.LFB1870
 2511 0012 0C       		.uleb128 .LEHE19-.LEHB19
 2512 0013 00       		.uleb128 0
 2513 0014 00       		.uleb128 0
 2514              	.LLSDACSE1870:
 2515 0015 7F       		.byte	0x7f
 2516 0016 00       		.byte	0
 2517 0017 00       		.byte	0
 2518 0018 7D       		.byte	0x7d
 2519 0019 000000   		.align	2
 2520              	.LLSDATT1870:
 2521 001c 00000000 		.word	0
 2522              		.section	.text._ZN5zxing9ExceptionD0Ev,"axG",%progbits,_ZN5zxing9ExceptionD5Ev,comdat
 2523              		.fnend
 2525              		.section	.text._ZN5zxing17NotFoundExceptionD0Ev,"axG",%progbits,_ZN5zxing17NotFoundExceptionD5Ev,c
 2526              		.align	2
 2527              		.weak	_ZN5zxing17NotFoundExceptionD0Ev
 2528              		.syntax unified
 2529              		.arm
 2530              		.fpu neon
 2532              	_ZN5zxing17NotFoundExceptionD0Ev:
 2533              		.fnstart
 2534              	.LFB2281:
 2535              		.loc 9 30 0
 2536              		.cfi_startproc
 2537              		.cfi_personality 0,__gxx_personality_v0
 2538              		.cfi_lsda 0,.LLSDA2281
 2539              		@ args = 0, pretend = 0, frame = 0
 2540              		@ frame_needed = 0, uses_anonymous_args = 0
 2541              	.LVL215:
 2542 0000 70402DE9 		push	{r4, r5, r6, lr}
 2543              		.save {r4, r5, r6, lr}
 2544              		.cfi_def_cfa_offset 16
 2545              		.cfi_offset 4, -16
 2546              		.cfi_offset 5, -12
 2547              		.cfi_offset 6, -8
 2548              		.cfi_offset 14, -4
 2549 0004 0040A0E1 		mov	r4, r0
 2550              	.LVL216:
 2551              	.LBB1031:
 2552              	.LBB1032:
 2553              	.LBB1033:
 2554              	.LBB1034:
 2555              	.LBB1035:
 2556              	.LBB1036:
  37:/home/zkmike/workspace/RZA2M/rza2m_2d_barcode_sample_freertos_gcc/src/zxing_lib/zxing/Exception.h ****     if(message) {
 2557              		.loc 1 37 0
 2558 0008 54309FE5 		ldr	r3, .L173
 2559 000c 003080E5 		str	r3, [r0]
  38:/home/zkmike/workspace/RZA2M/rza2m_2d_barcode_sample_freertos_gcc/src/zxing_lib/zxing/Exception.h ****       deleteMessage();
 2560              		.loc 1 38 0
 2561 0010 043090E5 		ldr	r3, [r0, #4]
 2562 0014 000053E3 		cmp	r3, #0
 2563 0018 0A00000A 		beq	.L167
 2564              	.LEHB20:
  39:/home/zkmike/workspace/RZA2M/rza2m_2d_barcode_sample_freertos_gcc/src/zxing_lib/zxing/Exception.h ****     }
 2565              		.loc 1 39 0
 2566 001c FEFFFFEB 		bl	_ZN5zxing9Exception13deleteMessageEv
 2567              	.LVL217:
 2568              	.LEHE20:
 2569 0020 080000EA 		b	.L167
 2570              	.L170:
 2571 0024 0050A0E1 		mov	r5, r0
 2572 0028 0160A0E1 		mov	r6, r1
  37:/home/zkmike/workspace/RZA2M/rza2m_2d_barcode_sample_freertos_gcc/src/zxing_lib/zxing/Exception.h ****     if(message) {
 2573              		.loc 1 37 0
 2574 002c 0400A0E1 		mov	r0, r4
 2575 0030 FEFFFFEB 		bl	_ZNSt9exceptionD2Ev
 2576              	.LVL218:
 2577 0034 010076E3 		cmn	r6, #1
 2578 0038 0000000A 		beq	.L169
 2579              	.LEHB21:
 2580 003c FEFFFFEB 		bl	__cxa_end_cleanup
 2581              	.LVL219:
 2582              	.L169:
 2583              	.LBE1036:
 2584 0040 0500A0E1 		mov	r0, r5
 2585 0044 FEFFFFEB 		bl	__cxa_call_unexpected
 2586              	.LVL220:
 2587              	.LEHE21:
 2588              	.L167:
 2589              	.LBB1037:
 2590 0048 0400A0E1 		mov	r0, r4
 2591 004c FEFFFFEB 		bl	_ZNSt9exceptionD2Ev
 2592              	.LVL221:
 2593              	.LBE1037:
 2594              	.LBE1035:
 2595              	.LBE1034:
 2596              	.LBE1033:
 2597              	.LBE1032:
 2598              	.LBE1031:
 2599              		.loc 9 30 0
 2600 0050 0810A0E3 		mov	r1, #8
 2601 0054 0400A0E1 		mov	r0, r4
 2602 0058 FEFFFFEB 		bl	_ZdlPvj
 2603              	.LVL222:
 2604 005c 0400A0E1 		mov	r0, r4
 2605 0060 7080BDE8 		pop	{r4, r5, r6, pc}
 2606              	.L174:
 2607              		.align	2
 2608              	.L173:
 2609 0064 08000000 		.word	_ZTVN5zxing9ExceptionE+8
 2610              		.cfi_endproc
 2611              	.LFE2281:
 2612              		.personality	__gxx_personality_v0
 2613              		.handlerdata
 2614              		.align	2
 2615              	.LLSDA2281:
 2616 0008 FF       		.byte	0xff
 2617 0009 10       		.byte	0x10
 2618 000a 11       		.uleb128 .LLSDATT2281-.LLSDATTD2281
 2619              	.LLSDATTD2281:
 2620 000b 01       		.byte	0x1
 2621 000c 08       		.uleb128 .LLSDACSE2281-.LLSDACSB2281
 2622              	.LLSDACSB2281:
 2623 000d 1C       		.uleb128 .LEHB20-.LFB2281
 2624 000e 04       		.uleb128 .LEHE20-.LEHB20
 2625 000f 24       		.uleb128 .L170-.LFB2281
 2626 0010 03       		.uleb128 0x3
 2627 0011 3C       		.uleb128 .LEHB21-.LFB2281
 2628 0012 0C       		.uleb128 .LEHE21-.LEHB21
 2629 0013 00       		.uleb128 0
 2630 0014 00       		.uleb128 0
 2631              	.LLSDACSE2281:
 2632 0015 7F       		.byte	0x7f
 2633 0016 00       		.byte	0
 2634 0017 00       		.byte	0
 2635 0018 7D       		.byte	0x7d
 2636 0019 000000   		.align	2
 2637              	.LLSDATT2281:
 2638 001c 00000000 		.word	0
 2639              		.section	.text._ZN5zxing17NotFoundExceptionD0Ev,"axG",%progbits,_ZN5zxing17NotFoundExceptionD5Ev,c
 2640              		.fnend
 2642              		.section	.text._ZN5zxing15ReaderExceptionD0Ev,"axG",%progbits,_ZN5zxing15ReaderExceptionD5Ev,comda
 2643              		.align	2
 2644              		.weak	_ZN5zxing15ReaderExceptionD0Ev
 2645              		.syntax unified
 2646              		.arm
 2647              		.fpu neon
 2649              	_ZN5zxing15ReaderExceptionD0Ev:
 2650              		.fnstart
 2651              	.LFB2271:
 2652              		.loc 10 32 0
 2653              		.cfi_startproc
 2654              		.cfi_personality 0,__gxx_personality_v0
 2655              		.cfi_lsda 0,.LLSDA2271
 2656              		@ args = 0, pretend = 0, frame = 0
 2657              		@ frame_needed = 0, uses_anonymous_args = 0
 2658              	.LVL223:
 2659 0000 70402DE9 		push	{r4, r5, r6, lr}
 2660              		.save {r4, r5, r6, lr}
 2661              		.cfi_def_cfa_offset 16
 2662              		.cfi_offset 4, -16
 2663              		.cfi_offset 5, -12
 2664              		.cfi_offset 6, -8
 2665              		.cfi_offset 14, -4
 2666 0004 0040A0E1 		mov	r4, r0
 2667              	.LVL224:
 2668              	.LBB1043:
 2669              	.LBB1044:
 2670              	.LBB1045:
 2671              	.LBB1046:
 2672              	.LBB1047:
  37:/home/zkmike/workspace/RZA2M/rza2m_2d_barcode_sample_freertos_gcc/src/zxing_lib/zxing/Exception.h ****     if(message) {
 2673              		.loc 1 37 0
 2674 0008 54309FE5 		ldr	r3, .L182
 2675 000c 003080E5 		str	r3, [r0]
  38:/home/zkmike/workspace/RZA2M/rza2m_2d_barcode_sample_freertos_gcc/src/zxing_lib/zxing/Exception.h ****       deleteMessage();
 2676              		.loc 1 38 0
 2677 0010 043090E5 		ldr	r3, [r0, #4]
 2678 0014 000053E3 		cmp	r3, #0
 2679 0018 0A00000A 		beq	.L176
 2680              	.LEHB22:
  39:/home/zkmike/workspace/RZA2M/rza2m_2d_barcode_sample_freertos_gcc/src/zxing_lib/zxing/Exception.h ****     }
 2681              		.loc 1 39 0
 2682 001c FEFFFFEB 		bl	_ZN5zxing9Exception13deleteMessageEv
 2683              	.LVL225:
 2684              	.LEHE22:
 2685 0020 080000EA 		b	.L176
 2686              	.L179:
 2687 0024 0050A0E1 		mov	r5, r0
 2688 0028 0160A0E1 		mov	r6, r1
  37:/home/zkmike/workspace/RZA2M/rza2m_2d_barcode_sample_freertos_gcc/src/zxing_lib/zxing/Exception.h ****     if(message) {
 2689              		.loc 1 37 0
 2690 002c 0400A0E1 		mov	r0, r4
 2691 0030 FEFFFFEB 		bl	_ZNSt9exceptionD2Ev
 2692              	.LVL226:
 2693 0034 010076E3 		cmn	r6, #1
 2694 0038 0000000A 		beq	.L178
 2695              	.LEHB23:
 2696 003c FEFFFFEB 		bl	__cxa_end_cleanup
 2697              	.LVL227:
 2698              	.L178:
 2699              	.LBE1047:
 2700 0040 0500A0E1 		mov	r0, r5
 2701 0044 FEFFFFEB 		bl	__cxa_call_unexpected
 2702              	.LVL228:
 2703              	.LEHE23:
 2704              	.L176:
 2705              	.LBB1048:
 2706 0048 0400A0E1 		mov	r0, r4
 2707 004c FEFFFFEB 		bl	_ZNSt9exceptionD2Ev
 2708              	.LVL229:
 2709              	.LBE1048:
 2710              	.LBE1046:
 2711              	.LBE1045:
 2712              	.LBE1044:
 2713              	.LBE1043:
 2714              		.loc 10 32 0
 2715 0050 0810A0E3 		mov	r1, #8
 2716 0054 0400A0E1 		mov	r0, r4
 2717 0058 FEFFFFEB 		bl	_ZdlPvj
 2718              	.LVL230:
 2719 005c 0400A0E1 		mov	r0, r4
 2720 0060 7080BDE8 		pop	{r4, r5, r6, pc}
 2721              	.L183:
 2722              		.align	2
 2723              	.L182:
 2724 0064 08000000 		.word	_ZTVN5zxing9ExceptionE+8
 2725              		.cfi_endproc
 2726              	.LFE2271:
 2727              		.personality	__gxx_personality_v0
 2728              		.handlerdata
 2729              		.align	2
 2730              	.LLSDA2271:
 2731 0008 FF       		.byte	0xff
 2732 0009 10       		.byte	0x10
 2733 000a 11       		.uleb128 .LLSDATT2271-.LLSDATTD2271
 2734              	.LLSDATTD2271:
 2735 000b 01       		.byte	0x1
 2736 000c 08       		.uleb128 .LLSDACSE2271-.LLSDACSB2271
 2737              	.LLSDACSB2271:
 2738 000d 1C       		.uleb128 .LEHB22-.LFB2271
 2739 000e 04       		.uleb128 .LEHE22-.LEHB22
 2740 000f 24       		.uleb128 .L179-.LFB2271
 2741 0010 03       		.uleb128 0x3
 2742 0011 3C       		.uleb128 .LEHB23-.LFB2271
 2743 0012 0C       		.uleb128 .LEHE23-.LEHB23
 2744 0013 00       		.uleb128 0
 2745 0014 00       		.uleb128 0
 2746              	.LLSDACSE2271:
 2747 0015 7F       		.byte	0x7f
 2748 0016 00       		.byte	0
 2749 0017 00       		.byte	0
 2750 0018 7D       		.byte	0x7d
 2751 0019 000000   		.align	2
 2752              	.LLSDATT2271:
 2753 001c 00000000 		.word	0
 2754              		.section	.text._ZN5zxing15ReaderExceptionD0Ev,"axG",%progbits,_ZN5zxing15ReaderExceptionD5Ev,comda
 2755              		.fnend
 2757              		.section	.text._ZN5zxing9ExceptionC2EPKc,"axG",%progbits,_ZN5zxing9ExceptionC5EPKc,comdat
 2758              		.align	2
 2759              		.weak	_ZN5zxing9ExceptionC2EPKc
 2760              		.syntax unified
 2761              		.arm
 2762              		.fpu neon
 2764              	_ZN5zxing9ExceptionC2EPKc:
 2765              		.fnstart
 2766              	.LFB1859:
  35:/home/zkmike/workspace/RZA2M/rza2m_2d_barcode_sample_freertos_gcc/src/zxing_lib/zxing/Exception.h ****   Exception(Exception const& that) throw() : std::exception(that), message(copy(that.message)) {}
 2767              		.loc 1 35 0
 2768              		.cfi_startproc
 2769              		.cfi_personality 0,__gxx_personality_v0
 2770              		.cfi_lsda 0,.LLSDA1859
 2771              		@ args = 0, pretend = 0, frame = 0
 2772              		@ frame_needed = 0, uses_anonymous_args = 0
 2773              	.LVL231:
 2774 0000 70402DE9 		push	{r4, r5, r6, lr}
 2775              		.save {r4, r5, r6, lr}
 2776              		.cfi_def_cfa_offset 16
 2777              		.cfi_offset 4, -16
 2778              		.cfi_offset 5, -12
 2779              		.cfi_offset 6, -8
 2780              		.cfi_offset 14, -4
 2781 0004 0040A0E1 		mov	r4, r0
 2782              	.LBB1049:
  35:/home/zkmike/workspace/RZA2M/rza2m_2d_barcode_sample_freertos_gcc/src/zxing_lib/zxing/Exception.h ****   Exception(Exception const& that) throw() : std::exception(that), message(copy(that.message)) {}
 2783              		.loc 1 35 0
 2784 0008 3C309FE5 		ldr	r3, .L192
 2785 000c 003080E5 		str	r3, [r0]
 2786 0010 0100A0E1 		mov	r0, r1
 2787              	.LVL232:
 2788              	.LEHB24:
 2789 0014 FEFFFFEB 		bl	_ZN5zxing9Exception4copyEPKc
 2790              	.LVL233:
 2791              	.LEHE24:
 2792 0018 080000EA 		b	.L191
 2793              	.L187:
 2794 001c 0050A0E1 		mov	r5, r0
 2795 0020 0160A0E1 		mov	r6, r1
 2796 0024 0400A0E1 		mov	r0, r4
 2797 0028 FEFFFFEB 		bl	_ZNSt9exceptionD2Ev
 2798              	.LVL234:
 2799 002c 010076E3 		cmn	r6, #1
 2800 0030 0000000A 		beq	.L186
 2801              	.LEHB25:
 2802 0034 FEFFFFEB 		bl	__cxa_end_cleanup
 2803              	.LVL235:
 2804              	.L186:
 2805              	.LBE1049:
 2806 0038 0500A0E1 		mov	r0, r5
 2807 003c FEFFFFEB 		bl	__cxa_call_unexpected
 2808              	.LVL236:
 2809              	.LEHE25:
 2810              	.L191:
 2811              	.LBB1050:
 2812 0040 040084E5 		str	r0, [r4, #4]
 2813              	.LBE1050:
 2814 0044 0400A0E1 		mov	r0, r4
 2815 0048 7080BDE8 		pop	{r4, r5, r6, pc}
 2816              	.L193:
 2817              		.align	2
 2818              	.L192:
 2819 004c 08000000 		.word	_ZTVN5zxing9ExceptionE+8
 2820              		.cfi_endproc
 2821              	.LFE1859:
 2822              		.personality	__gxx_personality_v0
 2823              		.handlerdata
 2824              		.align	2
 2825              	.LLSDA1859:
 2826 0008 FF       		.byte	0xff
 2827 0009 10       		.byte	0x10
 2828 000a 11       		.uleb128 .LLSDATT1859-.LLSDATTD1859
 2829              	.LLSDATTD1859:
 2830 000b 01       		.byte	0x1
 2831 000c 08       		.uleb128 .LLSDACSE1859-.LLSDACSB1859
 2832              	.LLSDACSB1859:
 2833 000d 14       		.uleb128 .LEHB24-.LFB1859
 2834 000e 04       		.uleb128 .LEHE24-.LEHB24
 2835 000f 1C       		.uleb128 .L187-.LFB1859
 2836 0010 03       		.uleb128 0x3
 2837 0011 34       		.uleb128 .LEHB25-.LFB1859
 2838 0012 0C       		.uleb128 .LEHE25-.LEHB25
 2839 0013 00       		.uleb128 0
 2840 0014 00       		.uleb128 0
 2841              	.LLSDACSE1859:
 2842 0015 7F       		.byte	0x7f
 2843 0016 00       		.byte	0
 2844 0017 00       		.byte	0
 2845 0018 7D       		.byte	0x7d
 2846 0019 000000   		.align	2
 2847              	.LLSDATT1859:
 2848 001c 00000000 		.word	0
 2849              		.section	.text._ZN5zxing9ExceptionC2EPKc,"axG",%progbits,_ZN5zxing9ExceptionC5EPKc,comdat
 2850              		.fnend
 2852              		.weak	_ZN5zxing9ExceptionC1EPKc
 2853              		.set	_ZN5zxing9ExceptionC1EPKc,_ZN5zxing9ExceptionC2EPKc
 2854              		.section	.text._ZN5zxing6pdf41712PDF417Reader5resetEv,"ax",%progbits
 2855              		.align	2
 2856              		.global	_ZN5zxing6pdf41712PDF417Reader5resetEv
 2857              		.syntax unified
 2858              		.arm
 2859              		.fpu neon
 2861              	_ZN5zxing6pdf41712PDF417Reader5resetEv:
 2862              		.fnstart
 2863              	.LFB2286:
  65:../src/zxing_lib/zxing/pdf417/PDF417Reader.cpp ****   // do nothing
 2864              		.loc 5 65 0
 2865              		.cfi_startproc
 2866              		@ args = 0, pretend = 0, frame = 0
 2867              		@ frame_needed = 0, uses_anonymous_args = 0
 2868              		@ link register save eliminated.
 2869              	.LVL237:
 2870 0000 1EFF2FE1 		bx	lr
 2871              		.cfi_endproc
 2872              	.LFE2286:
 2873              		.cantunwind
 2874              		.fnend
 2876              		.section	.text._ZN5zxing6pdf41712PDF417Reader10moduleSizeENS_8ArrayRefIiEENS_3RefINS_9BitMatrixEEE
 2877              		.align	2
 2878              		.global	_ZN5zxing6pdf41712PDF417Reader10moduleSizeENS_8ArrayRefIiEENS_3RefINS_9BitMatrixEEE
 2879              		.syntax unified
 2880              		.arm
 2881              		.fpu neon
 2883              	_ZN5zxing6pdf41712PDF417Reader10moduleSizeENS_8ArrayRefIiEENS_3RefINS_9BitMatrixEEE:
 2884              		.fnstart
 2885              	.LFB2294:
 110:../src/zxing_lib/zxing/pdf417/PDF417Reader.cpp ****   int x = leftTopBlack[0];
 2886              		.loc 5 110 0
 2887              		.cfi_startproc
 2888              		@ args = 0, pretend = 0, frame = 0
 2889              		@ frame_needed = 0, uses_anonymous_args = 0
 2890              	.LVL238:
 110:../src/zxing_lib/zxing/pdf417/PDF417Reader.cpp ****   int x = leftTopBlack[0];
 2891              		.loc 5 110 0
 2892 0000 F0412DE9 		push	{r4, r5, r6, r7, r8, lr}
 2893              		.save {r4, r5, r6, r7, r8, lr}
 2894              		.cfi_def_cfa_offset 24
 2895              		.cfi_offset 4, -24
 2896              		.cfi_offset 5, -20
 2897              		.cfi_offset 6, -16
 2898              		.cfi_offset 7, -12
 2899              		.cfi_offset 8, -8
 2900              		.cfi_offset 14, -4
 2901 0004 0070A0E1 		mov	r7, r0
 2902 0008 0150A0E1 		mov	r5, r1
 2903              	.LVL239:
 2904              	.LBB1051:
 2905              	.LBB1052:
 128:/home/zkmike/workspace/RZA2M/rza2m_2d_barcode_sample_freertos_gcc/src/zxing_lib/zxing/common/Array.h ****   }
 2906              		.loc 2 128 0
 2907 000c 083090E5 		ldr	r3, [r0, #8]
 2908              	.LVL240:
 2909              	.LBB1053:
 2910              	.LBB1054:
 2911              	.LBB1055:
 657:/home/zkmike/.local/share/renesas/e2_studio/toolchains/gcc_arm/gcc-arm-none-eabi-6-2017-q2-update/arm-none-eabi/include/c++/6.3.1/bits/stl_vector.h **** 
 658:/home/zkmike/.local/share/renesas/e2_studio/toolchains/gcc_arm/gcc-arm-none-eabi-6-2017-q2-update/arm-none-eabi/include/c++/6.3.1/bits/stl_vector.h ****       /**  Returns the size() of the largest possible %vector.  */
 659:/home/zkmike/.local/share/renesas/e2_studio/toolchains/gcc_arm/gcc-arm-none-eabi-6-2017-q2-update/arm-none-eabi/include/c++/6.3.1/bits/stl_vector.h ****       size_type
 660:/home/zkmike/.local/share/renesas/e2_studio/toolchains/gcc_arm/gcc-arm-none-eabi-6-2017-q2-update/arm-none-eabi/include/c++/6.3.1/bits/stl_vector.h ****       max_size() const _GLIBCXX_NOEXCEPT
 661:/home/zkmike/.local/share/renesas/e2_studio/toolchains/gcc_arm/gcc-arm-none-eabi-6-2017-q2-update/arm-none-eabi/include/c++/6.3.1/bits/stl_vector.h ****       { return _Alloc_traits::max_size(_M_get_Tp_allocator()); }
 662:/home/zkmike/.local/share/renesas/e2_studio/toolchains/gcc_arm/gcc-arm-none-eabi-6-2017-q2-update/arm-none-eabi/include/c++/6.3.1/bits/stl_vector.h **** 
 663:/home/zkmike/.local/share/renesas/e2_studio/toolchains/gcc_arm/gcc-arm-none-eabi-6-2017-q2-update/arm-none-eabi/include/c++/6.3.1/bits/stl_vector.h **** #if __cplusplus >= 201103L
 664:/home/zkmike/.local/share/renesas/e2_studio/toolchains/gcc_arm/gcc-arm-none-eabi-6-2017-q2-update/arm-none-eabi/include/c++/6.3.1/bits/stl_vector.h ****       /**
 665:/home/zkmike/.local/share/renesas/e2_studio/toolchains/gcc_arm/gcc-arm-none-eabi-6-2017-q2-update/arm-none-eabi/include/c++/6.3.1/bits/stl_vector.h ****        *  @brief  Resizes the %vector to the specified number of elements.
 666:/home/zkmike/.local/share/renesas/e2_studio/toolchains/gcc_arm/gcc-arm-none-eabi-6-2017-q2-update/arm-none-eabi/include/c++/6.3.1/bits/stl_vector.h ****        *  @param  __new_size  Number of elements the %vector should contain.
 667:/home/zkmike/.local/share/renesas/e2_studio/toolchains/gcc_arm/gcc-arm-none-eabi-6-2017-q2-update/arm-none-eabi/include/c++/6.3.1/bits/stl_vector.h ****        *
 668:/home/zkmike/.local/share/renesas/e2_studio/toolchains/gcc_arm/gcc-arm-none-eabi-6-2017-q2-update/arm-none-eabi/include/c++/6.3.1/bits/stl_vector.h ****        *  This function will %resize the %vector to the specified
 669:/home/zkmike/.local/share/renesas/e2_studio/toolchains/gcc_arm/gcc-arm-none-eabi-6-2017-q2-update/arm-none-eabi/include/c++/6.3.1/bits/stl_vector.h ****        *  number of elements.  If the number is smaller than the
 670:/home/zkmike/.local/share/renesas/e2_studio/toolchains/gcc_arm/gcc-arm-none-eabi-6-2017-q2-update/arm-none-eabi/include/c++/6.3.1/bits/stl_vector.h ****        *  %vector's current size the %vector is truncated, otherwise
 671:/home/zkmike/.local/share/renesas/e2_studio/toolchains/gcc_arm/gcc-arm-none-eabi-6-2017-q2-update/arm-none-eabi/include/c++/6.3.1/bits/stl_vector.h ****        *  default constructed elements are appended.
 672:/home/zkmike/.local/share/renesas/e2_studio/toolchains/gcc_arm/gcc-arm-none-eabi-6-2017-q2-update/arm-none-eabi/include/c++/6.3.1/bits/stl_vector.h ****        */
 673:/home/zkmike/.local/share/renesas/e2_studio/toolchains/gcc_arm/gcc-arm-none-eabi-6-2017-q2-update/arm-none-eabi/include/c++/6.3.1/bits/stl_vector.h ****       void
 674:/home/zkmike/.local/share/renesas/e2_studio/toolchains/gcc_arm/gcc-arm-none-eabi-6-2017-q2-update/arm-none-eabi/include/c++/6.3.1/bits/stl_vector.h ****       resize(size_type __new_size)
 675:/home/zkmike/.local/share/renesas/e2_studio/toolchains/gcc_arm/gcc-arm-none-eabi-6-2017-q2-update/arm-none-eabi/include/c++/6.3.1/bits/stl_vector.h ****       {
 676:/home/zkmike/.local/share/renesas/e2_studio/toolchains/gcc_arm/gcc-arm-none-eabi-6-2017-q2-update/arm-none-eabi/include/c++/6.3.1/bits/stl_vector.h **** 	if (__new_size > size())
 677:/home/zkmike/.local/share/renesas/e2_studio/toolchains/gcc_arm/gcc-arm-none-eabi-6-2017-q2-update/arm-none-eabi/include/c++/6.3.1/bits/stl_vector.h **** 	  _M_default_append(__new_size - size());
 678:/home/zkmike/.local/share/renesas/e2_studio/toolchains/gcc_arm/gcc-arm-none-eabi-6-2017-q2-update/arm-none-eabi/include/c++/6.3.1/bits/stl_vector.h **** 	else if (__new_size < size())
 679:/home/zkmike/.local/share/renesas/e2_studio/toolchains/gcc_arm/gcc-arm-none-eabi-6-2017-q2-update/arm-none-eabi/include/c++/6.3.1/bits/stl_vector.h **** 	  _M_erase_at_end(this->_M_impl._M_start + __new_size);
 680:/home/zkmike/.local/share/renesas/e2_studio/toolchains/gcc_arm/gcc-arm-none-eabi-6-2017-q2-update/arm-none-eabi/include/c++/6.3.1/bits/stl_vector.h ****       }
 681:/home/zkmike/.local/share/renesas/e2_studio/toolchains/gcc_arm/gcc-arm-none-eabi-6-2017-q2-update/arm-none-eabi/include/c++/6.3.1/bits/stl_vector.h **** 
 682:/home/zkmike/.local/share/renesas/e2_studio/toolchains/gcc_arm/gcc-arm-none-eabi-6-2017-q2-update/arm-none-eabi/include/c++/6.3.1/bits/stl_vector.h ****       /**
 683:/home/zkmike/.local/share/renesas/e2_studio/toolchains/gcc_arm/gcc-arm-none-eabi-6-2017-q2-update/arm-none-eabi/include/c++/6.3.1/bits/stl_vector.h ****        *  @brief  Resizes the %vector to the specified number of elements.
 684:/home/zkmike/.local/share/renesas/e2_studio/toolchains/gcc_arm/gcc-arm-none-eabi-6-2017-q2-update/arm-none-eabi/include/c++/6.3.1/bits/stl_vector.h ****        *  @param  __new_size  Number of elements the %vector should contain.
 685:/home/zkmike/.local/share/renesas/e2_studio/toolchains/gcc_arm/gcc-arm-none-eabi-6-2017-q2-update/arm-none-eabi/include/c++/6.3.1/bits/stl_vector.h ****        *  @param  __x  Data with which new elements should be populated.
 686:/home/zkmike/.local/share/renesas/e2_studio/toolchains/gcc_arm/gcc-arm-none-eabi-6-2017-q2-update/arm-none-eabi/include/c++/6.3.1/bits/stl_vector.h ****        *
 687:/home/zkmike/.local/share/renesas/e2_studio/toolchains/gcc_arm/gcc-arm-none-eabi-6-2017-q2-update/arm-none-eabi/include/c++/6.3.1/bits/stl_vector.h ****        *  This function will %resize the %vector to the specified
 688:/home/zkmike/.local/share/renesas/e2_studio/toolchains/gcc_arm/gcc-arm-none-eabi-6-2017-q2-update/arm-none-eabi/include/c++/6.3.1/bits/stl_vector.h ****        *  number of elements.  If the number is smaller than the
 689:/home/zkmike/.local/share/renesas/e2_studio/toolchains/gcc_arm/gcc-arm-none-eabi-6-2017-q2-update/arm-none-eabi/include/c++/6.3.1/bits/stl_vector.h ****        *  %vector's current size the %vector is truncated, otherwise
 690:/home/zkmike/.local/share/renesas/e2_studio/toolchains/gcc_arm/gcc-arm-none-eabi-6-2017-q2-update/arm-none-eabi/include/c++/6.3.1/bits/stl_vector.h ****        *  the %vector is extended and new elements are populated with
 691:/home/zkmike/.local/share/renesas/e2_studio/toolchains/gcc_arm/gcc-arm-none-eabi-6-2017-q2-update/arm-none-eabi/include/c++/6.3.1/bits/stl_vector.h ****        *  given data.
 692:/home/zkmike/.local/share/renesas/e2_studio/toolchains/gcc_arm/gcc-arm-none-eabi-6-2017-q2-update/arm-none-eabi/include/c++/6.3.1/bits/stl_vector.h ****        */
 693:/home/zkmike/.local/share/renesas/e2_studio/toolchains/gcc_arm/gcc-arm-none-eabi-6-2017-q2-update/arm-none-eabi/include/c++/6.3.1/bits/stl_vector.h ****       void
 694:/home/zkmike/.local/share/renesas/e2_studio/toolchains/gcc_arm/gcc-arm-none-eabi-6-2017-q2-update/arm-none-eabi/include/c++/6.3.1/bits/stl_vector.h ****       resize(size_type __new_size, const value_type& __x)
 695:/home/zkmike/.local/share/renesas/e2_studio/toolchains/gcc_arm/gcc-arm-none-eabi-6-2017-q2-update/arm-none-eabi/include/c++/6.3.1/bits/stl_vector.h ****       {
 696:/home/zkmike/.local/share/renesas/e2_studio/toolchains/gcc_arm/gcc-arm-none-eabi-6-2017-q2-update/arm-none-eabi/include/c++/6.3.1/bits/stl_vector.h **** 	if (__new_size > size())
 697:/home/zkmike/.local/share/renesas/e2_studio/toolchains/gcc_arm/gcc-arm-none-eabi-6-2017-q2-update/arm-none-eabi/include/c++/6.3.1/bits/stl_vector.h **** 	  insert(end(), __new_size - size(), __x);
 698:/home/zkmike/.local/share/renesas/e2_studio/toolchains/gcc_arm/gcc-arm-none-eabi-6-2017-q2-update/arm-none-eabi/include/c++/6.3.1/bits/stl_vector.h **** 	else if (__new_size < size())
 699:/home/zkmike/.local/share/renesas/e2_studio/toolchains/gcc_arm/gcc-arm-none-eabi-6-2017-q2-update/arm-none-eabi/include/c++/6.3.1/bits/stl_vector.h **** 	  _M_erase_at_end(this->_M_impl._M_start + __new_size);
 700:/home/zkmike/.local/share/renesas/e2_studio/toolchains/gcc_arm/gcc-arm-none-eabi-6-2017-q2-update/arm-none-eabi/include/c++/6.3.1/bits/stl_vector.h ****       }
 701:/home/zkmike/.local/share/renesas/e2_studio/toolchains/gcc_arm/gcc-arm-none-eabi-6-2017-q2-update/arm-none-eabi/include/c++/6.3.1/bits/stl_vector.h **** #else
 702:/home/zkmike/.local/share/renesas/e2_studio/toolchains/gcc_arm/gcc-arm-none-eabi-6-2017-q2-update/arm-none-eabi/include/c++/6.3.1/bits/stl_vector.h ****       /**
 703:/home/zkmike/.local/share/renesas/e2_studio/toolchains/gcc_arm/gcc-arm-none-eabi-6-2017-q2-update/arm-none-eabi/include/c++/6.3.1/bits/stl_vector.h ****        *  @brief  Resizes the %vector to the specified number of elements.
 704:/home/zkmike/.local/share/renesas/e2_studio/toolchains/gcc_arm/gcc-arm-none-eabi-6-2017-q2-update/arm-none-eabi/include/c++/6.3.1/bits/stl_vector.h ****        *  @param  __new_size  Number of elements the %vector should contain.
 705:/home/zkmike/.local/share/renesas/e2_studio/toolchains/gcc_arm/gcc-arm-none-eabi-6-2017-q2-update/arm-none-eabi/include/c++/6.3.1/bits/stl_vector.h ****        *  @param  __x  Data with which new elements should be populated.
 706:/home/zkmike/.local/share/renesas/e2_studio/toolchains/gcc_arm/gcc-arm-none-eabi-6-2017-q2-update/arm-none-eabi/include/c++/6.3.1/bits/stl_vector.h ****        *
 707:/home/zkmike/.local/share/renesas/e2_studio/toolchains/gcc_arm/gcc-arm-none-eabi-6-2017-q2-update/arm-none-eabi/include/c++/6.3.1/bits/stl_vector.h ****        *  This function will %resize the %vector to the specified
 708:/home/zkmike/.local/share/renesas/e2_studio/toolchains/gcc_arm/gcc-arm-none-eabi-6-2017-q2-update/arm-none-eabi/include/c++/6.3.1/bits/stl_vector.h ****        *  number of elements.  If the number is smaller than the
 709:/home/zkmike/.local/share/renesas/e2_studio/toolchains/gcc_arm/gcc-arm-none-eabi-6-2017-q2-update/arm-none-eabi/include/c++/6.3.1/bits/stl_vector.h ****        *  %vector's current size the %vector is truncated, otherwise
 710:/home/zkmike/.local/share/renesas/e2_studio/toolchains/gcc_arm/gcc-arm-none-eabi-6-2017-q2-update/arm-none-eabi/include/c++/6.3.1/bits/stl_vector.h ****        *  the %vector is extended and new elements are populated with
 711:/home/zkmike/.local/share/renesas/e2_studio/toolchains/gcc_arm/gcc-arm-none-eabi-6-2017-q2-update/arm-none-eabi/include/c++/6.3.1/bits/stl_vector.h ****        *  given data.
 712:/home/zkmike/.local/share/renesas/e2_studio/toolchains/gcc_arm/gcc-arm-none-eabi-6-2017-q2-update/arm-none-eabi/include/c++/6.3.1/bits/stl_vector.h ****        */
 713:/home/zkmike/.local/share/renesas/e2_studio/toolchains/gcc_arm/gcc-arm-none-eabi-6-2017-q2-update/arm-none-eabi/include/c++/6.3.1/bits/stl_vector.h ****       void
 714:/home/zkmike/.local/share/renesas/e2_studio/toolchains/gcc_arm/gcc-arm-none-eabi-6-2017-q2-update/arm-none-eabi/include/c++/6.3.1/bits/stl_vector.h ****       resize(size_type __new_size, value_type __x = value_type())
 715:/home/zkmike/.local/share/renesas/e2_studio/toolchains/gcc_arm/gcc-arm-none-eabi-6-2017-q2-update/arm-none-eabi/include/c++/6.3.1/bits/stl_vector.h ****       {
 716:/home/zkmike/.local/share/renesas/e2_studio/toolchains/gcc_arm/gcc-arm-none-eabi-6-2017-q2-update/arm-none-eabi/include/c++/6.3.1/bits/stl_vector.h **** 	if (__new_size > size())
 717:/home/zkmike/.local/share/renesas/e2_studio/toolchains/gcc_arm/gcc-arm-none-eabi-6-2017-q2-update/arm-none-eabi/include/c++/6.3.1/bits/stl_vector.h **** 	  insert(end(), __new_size - size(), __x);
 718:/home/zkmike/.local/share/renesas/e2_studio/toolchains/gcc_arm/gcc-arm-none-eabi-6-2017-q2-update/arm-none-eabi/include/c++/6.3.1/bits/stl_vector.h **** 	else if (__new_size < size())
 719:/home/zkmike/.local/share/renesas/e2_studio/toolchains/gcc_arm/gcc-arm-none-eabi-6-2017-q2-update/arm-none-eabi/include/c++/6.3.1/bits/stl_vector.h **** 	  _M_erase_at_end(this->_M_impl._M_start + __new_size);
 720:/home/zkmike/.local/share/renesas/e2_studio/toolchains/gcc_arm/gcc-arm-none-eabi-6-2017-q2-update/arm-none-eabi/include/c++/6.3.1/bits/stl_vector.h ****       }
 721:/home/zkmike/.local/share/renesas/e2_studio/toolchains/gcc_arm/gcc-arm-none-eabi-6-2017-q2-update/arm-none-eabi/include/c++/6.3.1/bits/stl_vector.h **** #endif
 722:/home/zkmike/.local/share/renesas/e2_studio/toolchains/gcc_arm/gcc-arm-none-eabi-6-2017-q2-update/arm-none-eabi/include/c++/6.3.1/bits/stl_vector.h **** 
 723:/home/zkmike/.local/share/renesas/e2_studio/toolchains/gcc_arm/gcc-arm-none-eabi-6-2017-q2-update/arm-none-eabi/include/c++/6.3.1/bits/stl_vector.h **** #if __cplusplus >= 201103L
 724:/home/zkmike/.local/share/renesas/e2_studio/toolchains/gcc_arm/gcc-arm-none-eabi-6-2017-q2-update/arm-none-eabi/include/c++/6.3.1/bits/stl_vector.h ****       /**  A non-binding request to reduce capacity() to size().  */
 725:/home/zkmike/.local/share/renesas/e2_studio/toolchains/gcc_arm/gcc-arm-none-eabi-6-2017-q2-update/arm-none-eabi/include/c++/6.3.1/bits/stl_vector.h ****       void
 726:/home/zkmike/.local/share/renesas/e2_studio/toolchains/gcc_arm/gcc-arm-none-eabi-6-2017-q2-update/arm-none-eabi/include/c++/6.3.1/bits/stl_vector.h ****       shrink_to_fit()
 727:/home/zkmike/.local/share/renesas/e2_studio/toolchains/gcc_arm/gcc-arm-none-eabi-6-2017-q2-update/arm-none-eabi/include/c++/6.3.1/bits/stl_vector.h ****       { _M_shrink_to_fit(); }
 728:/home/zkmike/.local/share/renesas/e2_studio/toolchains/gcc_arm/gcc-arm-none-eabi-6-2017-q2-update/arm-none-eabi/include/c++/6.3.1/bits/stl_vector.h **** #endif
 729:/home/zkmike/.local/share/renesas/e2_studio/toolchains/gcc_arm/gcc-arm-none-eabi-6-2017-q2-update/arm-none-eabi/include/c++/6.3.1/bits/stl_vector.h **** 
 730:/home/zkmike/.local/share/renesas/e2_studio/toolchains/gcc_arm/gcc-arm-none-eabi-6-2017-q2-update/arm-none-eabi/include/c++/6.3.1/bits/stl_vector.h ****       /**
 731:/home/zkmike/.local/share/renesas/e2_studio/toolchains/gcc_arm/gcc-arm-none-eabi-6-2017-q2-update/arm-none-eabi/include/c++/6.3.1/bits/stl_vector.h ****        *  Returns the total number of elements that the %vector can
 732:/home/zkmike/.local/share/renesas/e2_studio/toolchains/gcc_arm/gcc-arm-none-eabi-6-2017-q2-update/arm-none-eabi/include/c++/6.3.1/bits/stl_vector.h ****        *  hold before needing to allocate more memory.
 733:/home/zkmike/.local/share/renesas/e2_studio/toolchains/gcc_arm/gcc-arm-none-eabi-6-2017-q2-update/arm-none-eabi/include/c++/6.3.1/bits/stl_vector.h ****        */
 734:/home/zkmike/.local/share/renesas/e2_studio/toolchains/gcc_arm/gcc-arm-none-eabi-6-2017-q2-update/arm-none-eabi/include/c++/6.3.1/bits/stl_vector.h ****       size_type
 735:/home/zkmike/.local/share/renesas/e2_studio/toolchains/gcc_arm/gcc-arm-none-eabi-6-2017-q2-update/arm-none-eabi/include/c++/6.3.1/bits/stl_vector.h ****       capacity() const _GLIBCXX_NOEXCEPT
 736:/home/zkmike/.local/share/renesas/e2_studio/toolchains/gcc_arm/gcc-arm-none-eabi-6-2017-q2-update/arm-none-eabi/include/c++/6.3.1/bits/stl_vector.h ****       { return size_type(this->_M_impl._M_end_of_storage
 737:/home/zkmike/.local/share/renesas/e2_studio/toolchains/gcc_arm/gcc-arm-none-eabi-6-2017-q2-update/arm-none-eabi/include/c++/6.3.1/bits/stl_vector.h **** 			 - this->_M_impl._M_start); }
 738:/home/zkmike/.local/share/renesas/e2_studio/toolchains/gcc_arm/gcc-arm-none-eabi-6-2017-q2-update/arm-none-eabi/include/c++/6.3.1/bits/stl_vector.h **** 
 739:/home/zkmike/.local/share/renesas/e2_studio/toolchains/gcc_arm/gcc-arm-none-eabi-6-2017-q2-update/arm-none-eabi/include/c++/6.3.1/bits/stl_vector.h ****       /**
 740:/home/zkmike/.local/share/renesas/e2_studio/toolchains/gcc_arm/gcc-arm-none-eabi-6-2017-q2-update/arm-none-eabi/include/c++/6.3.1/bits/stl_vector.h ****        *  Returns true if the %vector is empty.  (Thus begin() would
 741:/home/zkmike/.local/share/renesas/e2_studio/toolchains/gcc_arm/gcc-arm-none-eabi-6-2017-q2-update/arm-none-eabi/include/c++/6.3.1/bits/stl_vector.h ****        *  equal end().)
 742:/home/zkmike/.local/share/renesas/e2_studio/toolchains/gcc_arm/gcc-arm-none-eabi-6-2017-q2-update/arm-none-eabi/include/c++/6.3.1/bits/stl_vector.h ****        */
 743:/home/zkmike/.local/share/renesas/e2_studio/toolchains/gcc_arm/gcc-arm-none-eabi-6-2017-q2-update/arm-none-eabi/include/c++/6.3.1/bits/stl_vector.h ****       bool
 744:/home/zkmike/.local/share/renesas/e2_studio/toolchains/gcc_arm/gcc-arm-none-eabi-6-2017-q2-update/arm-none-eabi/include/c++/6.3.1/bits/stl_vector.h ****       empty() const _GLIBCXX_NOEXCEPT
 745:/home/zkmike/.local/share/renesas/e2_studio/toolchains/gcc_arm/gcc-arm-none-eabi-6-2017-q2-update/arm-none-eabi/include/c++/6.3.1/bits/stl_vector.h ****       { return begin() == end(); }
 746:/home/zkmike/.local/share/renesas/e2_studio/toolchains/gcc_arm/gcc-arm-none-eabi-6-2017-q2-update/arm-none-eabi/include/c++/6.3.1/bits/stl_vector.h **** 
 747:/home/zkmike/.local/share/renesas/e2_studio/toolchains/gcc_arm/gcc-arm-none-eabi-6-2017-q2-update/arm-none-eabi/include/c++/6.3.1/bits/stl_vector.h ****       /**
 748:/home/zkmike/.local/share/renesas/e2_studio/toolchains/gcc_arm/gcc-arm-none-eabi-6-2017-q2-update/arm-none-eabi/include/c++/6.3.1/bits/stl_vector.h ****        *  @brief  Attempt to preallocate enough memory for specified number of
 749:/home/zkmike/.local/share/renesas/e2_studio/toolchains/gcc_arm/gcc-arm-none-eabi-6-2017-q2-update/arm-none-eabi/include/c++/6.3.1/bits/stl_vector.h ****        *          elements.
 750:/home/zkmike/.local/share/renesas/e2_studio/toolchains/gcc_arm/gcc-arm-none-eabi-6-2017-q2-update/arm-none-eabi/include/c++/6.3.1/bits/stl_vector.h ****        *  @param  __n  Number of elements required.
 751:/home/zkmike/.local/share/renesas/e2_studio/toolchains/gcc_arm/gcc-arm-none-eabi-6-2017-q2-update/arm-none-eabi/include/c++/6.3.1/bits/stl_vector.h ****        *  @throw  std::length_error  If @a n exceeds @c max_size().
 752:/home/zkmike/.local/share/renesas/e2_studio/toolchains/gcc_arm/gcc-arm-none-eabi-6-2017-q2-update/arm-none-eabi/include/c++/6.3.1/bits/stl_vector.h ****        *
 753:/home/zkmike/.local/share/renesas/e2_studio/toolchains/gcc_arm/gcc-arm-none-eabi-6-2017-q2-update/arm-none-eabi/include/c++/6.3.1/bits/stl_vector.h ****        *  This function attempts to reserve enough memory for the
 754:/home/zkmike/.local/share/renesas/e2_studio/toolchains/gcc_arm/gcc-arm-none-eabi-6-2017-q2-update/arm-none-eabi/include/c++/6.3.1/bits/stl_vector.h ****        *  %vector to hold the specified number of elements.  If the
 755:/home/zkmike/.local/share/renesas/e2_studio/toolchains/gcc_arm/gcc-arm-none-eabi-6-2017-q2-update/arm-none-eabi/include/c++/6.3.1/bits/stl_vector.h ****        *  number requested is more than max_size(), length_error is
 756:/home/zkmike/.local/share/renesas/e2_studio/toolchains/gcc_arm/gcc-arm-none-eabi-6-2017-q2-update/arm-none-eabi/include/c++/6.3.1/bits/stl_vector.h ****        *  thrown.
 757:/home/zkmike/.local/share/renesas/e2_studio/toolchains/gcc_arm/gcc-arm-none-eabi-6-2017-q2-update/arm-none-eabi/include/c++/6.3.1/bits/stl_vector.h ****        *
 758:/home/zkmike/.local/share/renesas/e2_studio/toolchains/gcc_arm/gcc-arm-none-eabi-6-2017-q2-update/arm-none-eabi/include/c++/6.3.1/bits/stl_vector.h ****        *  The advantage of this function is that if optimal code is a
 759:/home/zkmike/.local/share/renesas/e2_studio/toolchains/gcc_arm/gcc-arm-none-eabi-6-2017-q2-update/arm-none-eabi/include/c++/6.3.1/bits/stl_vector.h ****        *  necessity and the user can determine the number of elements
 760:/home/zkmike/.local/share/renesas/e2_studio/toolchains/gcc_arm/gcc-arm-none-eabi-6-2017-q2-update/arm-none-eabi/include/c++/6.3.1/bits/stl_vector.h ****        *  that will be required, the user can reserve the memory in
 761:/home/zkmike/.local/share/renesas/e2_studio/toolchains/gcc_arm/gcc-arm-none-eabi-6-2017-q2-update/arm-none-eabi/include/c++/6.3.1/bits/stl_vector.h ****        *  %advance, and thus prevent a possible reallocation of memory
 762:/home/zkmike/.local/share/renesas/e2_studio/toolchains/gcc_arm/gcc-arm-none-eabi-6-2017-q2-update/arm-none-eabi/include/c++/6.3.1/bits/stl_vector.h ****        *  and copying of %vector data.
 763:/home/zkmike/.local/share/renesas/e2_studio/toolchains/gcc_arm/gcc-arm-none-eabi-6-2017-q2-update/arm-none-eabi/include/c++/6.3.1/bits/stl_vector.h ****        */
 764:/home/zkmike/.local/share/renesas/e2_studio/toolchains/gcc_arm/gcc-arm-none-eabi-6-2017-q2-update/arm-none-eabi/include/c++/6.3.1/bits/stl_vector.h ****       void
 765:/home/zkmike/.local/share/renesas/e2_studio/toolchains/gcc_arm/gcc-arm-none-eabi-6-2017-q2-update/arm-none-eabi/include/c++/6.3.1/bits/stl_vector.h ****       reserve(size_type __n);
 766:/home/zkmike/.local/share/renesas/e2_studio/toolchains/gcc_arm/gcc-arm-none-eabi-6-2017-q2-update/arm-none-eabi/include/c++/6.3.1/bits/stl_vector.h **** 
 767:/home/zkmike/.local/share/renesas/e2_studio/toolchains/gcc_arm/gcc-arm-none-eabi-6-2017-q2-update/arm-none-eabi/include/c++/6.3.1/bits/stl_vector.h ****       // element access
 768:/home/zkmike/.local/share/renesas/e2_studio/toolchains/gcc_arm/gcc-arm-none-eabi-6-2017-q2-update/arm-none-eabi/include/c++/6.3.1/bits/stl_vector.h ****       /**
 769:/home/zkmike/.local/share/renesas/e2_studio/toolchains/gcc_arm/gcc-arm-none-eabi-6-2017-q2-update/arm-none-eabi/include/c++/6.3.1/bits/stl_vector.h ****        *  @brief  Subscript access to the data contained in the %vector.
 770:/home/zkmike/.local/share/renesas/e2_studio/toolchains/gcc_arm/gcc-arm-none-eabi-6-2017-q2-update/arm-none-eabi/include/c++/6.3.1/bits/stl_vector.h ****        *  @param __n The index of the element for which data should be
 771:/home/zkmike/.local/share/renesas/e2_studio/toolchains/gcc_arm/gcc-arm-none-eabi-6-2017-q2-update/arm-none-eabi/include/c++/6.3.1/bits/stl_vector.h ****        *  accessed.
 772:/home/zkmike/.local/share/renesas/e2_studio/toolchains/gcc_arm/gcc-arm-none-eabi-6-2017-q2-update/arm-none-eabi/include/c++/6.3.1/bits/stl_vector.h ****        *  @return  Read/write reference to data.
 773:/home/zkmike/.local/share/renesas/e2_studio/toolchains/gcc_arm/gcc-arm-none-eabi-6-2017-q2-update/arm-none-eabi/include/c++/6.3.1/bits/stl_vector.h ****        *
 774:/home/zkmike/.local/share/renesas/e2_studio/toolchains/gcc_arm/gcc-arm-none-eabi-6-2017-q2-update/arm-none-eabi/include/c++/6.3.1/bits/stl_vector.h ****        *  This operator allows for easy, array-style, data access.
 775:/home/zkmike/.local/share/renesas/e2_studio/toolchains/gcc_arm/gcc-arm-none-eabi-6-2017-q2-update/arm-none-eabi/include/c++/6.3.1/bits/stl_vector.h ****        *  Note that data access with this operator is unchecked and
 776:/home/zkmike/.local/share/renesas/e2_studio/toolchains/gcc_arm/gcc-arm-none-eabi-6-2017-q2-update/arm-none-eabi/include/c++/6.3.1/bits/stl_vector.h ****        *  out_of_range lookups are not defined. (For checked lookups
 777:/home/zkmike/.local/share/renesas/e2_studio/toolchains/gcc_arm/gcc-arm-none-eabi-6-2017-q2-update/arm-none-eabi/include/c++/6.3.1/bits/stl_vector.h ****        *  see at().)
 778:/home/zkmike/.local/share/renesas/e2_studio/toolchains/gcc_arm/gcc-arm-none-eabi-6-2017-q2-update/arm-none-eabi/include/c++/6.3.1/bits/stl_vector.h ****        */
 779:/home/zkmike/.local/share/renesas/e2_studio/toolchains/gcc_arm/gcc-arm-none-eabi-6-2017-q2-update/arm-none-eabi/include/c++/6.3.1/bits/stl_vector.h ****       reference
 780:/home/zkmike/.local/share/renesas/e2_studio/toolchains/gcc_arm/gcc-arm-none-eabi-6-2017-q2-update/arm-none-eabi/include/c++/6.3.1/bits/stl_vector.h ****       operator[](size_type __n) _GLIBCXX_NOEXCEPT
 781:/home/zkmike/.local/share/renesas/e2_studio/toolchains/gcc_arm/gcc-arm-none-eabi-6-2017-q2-update/arm-none-eabi/include/c++/6.3.1/bits/stl_vector.h ****       { return *(this->_M_impl._M_start + __n); }
 2912              		.loc 8 781 0
 2913 0010 083093E5 		ldr	r3, [r3, #8]
 2914              	.LVL241:
 2915              	.LBE1055:
 2916              	.LBE1054:
 2917              	.LBE1053:
 2918              	.LBE1052:
 2919              	.LBE1051:
 111:../src/zxing_lib/zxing/pdf417/PDF417Reader.cpp ****   int y = leftTopBlack[1];
 2920              		.loc 5 111 0
 2921 0014 004093E5 		ldr	r4, [r3]
 2922              	.LVL242:
 112:../src/zxing_lib/zxing/pdf417/PDF417Reader.cpp ****   int width = image->getWidth();
 2923              		.loc 5 112 0
 2924 0018 046093E5 		ldr	r6, [r3, #4]
 2925              	.LVL243:
 113:../src/zxing_lib/zxing/pdf417/PDF417Reader.cpp ****   while (x < width && image->get(x, y)) {
 2926              		.loc 5 113 0
 2927 001c 000091E5 		ldr	r0, [r1]
 2928              	.LVL244:
 2929 0020 FEFFFFEB 		bl	_ZNK5zxing9BitMatrix8getWidthEv
 2930              	.LVL245:
 2931 0024 030000EA 		b	.L198
 2932              	.L201:
 114:../src/zxing_lib/zxing/pdf417/PDF417Reader.cpp ****     x++;
 2933              		.loc 5 114 0
 2934 0028 0030A0E3 		mov	r3, #0
 2935              	.L196:
 114:../src/zxing_lib/zxing/pdf417/PDF417Reader.cpp ****     x++;
 2936              		.loc 5 114 0 is_stmt 0 discriminator 6
 2937 002c 000053E3 		cmp	r3, #0
 2938 0030 1000000A 		beq	.L197
 115:../src/zxing_lib/zxing/pdf417/PDF417Reader.cpp ****   }
 2939              		.loc 5 115 0 is_stmt 1
 2940 0034 014084E2 		add	r4, r4, #1
 2941              	.LVL246:
 2942              	.L198:
 114:../src/zxing_lib/zxing/pdf417/PDF417Reader.cpp ****     x++;
 2943              		.loc 5 114 0
 2944 0038 000054E1 		cmp	r4, r0
 2945 003c F9FFFFAA 		bge	.L201
 2946              	.LVL247:
 2947              	.LBB1056:
 2948              	.LBB1057:
 112:/home/zkmike/workspace/RZA2M/rza2m_2d_barcode_sample_freertos_gcc/src/zxing_lib/zxing/common/Counted.h ****   }
 2949              		.loc 3 112 0
 2950 0040 002095E5 		ldr	r2, [r5]
 2951              	.LVL248:
 2952              	.LBE1057:
 2953              	.LBE1056:
 2954              	.LBB1058:
 2955              	.LBB1059:
 2956              		.file 11 "/home/zkmike/workspace/RZA2M/rza2m_2d_barcode_sample_freertos_gcc/src/zxing_lib/zxing/co
   1:/home/zkmike/workspace/RZA2M/rza2m_2d_barcode_sample_freertos_gcc/src/zxing_lib/zxing/common/BitMatrix.h **** // -*- mode:c++; tab-width:2; indent-tabs-mode:nil; c-basic-offset:2 -*-
   2:/home/zkmike/workspace/RZA2M/rza2m_2d_barcode_sample_freertos_gcc/src/zxing_lib/zxing/common/BitMatrix.h **** #ifndef __BIT_MATRIX_H__
   3:/home/zkmike/workspace/RZA2M/rza2m_2d_barcode_sample_freertos_gcc/src/zxing_lib/zxing/common/BitMatrix.h **** #define __BIT_MATRIX_H__
   4:/home/zkmike/workspace/RZA2M/rza2m_2d_barcode_sample_freertos_gcc/src/zxing_lib/zxing/common/BitMatrix.h **** 
   5:/home/zkmike/workspace/RZA2M/rza2m_2d_barcode_sample_freertos_gcc/src/zxing_lib/zxing/common/BitMatrix.h **** /*
   6:/home/zkmike/workspace/RZA2M/rza2m_2d_barcode_sample_freertos_gcc/src/zxing_lib/zxing/common/BitMatrix.h ****  *  BitMatrix.h
   7:/home/zkmike/workspace/RZA2M/rza2m_2d_barcode_sample_freertos_gcc/src/zxing_lib/zxing/common/BitMatrix.h ****  *  zxing
   8:/home/zkmike/workspace/RZA2M/rza2m_2d_barcode_sample_freertos_gcc/src/zxing_lib/zxing/common/BitMatrix.h ****  *
   9:/home/zkmike/workspace/RZA2M/rza2m_2d_barcode_sample_freertos_gcc/src/zxing_lib/zxing/common/BitMatrix.h ****  *  Copyright 2010 ZXing authors All rights reserved.
  10:/home/zkmike/workspace/RZA2M/rza2m_2d_barcode_sample_freertos_gcc/src/zxing_lib/zxing/common/BitMatrix.h ****  *
  11:/home/zkmike/workspace/RZA2M/rza2m_2d_barcode_sample_freertos_gcc/src/zxing_lib/zxing/common/BitMatrix.h ****  * Licensed under the Apache License, Version 2.0 (the "License");
  12:/home/zkmike/workspace/RZA2M/rza2m_2d_barcode_sample_freertos_gcc/src/zxing_lib/zxing/common/BitMatrix.h ****  * you may not use this file except in compliance with the License.
  13:/home/zkmike/workspace/RZA2M/rza2m_2d_barcode_sample_freertos_gcc/src/zxing_lib/zxing/common/BitMatrix.h ****  * You may obtain a copy of the License at
  14:/home/zkmike/workspace/RZA2M/rza2m_2d_barcode_sample_freertos_gcc/src/zxing_lib/zxing/common/BitMatrix.h ****  *
  15:/home/zkmike/workspace/RZA2M/rza2m_2d_barcode_sample_freertos_gcc/src/zxing_lib/zxing/common/BitMatrix.h ****  *      http://www.apache.org/licenses/LICENSE-2.0
  16:/home/zkmike/workspace/RZA2M/rza2m_2d_barcode_sample_freertos_gcc/src/zxing_lib/zxing/common/BitMatrix.h ****  *
  17:/home/zkmike/workspace/RZA2M/rza2m_2d_barcode_sample_freertos_gcc/src/zxing_lib/zxing/common/BitMatrix.h ****  * Unless required by applicable law or agreed to in writing, software
  18:/home/zkmike/workspace/RZA2M/rza2m_2d_barcode_sample_freertos_gcc/src/zxing_lib/zxing/common/BitMatrix.h ****  * distributed under the License is distributed on an "AS IS" BASIS,
  19:/home/zkmike/workspace/RZA2M/rza2m_2d_barcode_sample_freertos_gcc/src/zxing_lib/zxing/common/BitMatrix.h ****  * WITHOUT WARRANTIES OR CONDITIONS OF ANY KIND, either express or implied.
  20:/home/zkmike/workspace/RZA2M/rza2m_2d_barcode_sample_freertos_gcc/src/zxing_lib/zxing/common/BitMatrix.h ****  * See the License for the specific language governing permissions and
  21:/home/zkmike/workspace/RZA2M/rza2m_2d_barcode_sample_freertos_gcc/src/zxing_lib/zxing/common/BitMatrix.h ****  * limitations under the License.
  22:/home/zkmike/workspace/RZA2M/rza2m_2d_barcode_sample_freertos_gcc/src/zxing_lib/zxing/common/BitMatrix.h ****  */
  23:/home/zkmike/workspace/RZA2M/rza2m_2d_barcode_sample_freertos_gcc/src/zxing_lib/zxing/common/BitMatrix.h **** 
  24:/home/zkmike/workspace/RZA2M/rza2m_2d_barcode_sample_freertos_gcc/src/zxing_lib/zxing/common/BitMatrix.h **** #include <zxing/common/Counted.h>
  25:/home/zkmike/workspace/RZA2M/rza2m_2d_barcode_sample_freertos_gcc/src/zxing_lib/zxing/common/BitMatrix.h **** #include <zxing/common/BitArray.h>
  26:/home/zkmike/workspace/RZA2M/rza2m_2d_barcode_sample_freertos_gcc/src/zxing_lib/zxing/common/BitMatrix.h **** #include <zxing/common/Array.h>
  27:/home/zkmike/workspace/RZA2M/rza2m_2d_barcode_sample_freertos_gcc/src/zxing_lib/zxing/common/BitMatrix.h **** #include <limits>
  28:/home/zkmike/workspace/RZA2M/rza2m_2d_barcode_sample_freertos_gcc/src/zxing_lib/zxing/common/BitMatrix.h **** 
  29:/home/zkmike/workspace/RZA2M/rza2m_2d_barcode_sample_freertos_gcc/src/zxing_lib/zxing/common/BitMatrix.h **** namespace zxing {
  30:/home/zkmike/workspace/RZA2M/rza2m_2d_barcode_sample_freertos_gcc/src/zxing_lib/zxing/common/BitMatrix.h **** 
  31:/home/zkmike/workspace/RZA2M/rza2m_2d_barcode_sample_freertos_gcc/src/zxing_lib/zxing/common/BitMatrix.h **** class BitMatrix : public Counted {
  32:/home/zkmike/workspace/RZA2M/rza2m_2d_barcode_sample_freertos_gcc/src/zxing_lib/zxing/common/BitMatrix.h **** public:
  33:/home/zkmike/workspace/RZA2M/rza2m_2d_barcode_sample_freertos_gcc/src/zxing_lib/zxing/common/BitMatrix.h ****   static const int bitsPerWord = std::numeric_limits<unsigned int>::digits;
  34:/home/zkmike/workspace/RZA2M/rza2m_2d_barcode_sample_freertos_gcc/src/zxing_lib/zxing/common/BitMatrix.h **** 
  35:/home/zkmike/workspace/RZA2M/rza2m_2d_barcode_sample_freertos_gcc/src/zxing_lib/zxing/common/BitMatrix.h **** private:
  36:/home/zkmike/workspace/RZA2M/rza2m_2d_barcode_sample_freertos_gcc/src/zxing_lib/zxing/common/BitMatrix.h ****   int width;
  37:/home/zkmike/workspace/RZA2M/rza2m_2d_barcode_sample_freertos_gcc/src/zxing_lib/zxing/common/BitMatrix.h ****   int height;
  38:/home/zkmike/workspace/RZA2M/rza2m_2d_barcode_sample_freertos_gcc/src/zxing_lib/zxing/common/BitMatrix.h ****   int rowSize;
  39:/home/zkmike/workspace/RZA2M/rza2m_2d_barcode_sample_freertos_gcc/src/zxing_lib/zxing/common/BitMatrix.h ****   ArrayRef<int> bits;
  40:/home/zkmike/workspace/RZA2M/rza2m_2d_barcode_sample_freertos_gcc/src/zxing_lib/zxing/common/BitMatrix.h **** 
  41:/home/zkmike/workspace/RZA2M/rza2m_2d_barcode_sample_freertos_gcc/src/zxing_lib/zxing/common/BitMatrix.h **** #define ZX_LOG_DIGITS(digits) \
  42:/home/zkmike/workspace/RZA2M/rza2m_2d_barcode_sample_freertos_gcc/src/zxing_lib/zxing/common/BitMatrix.h ****     ((digits == 8) ? 3 : \
  43:/home/zkmike/workspace/RZA2M/rza2m_2d_barcode_sample_freertos_gcc/src/zxing_lib/zxing/common/BitMatrix.h ****      ((digits == 16) ? 4 : \
  44:/home/zkmike/workspace/RZA2M/rza2m_2d_barcode_sample_freertos_gcc/src/zxing_lib/zxing/common/BitMatrix.h ****       ((digits == 32) ? 5 : \
  45:/home/zkmike/workspace/RZA2M/rza2m_2d_barcode_sample_freertos_gcc/src/zxing_lib/zxing/common/BitMatrix.h ****        ((digits == 64) ? 6 : \
  46:/home/zkmike/workspace/RZA2M/rza2m_2d_barcode_sample_freertos_gcc/src/zxing_lib/zxing/common/BitMatrix.h ****         ((digits == 128) ? 7 : \
  47:/home/zkmike/workspace/RZA2M/rza2m_2d_barcode_sample_freertos_gcc/src/zxing_lib/zxing/common/BitMatrix.h ****          (-1))))))
  48:/home/zkmike/workspace/RZA2M/rza2m_2d_barcode_sample_freertos_gcc/src/zxing_lib/zxing/common/BitMatrix.h **** 
  49:/home/zkmike/workspace/RZA2M/rza2m_2d_barcode_sample_freertos_gcc/src/zxing_lib/zxing/common/BitMatrix.h ****   static const int logBits = ZX_LOG_DIGITS(bitsPerWord);
  50:/home/zkmike/workspace/RZA2M/rza2m_2d_barcode_sample_freertos_gcc/src/zxing_lib/zxing/common/BitMatrix.h ****   static const int bitsMask = (1 << logBits) - 1;
  51:/home/zkmike/workspace/RZA2M/rza2m_2d_barcode_sample_freertos_gcc/src/zxing_lib/zxing/common/BitMatrix.h **** 
  52:/home/zkmike/workspace/RZA2M/rza2m_2d_barcode_sample_freertos_gcc/src/zxing_lib/zxing/common/BitMatrix.h **** public:
  53:/home/zkmike/workspace/RZA2M/rza2m_2d_barcode_sample_freertos_gcc/src/zxing_lib/zxing/common/BitMatrix.h ****   BitMatrix(int dimension);
  54:/home/zkmike/workspace/RZA2M/rza2m_2d_barcode_sample_freertos_gcc/src/zxing_lib/zxing/common/BitMatrix.h ****   BitMatrix(int width, int height);
  55:/home/zkmike/workspace/RZA2M/rza2m_2d_barcode_sample_freertos_gcc/src/zxing_lib/zxing/common/BitMatrix.h **** 
  56:/home/zkmike/workspace/RZA2M/rza2m_2d_barcode_sample_freertos_gcc/src/zxing_lib/zxing/common/BitMatrix.h ****   ~BitMatrix();
  57:/home/zkmike/workspace/RZA2M/rza2m_2d_barcode_sample_freertos_gcc/src/zxing_lib/zxing/common/BitMatrix.h **** 
  58:/home/zkmike/workspace/RZA2M/rza2m_2d_barcode_sample_freertos_gcc/src/zxing_lib/zxing/common/BitMatrix.h ****   bool get(int x, int y) const {
  59:/home/zkmike/workspace/RZA2M/rza2m_2d_barcode_sample_freertos_gcc/src/zxing_lib/zxing/common/BitMatrix.h ****     int offset = y * rowSize + (x >> logBits);
 2957              		.loc 11 59 0
 2958 0044 103092E5 		ldr	r3, [r2, #16]
 2959 0048 C412A0E1 		asr	r1, r4, #5
 2960 004c 931623E0 		mla	r3, r3, r6, r1
 2961              	.LVL249:
 2962              	.LBB1060:
 2963              	.LBB1061:
 124:/home/zkmike/workspace/RZA2M/rza2m_2d_barcode_sample_freertos_gcc/src/zxing_lib/zxing/common/Array.h ****   }
 2964              		.loc 2 124 0
 2965 0050 1C2092E5 		ldr	r2, [r2, #28]
 2966              	.LVL250:
 2967              	.LBB1062:
 2968              	.LBB1063:
 2969              	.LBB1064:
 2970              	.LBB1065:
 2971              		.loc 8 781 0
 2972 0054 082092E5 		ldr	r2, [r2, #8]
 2973              	.LVL251:
 2974              	.LBE1065:
 2975              	.LBE1064:
 2976              	.LBE1063:
 2977              	.LBE1062:
 2978              	.LBE1061:
 2979              	.LBE1060:
  60:/home/zkmike/workspace/RZA2M/rza2m_2d_barcode_sample_freertos_gcc/src/zxing_lib/zxing/common/BitMatrix.h ****     return ((((unsigned)bits[offset]) >> (x & bitsMask)) & 1) != 0;
 2980              		.loc 11 60 0
 2981 0058 033192E7 		ldr	r3, [r2, r3, lsl #2]
 2982              	.LVL252:
 2983 005c 1F2004E2 		and	r2, r4, #31
 2984 0060 3332A0E1 		lsr	r3, r3, r2
 2985              	.LVL253:
 2986              	.LBE1059:
 2987              	.LBE1058:
 114:../src/zxing_lib/zxing/pdf417/PDF417Reader.cpp ****     x++;
 2988              		.loc 5 114 0
 2989 0064 010013E3 		tst	r3, #1
 2990 0068 0130A013 		movne	r3, #1
 2991 006c EEFFFF1A 		bne	.L196
 2992              	.L202:
 2993 0070 0030A0E3 		mov	r3, #0
 2994 0074 ECFFFFEA 		b	.L196
 2995              	.L197:
 117:../src/zxing_lib/zxing/pdf417/PDF417Reader.cpp ****     throw NotFoundException("PDF417Reader::moduleSize: not found!");
 2996              		.loc 5 117 0
 2997 0078 000054E1 		cmp	r4, r0
 2998 007c 1300000A 		beq	.L204
 2999              	.LVL254:
 3000              	.LBB1066:
 3001              	.LBB1067:
 128:/home/zkmike/workspace/RZA2M/rza2m_2d_barcode_sample_freertos_gcc/src/zxing_lib/zxing/common/Array.h ****   }
 3002              		.loc 2 128 0
 3003 0080 083097E5 		ldr	r3, [r7, #8]
 3004              	.LVL255:
 3005              	.LBB1068:
 3006              	.LBB1069:
 3007              	.LBB1070:
 3008              		.loc 8 781 0
 3009 0084 083093E5 		ldr	r3, [r3, #8]
 3010              	.LVL256:
 3011              	.LBE1070:
 3012              	.LBE1069:
 3013              	.LBE1068:
 3014              	.LBE1067:
 3015              	.LBE1066:
 121:../src/zxing_lib/zxing/pdf417/PDF417Reader.cpp ****   if (moduleSize == 0) {
 3016              		.loc 5 121 0
 3017 0088 000093E5 		ldr	r0, [r3]
 3018              	.LVL257:
 3019 008c 004044E0 		sub	r4, r4, r0
 3020              	.LVL258:
 122:../src/zxing_lib/zxing/pdf417/PDF417Reader.cpp ****     throw NotFoundException("PDF417Reader::moduleSize: is zero!");
 3021              		.loc 5 122 0
 3022 0090 A401B0E1 		lsrs	r0, r4, #3
 3023              	.LVL259:
 3024 0094 F081BD18 		popne	{r4, r5, r6, r7, r8, pc}
 123:../src/zxing_lib/zxing/pdf417/PDF417Reader.cpp ****   }
 3025              		.loc 5 123 0
 3026 0098 0800A0E3 		mov	r0, #8
 3027              	.LVL260:
 3028 009c FEFFFFEB 		bl	__cxa_allocate_exception
 3029              	.LVL261:
 3030 00a0 0040A0E1 		mov	r4, r0
 3031              	.LVL262:
 3032              	.LBB1071:
 3033              	.LBB1072:
 3034              	.LBB1073:
 3035              	.LBB1074:
  31:/home/zkmike/workspace/RZA2M/rza2m_2d_barcode_sample_freertos_gcc/src/zxing_lib/zxing/ReaderException.h ****   ~ReaderException() throw() {}
 3036              		.loc 10 31 0
 3037 00a4 001000E3 		movw	r1, #:lower16:.LC2
 3038 00a8 001040E3 		movt	r1, #:upper16:.LC2
 3039 00ac FEFFFFEB 		bl	_ZN5zxing9ExceptionC2EPKc
 3040              	.LVL263:
 3041              	.LBE1074:
 3042              	.LBE1073:
  29:/home/zkmike/workspace/RZA2M/rza2m_2d_barcode_sample_freertos_gcc/src/zxing_lib/zxing/NotFoundException.h ****   ~NotFoundException() throw() {}
 3043              		.loc 9 29 0
 3044 00b0 50309FE5 		ldr	r3, .L205
 3045 00b4 003084E5 		str	r3, [r4]
 3046              	.LVL264:
 3047              	.LBE1072:
 3048              	.LBE1071:
 123:../src/zxing_lib/zxing/pdf417/PDF417Reader.cpp ****   }
 3049              		.loc 5 123 0
 3050 00b8 002000E3 		movw	r2, #:lower16:_ZN5zxing17NotFoundExceptionD1Ev
 3051 00bc 002040E3 		movt	r2, #:upper16:_ZN5zxing17NotFoundExceptionD1Ev
 3052 00c0 001000E3 		movw	r1, #:lower16:_ZTIN5zxing17NotFoundExceptionE
 3053 00c4 001040E3 		movt	r1, #:upper16:_ZTIN5zxing17NotFoundExceptionE
 3054 00c8 0400A0E1 		mov	r0, r4
 3055 00cc FEFFFFEB 		bl	__cxa_throw
 3056              	.LVL265:
 3057              	.L204:
 118:../src/zxing_lib/zxing/pdf417/PDF417Reader.cpp ****   }
 3058              		.loc 5 118 0
 3059 00d0 0800A0E3 		mov	r0, #8
 3060              	.LVL266:
 3061 00d4 FEFFFFEB 		bl	__cxa_allocate_exception
 3062              	.LVL267:
 3063 00d8 0040A0E1 		mov	r4, r0
 3064              	.LVL268:
 3065              	.LBB1075:
 3066              	.LBB1076:
 3067              	.LBB1077:
 3068              	.LBB1078:
  31:/home/zkmike/workspace/RZA2M/rza2m_2d_barcode_sample_freertos_gcc/src/zxing_lib/zxing/ReaderException.h ****   ~ReaderException() throw() {}
 3069              		.loc 10 31 0
 3070 00dc 001000E3 		movw	r1, #:lower16:.LC1
 3071 00e0 001040E3 		movt	r1, #:upper16:.LC1
 3072 00e4 FEFFFFEB 		bl	_ZN5zxing9ExceptionC2EPKc
 3073              	.LVL269:
 3074              	.LBE1078:
 3075              	.LBE1077:
  29:/home/zkmike/workspace/RZA2M/rza2m_2d_barcode_sample_freertos_gcc/src/zxing_lib/zxing/NotFoundException.h ****   ~NotFoundException() throw() {}
 3076              		.loc 9 29 0
 3077 00e8 18309FE5 		ldr	r3, .L205
 3078 00ec 003084E5 		str	r3, [r4]
 3079              	.LVL270:
 3080              	.LBE1076:
 3081              	.LBE1075:
 118:../src/zxing_lib/zxing/pdf417/PDF417Reader.cpp ****   }
 3082              		.loc 5 118 0
 3083 00f0 002000E3 		movw	r2, #:lower16:_ZN5zxing17NotFoundExceptionD1Ev
 3084 00f4 002040E3 		movt	r2, #:upper16:_ZN5zxing17NotFoundExceptionD1Ev
 3085 00f8 001000E3 		movw	r1, #:lower16:_ZTIN5zxing17NotFoundExceptionE
 3086 00fc 001040E3 		movt	r1, #:upper16:_ZTIN5zxing17NotFoundExceptionE
 3087 0100 0400A0E1 		mov	r0, r4
 3088 0104 FEFFFFEB 		bl	__cxa_throw
 3089              	.LVL271:
 3090              	.L206:
 3091              		.align	2
 3092              	.L205:
 3093 0108 08000000 		.word	_ZTVN5zxing17NotFoundExceptionE+8
 3094              		.cfi_endproc
 3095              	.LFE2294:
 3096              		.fnend
 3098              		.section	.text._ZN5zxing6pdf41712PDF417Reader16findPatternStartEiiNS_3RefINS_9BitMatrixEEE,"ax",%p
 3099              		.align	2
 3100              		.global	_ZN5zxing6pdf41712PDF417Reader16findPatternStartEiiNS_3RefINS_9BitMatrixEEE
 3101              		.syntax unified
 3102              		.arm
 3103              		.fpu neon
 3105              	_ZN5zxing6pdf41712PDF417Reader16findPatternStartEiiNS_3RefINS_9BitMatrixEEE:
 3106              		.fnstart
 3107              	.LFB2295:
 129:../src/zxing_lib/zxing/pdf417/PDF417Reader.cpp ****   int width = image->getWidth();
 3108              		.loc 5 129 0
 3109              		.cfi_startproc
 3110              		@ args = 0, pretend = 0, frame = 0
 3111              		@ frame_needed = 0, uses_anonymous_args = 0
 3112              	.LVL272:
 3113 0000 70402DE9 		push	{r4, r5, r6, lr}
 3114              		.save {r4, r5, r6, lr}
 3115              		.cfi_def_cfa_offset 16
 3116              		.cfi_offset 4, -16
 3117              		.cfi_offset 5, -12
 3118              		.cfi_offset 6, -8
 3119              		.cfi_offset 14, -4
 3120 0004 0040A0E1 		mov	r4, r0
 3121 0008 0160A0E1 		mov	r6, r1
 3122 000c 0250A0E1 		mov	r5, r2
 130:../src/zxing_lib/zxing/pdf417/PDF417Reader.cpp ****   int start = x;
 3123              		.loc 5 130 0
 3124 0010 000092E5 		ldr	r0, [r2]
 3125              	.LVL273:
 3126 0014 FEFFFFEB 		bl	_ZNK5zxing9BitMatrix8getWidthEv
 3127              	.LVL274:
 134:../src/zxing_lib/zxing/pdf417/PDF417Reader.cpp ****   while (start < width - 1 && transitions < 8) {
 3128              		.loc 5 134 0
 3129 0018 01C0A0E3 		mov	ip, #1
 133:../src/zxing_lib/zxing/pdf417/PDF417Reader.cpp ****   bool black = true;
 3130              		.loc 5 133 0
 3131 001c 0010A0E3 		mov	r1, #0
 3132 0020 010000EA 		b	.L208
 3133              	.LVL275:
 3134              	.L213:
 3135              	.LBB1079:
 139:../src/zxing_lib/zxing/pdf417/PDF417Reader.cpp ****     }
 3136              		.loc 5 139 0
 3137 0024 011081E2 		add	r1, r1, #1
 3138              	.LVL276:
 3139              	.L210:
 3140              	.LBE1079:
 129:../src/zxing_lib/zxing/pdf417/PDF417Reader.cpp ****   int width = image->getWidth();
 3141              		.loc 5 129 0
 3142 0028 03C0A0E1 		mov	ip, r3
 3143              	.LVL277:
 3144              	.L208:
 135:../src/zxing_lib/zxing/pdf417/PDF417Reader.cpp ****     start++;
 3145              		.loc 5 135 0
 3146 002c 013040E2 		sub	r3, r0, #1
 3147 0030 030054E1 		cmp	r4, r3
 3148 0034 100000AA 		bge	.L209
 135:../src/zxing_lib/zxing/pdf417/PDF417Reader.cpp ****     start++;
 3149              		.loc 5 135 0 is_stmt 0 discriminator 1
 3150 0038 070051E3 		cmp	r1, #7
 3151 003c 0E0000CA 		bgt	.L209
 3152              	.LBB1090:
 136:../src/zxing_lib/zxing/pdf417/PDF417Reader.cpp ****     bool newBlack = image->get(start, y);
 3153              		.loc 5 136 0 is_stmt 1
 3154 0040 014084E2 		add	r4, r4, #1
 3155              	.LVL278:
 3156              	.LBB1080:
 3157              	.LBB1081:
 112:/home/zkmike/workspace/RZA2M/rza2m_2d_barcode_sample_freertos_gcc/src/zxing_lib/zxing/common/Counted.h ****   }
 3158              		.loc 3 112 0
 3159 0044 002095E5 		ldr	r2, [r5]
 3160              	.LVL279:
 3161              	.LBE1081:
 3162              	.LBE1080:
 3163              	.LBB1082:
 3164              	.LBB1083:
  59:/home/zkmike/workspace/RZA2M/rza2m_2d_barcode_sample_freertos_gcc/src/zxing_lib/zxing/common/BitMatrix.h ****     return ((((unsigned)bits[offset]) >> (x & bitsMask)) & 1) != 0;
 3165              		.loc 11 59 0
 3166 0048 103092E5 		ldr	r3, [r2, #16]
 3167 004c C4E2A0E1 		asr	lr, r4, #5
 3168 0050 96E323E0 		mla	r3, r6, r3, lr
 3169              	.LVL280:
 3170              	.LBB1084:
 3171              	.LBB1085:
 124:/home/zkmike/workspace/RZA2M/rza2m_2d_barcode_sample_freertos_gcc/src/zxing_lib/zxing/common/Array.h ****   }
 3172              		.loc 2 124 0
 3173 0054 1C2092E5 		ldr	r2, [r2, #28]
 3174              	.LVL281:
 3175              	.LBB1086:
 3176              	.LBB1087:
 3177              	.LBB1088:
 3178              	.LBB1089:
 3179              		.loc 8 781 0
 3180 0058 082092E5 		ldr	r2, [r2, #8]
 3181              	.LVL282:
 3182              	.LBE1089:
 3183              	.LBE1088:
 3184              	.LBE1087:
 3185              	.LBE1086:
 3186              	.LBE1085:
 3187              	.LBE1084:
 3188              		.loc 11 60 0
 3189 005c 033192E7 		ldr	r3, [r2, r3, lsl #2]
 3190              	.LVL283:
 3191 0060 1F2004E2 		and	r2, r4, #31
 3192 0064 3332A0E1 		lsr	r3, r3, r2
 3193 0068 013003E2 		and	r3, r3, #1
 3194 006c 7330EFE6 		uxtb	r3, r3
 3195              	.LVL284:
 3196              	.LBE1083:
 3197              	.LBE1082:
 138:../src/zxing_lib/zxing/pdf417/PDF417Reader.cpp ****       transitions++;
 3198              		.loc 5 138 0
 3199 0070 03005CE1 		cmp	ip, r3
 3200 0074 EAFFFF1A 		bne	.L213
 3201 0078 EAFFFFEA 		b	.L210
 3202              	.LVL285:
 3203              	.L209:
 3204              	.LBE1090:
 143:../src/zxing_lib/zxing/pdf417/PDF417Reader.cpp ****     throw NotFoundException("PDF417Reader::findPatternStart: no pattern start found!");
 3205              		.loc 5 143 0
 3206 007c 030054E1 		cmp	r4, r3
 3207 0080 0100000A 		beq	.L214
 147:../src/zxing_lib/zxing/pdf417/PDF417Reader.cpp **** 
 3208              		.loc 5 147 0
 3209 0084 0400A0E1 		mov	r0, r4
 3210              	.LVL286:
 3211 0088 7080BDE8 		pop	{r4, r5, r6, pc}
 3212              	.LVL287:
 3213              	.L214:
 144:../src/zxing_lib/zxing/pdf417/PDF417Reader.cpp ****   }
 3214              		.loc 5 144 0
 3215 008c 0800A0E3 		mov	r0, #8
 3216              	.LVL288:
 3217 0090 FEFFFFEB 		bl	__cxa_allocate_exception
 3218              	.LVL289:
 3219 0094 0040A0E1 		mov	r4, r0
 3220              	.LVL290:
 3221              	.LBB1091:
 3222              	.LBB1092:
 3223              	.LBB1093:
 3224              	.LBB1094:
  31:/home/zkmike/workspace/RZA2M/rza2m_2d_barcode_sample_freertos_gcc/src/zxing_lib/zxing/ReaderException.h ****   ~ReaderException() throw() {}
 3225              		.loc 10 31 0
 3226 0098 001000E3 		movw	r1, #:lower16:.LC3
 3227 009c 001040E3 		movt	r1, #:upper16:.LC3
 3228 00a0 FEFFFFEB 		bl	_ZN5zxing9ExceptionC2EPKc
 3229              	.LVL291:
 3230              	.LBE1094:
 3231              	.LBE1093:
  29:/home/zkmike/workspace/RZA2M/rza2m_2d_barcode_sample_freertos_gcc/src/zxing_lib/zxing/NotFoundException.h ****   ~NotFoundException() throw() {}
 3232              		.loc 9 29 0
 3233 00a4 18309FE5 		ldr	r3, .L215
 3234 00a8 003084E5 		str	r3, [r4]
 3235              	.LVL292:
 3236              	.LBE1092:
 3237              	.LBE1091:
 144:../src/zxing_lib/zxing/pdf417/PDF417Reader.cpp ****   }
 3238              		.loc 5 144 0
 3239 00ac 002000E3 		movw	r2, #:lower16:_ZN5zxing17NotFoundExceptionD1Ev
 3240 00b0 002040E3 		movt	r2, #:upper16:_ZN5zxing17NotFoundExceptionD1Ev
 3241 00b4 001000E3 		movw	r1, #:lower16:_ZTIN5zxing17NotFoundExceptionE
 3242 00b8 001040E3 		movt	r1, #:upper16:_ZTIN5zxing17NotFoundExceptionE
 3243 00bc 0400A0E1 		mov	r0, r4
 3244 00c0 FEFFFFEB 		bl	__cxa_throw
 3245              	.LVL293:
 3246              	.L216:
 3247              		.align	2
 3248              	.L215:
 3249 00c4 08000000 		.word	_ZTVN5zxing17NotFoundExceptionE+8
 3250              		.cfi_endproc
 3251              	.LFE2295:
 3252              		.fnend
 3254              		.section	.text._ZN5zxing6pdf41712PDF417Reader14findPatternEndEiiNS_3RefINS_9BitMatrixEEE,"ax",%pro
 3255              		.align	2
 3256              		.global	_ZN5zxing6pdf41712PDF417Reader14findPatternEndEiiNS_3RefINS_9BitMatrixEEE
 3257              		.syntax unified
 3258              		.arm
 3259              		.fpu neon
 3261              	_ZN5zxing6pdf41712PDF417Reader14findPatternEndEiiNS_3RefINS_9BitMatrixEEE:
 3262              		.fnstart
 3263              	.LFB2296:
 149:../src/zxing_lib/zxing/pdf417/PDF417Reader.cpp ****   int width = image->getWidth();
 3264              		.loc 5 149 0
 3265              		.cfi_startproc
 3266              		@ args = 0, pretend = 0, frame = 0
 3267              		@ frame_needed = 0, uses_anonymous_args = 0
 3268              	.LVL294:
 3269 0000 70402DE9 		push	{r4, r5, r6, lr}
 3270              		.save {r4, r5, r6, lr}
 3271              		.cfi_def_cfa_offset 16
 3272              		.cfi_offset 4, -16
 3273              		.cfi_offset 5, -12
 3274              		.cfi_offset 6, -8
 3275              		.cfi_offset 14, -4
 3276 0004 0040A0E1 		mov	r4, r0
 3277 0008 0160A0E1 		mov	r6, r1
 3278 000c 0250A0E1 		mov	r5, r2
 150:../src/zxing_lib/zxing/pdf417/PDF417Reader.cpp ****   int end = width - 1;
 3279              		.loc 5 150 0
 3280 0010 000092E5 		ldr	r0, [r2]
 3281              	.LVL295:
 3282 0014 FEFFFFEB 		bl	_ZNK5zxing9BitMatrix8getWidthEv
 3283              	.LVL296:
 151:../src/zxing_lib/zxing/pdf417/PDF417Reader.cpp ****   // end should be on black
 3284              		.loc 5 151 0
 3285 0018 010040E2 		sub	r0, r0, #1
 3286              	.LVL297:
 3287 001c 030000EA 		b	.L220
 3288              	.LVL298:
 3289              	.L224:
 153:../src/zxing_lib/zxing/pdf417/PDF417Reader.cpp ****     end--;
 3290              		.loc 5 153 0
 3291 0020 0030A0E3 		mov	r3, #0
 3292              	.L218:
 153:../src/zxing_lib/zxing/pdf417/PDF417Reader.cpp ****     end--;
 3293              		.loc 5 153 0 is_stmt 0 discriminator 6
 3294 0024 000053E3 		cmp	r3, #0
 3295 0028 2700000A 		beq	.L226
 154:../src/zxing_lib/zxing/pdf417/PDF417Reader.cpp ****   }
 3296              		.loc 5 154 0 is_stmt 1
 3297 002c 010040E2 		sub	r0, r0, #1
 3298              	.LVL299:
 3299              	.L220:
 153:../src/zxing_lib/zxing/pdf417/PDF417Reader.cpp ****     end--;
 3300              		.loc 5 153 0
 3301 0030 040050E1 		cmp	r0, r4
 3302 0034 F9FFFFDA 		ble	.L224
 3303              	.LVL300:
 3304              	.LBB1095:
 3305              	.LBB1096:
 112:/home/zkmike/workspace/RZA2M/rza2m_2d_barcode_sample_freertos_gcc/src/zxing_lib/zxing/common/Counted.h ****   }
 3306              		.loc 3 112 0
 3307 0038 002095E5 		ldr	r2, [r5]
 3308              	.LVL301:
 3309              	.LBE1096:
 3310              	.LBE1095:
 3311              	.LBB1097:
 3312              	.LBB1098:
  59:/home/zkmike/workspace/RZA2M/rza2m_2d_barcode_sample_freertos_gcc/src/zxing_lib/zxing/common/BitMatrix.h ****     return ((((unsigned)bits[offset]) >> (x & bitsMask)) & 1) != 0;
 3313              		.loc 11 59 0
 3314 003c 103092E5 		ldr	r3, [r2, #16]
 3315 0040 C012A0E1 		asr	r1, r0, #5
 3316 0044 931623E0 		mla	r3, r3, r6, r1
 3317              	.LVL302:
 3318              	.LBB1099:
 3319              	.LBB1100:
 124:/home/zkmike/workspace/RZA2M/rza2m_2d_barcode_sample_freertos_gcc/src/zxing_lib/zxing/common/Array.h ****   }
 3320              		.loc 2 124 0
 3321 0048 1C2092E5 		ldr	r2, [r2, #28]
 3322              	.LVL303:
 3323              	.LBB1101:
 3324              	.LBB1102:
 3325              	.LBB1103:
 3326              	.LBB1104:
 3327              		.loc 8 781 0
 3328 004c 082092E5 		ldr	r2, [r2, #8]
 3329              	.LVL304:
 3330              	.LBE1104:
 3331              	.LBE1103:
 3332              	.LBE1102:
 3333              	.LBE1101:
 3334              	.LBE1100:
 3335              	.LBE1099:
 3336              		.loc 11 60 0
 3337 0050 033192E7 		ldr	r3, [r2, r3, lsl #2]
 3338              	.LVL305:
 3339 0054 1F2000E2 		and	r2, r0, #31
 3340 0058 3332A0E1 		lsr	r3, r3, r2
 3341              	.LVL306:
 3342              	.LBE1098:
 3343              	.LBE1097:
 153:../src/zxing_lib/zxing/pdf417/PDF417Reader.cpp ****     end--;
 3344              		.loc 5 153 0
 3345 005c 010013E3 		tst	r3, #1
 3346 0060 0130A003 		moveq	r3, #1
 3347 0064 EEFFFF0A 		beq	.L218
 3348              	.L225:
 3349 0068 0030A0E3 		mov	r3, #0
 3350 006c ECFFFFEA 		b	.L218
 3351              	.LVL307:
 3352              	.L222:
 3353 0070 0310A0E1 		mov	r1, r3
 3354              	.LVL308:
 3355              	.L219:
 158:../src/zxing_lib/zxing/pdf417/PDF417Reader.cpp ****     end--;
 3356              		.loc 5 158 0
 3357 0074 080052E3 		cmp	r2, #8
 3358 0078 0030A0D3 		movle	r3, #0
 3359 007c 0130A0C3 		movgt	r3, #1
 3360 0080 040050E1 		cmp	r0, r4
 3361 0084 013083D3 		orrle	r3, r3, #1
 3362 0088 000053E3 		cmp	r3, #0
 3363 008c 1100001A 		bne	.L221
 3364              	.LBB1105:
 159:../src/zxing_lib/zxing/pdf417/PDF417Reader.cpp ****     bool newBlack = image->get(end, y);
 3365              		.loc 5 159 0
 3366 0090 010040E2 		sub	r0, r0, #1
 3367              	.LVL309:
 3368              	.LBB1106:
 3369              	.LBB1107:
 112:/home/zkmike/workspace/RZA2M/rza2m_2d_barcode_sample_freertos_gcc/src/zxing_lib/zxing/common/Counted.h ****   }
 3370              		.loc 3 112 0
 3371 0094 00C095E5 		ldr	ip, [r5]
 3372              	.LVL310:
 3373              	.LBE1107:
 3374              	.LBE1106:
 3375              	.LBB1108:
 3376              	.LBB1109:
  59:/home/zkmike/workspace/RZA2M/rza2m_2d_barcode_sample_freertos_gcc/src/zxing_lib/zxing/common/BitMatrix.h ****     return ((((unsigned)bits[offset]) >> (x & bitsMask)) & 1) != 0;
 3377              		.loc 11 59 0
 3378 0098 10309CE5 		ldr	r3, [ip, #16]
 3379 009c C0E2A0E1 		asr	lr, r0, #5
 3380 00a0 93E623E0 		mla	r3, r3, r6, lr
 3381              	.LVL311:
 3382              	.LBB1110:
 3383              	.LBB1111:
 124:/home/zkmike/workspace/RZA2M/rza2m_2d_barcode_sample_freertos_gcc/src/zxing_lib/zxing/common/Array.h ****   }
 3384              		.loc 2 124 0
 3385 00a4 1CC09CE5 		ldr	ip, [ip, #28]
 3386              	.LVL312:
 3387              	.LBB1112:
 3388              	.LBB1113:
 3389              	.LBB1114:
 3390              	.LBB1115:
 3391              		.loc 8 781 0
 3392 00a8 08C09CE5 		ldr	ip, [ip, #8]
 3393              	.LVL313:
 3394              	.LBE1115:
 3395              	.LBE1114:
 3396              	.LBE1113:
 3397              	.LBE1112:
 3398              	.LBE1111:
 3399              	.LBE1110:
 3400              		.loc 11 60 0
 3401 00ac 03319CE7 		ldr	r3, [ip, r3, lsl #2]
 3402              	.LVL314:
 3403 00b0 1FC000E2 		and	ip, r0, #31
 3404 00b4 333CA0E1 		lsr	r3, r3, ip
 3405 00b8 013003E2 		and	r3, r3, #1
 3406 00bc 7330EFE6 		uxtb	r3, r3
 3407              	.LVL315:
 3408              	.LBE1109:
 3409              	.LBE1108:
 161:../src/zxing_lib/zxing/pdf417/PDF417Reader.cpp ****       transitions++;
 3410              		.loc 5 161 0
 3411 00c0 030051E1 		cmp	r1, r3
 162:../src/zxing_lib/zxing/pdf417/PDF417Reader.cpp ****     }
 3412              		.loc 5 162 0
 3413 00c4 01208212 		addne	r2, r2, #1
 3414              	.LVL316:
 3415 00c8 E8FFFFEA 		b	.L222
 3416              	.LVL317:
 3417              	.L226:
 3418              	.LBE1105:
 3419 00cc 0110A0E3 		mov	r1, #1
 3420 00d0 0020A0E3 		mov	r2, #0
 3421 00d4 E6FFFFEA 		b	.L219
 3422              	.LVL318:
 3423              	.L221:
 166:../src/zxing_lib/zxing/pdf417/PDF417Reader.cpp ****     throw NotFoundException("PDF417Reader::findPatternEnd: no pattern end found!");
 3424              		.loc 5 166 0
 3425 00d8 040050E1 		cmp	r0, r4
 3426 00dc 7080BD18 		popne	{r4, r5, r6, pc}
 167:../src/zxing_lib/zxing/pdf417/PDF417Reader.cpp ****   }
 3427              		.loc 5 167 0
 3428 00e0 0800A0E3 		mov	r0, #8
 3429              	.LVL319:
 3430 00e4 FEFFFFEB 		bl	__cxa_allocate_exception
 3431              	.LVL320:
 3432 00e8 0040A0E1 		mov	r4, r0
 3433              	.LVL321:
 3434              	.LBB1116:
 3435              	.LBB1117:
 3436              	.LBB1118:
 3437              	.LBB1119:
  31:/home/zkmike/workspace/RZA2M/rza2m_2d_barcode_sample_freertos_gcc/src/zxing_lib/zxing/ReaderException.h ****   ~ReaderException() throw() {}
 3438              		.loc 10 31 0
 3439 00ec 001000E3 		movw	r1, #:lower16:.LC4
 3440 00f0 001040E3 		movt	r1, #:upper16:.LC4
 3441 00f4 FEFFFFEB 		bl	_ZN5zxing9ExceptionC2EPKc
 3442              	.LVL322:
 3443              	.LBE1119:
 3444              	.LBE1118:
  29:/home/zkmike/workspace/RZA2M/rza2m_2d_barcode_sample_freertos_gcc/src/zxing_lib/zxing/NotFoundException.h ****   ~NotFoundException() throw() {}
 3445              		.loc 9 29 0
 3446 00f8 18309FE5 		ldr	r3, .L228
 3447 00fc 003084E5 		str	r3, [r4]
 3448              	.LVL323:
 3449              	.LBE1117:
 3450              	.LBE1116:
 167:../src/zxing_lib/zxing/pdf417/PDF417Reader.cpp ****   }
 3451              		.loc 5 167 0
 3452 0100 002000E3 		movw	r2, #:lower16:_ZN5zxing17NotFoundExceptionD1Ev
 3453 0104 002040E3 		movt	r2, #:upper16:_ZN5zxing17NotFoundExceptionD1Ev
 3454 0108 001000E3 		movw	r1, #:lower16:_ZTIN5zxing17NotFoundExceptionE
 3455 010c 001040E3 		movt	r1, #:upper16:_ZTIN5zxing17NotFoundExceptionE
 3456 0110 0400A0E1 		mov	r0, r4
 3457 0114 FEFFFFEB 		bl	__cxa_throw
 3458              	.LVL324:
 3459              	.L229:
 3460              		.align	2
 3461              	.L228:
 3462 0118 08000000 		.word	_ZTVN5zxing17NotFoundExceptionE+8
 3463              		.cfi_endproc
 3464              	.LFE2296:
 3465              		.fnend
 3467              		.global	__aeabi_idiv
 3468              		.section	.text._ZN5zxing6pdf41712PDF417Reader15extractPureBitsENS_3RefINS_9BitMatrixEEE,"ax",%prog
 3469              		.align	2
 3470              		.global	_ZN5zxing6pdf41712PDF417Reader15extractPureBitsENS_3RefINS_9BitMatrixEEE
 3471              		.syntax unified
 3472              		.arm
 3473              		.fpu neon
 3475              	_ZN5zxing6pdf41712PDF417Reader15extractPureBitsENS_3RefINS_9BitMatrixEEE:
 3476              		.fnstart
 3477              	.LFB2287:
  69:../src/zxing_lib/zxing/pdf417/PDF417Reader.cpp ****   ArrayRef<int> leftTopBlack = image->getTopLeftOnBit();
 3478              		.loc 5 69 0
 3479              		.cfi_startproc
 3480              		.cfi_personality 0,__gxx_personality_v0
 3481              		.cfi_lsda 0,.LLSDA2287
 3482              		@ args = 0, pretend = 0, frame = 56
 3483              		@ frame_needed = 0, uses_anonymous_args = 0
 3484              	.LVL325:
 3485 0000 F04F2DE9 		push	{r4, r5, r6, r7, r8, r9, r10, fp, lr}
 3486              		.save {r4, r5, r6, r7, r8, r9, r10, fp, lr}
 3487              		.cfi_def_cfa_offset 36
 3488              		.cfi_offset 4, -36
 3489              		.cfi_offset 5, -32
 3490              		.cfi_offset 6, -28
 3491              		.cfi_offset 7, -24
 3492              		.cfi_offset 8, -20
 3493              		.cfi_offset 9, -16
 3494              		.cfi_offset 10, -12
 3495              		.cfi_offset 11, -8
 3496              		.cfi_offset 14, -4
 3497              		.pad #60
 3498 0004 3CD04DE2 		sub	sp, sp, #60
 3499              		.cfi_def_cfa_offset 96
 3500 0008 0080A0E1 		mov	r8, r0
 3501 000c 0160A0E1 		mov	r6, r1
  70:../src/zxing_lib/zxing/pdf417/PDF417Reader.cpp ****   ArrayRef<int> rightBottomBlack = image->getBottomRightOnBit();
 3502              		.loc 5 70 0
 3503 0010 001091E5 		ldr	r1, [r1]
 3504              	.LVL326:
 3505 0014 14008DE2 		add	r0, sp, #20
 3506              	.LVL327:
 3507              	.LEHB26:
 3508 0018 FEFFFFEB 		bl	_ZNK5zxing9BitMatrix15getTopLeftOnBitEv
 3509              	.LVL328:
 3510              	.LEHE26:
  71:../src/zxing_lib/zxing/pdf417/PDF417Reader.cpp ****   /* see BitMatrix::getTopLeftOnBit etc.:
 3511              		.loc 5 71 0
 3512 001c 001096E5 		ldr	r1, [r6]
 3513 0020 08008DE2 		add	r0, sp, #8
 3514              	.LEHB27:
 3515 0024 FEFFFFEB 		bl	_ZNK5zxing9BitMatrix19getBottomRightOnBitEv
 3516              	.LVL329:
 3517              	.LEHE27:
 3518              	.LBB1268:
 3519              	.LBB1269:
 3520              	.LBB1270:
 3521              	.LBB1271:
 3522              	.LBB1272:
 3523              	.LBB1273:
  31:/home/zkmike/workspace/RZA2M/rza2m_2d_barcode_sample_freertos_gcc/src/zxing_lib/zxing/common/Counted.h ****   }
 3524              		.loc 3 31 0
 3525 0028 0030A0E3 		mov	r3, #0
 3526 002c 24308DE5 		str	r3, [sp, #36]
 3527              	.LVL330:
 3528              	.LBE1273:
 3529              	.LBE1272:
 3530              	.LBE1271:
 106:/home/zkmike/workspace/RZA2M/rza2m_2d_barcode_sample_freertos_gcc/src/zxing_lib/zxing/common/Array.h ****     reset(other.array_);
 3531              		.loc 2 106 0
 3532 0030 6C269FE5 		ldr	r2, .L288
 3533 0034 20208DE5 		str	r2, [sp, #32]
 3534 0038 28308DE5 		str	r3, [sp, #40]
 107:/home/zkmike/workspace/RZA2M/rza2m_2d_barcode_sample_freertos_gcc/src/zxing_lib/zxing/common/Array.h ****   }
 3535              		.loc 2 107 0
 3536 003c 1C409DE5 		ldr	r4, [sp, #28]
 3537              	.LVL331:
 3538              	.LBB1274:
 3539              	.LBB1275:
 132:/home/zkmike/workspace/RZA2M/rza2m_2d_barcode_sample_freertos_gcc/src/zxing_lib/zxing/common/Array.h ****       a->retain();
 3540              		.loc 2 132 0
 3541 0040 030054E1 		cmp	r4, r3
 3542              	.LVL332:
 3543              	.LBB1276:
 3544              	.LBB1277:
  36:/home/zkmike/workspace/RZA2M/rza2m_2d_barcode_sample_freertos_gcc/src/zxing_lib/zxing/common/Counted.h ****     return this;
 3545              		.loc 3 36 0
 3546 0044 04309415 		ldrne	r3, [r4, #4]
 3547 0048 01308312 		addne	r3, r3, #1
 3548 004c 04308415 		strne	r3, [r4, #4]
 3549              	.LVL333:
 3550              	.L231:
 3551              	.LBE1277:
 3552              	.LBE1276:
 135:/home/zkmike/workspace/RZA2M/rza2m_2d_barcode_sample_freertos_gcc/src/zxing_lib/zxing/common/Array.h ****       array_->release();
 3553              		.loc 2 135 0
 3554 0050 28009DE5 		ldr	r0, [sp, #40]
 3555 0054 000050E3 		cmp	r0, #0
 3556 0058 0400000A 		beq	.L232
 3557              	.LVL334:
 3558              	.LBB1278:
 3559              	.LBB1279:
  40:/home/zkmike/workspace/RZA2M/rza2m_2d_barcode_sample_freertos_gcc/src/zxing_lib/zxing/common/Counted.h ****     if (count_ == 0) {
 3560              		.loc 3 40 0
 3561 005c 043090E5 		ldr	r3, [r0, #4]
 3562 0060 013043E2 		sub	r3, r3, #1
 3563 0064 043080E5 		str	r3, [r0, #4]
  41:/home/zkmike/workspace/RZA2M/rza2m_2d_barcode_sample_freertos_gcc/src/zxing_lib/zxing/common/Counted.h ****       count_ = 0xDEADF001;
 3564              		.loc 3 41 0
 3565 0068 000053E3 		cmp	r3, #0
 3566 006c 1400000A 		beq	.L272
 3567              	.LVL335:
 3568              	.L232:
 3569              	.LBE1279:
 3570              	.LBE1278:
 138:/home/zkmike/workspace/RZA2M/rza2m_2d_barcode_sample_freertos_gcc/src/zxing_lib/zxing/common/Array.h ****   }
 3571              		.loc 2 138 0
 3572 0070 28408DE5 		str	r4, [sp, #40]
 3573              	.LVL336:
 3574              	.LBE1275:
 3575              	.LBE1274:
 3576              	.LBE1270:
 3577              	.LBE1269:
 3578              	.LBE1268:
 3579              	.LBB1286:
 3580              	.LBB1287:
 3581              	.LBB1288:
  64:/home/zkmike/workspace/RZA2M/rza2m_2d_barcode_sample_freertos_gcc/src/zxing_lib/zxing/common/Counted.h ****     reset(other.object_);
 3582              		.loc 3 64 0
 3583 0074 0030A0E3 		mov	r3, #0
 3584 0078 2C308DE5 		str	r3, [sp, #44]
  65:/home/zkmike/workspace/RZA2M/rza2m_2d_barcode_sample_freertos_gcc/src/zxing_lib/zxing/common/Counted.h ****   }
 3585              		.loc 3 65 0
 3586 007c 004096E5 		ldr	r4, [r6]
 3587              	.LVL337:
 3588              	.LBB1289:
 3589              	.LBB1290:
  81:/home/zkmike/workspace/RZA2M/rza2m_2d_barcode_sample_freertos_gcc/src/zxing_lib/zxing/common/Counted.h ****       o->retain();
 3590              		.loc 3 81 0
 3591 0080 030054E1 		cmp	r4, r3
 3592              	.LVL338:
 3593              	.LBB1291:
 3594              	.LBB1292:
  36:/home/zkmike/workspace/RZA2M/rza2m_2d_barcode_sample_freertos_gcc/src/zxing_lib/zxing/common/Counted.h ****     return this;
 3595              		.loc 3 36 0
 3596 0084 04309415 		ldrne	r3, [r4, #4]
 3597 0088 01308312 		addne	r3, r3, #1
 3598 008c 04308415 		strne	r3, [r4, #4]
 3599              	.LVL339:
 3600              	.L233:
 3601              	.LBE1292:
 3602              	.LBE1291:
  84:/home/zkmike/workspace/RZA2M/rza2m_2d_barcode_sample_freertos_gcc/src/zxing_lib/zxing/common/Counted.h ****       object_->release();
 3603              		.loc 3 84 0
 3604 0090 2C009DE5 		ldr	r0, [sp, #44]
 3605 0094 000050E3 		cmp	r0, #0
 3606 0098 0400000A 		beq	.L234
 3607              	.LVL340:
 3608              	.LBB1293:
 3609              	.LBB1294:
  40:/home/zkmike/workspace/RZA2M/rza2m_2d_barcode_sample_freertos_gcc/src/zxing_lib/zxing/common/Counted.h ****     if (count_ == 0) {
 3610              		.loc 3 40 0
 3611 009c 043090E5 		ldr	r3, [r0, #4]
 3612 00a0 013043E2 		sub	r3, r3, #1
 3613 00a4 043080E5 		str	r3, [r0, #4]
  41:/home/zkmike/workspace/RZA2M/rza2m_2d_barcode_sample_freertos_gcc/src/zxing_lib/zxing/common/Counted.h ****       count_ = 0xDEADF001;
 3614              		.loc 3 41 0
 3615 00a8 000053E3 		cmp	r3, #0
 3616 00ac 0B00000A 		beq	.L273
 3617              	.LVL341:
 3618              	.L234:
 3619              	.LBE1294:
 3620              	.LBE1293:
  87:/home/zkmike/workspace/RZA2M/rza2m_2d_barcode_sample_freertos_gcc/src/zxing_lib/zxing/common/Counted.h ****   }
 3621              		.loc 3 87 0
 3622 00b0 38108DE2 		add	r1, sp, #56
 3623 00b4 0C4021E5 		str	r4, [r1, #-12]!
 3624              	.LVL342:
 3625              	.LBE1290:
 3626              	.LBE1289:
 3627              	.LBE1288:
 3628              	.LBE1287:
 3629              	.LBE1286:
  77:../src/zxing_lib/zxing/pdf417/PDF417Reader.cpp ****   
 3630              		.loc 5 77 0
 3631 00b8 20008DE2 		add	r0, sp, #32
 3632              	.LEHB28:
 3633 00bc FEFFFFEB 		bl	_ZN5zxing6pdf41712PDF417Reader10moduleSizeENS_8ArrayRefIiEENS_3RefINS_9BitMatrixEEE
 3634              	.LVL343:
 3635              	.LEHE28:
 3636 00c0 0D0000EA 		b	.L274
 3637              	.LVL344:
 3638              	.L272:
 3639              	.LBB1301:
 3640              	.LBB1285:
 3641              	.LBB1284:
 3642              	.LBB1283:
 3643              	.LBB1282:
 3644              	.LBB1281:
 3645              	.LBB1280:
  42:/home/zkmike/workspace/RZA2M/rza2m_2d_barcode_sample_freertos_gcc/src/zxing_lib/zxing/common/Counted.h ****       delete this;
 3646              		.loc 3 42 0
 3647 00c4 01300FE3 		movw	r3, #61441
 3648 00c8 AD3E4DE3 		movt	r3, 57005
 3649 00cc 043080E5 		str	r3, [r0, #4]
  43:/home/zkmike/workspace/RZA2M/rza2m_2d_barcode_sample_freertos_gcc/src/zxing_lib/zxing/common/Counted.h ****     }
 3650              		.loc 3 43 0
 3651 00d0 003090E5 		ldr	r3, [r0]
 3652 00d4 043093E5 		ldr	r3, [r3, #4]
 3653 00d8 33FF2FE1 		blx	r3
 3654              	.LVL345:
 3655 00dc E3FFFFEA 		b	.L232
 3656              	.LVL346:
 3657              	.L273:
 3658              	.LBE1280:
 3659              	.LBE1281:
 3660              	.LBE1282:
 3661              	.LBE1283:
 3662              	.LBE1284:
 3663              	.LBE1285:
 3664              	.LBE1301:
 3665              	.LBB1302:
 3666              	.LBB1300:
 3667              	.LBB1299:
 3668              	.LBB1298:
 3669              	.LBB1297:
 3670              	.LBB1296:
 3671              	.LBB1295:
  42:/home/zkmike/workspace/RZA2M/rza2m_2d_barcode_sample_freertos_gcc/src/zxing_lib/zxing/common/Counted.h ****       delete this;
 3672              		.loc 3 42 0
 3673 00e0 01300FE3 		movw	r3, #61441
 3674 00e4 AD3E4DE3 		movt	r3, 57005
 3675 00e8 043080E5 		str	r3, [r0, #4]
  43:/home/zkmike/workspace/RZA2M/rza2m_2d_barcode_sample_freertos_gcc/src/zxing_lib/zxing/common/Counted.h ****     }
 3676              		.loc 3 43 0
 3677 00ec 003090E5 		ldr	r3, [r0]
 3678 00f0 043093E5 		ldr	r3, [r3, #4]
 3679 00f4 33FF2FE1 		blx	r3
 3680              	.LVL347:
 3681 00f8 ECFFFFEA 		b	.L234
 3682              	.LVL348:
 3683              	.L274:
 3684              	.LBE1295:
 3685              	.LBE1296:
 3686              	.LBE1297:
 3687              	.LBE1298:
 3688              	.LBE1299:
 3689              	.LBE1300:
 3690              	.LBE1302:
  77:../src/zxing_lib/zxing/pdf417/PDF417Reader.cpp ****   
 3691              		.loc 5 77 0
 3692 00fc 0040A0E1 		mov	r4, r0
 3693              	.LVL349:
 3694              	.LBB1303:
 3695              	.LBB1304:
  75:/home/zkmike/workspace/RZA2M/rza2m_2d_barcode_sample_freertos_gcc/src/zxing_lib/zxing/common/Counted.h ****       object_->release();
 3696              		.loc 3 75 0
 3697 0100 2C009DE5 		ldr	r0, [sp, #44]
 3698              	.LVL350:
 3699 0104 000050E3 		cmp	r0, #0
 3700 0108 0400000A 		beq	.L235
 3701              	.LVL351:
 3702              	.LBB1305:
 3703              	.LBB1306:
  40:/home/zkmike/workspace/RZA2M/rza2m_2d_barcode_sample_freertos_gcc/src/zxing_lib/zxing/common/Counted.h ****     if (count_ == 0) {
 3704              		.loc 3 40 0
 3705 010c 043090E5 		ldr	r3, [r0, #4]
 3706 0110 013043E2 		sub	r3, r3, #1
 3707 0114 043080E5 		str	r3, [r0, #4]
  41:/home/zkmike/workspace/RZA2M/rza2m_2d_barcode_sample_freertos_gcc/src/zxing_lib/zxing/common/Counted.h ****       count_ = 0xDEADF001;
 3708              		.loc 3 41 0
 3709 0118 000053E3 		cmp	r3, #0
 3710 011c 2500000A 		beq	.L275
 3711              	.LVL352:
 3712              	.L235:
 3713              	.LBE1306:
 3714              	.LBE1305:
 3715              	.LBE1304:
 3716              	.LBE1303:
 3717              	.LBB1310:
 3718              	.LBB1311:
 121:/home/zkmike/workspace/RZA2M/rza2m_2d_barcode_sample_freertos_gcc/src/zxing_lib/zxing/common/Array.h **** 
 3719              		.loc 2 121 0
 3720 0120 7C359FE5 		ldr	r3, .L288
 3721 0124 20308DE5 		str	r3, [sp, #32]
 117:/home/zkmike/workspace/RZA2M/rza2m_2d_barcode_sample_freertos_gcc/src/zxing_lib/zxing/common/Array.h ****       array_->release();
 3722              		.loc 2 117 0
 3723 0128 28009DE5 		ldr	r0, [sp, #40]
 3724 012c 000050E3 		cmp	r0, #0
 3725 0130 0400000A 		beq	.L236
 3726              	.LVL353:
 3727              	.LBB1312:
 3728              	.LBB1313:
  40:/home/zkmike/workspace/RZA2M/rza2m_2d_barcode_sample_freertos_gcc/src/zxing_lib/zxing/common/Counted.h ****     if (count_ == 0) {
 3729              		.loc 3 40 0
 3730 0134 043090E5 		ldr	r3, [r0, #4]
 3731 0138 013043E2 		sub	r3, r3, #1
 3732 013c 043080E5 		str	r3, [r0, #4]
  41:/home/zkmike/workspace/RZA2M/rza2m_2d_barcode_sample_freertos_gcc/src/zxing_lib/zxing/common/Counted.h ****       count_ = 0xDEADF001;
 3733              		.loc 3 41 0
 3734 0140 000053E3 		cmp	r3, #0
 3735 0144 2200000A 		beq	.L276
 3736              	.LVL354:
 3737              	.L236:
 3738              	.LBE1313:
 3739              	.LBE1312:
 3740              	.LBE1311:
 3741              	.LBE1310:
 3742              	.LBB1317:
 3743              	.LBB1318:
 128:/home/zkmike/workspace/RZA2M/rza2m_2d_barcode_sample_freertos_gcc/src/zxing_lib/zxing/common/Array.h ****   }
 3744              		.loc 2 128 0
 3745 0148 1C309DE5 		ldr	r3, [sp, #28]
 3746              	.LVL355:
 3747              	.LBB1319:
 3748              	.LBB1320:
 3749              	.LBB1321:
 3750              		.loc 8 781 0
 3751 014c 083093E5 		ldr	r3, [r3, #8]
 3752              	.LVL356:
 3753              	.LBE1321:
 3754              	.LBE1320:
 3755              	.LBE1319:
 3756              	.LBE1318:
 3757              	.LBE1317:
  79:../src/zxing_lib/zxing/pdf417/PDF417Reader.cpp ****   int bottom = rightBottomBlack[1];
 3758              		.loc 5 79 0
 3759 0150 049093E5 		ldr	r9, [r3, #4]
 3760              	.LVL357:
 3761              	.LBB1322:
 3762              	.LBB1323:
 128:/home/zkmike/workspace/RZA2M/rza2m_2d_barcode_sample_freertos_gcc/src/zxing_lib/zxing/common/Array.h ****   }
 3763              		.loc 2 128 0
 3764 0154 10209DE5 		ldr	r2, [sp, #16]
 3765              	.LVL358:
 3766              	.LBB1324:
 3767              	.LBB1325:
 3768              	.LBB1326:
 3769              		.loc 8 781 0
 3770 0158 082092E5 		ldr	r2, [r2, #8]
 3771              	.LVL359:
 3772              	.LBE1326:
 3773              	.LBE1325:
 3774              	.LBE1324:
 3775              	.LBE1323:
 3776              	.LBE1322:
  80:../src/zxing_lib/zxing/pdf417/PDF417Reader.cpp ****   int left = findPatternStart(leftTopBlack[0], top, image);
 3777              		.loc 5 80 0
 3778 015c 04A092E5 		ldr	r10, [r2, #4]
 3779              	.LVL360:
  81:../src/zxing_lib/zxing/pdf417/PDF417Reader.cpp ****   int right = findPatternEnd(leftTopBlack[0], top, image);
 3780              		.loc 5 81 0
 3781 0160 007093E5 		ldr	r7, [r3]
 3782              	.LVL361:
 3783              	.LBB1327:
 3784              	.LBB1328:
 3785              	.LBB1329:
  64:/home/zkmike/workspace/RZA2M/rza2m_2d_barcode_sample_freertos_gcc/src/zxing_lib/zxing/common/Counted.h ****     reset(other.object_);
 3786              		.loc 3 64 0
 3787 0164 0030A0E3 		mov	r3, #0
 3788 0168 30308DE5 		str	r3, [sp, #48]
  65:/home/zkmike/workspace/RZA2M/rza2m_2d_barcode_sample_freertos_gcc/src/zxing_lib/zxing/common/Counted.h ****   }
 3789              		.loc 3 65 0
 3790 016c 005096E5 		ldr	r5, [r6]
 3791              	.LVL362:
 3792              	.LBB1330:
 3793              	.LBB1331:
  81:/home/zkmike/workspace/RZA2M/rza2m_2d_barcode_sample_freertos_gcc/src/zxing_lib/zxing/common/Counted.h ****       o->retain();
 3794              		.loc 3 81 0
 3795 0170 030055E1 		cmp	r5, r3
 3796              	.LVL363:
 3797              	.LBB1332:
 3798              	.LBB1333:
  36:/home/zkmike/workspace/RZA2M/rza2m_2d_barcode_sample_freertos_gcc/src/zxing_lib/zxing/common/Counted.h ****     return this;
 3799              		.loc 3 36 0
 3800 0174 04309515 		ldrne	r3, [r5, #4]
 3801 0178 01308312 		addne	r3, r3, #1
 3802 017c 04308515 		strne	r3, [r5, #4]
 3803              	.LVL364:
 3804              	.L237:
 3805              	.LBE1333:
 3806              	.LBE1332:
  84:/home/zkmike/workspace/RZA2M/rza2m_2d_barcode_sample_freertos_gcc/src/zxing_lib/zxing/common/Counted.h ****       object_->release();
 3807              		.loc 3 84 0
 3808 0180 30009DE5 		ldr	r0, [sp, #48]
 3809 0184 000050E3 		cmp	r0, #0
 3810 0188 0400000A 		beq	.L238
 3811              	.LVL365:
 3812              	.LBB1334:
 3813              	.LBB1335:
  40:/home/zkmike/workspace/RZA2M/rza2m_2d_barcode_sample_freertos_gcc/src/zxing_lib/zxing/common/Counted.h ****     if (count_ == 0) {
 3814              		.loc 3 40 0
 3815 018c 043090E5 		ldr	r3, [r0, #4]
 3816 0190 013043E2 		sub	r3, r3, #1
 3817 0194 043080E5 		str	r3, [r0, #4]
  41:/home/zkmike/workspace/RZA2M/rza2m_2d_barcode_sample_freertos_gcc/src/zxing_lib/zxing/common/Counted.h ****       count_ = 0xDEADF001;
 3818              		.loc 3 41 0
 3819 0198 000053E3 		cmp	r3, #0
 3820 019c 1300000A 		beq	.L277
 3821              	.LVL366:
 3822              	.L238:
 3823              	.LBE1335:
 3824              	.LBE1334:
  87:/home/zkmike/workspace/RZA2M/rza2m_2d_barcode_sample_freertos_gcc/src/zxing_lib/zxing/common/Counted.h ****   }
 3825              		.loc 3 87 0
 3826 01a0 38208DE2 		add	r2, sp, #56
 3827 01a4 085022E5 		str	r5, [r2, #-8]!
 3828              	.LVL367:
 3829              	.LBE1331:
 3830              	.LBE1330:
 3831              	.LBE1329:
 3832              	.LBE1328:
 3833              	.LBE1327:
  81:../src/zxing_lib/zxing/pdf417/PDF417Reader.cpp ****   int right = findPatternEnd(leftTopBlack[0], top, image);
 3834              		.loc 5 81 0
 3835 01a8 0910A0E1 		mov	r1, r9
 3836 01ac 0700A0E1 		mov	r0, r7
 3837              	.LEHB29:
 3838 01b0 FEFFFFEB 		bl	_ZN5zxing6pdf41712PDF417Reader16findPatternStartEiiNS_3RefINS_9BitMatrixEEE
 3839              	.LVL368:
 3840              	.LEHE29:
 3841 01b4 140000EA 		b	.L278
 3842              	.LVL369:
 3843              	.L275:
 3844              	.LBB1342:
 3845              	.LBB1309:
 3846              	.LBB1308:
 3847              	.LBB1307:
  42:/home/zkmike/workspace/RZA2M/rza2m_2d_barcode_sample_freertos_gcc/src/zxing_lib/zxing/common/Counted.h ****       delete this;
 3848              		.loc 3 42 0
 3849 01b8 01300FE3 		movw	r3, #61441
 3850 01bc AD3E4DE3 		movt	r3, 57005
 3851 01c0 043080E5 		str	r3, [r0, #4]
  43:/home/zkmike/workspace/RZA2M/rza2m_2d_barcode_sample_freertos_gcc/src/zxing_lib/zxing/common/Counted.h ****     }
 3852              		.loc 3 43 0
 3853 01c4 003090E5 		ldr	r3, [r0]
 3854 01c8 043093E5 		ldr	r3, [r3, #4]
 3855 01cc 33FF2FE1 		blx	r3
 3856              	.LVL370:
 3857 01d0 D2FFFFEA 		b	.L235
 3858              	.LVL371:
 3859              	.L276:
 3860              	.LBE1307:
 3861              	.LBE1308:
 3862              	.LBE1309:
 3863              	.LBE1342:
 3864              	.LBB1343:
 3865              	.LBB1316:
 3866              	.LBB1315:
 3867              	.LBB1314:
  42:/home/zkmike/workspace/RZA2M/rza2m_2d_barcode_sample_freertos_gcc/src/zxing_lib/zxing/common/Counted.h ****       delete this;
 3868              		.loc 3 42 0
 3869 01d4 01300FE3 		movw	r3, #61441
 3870 01d8 AD3E4DE3 		movt	r3, 57005
 3871 01dc 043080E5 		str	r3, [r0, #4]
  43:/home/zkmike/workspace/RZA2M/rza2m_2d_barcode_sample_freertos_gcc/src/zxing_lib/zxing/common/Counted.h ****     }
 3872              		.loc 3 43 0
 3873 01e0 003090E5 		ldr	r3, [r0]
 3874 01e4 043093E5 		ldr	r3, [r3, #4]
 3875 01e8 33FF2FE1 		blx	r3
 3876              	.LVL372:
 3877 01ec D5FFFFEA 		b	.L236
 3878              	.LVL373:
 3879              	.L277:
 3880              	.LBE1314:
 3881              	.LBE1315:
 3882              	.LBE1316:
 3883              	.LBE1343:
 3884              	.LBB1344:
 3885              	.LBB1341:
 3886              	.LBB1340:
 3887              	.LBB1339:
 3888              	.LBB1338:
 3889              	.LBB1337:
 3890              	.LBB1336:
  42:/home/zkmike/workspace/RZA2M/rza2m_2d_barcode_sample_freertos_gcc/src/zxing_lib/zxing/common/Counted.h ****       delete this;
 3891              		.loc 3 42 0
 3892 01f0 01300FE3 		movw	r3, #61441
 3893 01f4 AD3E4DE3 		movt	r3, 57005
 3894 01f8 043080E5 		str	r3, [r0, #4]
  43:/home/zkmike/workspace/RZA2M/rza2m_2d_barcode_sample_freertos_gcc/src/zxing_lib/zxing/common/Counted.h ****     }
 3895              		.loc 3 43 0
 3896 01fc 003090E5 		ldr	r3, [r0]
 3897 0200 043093E5 		ldr	r3, [r3, #4]
 3898 0204 33FF2FE1 		blx	r3
 3899              	.LVL374:
 3900 0208 E4FFFFEA 		b	.L238
 3901              	.LVL375:
 3902              	.L278:
 3903              	.LBE1336:
 3904              	.LBE1337:
 3905              	.LBE1338:
 3906              	.LBE1339:
 3907              	.LBE1340:
 3908              	.LBE1341:
 3909              	.LBE1344:
  81:../src/zxing_lib/zxing/pdf417/PDF417Reader.cpp ****   int right = findPatternEnd(leftTopBlack[0], top, image);
 3910              		.loc 5 81 0
 3911 020c 0070A0E1 		mov	r7, r0
 3912              	.LVL376:
 3913              	.LBB1345:
 3914              	.LBB1346:
  75:/home/zkmike/workspace/RZA2M/rza2m_2d_barcode_sample_freertos_gcc/src/zxing_lib/zxing/common/Counted.h ****       object_->release();
 3915              		.loc 3 75 0
 3916 0210 30009DE5 		ldr	r0, [sp, #48]
 3917              	.LVL377:
 3918 0214 000050E3 		cmp	r0, #0
 3919 0218 0400000A 		beq	.L239
 3920              	.LVL378:
 3921              	.LBB1347:
 3922              	.LBB1348:
  40:/home/zkmike/workspace/RZA2M/rza2m_2d_barcode_sample_freertos_gcc/src/zxing_lib/zxing/common/Counted.h ****     if (count_ == 0) {
 3923              		.loc 3 40 0
 3924 021c 043090E5 		ldr	r3, [r0, #4]
 3925 0220 013043E2 		sub	r3, r3, #1
 3926 0224 043080E5 		str	r3, [r0, #4]
  41:/home/zkmike/workspace/RZA2M/rza2m_2d_barcode_sample_freertos_gcc/src/zxing_lib/zxing/common/Counted.h ****       count_ = 0xDEADF001;
 3927              		.loc 3 41 0
 3928 0228 000053E3 		cmp	r3, #0
 3929 022c 1700000A 		beq	.L279
 3930              	.LVL379:
 3931              	.L239:
 3932              	.LBE1348:
 3933              	.LBE1347:
 3934              	.LBE1346:
 3935              	.LBE1345:
 3936              	.LBB1352:
 3937              	.LBB1353:
 128:/home/zkmike/workspace/RZA2M/rza2m_2d_barcode_sample_freertos_gcc/src/zxing_lib/zxing/common/Array.h ****   }
 3938              		.loc 2 128 0
 3939 0230 1C309DE5 		ldr	r3, [sp, #28]
 3940              	.LVL380:
 3941              	.LBB1354:
 3942              	.LBB1355:
 3943              	.LBB1356:
 3944              		.loc 8 781 0
 3945 0234 083093E5 		ldr	r3, [r3, #8]
 3946              	.LVL381:
 3947              	.LBE1356:
 3948              	.LBE1355:
 3949              	.LBE1354:
 3950              	.LBE1353:
 3951              	.LBE1352:
  82:../src/zxing_lib/zxing/pdf417/PDF417Reader.cpp ****   
 3952              		.loc 5 82 0
 3953 0238 00B093E5 		ldr	fp, [r3]
 3954              	.LVL382:
 3955              	.LBB1357:
 3956              	.LBB1358:
 3957              	.LBB1359:
  64:/home/zkmike/workspace/RZA2M/rza2m_2d_barcode_sample_freertos_gcc/src/zxing_lib/zxing/common/Counted.h ****     reset(other.object_);
 3958              		.loc 3 64 0
 3959 023c 0030A0E3 		mov	r3, #0
 3960 0240 34308DE5 		str	r3, [sp, #52]
  65:/home/zkmike/workspace/RZA2M/rza2m_2d_barcode_sample_freertos_gcc/src/zxing_lib/zxing/common/Counted.h ****   }
 3961              		.loc 3 65 0
 3962 0244 005096E5 		ldr	r5, [r6]
 3963              	.LVL383:
 3964              	.LBB1360:
 3965              	.LBB1361:
  81:/home/zkmike/workspace/RZA2M/rza2m_2d_barcode_sample_freertos_gcc/src/zxing_lib/zxing/common/Counted.h ****       o->retain();
 3966              		.loc 3 81 0
 3967 0248 030055E1 		cmp	r5, r3
 3968              	.LVL384:
 3969              	.LBB1362:
 3970              	.LBB1363:
  36:/home/zkmike/workspace/RZA2M/rza2m_2d_barcode_sample_freertos_gcc/src/zxing_lib/zxing/common/Counted.h ****     return this;
 3971              		.loc 3 36 0
 3972 024c 04309515 		ldrne	r3, [r5, #4]
 3973 0250 01308312 		addne	r3, r3, #1
 3974 0254 04308515 		strne	r3, [r5, #4]
 3975              	.LVL385:
 3976              	.L240:
 3977              	.LBE1363:
 3978              	.LBE1362:
  84:/home/zkmike/workspace/RZA2M/rza2m_2d_barcode_sample_freertos_gcc/src/zxing_lib/zxing/common/Counted.h ****       object_->release();
 3979              		.loc 3 84 0
 3980 0258 34009DE5 		ldr	r0, [sp, #52]
 3981 025c 000050E3 		cmp	r0, #0
 3982 0260 0400000A 		beq	.L241
 3983              	.LVL386:
 3984              	.LBB1364:
 3985              	.LBB1365:
  40:/home/zkmike/workspace/RZA2M/rza2m_2d_barcode_sample_freertos_gcc/src/zxing_lib/zxing/common/Counted.h ****     if (count_ == 0) {
 3986              		.loc 3 40 0
 3987 0264 043090E5 		ldr	r3, [r0, #4]
 3988 0268 013043E2 		sub	r3, r3, #1
 3989 026c 043080E5 		str	r3, [r0, #4]
  41:/home/zkmike/workspace/RZA2M/rza2m_2d_barcode_sample_freertos_gcc/src/zxing_lib/zxing/common/Counted.h ****       count_ = 0xDEADF001;
 3990              		.loc 3 41 0
 3991 0270 000053E3 		cmp	r3, #0
 3992 0274 0C00000A 		beq	.L280
 3993              	.LVL387:
 3994              	.L241:
 3995              	.LBE1365:
 3996              	.LBE1364:
  87:/home/zkmike/workspace/RZA2M/rza2m_2d_barcode_sample_freertos_gcc/src/zxing_lib/zxing/common/Counted.h ****   }
 3997              		.loc 3 87 0
 3998 0278 38208DE2 		add	r2, sp, #56
 3999 027c 045022E5 		str	r5, [r2, #-4]!
 4000              	.LVL388:
 4001              	.LBE1361:
 4002              	.LBE1360:
 4003              	.LBE1359:
 4004              	.LBE1358:
 4005              	.LBE1357:
  82:../src/zxing_lib/zxing/pdf417/PDF417Reader.cpp ****   
 4006              		.loc 5 82 0
 4007 0280 0910A0E1 		mov	r1, r9
 4008 0284 0B00A0E1 		mov	r0, fp
 4009              	.LEHB30:
 4010 0288 FEFFFFEB 		bl	_ZN5zxing6pdf41712PDF417Reader14findPatternEndEiiNS_3RefINS_9BitMatrixEEE
 4011              	.LVL389:
 4012              	.LEHE30:
 4013 028c 0D0000EA 		b	.L281
 4014              	.LVL390:
 4015              	.L279:
 4016              	.LBB1372:
 4017              	.LBB1351:
 4018              	.LBB1350:
 4019              	.LBB1349:
  42:/home/zkmike/workspace/RZA2M/rza2m_2d_barcode_sample_freertos_gcc/src/zxing_lib/zxing/common/Counted.h ****       delete this;
 4020              		.loc 3 42 0
 4021 0290 01300FE3 		movw	r3, #61441
 4022 0294 AD3E4DE3 		movt	r3, 57005
 4023 0298 043080E5 		str	r3, [r0, #4]
  43:/home/zkmike/workspace/RZA2M/rza2m_2d_barcode_sample_freertos_gcc/src/zxing_lib/zxing/common/Counted.h ****     }
 4024              		.loc 3 43 0
 4025 029c 003090E5 		ldr	r3, [r0]
 4026 02a0 043093E5 		ldr	r3, [r3, #4]
 4027 02a4 33FF2FE1 		blx	r3
 4028              	.LVL391:
 4029 02a8 E0FFFFEA 		b	.L239
 4030              	.LVL392:
 4031              	.L280:
 4032              	.LBE1349:
 4033              	.LBE1350:
 4034              	.LBE1351:
 4035              	.LBE1372:
 4036              	.LBB1373:
 4037              	.LBB1371:
 4038              	.LBB1370:
 4039              	.LBB1369:
 4040              	.LBB1368:
 4041              	.LBB1367:
 4042              	.LBB1366:
  42:/home/zkmike/workspace/RZA2M/rza2m_2d_barcode_sample_freertos_gcc/src/zxing_lib/zxing/common/Counted.h ****       delete this;
 4043              		.loc 3 42 0
 4044 02ac 01300FE3 		movw	r3, #61441
 4045 02b0 AD3E4DE3 		movt	r3, 57005
 4046 02b4 043080E5 		str	r3, [r0, #4]
  43:/home/zkmike/workspace/RZA2M/rza2m_2d_barcode_sample_freertos_gcc/src/zxing_lib/zxing/common/Counted.h ****     }
 4047              		.loc 3 43 0
 4048 02b8 003090E5 		ldr	r3, [r0]
 4049 02bc 043093E5 		ldr	r3, [r3, #4]
 4050 02c0 33FF2FE1 		blx	r3
 4051              	.LVL393:
 4052 02c4 EBFFFFEA 		b	.L241
 4053              	.LVL394:
 4054              	.L281:
 4055              	.LBE1366:
 4056              	.LBE1367:
 4057              	.LBE1368:
 4058              	.LBE1369:
 4059              	.LBE1370:
 4060              	.LBE1371:
 4061              	.LBE1373:
  82:../src/zxing_lib/zxing/pdf417/PDF417Reader.cpp ****   
 4062              		.loc 5 82 0
 4063 02c8 0050A0E1 		mov	r5, r0
 4064              	.LVL395:
 4065              	.LBB1374:
 4066              	.LBB1375:
  75:/home/zkmike/workspace/RZA2M/rza2m_2d_barcode_sample_freertos_gcc/src/zxing_lib/zxing/common/Counted.h ****       object_->release();
 4067              		.loc 3 75 0
 4068 02cc 34009DE5 		ldr	r0, [sp, #52]
 4069              	.LVL396:
 4070 02d0 000050E3 		cmp	r0, #0
 4071 02d4 0400000A 		beq	.L242
 4072              	.LVL397:
 4073              	.LBB1376:
 4074              	.LBB1377:
  40:/home/zkmike/workspace/RZA2M/rza2m_2d_barcode_sample_freertos_gcc/src/zxing_lib/zxing/common/Counted.h ****     if (count_ == 0) {
 4075              		.loc 3 40 0
 4076 02d8 043090E5 		ldr	r3, [r0, #4]
 4077 02dc 013043E2 		sub	r3, r3, #1
 4078 02e0 043080E5 		str	r3, [r0, #4]
  41:/home/zkmike/workspace/RZA2M/rza2m_2d_barcode_sample_freertos_gcc/src/zxing_lib/zxing/common/Counted.h ****       count_ = 0xDEADF001;
 4079              		.loc 3 41 0
 4080 02e4 000053E3 		cmp	r3, #0
 4081 02e8 1200000A 		beq	.L282
 4082              	.LVL398:
 4083              	.L242:
 4084              	.LBE1377:
 4085              	.LBE1376:
 4086              	.LBE1375:
 4087              	.LBE1374:
  84:../src/zxing_lib/zxing/pdf417/PDF417Reader.cpp ****   int matrixHeight = (bottom - top + 1) / nModuleSize;
 4088              		.loc 5 84 0
 4089 02ec 070045E0 		sub	r0, r5, r7
 4090 02f0 0410A0E1 		mov	r1, r4
 4091 02f4 010080E2 		add	r0, r0, #1
 4092 02f8 FEFFFFEB 		bl	__aeabi_idiv
 4093              	.LVL399:
 4094 02fc 0050A0E1 		mov	r5, r0
 4095              	.LVL400:
  85:../src/zxing_lib/zxing/pdf417/PDF417Reader.cpp ****   if (matrixWidth <= 0 || matrixHeight <= 0) {
 4096              		.loc 5 85 0
 4097 0300 09004AE0 		sub	r0, r10, r9
 4098              	.LVL401:
 4099 0304 0410A0E1 		mov	r1, r4
 4100 0308 010080E2 		add	r0, r0, #1
 4101 030c FEFFFFEB 		bl	__aeabi_idiv
 4102              	.LVL402:
  86:../src/zxing_lib/zxing/pdf417/PDF417Reader.cpp ****     throw NotFoundException("PDF417Reader::extractPureBits: no matrix found!");
 4103              		.loc 5 86 0
 4104 0310 00A0A0E1 		mov	r10, r0
 4105              	.LVL403:
 4106 0314 000050E3 		cmp	r0, #0
 4107 0318 000055C3 		cmpgt	r5, #0
 4108 031c 0C0000DA 		ble	.L283
  93:../src/zxing_lib/zxing/pdf417/PDF417Reader.cpp ****   top += nudge;
 4109              		.loc 5 93 0
 4110 0320 C430A0E1 		asr	r3, r4, #1
 4111              	.LVL404:
  94:../src/zxing_lib/zxing/pdf417/PDF417Reader.cpp ****   left += nudge;
 4112              		.loc 5 94 0
 4113 0324 039089E0 		add	r9, r9, r3
 4114              	.LVL405:
  95:../src/zxing_lib/zxing/pdf417/PDF417Reader.cpp ****   
 4115              		.loc 5 95 0
 4116 0328 037087E0 		add	r7, r7, r3
 4117              	.LVL406:
  98:../src/zxing_lib/zxing/pdf417/PDF417Reader.cpp ****   for (int y = 0; y < matrixHeight; y++) {
 4118              		.loc 5 98 0
 4119 032c 2000A0E3 		mov	r0, #32
 4120              	.LVL407:
 4121              	.LEHB31:
 4122 0330 FEFFFFEB 		bl	_Znwj
 4123              	.LVL408:
 4124 0334 150000EA 		b	.L284
 4125              	.LVL409:
 4126              	.L282:
 4127              	.LBB1381:
 4128              	.LBB1380:
 4129              	.LBB1379:
 4130              	.LBB1378:
  42:/home/zkmike/workspace/RZA2M/rza2m_2d_barcode_sample_freertos_gcc/src/zxing_lib/zxing/common/Counted.h ****       delete this;
 4131              		.loc 3 42 0
 4132 0338 01300FE3 		movw	r3, #61441
 4133 033c AD3E4DE3 		movt	r3, 57005
 4134 0340 043080E5 		str	r3, [r0, #4]
  43:/home/zkmike/workspace/RZA2M/rza2m_2d_barcode_sample_freertos_gcc/src/zxing_lib/zxing/common/Counted.h ****     }
 4135              		.loc 3 43 0
 4136 0344 003090E5 		ldr	r3, [r0]
 4137 0348 043093E5 		ldr	r3, [r3, #4]
 4138 034c 33FF2FE1 		blx	r3
 4139              	.LVL410:
 4140 0350 E5FFFFEA 		b	.L242
 4141              	.LVL411:
 4142              	.L283:
 4143              	.LBE1378:
 4144              	.LBE1379:
 4145              	.LBE1380:
 4146              	.LBE1381:
  87:../src/zxing_lib/zxing/pdf417/PDF417Reader.cpp ****   }
 4147              		.loc 5 87 0
 4148 0354 0800A0E3 		mov	r0, #8
 4149              	.LVL412:
 4150 0358 FEFFFFEB 		bl	__cxa_allocate_exception
 4151              	.LVL413:
 4152 035c 0040A0E1 		mov	r4, r0
 4153              	.LVL414:
 4154              	.LBB1382:
 4155              	.LBB1383:
 4156              	.LBB1384:
 4157              	.LBB1385:
  31:/home/zkmike/workspace/RZA2M/rza2m_2d_barcode_sample_freertos_gcc/src/zxing_lib/zxing/ReaderException.h ****   ~ReaderException() throw() {}
 4158              		.loc 10 31 0
 4159 0360 001000E3 		movw	r1, #:lower16:.LC5
 4160 0364 001040E3 		movt	r1, #:upper16:.LC5
 4161 0368 FEFFFFEB 		bl	_ZN5zxing9ExceptionC2EPKc
 4162              	.LVL415:
 4163              	.LBE1385:
 4164              	.LBE1384:
  29:/home/zkmike/workspace/RZA2M/rza2m_2d_barcode_sample_freertos_gcc/src/zxing_lib/zxing/NotFoundException.h ****   ~NotFoundException() throw() {}
 4165              		.loc 9 29 0
 4166 036c 34339FE5 		ldr	r3, .L288+4
 4167 0370 003084E5 		str	r3, [r4]
 4168              	.LVL416:
 4169              	.LBE1383:
 4170              	.LBE1382:
  87:../src/zxing_lib/zxing/pdf417/PDF417Reader.cpp ****   }
 4171              		.loc 5 87 0
 4172 0374 002000E3 		movw	r2, #:lower16:_ZN5zxing17NotFoundExceptionD1Ev
 4173 0378 002040E3 		movt	r2, #:upper16:_ZN5zxing17NotFoundExceptionD1Ev
 4174 037c 001000E3 		movw	r1, #:lower16:_ZTIN5zxing17NotFoundExceptionE
 4175 0380 001040E3 		movt	r1, #:upper16:_ZTIN5zxing17NotFoundExceptionE
 4176 0384 0400A0E1 		mov	r0, r4
 4177 0388 FEFFFFEB 		bl	__cxa_throw
 4178              	.LVL417:
 4179              	.LEHE31:
 4180              	.L266:
 4181 038c 800000EA 		b	.L256
 4182              	.LVL418:
 4183              	.L284:
  98:../src/zxing_lib/zxing/pdf417/PDF417Reader.cpp ****   for (int y = 0; y < matrixHeight; y++) {
 4184              		.loc 5 98 0
 4185 0390 00B0A0E1 		mov	fp, r0
 4186 0394 0A20A0E1 		mov	r2, r10
 4187 0398 0510A0E1 		mov	r1, r5
 4188              	.LEHB32:
 4189 039c FEFFFFEB 		bl	_ZN5zxing9BitMatrixC1Eii
 4190              	.LVL419:
 4191              	.LEHE32:
 4192              	.LBB1386:
 4193              	.LBB1387:
  60:/home/zkmike/workspace/RZA2M/rza2m_2d_barcode_sample_freertos_gcc/src/zxing_lib/zxing/common/Counted.h ****     reset(o);
 4194              		.loc 3 60 0
 4195 03a0 0030A0E3 		mov	r3, #0
 4196 03a4 003088E5 		str	r3, [r8]
 4197              	.LVL420:
 4198              	.LBB1388:
 4199              	.LBB1389:
  81:/home/zkmike/workspace/RZA2M/rza2m_2d_barcode_sample_freertos_gcc/src/zxing_lib/zxing/common/Counted.h ****       o->retain();
 4200              		.loc 3 81 0
 4201 03a8 03005BE1 		cmp	fp, r3
 4202              	.LVL421:
 4203              	.LBB1390:
 4204              	.LBB1391:
  36:/home/zkmike/workspace/RZA2M/rza2m_2d_barcode_sample_freertos_gcc/src/zxing_lib/zxing/common/Counted.h ****     return this;
 4205              		.loc 3 36 0
 4206 03ac 04309B15 		ldrne	r3, [fp, #4]
 4207 03b0 01308312 		addne	r3, r3, #1
 4208 03b4 04308B15 		strne	r3, [fp, #4]
 4209              	.LVL422:
 4210              	.L244:
 4211              	.LBE1391:
 4212              	.LBE1390:
  84:/home/zkmike/workspace/RZA2M/rza2m_2d_barcode_sample_freertos_gcc/src/zxing_lib/zxing/common/Counted.h ****       object_->release();
 4213              		.loc 3 84 0
 4214 03b8 000098E5 		ldr	r0, [r8]
 4215 03bc 000050E3 		cmp	r0, #0
 4216 03c0 0400000A 		beq	.L245
 4217              	.LVL423:
 4218              	.LBB1392:
 4219              	.LBB1393:
  40:/home/zkmike/workspace/RZA2M/rza2m_2d_barcode_sample_freertos_gcc/src/zxing_lib/zxing/common/Counted.h ****     if (count_ == 0) {
 4220              		.loc 3 40 0
 4221 03c4 043090E5 		ldr	r3, [r0, #4]
 4222 03c8 013043E2 		sub	r3, r3, #1
 4223 03cc 043080E5 		str	r3, [r0, #4]
  41:/home/zkmike/workspace/RZA2M/rza2m_2d_barcode_sample_freertos_gcc/src/zxing_lib/zxing/common/Counted.h ****       count_ = 0xDEADF001;
 4224              		.loc 3 41 0
 4225 03d0 000053E3 		cmp	r3, #0
 4226 03d4 0200000A 		beq	.L285
 4227              	.LVL424:
 4228              	.L245:
 4229              	.LBE1393:
 4230              	.LBE1392:
  87:/home/zkmike/workspace/RZA2M/rza2m_2d_barcode_sample_freertos_gcc/src/zxing_lib/zxing/common/Counted.h ****   }
 4231              		.loc 3 87 0
 4232 03d8 00B088E5 		str	fp, [r8]
 4233              	.LBE1389:
 4234              	.LBE1388:
 4235              	.LBE1387:
 4236              	.LBE1386:
 4237              	.LBB1399:
  99:../src/zxing_lib/zxing/pdf417/PDF417Reader.cpp ****     int iOffset = top + y * nModuleSize;
 4238              		.loc 5 99 0
 4239 03dc 00B0A0E3 		mov	fp, #0
 4240              	.LVL425:
 4241 03e0 230000EA 		b	.L250
 4242              	.LVL426:
 4243              	.L285:
 4244              	.LBE1399:
 4245              	.LBB1424:
 4246              	.LBB1398:
 4247              	.LBB1397:
 4248              	.LBB1396:
 4249              	.LBB1395:
 4250              	.LBB1394:
  42:/home/zkmike/workspace/RZA2M/rza2m_2d_barcode_sample_freertos_gcc/src/zxing_lib/zxing/common/Counted.h ****       delete this;
 4251              		.loc 3 42 0
 4252 03e4 01300FE3 		movw	r3, #61441
 4253 03e8 AD3E4DE3 		movt	r3, 57005
 4254 03ec 043080E5 		str	r3, [r0, #4]
  43:/home/zkmike/workspace/RZA2M/rza2m_2d_barcode_sample_freertos_gcc/src/zxing_lib/zxing/common/Counted.h ****     }
 4255              		.loc 3 43 0
 4256 03f0 003090E5 		ldr	r3, [r0]
 4257 03f4 043093E5 		ldr	r3, [r3, #4]
 4258 03f8 33FF2FE1 		blx	r3
 4259              	.LVL427:
 4260 03fc F5FFFFEA 		b	.L245
 4261              	.LVL428:
 4262              	.L248:
 4263              	.LBE1394:
 4264              	.LBE1395:
 4265              	.LBE1396:
 4266              	.LBE1397:
 4267              	.LBE1398:
 4268              	.LBE1424:
 4269              	.LBB1425:
 4270              	.LBB1400:
 4271              	.LBB1401:
 101:../src/zxing_lib/zxing/pdf417/PDF417Reader.cpp ****       if (image->get(left + x * nModuleSize, iOffset)) {
 4272              		.loc 5 101 0 discriminator 2
 4273 0400 013083E2 		add	r3, r3, #1
 4274              	.LVL429:
 4275              	.L249:
 101:../src/zxing_lib/zxing/pdf417/PDF417Reader.cpp ****       if (image->get(left + x * nModuleSize, iOffset)) {
 4276              		.loc 5 101 0 is_stmt 0 discriminator 1
 4277 0404 050053E1 		cmp	r3, r5
 4278 0408 170000AA 		bge	.L247
 4279              	.LVL430:
 4280              	.LBB1402:
 4281              	.LBB1403:
 112:/home/zkmike/workspace/RZA2M/rza2m_2d_barcode_sample_freertos_gcc/src/zxing_lib/zxing/common/Counted.h ****   }
 4282              		.loc 3 112 0 is_stmt 1
 4283 040c 000096E5 		ldr	r0, [r6]
 4284              	.LVL431:
 4285              	.LBE1403:
 4286              	.LBE1402:
 102:../src/zxing_lib/zxing/pdf417/PDF417Reader.cpp ****         bits->set(x, y);
 4287              		.loc 5 102 0
 4288 0410 947322E0 		mla	r2, r4, r3, r7
 4289              	.LVL432:
 4290              	.LBB1404:
 4291              	.LBB1405:
  59:/home/zkmike/workspace/RZA2M/rza2m_2d_barcode_sample_freertos_gcc/src/zxing_lib/zxing/common/BitMatrix.h ****     return ((((unsigned)bits[offset]) >> (x & bitsMask)) & 1) != 0;
 4292              		.loc 11 59 0
 4293 0414 10C090E5 		ldr	ip, [r0, #16]
 4294 0418 C212A0E1 		asr	r1, r2, #5
 4295 041c 9C1E21E0 		mla	r1, ip, lr, r1
 4296              	.LVL433:
 4297              	.LBB1406:
 4298              	.LBB1407:
 124:/home/zkmike/workspace/RZA2M/rza2m_2d_barcode_sample_freertos_gcc/src/zxing_lib/zxing/common/Array.h ****   }
 4299              		.loc 2 124 0
 4300 0420 1C0090E5 		ldr	r0, [r0, #28]
 4301              	.LVL434:
 4302              	.LBB1408:
 4303              	.LBB1409:
 4304              	.LBB1410:
 4305              	.LBB1411:
 4306              		.loc 8 781 0
 4307 0424 080090E5 		ldr	r0, [r0, #8]
 4308              	.LVL435:
 4309              	.LBE1411:
 4310              	.LBE1410:
 4311              	.LBE1409:
 4312              	.LBE1408:
 4313              	.LBE1407:
 4314              	.LBE1406:
 4315              		.loc 11 60 0
 4316 0428 011190E7 		ldr	r1, [r0, r1, lsl #2]
 4317              	.LVL436:
 4318 042c 1F2002E2 		and	r2, r2, #31
 4319              	.LVL437:
 4320 0430 3122A0E1 		lsr	r2, r1, r2
 4321              	.LVL438:
 4322              	.LBE1405:
 4323              	.LBE1404:
 102:../src/zxing_lib/zxing/pdf417/PDF417Reader.cpp ****         bits->set(x, y);
 4324              		.loc 5 102 0
 4325 0434 010012E3 		tst	r2, #1
 4326 0438 F0FFFF0A 		beq	.L248
 4327              	.LVL439:
 4328              	.LBB1412:
 4329              	.LBB1413:
 112:/home/zkmike/workspace/RZA2M/rza2m_2d_barcode_sample_freertos_gcc/src/zxing_lib/zxing/common/Counted.h ****   }
 4330              		.loc 3 112 0
 4331 043c 001098E5 		ldr	r1, [r8]
 4332              	.LVL440:
 4333              	.LBE1413:
 4334              	.LBE1412:
 4335              	.LBB1414:
 4336              	.LBB1415:
  61:/home/zkmike/workspace/RZA2M/rza2m_2d_barcode_sample_freertos_gcc/src/zxing_lib/zxing/common/BitMatrix.h ****   }
  62:/home/zkmike/workspace/RZA2M/rza2m_2d_barcode_sample_freertos_gcc/src/zxing_lib/zxing/common/BitMatrix.h **** 
  63:/home/zkmike/workspace/RZA2M/rza2m_2d_barcode_sample_freertos_gcc/src/zxing_lib/zxing/common/BitMatrix.h ****   void set(int x, int y) {
  64:/home/zkmike/workspace/RZA2M/rza2m_2d_barcode_sample_freertos_gcc/src/zxing_lib/zxing/common/BitMatrix.h ****     int offset = y * rowSize + (x >> logBits);
 4337              		.loc 11 64 0
 4338 0440 100091E5 		ldr	r0, [r1, #16]
 4339 0444 C322A0E1 		asr	r2, r3, #5
 4340 0448 902B22E0 		mla	r2, r0, fp, r2
 4341              	.LVL441:
 4342              	.LBB1416:
 4343              	.LBB1417:
 128:/home/zkmike/workspace/RZA2M/rza2m_2d_barcode_sample_freertos_gcc/src/zxing_lib/zxing/common/Array.h ****   }
 4344              		.loc 2 128 0
 4345 044c 1C1091E5 		ldr	r1, [r1, #28]
 4346              	.LVL442:
 4347              	.LBB1418:
 4348              	.LBB1419:
 4349              	.LBB1420:
 4350              	.LBB1421:
 4351              		.loc 8 781 0
 4352 0450 080091E5 		ldr	r0, [r1, #8]
 4353              	.LVL443:
 4354              	.LBE1421:
 4355              	.LBE1420:
 4356              	.LBE1419:
 4357              	.LBE1418:
 4358              	.LBE1417:
 4359              	.LBE1416:
  65:/home/zkmike/workspace/RZA2M/rza2m_2d_barcode_sample_freertos_gcc/src/zxing_lib/zxing/common/BitMatrix.h ****     bits[offset] |= 1 << (x & bitsMask);
 4360              		.loc 11 65 0
 4361 0454 1F1003E2 		and	r1, r3, #31
 4362 0458 01C0A0E3 		mov	ip, #1
 4363 045c 029190E7 		ldr	r9, [r0, r2, lsl #2]
 4364 0460 1C1189E1 		orr	r1, r9, ip, lsl r1
 4365 0464 021180E7 		str	r1, [r0, r2, lsl #2]
 4366 0468 E4FFFFEA 		b	.L248
 4367              	.LVL444:
 4368              	.L247:
 4369 046c 04909DE5 		ldr	r9, [sp, #4]
 4370              	.LBE1415:
 4371              	.LBE1414:
 4372              	.LBE1401:
 4373              	.LBE1400:
  99:../src/zxing_lib/zxing/pdf417/PDF417Reader.cpp ****     int iOffset = top + y * nModuleSize;
 4374              		.loc 5 99 0 discriminator 2
 4375 0470 01B08BE2 		add	fp, fp, #1
 4376              	.LVL445:
 4377              	.L250:
  99:../src/zxing_lib/zxing/pdf417/PDF417Reader.cpp ****     int iOffset = top + y * nModuleSize;
 4378              		.loc 5 99 0 is_stmt 0 discriminator 1
 4379 0474 0A005BE1 		cmp	fp, r10
 4380              	.LBB1423:
 100:../src/zxing_lib/zxing/pdf417/PDF417Reader.cpp ****     for (int x = 0; x < matrixWidth; x++) {
 4381              		.loc 5 100 0 is_stmt 1
 4382 0478 949B2EB0 		mlalt	lr, r4, fp, r9
 4383              	.LVL446:
 4384              	.LBB1422:
 101:../src/zxing_lib/zxing/pdf417/PDF417Reader.cpp ****       if (image->get(left + x * nModuleSize, iOffset)) {
 4385              		.loc 5 101 0
 4386 047c 0030A0B3 		movlt	r3, #0
 4387 0480 04908DB5 		strlt	r9, [sp, #4]
 4388 0484 DEFFFFBA 		blt	.L249
 4389              	.LVL447:
 4390              	.L246:
 4391              	.LBE1422:
 4392              	.LBE1423:
 4393              	.LBE1425:
 4394              	.LBB1426:
 4395              	.LBB1427:
 121:/home/zkmike/workspace/RZA2M/rza2m_2d_barcode_sample_freertos_gcc/src/zxing_lib/zxing/common/Array.h **** 
 4396              		.loc 2 121 0
 4397 0488 14329FE5 		ldr	r3, .L288
 4398 048c 08308DE5 		str	r3, [sp, #8]
 117:/home/zkmike/workspace/RZA2M/rza2m_2d_barcode_sample_freertos_gcc/src/zxing_lib/zxing/common/Array.h ****       array_->release();
 4399              		.loc 2 117 0
 4400 0490 10009DE5 		ldr	r0, [sp, #16]
 4401 0494 000050E3 		cmp	r0, #0
 4402 0498 0400000A 		beq	.L251
 4403              	.LVL448:
 4404              	.LBB1428:
 4405              	.LBB1429:
  40:/home/zkmike/workspace/RZA2M/rza2m_2d_barcode_sample_freertos_gcc/src/zxing_lib/zxing/common/Counted.h ****     if (count_ == 0) {
 4406              		.loc 3 40 0
 4407 049c 043090E5 		ldr	r3, [r0, #4]
 4408 04a0 013043E2 		sub	r3, r3, #1
 4409 04a4 043080E5 		str	r3, [r0, #4]
  41:/home/zkmike/workspace/RZA2M/rza2m_2d_barcode_sample_freertos_gcc/src/zxing_lib/zxing/common/Counted.h ****       count_ = 0xDEADF001;
 4410              		.loc 3 41 0
 4411 04a8 000053E3 		cmp	r3, #0
 4412 04ac 0C00000A 		beq	.L286
 4413              	.LVL449:
 4414              	.L251:
 4415              	.LBE1429:
 4416              	.LBE1428:
 4417              	.LBE1427:
 4418              	.LBE1426:
 4419              	.LBB1433:
 4420              	.LBB1434:
 121:/home/zkmike/workspace/RZA2M/rza2m_2d_barcode_sample_freertos_gcc/src/zxing_lib/zxing/common/Array.h **** 
 4421              		.loc 2 121 0
 4422 04b0 EC319FE5 		ldr	r3, .L288
 4423 04b4 14308DE5 		str	r3, [sp, #20]
 117:/home/zkmike/workspace/RZA2M/rza2m_2d_barcode_sample_freertos_gcc/src/zxing_lib/zxing/common/Array.h ****       array_->release();
 4424              		.loc 2 117 0
 4425 04b8 1C009DE5 		ldr	r0, [sp, #28]
 4426 04bc 000050E3 		cmp	r0, #0
 4427 04c0 0400000A 		beq	.L230
 4428              	.LVL450:
 4429              	.LBB1435:
 4430              	.LBB1436:
  40:/home/zkmike/workspace/RZA2M/rza2m_2d_barcode_sample_freertos_gcc/src/zxing_lib/zxing/common/Counted.h ****     if (count_ == 0) {
 4431              		.loc 3 40 0
 4432 04c4 043090E5 		ldr	r3, [r0, #4]
 4433 04c8 013043E2 		sub	r3, r3, #1
 4434 04cc 043080E5 		str	r3, [r0, #4]
  41:/home/zkmike/workspace/RZA2M/rza2m_2d_barcode_sample_freertos_gcc/src/zxing_lib/zxing/common/Counted.h ****       count_ = 0xDEADF001;
 4435              		.loc 3 41 0
 4436 04d0 000053E3 		cmp	r3, #0
 4437 04d4 0900000A 		beq	.L287
 4438              	.LVL451:
 4439              	.L230:
 4440              	.LBE1436:
 4441              	.LBE1435:
 4442              	.LBE1434:
 4443              	.LBE1433:
 108:../src/zxing_lib/zxing/pdf417/PDF417Reader.cpp **** 
 4444              		.loc 5 108 0
 4445 04d8 0800A0E1 		mov	r0, r8
 4446 04dc 3CD08DE2 		add	sp, sp, #60
 4447              		.cfi_remember_state
 4448              		.cfi_def_cfa_offset 36
 4449              		@ sp needed
 4450 04e0 F08FBDE8 		pop	{r4, r5, r6, r7, r8, r9, r10, fp, pc}
 4451              	.LVL452:
 4452              	.L286:
 4453              		.cfi_restore_state
 4454              	.LBB1440:
 4455              	.LBB1432:
 4456              	.LBB1431:
 4457              	.LBB1430:
  42:/home/zkmike/workspace/RZA2M/rza2m_2d_barcode_sample_freertos_gcc/src/zxing_lib/zxing/common/Counted.h ****       delete this;
 4458              		.loc 3 42 0
 4459 04e4 01300FE3 		movw	r3, #61441
 4460 04e8 AD3E4DE3 		movt	r3, 57005
 4461 04ec 043080E5 		str	r3, [r0, #4]
  43:/home/zkmike/workspace/RZA2M/rza2m_2d_barcode_sample_freertos_gcc/src/zxing_lib/zxing/common/Counted.h ****     }
 4462              		.loc 3 43 0
 4463 04f0 003090E5 		ldr	r3, [r0]
 4464 04f4 043093E5 		ldr	r3, [r3, #4]
 4465 04f8 33FF2FE1 		blx	r3
 4466              	.LVL453:
 4467 04fc EBFFFFEA 		b	.L251
 4468              	.LVL454:
 4469              	.L287:
 4470              	.LBE1430:
 4471              	.LBE1431:
 4472              	.LBE1432:
 4473              	.LBE1440:
 4474              	.LBB1441:
 4475              	.LBB1439:
 4476              	.LBB1438:
 4477              	.LBB1437:
  42:/home/zkmike/workspace/RZA2M/rza2m_2d_barcode_sample_freertos_gcc/src/zxing_lib/zxing/common/Counted.h ****       delete this;
 4478              		.loc 3 42 0
 4479 0500 01300FE3 		movw	r3, #61441
 4480 0504 AD3E4DE3 		movt	r3, 57005
 4481 0508 043080E5 		str	r3, [r0, #4]
  43:/home/zkmike/workspace/RZA2M/rza2m_2d_barcode_sample_freertos_gcc/src/zxing_lib/zxing/common/Counted.h ****     }
 4482              		.loc 3 43 0
 4483 050c 003090E5 		ldr	r3, [r0]
 4484 0510 043093E5 		ldr	r3, [r3, #4]
 4485 0514 33FF2FE1 		blx	r3
 4486              	.LVL455:
 4487              	.LBE1437:
 4488              	.LBE1438:
 4489              	.LBE1439:
 4490              	.LBE1441:
 107:../src/zxing_lib/zxing/pdf417/PDF417Reader.cpp **** }
 4491              		.loc 5 107 0
 4492 0518 EEFFFFEA 		b	.L230
 4493              	.LVL456:
 4494              	.L267:
 4495              	.LBB1442:
 4496              	.LBB1443:
  75:/home/zkmike/workspace/RZA2M/rza2m_2d_barcode_sample_freertos_gcc/src/zxing_lib/zxing/common/Counted.h ****       object_->release();
 4497              		.loc 3 75 0
 4498 051c 2C009DE5 		ldr	r0, [sp, #44]
 4499 0520 000050E3 		cmp	r0, #0
 4500 0524 0A00000A 		beq	.L254
 4501              	.LVL457:
 4502              	.LBB1444:
 4503              	.LBB1445:
  40:/home/zkmike/workspace/RZA2M/rza2m_2d_barcode_sample_freertos_gcc/src/zxing_lib/zxing/common/Counted.h ****     if (count_ == 0) {
 4504              		.loc 3 40 0
 4505 0528 043090E5 		ldr	r3, [r0, #4]
 4506 052c 013043E2 		sub	r3, r3, #1
 4507 0530 043080E5 		str	r3, [r0, #4]
  41:/home/zkmike/workspace/RZA2M/rza2m_2d_barcode_sample_freertos_gcc/src/zxing_lib/zxing/common/Counted.h ****       count_ = 0xDEADF001;
 4508              		.loc 3 41 0
 4509 0534 000053E3 		cmp	r3, #0
 4510 0538 0500001A 		bne	.L254
  42:/home/zkmike/workspace/RZA2M/rza2m_2d_barcode_sample_freertos_gcc/src/zxing_lib/zxing/common/Counted.h ****       delete this;
 4511              		.loc 3 42 0
 4512 053c 01300FE3 		movw	r3, #61441
 4513 0540 AD3E4DE3 		movt	r3, 57005
 4514 0544 043080E5 		str	r3, [r0, #4]
  43:/home/zkmike/workspace/RZA2M/rza2m_2d_barcode_sample_freertos_gcc/src/zxing_lib/zxing/common/Counted.h ****     }
 4515              		.loc 3 43 0
 4516 0548 003090E5 		ldr	r3, [r0]
 4517 054c 043093E5 		ldr	r3, [r3, #4]
 4518 0550 33FF2FE1 		blx	r3
 4519              	.LVL458:
 4520              	.L254:
 4521              	.LBE1445:
 4522              	.LBE1444:
 4523              	.LBE1443:
 4524              	.LBE1442:
 4525              	.LBB1446:
 4526              	.LBB1447:
 121:/home/zkmike/workspace/RZA2M/rza2m_2d_barcode_sample_freertos_gcc/src/zxing_lib/zxing/common/Array.h **** 
 4527              		.loc 2 121 0
 4528 0554 48319FE5 		ldr	r3, .L288
 4529 0558 20308DE5 		str	r3, [sp, #32]
 117:/home/zkmike/workspace/RZA2M/rza2m_2d_barcode_sample_freertos_gcc/src/zxing_lib/zxing/common/Array.h ****       array_->release();
 4530              		.loc 2 117 0
 4531 055c 28009DE5 		ldr	r0, [sp, #40]
 4532 0560 000050E3 		cmp	r0, #0
 4533 0564 0A00000A 		beq	.L256
 4534              	.LVL459:
 4535              	.LBB1448:
 4536              	.LBB1449:
  40:/home/zkmike/workspace/RZA2M/rza2m_2d_barcode_sample_freertos_gcc/src/zxing_lib/zxing/common/Counted.h ****     if (count_ == 0) {
 4537              		.loc 3 40 0
 4538 0568 043090E5 		ldr	r3, [r0, #4]
 4539 056c 013043E2 		sub	r3, r3, #1
 4540 0570 043080E5 		str	r3, [r0, #4]
  41:/home/zkmike/workspace/RZA2M/rza2m_2d_barcode_sample_freertos_gcc/src/zxing_lib/zxing/common/Counted.h ****       count_ = 0xDEADF001;
 4541              		.loc 3 41 0
 4542 0574 000053E3 		cmp	r3, #0
 4543 0578 0500001A 		bne	.L256
  42:/home/zkmike/workspace/RZA2M/rza2m_2d_barcode_sample_freertos_gcc/src/zxing_lib/zxing/common/Counted.h ****       delete this;
 4544              		.loc 3 42 0
 4545 057c 01300FE3 		movw	r3, #61441
 4546 0580 AD3E4DE3 		movt	r3, 57005
 4547 0584 043080E5 		str	r3, [r0, #4]
  43:/home/zkmike/workspace/RZA2M/rza2m_2d_barcode_sample_freertos_gcc/src/zxing_lib/zxing/common/Counted.h ****     }
 4548              		.loc 3 43 0
 4549 0588 003090E5 		ldr	r3, [r0]
 4550 058c 043093E5 		ldr	r3, [r3, #4]
 4551 0590 33FF2FE1 		blx	r3
 4552              	.LVL460:
 4553              	.L256:
 4554              	.LBE1449:
 4555              	.LBE1448:
 4556              	.LBE1447:
 4557              	.LBE1446:
 4558              	.LBB1450:
 4559              	.LBB1451:
 121:/home/zkmike/workspace/RZA2M/rza2m_2d_barcode_sample_freertos_gcc/src/zxing_lib/zxing/common/Array.h **** 
 4560              		.loc 2 121 0
 4561 0594 08319FE5 		ldr	r3, .L288
 4562 0598 08308DE5 		str	r3, [sp, #8]
 117:/home/zkmike/workspace/RZA2M/rza2m_2d_barcode_sample_freertos_gcc/src/zxing_lib/zxing/common/Array.h ****       array_->release();
 4563              		.loc 2 117 0
 4564 059c 10009DE5 		ldr	r0, [sp, #16]
 4565 05a0 000050E3 		cmp	r0, #0
 4566 05a4 0A00000A 		beq	.L263
 4567              	.LVL461:
 4568              	.LBB1452:
 4569              	.LBB1453:
  40:/home/zkmike/workspace/RZA2M/rza2m_2d_barcode_sample_freertos_gcc/src/zxing_lib/zxing/common/Counted.h ****     if (count_ == 0) {
 4570              		.loc 3 40 0
 4571 05a8 043090E5 		ldr	r3, [r0, #4]
 4572 05ac 013043E2 		sub	r3, r3, #1
 4573 05b0 043080E5 		str	r3, [r0, #4]
  41:/home/zkmike/workspace/RZA2M/rza2m_2d_barcode_sample_freertos_gcc/src/zxing_lib/zxing/common/Counted.h ****       count_ = 0xDEADF001;
 4574              		.loc 3 41 0
 4575 05b4 000053E3 		cmp	r3, #0
 4576 05b8 0500001A 		bne	.L263
  42:/home/zkmike/workspace/RZA2M/rza2m_2d_barcode_sample_freertos_gcc/src/zxing_lib/zxing/common/Counted.h ****       delete this;
 4577              		.loc 3 42 0
 4578 05bc 01300FE3 		movw	r3, #61441
 4579 05c0 AD3E4DE3 		movt	r3, 57005
 4580 05c4 043080E5 		str	r3, [r0, #4]
  43:/home/zkmike/workspace/RZA2M/rza2m_2d_barcode_sample_freertos_gcc/src/zxing_lib/zxing/common/Counted.h ****     }
 4581              		.loc 3 43 0
 4582 05c8 003090E5 		ldr	r3, [r0]
 4583 05cc 043093E5 		ldr	r3, [r3, #4]
 4584 05d0 33FF2FE1 		blx	r3
 4585              	.LVL462:
 4586              	.L263:
 4587              	.LBE1453:
 4588              	.LBE1452:
 4589              	.LBE1451:
 4590              	.LBE1450:
 4591              	.LBB1454:
 4592              	.LBB1455:
 121:/home/zkmike/workspace/RZA2M/rza2m_2d_barcode_sample_freertos_gcc/src/zxing_lib/zxing/common/Array.h **** 
 4593              		.loc 2 121 0
 4594 05d4 C8309FE5 		ldr	r3, .L288
 4595 05d8 14308DE5 		str	r3, [sp, #20]
 117:/home/zkmike/workspace/RZA2M/rza2m_2d_barcode_sample_freertos_gcc/src/zxing_lib/zxing/common/Array.h ****       array_->release();
 4596              		.loc 2 117 0
 4597 05dc 1C009DE5 		ldr	r0, [sp, #28]
 4598 05e0 000050E3 		cmp	r0, #0
 4599 05e4 0A00000A 		beq	.L264
 4600              	.LVL463:
 4601              	.LBB1456:
 4602              	.LBB1457:
  40:/home/zkmike/workspace/RZA2M/rza2m_2d_barcode_sample_freertos_gcc/src/zxing_lib/zxing/common/Counted.h ****     if (count_ == 0) {
 4603              		.loc 3 40 0
 4604 05e8 043090E5 		ldr	r3, [r0, #4]
 4605 05ec 013043E2 		sub	r3, r3, #1
 4606 05f0 043080E5 		str	r3, [r0, #4]
  41:/home/zkmike/workspace/RZA2M/rza2m_2d_barcode_sample_freertos_gcc/src/zxing_lib/zxing/common/Counted.h ****       count_ = 0xDEADF001;
 4607              		.loc 3 41 0
 4608 05f4 000053E3 		cmp	r3, #0
 4609 05f8 0500001A 		bne	.L264
  42:/home/zkmike/workspace/RZA2M/rza2m_2d_barcode_sample_freertos_gcc/src/zxing_lib/zxing/common/Counted.h ****       delete this;
 4610              		.loc 3 42 0
 4611 05fc 01300FE3 		movw	r3, #61441
 4612 0600 AD3E4DE3 		movt	r3, 57005
 4613 0604 043080E5 		str	r3, [r0, #4]
  43:/home/zkmike/workspace/RZA2M/rza2m_2d_barcode_sample_freertos_gcc/src/zxing_lib/zxing/common/Counted.h ****     }
 4614              		.loc 3 43 0
 4615 0608 003090E5 		ldr	r3, [r0]
 4616 060c 043093E5 		ldr	r3, [r3, #4]
 4617 0610 33FF2FE1 		blx	r3
 4618              	.LVL464:
 4619              	.L264:
 4620              	.LEHB33:
 4621 0614 FEFFFFEB 		bl	__cxa_end_cleanup
 4622              	.LVL465:
 4623              	.LEHE33:
 4624              	.L268:
 4625              	.LBE1457:
 4626              	.LBE1456:
 4627              	.LBE1455:
 4628              	.LBE1454:
 4629              	.LBB1458:
 4630              	.LBB1459:
  75:/home/zkmike/workspace/RZA2M/rza2m_2d_barcode_sample_freertos_gcc/src/zxing_lib/zxing/common/Counted.h ****       object_->release();
 4631              		.loc 3 75 0
 4632 0618 30009DE5 		ldr	r0, [sp, #48]
 4633 061c 000050E3 		cmp	r0, #0
 4634 0620 DBFFFF0A 		beq	.L256
 4635              	.LVL466:
 4636              	.LBB1460:
 4637              	.LBB1461:
  40:/home/zkmike/workspace/RZA2M/rza2m_2d_barcode_sample_freertos_gcc/src/zxing_lib/zxing/common/Counted.h ****     if (count_ == 0) {
 4638              		.loc 3 40 0
 4639 0624 043090E5 		ldr	r3, [r0, #4]
 4640 0628 013043E2 		sub	r3, r3, #1
 4641 062c 043080E5 		str	r3, [r0, #4]
  41:/home/zkmike/workspace/RZA2M/rza2m_2d_barcode_sample_freertos_gcc/src/zxing_lib/zxing/common/Counted.h ****       count_ = 0xDEADF001;
 4642              		.loc 3 41 0
 4643 0630 000053E3 		cmp	r3, #0
 4644 0634 D6FFFF1A 		bne	.L256
  42:/home/zkmike/workspace/RZA2M/rza2m_2d_barcode_sample_freertos_gcc/src/zxing_lib/zxing/common/Counted.h ****       delete this;
 4645              		.loc 3 42 0
 4646 0638 01300FE3 		movw	r3, #61441
 4647 063c AD3E4DE3 		movt	r3, 57005
 4648 0640 043080E5 		str	r3, [r0, #4]
  43:/home/zkmike/workspace/RZA2M/rza2m_2d_barcode_sample_freertos_gcc/src/zxing_lib/zxing/common/Counted.h ****     }
 4649              		.loc 3 43 0
 4650 0644 003090E5 		ldr	r3, [r0]
 4651 0648 043093E5 		ldr	r3, [r3, #4]
 4652 064c 33FF2FE1 		blx	r3
 4653              	.LVL467:
 4654 0650 CFFFFFEA 		b	.L256
 4655              	.LVL468:
 4656              	.L269:
 4657              	.LBE1461:
 4658              	.LBE1460:
 4659              	.LBE1459:
 4660              	.LBE1458:
 4661              	.LBB1462:
 4662              	.LBB1463:
  75:/home/zkmike/workspace/RZA2M/rza2m_2d_barcode_sample_freertos_gcc/src/zxing_lib/zxing/common/Counted.h ****       object_->release();
 4663              		.loc 3 75 0
 4664 0654 34009DE5 		ldr	r0, [sp, #52]
 4665 0658 000050E3 		cmp	r0, #0
 4666 065c CCFFFF0A 		beq	.L256
 4667              	.LVL469:
 4668              	.LBB1464:
 4669              	.LBB1465:
  40:/home/zkmike/workspace/RZA2M/rza2m_2d_barcode_sample_freertos_gcc/src/zxing_lib/zxing/common/Counted.h ****     if (count_ == 0) {
 4670              		.loc 3 40 0
 4671 0660 043090E5 		ldr	r3, [r0, #4]
 4672 0664 013043E2 		sub	r3, r3, #1
 4673 0668 043080E5 		str	r3, [r0, #4]
  41:/home/zkmike/workspace/RZA2M/rza2m_2d_barcode_sample_freertos_gcc/src/zxing_lib/zxing/common/Counted.h ****       count_ = 0xDEADF001;
 4674              		.loc 3 41 0
 4675 066c 000053E3 		cmp	r3, #0
 4676 0670 C7FFFF1A 		bne	.L256
  42:/home/zkmike/workspace/RZA2M/rza2m_2d_barcode_sample_freertos_gcc/src/zxing_lib/zxing/common/Counted.h ****       delete this;
 4677              		.loc 3 42 0
 4678 0674 01300FE3 		movw	r3, #61441
 4679 0678 AD3E4DE3 		movt	r3, 57005
 4680 067c 043080E5 		str	r3, [r0, #4]
  43:/home/zkmike/workspace/RZA2M/rza2m_2d_barcode_sample_freertos_gcc/src/zxing_lib/zxing/common/Counted.h ****     }
 4681              		.loc 3 43 0
 4682 0680 003090E5 		ldr	r3, [r0]
 4683 0684 043093E5 		ldr	r3, [r3, #4]
 4684 0688 33FF2FE1 		blx	r3
 4685              	.LVL470:
 4686 068c C0FFFFEA 		b	.L256
 4687              	.LVL471:
 4688              	.L270:
 4689              	.LBE1465:
 4690              	.LBE1464:
 4691              	.LBE1463:
 4692              	.LBE1462:
  98:../src/zxing_lib/zxing/pdf417/PDF417Reader.cpp ****   for (int y = 0; y < matrixHeight; y++) {
 4693              		.loc 5 98 0
 4694 0690 2010A0E3 		mov	r1, #32
 4695 0694 0B00A0E1 		mov	r0, fp
 4696 0698 FEFFFFEB 		bl	_ZdlPvj
 4697              	.LVL472:
 4698 069c BCFFFFEA 		b	.L256
 4699              	.LVL473:
 4700              	.L265:
 4701 06a0 CBFFFFEA 		b	.L263
 4702              	.L289:
 4703              		.align	2
 4704              	.L288:
 4705 06a4 08000000 		.word	_ZTVN5zxing8ArrayRefIiEE+8
 4706 06a8 08000000 		.word	_ZTVN5zxing17NotFoundExceptionE+8
 4707              		.cfi_endproc
 4708              	.LFE2287:
 4709              		.personality	__gxx_personality_v0
 4710              		.handlerdata
 4711              	.LLSDA2287:
 4712 0008 FF       		.byte	0xff
 4713 0009 FF       		.byte	0xff
 4714 000a 01       		.byte	0x1
 4715 000b 2C       		.uleb128 .LLSDACSE2287-.LLSDACSB2287
 4716              	.LLSDACSB2287:
 4717 000c 18       		.uleb128 .LEHB26-.LFB2287
 4718 000d 04       		.uleb128 .LEHE26-.LEHB26
 4719 000e 00       		.uleb128 0
 4720 000f 00       		.uleb128 0
 4721 0010 24       		.uleb128 .LEHB27-.LFB2287
 4722 0011 04       		.uleb128 .LEHE27-.LEHB27
 4723 0012 A00D     		.uleb128 .L265-.LFB2287
 4724 0014 00       		.uleb128 0
 4725 0015 BC01     		.uleb128 .LEHB28-.LFB2287
 4726 0017 04       		.uleb128 .LEHE28-.LEHB28
 4727 0018 9C0A     		.uleb128 .L267-.LFB2287
 4728 001a 00       		.uleb128 0
 4729 001b B003     		.uleb128 .LEHB29-.LFB2287
 4730 001d 04       		.uleb128 .LEHE29-.LEHB29
 4731 001e 980C     		.uleb128 .L268-.LFB2287
 4732 0020 00       		.uleb128 0
 4733 0021 8805     		.uleb128 .LEHB30-.LFB2287
 4734 0023 04       		.uleb128 .LEHE30-.LEHB30
 4735 0024 D40C     		.uleb128 .L269-.LFB2287
 4736 0026 00       		.uleb128 0
 4737 0027 B006     		.uleb128 .LEHB31-.LFB2287
 4738 0029 5C       		.uleb128 .LEHE31-.LEHB31
 4739 002a 8C07     		.uleb128 .L266-.LFB2287
 4740 002c 00       		.uleb128 0
 4741 002d 9C07     		.uleb128 .LEHB32-.LFB2287
 4742 002f 04       		.uleb128 .LEHE32-.LEHB32
 4743 0030 900D     		.uleb128 .L270-.LFB2287
 4744 0032 00       		.uleb128 0
 4745 0033 940C     		.uleb128 .LEHB33-.LFB2287
 4746 0035 04       		.uleb128 .LEHE33-.LEHB33
 4747 0036 00       		.uleb128 0
 4748 0037 00       		.uleb128 0
 4749              	.LLSDACSE2287:
 4750              		.section	.text._ZN5zxing6pdf41712PDF417Reader15extractPureBitsENS_3RefINS_9BitMatrixEEE
 4751              		.fnend
 4753              		.section	.text._GLOBAL__sub_I__ZN5zxing6pdf41712PDF417Reader6decodeENS_3RefINS_12BinaryBitmapEEENS
 4754              		.align	2
 4755              		.syntax unified
 4756              		.arm
 4757              		.fpu neon
 4759              	_GLOBAL__sub_I__ZN5zxing6pdf41712PDF417Reader6decodeENS_3RefINS_12BinaryBitmapEEENS_11DecodeHintsE:
 4760              		.fnstart
 4761              	.LFB2837:
 4762              		.loc 5 170 0
 4763              		.cfi_startproc
 4764              		@ args = 0, pretend = 0, frame = 0
 4765              		@ frame_needed = 0, uses_anonymous_args = 0
 4766 0000 10402DE9 		push	{r4, lr}
 4767              		.cfi_def_cfa_offset 8
 4768              		.cfi_offset 4, -8
 4769              		.cfi_offset 14, -4
 4770              		.loc 5 170 0
 4771 0004 FF1F0FE3 		movw	r1, #65535
 4772 0008 0100A0E3 		mov	r0, #1
 4773 000c FEFFFFEB 		bl	_Z41__static_initialization_and_destruction_0ii
 4774              	.LVL474:
 4775 0010 1080BDE8 		pop	{r4, pc}
 4776              		.cfi_endproc
 4777              	.LFE2837:
 4778              		.cantunwind
 4779              		.fnend
 4781              		.section	.init_array,"aw",%init_array
 4782              		.align	2
 4783 0000 00000000 		.word	_GLOBAL__sub_I__ZN5zxing6pdf41712PDF417Reader6decodeENS_3RefINS_12BinaryBitmapEEENS_11Decode
 4784              		.weak	_ZTSN5zxing7CountedE
 4785              		.section	.rodata._ZTSN5zxing7CountedE,"aG",%progbits,_ZTSN5zxing7CountedE,comdat
 4786              		.align	2
 4789              	_ZTSN5zxing7CountedE:
 4790 0000 4E357A78 		.ascii	"N5zxing7CountedE\000"
 4790      696E6737 
 4790      436F756E 
 4790      74656445 
 4790      00
 4791              		.weak	_ZTIN5zxing7CountedE
 4792              		.section	.rodata._ZTIN5zxing7CountedE,"aG",%progbits,_ZTIN5zxing7CountedE,comdat
 4793              		.align	2
 4796              	_ZTIN5zxing7CountedE:
 4797 0000 08000000 		.word	_ZTVN10__cxxabiv117__class_type_infoE+8
 4798 0004 00000000 		.word	_ZTSN5zxing7CountedE
 4799              		.weak	_ZTSN5zxing9ExceptionE
 4800              		.section	.rodata._ZTSN5zxing9ExceptionE,"aG",%progbits,_ZTSN5zxing9ExceptionE,comdat
 4801              		.align	2
 4804              	_ZTSN5zxing9ExceptionE:
 4805 0000 4E357A78 		.ascii	"N5zxing9ExceptionE\000"
 4805      696E6739 
 4805      45786365 
 4805      7074696F 
 4805      6E4500
 4806              		.weak	_ZTIN5zxing9ExceptionE
 4807              		.section	.rodata._ZTIN5zxing9ExceptionE,"aG",%progbits,_ZTIN5zxing9ExceptionE,comdat
 4808              		.align	2
 4811              	_ZTIN5zxing9ExceptionE:
 4812 0000 08000000 		.word	_ZTVN10__cxxabiv120__si_class_type_infoE+8
 4813 0004 00000000 		.word	_ZTSN5zxing9ExceptionE
 4814 0008 00000000 		.word	_ZTISt9exception
 4815              		.weak	_ZTSN5zxing8ArrayRefIiEE
 4816              		.section	.rodata._ZTSN5zxing8ArrayRefIiEE,"aG",%progbits,_ZTSN5zxing8ArrayRefIiEE,comdat
 4817              		.align	2
 4820              	_ZTSN5zxing8ArrayRefIiEE:
 4821 0000 4E357A78 		.ascii	"N5zxing8ArrayRefIiEE\000"
 4821      696E6738 
 4821      41727261 
 4821      79526566 
 4821      49694545 
 4822              		.weak	_ZTIN5zxing8ArrayRefIiEE
 4823              		.section	.rodata._ZTIN5zxing8ArrayRefIiEE,"aG",%progbits,_ZTIN5zxing8ArrayRefIiEE,comdat
 4824              		.align	2
 4827              	_ZTIN5zxing8ArrayRefIiEE:
 4828 0000 08000000 		.word	_ZTVN10__cxxabiv120__si_class_type_infoE+8
 4829 0004 00000000 		.word	_ZTSN5zxing8ArrayRefIiEE
 4830 0008 00000000 		.word	_ZTIN5zxing7CountedE
 4831              		.weak	_ZTSN5zxing8ArrayRefIcEE
 4832              		.section	.rodata._ZTSN5zxing8ArrayRefIcEE,"aG",%progbits,_ZTSN5zxing8ArrayRefIcEE,comdat
 4833              		.align	2
 4836              	_ZTSN5zxing8ArrayRefIcEE:
 4837 0000 4E357A78 		.ascii	"N5zxing8ArrayRefIcEE\000"
 4837      696E6738 
 4837      41727261 
 4837      79526566 
 4837      49634545 
 4838              		.weak	_ZTIN5zxing8ArrayRefIcEE
 4839              		.section	.rodata._ZTIN5zxing8ArrayRefIcEE,"aG",%progbits,_ZTIN5zxing8ArrayRefIcEE,comdat
 4840              		.align	2
 4843              	_ZTIN5zxing8ArrayRefIcEE:
 4844 0000 08000000 		.word	_ZTVN10__cxxabiv120__si_class_type_infoE+8
 4845 0004 00000000 		.word	_ZTSN5zxing8ArrayRefIcEE
 4846 0008 00000000 		.word	_ZTIN5zxing7CountedE
 4847              		.weak	_ZTSN5zxing8ArrayRefINS_3RefINS_11ResultPointEEEEE
 4848              		.section	.rodata._ZTSN5zxing8ArrayRefINS_3RefINS_11ResultPointEEEEE,"aG",%progbits,_ZTSN5zxing8Arr
 4849              		.align	2
 4852              	_ZTSN5zxing8ArrayRefINS_3RefINS_11ResultPointEEEEE:
 4853 0000 4E357A78 		.ascii	"N5zxing8ArrayRefINS_3RefINS_11ResultPointEEEEE\000"
 4853      696E6738 
 4853      41727261 
 4853      79526566 
 4853      494E535F 
 4854              		.weak	_ZTIN5zxing8ArrayRefINS_3RefINS_11ResultPointEEEEE
 4855              		.section	.rodata._ZTIN5zxing8ArrayRefINS_3RefINS_11ResultPointEEEEE,"aG",%progbits,_ZTIN5zxing8Arr
 4856              		.align	2
 4859              	_ZTIN5zxing8ArrayRefINS_3RefINS_11ResultPointEEEEE:
 4860 0000 08000000 		.word	_ZTVN10__cxxabiv120__si_class_type_infoE+8
 4861 0004 00000000 		.word	_ZTSN5zxing8ArrayRefINS_3RefINS_11ResultPointEEEEE
 4862 0008 00000000 		.word	_ZTIN5zxing7CountedE
 4863              		.global	_ZTSN5zxing6pdf41712PDF417ReaderE
 4864              		.global	_ZTIN5zxing6pdf41712PDF417ReaderE
 4865              		.weak	_ZTSN5zxing15ReaderExceptionE
 4866              		.section	.rodata._ZTSN5zxing15ReaderExceptionE,"aG",%progbits,_ZTSN5zxing15ReaderExceptionE,comdat
 4867              		.align	2
 4870              	_ZTSN5zxing15ReaderExceptionE:
 4871 0000 4E357A78 		.ascii	"N5zxing15ReaderExceptionE\000"
 4871      696E6731 
 4871      35526561 
 4871      64657245 
 4871      78636570 
 4872              		.weak	_ZTIN5zxing15ReaderExceptionE
 4873              		.section	.rodata._ZTIN5zxing15ReaderExceptionE,"aG",%progbits,_ZTIN5zxing15ReaderExceptionE,comdat
 4874              		.align	2
 4877              	_ZTIN5zxing15ReaderExceptionE:
 4878 0000 08000000 		.word	_ZTVN10__cxxabiv120__si_class_type_infoE+8
 4879 0004 00000000 		.word	_ZTSN5zxing15ReaderExceptionE
 4880 0008 00000000 		.word	_ZTIN5zxing9ExceptionE
 4881              		.weak	_ZTSN5zxing17NotFoundExceptionE
 4882              		.section	.rodata._ZTSN5zxing17NotFoundExceptionE,"aG",%progbits,_ZTSN5zxing17NotFoundExceptionE,co
 4883              		.align	2
 4886              	_ZTSN5zxing17NotFoundExceptionE:
 4887 0000 4E357A78 		.ascii	"N5zxing17NotFoundExceptionE\000"
 4887      696E6731 
 4887      374E6F74 
 4887      466F756E 
 4887      64457863 
 4888              		.weak	_ZTIN5zxing17NotFoundExceptionE
 4889              		.section	.rodata._ZTIN5zxing17NotFoundExceptionE,"aG",%progbits,_ZTIN5zxing17NotFoundExceptionE,co
 4890              		.align	2
 4893              	_ZTIN5zxing17NotFoundExceptionE:
 4894 0000 08000000 		.word	_ZTVN10__cxxabiv120__si_class_type_infoE+8
 4895 0004 00000000 		.word	_ZTSN5zxing17NotFoundExceptionE
 4896 0008 00000000 		.word	_ZTIN5zxing15ReaderExceptionE
 4897              		.weak	_ZTVN5zxing9ExceptionE
 4898              		.section	.rodata._ZTVN5zxing9ExceptionE,"aG",%progbits,_ZTVN5zxing9ExceptionE,comdat
 4899              		.align	2
 4902              	_ZTVN5zxing9ExceptionE:
 4903 0000 00000000 		.word	0
 4904 0004 00000000 		.word	_ZTIN5zxing9ExceptionE
 4905 0008 00000000 		.word	_ZN5zxing9ExceptionD1Ev
 4906 000c 00000000 		.word	_ZN5zxing9ExceptionD0Ev
 4907 0010 00000000 		.word	_ZNK5zxing9Exception4whatEv
 4908              		.weak	_ZTVN5zxing8ArrayRefIiEE
 4909              		.section	.rodata._ZTVN5zxing8ArrayRefIiEE,"aG",%progbits,_ZTVN5zxing8ArrayRefIiEE,comdat
 4910              		.align	2
 4913              	_ZTVN5zxing8ArrayRefIiEE:
 4914 0000 00000000 		.word	0
 4915 0004 00000000 		.word	_ZTIN5zxing8ArrayRefIiEE
 4916 0008 00000000 		.word	_ZN5zxing8ArrayRefIiED1Ev
 4917 000c 00000000 		.word	_ZN5zxing8ArrayRefIiED0Ev
 4918              		.weak	_ZTVN5zxing8ArrayRefIcEE
 4919              		.section	.rodata._ZTVN5zxing8ArrayRefIcEE,"aG",%progbits,_ZTVN5zxing8ArrayRefIcEE,comdat
 4920              		.align	2
 4923              	_ZTVN5zxing8ArrayRefIcEE:
 4924 0000 00000000 		.word	0
 4925 0004 00000000 		.word	_ZTIN5zxing8ArrayRefIcEE
 4926 0008 00000000 		.word	_ZN5zxing8ArrayRefIcED1Ev
 4927 000c 00000000 		.word	_ZN5zxing8ArrayRefIcED0Ev
 4928              		.weak	_ZTVN5zxing8ArrayRefINS_3RefINS_11ResultPointEEEEE
 4929              		.section	.rodata._ZTVN5zxing8ArrayRefINS_3RefINS_11ResultPointEEEEE,"aG",%progbits,_ZTVN5zxing8Arr
 4930              		.align	2
 4933              	_ZTVN5zxing8ArrayRefINS_3RefINS_11ResultPointEEEEE:
 4934 0000 00000000 		.word	0
 4935 0004 00000000 		.word	_ZTIN5zxing8ArrayRefINS_3RefINS_11ResultPointEEEEE
 4936 0008 00000000 		.word	_ZN5zxing8ArrayRefINS_3RefINS_11ResultPointEEEED1Ev
 4937 000c 00000000 		.word	_ZN5zxing8ArrayRefINS_3RefINS_11ResultPointEEEED0Ev
 4938              		.global	_ZTVN5zxing6pdf41712PDF417ReaderE
 4939              		.weak	_ZTVN5zxing15ReaderExceptionE
 4940              		.section	.rodata._ZTVN5zxing15ReaderExceptionE,"aG",%progbits,_ZTVN5zxing15ReaderExceptionE,comdat
 4941              		.align	2
 4944              	_ZTVN5zxing15ReaderExceptionE:
 4945 0000 00000000 		.word	0
 4946 0004 00000000 		.word	_ZTIN5zxing15ReaderExceptionE
 4947 0008 00000000 		.word	_ZN5zxing15ReaderExceptionD1Ev
 4948 000c 00000000 		.word	_ZN5zxing15ReaderExceptionD0Ev
 4949 0010 00000000 		.word	_ZNK5zxing9Exception4whatEv
 4950              		.weak	_ZTVN5zxing17NotFoundExceptionE
 4951              		.section	.rodata._ZTVN5zxing17NotFoundExceptionE,"aG",%progbits,_ZTVN5zxing17NotFoundExceptionE,co
 4952              		.align	2
 4955              	_ZTVN5zxing17NotFoundExceptionE:
 4956 0000 00000000 		.word	0
 4957 0004 00000000 		.word	_ZTIN5zxing17NotFoundExceptionE
 4958 0008 00000000 		.word	_ZN5zxing17NotFoundExceptionD1Ev
 4959 000c 00000000 		.word	_ZN5zxing17NotFoundExceptionD0Ev
 4960 0010 00000000 		.word	_ZNK5zxing9Exception4whatEv
 4961              		.section	.bss._ZStL8__ioinit,"aw",%nobits
 4962              		.align	2
 4963              		.set	.LANCHOR1,. + 0
 4966              	_ZStL8__ioinit:
 4967 0000 00       		.space	1
 4968              		.section	.rodata._ZN5zxing6pdf41712PDF417Reader10moduleSizeENS_8ArrayRefIiEENS_3RefINS_9BitMatrixE
 4969              		.align	2
 4970              	.LC1:
 4971 0000 50444634 		.ascii	"PDF417Reader::moduleSize: not found!\000"
 4971      31375265 
 4971      61646572 
 4971      3A3A6D6F 
 4971      64756C65 
 4972 0025 000000   		.space	3
 4973              	.LC2:
 4974 0028 50444634 		.ascii	"PDF417Reader::moduleSize: is zero!\000"
 4974      31375265 
 4974      61646572 
 4974      3A3A6D6F 
 4974      64756C65 
 4975              		.section	.rodata._ZN5zxing6pdf41712PDF417Reader14findPatternEndEiiNS_3RefINS_9BitMatrixEEE.str1.4,
 4976              		.align	2
 4977              	.LC4:
 4978 0000 50444634 		.ascii	"PDF417Reader::findPatternEnd: no pattern end found!"
 4978      31375265 
 4978      61646572 
 4978      3A3A6669 
 4978      6E645061 
 4979 0033 00       		.ascii	"\000"
 4980              		.section	.rodata._ZN5zxing6pdf41712PDF417Reader15extractPureBitsENS_3RefINS_9BitMatrixEEE.str1.4,"
 4981              		.align	2
 4982              	.LC5:
 4983 0000 50444634 		.ascii	"PDF417Reader::extractPureBits: no matrix found!\000"
 4983      31375265 
 4983      61646572 
 4983      3A3A6578 
 4983      74726163 
 4984              		.section	.rodata._ZN5zxing6pdf41712PDF417Reader16findPatternStartEiiNS_3RefINS_9BitMatrixEEE.str1.
 4985              		.align	2
 4986              	.LC3:
 4987 0000 50444634 		.ascii	"PDF417Reader::findPatternStart: no pattern start fo"
 4987      31375265 
 4987      61646572 
 4987      3A3A6669 
 4987      6E645061 
 4988 0033 756E6421 		.ascii	"und!\000"
 4988      00
 4989              		.section	.rodata._ZNK5zxing9Exception4whatEv.str1.4,"aMS",%progbits,1
 4990              		.align	2
 4991              	.LC0:
 4992 0000 00       		.ascii	"\000"
 4993              		.section	.rodata._ZTIN5zxing6pdf41712PDF417ReaderE,"a",%progbits
 4994              		.align	2
 4997              	_ZTIN5zxing6pdf41712PDF417ReaderE:
 4998 0000 08000000 		.word	_ZTVN10__cxxabiv120__si_class_type_infoE+8
 4999 0004 00000000 		.word	_ZTSN5zxing6pdf41712PDF417ReaderE
 5000 0008 00000000 		.word	_ZTIN5zxing6ReaderE
 5001              		.section	.rodata._ZTSN5zxing6pdf41712PDF417ReaderE,"a",%progbits
 5002              		.align	2
 5005              	_ZTSN5zxing6pdf41712PDF417ReaderE:
 5006 0000 4E357A78 		.ascii	"N5zxing6pdf41712PDF417ReaderE\000"
 5006      696E6736 
 5006      70646634 
 5006      31373132 
 5006      50444634 
 5007              		.section	.rodata._ZTVN5zxing6pdf41712PDF417ReaderE,"a",%progbits
 5008              		.align	2
 5009              		.set	.LANCHOR0,. + 0
 5012              	_ZTVN5zxing6pdf41712PDF417ReaderE:
 5013 0000 00000000 		.word	0
 5014 0004 00000000 		.word	_ZTIN5zxing6pdf41712PDF417ReaderE
 5015 0008 00000000 		.word	_ZN5zxing6pdf41712PDF417ReaderD1Ev
 5016 000c 00000000 		.word	_ZN5zxing6pdf41712PDF417ReaderD0Ev
 5017 0010 00000000 		.word	_ZN5zxing6Reader6decodeENS_3RefINS_12BinaryBitmapEEE
 5018 0014 00000000 		.word	_ZN5zxing6pdf41712PDF417Reader6decodeENS_3RefINS_12BinaryBitmapEEENS_11DecodeHintsE
 5019              		.text
 5020              	.Letext0:
 5021              		.file 12 "/home/zkmike/.local/share/renesas/e2_studio/toolchains/gcc_arm/gcc-arm-none-eabi-6-2017-
 5022              		.file 13 "/home/zkmike/.local/share/renesas/e2_studio/toolchains/gcc_arm/gcc-arm-none-eabi-6-2017-
 5023              		.file 14 "/home/zkmike/.local/share/renesas/e2_studio/toolchains/gcc_arm/gcc-arm-none-eabi-6-2017-
 5024              		.file 15 "/home/zkmike/.local/share/renesas/e2_studio/toolchains/gcc_arm/gcc-arm-none-eabi-6-2017-
 5025              		.file 16 "/home/zkmike/.local/share/renesas/e2_studio/toolchains/gcc_arm/gcc-arm-none-eabi-6-2017-
 5026              		.file 17 "/home/zkmike/.local/share/renesas/e2_studio/toolchains/gcc_arm/gcc-arm-none-eabi-6-2017-
 5027              		.file 18 "/home/zkmike/.local/share/renesas/e2_studio/toolchains/gcc_arm/gcc-arm-none-eabi-6-2017-
 5028              		.file 19 "/home/zkmike/.local/share/renesas/e2_studio/toolchains/gcc_arm/gcc-arm-none-eabi-6-2017-
 5029              		.file 20 "/home/zkmike/.local/share/renesas/e2_studio/toolchains/gcc_arm/gcc-arm-none-eabi-6-2017-
 5030              		.file 21 "/home/zkmike/.local/share/renesas/e2_studio/toolchains/gcc_arm/gcc-arm-none-eabi-6-2017-
 5031              		.file 22 "/home/zkmike/.local/share/renesas/e2_studio/toolchains/gcc_arm/gcc-arm-none-eabi-6-2017-
 5032              		.file 23 "/home/zkmike/.local/share/renesas/e2_studio/toolchains/gcc_arm/gcc-arm-none-eabi-6-2017-
 5033              		.file 24 "/home/zkmike/.local/share/renesas/e2_studio/toolchains/gcc_arm/gcc-arm-none-eabi-6-2017-
 5034              		.file 25 "/home/zkmike/.local/share/renesas/e2_studio/toolchains/gcc_arm/gcc-arm-none-eabi-6-2017-
 5035              		.file 26 "/home/zkmike/.local/share/renesas/e2_studio/toolchains/gcc_arm/gcc-arm-none-eabi-6-2017-
 5036              		.file 27 "/home/zkmike/.local/share/renesas/e2_studio/toolchains/gcc_arm/gcc-arm-none-eabi-6-2017-
 5037              		.file 28 "/home/zkmike/.local/share/renesas/e2_studio/toolchains/gcc_arm/gcc-arm-none-eabi-6-2017-
 5038              		.file 29 "/home/zkmike/.local/share/renesas/e2_studio/toolchains/gcc_arm/gcc-arm-none-eabi-6-2017-
 5039              		.file 30 "/home/zkmike/.local/share/renesas/e2_studio/toolchains/gcc_arm/gcc-arm-none-eabi-6-2017-
 5040              		.file 31 "/home/zkmike/.local/share/renesas/e2_studio/toolchains/gcc_arm/gcc-arm-none-eabi-6-2017-
 5041              		.file 32 "/home/zkmike/.local/share/renesas/e2_studio/toolchains/gcc_arm/gcc-arm-none-eabi-6-2017-
 5042              		.file 33 "/home/zkmike/.local/share/renesas/e2_studio/toolchains/gcc_arm/gcc-arm-none-eabi-6-2017-
 5043              		.file 34 "/home/zkmike/.local/share/renesas/e2_studio/toolchains/gcc_arm/gcc-arm-none-eabi-6-2017-
 5044              		.file 35 "/home/zkmike/.local/share/renesas/e2_studio/toolchains/gcc_arm/gcc-arm-none-eabi-6-2017-
 5045              		.file 36 "/home/zkmike/.local/share/renesas/e2_studio/toolchains/gcc_arm/gcc-arm-none-eabi-6-2017-
 5046              		.file 37 "/home/zkmike/.local/share/renesas/e2_studio/toolchains/gcc_arm/gcc-arm-none-eabi-6-2017-
 5047              		.file 38 "/home/zkmike/.local/share/renesas/e2_studio/toolchains/gcc_arm/gcc-arm-none-eabi-6-2017-
 5048              		.file 39 "/home/zkmike/.local/share/renesas/e2_studio/toolchains/gcc_arm/gcc-arm-none-eabi-6-2017-
 5049              		.file 40 "/home/zkmike/.local/share/renesas/e2_studio/toolchains/gcc_arm/gcc-arm-none-eabi-6-2017-
 5050              		.file 41 "/home/zkmike/.local/share/renesas/e2_studio/toolchains/gcc_arm/gcc-arm-none-eabi-6-2017-
 5051              		.file 42 "/home/zkmike/.local/share/renesas/e2_studio/toolchains/gcc_arm/gcc-arm-none-eabi-6-2017-
 5052              		.file 43 "/home/zkmike/.local/share/renesas/e2_studio/toolchains/gcc_arm/gcc-arm-none-eabi-6-2017-
 5053              		.file 44 "/home/zkmike/.local/share/renesas/e2_studio/toolchains/gcc_arm/gcc-arm-none-eabi-6-2017-
 5054              		.file 45 "<built-in>"
 5055              		.file 46 "/home/zkmike/.local/share/renesas/e2_studio/toolchains/gcc_arm/gcc-arm-none-eabi-6-2017-
 5056              		.file 47 "/home/zkmike/.local/share/renesas/e2_studio/toolchains/gcc_arm/gcc-arm-none-eabi-6-2017-
 5057              		.file 48 "/home/zkmike/.local/share/renesas/e2_studio/toolchains/gcc_arm/gcc-arm-none-eabi-6-2017-
 5058              		.file 49 "/home/zkmike/.local/share/renesas/e2_studio/toolchains/gcc_arm/gcc-arm-none-eabi-6-2017-
 5059              		.file 50 "/home/zkmike/.local/share/renesas/e2_studio/toolchains/gcc_arm/gcc-arm-none-eabi-6-2017-
 5060              		.file 51 "/home/zkmike/.local/share/renesas/e2_studio/toolchains/gcc_arm/gcc-arm-none-eabi-6-2017-
 5061              		.file 52 "/home/zkmike/.local/share/renesas/e2_studio/toolchains/gcc_arm/gcc-arm-none-eabi-6-2017-
 5062              		.file 53 "/home/zkmike/.local/share/renesas/e2_studio/toolchains/gcc_arm/gcc-arm-none-eabi-6-2017-
 5063              		.file 54 "/home/zkmike/.local/share/renesas/e2_studio/toolchains/gcc_arm/gcc-arm-none-eabi-6-2017-
 5064              		.file 55 "/home/zkmike/.local/share/renesas/e2_studio/toolchains/gcc_arm/gcc-arm-none-eabi-6-2017-
 5065              		.file 56 "/home/zkmike/.local/share/renesas/e2_studio/toolchains/gcc_arm/gcc-arm-none-eabi-6-2017-
 5066              		.file 57 "/home/zkmike/workspace/RZA2M/rza2m_2d_barcode_sample_freertos_gcc/src/zxing_lib/zxing/Ba
 5067              		.file 58 "/home/zkmike/workspace/RZA2M/rza2m_2d_barcode_sample_freertos_gcc/src/zxing_lib/zxing/pd
 5068              		.file 59 "/home/zkmike/workspace/RZA2M/rza2m_2d_barcode_sample_freertos_gcc/src/zxing_lib/zxing/pd
 5069              		.file 60 "/home/zkmike/workspace/RZA2M/rza2m_2d_barcode_sample_freertos_gcc/src/zxing_lib/zxing/pd
 5070              		.file 61 "/home/zkmike/workspace/RZA2M/rza2m_2d_barcode_sample_freertos_gcc/src/zxing_lib/zxing/co
 5071              		.file 62 "/home/zkmike/workspace/RZA2M/rza2m_2d_barcode_sample_freertos_gcc/src/zxing_lib/zxing/co
 5072              		.file 63 "/home/zkmike/workspace/RZA2M/rza2m_2d_barcode_sample_freertos_gcc/src/zxing_lib/zxing/co
DEFINED SYMBOLS
                            *ABS*:0000000000000000 PDF417Reader.cpp
     /tmp/ccLWuykN.s:17     .text._ZNK5zxing9Exception4whatEv:0000000000000000 $a
     /tmp/ccLWuykN.s:23     .text._ZNK5zxing9Exception4whatEv:0000000000000000 _ZNK5zxing9Exception4whatEv
     /tmp/ccLWuykN.s:4991   .rodata._ZNK5zxing9Exception4whatEv.str1.4:0000000000000000 .LC0
.ARM.exidx.text._ZNK5zxing9Exception4whatEv:0000000000000000 $d
     /tmp/ccLWuykN.s:47     .text._ZN5zxing8ArrayRefINS_3RefINS_11ResultPointEEEED2Ev:0000000000000000 $a
     /tmp/ccLWuykN.s:53     .text._ZN5zxing8ArrayRefINS_3RefINS_11ResultPointEEEED2Ev:0000000000000000 _ZN5zxing8ArrayRefINS_3RefINS_11ResultPointEEEED2Ev
     /tmp/ccLWuykN.s:113    .text._ZN5zxing8ArrayRefINS_3RefINS_11ResultPointEEEED2Ev:0000000000000054 $d
     /tmp/ccLWuykN.s:4933   .rodata._ZTVN5zxing8ArrayRefINS_3RefINS_11ResultPointEEEEE:0000000000000000 _ZTVN5zxing8ArrayRefINS_3RefINS_11ResultPointEEEEE
.ARM.exidx.text._ZN5zxing8ArrayRefINS_3RefINS_11ResultPointEEEED2Ev:0000000000000000 $d
     /tmp/ccLWuykN.s:53     .text._ZN5zxing8ArrayRefINS_3RefINS_11ResultPointEEEED2Ev:0000000000000000 _ZN5zxing8ArrayRefINS_3RefINS_11ResultPointEEEED1Ev
     /tmp/ccLWuykN.s:125    .text._ZN5zxing8ArrayRefIcED2Ev:0000000000000000 $a
     /tmp/ccLWuykN.s:131    .text._ZN5zxing8ArrayRefIcED2Ev:0000000000000000 _ZN5zxing8ArrayRefIcED2Ev
     /tmp/ccLWuykN.s:189    .text._ZN5zxing8ArrayRefIcED2Ev:0000000000000054 $d
     /tmp/ccLWuykN.s:4923   .rodata._ZTVN5zxing8ArrayRefIcEE:0000000000000000 _ZTVN5zxing8ArrayRefIcEE
.ARM.exidx.text._ZN5zxing8ArrayRefIcED2Ev:0000000000000000 $d
     /tmp/ccLWuykN.s:131    .text._ZN5zxing8ArrayRefIcED2Ev:0000000000000000 _ZN5zxing8ArrayRefIcED1Ev
     /tmp/ccLWuykN.s:201    .text._ZN5zxing8ArrayRefIiED2Ev:0000000000000000 $a
     /tmp/ccLWuykN.s:207    .text._ZN5zxing8ArrayRefIiED2Ev:0000000000000000 _ZN5zxing8ArrayRefIiED2Ev
     /tmp/ccLWuykN.s:265    .text._ZN5zxing8ArrayRefIiED2Ev:0000000000000054 $d
     /tmp/ccLWuykN.s:4913   .rodata._ZTVN5zxing8ArrayRefIiEE:0000000000000000 _ZTVN5zxing8ArrayRefIiEE
.ARM.exidx.text._ZN5zxing8ArrayRefIiED2Ev:0000000000000000 $d
     /tmp/ccLWuykN.s:207    .text._ZN5zxing8ArrayRefIiED2Ev:0000000000000000 _ZN5zxing8ArrayRefIiED1Ev
     /tmp/ccLWuykN.s:277    .text._ZN5zxing8ArrayRefINS_3RefINS_11ResultPointEEEED0Ev:0000000000000000 $a
     /tmp/ccLWuykN.s:283    .text._ZN5zxing8ArrayRefINS_3RefINS_11ResultPointEEEED0Ev:0000000000000000 _ZN5zxing8ArrayRefINS_3RefINS_11ResultPointEEEED0Ev
     /tmp/ccLWuykN.s:349    .text._ZN5zxing8ArrayRefINS_3RefINS_11ResultPointEEEED0Ev:0000000000000060 $d
.ARM.exidx.text._ZN5zxing8ArrayRefINS_3RefINS_11ResultPointEEEED0Ev:0000000000000000 $d
     /tmp/ccLWuykN.s:360    .text._ZN5zxing8ArrayRefIcED0Ev:0000000000000000 $a
     /tmp/ccLWuykN.s:366    .text._ZN5zxing8ArrayRefIcED0Ev:0000000000000000 _ZN5zxing8ArrayRefIcED0Ev
     /tmp/ccLWuykN.s:432    .text._ZN5zxing8ArrayRefIcED0Ev:0000000000000060 $d
.ARM.exidx.text._ZN5zxing8ArrayRefIcED0Ev:0000000000000000 $d
     /tmp/ccLWuykN.s:443    .text._ZN5zxing8ArrayRefIiED0Ev:0000000000000000 $a
     /tmp/ccLWuykN.s:449    .text._ZN5zxing8ArrayRefIiED0Ev:0000000000000000 _ZN5zxing8ArrayRefIiED0Ev
     /tmp/ccLWuykN.s:515    .text._ZN5zxing8ArrayRefIiED0Ev:0000000000000060 $d
.ARM.exidx.text._ZN5zxing8ArrayRefIiED0Ev:0000000000000000 $d
     /tmp/ccLWuykN.s:526    .text._ZN5zxing9ExceptionD2Ev:0000000000000000 $a
     /tmp/ccLWuykN.s:532    .text._ZN5zxing9ExceptionD2Ev:0000000000000000 _ZN5zxing9ExceptionD2Ev
     /tmp/ccLWuykN.s:594    .text._ZN5zxing9ExceptionD2Ev:0000000000000058 $d
     /tmp/ccLWuykN.s:4902   .rodata._ZTVN5zxing9ExceptionE:0000000000000000 _ZTVN5zxing9ExceptionE
.ARM.extab.text._ZN5zxing9ExceptionD2Ev:0000000000000000 $d
.ARM.exidx.text._ZN5zxing9ExceptionD2Ev:0000000000000000 $d
     /tmp/ccLWuykN.s:532    .text._ZN5zxing9ExceptionD2Ev:0000000000000000 _ZN5zxing9ExceptionD1Ev
     /tmp/ccLWuykN.s:631    .text._ZN5zxing6pdf41712PDF417ReaderD2Ev:0000000000000000 $a
     /tmp/ccLWuykN.s:637    .text._ZN5zxing6pdf41712PDF417ReaderD2Ev:0000000000000000 _ZN5zxing6pdf41712PDF417ReaderD2Ev
     /tmp/ccLWuykN.s:663    .text._ZN5zxing6pdf41712PDF417ReaderD2Ev:000000000000001c $d
.ARM.exidx.text._ZN5zxing6pdf41712PDF417ReaderD2Ev:0000000000000000 $d
     /tmp/ccLWuykN.s:637    .text._ZN5zxing6pdf41712PDF417ReaderD2Ev:0000000000000000 _ZN5zxing6pdf41712PDF417ReaderD1Ev
     /tmp/ccLWuykN.s:672    .text._ZN5zxing6pdf41712PDF417ReaderD0Ev:0000000000000000 $a
     /tmp/ccLWuykN.s:678    .text._ZN5zxing6pdf41712PDF417ReaderD0Ev:0000000000000000 _ZN5zxing6pdf41712PDF417ReaderD0Ev
     /tmp/ccLWuykN.s:710    .text._ZN5zxing6pdf41712PDF417ReaderD0Ev:0000000000000028 $d
.ARM.exidx.text._ZN5zxing6pdf41712PDF417ReaderD0Ev:0000000000000000 $d
     /tmp/ccLWuykN.s:717    .text._Z41__static_initialization_and_destruction_0ii:0000000000000000 $a
     /tmp/ccLWuykN.s:722    .text._Z41__static_initialization_and_destruction_0ii:0000000000000000 _Z41__static_initialization_and_destruction_0ii
     /tmp/ccLWuykN.s:4963   .bss._ZStL8__ioinit:0000000000000000 .LANCHOR1
.ARM.exidx.text._Z41__static_initialization_and_destruction_0ii:0000000000000000 $d
     /tmp/ccLWuykN.s:764    .text._ZN5zxing6pdf41712PDF417Reader6decodeENS_3RefINS_12BinaryBitmapEEENS_11DecodeHintsE:0000000000000000 $a
     /tmp/ccLWuykN.s:770    .text._ZN5zxing6pdf41712PDF417Reader6decodeENS_3RefINS_12BinaryBitmapEEENS_11DecodeHintsE:0000000000000000 _ZN5zxing6pdf41712PDF417Reader6decodeENS_3RefINS_12BinaryBitmapEEENS_11DecodeHintsE
     /tmp/ccLWuykN.s:2120   .text._ZN5zxing6pdf41712PDF417Reader6decodeENS_3RefINS_12BinaryBitmapEEENS_11DecodeHintsE:00000000000007b4 $d
.ARM.extab.text._ZN5zxing6pdf41712PDF417Reader6decodeENS_3RefINS_12BinaryBitmapEEENS_11DecodeHintsE:0000000000000000 $d
.ARM.exidx.text._ZN5zxing6pdf41712PDF417Reader6decodeENS_3RefINS_12BinaryBitmapEEENS_11DecodeHintsE:0000000000000000 $d
     /tmp/ccLWuykN.s:2189   .text._ZN5zxing17NotFoundExceptionD2Ev:0000000000000000 $a
     /tmp/ccLWuykN.s:2195   .text._ZN5zxing17NotFoundExceptionD2Ev:0000000000000000 _ZN5zxing17NotFoundExceptionD2Ev
     /tmp/ccLWuykN.s:2267   .text._ZN5zxing17NotFoundExceptionD2Ev:0000000000000058 $d
.ARM.extab.text._ZN5zxing17NotFoundExceptionD2Ev:0000000000000000 $d
.ARM.exidx.text._ZN5zxing17NotFoundExceptionD2Ev:0000000000000000 $d
     /tmp/ccLWuykN.s:2195   .text._ZN5zxing17NotFoundExceptionD2Ev:0000000000000000 _ZN5zxing17NotFoundExceptionD1Ev
     /tmp/ccLWuykN.s:2303   .text._ZN5zxing15ReaderExceptionD2Ev:0000000000000000 $a
     /tmp/ccLWuykN.s:2309   .text._ZN5zxing15ReaderExceptionD2Ev:0000000000000000 _ZN5zxing15ReaderExceptionD2Ev
     /tmp/ccLWuykN.s:2379   .text._ZN5zxing15ReaderExceptionD2Ev:0000000000000058 $d
.ARM.extab.text._ZN5zxing15ReaderExceptionD2Ev:0000000000000000 $d
.ARM.exidx.text._ZN5zxing15ReaderExceptionD2Ev:0000000000000000 $d
     /tmp/ccLWuykN.s:2309   .text._ZN5zxing15ReaderExceptionD2Ev:0000000000000000 _ZN5zxing15ReaderExceptionD1Ev
     /tmp/ccLWuykN.s:2415   .text._ZN5zxing9ExceptionD0Ev:0000000000000000 $a
     /tmp/ccLWuykN.s:2421   .text._ZN5zxing9ExceptionD0Ev:0000000000000000 _ZN5zxing9ExceptionD0Ev
     /tmp/ccLWuykN.s:2492   .text._ZN5zxing9ExceptionD0Ev:0000000000000064 $d
.ARM.extab.text._ZN5zxing9ExceptionD0Ev:0000000000000000 $d
.ARM.exidx.text._ZN5zxing9ExceptionD0Ev:0000000000000000 $d
     /tmp/ccLWuykN.s:2526   .text._ZN5zxing17NotFoundExceptionD0Ev:0000000000000000 $a
     /tmp/ccLWuykN.s:2532   .text._ZN5zxing17NotFoundExceptionD0Ev:0000000000000000 _ZN5zxing17NotFoundExceptionD0Ev
     /tmp/ccLWuykN.s:2609   .text._ZN5zxing17NotFoundExceptionD0Ev:0000000000000064 $d
.ARM.extab.text._ZN5zxing17NotFoundExceptionD0Ev:0000000000000000 $d
.ARM.exidx.text._ZN5zxing17NotFoundExceptionD0Ev:0000000000000000 $d
     /tmp/ccLWuykN.s:2643   .text._ZN5zxing15ReaderExceptionD0Ev:0000000000000000 $a
     /tmp/ccLWuykN.s:2649   .text._ZN5zxing15ReaderExceptionD0Ev:0000000000000000 _ZN5zxing15ReaderExceptionD0Ev
     /tmp/ccLWuykN.s:2724   .text._ZN5zxing15ReaderExceptionD0Ev:0000000000000064 $d
.ARM.extab.text._ZN5zxing15ReaderExceptionD0Ev:0000000000000000 $d
.ARM.exidx.text._ZN5zxing15ReaderExceptionD0Ev:0000000000000000 $d
     /tmp/ccLWuykN.s:2758   .text._ZN5zxing9ExceptionC2EPKc:0000000000000000 $a
     /tmp/ccLWuykN.s:2764   .text._ZN5zxing9ExceptionC2EPKc:0000000000000000 _ZN5zxing9ExceptionC2EPKc
     /tmp/ccLWuykN.s:2819   .text._ZN5zxing9ExceptionC2EPKc:000000000000004c $d
.ARM.extab.text._ZN5zxing9ExceptionC2EPKc:0000000000000000 $d
.ARM.exidx.text._ZN5zxing9ExceptionC2EPKc:0000000000000000 $d
     /tmp/ccLWuykN.s:2764   .text._ZN5zxing9ExceptionC2EPKc:0000000000000000 _ZN5zxing9ExceptionC1EPKc
     /tmp/ccLWuykN.s:2855   .text._ZN5zxing6pdf41712PDF417Reader5resetEv:0000000000000000 $a
     /tmp/ccLWuykN.s:2861   .text._ZN5zxing6pdf41712PDF417Reader5resetEv:0000000000000000 _ZN5zxing6pdf41712PDF417Reader5resetEv
.ARM.exidx.text._ZN5zxing6pdf41712PDF417Reader5resetEv:0000000000000000 $d
     /tmp/ccLWuykN.s:2877   .text._ZN5zxing6pdf41712PDF417Reader10moduleSizeENS_8ArrayRefIiEENS_3RefINS_9BitMatrixEEE:0000000000000000 $a
     /tmp/ccLWuykN.s:2883   .text._ZN5zxing6pdf41712PDF417Reader10moduleSizeENS_8ArrayRefIiEENS_3RefINS_9BitMatrixEEE:0000000000000000 _ZN5zxing6pdf41712PDF417Reader10moduleSizeENS_8ArrayRefIiEENS_3RefINS_9BitMatrixEEE
     /tmp/ccLWuykN.s:4973   .rodata._ZN5zxing6pdf41712PDF417Reader10moduleSizeENS_8ArrayRefIiEENS_3RefINS_9BitMatrixEEE.str1.4:0000000000000028 .LC2
     /tmp/ccLWuykN.s:4893   .rodata._ZTIN5zxing17NotFoundExceptionE:0000000000000000 _ZTIN5zxing17NotFoundExceptionE
     /tmp/ccLWuykN.s:4970   .rodata._ZN5zxing6pdf41712PDF417Reader10moduleSizeENS_8ArrayRefIiEENS_3RefINS_9BitMatrixEEE.str1.4:0000000000000000 .LC1
     /tmp/ccLWuykN.s:3093   .text._ZN5zxing6pdf41712PDF417Reader10moduleSizeENS_8ArrayRefIiEENS_3RefINS_9BitMatrixEEE:0000000000000108 $d
     /tmp/ccLWuykN.s:4955   .rodata._ZTVN5zxing17NotFoundExceptionE:0000000000000000 _ZTVN5zxing17NotFoundExceptionE
.ARM.exidx.text._ZN5zxing6pdf41712PDF417Reader10moduleSizeENS_8ArrayRefIiEENS_3RefINS_9BitMatrixEEE:0000000000000000 $d
     /tmp/ccLWuykN.s:3099   .text._ZN5zxing6pdf41712PDF417Reader16findPatternStartEiiNS_3RefINS_9BitMatrixEEE:0000000000000000 $a
     /tmp/ccLWuykN.s:3105   .text._ZN5zxing6pdf41712PDF417Reader16findPatternStartEiiNS_3RefINS_9BitMatrixEEE:0000000000000000 _ZN5zxing6pdf41712PDF417Reader16findPatternStartEiiNS_3RefINS_9BitMatrixEEE
     /tmp/ccLWuykN.s:4986   .rodata._ZN5zxing6pdf41712PDF417Reader16findPatternStartEiiNS_3RefINS_9BitMatrixEEE.str1.4:0000000000000000 .LC3
     /tmp/ccLWuykN.s:3249   .text._ZN5zxing6pdf41712PDF417Reader16findPatternStartEiiNS_3RefINS_9BitMatrixEEE:00000000000000c4 $d
.ARM.exidx.text._ZN5zxing6pdf41712PDF417Reader16findPatternStartEiiNS_3RefINS_9BitMatrixEEE:0000000000000000 $d
     /tmp/ccLWuykN.s:3255   .text._ZN5zxing6pdf41712PDF417Reader14findPatternEndEiiNS_3RefINS_9BitMatrixEEE:0000000000000000 $a
     /tmp/ccLWuykN.s:3261   .text._ZN5zxing6pdf41712PDF417Reader14findPatternEndEiiNS_3RefINS_9BitMatrixEEE:0000000000000000 _ZN5zxing6pdf41712PDF417Reader14findPatternEndEiiNS_3RefINS_9BitMatrixEEE
     /tmp/ccLWuykN.s:4977   .rodata._ZN5zxing6pdf41712PDF417Reader14findPatternEndEiiNS_3RefINS_9BitMatrixEEE.str1.4:0000000000000000 .LC4
     /tmp/ccLWuykN.s:3462   .text._ZN5zxing6pdf41712PDF417Reader14findPatternEndEiiNS_3RefINS_9BitMatrixEEE:0000000000000118 $d
.ARM.exidx.text._ZN5zxing6pdf41712PDF417Reader14findPatternEndEiiNS_3RefINS_9BitMatrixEEE:0000000000000000 $d
     /tmp/ccLWuykN.s:3469   .text._ZN5zxing6pdf41712PDF417Reader15extractPureBitsENS_3RefINS_9BitMatrixEEE:0000000000000000 $a
     /tmp/ccLWuykN.s:3475   .text._ZN5zxing6pdf41712PDF417Reader15extractPureBitsENS_3RefINS_9BitMatrixEEE:0000000000000000 _ZN5zxing6pdf41712PDF417Reader15extractPureBitsENS_3RefINS_9BitMatrixEEE
     /tmp/ccLWuykN.s:4982   .rodata._ZN5zxing6pdf41712PDF417Reader15extractPureBitsENS_3RefINS_9BitMatrixEEE.str1.4:0000000000000000 .LC5
     /tmp/ccLWuykN.s:4705   .text._ZN5zxing6pdf41712PDF417Reader15extractPureBitsENS_3RefINS_9BitMatrixEEE:00000000000006a4 $d
.ARM.extab.text._ZN5zxing6pdf41712PDF417Reader15extractPureBitsENS_3RefINS_9BitMatrixEEE:0000000000000000 $d
.ARM.exidx.text._ZN5zxing6pdf41712PDF417Reader15extractPureBitsENS_3RefINS_9BitMatrixEEE:0000000000000000 $d
     /tmp/ccLWuykN.s:4754   .text._GLOBAL__sub_I__ZN5zxing6pdf41712PDF417Reader6decodeENS_3RefINS_12BinaryBitmapEEENS_11DecodeHintsE:0000000000000000 $a
     /tmp/ccLWuykN.s:4759   .text._GLOBAL__sub_I__ZN5zxing6pdf41712PDF417Reader6decodeENS_3RefINS_12BinaryBitmapEEENS_11DecodeHintsE:0000000000000000 _GLOBAL__sub_I__ZN5zxing6pdf41712PDF417Reader6decodeENS_3RefINS_12BinaryBitmapEEENS_11DecodeHintsE
.ARM.exidx.text._GLOBAL__sub_I__ZN5zxing6pdf41712PDF417Reader6decodeENS_3RefINS_12BinaryBitmapEEENS_11DecodeHintsE:0000000000000000 $d
     /tmp/ccLWuykN.s:4782   .init_array:0000000000000000 $d
     /tmp/ccLWuykN.s:4789   .rodata._ZTSN5zxing7CountedE:0000000000000000 _ZTSN5zxing7CountedE
     /tmp/ccLWuykN.s:4786   .rodata._ZTSN5zxing7CountedE:0000000000000000 $d
     /tmp/ccLWuykN.s:4796   .rodata._ZTIN5zxing7CountedE:0000000000000000 _ZTIN5zxing7CountedE
     /tmp/ccLWuykN.s:4793   .rodata._ZTIN5zxing7CountedE:0000000000000000 $d
     /tmp/ccLWuykN.s:4804   .rodata._ZTSN5zxing9ExceptionE:0000000000000000 _ZTSN5zxing9ExceptionE
     /tmp/ccLWuykN.s:4801   .rodata._ZTSN5zxing9ExceptionE:0000000000000000 $d
     /tmp/ccLWuykN.s:4811   .rodata._ZTIN5zxing9ExceptionE:0000000000000000 _ZTIN5zxing9ExceptionE
     /tmp/ccLWuykN.s:4808   .rodata._ZTIN5zxing9ExceptionE:0000000000000000 $d
     /tmp/ccLWuykN.s:4820   .rodata._ZTSN5zxing8ArrayRefIiEE:0000000000000000 _ZTSN5zxing8ArrayRefIiEE
     /tmp/ccLWuykN.s:4817   .rodata._ZTSN5zxing8ArrayRefIiEE:0000000000000000 $d
     /tmp/ccLWuykN.s:4827   .rodata._ZTIN5zxing8ArrayRefIiEE:0000000000000000 _ZTIN5zxing8ArrayRefIiEE
     /tmp/ccLWuykN.s:4824   .rodata._ZTIN5zxing8ArrayRefIiEE:0000000000000000 $d
     /tmp/ccLWuykN.s:4836   .rodata._ZTSN5zxing8ArrayRefIcEE:0000000000000000 _ZTSN5zxing8ArrayRefIcEE
     /tmp/ccLWuykN.s:4833   .rodata._ZTSN5zxing8ArrayRefIcEE:0000000000000000 $d
     /tmp/ccLWuykN.s:4843   .rodata._ZTIN5zxing8ArrayRefIcEE:0000000000000000 _ZTIN5zxing8ArrayRefIcEE
     /tmp/ccLWuykN.s:4840   .rodata._ZTIN5zxing8ArrayRefIcEE:0000000000000000 $d
     /tmp/ccLWuykN.s:4852   .rodata._ZTSN5zxing8ArrayRefINS_3RefINS_11ResultPointEEEEE:0000000000000000 _ZTSN5zxing8ArrayRefINS_3RefINS_11ResultPointEEEEE
     /tmp/ccLWuykN.s:4849   .rodata._ZTSN5zxing8ArrayRefINS_3RefINS_11ResultPointEEEEE:0000000000000000 $d
     /tmp/ccLWuykN.s:4859   .rodata._ZTIN5zxing8ArrayRefINS_3RefINS_11ResultPointEEEEE:0000000000000000 _ZTIN5zxing8ArrayRefINS_3RefINS_11ResultPointEEEEE
     /tmp/ccLWuykN.s:4856   .rodata._ZTIN5zxing8ArrayRefINS_3RefINS_11ResultPointEEEEE:0000000000000000 $d
     /tmp/ccLWuykN.s:5005   .rodata._ZTSN5zxing6pdf41712PDF417ReaderE:0000000000000000 _ZTSN5zxing6pdf41712PDF417ReaderE
     /tmp/ccLWuykN.s:4997   .rodata._ZTIN5zxing6pdf41712PDF417ReaderE:0000000000000000 _ZTIN5zxing6pdf41712PDF417ReaderE
     /tmp/ccLWuykN.s:4870   .rodata._ZTSN5zxing15ReaderExceptionE:0000000000000000 _ZTSN5zxing15ReaderExceptionE
     /tmp/ccLWuykN.s:4867   .rodata._ZTSN5zxing15ReaderExceptionE:0000000000000000 $d
     /tmp/ccLWuykN.s:4877   .rodata._ZTIN5zxing15ReaderExceptionE:0000000000000000 _ZTIN5zxing15ReaderExceptionE
     /tmp/ccLWuykN.s:4874   .rodata._ZTIN5zxing15ReaderExceptionE:0000000000000000 $d
     /tmp/ccLWuykN.s:4886   .rodata._ZTSN5zxing17NotFoundExceptionE:0000000000000000 _ZTSN5zxing17NotFoundExceptionE
     /tmp/ccLWuykN.s:4883   .rodata._ZTSN5zxing17NotFoundExceptionE:0000000000000000 $d
     /tmp/ccLWuykN.s:4890   .rodata._ZTIN5zxing17NotFoundExceptionE:0000000000000000 $d
     /tmp/ccLWuykN.s:4899   .rodata._ZTVN5zxing9ExceptionE:0000000000000000 $d
     /tmp/ccLWuykN.s:4910   .rodata._ZTVN5zxing8ArrayRefIiEE:0000000000000000 $d
     /tmp/ccLWuykN.s:4920   .rodata._ZTVN5zxing8ArrayRefIcEE:0000000000000000 $d
     /tmp/ccLWuykN.s:4930   .rodata._ZTVN5zxing8ArrayRefINS_3RefINS_11ResultPointEEEEE:0000000000000000 $d
     /tmp/ccLWuykN.s:5012   .rodata._ZTVN5zxing6pdf41712PDF417ReaderE:0000000000000000 _ZTVN5zxing6pdf41712PDF417ReaderE
     /tmp/ccLWuykN.s:4944   .rodata._ZTVN5zxing15ReaderExceptionE:0000000000000000 _ZTVN5zxing15ReaderExceptionE
     /tmp/ccLWuykN.s:4941   .rodata._ZTVN5zxing15ReaderExceptionE:0000000000000000 $d
     /tmp/ccLWuykN.s:4952   .rodata._ZTVN5zxing17NotFoundExceptionE:0000000000000000 $d
     /tmp/ccLWuykN.s:4962   .bss._ZStL8__ioinit:0000000000000000 $d
     /tmp/ccLWuykN.s:4966   .bss._ZStL8__ioinit:0000000000000000 _ZStL8__ioinit
     /tmp/ccLWuykN.s:4969   .rodata._ZN5zxing6pdf41712PDF417Reader10moduleSizeENS_8ArrayRefIiEENS_3RefINS_9BitMatrixEEE.str1.4:0000000000000000 $d
     /tmp/ccLWuykN.s:4976   .rodata._ZN5zxing6pdf41712PDF417Reader14findPatternEndEiiNS_3RefINS_9BitMatrixEEE.str1.4:0000000000000000 $d
     /tmp/ccLWuykN.s:4981   .rodata._ZN5zxing6pdf41712PDF417Reader15extractPureBitsENS_3RefINS_9BitMatrixEEE.str1.4:0000000000000000 $d
     /tmp/ccLWuykN.s:4985   .rodata._ZN5zxing6pdf41712PDF417Reader16findPatternStartEiiNS_3RefINS_9BitMatrixEEE.str1.4:0000000000000000 $d
     /tmp/ccLWuykN.s:4990   .rodata._ZNK5zxing9Exception4whatEv.str1.4:0000000000000000 $d
     /tmp/ccLWuykN.s:4994   .rodata._ZTIN5zxing6pdf41712PDF417ReaderE:0000000000000000 $d
     /tmp/ccLWuykN.s:5002   .rodata._ZTSN5zxing6pdf41712PDF417ReaderE:0000000000000000 $d
     /tmp/ccLWuykN.s:5008   .rodata._ZTVN5zxing6pdf41712PDF417ReaderE:0000000000000000 $d
                     .debug_frame:0000000000000010 $d
                           .group:0000000000000000 _ZN5zxing8ArrayRefINS_3RefINS_11ResultPointEEEED5Ev
                           .group:0000000000000000 _ZN5zxing8ArrayRefIcED5Ev
                           .group:0000000000000000 _ZN5zxing8ArrayRefIiED5Ev
                           .group:0000000000000000 _ZN5zxing9ExceptionD5Ev
                           .group:0000000000000000 _ZN5zxing6pdf41712PDF417ReaderD5Ev
                           .group:0000000000000000 _ZN5zxing17NotFoundExceptionD5Ev
                           .group:0000000000000000 _ZN5zxing15ReaderExceptionD5Ev
                           .group:0000000000000000 _ZN5zxing9ExceptionC5EPKc
                           .group:0000000000000000 wm4.0.cd1e96de8a8c4f34e746a820772853ad
                           .group:0000000000000000 wm4.cconfig.h.31.21483d26c3710eb58c7a44c20d82c775
                           .group:0000000000000000 wm4.cpu_defines.h.31.54d44f9d3e7c42875c5a7fd49795eb93
                           .group:0000000000000000 wm4.cconfig.h.515.5e729db314ae74226e291b4ae081e353
                           .group:0000000000000000 wm4._newlib_version.h.4.3572908597b70d672d181fc7fc501c19
                           .group:0000000000000000 wm4.newlib.h.21.59901f4bf241ab46c63694665baa7297
                           .group:0000000000000000 wm4.features.h.22.5cdadbb3efe495d1c9e38350b8c376c7
                           .group:0000000000000000 wm4.config.h.219.65a553ab5bef5482f0d7880b0d33015e
                           .group:0000000000000000 wm4._ansi.h.23.1ee1144430bedaab1a14c7b57a6c8384
                           .group:0000000000000000 wm4.stddef.h.39.fa2e86d241f4df50b9327c72832885e1
                           .group:0000000000000000 wm4._default_types.h.6.959254cf5f09734ea7516c89e8bb21bd
                           .group:0000000000000000 wm4.lock.h.2.1461d1fff82dffe8bfddc23307f6484f
                           .group:0000000000000000 wm4._types.h.125.5cf8a495f1f7ef36777ad868a1e32068
                           .group:0000000000000000 wm4.stddef.h.161.7e98c9c86da0ed2d27af2ef92af7d013
                           .group:0000000000000000 wm4._types.h.183.c226d164ceca1f2ecb9ae9360c54a098
                           .group:0000000000000000 wm4.reent.h.17.23b059516345f8f5abfa01ddc379570f
                           .group:0000000000000000 wm4.wchar.h.8.acdef4366e64def8c588421024712d23
                           .group:0000000000000000 wm4.stddef.h.161.9f48187563b2a85291a91832aa425498
                           .group:0000000000000000 wm4.cdefs.h.47.9bc8274c84fddbf05edd550eb0bf48cd
                           .group:0000000000000000 wm4.stdarg.h.34.3a23a216c0c293b3d2ea2e89281481e6
                           .group:0000000000000000 wm4.wchar.h.29.7ec19a1c094c7903732828676a0a91b2
                           .group:0000000000000000 wm4.wchar.h.76.90478bd2c784f576b769c4535c98839d
                           .group:0000000000000000 wm4.cwchar.48.c4e882638bf84f6da89479dda6fe8e17
                           .group:0000000000000000 wm4.atomic_lockfree_defines.h.31.d5c6334fb1e95c9462b052951f1411df
                           .group:0000000000000000 wm4.exception_defines.h.31.ca6841b9be3287386aafc5c717935b2e
                           .group:0000000000000000 wm4.concept_check.h.31.f19605d278e56917c68a56d378be308c
                           .group:0000000000000000 wm4.type_traits.30.967137c3695c72a3f7c65b682f1a104e
                           .group:0000000000000000 wm4.move.h.152.41d7b9e6779674d169b7813982cfa003
                           .group:0000000000000000 wm4.cpp_type_traits.h.33.9f2bfd8c4471a9a299f6da3ec24c745c
                           .group:0000000000000000 wm4.numeric_traits.h.30.aa01a98564b7e55086aad9e53c7e5c53
                           .group:0000000000000000 wm4.assertions.h.30.51d443923f0d242550e04246a7819b39
                           .group:0000000000000000 wm4.stl_iterator.h.406.6718c794fa6a1331f8340656b5c8c55c
                           .group:0000000000000000 wm4.debug.h.30.5c1f223b12199e851d4d42805b788ccf
                           .group:0000000000000000 wm4.stl_algobase.h.491.ec4060988bfff82dc579decdb75c72d6
                           .group:0000000000000000 wm4.stdint.h.4.659be5aa44c4ab4eb7c7cc2b24d8ceee
                           .group:0000000000000000 wm4._intsup.h.10.cce27fed8484c08a33f522034c30d2b5
                           .group:0000000000000000 wm4._stdint.h.10.c24fa3af3bc1706662bb5593a907e841
                           .group:0000000000000000 wm4.stdint.h.23.4c107c5a20920bfc6e94fb2672bbd9ee
                           .group:0000000000000000 wm4.stddef.h.161.38688f2eb958a8ed58fdb61ffe554c94
                           .group:0000000000000000 wm4.locale.h.16.90d16f662e7119f5b192650a45179c6c
                           .group:0000000000000000 wm4.clocale.45.c36d2d5b631a875aa5273176b54fdf0f
                           .group:0000000000000000 wm4.ctype.h.2.cf64fe4c5e8c0ac0f52f1143312d4909
                           .group:0000000000000000 wm4.cctype.45.0da5714876b0be7f2d816b53d9670403
                           .group:0000000000000000 wm4.gthr.h.27.ceb1c66b926f052afcba57e8784df0d4
                           .group:0000000000000000 wm4.gthrdefault.h.27.edc94d4398c0534988962be77dc3c2e1
                           .group:0000000000000000 wm4.atomic_word.h.30.9e0ac69fd462d5e650933e05133b4afa
                           .group:0000000000000000 wm4.allocator.h.52.0ceafb36dc1b82dbfa6b05003082e3f5
                           .group:0000000000000000 wm4.stl_function.h.57.472a8ffdc5144ddcd047558cd884dda0
                           .group:0000000000000000 wm4.alloc_traits.h.31.c41c7c4789404962122a4e991dfa3abf
                           .group:0000000000000000 wm4.cstdlib.44.52c5efdfb0f3c176bd11e611a0b94959
                           .group:0000000000000000 wm4.stdlib.h.13.4ed386f5c1a80d71e72172885d946ef2
                           .group:0000000000000000 wm4.alloca.h.8.dfc0c703c47ec3e69746825b17d9e66d
                           .group:0000000000000000 wm4.stdlib.h.56.d4493cd3736e51e9d56335045f26df45
                           .group:0000000000000000 wm4.cstdlib.76.ae666499c8f9b0ace1b4b23fe143da2c
                           .group:0000000000000000 wm4.stdio.h.27.3fc80220048df77954e38daec3bb9670
                           .group:0000000000000000 wm4.types.h.40.e8c16e7ec36ba55f133d0616070e25fc
                           .group:0000000000000000 wm4._endian.h.31.65a10590763c3dde1ac4a7f66d7d4891
                           .group:0000000000000000 wm4.endian.h.9.49f3a4695c1b61e8a0808de3c4a106cb
                           .group:0000000000000000 wm4._timeval.h.30.0e8bfd94e85db17dda3286ee81496fe6
                           .group:0000000000000000 wm4.timespec.h.41.d855182eb0e690443ab8651bcedca6e1
                           .group:0000000000000000 wm4.select.h.30.bbece7fa40993a78092dcc5805132560
                           .group:0000000000000000 wm4.types.h.69.ed3eae3cf73030a737515151ebcab7a1
                           .group:0000000000000000 wm4.stdio.h.2.4aa87247282eca6c8f36f9de33d8df1a
                           .group:0000000000000000 wm4.stdio.h.81.edc2fd66146f9635463a729e8fe0add3
                           .group:0000000000000000 wm4.cstdio.45.1ffaea3e7c26dce1e03f5847a7439edb
                           .group:0000000000000000 wm4.errno.h.2.ba016d646105af6cad23be83630b6a3f
                           .group:0000000000000000 wm4.errno.h.9.1ecd7b1049497a0ab61da0f6cbd4b0c6
                           .group:0000000000000000 wm4.functional_hash.h.98.3bf7680ffcc8d24d09fa83ac1339c79d
                           .group:0000000000000000 wm4.wctype.h.2.898a9b94aa35d125e245195b099726a8
                           .group:0000000000000000 wm4.wctype.h.21.aec4d35c940c33b3f9c6f879c49edcd8
                           .group:0000000000000000 wm4.cwctype.54.6582aca101688c1c3785d03bc15e2af6
                           .group:0000000000000000 wm4.locale_facets.h.56.0d4bb655ce5e76ea564363ed7c5a34fc
                           .group:0000000000000000 wm4.ZXing.h.18.e57217e2bd13bffdbef9ea3dcbec75d3
                           .group:0000000000000000 wm4.limits.38.40c6c565f51037fae3aa9b94f36ded7a
                           .group:0000000000000000 wm4.math.h.13.4f1ab8d1725735081bbdb9ebcf6dba66
                           .group:0000000000000000 wm4.cmath.46.d6e5b776115d39075860ed881d18f087
                           .group:0000000000000000 wm4.ZXing.h.127.586c16e6a699510970dac3542705a0b6
                           .group:0000000000000000 wm4.string.h.8.c4b8571ce60dff2817f43fec8b86aecd

UNDEFINED SYMBOLS
_ZdlPvj
__gxx_personality_v0
_ZN5zxing9Exception13deleteMessageEv
_ZNSt9exceptionD2Ev
__cxa_end_cleanup
__cxa_call_unexpected
_ZN5zxing6ReaderD2Ev
_ZNSt8ios_base4InitC1Ev
__dso_handle
_ZNSt8ios_base4InitD1Ev
__aeabi_atexit
_ZN5zxing6pdf4178detector8DetectorC1ENS_3RefINS_12BinaryBitmapEEE
_ZN5zxing6pdf4178detector8Detector6detectERKNS_11DecodeHintsE
_ZN5zxing14DetectorResult9getPointsEv
_ZNK5zxing11DecodeHints22getResultPointCallbackEv
_ZN5zxing14DetectorResult7getBitsEv
_ZN5zxing6pdf4177decoder7Decoder6decodeENS_3RefINS_9BitMatrixEEERKNS_11DecodeHintsE
_ZN5zxing13DecoderResult7getTextEv
_ZN5zxing13DecoderResult11getRawBytesEv
_Znwj
_ZN5zxing6ResultC1ENS_3RefINS_6StringEEENS_8ArrayRefIcEENS4_INS1_INS_11ResultPointEEEEENS_13BarcodeFormatE
_ZN5zxing9Exception4copyEPKc
_ZNK5zxing9BitMatrix8getWidthEv
__cxa_allocate_exception
__cxa_throw
__aeabi_unwind_cpp_pr0
__aeabi_idiv
_ZNK5zxing9BitMatrix15getTopLeftOnBitEv
_ZNK5zxing9BitMatrix19getBottomRightOnBitEv
_ZN5zxing9BitMatrixC1Eii
_ZTVN10__cxxabiv117__class_type_infoE
_ZTVN10__cxxabiv120__si_class_type_infoE
_ZTISt9exception
_ZTIN5zxing6ReaderE
_ZN5zxing6Reader6decodeENS_3RefINS_12BinaryBitmapEEE
