   1              		.cpu cortex-a9
   2              		.eabi_attribute 28, 1
   3              		.eabi_attribute 20, 1
   4              		.eabi_attribute 21, 1
   5              		.eabi_attribute 23, 3
   6              		.eabi_attribute 24, 1
   7              		.eabi_attribute 25, 1
   8              		.eabi_attribute 26, 1
   9              		.eabi_attribute 30, 1
  10              		.eabi_attribute 34, 0
  11              		.eabi_attribute 18, 4
  12              		.file	"DetectorResult.cpp"
  13              		.text
  14              	.Ltext0:
  15              		.cfi_sections	.debug_frame
  16              		.section	.text._ZN5zxing8ArrayRefINS_3RefINS_11ResultPointEEEED2Ev,"axG",%progbits,_ZN5zxing8Array
  17              		.align	2
  18              		.weak	_ZN5zxing8ArrayRefINS_3RefINS_11ResultPointEEEED2Ev
  19              		.syntax unified
  20              		.arm
  21              		.fpu neon
  23              	_ZN5zxing8ArrayRefINS_3RefINS_11ResultPointEEEED2Ev:
  24              		.fnstart
  25              	.LFB2465:
  26              		.file 1 "/home/zkmike/workspace/RZA2M/rza2m_2d_barcode_sample_freertos_gcc/src/zxing_lib/zxing/com
   1:/home/zkmike/workspace/RZA2M/rza2m_2d_barcode_sample_freertos_gcc/src/zxing_lib/zxing/common/Array.h **** // -*- mode:c++; tab-width:2; indent-tabs-mode:nil; c-basic-offset:2 -*-
   2:/home/zkmike/workspace/RZA2M/rza2m_2d_barcode_sample_freertos_gcc/src/zxing_lib/zxing/common/Array.h **** #ifndef __ARRAY_H__
   3:/home/zkmike/workspace/RZA2M/rza2m_2d_barcode_sample_freertos_gcc/src/zxing_lib/zxing/common/Array.h **** #define __ARRAY_H__
   4:/home/zkmike/workspace/RZA2M/rza2m_2d_barcode_sample_freertos_gcc/src/zxing_lib/zxing/common/Array.h **** 
   5:/home/zkmike/workspace/RZA2M/rza2m_2d_barcode_sample_freertos_gcc/src/zxing_lib/zxing/common/Array.h **** /*
   6:/home/zkmike/workspace/RZA2M/rza2m_2d_barcode_sample_freertos_gcc/src/zxing_lib/zxing/common/Array.h ****  *  Array.h
   7:/home/zkmike/workspace/RZA2M/rza2m_2d_barcode_sample_freertos_gcc/src/zxing_lib/zxing/common/Array.h ****  *  zxing
   8:/home/zkmike/workspace/RZA2M/rza2m_2d_barcode_sample_freertos_gcc/src/zxing_lib/zxing/common/Array.h ****  *
   9:/home/zkmike/workspace/RZA2M/rza2m_2d_barcode_sample_freertos_gcc/src/zxing_lib/zxing/common/Array.h ****  *  Copyright 2010 ZXing authors All rights reserved.
  10:/home/zkmike/workspace/RZA2M/rza2m_2d_barcode_sample_freertos_gcc/src/zxing_lib/zxing/common/Array.h ****  *
  11:/home/zkmike/workspace/RZA2M/rza2m_2d_barcode_sample_freertos_gcc/src/zxing_lib/zxing/common/Array.h ****  * Licensed under the Apache License, Version 2.0 (the "License");
  12:/home/zkmike/workspace/RZA2M/rza2m_2d_barcode_sample_freertos_gcc/src/zxing_lib/zxing/common/Array.h ****  * you may not use this file except in compliance with the License.
  13:/home/zkmike/workspace/RZA2M/rza2m_2d_barcode_sample_freertos_gcc/src/zxing_lib/zxing/common/Array.h ****  * You may obtain a copy of the License at
  14:/home/zkmike/workspace/RZA2M/rza2m_2d_barcode_sample_freertos_gcc/src/zxing_lib/zxing/common/Array.h ****  *
  15:/home/zkmike/workspace/RZA2M/rza2m_2d_barcode_sample_freertos_gcc/src/zxing_lib/zxing/common/Array.h ****  *      http://www.apache.org/licenses/LICENSE-2.0
  16:/home/zkmike/workspace/RZA2M/rza2m_2d_barcode_sample_freertos_gcc/src/zxing_lib/zxing/common/Array.h ****  *
  17:/home/zkmike/workspace/RZA2M/rza2m_2d_barcode_sample_freertos_gcc/src/zxing_lib/zxing/common/Array.h ****  * Unless required by applicable law or agreed to in writing, software
  18:/home/zkmike/workspace/RZA2M/rza2m_2d_barcode_sample_freertos_gcc/src/zxing_lib/zxing/common/Array.h ****  * distributed under the License is distributed on an "AS IS" BASIS,
  19:/home/zkmike/workspace/RZA2M/rza2m_2d_barcode_sample_freertos_gcc/src/zxing_lib/zxing/common/Array.h ****  * WITHOUT WARRANTIES OR CONDITIONS OF ANY KIND, either express or implied.
  20:/home/zkmike/workspace/RZA2M/rza2m_2d_barcode_sample_freertos_gcc/src/zxing_lib/zxing/common/Array.h ****  * See the License for the specific language governing permissions and
  21:/home/zkmike/workspace/RZA2M/rza2m_2d_barcode_sample_freertos_gcc/src/zxing_lib/zxing/common/Array.h ****  * limitations under the License.
  22:/home/zkmike/workspace/RZA2M/rza2m_2d_barcode_sample_freertos_gcc/src/zxing_lib/zxing/common/Array.h ****  */
  23:/home/zkmike/workspace/RZA2M/rza2m_2d_barcode_sample_freertos_gcc/src/zxing_lib/zxing/common/Array.h **** 
  24:/home/zkmike/workspace/RZA2M/rza2m_2d_barcode_sample_freertos_gcc/src/zxing_lib/zxing/common/Array.h **** #include <vector>
  25:/home/zkmike/workspace/RZA2M/rza2m_2d_barcode_sample_freertos_gcc/src/zxing_lib/zxing/common/Array.h **** 
  26:/home/zkmike/workspace/RZA2M/rza2m_2d_barcode_sample_freertos_gcc/src/zxing_lib/zxing/common/Array.h **** #include <zxing/common/Counted.h>
  27:/home/zkmike/workspace/RZA2M/rza2m_2d_barcode_sample_freertos_gcc/src/zxing_lib/zxing/common/Array.h **** 
  28:/home/zkmike/workspace/RZA2M/rza2m_2d_barcode_sample_freertos_gcc/src/zxing_lib/zxing/common/Array.h **** namespace zxing {
  29:/home/zkmike/workspace/RZA2M/rza2m_2d_barcode_sample_freertos_gcc/src/zxing_lib/zxing/common/Array.h **** 
  30:/home/zkmike/workspace/RZA2M/rza2m_2d_barcode_sample_freertos_gcc/src/zxing_lib/zxing/common/Array.h **** template<typename T> class Array : public Counted {
  31:/home/zkmike/workspace/RZA2M/rza2m_2d_barcode_sample_freertos_gcc/src/zxing_lib/zxing/common/Array.h **** protected:
  32:/home/zkmike/workspace/RZA2M/rza2m_2d_barcode_sample_freertos_gcc/src/zxing_lib/zxing/common/Array.h **** public:
  33:/home/zkmike/workspace/RZA2M/rza2m_2d_barcode_sample_freertos_gcc/src/zxing_lib/zxing/common/Array.h ****   std::vector<T> values_;
  34:/home/zkmike/workspace/RZA2M/rza2m_2d_barcode_sample_freertos_gcc/src/zxing_lib/zxing/common/Array.h ****   Array() {}
  35:/home/zkmike/workspace/RZA2M/rza2m_2d_barcode_sample_freertos_gcc/src/zxing_lib/zxing/common/Array.h ****   Array(int n) :
  36:/home/zkmike/workspace/RZA2M/rza2m_2d_barcode_sample_freertos_gcc/src/zxing_lib/zxing/common/Array.h ****       Counted(), values_(n, T()) {
  37:/home/zkmike/workspace/RZA2M/rza2m_2d_barcode_sample_freertos_gcc/src/zxing_lib/zxing/common/Array.h ****   }
  38:/home/zkmike/workspace/RZA2M/rza2m_2d_barcode_sample_freertos_gcc/src/zxing_lib/zxing/common/Array.h ****   Array(T const* ts, int n) :
  39:/home/zkmike/workspace/RZA2M/rza2m_2d_barcode_sample_freertos_gcc/src/zxing_lib/zxing/common/Array.h ****       Counted(), values_(ts, ts+n) {
  40:/home/zkmike/workspace/RZA2M/rza2m_2d_barcode_sample_freertos_gcc/src/zxing_lib/zxing/common/Array.h ****   }
  41:/home/zkmike/workspace/RZA2M/rza2m_2d_barcode_sample_freertos_gcc/src/zxing_lib/zxing/common/Array.h ****   Array(T const* ts, T const* te) :
  42:/home/zkmike/workspace/RZA2M/rza2m_2d_barcode_sample_freertos_gcc/src/zxing_lib/zxing/common/Array.h ****       Counted(), values_(ts, te) {
  43:/home/zkmike/workspace/RZA2M/rza2m_2d_barcode_sample_freertos_gcc/src/zxing_lib/zxing/common/Array.h ****   }
  44:/home/zkmike/workspace/RZA2M/rza2m_2d_barcode_sample_freertos_gcc/src/zxing_lib/zxing/common/Array.h ****   Array(T v, int n) :
  45:/home/zkmike/workspace/RZA2M/rza2m_2d_barcode_sample_freertos_gcc/src/zxing_lib/zxing/common/Array.h ****       Counted(), values_(n, v) {
  46:/home/zkmike/workspace/RZA2M/rza2m_2d_barcode_sample_freertos_gcc/src/zxing_lib/zxing/common/Array.h ****   }
  47:/home/zkmike/workspace/RZA2M/rza2m_2d_barcode_sample_freertos_gcc/src/zxing_lib/zxing/common/Array.h ****   Array(std::vector<T> &v) :
  48:/home/zkmike/workspace/RZA2M/rza2m_2d_barcode_sample_freertos_gcc/src/zxing_lib/zxing/common/Array.h ****       Counted(), values_(v) {
  49:/home/zkmike/workspace/RZA2M/rza2m_2d_barcode_sample_freertos_gcc/src/zxing_lib/zxing/common/Array.h ****   }
  50:/home/zkmike/workspace/RZA2M/rza2m_2d_barcode_sample_freertos_gcc/src/zxing_lib/zxing/common/Array.h ****   Array(Array<T> &other) :
  51:/home/zkmike/workspace/RZA2M/rza2m_2d_barcode_sample_freertos_gcc/src/zxing_lib/zxing/common/Array.h ****       Counted(), values_(other.values_) {
  52:/home/zkmike/workspace/RZA2M/rza2m_2d_barcode_sample_freertos_gcc/src/zxing_lib/zxing/common/Array.h ****   }
  53:/home/zkmike/workspace/RZA2M/rza2m_2d_barcode_sample_freertos_gcc/src/zxing_lib/zxing/common/Array.h ****   Array(Array<T> *other) :
  54:/home/zkmike/workspace/RZA2M/rza2m_2d_barcode_sample_freertos_gcc/src/zxing_lib/zxing/common/Array.h ****       Counted(), values_(other->values_) {
  55:/home/zkmike/workspace/RZA2M/rza2m_2d_barcode_sample_freertos_gcc/src/zxing_lib/zxing/common/Array.h ****   }
  56:/home/zkmike/workspace/RZA2M/rza2m_2d_barcode_sample_freertos_gcc/src/zxing_lib/zxing/common/Array.h ****   virtual ~Array() {
  57:/home/zkmike/workspace/RZA2M/rza2m_2d_barcode_sample_freertos_gcc/src/zxing_lib/zxing/common/Array.h ****   }
  58:/home/zkmike/workspace/RZA2M/rza2m_2d_barcode_sample_freertos_gcc/src/zxing_lib/zxing/common/Array.h ****   Array<T>& operator=(const Array<T> &other) {
  59:/home/zkmike/workspace/RZA2M/rza2m_2d_barcode_sample_freertos_gcc/src/zxing_lib/zxing/common/Array.h ****     values_ = other.values_;
  60:/home/zkmike/workspace/RZA2M/rza2m_2d_barcode_sample_freertos_gcc/src/zxing_lib/zxing/common/Array.h ****     return *this;
  61:/home/zkmike/workspace/RZA2M/rza2m_2d_barcode_sample_freertos_gcc/src/zxing_lib/zxing/common/Array.h ****   }
  62:/home/zkmike/workspace/RZA2M/rza2m_2d_barcode_sample_freertos_gcc/src/zxing_lib/zxing/common/Array.h ****   Array<T>& operator=(const std::vector<T> &array) {
  63:/home/zkmike/workspace/RZA2M/rza2m_2d_barcode_sample_freertos_gcc/src/zxing_lib/zxing/common/Array.h ****     values_ = array;
  64:/home/zkmike/workspace/RZA2M/rza2m_2d_barcode_sample_freertos_gcc/src/zxing_lib/zxing/common/Array.h ****     return *this;
  65:/home/zkmike/workspace/RZA2M/rza2m_2d_barcode_sample_freertos_gcc/src/zxing_lib/zxing/common/Array.h ****   }
  66:/home/zkmike/workspace/RZA2M/rza2m_2d_barcode_sample_freertos_gcc/src/zxing_lib/zxing/common/Array.h ****   T const& operator[](int i) const {
  67:/home/zkmike/workspace/RZA2M/rza2m_2d_barcode_sample_freertos_gcc/src/zxing_lib/zxing/common/Array.h ****     return values_[i];
  68:/home/zkmike/workspace/RZA2M/rza2m_2d_barcode_sample_freertos_gcc/src/zxing_lib/zxing/common/Array.h ****   }
  69:/home/zkmike/workspace/RZA2M/rza2m_2d_barcode_sample_freertos_gcc/src/zxing_lib/zxing/common/Array.h ****   T& operator[](int i) {
  70:/home/zkmike/workspace/RZA2M/rza2m_2d_barcode_sample_freertos_gcc/src/zxing_lib/zxing/common/Array.h ****     return values_[i];
  71:/home/zkmike/workspace/RZA2M/rza2m_2d_barcode_sample_freertos_gcc/src/zxing_lib/zxing/common/Array.h ****   }
  72:/home/zkmike/workspace/RZA2M/rza2m_2d_barcode_sample_freertos_gcc/src/zxing_lib/zxing/common/Array.h ****   int size() const {
  73:/home/zkmike/workspace/RZA2M/rza2m_2d_barcode_sample_freertos_gcc/src/zxing_lib/zxing/common/Array.h ****     return values_.size();
  74:/home/zkmike/workspace/RZA2M/rza2m_2d_barcode_sample_freertos_gcc/src/zxing_lib/zxing/common/Array.h ****   }
  75:/home/zkmike/workspace/RZA2M/rza2m_2d_barcode_sample_freertos_gcc/src/zxing_lib/zxing/common/Array.h ****   bool empty() const {
  76:/home/zkmike/workspace/RZA2M/rza2m_2d_barcode_sample_freertos_gcc/src/zxing_lib/zxing/common/Array.h ****     return values_.size() == 0;
  77:/home/zkmike/workspace/RZA2M/rza2m_2d_barcode_sample_freertos_gcc/src/zxing_lib/zxing/common/Array.h ****   }
  78:/home/zkmike/workspace/RZA2M/rza2m_2d_barcode_sample_freertos_gcc/src/zxing_lib/zxing/common/Array.h ****   std::vector<T> const& values() const {
  79:/home/zkmike/workspace/RZA2M/rza2m_2d_barcode_sample_freertos_gcc/src/zxing_lib/zxing/common/Array.h ****     return values_;
  80:/home/zkmike/workspace/RZA2M/rza2m_2d_barcode_sample_freertos_gcc/src/zxing_lib/zxing/common/Array.h ****   }
  81:/home/zkmike/workspace/RZA2M/rza2m_2d_barcode_sample_freertos_gcc/src/zxing_lib/zxing/common/Array.h ****   std::vector<T>& values() {
  82:/home/zkmike/workspace/RZA2M/rza2m_2d_barcode_sample_freertos_gcc/src/zxing_lib/zxing/common/Array.h ****     return values_;
  83:/home/zkmike/workspace/RZA2M/rza2m_2d_barcode_sample_freertos_gcc/src/zxing_lib/zxing/common/Array.h ****   }
  84:/home/zkmike/workspace/RZA2M/rza2m_2d_barcode_sample_freertos_gcc/src/zxing_lib/zxing/common/Array.h **** };
  85:/home/zkmike/workspace/RZA2M/rza2m_2d_barcode_sample_freertos_gcc/src/zxing_lib/zxing/common/Array.h **** 
  86:/home/zkmike/workspace/RZA2M/rza2m_2d_barcode_sample_freertos_gcc/src/zxing_lib/zxing/common/Array.h **** template<typename T> class ArrayRef : public Counted {
  87:/home/zkmike/workspace/RZA2M/rza2m_2d_barcode_sample_freertos_gcc/src/zxing_lib/zxing/common/Array.h **** private:
  88:/home/zkmike/workspace/RZA2M/rza2m_2d_barcode_sample_freertos_gcc/src/zxing_lib/zxing/common/Array.h **** public:
  89:/home/zkmike/workspace/RZA2M/rza2m_2d_barcode_sample_freertos_gcc/src/zxing_lib/zxing/common/Array.h ****   Array<T> *array_;
  90:/home/zkmike/workspace/RZA2M/rza2m_2d_barcode_sample_freertos_gcc/src/zxing_lib/zxing/common/Array.h ****   ArrayRef() :
  91:/home/zkmike/workspace/RZA2M/rza2m_2d_barcode_sample_freertos_gcc/src/zxing_lib/zxing/common/Array.h ****       array_(0) {
  92:/home/zkmike/workspace/RZA2M/rza2m_2d_barcode_sample_freertos_gcc/src/zxing_lib/zxing/common/Array.h ****   }
  93:/home/zkmike/workspace/RZA2M/rza2m_2d_barcode_sample_freertos_gcc/src/zxing_lib/zxing/common/Array.h ****   explicit ArrayRef(int n) :
  94:/home/zkmike/workspace/RZA2M/rza2m_2d_barcode_sample_freertos_gcc/src/zxing_lib/zxing/common/Array.h ****       array_(0) {
  95:/home/zkmike/workspace/RZA2M/rza2m_2d_barcode_sample_freertos_gcc/src/zxing_lib/zxing/common/Array.h ****     reset(new Array<T> (n));
  96:/home/zkmike/workspace/RZA2M/rza2m_2d_barcode_sample_freertos_gcc/src/zxing_lib/zxing/common/Array.h ****   }
  97:/home/zkmike/workspace/RZA2M/rza2m_2d_barcode_sample_freertos_gcc/src/zxing_lib/zxing/common/Array.h ****   ArrayRef(T *ts, int n) :
  98:/home/zkmike/workspace/RZA2M/rza2m_2d_barcode_sample_freertos_gcc/src/zxing_lib/zxing/common/Array.h ****       array_(0) {
  99:/home/zkmike/workspace/RZA2M/rza2m_2d_barcode_sample_freertos_gcc/src/zxing_lib/zxing/common/Array.h ****     reset(new Array<T> (ts, n));
 100:/home/zkmike/workspace/RZA2M/rza2m_2d_barcode_sample_freertos_gcc/src/zxing_lib/zxing/common/Array.h ****   }
 101:/home/zkmike/workspace/RZA2M/rza2m_2d_barcode_sample_freertos_gcc/src/zxing_lib/zxing/common/Array.h ****   ArrayRef(Array<T> *a) :
 102:/home/zkmike/workspace/RZA2M/rza2m_2d_barcode_sample_freertos_gcc/src/zxing_lib/zxing/common/Array.h ****       array_(0) {
 103:/home/zkmike/workspace/RZA2M/rza2m_2d_barcode_sample_freertos_gcc/src/zxing_lib/zxing/common/Array.h ****     reset(a);
 104:/home/zkmike/workspace/RZA2M/rza2m_2d_barcode_sample_freertos_gcc/src/zxing_lib/zxing/common/Array.h ****   }
 105:/home/zkmike/workspace/RZA2M/rza2m_2d_barcode_sample_freertos_gcc/src/zxing_lib/zxing/common/Array.h ****   ArrayRef(const ArrayRef &other) :
 106:/home/zkmike/workspace/RZA2M/rza2m_2d_barcode_sample_freertos_gcc/src/zxing_lib/zxing/common/Array.h ****       Counted(), array_(0) {
 107:/home/zkmike/workspace/RZA2M/rza2m_2d_barcode_sample_freertos_gcc/src/zxing_lib/zxing/common/Array.h ****     reset(other.array_);
 108:/home/zkmike/workspace/RZA2M/rza2m_2d_barcode_sample_freertos_gcc/src/zxing_lib/zxing/common/Array.h ****   }
 109:/home/zkmike/workspace/RZA2M/rza2m_2d_barcode_sample_freertos_gcc/src/zxing_lib/zxing/common/Array.h **** 
 110:/home/zkmike/workspace/RZA2M/rza2m_2d_barcode_sample_freertos_gcc/src/zxing_lib/zxing/common/Array.h ****   template<class Y>
 111:/home/zkmike/workspace/RZA2M/rza2m_2d_barcode_sample_freertos_gcc/src/zxing_lib/zxing/common/Array.h ****   ArrayRef(const ArrayRef<Y> &other) :
 112:/home/zkmike/workspace/RZA2M/rza2m_2d_barcode_sample_freertos_gcc/src/zxing_lib/zxing/common/Array.h ****       array_(0) {
 113:/home/zkmike/workspace/RZA2M/rza2m_2d_barcode_sample_freertos_gcc/src/zxing_lib/zxing/common/Array.h ****     reset(static_cast<const Array<T> *>(other.array_));
 114:/home/zkmike/workspace/RZA2M/rza2m_2d_barcode_sample_freertos_gcc/src/zxing_lib/zxing/common/Array.h ****   }
 115:/home/zkmike/workspace/RZA2M/rza2m_2d_barcode_sample_freertos_gcc/src/zxing_lib/zxing/common/Array.h **** 
 116:/home/zkmike/workspace/RZA2M/rza2m_2d_barcode_sample_freertos_gcc/src/zxing_lib/zxing/common/Array.h ****   ~ArrayRef() {
  27              		.loc 1 116 0
  28              		.cfi_startproc
  29              		@ args = 0, pretend = 0, frame = 0
  30              		@ frame_needed = 0, uses_anonymous_args = 0
  31              	.LVL0:
  32 0000 10402DE9 		push	{r4, lr}
  33              		.cfi_def_cfa_offset 8
  34              		.cfi_offset 4, -8
  35              		.cfi_offset 14, -4
  36 0004 0040A0E1 		mov	r4, r0
  37              	.LBB69:
 117:/home/zkmike/workspace/RZA2M/rza2m_2d_barcode_sample_freertos_gcc/src/zxing_lib/zxing/common/Array.h ****     if (array_) {
 118:/home/zkmike/workspace/RZA2M/rza2m_2d_barcode_sample_freertos_gcc/src/zxing_lib/zxing/common/Array.h ****       array_->release();
 119:/home/zkmike/workspace/RZA2M/rza2m_2d_barcode_sample_freertos_gcc/src/zxing_lib/zxing/common/Array.h ****     }
 120:/home/zkmike/workspace/RZA2M/rza2m_2d_barcode_sample_freertos_gcc/src/zxing_lib/zxing/common/Array.h ****     array_ = 0;
 121:/home/zkmike/workspace/RZA2M/rza2m_2d_barcode_sample_freertos_gcc/src/zxing_lib/zxing/common/Array.h ****   }
  38              		.loc 1 121 0
  39 0008 44309FE5 		ldr	r3, .L5
  40 000c 003080E5 		str	r3, [r0]
 117:/home/zkmike/workspace/RZA2M/rza2m_2d_barcode_sample_freertos_gcc/src/zxing_lib/zxing/common/Array.h ****     if (array_) {
  41              		.loc 1 117 0
  42 0010 080090E5 		ldr	r0, [r0, #8]
  43              	.LVL1:
  44 0014 000050E3 		cmp	r0, #0
  45 0018 0400000A 		beq	.L2
  46              	.LVL2:
  47              	.LBB70:
  48              	.LBB71:
  49              		.file 2 "/home/zkmike/workspace/RZA2M/rza2m_2d_barcode_sample_freertos_gcc/src/zxing_lib/zxing/com
   1:/home/zkmike/workspace/RZA2M/rza2m_2d_barcode_sample_freertos_gcc/src/zxing_lib/zxing/common/Counted.h **** // -*- mode:c++; tab-width:2; indent-tabs-mode:nil; c-basic-offset:2 -*-
   2:/home/zkmike/workspace/RZA2M/rza2m_2d_barcode_sample_freertos_gcc/src/zxing_lib/zxing/common/Counted.h **** #ifndef __COUNTED_H__
   3:/home/zkmike/workspace/RZA2M/rza2m_2d_barcode_sample_freertos_gcc/src/zxing_lib/zxing/common/Counted.h **** #define __COUNTED_H__
   4:/home/zkmike/workspace/RZA2M/rza2m_2d_barcode_sample_freertos_gcc/src/zxing_lib/zxing/common/Counted.h **** 
   5:/home/zkmike/workspace/RZA2M/rza2m_2d_barcode_sample_freertos_gcc/src/zxing_lib/zxing/common/Counted.h **** /*
   6:/home/zkmike/workspace/RZA2M/rza2m_2d_barcode_sample_freertos_gcc/src/zxing_lib/zxing/common/Counted.h ****  *  Copyright 2010 ZXing authors All rights reserved.
   7:/home/zkmike/workspace/RZA2M/rza2m_2d_barcode_sample_freertos_gcc/src/zxing_lib/zxing/common/Counted.h ****  *
   8:/home/zkmike/workspace/RZA2M/rza2m_2d_barcode_sample_freertos_gcc/src/zxing_lib/zxing/common/Counted.h ****  * Licensed under the Apache License, Version 2.0 (the "License");
   9:/home/zkmike/workspace/RZA2M/rza2m_2d_barcode_sample_freertos_gcc/src/zxing_lib/zxing/common/Counted.h ****  * you may not use this file except in compliance with the License.
  10:/home/zkmike/workspace/RZA2M/rza2m_2d_barcode_sample_freertos_gcc/src/zxing_lib/zxing/common/Counted.h ****  * You may obtain a copy of the License at
  11:/home/zkmike/workspace/RZA2M/rza2m_2d_barcode_sample_freertos_gcc/src/zxing_lib/zxing/common/Counted.h ****  *
  12:/home/zkmike/workspace/RZA2M/rza2m_2d_barcode_sample_freertos_gcc/src/zxing_lib/zxing/common/Counted.h ****  *      http://www.apache.org/licenses/LICENSE-2.0
  13:/home/zkmike/workspace/RZA2M/rza2m_2d_barcode_sample_freertos_gcc/src/zxing_lib/zxing/common/Counted.h ****  *
  14:/home/zkmike/workspace/RZA2M/rza2m_2d_barcode_sample_freertos_gcc/src/zxing_lib/zxing/common/Counted.h ****  * Unless required by applicable law or agreed to in writing, software
  15:/home/zkmike/workspace/RZA2M/rza2m_2d_barcode_sample_freertos_gcc/src/zxing_lib/zxing/common/Counted.h ****  * distributed under the License is distributed on an "AS IS" BASIS,
  16:/home/zkmike/workspace/RZA2M/rza2m_2d_barcode_sample_freertos_gcc/src/zxing_lib/zxing/common/Counted.h ****  * WITHOUT WARRANTIES OR CONDITIONS OF ANY KIND, either express or implied.
  17:/home/zkmike/workspace/RZA2M/rza2m_2d_barcode_sample_freertos_gcc/src/zxing_lib/zxing/common/Counted.h ****  * See the License for the specific language governing permissions and
  18:/home/zkmike/workspace/RZA2M/rza2m_2d_barcode_sample_freertos_gcc/src/zxing_lib/zxing/common/Counted.h ****  * limitations under the License.
  19:/home/zkmike/workspace/RZA2M/rza2m_2d_barcode_sample_freertos_gcc/src/zxing_lib/zxing/common/Counted.h ****  */
  20:/home/zkmike/workspace/RZA2M/rza2m_2d_barcode_sample_freertos_gcc/src/zxing_lib/zxing/common/Counted.h **** 
  21:/home/zkmike/workspace/RZA2M/rza2m_2d_barcode_sample_freertos_gcc/src/zxing_lib/zxing/common/Counted.h **** #include <iostream>
  22:/home/zkmike/workspace/RZA2M/rza2m_2d_barcode_sample_freertos_gcc/src/zxing_lib/zxing/common/Counted.h **** 
  23:/home/zkmike/workspace/RZA2M/rza2m_2d_barcode_sample_freertos_gcc/src/zxing_lib/zxing/common/Counted.h **** namespace zxing {
  24:/home/zkmike/workspace/RZA2M/rza2m_2d_barcode_sample_freertos_gcc/src/zxing_lib/zxing/common/Counted.h **** 
  25:/home/zkmike/workspace/RZA2M/rza2m_2d_barcode_sample_freertos_gcc/src/zxing_lib/zxing/common/Counted.h **** /* base class for reference-counted objects */
  26:/home/zkmike/workspace/RZA2M/rza2m_2d_barcode_sample_freertos_gcc/src/zxing_lib/zxing/common/Counted.h **** class Counted {
  27:/home/zkmike/workspace/RZA2M/rza2m_2d_barcode_sample_freertos_gcc/src/zxing_lib/zxing/common/Counted.h **** private:
  28:/home/zkmike/workspace/RZA2M/rza2m_2d_barcode_sample_freertos_gcc/src/zxing_lib/zxing/common/Counted.h ****   unsigned int count_;
  29:/home/zkmike/workspace/RZA2M/rza2m_2d_barcode_sample_freertos_gcc/src/zxing_lib/zxing/common/Counted.h **** public:
  30:/home/zkmike/workspace/RZA2M/rza2m_2d_barcode_sample_freertos_gcc/src/zxing_lib/zxing/common/Counted.h ****   Counted() :
  31:/home/zkmike/workspace/RZA2M/rza2m_2d_barcode_sample_freertos_gcc/src/zxing_lib/zxing/common/Counted.h ****       count_(0) {
  32:/home/zkmike/workspace/RZA2M/rza2m_2d_barcode_sample_freertos_gcc/src/zxing_lib/zxing/common/Counted.h ****   }
  33:/home/zkmike/workspace/RZA2M/rza2m_2d_barcode_sample_freertos_gcc/src/zxing_lib/zxing/common/Counted.h ****   virtual ~Counted() {
  34:/home/zkmike/workspace/RZA2M/rza2m_2d_barcode_sample_freertos_gcc/src/zxing_lib/zxing/common/Counted.h ****   }
  35:/home/zkmike/workspace/RZA2M/rza2m_2d_barcode_sample_freertos_gcc/src/zxing_lib/zxing/common/Counted.h ****   Counted *retain() {
  36:/home/zkmike/workspace/RZA2M/rza2m_2d_barcode_sample_freertos_gcc/src/zxing_lib/zxing/common/Counted.h ****     count_++;
  37:/home/zkmike/workspace/RZA2M/rza2m_2d_barcode_sample_freertos_gcc/src/zxing_lib/zxing/common/Counted.h ****     return this;
  38:/home/zkmike/workspace/RZA2M/rza2m_2d_barcode_sample_freertos_gcc/src/zxing_lib/zxing/common/Counted.h ****   }
  39:/home/zkmike/workspace/RZA2M/rza2m_2d_barcode_sample_freertos_gcc/src/zxing_lib/zxing/common/Counted.h ****   void release() {
  40:/home/zkmike/workspace/RZA2M/rza2m_2d_barcode_sample_freertos_gcc/src/zxing_lib/zxing/common/Counted.h ****     count_--;
  50              		.loc 2 40 0
  51 001c 043090E5 		ldr	r3, [r0, #4]
  52 0020 013043E2 		sub	r3, r3, #1
  53 0024 043080E5 		str	r3, [r0, #4]
  41:/home/zkmike/workspace/RZA2M/rza2m_2d_barcode_sample_freertos_gcc/src/zxing_lib/zxing/common/Counted.h ****     if (count_ == 0) {
  54              		.loc 2 41 0
  55 0028 000053E3 		cmp	r3, #0
  56 002c 0100000A 		beq	.L4
  57              	.LVL3:
  58              	.L2:
  59              	.LBE71:
  60              	.LBE70:
  61              	.LBE69:
  62              		.loc 1 121 0
  63 0030 0400A0E1 		mov	r0, r4
  64 0034 1080BDE8 		pop	{r4, pc}
  65              	.LVL4:
  66              	.L4:
  67              	.LBB74:
  68              	.LBB73:
  69              	.LBB72:
  42:/home/zkmike/workspace/RZA2M/rza2m_2d_barcode_sample_freertos_gcc/src/zxing_lib/zxing/common/Counted.h ****       count_ = 0xDEADF001;
  70              		.loc 2 42 0
  71 0038 01300FE3 		movw	r3, #61441
  72 003c AD3E4DE3 		movt	r3, 57005
  73 0040 043080E5 		str	r3, [r0, #4]
  43:/home/zkmike/workspace/RZA2M/rza2m_2d_barcode_sample_freertos_gcc/src/zxing_lib/zxing/common/Counted.h ****       delete this;
  74              		.loc 2 43 0
  75 0044 003090E5 		ldr	r3, [r0]
  76 0048 043093E5 		ldr	r3, [r3, #4]
  77 004c 33FF2FE1 		blx	r3
  78              	.LVL5:
  79 0050 F6FFFFEA 		b	.L2
  80              	.L6:
  81              		.align	2
  82              	.L5:
  83 0054 08000000 		.word	_ZTVN5zxing8ArrayRefINS_3RefINS_11ResultPointEEEEE+8
  84              	.LBE72:
  85              	.LBE73:
  86              	.LBE74:
  87              		.cfi_endproc
  88              	.LFE2465:
  89              		.cantunwind
  90              		.fnend
  92              		.weak	_ZN5zxing8ArrayRefINS_3RefINS_11ResultPointEEEED1Ev
  93              		.set	_ZN5zxing8ArrayRefINS_3RefINS_11ResultPointEEEED1Ev,_ZN5zxing8ArrayRefINS_3RefINS_11ResultPoi
  94              		.section	.text._ZN5zxing14DetectorResultD2Ev,"axG",%progbits,_ZN5zxing14DetectorResultD5Ev,comdat
  95              		.align	2
  96              		.weak	_ZN5zxing14DetectorResultD2Ev
  97              		.syntax unified
  98              		.arm
  99              		.fpu neon
 101              	_ZN5zxing14DetectorResultD2Ev:
 102              		.fnstart
 103              	.LFB2702:
 104              		.file 3 "/home/zkmike/workspace/RZA2M/rza2m_2d_barcode_sample_freertos_gcc/src/zxing_lib/zxing/com
   1:/home/zkmike/workspace/RZA2M/rza2m_2d_barcode_sample_freertos_gcc/src/zxing_lib/zxing/common/DetectorResult.h **** #ifndef __DETECTOR_RESULT_H__
   2:/home/zkmike/workspace/RZA2M/rza2m_2d_barcode_sample_freertos_gcc/src/zxing_lib/zxing/common/DetectorResult.h **** #define __DETECTOR_RESULT_H__
   3:/home/zkmike/workspace/RZA2M/rza2m_2d_barcode_sample_freertos_gcc/src/zxing_lib/zxing/common/DetectorResult.h **** 
   4:/home/zkmike/workspace/RZA2M/rza2m_2d_barcode_sample_freertos_gcc/src/zxing_lib/zxing/common/DetectorResult.h **** /*
   5:/home/zkmike/workspace/RZA2M/rza2m_2d_barcode_sample_freertos_gcc/src/zxing_lib/zxing/common/DetectorResult.h ****  *  DetectorResult.h
   6:/home/zkmike/workspace/RZA2M/rza2m_2d_barcode_sample_freertos_gcc/src/zxing_lib/zxing/common/DetectorResult.h ****  *  zxing
   7:/home/zkmike/workspace/RZA2M/rza2m_2d_barcode_sample_freertos_gcc/src/zxing_lib/zxing/common/DetectorResult.h ****  *
   8:/home/zkmike/workspace/RZA2M/rza2m_2d_barcode_sample_freertos_gcc/src/zxing_lib/zxing/common/DetectorResult.h ****  *  Copyright 2010 ZXing authors All rights reserved.
   9:/home/zkmike/workspace/RZA2M/rza2m_2d_barcode_sample_freertos_gcc/src/zxing_lib/zxing/common/DetectorResult.h ****  *
  10:/home/zkmike/workspace/RZA2M/rza2m_2d_barcode_sample_freertos_gcc/src/zxing_lib/zxing/common/DetectorResult.h ****  * Licensed under the Apache License, Version 2.0 (the "License");
  11:/home/zkmike/workspace/RZA2M/rza2m_2d_barcode_sample_freertos_gcc/src/zxing_lib/zxing/common/DetectorResult.h ****  * you may not use this file except in compliance with the License.
  12:/home/zkmike/workspace/RZA2M/rza2m_2d_barcode_sample_freertos_gcc/src/zxing_lib/zxing/common/DetectorResult.h ****  * You may obtain a copy of the License at
  13:/home/zkmike/workspace/RZA2M/rza2m_2d_barcode_sample_freertos_gcc/src/zxing_lib/zxing/common/DetectorResult.h ****  *
  14:/home/zkmike/workspace/RZA2M/rza2m_2d_barcode_sample_freertos_gcc/src/zxing_lib/zxing/common/DetectorResult.h ****  *      http://www.apache.org/licenses/LICENSE-2.0
  15:/home/zkmike/workspace/RZA2M/rza2m_2d_barcode_sample_freertos_gcc/src/zxing_lib/zxing/common/DetectorResult.h ****  *
  16:/home/zkmike/workspace/RZA2M/rza2m_2d_barcode_sample_freertos_gcc/src/zxing_lib/zxing/common/DetectorResult.h ****  * Unless required by applicable law or agreed to in writing, software
  17:/home/zkmike/workspace/RZA2M/rza2m_2d_barcode_sample_freertos_gcc/src/zxing_lib/zxing/common/DetectorResult.h ****  * distributed under the License is distributed on an "AS IS" BASIS,
  18:/home/zkmike/workspace/RZA2M/rza2m_2d_barcode_sample_freertos_gcc/src/zxing_lib/zxing/common/DetectorResult.h ****  * WITHOUT WARRANTIES OR CONDITIONS OF ANY KIND, either express or implied.
  19:/home/zkmike/workspace/RZA2M/rza2m_2d_barcode_sample_freertos_gcc/src/zxing_lib/zxing/common/DetectorResult.h ****  * See the License for the specific language governing permissions and
  20:/home/zkmike/workspace/RZA2M/rza2m_2d_barcode_sample_freertos_gcc/src/zxing_lib/zxing/common/DetectorResult.h ****  * limitations under the License.
  21:/home/zkmike/workspace/RZA2M/rza2m_2d_barcode_sample_freertos_gcc/src/zxing_lib/zxing/common/DetectorResult.h ****  */
  22:/home/zkmike/workspace/RZA2M/rza2m_2d_barcode_sample_freertos_gcc/src/zxing_lib/zxing/common/DetectorResult.h **** 
  23:/home/zkmike/workspace/RZA2M/rza2m_2d_barcode_sample_freertos_gcc/src/zxing_lib/zxing/common/DetectorResult.h **** #include <zxing/common/Counted.h>
  24:/home/zkmike/workspace/RZA2M/rza2m_2d_barcode_sample_freertos_gcc/src/zxing_lib/zxing/common/DetectorResult.h **** #include <zxing/common/Array.h>
  25:/home/zkmike/workspace/RZA2M/rza2m_2d_barcode_sample_freertos_gcc/src/zxing_lib/zxing/common/DetectorResult.h **** #include <zxing/common/BitMatrix.h>
  26:/home/zkmike/workspace/RZA2M/rza2m_2d_barcode_sample_freertos_gcc/src/zxing_lib/zxing/common/DetectorResult.h **** #include <zxing/ResultPoint.h>
  27:/home/zkmike/workspace/RZA2M/rza2m_2d_barcode_sample_freertos_gcc/src/zxing_lib/zxing/common/DetectorResult.h **** 
  28:/home/zkmike/workspace/RZA2M/rza2m_2d_barcode_sample_freertos_gcc/src/zxing_lib/zxing/common/DetectorResult.h **** namespace zxing {
  29:/home/zkmike/workspace/RZA2M/rza2m_2d_barcode_sample_freertos_gcc/src/zxing_lib/zxing/common/DetectorResult.h **** 
  30:/home/zkmike/workspace/RZA2M/rza2m_2d_barcode_sample_freertos_gcc/src/zxing_lib/zxing/common/DetectorResult.h **** class DetectorResult : public Counted {
 105              		.loc 3 30 0
 106              		.cfi_startproc
 107              		@ args = 0, pretend = 0, frame = 0
 108              		@ frame_needed = 0, uses_anonymous_args = 0
 109              	.LVL6:
 110 0000 10402DE9 		push	{r4, lr}
 111              		.cfi_def_cfa_offset 8
 112              		.cfi_offset 4, -8
 113              		.cfi_offset 14, -4
 114 0004 0040A0E1 		mov	r4, r0
 115              	.LBB86:
 116              		.loc 3 30 0
 117 0008 88309FE5 		ldr	r3, .L13
 118 000c 003080E5 		str	r3, [r0]
 119              	.LVL7:
 120              	.LBB87:
 121              	.LBB88:
 122              		.loc 1 121 0
 123 0010 84309FE5 		ldr	r3, .L13+4
 124 0014 0C3080E5 		str	r3, [r0, #12]
 117:/home/zkmike/workspace/RZA2M/rza2m_2d_barcode_sample_freertos_gcc/src/zxing_lib/zxing/common/Array.h ****       array_->release();
 125              		.loc 1 117 0
 126 0018 140090E5 		ldr	r0, [r0, #20]
 127              	.LVL8:
 128 001c 000050E3 		cmp	r0, #0
 129 0020 0400000A 		beq	.L8
 130              	.LVL9:
 131              	.LBB89:
 132              	.LBB90:
  40:/home/zkmike/workspace/RZA2M/rza2m_2d_barcode_sample_freertos_gcc/src/zxing_lib/zxing/common/Counted.h ****     if (count_ == 0) {
 133              		.loc 2 40 0
 134 0024 043090E5 		ldr	r3, [r0, #4]
 135 0028 013043E2 		sub	r3, r3, #1
 136 002c 043080E5 		str	r3, [r0, #4]
  41:/home/zkmike/workspace/RZA2M/rza2m_2d_barcode_sample_freertos_gcc/src/zxing_lib/zxing/common/Counted.h ****       count_ = 0xDEADF001;
 137              		.loc 2 41 0
 138 0030 000053E3 		cmp	r3, #0
 139 0034 0900000A 		beq	.L11
 140              	.LVL10:
 141              	.L8:
 142              	.LBE90:
 143              	.LBE89:
 144              	.LBE88:
 145              	.LBE87:
 146              	.LBB94:
 147              	.LBB95:
  44:/home/zkmike/workspace/RZA2M/rza2m_2d_barcode_sample_freertos_gcc/src/zxing_lib/zxing/common/Counted.h ****     }
  45:/home/zkmike/workspace/RZA2M/rza2m_2d_barcode_sample_freertos_gcc/src/zxing_lib/zxing/common/Counted.h ****   }
  46:/home/zkmike/workspace/RZA2M/rza2m_2d_barcode_sample_freertos_gcc/src/zxing_lib/zxing/common/Counted.h **** 
  47:/home/zkmike/workspace/RZA2M/rza2m_2d_barcode_sample_freertos_gcc/src/zxing_lib/zxing/common/Counted.h **** 
  48:/home/zkmike/workspace/RZA2M/rza2m_2d_barcode_sample_freertos_gcc/src/zxing_lib/zxing/common/Counted.h ****   /* return the current count for denugging purposes or similar */
  49:/home/zkmike/workspace/RZA2M/rza2m_2d_barcode_sample_freertos_gcc/src/zxing_lib/zxing/common/Counted.h ****   int count() const {
  50:/home/zkmike/workspace/RZA2M/rza2m_2d_barcode_sample_freertos_gcc/src/zxing_lib/zxing/common/Counted.h ****     return count_;
  51:/home/zkmike/workspace/RZA2M/rza2m_2d_barcode_sample_freertos_gcc/src/zxing_lib/zxing/common/Counted.h ****   }
  52:/home/zkmike/workspace/RZA2M/rza2m_2d_barcode_sample_freertos_gcc/src/zxing_lib/zxing/common/Counted.h **** };
  53:/home/zkmike/workspace/RZA2M/rza2m_2d_barcode_sample_freertos_gcc/src/zxing_lib/zxing/common/Counted.h **** 
  54:/home/zkmike/workspace/RZA2M/rza2m_2d_barcode_sample_freertos_gcc/src/zxing_lib/zxing/common/Counted.h **** /* counting reference to reference-counted objects */
  55:/home/zkmike/workspace/RZA2M/rza2m_2d_barcode_sample_freertos_gcc/src/zxing_lib/zxing/common/Counted.h **** template<typename T> class Ref {
  56:/home/zkmike/workspace/RZA2M/rza2m_2d_barcode_sample_freertos_gcc/src/zxing_lib/zxing/common/Counted.h **** private:
  57:/home/zkmike/workspace/RZA2M/rza2m_2d_barcode_sample_freertos_gcc/src/zxing_lib/zxing/common/Counted.h **** public:
  58:/home/zkmike/workspace/RZA2M/rza2m_2d_barcode_sample_freertos_gcc/src/zxing_lib/zxing/common/Counted.h ****   T *object_;
  59:/home/zkmike/workspace/RZA2M/rza2m_2d_barcode_sample_freertos_gcc/src/zxing_lib/zxing/common/Counted.h ****   explicit Ref(T *o = 0) :
  60:/home/zkmike/workspace/RZA2M/rza2m_2d_barcode_sample_freertos_gcc/src/zxing_lib/zxing/common/Counted.h ****       object_(0) {
  61:/home/zkmike/workspace/RZA2M/rza2m_2d_barcode_sample_freertos_gcc/src/zxing_lib/zxing/common/Counted.h ****     reset(o);
  62:/home/zkmike/workspace/RZA2M/rza2m_2d_barcode_sample_freertos_gcc/src/zxing_lib/zxing/common/Counted.h ****   }
  63:/home/zkmike/workspace/RZA2M/rza2m_2d_barcode_sample_freertos_gcc/src/zxing_lib/zxing/common/Counted.h ****   Ref(const Ref &other) :
  64:/home/zkmike/workspace/RZA2M/rza2m_2d_barcode_sample_freertos_gcc/src/zxing_lib/zxing/common/Counted.h ****       object_(0) {
  65:/home/zkmike/workspace/RZA2M/rza2m_2d_barcode_sample_freertos_gcc/src/zxing_lib/zxing/common/Counted.h ****     reset(other.object_);
  66:/home/zkmike/workspace/RZA2M/rza2m_2d_barcode_sample_freertos_gcc/src/zxing_lib/zxing/common/Counted.h ****   }
  67:/home/zkmike/workspace/RZA2M/rza2m_2d_barcode_sample_freertos_gcc/src/zxing_lib/zxing/common/Counted.h **** 
  68:/home/zkmike/workspace/RZA2M/rza2m_2d_barcode_sample_freertos_gcc/src/zxing_lib/zxing/common/Counted.h ****   template<class Y>
  69:/home/zkmike/workspace/RZA2M/rza2m_2d_barcode_sample_freertos_gcc/src/zxing_lib/zxing/common/Counted.h ****   Ref(const Ref<Y> &other) :
  70:/home/zkmike/workspace/RZA2M/rza2m_2d_barcode_sample_freertos_gcc/src/zxing_lib/zxing/common/Counted.h ****       object_(0) {
  71:/home/zkmike/workspace/RZA2M/rza2m_2d_barcode_sample_freertos_gcc/src/zxing_lib/zxing/common/Counted.h ****     reset(other.object_);
  72:/home/zkmike/workspace/RZA2M/rza2m_2d_barcode_sample_freertos_gcc/src/zxing_lib/zxing/common/Counted.h ****   }
  73:/home/zkmike/workspace/RZA2M/rza2m_2d_barcode_sample_freertos_gcc/src/zxing_lib/zxing/common/Counted.h **** 
  74:/home/zkmike/workspace/RZA2M/rza2m_2d_barcode_sample_freertos_gcc/src/zxing_lib/zxing/common/Counted.h ****   ~Ref() {
  75:/home/zkmike/workspace/RZA2M/rza2m_2d_barcode_sample_freertos_gcc/src/zxing_lib/zxing/common/Counted.h ****     if (object_) {
 148              		.loc 2 75 0
 149 0038 080094E5 		ldr	r0, [r4, #8]
 150 003c 000050E3 		cmp	r0, #0
 151 0040 0400000A 		beq	.L9
 152              	.LVL11:
 153              	.LBB96:
 154              	.LBB97:
  40:/home/zkmike/workspace/RZA2M/rza2m_2d_barcode_sample_freertos_gcc/src/zxing_lib/zxing/common/Counted.h ****     if (count_ == 0) {
 155              		.loc 2 40 0
 156 0044 043090E5 		ldr	r3, [r0, #4]
 157 0048 013043E2 		sub	r3, r3, #1
 158 004c 043080E5 		str	r3, [r0, #4]
  41:/home/zkmike/workspace/RZA2M/rza2m_2d_barcode_sample_freertos_gcc/src/zxing_lib/zxing/common/Counted.h ****       count_ = 0xDEADF001;
 159              		.loc 2 41 0
 160 0050 000053E3 		cmp	r3, #0
 161 0054 0800000A 		beq	.L12
 162              	.LVL12:
 163              	.L9:
 164              	.LBE97:
 165              	.LBE96:
 166              	.LBE95:
 167              	.LBE94:
 168              	.LBE86:
 169              		.loc 3 30 0
 170 0058 0400A0E1 		mov	r0, r4
 171 005c 1080BDE8 		pop	{r4, pc}
 172              	.LVL13:
 173              	.L11:
 174              	.LBB103:
 175              	.LBB101:
 176              	.LBB93:
 177              	.LBB92:
 178              	.LBB91:
  42:/home/zkmike/workspace/RZA2M/rza2m_2d_barcode_sample_freertos_gcc/src/zxing_lib/zxing/common/Counted.h ****       delete this;
 179              		.loc 2 42 0
 180 0060 01300FE3 		movw	r3, #61441
 181 0064 AD3E4DE3 		movt	r3, 57005
 182 0068 043080E5 		str	r3, [r0, #4]
  43:/home/zkmike/workspace/RZA2M/rza2m_2d_barcode_sample_freertos_gcc/src/zxing_lib/zxing/common/Counted.h ****     }
 183              		.loc 2 43 0
 184 006c 003090E5 		ldr	r3, [r0]
 185 0070 043093E5 		ldr	r3, [r3, #4]
 186 0074 33FF2FE1 		blx	r3
 187              	.LVL14:
 188 0078 EEFFFFEA 		b	.L8
 189              	.LVL15:
 190              	.L12:
 191              	.LBE91:
 192              	.LBE92:
 193              	.LBE93:
 194              	.LBE101:
 195              	.LBB102:
 196              	.LBB100:
 197              	.LBB99:
 198              	.LBB98:
  42:/home/zkmike/workspace/RZA2M/rza2m_2d_barcode_sample_freertos_gcc/src/zxing_lib/zxing/common/Counted.h ****       delete this;
 199              		.loc 2 42 0
 200 007c 01300FE3 		movw	r3, #61441
 201 0080 AD3E4DE3 		movt	r3, 57005
 202 0084 043080E5 		str	r3, [r0, #4]
  43:/home/zkmike/workspace/RZA2M/rza2m_2d_barcode_sample_freertos_gcc/src/zxing_lib/zxing/common/Counted.h ****     }
 203              		.loc 2 43 0
 204 0088 003090E5 		ldr	r3, [r0]
 205 008c 043093E5 		ldr	r3, [r3, #4]
 206 0090 33FF2FE1 		blx	r3
 207              	.LVL16:
 208 0094 EFFFFFEA 		b	.L9
 209              	.L14:
 210              		.align	2
 211              	.L13:
 212 0098 08000000 		.word	_ZTVN5zxing14DetectorResultE+8
 213 009c 08000000 		.word	_ZTVN5zxing8ArrayRefINS_3RefINS_11ResultPointEEEEE+8
 214              	.LBE98:
 215              	.LBE99:
 216              	.LBE100:
 217              	.LBE102:
 218              	.LBE103:
 219              		.cfi_endproc
 220              	.LFE2702:
 221              		.cantunwind
 222              		.fnend
 224              		.weak	_ZN5zxing14DetectorResultD1Ev
 225              		.set	_ZN5zxing14DetectorResultD1Ev,_ZN5zxing14DetectorResultD2Ev
 226              		.section	.text._ZN5zxing8ArrayRefINS_3RefINS_11ResultPointEEEED0Ev,"axG",%progbits,_ZN5zxing8Array
 227              		.align	2
 228              		.weak	_ZN5zxing8ArrayRefINS_3RefINS_11ResultPointEEEED0Ev
 229              		.syntax unified
 230              		.arm
 231              		.fpu neon
 233              	_ZN5zxing8ArrayRefINS_3RefINS_11ResultPointEEEED0Ev:
 234              		.fnstart
 235              	.LFB2467:
 116:/home/zkmike/workspace/RZA2M/rza2m_2d_barcode_sample_freertos_gcc/src/zxing_lib/zxing/common/Array.h ****     if (array_) {
 236              		.loc 1 116 0
 237              		.cfi_startproc
 238              		@ args = 0, pretend = 0, frame = 0
 239              		@ frame_needed = 0, uses_anonymous_args = 0
 240              	.LVL17:
 241 0000 10402DE9 		push	{r4, lr}
 242              		.cfi_def_cfa_offset 8
 243              		.cfi_offset 4, -8
 244              		.cfi_offset 14, -4
 245 0004 0040A0E1 		mov	r4, r0
 246              	.LVL18:
 247              	.LBB104:
 248              	.LBB105:
 249              		.loc 1 121 0
 250 0008 50309FE5 		ldr	r3, .L19
 251 000c 003080E5 		str	r3, [r0]
 117:/home/zkmike/workspace/RZA2M/rza2m_2d_barcode_sample_freertos_gcc/src/zxing_lib/zxing/common/Array.h ****       array_->release();
 252              		.loc 1 117 0
 253 0010 080090E5 		ldr	r0, [r0, #8]
 254              	.LVL19:
 255 0014 000050E3 		cmp	r0, #0
 256 0018 0400000A 		beq	.L16
 257              	.LVL20:
 258              	.LBB106:
 259              	.LBB107:
  40:/home/zkmike/workspace/RZA2M/rza2m_2d_barcode_sample_freertos_gcc/src/zxing_lib/zxing/common/Counted.h ****     if (count_ == 0) {
 260              		.loc 2 40 0
 261 001c 043090E5 		ldr	r3, [r0, #4]
 262 0020 013043E2 		sub	r3, r3, #1
 263 0024 043080E5 		str	r3, [r0, #4]
  41:/home/zkmike/workspace/RZA2M/rza2m_2d_barcode_sample_freertos_gcc/src/zxing_lib/zxing/common/Counted.h ****       count_ = 0xDEADF001;
 264              		.loc 2 41 0
 265 0028 000053E3 		cmp	r3, #0
 266 002c 0400000A 		beq	.L18
 267              	.LVL21:
 268              	.L16:
 269              	.LBE107:
 270              	.LBE106:
 271              	.LBE105:
 272              	.LBE104:
 273              		.loc 1 121 0
 274 0030 0C10A0E3 		mov	r1, #12
 275 0034 0400A0E1 		mov	r0, r4
 276 0038 FEFFFFEB 		bl	_ZdlPvj
 277              	.LVL22:
 278 003c 0400A0E1 		mov	r0, r4
 279 0040 1080BDE8 		pop	{r4, pc}
 280              	.LVL23:
 281              	.L18:
 282              	.LBB111:
 283              	.LBB110:
 284              	.LBB109:
 285              	.LBB108:
  42:/home/zkmike/workspace/RZA2M/rza2m_2d_barcode_sample_freertos_gcc/src/zxing_lib/zxing/common/Counted.h ****       delete this;
 286              		.loc 2 42 0
 287 0044 01300FE3 		movw	r3, #61441
 288 0048 AD3E4DE3 		movt	r3, 57005
 289 004c 043080E5 		str	r3, [r0, #4]
  43:/home/zkmike/workspace/RZA2M/rza2m_2d_barcode_sample_freertos_gcc/src/zxing_lib/zxing/common/Counted.h ****     }
 290              		.loc 2 43 0
 291 0050 003090E5 		ldr	r3, [r0]
 292 0054 043093E5 		ldr	r3, [r3, #4]
 293 0058 33FF2FE1 		blx	r3
 294              	.LVL24:
 295 005c F3FFFFEA 		b	.L16
 296              	.L20:
 297              		.align	2
 298              	.L19:
 299 0060 08000000 		.word	_ZTVN5zxing8ArrayRefINS_3RefINS_11ResultPointEEEEE+8
 300              	.LBE108:
 301              	.LBE109:
 302              	.LBE110:
 303              	.LBE111:
 304              		.cfi_endproc
 305              	.LFE2467:
 306              		.cantunwind
 307              		.fnend
 309              		.section	.text._Z41__static_initialization_and_destruction_0ii,"ax",%progbits
 310              		.align	2
 311              		.syntax unified
 312              		.arm
 313              		.fpu neon
 315              	_Z41__static_initialization_and_destruction_0ii:
 316              		.fnstart
 317              	.LFB2705:
 318              		.file 4 "../src/zxing_lib/zxing/common/DetectorResult.cpp"
   1:../src/zxing_lib/zxing/common/DetectorResult.cpp **** // -*- mode:c++; tab-width:2; indent-tabs-mode:nil; c-basic-offset:2 -*-
   2:../src/zxing_lib/zxing/common/DetectorResult.cpp **** /*
   3:../src/zxing_lib/zxing/common/DetectorResult.cpp ****  *  DetectorResult.cpp
   4:../src/zxing_lib/zxing/common/DetectorResult.cpp ****  *  zxing
   5:../src/zxing_lib/zxing/common/DetectorResult.cpp ****  *
   6:../src/zxing_lib/zxing/common/DetectorResult.cpp ****  *  Created by Christian Brunschen on 14/05/2008.
   7:../src/zxing_lib/zxing/common/DetectorResult.cpp ****  *  Copyright 2008 ZXing authors All rights reserved.
   8:../src/zxing_lib/zxing/common/DetectorResult.cpp ****  *
   9:../src/zxing_lib/zxing/common/DetectorResult.cpp ****  * Licensed under the Apache License, Version 2.0 (the "License");
  10:../src/zxing_lib/zxing/common/DetectorResult.cpp ****  * you may not use this file except in compliance with the License.
  11:../src/zxing_lib/zxing/common/DetectorResult.cpp ****  * You may obtain a copy of the License at
  12:../src/zxing_lib/zxing/common/DetectorResult.cpp ****  *
  13:../src/zxing_lib/zxing/common/DetectorResult.cpp ****  *      http://www.apache.org/licenses/LICENSE-2.0
  14:../src/zxing_lib/zxing/common/DetectorResult.cpp ****  *
  15:../src/zxing_lib/zxing/common/DetectorResult.cpp ****  * Unless required by applicable law or agreed to in writing, software
  16:../src/zxing_lib/zxing/common/DetectorResult.cpp ****  * distributed under the License is distributed on an "AS IS" BASIS,
  17:../src/zxing_lib/zxing/common/DetectorResult.cpp ****  * WITHOUT WARRANTIES OR CONDITIONS OF ANY KIND, either express or implied.
  18:../src/zxing_lib/zxing/common/DetectorResult.cpp ****  * See the License for the specific language governing permissions and
  19:../src/zxing_lib/zxing/common/DetectorResult.cpp ****  * limitations under the License.
  20:../src/zxing_lib/zxing/common/DetectorResult.cpp ****  */
  21:../src/zxing_lib/zxing/common/DetectorResult.cpp **** 
  22:../src/zxing_lib/zxing/common/DetectorResult.cpp **** #include <zxing/common/DetectorResult.h>
  23:../src/zxing_lib/zxing/common/DetectorResult.cpp **** 
  24:../src/zxing_lib/zxing/common/DetectorResult.cpp **** namespace zxing {
  25:../src/zxing_lib/zxing/common/DetectorResult.cpp **** 
  26:../src/zxing_lib/zxing/common/DetectorResult.cpp **** DetectorResult::DetectorResult(Ref<BitMatrix> bits,
  27:../src/zxing_lib/zxing/common/DetectorResult.cpp ****                                ArrayRef< Ref<ResultPoint> > points)
  28:../src/zxing_lib/zxing/common/DetectorResult.cpp ****   : bits_(bits), points_(points) {
  29:../src/zxing_lib/zxing/common/DetectorResult.cpp **** }
  30:../src/zxing_lib/zxing/common/DetectorResult.cpp **** 
  31:../src/zxing_lib/zxing/common/DetectorResult.cpp **** Ref<BitMatrix> DetectorResult::getBits() {
  32:../src/zxing_lib/zxing/common/DetectorResult.cpp ****   return bits_;
  33:../src/zxing_lib/zxing/common/DetectorResult.cpp **** }
  34:../src/zxing_lib/zxing/common/DetectorResult.cpp **** 
  35:../src/zxing_lib/zxing/common/DetectorResult.cpp **** ArrayRef< Ref<ResultPoint> > DetectorResult::getPoints() {
  36:../src/zxing_lib/zxing/common/DetectorResult.cpp ****   return points_;
  37:../src/zxing_lib/zxing/common/DetectorResult.cpp **** }
  38:../src/zxing_lib/zxing/common/DetectorResult.cpp **** 
  39:../src/zxing_lib/zxing/common/DetectorResult.cpp **** }
 319              		.loc 4 39 0
 320              		.cfi_startproc
 321              		@ args = 0, pretend = 0, frame = 0
 322              		@ frame_needed = 0, uses_anonymous_args = 0
 323              	.LVL25:
 324 0000 010050E3 		cmp	r0, #1
 325 0004 1EFF2F11 		bxne	lr
 326              		.loc 4 39 0 is_stmt 0 discriminator 1
 327 0008 FF3F0FE3 		movw	r3, #65535
 328 000c 030051E1 		cmp	r1, r3
 329 0010 1EFF2F11 		bxne	lr
 330              		.loc 4 39 0
 331 0014 10402DE9 		push	{r4, lr}
 332              		.cfi_def_cfa_offset 8
 333              		.cfi_offset 4, -8
 334              		.cfi_offset 14, -4
 335              		.file 5 "/home/zkmike/.local/share/renesas/e2_studio/toolchains/gcc_arm/gcc-arm-none-eabi-6-2017-q
   1:/home/zkmike/.local/share/renesas/e2_studio/toolchains/gcc_arm/gcc-arm-none-eabi-6-2017-q2-update/arm-none-eabi/include/c++/6.3.1/iostream **** // Standard iostream objects -*- C++ -*-
   2:/home/zkmike/.local/share/renesas/e2_studio/toolchains/gcc_arm/gcc-arm-none-eabi-6-2017-q2-update/arm-none-eabi/include/c++/6.3.1/iostream **** 
   3:/home/zkmike/.local/share/renesas/e2_studio/toolchains/gcc_arm/gcc-arm-none-eabi-6-2017-q2-update/arm-none-eabi/include/c++/6.3.1/iostream **** // Copyright (C) 1997-2016 Free Software Foundation, Inc.
   4:/home/zkmike/.local/share/renesas/e2_studio/toolchains/gcc_arm/gcc-arm-none-eabi-6-2017-q2-update/arm-none-eabi/include/c++/6.3.1/iostream **** //
   5:/home/zkmike/.local/share/renesas/e2_studio/toolchains/gcc_arm/gcc-arm-none-eabi-6-2017-q2-update/arm-none-eabi/include/c++/6.3.1/iostream **** // This file is part of the GNU ISO C++ Library.  This library is free
   6:/home/zkmike/.local/share/renesas/e2_studio/toolchains/gcc_arm/gcc-arm-none-eabi-6-2017-q2-update/arm-none-eabi/include/c++/6.3.1/iostream **** // software; you can redistribute it and/or modify it under the
   7:/home/zkmike/.local/share/renesas/e2_studio/toolchains/gcc_arm/gcc-arm-none-eabi-6-2017-q2-update/arm-none-eabi/include/c++/6.3.1/iostream **** // terms of the GNU General Public License as published by the
   8:/home/zkmike/.local/share/renesas/e2_studio/toolchains/gcc_arm/gcc-arm-none-eabi-6-2017-q2-update/arm-none-eabi/include/c++/6.3.1/iostream **** // Free Software Foundation; either version 3, or (at your option)
   9:/home/zkmike/.local/share/renesas/e2_studio/toolchains/gcc_arm/gcc-arm-none-eabi-6-2017-q2-update/arm-none-eabi/include/c++/6.3.1/iostream **** // any later version.
  10:/home/zkmike/.local/share/renesas/e2_studio/toolchains/gcc_arm/gcc-arm-none-eabi-6-2017-q2-update/arm-none-eabi/include/c++/6.3.1/iostream **** 
  11:/home/zkmike/.local/share/renesas/e2_studio/toolchains/gcc_arm/gcc-arm-none-eabi-6-2017-q2-update/arm-none-eabi/include/c++/6.3.1/iostream **** // This library is distributed in the hope that it will be useful,
  12:/home/zkmike/.local/share/renesas/e2_studio/toolchains/gcc_arm/gcc-arm-none-eabi-6-2017-q2-update/arm-none-eabi/include/c++/6.3.1/iostream **** // but WITHOUT ANY WARRANTY; without even the implied warranty of
  13:/home/zkmike/.local/share/renesas/e2_studio/toolchains/gcc_arm/gcc-arm-none-eabi-6-2017-q2-update/arm-none-eabi/include/c++/6.3.1/iostream **** // MERCHANTABILITY or FITNESS FOR A PARTICULAR PURPOSE.  See the
  14:/home/zkmike/.local/share/renesas/e2_studio/toolchains/gcc_arm/gcc-arm-none-eabi-6-2017-q2-update/arm-none-eabi/include/c++/6.3.1/iostream **** // GNU General Public License for more details.
  15:/home/zkmike/.local/share/renesas/e2_studio/toolchains/gcc_arm/gcc-arm-none-eabi-6-2017-q2-update/arm-none-eabi/include/c++/6.3.1/iostream **** 
  16:/home/zkmike/.local/share/renesas/e2_studio/toolchains/gcc_arm/gcc-arm-none-eabi-6-2017-q2-update/arm-none-eabi/include/c++/6.3.1/iostream **** // Under Section 7 of GPL version 3, you are granted additional
  17:/home/zkmike/.local/share/renesas/e2_studio/toolchains/gcc_arm/gcc-arm-none-eabi-6-2017-q2-update/arm-none-eabi/include/c++/6.3.1/iostream **** // permissions described in the GCC Runtime Library Exception, version
  18:/home/zkmike/.local/share/renesas/e2_studio/toolchains/gcc_arm/gcc-arm-none-eabi-6-2017-q2-update/arm-none-eabi/include/c++/6.3.1/iostream **** // 3.1, as published by the Free Software Foundation.
  19:/home/zkmike/.local/share/renesas/e2_studio/toolchains/gcc_arm/gcc-arm-none-eabi-6-2017-q2-update/arm-none-eabi/include/c++/6.3.1/iostream **** 
  20:/home/zkmike/.local/share/renesas/e2_studio/toolchains/gcc_arm/gcc-arm-none-eabi-6-2017-q2-update/arm-none-eabi/include/c++/6.3.1/iostream **** // You should have received a copy of the GNU General Public License and
  21:/home/zkmike/.local/share/renesas/e2_studio/toolchains/gcc_arm/gcc-arm-none-eabi-6-2017-q2-update/arm-none-eabi/include/c++/6.3.1/iostream **** // a copy of the GCC Runtime Library Exception along with this program;
  22:/home/zkmike/.local/share/renesas/e2_studio/toolchains/gcc_arm/gcc-arm-none-eabi-6-2017-q2-update/arm-none-eabi/include/c++/6.3.1/iostream **** // see the files COPYING3 and COPYING.RUNTIME respectively.  If not, see
  23:/home/zkmike/.local/share/renesas/e2_studio/toolchains/gcc_arm/gcc-arm-none-eabi-6-2017-q2-update/arm-none-eabi/include/c++/6.3.1/iostream **** // <http://www.gnu.org/licenses/>.
  24:/home/zkmike/.local/share/renesas/e2_studio/toolchains/gcc_arm/gcc-arm-none-eabi-6-2017-q2-update/arm-none-eabi/include/c++/6.3.1/iostream **** 
  25:/home/zkmike/.local/share/renesas/e2_studio/toolchains/gcc_arm/gcc-arm-none-eabi-6-2017-q2-update/arm-none-eabi/include/c++/6.3.1/iostream **** /** @file include/iostream
  26:/home/zkmike/.local/share/renesas/e2_studio/toolchains/gcc_arm/gcc-arm-none-eabi-6-2017-q2-update/arm-none-eabi/include/c++/6.3.1/iostream ****  *  This is a Standard C++ Library header.
  27:/home/zkmike/.local/share/renesas/e2_studio/toolchains/gcc_arm/gcc-arm-none-eabi-6-2017-q2-update/arm-none-eabi/include/c++/6.3.1/iostream ****  */
  28:/home/zkmike/.local/share/renesas/e2_studio/toolchains/gcc_arm/gcc-arm-none-eabi-6-2017-q2-update/arm-none-eabi/include/c++/6.3.1/iostream **** 
  29:/home/zkmike/.local/share/renesas/e2_studio/toolchains/gcc_arm/gcc-arm-none-eabi-6-2017-q2-update/arm-none-eabi/include/c++/6.3.1/iostream **** //
  30:/home/zkmike/.local/share/renesas/e2_studio/toolchains/gcc_arm/gcc-arm-none-eabi-6-2017-q2-update/arm-none-eabi/include/c++/6.3.1/iostream **** // ISO C++ 14882: 27.3  Standard iostream objects
  31:/home/zkmike/.local/share/renesas/e2_studio/toolchains/gcc_arm/gcc-arm-none-eabi-6-2017-q2-update/arm-none-eabi/include/c++/6.3.1/iostream **** //
  32:/home/zkmike/.local/share/renesas/e2_studio/toolchains/gcc_arm/gcc-arm-none-eabi-6-2017-q2-update/arm-none-eabi/include/c++/6.3.1/iostream **** 
  33:/home/zkmike/.local/share/renesas/e2_studio/toolchains/gcc_arm/gcc-arm-none-eabi-6-2017-q2-update/arm-none-eabi/include/c++/6.3.1/iostream **** #ifndef _GLIBCXX_IOSTREAM
  34:/home/zkmike/.local/share/renesas/e2_studio/toolchains/gcc_arm/gcc-arm-none-eabi-6-2017-q2-update/arm-none-eabi/include/c++/6.3.1/iostream **** #define _GLIBCXX_IOSTREAM 1
  35:/home/zkmike/.local/share/renesas/e2_studio/toolchains/gcc_arm/gcc-arm-none-eabi-6-2017-q2-update/arm-none-eabi/include/c++/6.3.1/iostream **** 
  36:/home/zkmike/.local/share/renesas/e2_studio/toolchains/gcc_arm/gcc-arm-none-eabi-6-2017-q2-update/arm-none-eabi/include/c++/6.3.1/iostream **** #pragma GCC system_header
  37:/home/zkmike/.local/share/renesas/e2_studio/toolchains/gcc_arm/gcc-arm-none-eabi-6-2017-q2-update/arm-none-eabi/include/c++/6.3.1/iostream **** 
  38:/home/zkmike/.local/share/renesas/e2_studio/toolchains/gcc_arm/gcc-arm-none-eabi-6-2017-q2-update/arm-none-eabi/include/c++/6.3.1/iostream **** #include <bits/c++config.h>
  39:/home/zkmike/.local/share/renesas/e2_studio/toolchains/gcc_arm/gcc-arm-none-eabi-6-2017-q2-update/arm-none-eabi/include/c++/6.3.1/iostream **** #include <ostream>
  40:/home/zkmike/.local/share/renesas/e2_studio/toolchains/gcc_arm/gcc-arm-none-eabi-6-2017-q2-update/arm-none-eabi/include/c++/6.3.1/iostream **** #include <istream>
  41:/home/zkmike/.local/share/renesas/e2_studio/toolchains/gcc_arm/gcc-arm-none-eabi-6-2017-q2-update/arm-none-eabi/include/c++/6.3.1/iostream **** 
  42:/home/zkmike/.local/share/renesas/e2_studio/toolchains/gcc_arm/gcc-arm-none-eabi-6-2017-q2-update/arm-none-eabi/include/c++/6.3.1/iostream **** namespace std _GLIBCXX_VISIBILITY(default)
  43:/home/zkmike/.local/share/renesas/e2_studio/toolchains/gcc_arm/gcc-arm-none-eabi-6-2017-q2-update/arm-none-eabi/include/c++/6.3.1/iostream **** {
  44:/home/zkmike/.local/share/renesas/e2_studio/toolchains/gcc_arm/gcc-arm-none-eabi-6-2017-q2-update/arm-none-eabi/include/c++/6.3.1/iostream **** _GLIBCXX_BEGIN_NAMESPACE_VERSION
  45:/home/zkmike/.local/share/renesas/e2_studio/toolchains/gcc_arm/gcc-arm-none-eabi-6-2017-q2-update/arm-none-eabi/include/c++/6.3.1/iostream **** 
  46:/home/zkmike/.local/share/renesas/e2_studio/toolchains/gcc_arm/gcc-arm-none-eabi-6-2017-q2-update/arm-none-eabi/include/c++/6.3.1/iostream ****   /**
  47:/home/zkmike/.local/share/renesas/e2_studio/toolchains/gcc_arm/gcc-arm-none-eabi-6-2017-q2-update/arm-none-eabi/include/c++/6.3.1/iostream ****    *  @name Standard Stream Objects
  48:/home/zkmike/.local/share/renesas/e2_studio/toolchains/gcc_arm/gcc-arm-none-eabi-6-2017-q2-update/arm-none-eabi/include/c++/6.3.1/iostream ****    *
  49:/home/zkmike/.local/share/renesas/e2_studio/toolchains/gcc_arm/gcc-arm-none-eabi-6-2017-q2-update/arm-none-eabi/include/c++/6.3.1/iostream ****    *  The &lt;iostream&gt; header declares the eight <em>standard stream
  50:/home/zkmike/.local/share/renesas/e2_studio/toolchains/gcc_arm/gcc-arm-none-eabi-6-2017-q2-update/arm-none-eabi/include/c++/6.3.1/iostream ****    *  objects</em>.  For other declarations, see
  51:/home/zkmike/.local/share/renesas/e2_studio/toolchains/gcc_arm/gcc-arm-none-eabi-6-2017-q2-update/arm-none-eabi/include/c++/6.3.1/iostream ****    *  http://gcc.gnu.org/onlinedocs/libstdc++/manual/io.html
  52:/home/zkmike/.local/share/renesas/e2_studio/toolchains/gcc_arm/gcc-arm-none-eabi-6-2017-q2-update/arm-none-eabi/include/c++/6.3.1/iostream ****    *  and the @link iosfwd I/O forward declarations @endlink
  53:/home/zkmike/.local/share/renesas/e2_studio/toolchains/gcc_arm/gcc-arm-none-eabi-6-2017-q2-update/arm-none-eabi/include/c++/6.3.1/iostream ****    *
  54:/home/zkmike/.local/share/renesas/e2_studio/toolchains/gcc_arm/gcc-arm-none-eabi-6-2017-q2-update/arm-none-eabi/include/c++/6.3.1/iostream ****    *  They are required by default to cooperate with the global C
  55:/home/zkmike/.local/share/renesas/e2_studio/toolchains/gcc_arm/gcc-arm-none-eabi-6-2017-q2-update/arm-none-eabi/include/c++/6.3.1/iostream ****    *  library's @c FILE streams, and to be available during program
  56:/home/zkmike/.local/share/renesas/e2_studio/toolchains/gcc_arm/gcc-arm-none-eabi-6-2017-q2-update/arm-none-eabi/include/c++/6.3.1/iostream ****    *  startup and termination. For more information, see the section of the
  57:/home/zkmike/.local/share/renesas/e2_studio/toolchains/gcc_arm/gcc-arm-none-eabi-6-2017-q2-update/arm-none-eabi/include/c++/6.3.1/iostream ****    *  manual linked to above.
  58:/home/zkmike/.local/share/renesas/e2_studio/toolchains/gcc_arm/gcc-arm-none-eabi-6-2017-q2-update/arm-none-eabi/include/c++/6.3.1/iostream ****   */
  59:/home/zkmike/.local/share/renesas/e2_studio/toolchains/gcc_arm/gcc-arm-none-eabi-6-2017-q2-update/arm-none-eabi/include/c++/6.3.1/iostream ****   //@{
  60:/home/zkmike/.local/share/renesas/e2_studio/toolchains/gcc_arm/gcc-arm-none-eabi-6-2017-q2-update/arm-none-eabi/include/c++/6.3.1/iostream ****   extern istream cin;		/// Linked to standard input
  61:/home/zkmike/.local/share/renesas/e2_studio/toolchains/gcc_arm/gcc-arm-none-eabi-6-2017-q2-update/arm-none-eabi/include/c++/6.3.1/iostream ****   extern ostream cout;		/// Linked to standard output
  62:/home/zkmike/.local/share/renesas/e2_studio/toolchains/gcc_arm/gcc-arm-none-eabi-6-2017-q2-update/arm-none-eabi/include/c++/6.3.1/iostream ****   extern ostream cerr;		/// Linked to standard error (unbuffered)
  63:/home/zkmike/.local/share/renesas/e2_studio/toolchains/gcc_arm/gcc-arm-none-eabi-6-2017-q2-update/arm-none-eabi/include/c++/6.3.1/iostream ****   extern ostream clog;		/// Linked to standard error (buffered)
  64:/home/zkmike/.local/share/renesas/e2_studio/toolchains/gcc_arm/gcc-arm-none-eabi-6-2017-q2-update/arm-none-eabi/include/c++/6.3.1/iostream **** 
  65:/home/zkmike/.local/share/renesas/e2_studio/toolchains/gcc_arm/gcc-arm-none-eabi-6-2017-q2-update/arm-none-eabi/include/c++/6.3.1/iostream **** #ifdef _GLIBCXX_USE_WCHAR_T
  66:/home/zkmike/.local/share/renesas/e2_studio/toolchains/gcc_arm/gcc-arm-none-eabi-6-2017-q2-update/arm-none-eabi/include/c++/6.3.1/iostream ****   extern wistream wcin;		/// Linked to standard input
  67:/home/zkmike/.local/share/renesas/e2_studio/toolchains/gcc_arm/gcc-arm-none-eabi-6-2017-q2-update/arm-none-eabi/include/c++/6.3.1/iostream ****   extern wostream wcout;	/// Linked to standard output
  68:/home/zkmike/.local/share/renesas/e2_studio/toolchains/gcc_arm/gcc-arm-none-eabi-6-2017-q2-update/arm-none-eabi/include/c++/6.3.1/iostream ****   extern wostream wcerr;	/// Linked to standard error (unbuffered)
  69:/home/zkmike/.local/share/renesas/e2_studio/toolchains/gcc_arm/gcc-arm-none-eabi-6-2017-q2-update/arm-none-eabi/include/c++/6.3.1/iostream ****   extern wostream wclog;	/// Linked to standard error (buffered)
  70:/home/zkmike/.local/share/renesas/e2_studio/toolchains/gcc_arm/gcc-arm-none-eabi-6-2017-q2-update/arm-none-eabi/include/c++/6.3.1/iostream **** #endif
  71:/home/zkmike/.local/share/renesas/e2_studio/toolchains/gcc_arm/gcc-arm-none-eabi-6-2017-q2-update/arm-none-eabi/include/c++/6.3.1/iostream ****   //@}
  72:/home/zkmike/.local/share/renesas/e2_studio/toolchains/gcc_arm/gcc-arm-none-eabi-6-2017-q2-update/arm-none-eabi/include/c++/6.3.1/iostream **** 
  73:/home/zkmike/.local/share/renesas/e2_studio/toolchains/gcc_arm/gcc-arm-none-eabi-6-2017-q2-update/arm-none-eabi/include/c++/6.3.1/iostream ****   // For construction of filebuffers for cout, cin, cerr, clog et. al.
  74:/home/zkmike/.local/share/renesas/e2_studio/toolchains/gcc_arm/gcc-arm-none-eabi-6-2017-q2-update/arm-none-eabi/include/c++/6.3.1/iostream ****   static ios_base::Init __ioinit;
 336              		.loc 5 74 0 is_stmt 1
 337 0018 004000E3 		movw	r4, #:lower16:.LANCHOR0
 338 001c 004040E3 		movt	r4, #:upper16:.LANCHOR0
 339 0020 0400A0E1 		mov	r0, r4
 340              	.LVL26:
 341 0024 FEFFFFEB 		bl	_ZNSt8ios_base4InitC1Ev
 342              	.LVL27:
 343 0028 002000E3 		movw	r2, #:lower16:__dso_handle
 344 002c 002040E3 		movt	r2, #:upper16:__dso_handle
 345 0030 001000E3 		movw	r1, #:lower16:_ZNSt8ios_base4InitD1Ev
 346 0034 001040E3 		movt	r1, #:upper16:_ZNSt8ios_base4InitD1Ev
 347 0038 0400A0E1 		mov	r0, r4
 348 003c FEFFFFEB 		bl	__aeabi_atexit
 349              	.LVL28:
 350 0040 1080BDE8 		pop	{r4, pc}
 351              		.cfi_endproc
 352              	.LFE2705:
 353              		.cantunwind
 354              		.fnend
 356              		.section	.text._ZN5zxing14DetectorResultD0Ev,"axG",%progbits,_ZN5zxing14DetectorResultD5Ev,comdat
 357              		.align	2
 358              		.weak	_ZN5zxing14DetectorResultD0Ev
 359              		.syntax unified
 360              		.arm
 361              		.fpu neon
 363              	_ZN5zxing14DetectorResultD0Ev:
 364              		.fnstart
 365              	.LFB2704:
 366              		.loc 3 30 0
 367              		.cfi_startproc
 368              		@ args = 0, pretend = 0, frame = 0
 369              		@ frame_needed = 0, uses_anonymous_args = 0
 370              	.LVL29:
 371 0000 10402DE9 		push	{r4, lr}
 372              		.cfi_def_cfa_offset 8
 373              		.cfi_offset 4, -8
 374              		.cfi_offset 14, -4
 375 0004 0040A0E1 		mov	r4, r0
 376              	.LVL30:
 377              	.LBB125:
 378              	.LBB126:
 379              		.loc 3 30 0
 380 0008 94309FE5 		ldr	r3, .L33
 381 000c 003080E5 		str	r3, [r0]
 382              	.LVL31:
 383              	.LBB127:
 384              	.LBB128:
 385              		.loc 1 121 0
 386 0010 90309FE5 		ldr	r3, .L33+4
 387 0014 0C3080E5 		str	r3, [r0, #12]
 117:/home/zkmike/workspace/RZA2M/rza2m_2d_barcode_sample_freertos_gcc/src/zxing_lib/zxing/common/Array.h ****       array_->release();
 388              		.loc 1 117 0
 389 0018 140090E5 		ldr	r0, [r0, #20]
 390              	.LVL32:
 391 001c 000050E3 		cmp	r0, #0
 392 0020 0400000A 		beq	.L28
 393              	.LVL33:
 394              	.LBB129:
 395              	.LBB130:
  40:/home/zkmike/workspace/RZA2M/rza2m_2d_barcode_sample_freertos_gcc/src/zxing_lib/zxing/common/Counted.h ****     if (count_ == 0) {
 396              		.loc 2 40 0
 397 0024 043090E5 		ldr	r3, [r0, #4]
 398 0028 013043E2 		sub	r3, r3, #1
 399 002c 043080E5 		str	r3, [r0, #4]
  41:/home/zkmike/workspace/RZA2M/rza2m_2d_barcode_sample_freertos_gcc/src/zxing_lib/zxing/common/Counted.h ****       count_ = 0xDEADF001;
 400              		.loc 2 41 0
 401 0030 000053E3 		cmp	r3, #0
 402 0034 0C00000A 		beq	.L31
 403              	.LVL34:
 404              	.L28:
 405              	.LBE130:
 406              	.LBE129:
 407              	.LBE128:
 408              	.LBE127:
 409              	.LBB134:
 410              	.LBB135:
 411              		.loc 2 75 0
 412 0038 080094E5 		ldr	r0, [r4, #8]
 413 003c 000050E3 		cmp	r0, #0
 414 0040 0400000A 		beq	.L29
 415              	.LVL35:
 416              	.LBB136:
 417              	.LBB137:
  40:/home/zkmike/workspace/RZA2M/rza2m_2d_barcode_sample_freertos_gcc/src/zxing_lib/zxing/common/Counted.h ****     if (count_ == 0) {
 418              		.loc 2 40 0
 419 0044 043090E5 		ldr	r3, [r0, #4]
 420 0048 013043E2 		sub	r3, r3, #1
 421 004c 043080E5 		str	r3, [r0, #4]
  41:/home/zkmike/workspace/RZA2M/rza2m_2d_barcode_sample_freertos_gcc/src/zxing_lib/zxing/common/Counted.h ****       count_ = 0xDEADF001;
 422              		.loc 2 41 0
 423 0050 000053E3 		cmp	r3, #0
 424 0054 0B00000A 		beq	.L32
 425              	.LVL36:
 426              	.L29:
 427              	.LBE137:
 428              	.LBE136:
 429              	.LBE135:
 430              	.LBE134:
 431              	.LBE126:
 432              	.LBE125:
 433              		.loc 3 30 0
 434 0058 1810A0E3 		mov	r1, #24
 435 005c 0400A0E1 		mov	r0, r4
 436 0060 FEFFFFEB 		bl	_ZdlPvj
 437              	.LVL37:
 438 0064 0400A0E1 		mov	r0, r4
 439 0068 1080BDE8 		pop	{r4, pc}
 440              	.LVL38:
 441              	.L31:
 442              	.LBB144:
 443              	.LBB143:
 444              	.LBB141:
 445              	.LBB133:
 446              	.LBB132:
 447              	.LBB131:
  42:/home/zkmike/workspace/RZA2M/rza2m_2d_barcode_sample_freertos_gcc/src/zxing_lib/zxing/common/Counted.h ****       delete this;
 448              		.loc 2 42 0
 449 006c 01300FE3 		movw	r3, #61441
 450 0070 AD3E4DE3 		movt	r3, 57005
 451 0074 043080E5 		str	r3, [r0, #4]
  43:/home/zkmike/workspace/RZA2M/rza2m_2d_barcode_sample_freertos_gcc/src/zxing_lib/zxing/common/Counted.h ****     }
 452              		.loc 2 43 0
 453 0078 003090E5 		ldr	r3, [r0]
 454 007c 043093E5 		ldr	r3, [r3, #4]
 455 0080 33FF2FE1 		blx	r3
 456              	.LVL39:
 457 0084 EBFFFFEA 		b	.L28
 458              	.LVL40:
 459              	.L32:
 460              	.LBE131:
 461              	.LBE132:
 462              	.LBE133:
 463              	.LBE141:
 464              	.LBB142:
 465              	.LBB140:
 466              	.LBB139:
 467              	.LBB138:
  42:/home/zkmike/workspace/RZA2M/rza2m_2d_barcode_sample_freertos_gcc/src/zxing_lib/zxing/common/Counted.h ****       delete this;
 468              		.loc 2 42 0
 469 0088 01300FE3 		movw	r3, #61441
 470 008c AD3E4DE3 		movt	r3, 57005
 471 0090 043080E5 		str	r3, [r0, #4]
  43:/home/zkmike/workspace/RZA2M/rza2m_2d_barcode_sample_freertos_gcc/src/zxing_lib/zxing/common/Counted.h ****     }
 472              		.loc 2 43 0
 473 0094 003090E5 		ldr	r3, [r0]
 474 0098 043093E5 		ldr	r3, [r3, #4]
 475 009c 33FF2FE1 		blx	r3
 476              	.LVL41:
 477 00a0 ECFFFFEA 		b	.L29
 478              	.L34:
 479              		.align	2
 480              	.L33:
 481 00a4 08000000 		.word	_ZTVN5zxing14DetectorResultE+8
 482 00a8 08000000 		.word	_ZTVN5zxing8ArrayRefINS_3RefINS_11ResultPointEEEEE+8
 483              	.LBE138:
 484              	.LBE139:
 485              	.LBE140:
 486              	.LBE142:
 487              	.LBE143:
 488              	.LBE144:
 489              		.cfi_endproc
 490              	.LFE2704:
 491              		.cantunwind
 492              		.fnend
 494              		.section	.text._ZN5zxing14DetectorResultC2ENS_3RefINS_9BitMatrixEEENS_8ArrayRefINS1_INS_11ResultPo
 495              		.align	2
 496              		.global	_ZN5zxing14DetectorResultC2ENS_3RefINS_9BitMatrixEEENS_8ArrayRefINS1_INS_11ResultPointEEEE
 497              		.syntax unified
 498              		.arm
 499              		.fpu neon
 501              	_ZN5zxing14DetectorResultC2ENS_3RefINS_9BitMatrixEEENS_8ArrayRefINS1_INS_11ResultPointEEEEE:
 502              		.fnstart
 503              	.LFB2240:
  26:../src/zxing_lib/zxing/common/DetectorResult.cpp ****                                ArrayRef< Ref<ResultPoint> > points)
 504              		.loc 4 26 0
 505              		.cfi_startproc
 506              		@ args = 0, pretend = 0, frame = 0
 507              		@ frame_needed = 0, uses_anonymous_args = 0
 508              	.LVL42:
 509 0000 F0412DE9 		push	{r4, r5, r6, r7, r8, lr}
 510              		.cfi_def_cfa_offset 24
 511              		.cfi_offset 4, -24
 512              		.cfi_offset 5, -20
 513              		.cfi_offset 6, -16
 514              		.cfi_offset 7, -12
 515              		.cfi_offset 8, -8
 516              		.cfi_offset 14, -4
 517 0004 0040A0E1 		mov	r4, r0
 518 0008 0270A0E1 		mov	r7, r2
 519              	.LVL43:
 520              	.LBB170:
 521              	.LBB171:
 522              	.LBB172:
  31:/home/zkmike/workspace/RZA2M/rza2m_2d_barcode_sample_freertos_gcc/src/zxing_lib/zxing/common/Counted.h ****   }
 523              		.loc 2 31 0
 524 000c 0030A0E3 		mov	r3, #0
 525 0010 043080E5 		str	r3, [r0, #4]
 526              	.LVL44:
 527              	.LBE172:
 528              	.LBE171:
  28:../src/zxing_lib/zxing/common/DetectorResult.cpp **** }
 529              		.loc 4 28 0
 530 0014 CC209FE5 		ldr	r2, .L43
 531              	.LVL45:
 532 0018 002080E5 		str	r2, [r0]
 533              	.LVL46:
 534              	.LBB173:
 535              	.LBB174:
  64:/home/zkmike/workspace/RZA2M/rza2m_2d_barcode_sample_freertos_gcc/src/zxing_lib/zxing/common/Counted.h ****     reset(other.object_);
 536              		.loc 2 64 0
 537 001c 083080E5 		str	r3, [r0, #8]
  65:/home/zkmike/workspace/RZA2M/rza2m_2d_barcode_sample_freertos_gcc/src/zxing_lib/zxing/common/Counted.h ****   }
 538              		.loc 2 65 0
 539 0020 005091E5 		ldr	r5, [r1]
 540              	.LVL47:
 541              	.LBB175:
 542              	.LBB176:
  76:/home/zkmike/workspace/RZA2M/rza2m_2d_barcode_sample_freertos_gcc/src/zxing_lib/zxing/common/Counted.h ****       object_->release();
  77:/home/zkmike/workspace/RZA2M/rza2m_2d_barcode_sample_freertos_gcc/src/zxing_lib/zxing/common/Counted.h ****     }
  78:/home/zkmike/workspace/RZA2M/rza2m_2d_barcode_sample_freertos_gcc/src/zxing_lib/zxing/common/Counted.h ****   }
  79:/home/zkmike/workspace/RZA2M/rza2m_2d_barcode_sample_freertos_gcc/src/zxing_lib/zxing/common/Counted.h **** 
  80:/home/zkmike/workspace/RZA2M/rza2m_2d_barcode_sample_freertos_gcc/src/zxing_lib/zxing/common/Counted.h ****   void reset(T *o) {
  81:/home/zkmike/workspace/RZA2M/rza2m_2d_barcode_sample_freertos_gcc/src/zxing_lib/zxing/common/Counted.h ****     if (o) {
 543              		.loc 2 81 0
 544 0024 030055E1 		cmp	r5, r3
 545              	.LVL48:
 546              	.LBB177:
 547              	.LBB178:
  36:/home/zkmike/workspace/RZA2M/rza2m_2d_barcode_sample_freertos_gcc/src/zxing_lib/zxing/common/Counted.h ****     return this;
 548              		.loc 2 36 0
 549 0028 04309515 		ldrne	r3, [r5, #4]
 550 002c 01308312 		addne	r3, r3, #1
 551 0030 04308515 		strne	r3, [r5, #4]
 552              	.LVL49:
 553              	.L36:
 554              	.LBE178:
 555              	.LBE177:
  82:/home/zkmike/workspace/RZA2M/rza2m_2d_barcode_sample_freertos_gcc/src/zxing_lib/zxing/common/Counted.h ****       o->retain();
  83:/home/zkmike/workspace/RZA2M/rza2m_2d_barcode_sample_freertos_gcc/src/zxing_lib/zxing/common/Counted.h ****     }
  84:/home/zkmike/workspace/RZA2M/rza2m_2d_barcode_sample_freertos_gcc/src/zxing_lib/zxing/common/Counted.h ****     if (object_ != 0) {
 556              		.loc 2 84 0
 557 0034 080094E5 		ldr	r0, [r4, #8]
 558              	.LVL50:
 559 0038 000050E3 		cmp	r0, #0
 560 003c 0400000A 		beq	.L37
 561              	.LVL51:
 562              	.LBB179:
 563              	.LBB180:
  40:/home/zkmike/workspace/RZA2M/rza2m_2d_barcode_sample_freertos_gcc/src/zxing_lib/zxing/common/Counted.h ****     if (count_ == 0) {
 564              		.loc 2 40 0
 565 0040 043090E5 		ldr	r3, [r0, #4]
 566 0044 013043E2 		sub	r3, r3, #1
 567 0048 043080E5 		str	r3, [r0, #4]
  41:/home/zkmike/workspace/RZA2M/rza2m_2d_barcode_sample_freertos_gcc/src/zxing_lib/zxing/common/Counted.h ****       count_ = 0xDEADF001;
 568              		.loc 2 41 0
 569 004c 000053E3 		cmp	r3, #0
 570 0050 1600000A 		beq	.L41
 571              	.LVL52:
 572              	.L37:
 573              	.LBE180:
 574              	.LBE179:
  85:/home/zkmike/workspace/RZA2M/rza2m_2d_barcode_sample_freertos_gcc/src/zxing_lib/zxing/common/Counted.h ****       object_->release();
  86:/home/zkmike/workspace/RZA2M/rza2m_2d_barcode_sample_freertos_gcc/src/zxing_lib/zxing/common/Counted.h ****     }
  87:/home/zkmike/workspace/RZA2M/rza2m_2d_barcode_sample_freertos_gcc/src/zxing_lib/zxing/common/Counted.h ****     object_ = o;
 575              		.loc 2 87 0
 576 0054 085084E5 		str	r5, [r4, #8]
 577              	.LVL53:
 578              	.LBE176:
 579              	.LBE175:
 580              	.LBE174:
 581              	.LBE173:
  28:../src/zxing_lib/zxing/common/DetectorResult.cpp **** }
 582              		.loc 4 28 0
 583 0058 0C6084E2 		add	r6, r4, #12
 584              	.LVL54:
 585              	.LBB186:
 586              	.LBB187:
 587              	.LBB188:
 588              	.LBB189:
  31:/home/zkmike/workspace/RZA2M/rza2m_2d_barcode_sample_freertos_gcc/src/zxing_lib/zxing/common/Counted.h ****   }
 589              		.loc 2 31 0
 590 005c 0030A0E3 		mov	r3, #0
 591 0060 103084E5 		str	r3, [r4, #16]
 592              	.LVL55:
 593              	.LBE189:
 594              	.LBE188:
 106:/home/zkmike/workspace/RZA2M/rza2m_2d_barcode_sample_freertos_gcc/src/zxing_lib/zxing/common/Array.h ****     reset(other.array_);
 595              		.loc 1 106 0
 596 0064 80209FE5 		ldr	r2, .L43+4
 597 0068 0C2084E5 		str	r2, [r4, #12]
 598 006c 143084E5 		str	r3, [r4, #20]
 107:/home/zkmike/workspace/RZA2M/rza2m_2d_barcode_sample_freertos_gcc/src/zxing_lib/zxing/common/Array.h ****   }
 599              		.loc 1 107 0
 600 0070 085097E5 		ldr	r5, [r7, #8]
 601              	.LVL56:
 602              	.LBB190:
 603              	.LBB191:
 122:/home/zkmike/workspace/RZA2M/rza2m_2d_barcode_sample_freertos_gcc/src/zxing_lib/zxing/common/Array.h **** 
 123:/home/zkmike/workspace/RZA2M/rza2m_2d_barcode_sample_freertos_gcc/src/zxing_lib/zxing/common/Array.h ****   T const& operator[](int i) const {
 124:/home/zkmike/workspace/RZA2M/rza2m_2d_barcode_sample_freertos_gcc/src/zxing_lib/zxing/common/Array.h ****     return (*array_)[i];
 125:/home/zkmike/workspace/RZA2M/rza2m_2d_barcode_sample_freertos_gcc/src/zxing_lib/zxing/common/Array.h ****   }
 126:/home/zkmike/workspace/RZA2M/rza2m_2d_barcode_sample_freertos_gcc/src/zxing_lib/zxing/common/Array.h **** 
 127:/home/zkmike/workspace/RZA2M/rza2m_2d_barcode_sample_freertos_gcc/src/zxing_lib/zxing/common/Array.h ****   T& operator[](int i) {
 128:/home/zkmike/workspace/RZA2M/rza2m_2d_barcode_sample_freertos_gcc/src/zxing_lib/zxing/common/Array.h ****     return (*array_)[i];
 129:/home/zkmike/workspace/RZA2M/rza2m_2d_barcode_sample_freertos_gcc/src/zxing_lib/zxing/common/Array.h ****   }
 130:/home/zkmike/workspace/RZA2M/rza2m_2d_barcode_sample_freertos_gcc/src/zxing_lib/zxing/common/Array.h **** 
 131:/home/zkmike/workspace/RZA2M/rza2m_2d_barcode_sample_freertos_gcc/src/zxing_lib/zxing/common/Array.h ****   void reset(Array<T> *a) {
 132:/home/zkmike/workspace/RZA2M/rza2m_2d_barcode_sample_freertos_gcc/src/zxing_lib/zxing/common/Array.h ****     if (a) {
 604              		.loc 1 132 0
 605 0074 030055E1 		cmp	r5, r3
 606              	.LVL57:
 607              	.LBB192:
 608              	.LBB193:
  36:/home/zkmike/workspace/RZA2M/rza2m_2d_barcode_sample_freertos_gcc/src/zxing_lib/zxing/common/Counted.h ****     return this;
 609              		.loc 2 36 0
 610 0078 04309515 		ldrne	r3, [r5, #4]
 611 007c 01308312 		addne	r3, r3, #1
 612 0080 04308515 		strne	r3, [r5, #4]
 613              	.LVL58:
 614              	.L38:
 615              	.LBE193:
 616              	.LBE192:
 133:/home/zkmike/workspace/RZA2M/rza2m_2d_barcode_sample_freertos_gcc/src/zxing_lib/zxing/common/Array.h ****       a->retain();
 134:/home/zkmike/workspace/RZA2M/rza2m_2d_barcode_sample_freertos_gcc/src/zxing_lib/zxing/common/Array.h ****     }
 135:/home/zkmike/workspace/RZA2M/rza2m_2d_barcode_sample_freertos_gcc/src/zxing_lib/zxing/common/Array.h ****     if (array_) {
 617              		.loc 1 135 0
 618 0084 080096E5 		ldr	r0, [r6, #8]
 619 0088 000050E3 		cmp	r0, #0
 620 008c 0400000A 		beq	.L39
 621              	.LVL59:
 622              	.LBB194:
 623              	.LBB195:
  40:/home/zkmike/workspace/RZA2M/rza2m_2d_barcode_sample_freertos_gcc/src/zxing_lib/zxing/common/Counted.h ****     if (count_ == 0) {
 624              		.loc 2 40 0
 625 0090 043090E5 		ldr	r3, [r0, #4]
 626 0094 013043E2 		sub	r3, r3, #1
 627 0098 043080E5 		str	r3, [r0, #4]
  41:/home/zkmike/workspace/RZA2M/rza2m_2d_barcode_sample_freertos_gcc/src/zxing_lib/zxing/common/Counted.h ****       count_ = 0xDEADF001;
 628              		.loc 2 41 0
 629 009c 000053E3 		cmp	r3, #0
 630 00a0 0900000A 		beq	.L42
 631              	.LVL60:
 632              	.L39:
 633              	.LBE195:
 634              	.LBE194:
 136:/home/zkmike/workspace/RZA2M/rza2m_2d_barcode_sample_freertos_gcc/src/zxing_lib/zxing/common/Array.h ****       array_->release();
 137:/home/zkmike/workspace/RZA2M/rza2m_2d_barcode_sample_freertos_gcc/src/zxing_lib/zxing/common/Array.h ****     }
 138:/home/zkmike/workspace/RZA2M/rza2m_2d_barcode_sample_freertos_gcc/src/zxing_lib/zxing/common/Array.h ****     array_ = a;
 635              		.loc 1 138 0
 636 00a4 085086E5 		str	r5, [r6, #8]
 637              	.LVL61:
 638              	.LBE191:
 639              	.LBE190:
 640              	.LBE187:
 641              	.LBE186:
 642              	.LBE170:
  29:../src/zxing_lib/zxing/common/DetectorResult.cpp **** 
 643              		.loc 4 29 0
 644 00a8 0400A0E1 		mov	r0, r4
 645 00ac F081BDE8 		pop	{r4, r5, r6, r7, r8, pc}
 646              	.LVL62:
 647              	.L41:
 648              	.LBB203:
 649              	.LBB201:
 650              	.LBB185:
 651              	.LBB184:
 652              	.LBB183:
 653              	.LBB182:
 654              	.LBB181:
  42:/home/zkmike/workspace/RZA2M/rza2m_2d_barcode_sample_freertos_gcc/src/zxing_lib/zxing/common/Counted.h ****       delete this;
 655              		.loc 2 42 0
 656 00b0 01300FE3 		movw	r3, #61441
 657 00b4 AD3E4DE3 		movt	r3, 57005
 658 00b8 043080E5 		str	r3, [r0, #4]
  43:/home/zkmike/workspace/RZA2M/rza2m_2d_barcode_sample_freertos_gcc/src/zxing_lib/zxing/common/Counted.h ****     }
 659              		.loc 2 43 0
 660 00bc 003090E5 		ldr	r3, [r0]
 661 00c0 043093E5 		ldr	r3, [r3, #4]
 662 00c4 33FF2FE1 		blx	r3
 663              	.LVL63:
 664 00c8 E1FFFFEA 		b	.L37
 665              	.LVL64:
 666              	.L42:
 667              	.LBE181:
 668              	.LBE182:
 669              	.LBE183:
 670              	.LBE184:
 671              	.LBE185:
 672              	.LBE201:
 673              	.LBB202:
 674              	.LBB200:
 675              	.LBB199:
 676              	.LBB198:
 677              	.LBB197:
 678              	.LBB196:
  42:/home/zkmike/workspace/RZA2M/rza2m_2d_barcode_sample_freertos_gcc/src/zxing_lib/zxing/common/Counted.h ****       delete this;
 679              		.loc 2 42 0
 680 00cc 01300FE3 		movw	r3, #61441
 681 00d0 AD3E4DE3 		movt	r3, 57005
 682 00d4 043080E5 		str	r3, [r0, #4]
  43:/home/zkmike/workspace/RZA2M/rza2m_2d_barcode_sample_freertos_gcc/src/zxing_lib/zxing/common/Counted.h ****     }
 683              		.loc 2 43 0
 684 00d8 003090E5 		ldr	r3, [r0]
 685 00dc 043093E5 		ldr	r3, [r3, #4]
 686 00e0 33FF2FE1 		blx	r3
 687              	.LVL65:
 688 00e4 EEFFFFEA 		b	.L39
 689              	.L44:
 690              		.align	2
 691              	.L43:
 692 00e8 08000000 		.word	_ZTVN5zxing14DetectorResultE+8
 693 00ec 08000000 		.word	_ZTVN5zxing8ArrayRefINS_3RefINS_11ResultPointEEEEE+8
 694              	.LBE196:
 695              	.LBE197:
 696              	.LBE198:
 697              	.LBE199:
 698              	.LBE200:
 699              	.LBE202:
 700              	.LBE203:
 701              		.cfi_endproc
 702              	.LFE2240:
 703              		.cantunwind
 704              		.fnend
 706              		.global	_ZN5zxing14DetectorResultC1ENS_3RefINS_9BitMatrixEEENS_8ArrayRefINS1_INS_11ResultPointEEEE
 707              		.set	_ZN5zxing14DetectorResultC1ENS_3RefINS_9BitMatrixEEENS_8ArrayRefINS1_INS_11ResultPointEEEEE,_
 708              		.section	.text._ZN5zxing14DetectorResult7getBitsEv,"ax",%progbits
 709              		.align	2
 710              		.global	_ZN5zxing14DetectorResult7getBitsEv
 711              		.syntax unified
 712              		.arm
 713              		.fpu neon
 715              	_ZN5zxing14DetectorResult7getBitsEv:
 716              		.fnstart
 717              	.LFB2242:
  31:../src/zxing_lib/zxing/common/DetectorResult.cpp ****   return bits_;
 718              		.loc 4 31 0
 719              		.cfi_startproc
 720              		@ args = 0, pretend = 0, frame = 0
 721              		@ frame_needed = 0, uses_anonymous_args = 0
 722              	.LVL66:
 723 0000 70402DE9 		push	{r4, r5, r6, lr}
 724              		.cfi_def_cfa_offset 16
 725              		.cfi_offset 4, -16
 726              		.cfi_offset 5, -12
 727              		.cfi_offset 6, -8
 728              		.cfi_offset 14, -4
 729 0004 0040A0E1 		mov	r4, r0
 730              	.LVL67:
 731              	.LBB212:
 732              	.LBB213:
  64:/home/zkmike/workspace/RZA2M/rza2m_2d_barcode_sample_freertos_gcc/src/zxing_lib/zxing/common/Counted.h ****     reset(other.object_);
 733              		.loc 2 64 0
 734 0008 0030A0E3 		mov	r3, #0
 735 000c 003080E5 		str	r3, [r0]
  65:/home/zkmike/workspace/RZA2M/rza2m_2d_barcode_sample_freertos_gcc/src/zxing_lib/zxing/common/Counted.h ****   }
 736              		.loc 2 65 0
 737 0010 085091E5 		ldr	r5, [r1, #8]
 738              	.LVL68:
 739              	.LBB214:
 740              	.LBB215:
  81:/home/zkmike/workspace/RZA2M/rza2m_2d_barcode_sample_freertos_gcc/src/zxing_lib/zxing/common/Counted.h ****       o->retain();
 741              		.loc 2 81 0
 742 0014 030055E1 		cmp	r5, r3
 743              	.LVL69:
 744              	.LBB216:
 745              	.LBB217:
  36:/home/zkmike/workspace/RZA2M/rza2m_2d_barcode_sample_freertos_gcc/src/zxing_lib/zxing/common/Counted.h ****     return this;
 746              		.loc 2 36 0
 747 0018 04309515 		ldrne	r3, [r5, #4]
 748 001c 01308312 		addne	r3, r3, #1
 749 0020 04308515 		strne	r3, [r5, #4]
 750              	.LVL70:
 751              	.L46:
 752              	.LBE217:
 753              	.LBE216:
  84:/home/zkmike/workspace/RZA2M/rza2m_2d_barcode_sample_freertos_gcc/src/zxing_lib/zxing/common/Counted.h ****       object_->release();
 754              		.loc 2 84 0
 755 0024 000094E5 		ldr	r0, [r4]
 756              	.LVL71:
 757 0028 000050E3 		cmp	r0, #0
 758 002c 0400000A 		beq	.L47
 759              	.LVL72:
 760              	.LBB218:
 761              	.LBB219:
  40:/home/zkmike/workspace/RZA2M/rza2m_2d_barcode_sample_freertos_gcc/src/zxing_lib/zxing/common/Counted.h ****     if (count_ == 0) {
 762              		.loc 2 40 0
 763 0030 043090E5 		ldr	r3, [r0, #4]
 764 0034 013043E2 		sub	r3, r3, #1
 765 0038 043080E5 		str	r3, [r0, #4]
  41:/home/zkmike/workspace/RZA2M/rza2m_2d_barcode_sample_freertos_gcc/src/zxing_lib/zxing/common/Counted.h ****       count_ = 0xDEADF001;
 766              		.loc 2 41 0
 767 003c 000053E3 		cmp	r3, #0
 768 0040 0200000A 		beq	.L49
 769              	.LVL73:
 770              	.L47:
 771              	.LBE219:
 772              	.LBE218:
 773              		.loc 2 87 0
 774 0044 005084E5 		str	r5, [r4]
 775              	.LVL74:
 776              	.LBE215:
 777              	.LBE214:
 778              	.LBE213:
 779              	.LBE212:
  33:../src/zxing_lib/zxing/common/DetectorResult.cpp **** 
 780              		.loc 4 33 0
 781 0048 0400A0E1 		mov	r0, r4
 782 004c 7080BDE8 		pop	{r4, r5, r6, pc}
 783              	.LVL75:
 784              	.L49:
 785              	.LBB225:
 786              	.LBB224:
 787              	.LBB223:
 788              	.LBB222:
 789              	.LBB221:
 790              	.LBB220:
  42:/home/zkmike/workspace/RZA2M/rza2m_2d_barcode_sample_freertos_gcc/src/zxing_lib/zxing/common/Counted.h ****       delete this;
 791              		.loc 2 42 0
 792 0050 01300FE3 		movw	r3, #61441
 793 0054 AD3E4DE3 		movt	r3, 57005
 794 0058 043080E5 		str	r3, [r0, #4]
  43:/home/zkmike/workspace/RZA2M/rza2m_2d_barcode_sample_freertos_gcc/src/zxing_lib/zxing/common/Counted.h ****     }
 795              		.loc 2 43 0
 796 005c 003090E5 		ldr	r3, [r0]
 797 0060 043093E5 		ldr	r3, [r3, #4]
 798 0064 33FF2FE1 		blx	r3
 799              	.LVL76:
 800 0068 F5FFFFEA 		b	.L47
 801              	.LBE220:
 802              	.LBE221:
 803              	.LBE222:
 804              	.LBE223:
 805              	.LBE224:
 806              	.LBE225:
 807              		.cfi_endproc
 808              	.LFE2242:
 809              		.cantunwind
 810              		.fnend
 812              		.section	.text._ZN5zxing14DetectorResult9getPointsEv,"ax",%progbits
 813              		.align	2
 814              		.global	_ZN5zxing14DetectorResult9getPointsEv
 815              		.syntax unified
 816              		.arm
 817              		.fpu neon
 819              	_ZN5zxing14DetectorResult9getPointsEv:
 820              		.fnstart
 821              	.LFB2243:
  35:../src/zxing_lib/zxing/common/DetectorResult.cpp ****   return points_;
 822              		.loc 4 35 0
 823              		.cfi_startproc
 824              		@ args = 0, pretend = 0, frame = 0
 825              		@ frame_needed = 0, uses_anonymous_args = 0
 826              	.LVL77:
 827 0000 70402DE9 		push	{r4, r5, r6, lr}
 828              		.cfi_def_cfa_offset 16
 829              		.cfi_offset 4, -16
 830              		.cfi_offset 5, -12
 831              		.cfi_offset 6, -8
 832              		.cfi_offset 14, -4
 833 0004 0040A0E1 		mov	r4, r0
 834              	.LVL78:
 835              	.LBB236:
 836              	.LBB237:
 837              	.LBB238:
 838              	.LBB239:
  31:/home/zkmike/workspace/RZA2M/rza2m_2d_barcode_sample_freertos_gcc/src/zxing_lib/zxing/common/Counted.h ****   }
 839              		.loc 2 31 0
 840 0008 0030A0E3 		mov	r3, #0
 841 000c 043080E5 		str	r3, [r0, #4]
 842              	.LVL79:
 843              	.LBE239:
 844              	.LBE238:
 106:/home/zkmike/workspace/RZA2M/rza2m_2d_barcode_sample_freertos_gcc/src/zxing_lib/zxing/common/Array.h ****     reset(other.array_);
 845              		.loc 1 106 0
 846 0010 60209FE5 		ldr	r2, .L55
 847 0014 002080E5 		str	r2, [r0]
 848 0018 083080E5 		str	r3, [r0, #8]
 107:/home/zkmike/workspace/RZA2M/rza2m_2d_barcode_sample_freertos_gcc/src/zxing_lib/zxing/common/Array.h ****   }
 849              		.loc 1 107 0
 850 001c 145091E5 		ldr	r5, [r1, #20]
 851              	.LVL80:
 852              	.LBB240:
 853              	.LBB241:
 132:/home/zkmike/workspace/RZA2M/rza2m_2d_barcode_sample_freertos_gcc/src/zxing_lib/zxing/common/Array.h ****       a->retain();
 854              		.loc 1 132 0
 855 0020 030055E1 		cmp	r5, r3
 856              	.LVL81:
 857              	.LBB242:
 858              	.LBB243:
  36:/home/zkmike/workspace/RZA2M/rza2m_2d_barcode_sample_freertos_gcc/src/zxing_lib/zxing/common/Counted.h ****     return this;
 859              		.loc 2 36 0
 860 0024 04309515 		ldrne	r3, [r5, #4]
 861 0028 01308312 		addne	r3, r3, #1
 862 002c 04308515 		strne	r3, [r5, #4]
 863              	.LVL82:
 864              	.L51:
 865              	.LBE243:
 866              	.LBE242:
 135:/home/zkmike/workspace/RZA2M/rza2m_2d_barcode_sample_freertos_gcc/src/zxing_lib/zxing/common/Array.h ****       array_->release();
 867              		.loc 1 135 0
 868 0030 080094E5 		ldr	r0, [r4, #8]
 869              	.LVL83:
 870 0034 000050E3 		cmp	r0, #0
 871 0038 0400000A 		beq	.L52
 872              	.LVL84:
 873              	.LBB244:
 874              	.LBB245:
  40:/home/zkmike/workspace/RZA2M/rza2m_2d_barcode_sample_freertos_gcc/src/zxing_lib/zxing/common/Counted.h ****     if (count_ == 0) {
 875              		.loc 2 40 0
 876 003c 043090E5 		ldr	r3, [r0, #4]
 877 0040 013043E2 		sub	r3, r3, #1
 878 0044 043080E5 		str	r3, [r0, #4]
  41:/home/zkmike/workspace/RZA2M/rza2m_2d_barcode_sample_freertos_gcc/src/zxing_lib/zxing/common/Counted.h ****       count_ = 0xDEADF001;
 879              		.loc 2 41 0
 880 0048 000053E3 		cmp	r3, #0
 881 004c 0200000A 		beq	.L54
 882              	.LVL85:
 883              	.L52:
 884              	.LBE245:
 885              	.LBE244:
 886              		.loc 1 138 0
 887 0050 085084E5 		str	r5, [r4, #8]
 888              	.LVL86:
 889              	.LBE241:
 890              	.LBE240:
 891              	.LBE237:
 892              	.LBE236:
  37:../src/zxing_lib/zxing/common/DetectorResult.cpp **** 
 893              		.loc 4 37 0
 894 0054 0400A0E1 		mov	r0, r4
 895 0058 7080BDE8 		pop	{r4, r5, r6, pc}
 896              	.LVL87:
 897              	.L54:
 898              	.LBB251:
 899              	.LBB250:
 900              	.LBB249:
 901              	.LBB248:
 902              	.LBB247:
 903              	.LBB246:
  42:/home/zkmike/workspace/RZA2M/rza2m_2d_barcode_sample_freertos_gcc/src/zxing_lib/zxing/common/Counted.h ****       delete this;
 904              		.loc 2 42 0
 905 005c 01300FE3 		movw	r3, #61441
 906 0060 AD3E4DE3 		movt	r3, 57005
 907 0064 043080E5 		str	r3, [r0, #4]
  43:/home/zkmike/workspace/RZA2M/rza2m_2d_barcode_sample_freertos_gcc/src/zxing_lib/zxing/common/Counted.h ****     }
 908              		.loc 2 43 0
 909 0068 003090E5 		ldr	r3, [r0]
 910 006c 043093E5 		ldr	r3, [r3, #4]
 911 0070 33FF2FE1 		blx	r3
 912              	.LVL88:
 913 0074 F5FFFFEA 		b	.L52
 914              	.L56:
 915              		.align	2
 916              	.L55:
 917 0078 08000000 		.word	_ZTVN5zxing8ArrayRefINS_3RefINS_11ResultPointEEEEE+8
 918              	.LBE246:
 919              	.LBE247:
 920              	.LBE248:
 921              	.LBE249:
 922              	.LBE250:
 923              	.LBE251:
 924              		.cfi_endproc
 925              	.LFE2243:
 926              		.cantunwind
 927              		.fnend
 929              		.section	.text._GLOBAL__sub_I__ZN5zxing14DetectorResultC2ENS_3RefINS_9BitMatrixEEENS_8ArrayRefINS1
 930              		.align	2
 931              		.syntax unified
 932              		.arm
 933              		.fpu neon
 935              	_GLOBAL__sub_I__ZN5zxing14DetectorResultC2ENS_3RefINS_9BitMatrixEEENS_8ArrayRefINS1_INS_11ResultPoi
 936              		.fnstart
 937              	.LFB2706:
 938              		.loc 4 39 0
 939              		.cfi_startproc
 940              		@ args = 0, pretend = 0, frame = 0
 941              		@ frame_needed = 0, uses_anonymous_args = 0
 942 0000 10402DE9 		push	{r4, lr}
 943              		.cfi_def_cfa_offset 8
 944              		.cfi_offset 4, -8
 945              		.cfi_offset 14, -4
 946              		.loc 4 39 0
 947 0004 FF1F0FE3 		movw	r1, #65535
 948 0008 0100A0E3 		mov	r0, #1
 949 000c FEFFFFEB 		bl	_Z41__static_initialization_and_destruction_0ii
 950              	.LVL89:
 951 0010 1080BDE8 		pop	{r4, pc}
 952              		.cfi_endproc
 953              	.LFE2706:
 954              		.cantunwind
 955              		.fnend
 957              		.section	.init_array,"aw",%init_array
 958              		.align	2
 959 0000 00000000 		.word	_GLOBAL__sub_I__ZN5zxing14DetectorResultC2ENS_3RefINS_9BitMatrixEEENS_8ArrayRefINS1_INS_11Re
 960              		.weak	_ZTSN5zxing7CountedE
 961              		.section	.rodata._ZTSN5zxing7CountedE,"aG",%progbits,_ZTSN5zxing7CountedE,comdat
 962              		.align	2
 965              	_ZTSN5zxing7CountedE:
 966 0000 4E357A78 		.ascii	"N5zxing7CountedE\000"
 966      696E6737 
 966      436F756E 
 966      74656445 
 966      00
 967              		.weak	_ZTIN5zxing7CountedE
 968              		.section	.rodata._ZTIN5zxing7CountedE,"aG",%progbits,_ZTIN5zxing7CountedE,comdat
 969              		.align	2
 972              	_ZTIN5zxing7CountedE:
 973 0000 08000000 		.word	_ZTVN10__cxxabiv117__class_type_infoE+8
 974 0004 00000000 		.word	_ZTSN5zxing7CountedE
 975              		.weak	_ZTSN5zxing8ArrayRefINS_3RefINS_11ResultPointEEEEE
 976              		.section	.rodata._ZTSN5zxing8ArrayRefINS_3RefINS_11ResultPointEEEEE,"aG",%progbits,_ZTSN5zxing8Arr
 977              		.align	2
 980              	_ZTSN5zxing8ArrayRefINS_3RefINS_11ResultPointEEEEE:
 981 0000 4E357A78 		.ascii	"N5zxing8ArrayRefINS_3RefINS_11ResultPointEEEEE\000"
 981      696E6738 
 981      41727261 
 981      79526566 
 981      494E535F 
 982              		.weak	_ZTIN5zxing8ArrayRefINS_3RefINS_11ResultPointEEEEE
 983              		.section	.rodata._ZTIN5zxing8ArrayRefINS_3RefINS_11ResultPointEEEEE,"aG",%progbits,_ZTIN5zxing8Arr
 984              		.align	2
 987              	_ZTIN5zxing8ArrayRefINS_3RefINS_11ResultPointEEEEE:
 988 0000 08000000 		.word	_ZTVN10__cxxabiv120__si_class_type_infoE+8
 989 0004 00000000 		.word	_ZTSN5zxing8ArrayRefINS_3RefINS_11ResultPointEEEEE
 990 0008 00000000 		.word	_ZTIN5zxing7CountedE
 991              		.weak	_ZTSN5zxing14DetectorResultE
 992              		.section	.rodata._ZTSN5zxing14DetectorResultE,"aG",%progbits,_ZTSN5zxing14DetectorResultE,comdat
 993              		.align	2
 996              	_ZTSN5zxing14DetectorResultE:
 997 0000 4E357A78 		.ascii	"N5zxing14DetectorResultE\000"
 997      696E6731 
 997      34446574 
 997      6563746F 
 997      72526573 
 998              		.weak	_ZTIN5zxing14DetectorResultE
 999              		.section	.rodata._ZTIN5zxing14DetectorResultE,"aG",%progbits,_ZTIN5zxing14DetectorResultE,comdat
 1000              		.align	2
 1003              	_ZTIN5zxing14DetectorResultE:
 1004 0000 08000000 		.word	_ZTVN10__cxxabiv120__si_class_type_infoE+8
 1005 0004 00000000 		.word	_ZTSN5zxing14DetectorResultE
 1006 0008 00000000 		.word	_ZTIN5zxing7CountedE
 1007              		.weak	_ZTVN5zxing8ArrayRefINS_3RefINS_11ResultPointEEEEE
 1008              		.section	.rodata._ZTVN5zxing8ArrayRefINS_3RefINS_11ResultPointEEEEE,"aG",%progbits,_ZTVN5zxing8Arr
 1009              		.align	2
 1012              	_ZTVN5zxing8ArrayRefINS_3RefINS_11ResultPointEEEEE:
 1013 0000 00000000 		.word	0
 1014 0004 00000000 		.word	_ZTIN5zxing8ArrayRefINS_3RefINS_11ResultPointEEEEE
 1015 0008 00000000 		.word	_ZN5zxing8ArrayRefINS_3RefINS_11ResultPointEEEED1Ev
 1016 000c 00000000 		.word	_ZN5zxing8ArrayRefINS_3RefINS_11ResultPointEEEED0Ev
 1017              		.weak	_ZTVN5zxing14DetectorResultE
 1018              		.section	.rodata._ZTVN5zxing14DetectorResultE,"aG",%progbits,_ZTVN5zxing14DetectorResultE,comdat
 1019              		.align	2
 1022              	_ZTVN5zxing14DetectorResultE:
 1023 0000 00000000 		.word	0
 1024 0004 00000000 		.word	_ZTIN5zxing14DetectorResultE
 1025 0008 00000000 		.word	_ZN5zxing14DetectorResultD1Ev
 1026 000c 00000000 		.word	_ZN5zxing14DetectorResultD0Ev
 1027              		.section	.bss._ZStL8__ioinit,"aw",%nobits
 1028              		.align	2
 1029              		.set	.LANCHOR0,. + 0
 1032              	_ZStL8__ioinit:
 1033 0000 00       		.space	1
 1034              		.text
 1035              	.Letext0:
 1036              		.file 6 "/home/zkmike/.local/share/renesas/e2_studio/toolchains/gcc_arm/gcc-arm-none-eabi-6-2017-q
 1037              		.file 7 "/home/zkmike/.local/share/renesas/e2_studio/toolchains/gcc_arm/gcc-arm-none-eabi-6-2017-q
 1038              		.file 8 "/home/zkmike/.local/share/renesas/e2_studio/toolchains/gcc_arm/gcc-arm-none-eabi-6-2017-q
 1039              		.file 9 "/home/zkmike/.local/share/renesas/e2_studio/toolchains/gcc_arm/gcc-arm-none-eabi-6-2017-q
 1040              		.file 10 "/home/zkmike/.local/share/renesas/e2_studio/toolchains/gcc_arm/gcc-arm-none-eabi-6-2017-
 1041              		.file 11 "/home/zkmike/.local/share/renesas/e2_studio/toolchains/gcc_arm/gcc-arm-none-eabi-6-2017-
 1042              		.file 12 "/home/zkmike/.local/share/renesas/e2_studio/toolchains/gcc_arm/gcc-arm-none-eabi-6-2017-
 1043              		.file 13 "/home/zkmike/.local/share/renesas/e2_studio/toolchains/gcc_arm/gcc-arm-none-eabi-6-2017-
 1044              		.file 14 "/home/zkmike/.local/share/renesas/e2_studio/toolchains/gcc_arm/gcc-arm-none-eabi-6-2017-
 1045              		.file 15 "/home/zkmike/.local/share/renesas/e2_studio/toolchains/gcc_arm/gcc-arm-none-eabi-6-2017-
 1046              		.file 16 "/home/zkmike/.local/share/renesas/e2_studio/toolchains/gcc_arm/gcc-arm-none-eabi-6-2017-
 1047              		.file 17 "/home/zkmike/.local/share/renesas/e2_studio/toolchains/gcc_arm/gcc-arm-none-eabi-6-2017-
 1048              		.file 18 "/home/zkmike/.local/share/renesas/e2_studio/toolchains/gcc_arm/gcc-arm-none-eabi-6-2017-
 1049              		.file 19 "/home/zkmike/.local/share/renesas/e2_studio/toolchains/gcc_arm/gcc-arm-none-eabi-6-2017-
 1050              		.file 20 "/home/zkmike/.local/share/renesas/e2_studio/toolchains/gcc_arm/gcc-arm-none-eabi-6-2017-
 1051              		.file 21 "/home/zkmike/.local/share/renesas/e2_studio/toolchains/gcc_arm/gcc-arm-none-eabi-6-2017-
 1052              		.file 22 "/home/zkmike/.local/share/renesas/e2_studio/toolchains/gcc_arm/gcc-arm-none-eabi-6-2017-
 1053              		.file 23 "/home/zkmike/.local/share/renesas/e2_studio/toolchains/gcc_arm/gcc-arm-none-eabi-6-2017-
 1054              		.file 24 "/home/zkmike/.local/share/renesas/e2_studio/toolchains/gcc_arm/gcc-arm-none-eabi-6-2017-
 1055              		.file 25 "/home/zkmike/.local/share/renesas/e2_studio/toolchains/gcc_arm/gcc-arm-none-eabi-6-2017-
 1056              		.file 26 "/home/zkmike/.local/share/renesas/e2_studio/toolchains/gcc_arm/gcc-arm-none-eabi-6-2017-
 1057              		.file 27 "/home/zkmike/.local/share/renesas/e2_studio/toolchains/gcc_arm/gcc-arm-none-eabi-6-2017-
 1058              		.file 28 "/home/zkmike/.local/share/renesas/e2_studio/toolchains/gcc_arm/gcc-arm-none-eabi-6-2017-
 1059              		.file 29 "/home/zkmike/.local/share/renesas/e2_studio/toolchains/gcc_arm/gcc-arm-none-eabi-6-2017-
 1060              		.file 30 "/home/zkmike/.local/share/renesas/e2_studio/toolchains/gcc_arm/gcc-arm-none-eabi-6-2017-
 1061              		.file 31 "/home/zkmike/.local/share/renesas/e2_studio/toolchains/gcc_arm/gcc-arm-none-eabi-6-2017-
 1062              		.file 32 "/home/zkmike/.local/share/renesas/e2_studio/toolchains/gcc_arm/gcc-arm-none-eabi-6-2017-
 1063              		.file 33 "<built-in>"
 1064              		.file 34 "/home/zkmike/.local/share/renesas/e2_studio/toolchains/gcc_arm/gcc-arm-none-eabi-6-2017-
 1065              		.file 35 "/home/zkmike/.local/share/renesas/e2_studio/toolchains/gcc_arm/gcc-arm-none-eabi-6-2017-
 1066              		.file 36 "/home/zkmike/.local/share/renesas/e2_studio/toolchains/gcc_arm/gcc-arm-none-eabi-6-2017-
 1067              		.file 37 "/home/zkmike/.local/share/renesas/e2_studio/toolchains/gcc_arm/gcc-arm-none-eabi-6-2017-
 1068              		.file 38 "/home/zkmike/.local/share/renesas/e2_studio/toolchains/gcc_arm/gcc-arm-none-eabi-6-2017-
 1069              		.file 39 "/home/zkmike/.local/share/renesas/e2_studio/toolchains/gcc_arm/gcc-arm-none-eabi-6-2017-
 1070              		.file 40 "/home/zkmike/.local/share/renesas/e2_studio/toolchains/gcc_arm/gcc-arm-none-eabi-6-2017-
 1071              		.file 41 "/home/zkmike/.local/share/renesas/e2_studio/toolchains/gcc_arm/gcc-arm-none-eabi-6-2017-
 1072              		.file 42 "/home/zkmike/.local/share/renesas/e2_studio/toolchains/gcc_arm/gcc-arm-none-eabi-6-2017-
 1073              		.file 43 "/home/zkmike/.local/share/renesas/e2_studio/toolchains/gcc_arm/gcc-arm-none-eabi-6-2017-
 1074              		.file 44 "/home/zkmike/.local/share/renesas/e2_studio/toolchains/gcc_arm/gcc-arm-none-eabi-6-2017-