   1              		.cpu cortex-a9
   2              		.eabi_attribute 28, 1
   3              		.eabi_attribute 20, 1
   4              		.eabi_attribute 21, 1
   5              		.eabi_attribute 23, 3
   6              		.eabi_attribute 24, 1
   7              		.eabi_attribute 25, 1
   8              		.eabi_attribute 26, 1
   9              		.eabi_attribute 30, 1
  10              		.eabi_attribute 34, 0
  11              		.eabi_attribute 18, 4
  12              		.file	"Binarizer.cpp"
  13              		.text
  14              	.Ltext0:
  15              		.cfi_sections	.debug_frame
  16              		.section	.text._Z41__static_initialization_and_destruction_0ii,"ax",%progbits
  17              		.align	2
  18              		.syntax unified
  19              		.arm
  20              		.fpu neon
  22              	_Z41__static_initialization_and_destruction_0ii:
  23              		.fnstart
  24              	.LFB2701:
  25              		.file 1 "../src/zxing_lib/zxing/Binarizer.cpp"
   1:../src/zxing_lib/zxing/Binarizer.cpp **** // -*- mode:c++; tab-width:2; indent-tabs-mode:nil; c-basic-offset:2 -*-
   2:../src/zxing_lib/zxing/Binarizer.cpp **** /*
   3:../src/zxing_lib/zxing/Binarizer.cpp ****  *  Binarizer.cpp
   4:../src/zxing_lib/zxing/Binarizer.cpp ****  *  zxing
   5:../src/zxing_lib/zxing/Binarizer.cpp ****  *
   6:../src/zxing_lib/zxing/Binarizer.cpp ****  *  Created by Ralf Kistner on 16/10/2009.
   7:../src/zxing_lib/zxing/Binarizer.cpp ****  *  Copyright 2008 ZXing authors All rights reserved.
   8:../src/zxing_lib/zxing/Binarizer.cpp ****  *  Modified by Lukasz Warchol on 02/02/2010.
   9:../src/zxing_lib/zxing/Binarizer.cpp ****  *
  10:../src/zxing_lib/zxing/Binarizer.cpp ****  * Licensed under the Apache License, Version 2.0 (the "License");
  11:../src/zxing_lib/zxing/Binarizer.cpp ****  * you may not use this file except in compliance with the License.
  12:../src/zxing_lib/zxing/Binarizer.cpp ****  * You may obtain a copy of the License at
  13:../src/zxing_lib/zxing/Binarizer.cpp ****  *
  14:../src/zxing_lib/zxing/Binarizer.cpp ****  *      http://www.apache.org/licenses/LICENSE-2.0
  15:../src/zxing_lib/zxing/Binarizer.cpp ****  *
  16:../src/zxing_lib/zxing/Binarizer.cpp ****  * Unless required by applicable law or agreed to in writing, software
  17:../src/zxing_lib/zxing/Binarizer.cpp ****  * distributed under the License is distributed on an "AS IS" BASIS,
  18:../src/zxing_lib/zxing/Binarizer.cpp ****  * WITHOUT WARRANTIES OR CONDITIONS OF ANY KIND, either express or implied.
  19:../src/zxing_lib/zxing/Binarizer.cpp ****  * See the License for the specific language governing permissions and
  20:../src/zxing_lib/zxing/Binarizer.cpp ****  * limitations under the License.
  21:../src/zxing_lib/zxing/Binarizer.cpp ****  */
  22:../src/zxing_lib/zxing/Binarizer.cpp **** 
  23:../src/zxing_lib/zxing/Binarizer.cpp **** #include <zxing/Binarizer.h>
  24:../src/zxing_lib/zxing/Binarizer.cpp **** 
  25:../src/zxing_lib/zxing/Binarizer.cpp **** namespace zxing {
  26:../src/zxing_lib/zxing/Binarizer.cpp **** 	
  27:../src/zxing_lib/zxing/Binarizer.cpp **** 	Binarizer::Binarizer(Ref<LuminanceSource> source) : source_(source) {
  28:../src/zxing_lib/zxing/Binarizer.cpp ****   }
  29:../src/zxing_lib/zxing/Binarizer.cpp **** 	
  30:../src/zxing_lib/zxing/Binarizer.cpp **** 	Binarizer::~Binarizer() {
  31:../src/zxing_lib/zxing/Binarizer.cpp **** 	}
  32:../src/zxing_lib/zxing/Binarizer.cpp **** 	
  33:../src/zxing_lib/zxing/Binarizer.cpp **** 	Ref<LuminanceSource> Binarizer::getLuminanceSource() const {
  34:../src/zxing_lib/zxing/Binarizer.cpp **** 		return source_;
  35:../src/zxing_lib/zxing/Binarizer.cpp **** 	}
  36:../src/zxing_lib/zxing/Binarizer.cpp **** 
  37:../src/zxing_lib/zxing/Binarizer.cpp ****   int Binarizer::getWidth() const {
  38:../src/zxing_lib/zxing/Binarizer.cpp ****     return source_->getWidth();
  39:../src/zxing_lib/zxing/Binarizer.cpp ****   }
  40:../src/zxing_lib/zxing/Binarizer.cpp **** 	
  41:../src/zxing_lib/zxing/Binarizer.cpp ****   int Binarizer::getHeight() const {
  42:../src/zxing_lib/zxing/Binarizer.cpp ****     return source_->getHeight();
  43:../src/zxing_lib/zxing/Binarizer.cpp ****   }
  44:../src/zxing_lib/zxing/Binarizer.cpp **** 	
  45:../src/zxing_lib/zxing/Binarizer.cpp **** }
  26              		.loc 1 45 0
  27              		.cfi_startproc
  28              		@ args = 0, pretend = 0, frame = 0
  29              		@ frame_needed = 0, uses_anonymous_args = 0
  30              	.LVL0:
  31 0000 010050E3 		cmp	r0, #1
  32 0004 1EFF2F11 		bxne	lr
  33              		.loc 1 45 0 is_stmt 0 discriminator 1
  34 0008 FF3F0FE3 		movw	r3, #65535
  35 000c 030051E1 		cmp	r1, r3
  36 0010 1EFF2F11 		bxne	lr
  37              		.loc 1 45 0
  38 0014 10402DE9 		push	{r4, lr}
  39              		.cfi_def_cfa_offset 8
  40              		.cfi_offset 4, -8
  41              		.cfi_offset 14, -4
  42              		.file 2 "/home/zkmike/.local/share/renesas/e2_studio/toolchains/gcc_arm/gcc-arm-none-eabi-6-2017-q
   1:/home/zkmike/.local/share/renesas/e2_studio/toolchains/gcc_arm/gcc-arm-none-eabi-6-2017-q2-update/arm-none-eabi/include/c++/6.3.1/iostream **** // Standard iostream objects -*- C++ -*-
   2:/home/zkmike/.local/share/renesas/e2_studio/toolchains/gcc_arm/gcc-arm-none-eabi-6-2017-q2-update/arm-none-eabi/include/c++/6.3.1/iostream **** 
   3:/home/zkmike/.local/share/renesas/e2_studio/toolchains/gcc_arm/gcc-arm-none-eabi-6-2017-q2-update/arm-none-eabi/include/c++/6.3.1/iostream **** // Copyright (C) 1997-2016 Free Software Foundation, Inc.
   4:/home/zkmike/.local/share/renesas/e2_studio/toolchains/gcc_arm/gcc-arm-none-eabi-6-2017-q2-update/arm-none-eabi/include/c++/6.3.1/iostream **** //
   5:/home/zkmike/.local/share/renesas/e2_studio/toolchains/gcc_arm/gcc-arm-none-eabi-6-2017-q2-update/arm-none-eabi/include/c++/6.3.1/iostream **** // This file is part of the GNU ISO C++ Library.  This library is free
   6:/home/zkmike/.local/share/renesas/e2_studio/toolchains/gcc_arm/gcc-arm-none-eabi-6-2017-q2-update/arm-none-eabi/include/c++/6.3.1/iostream **** // software; you can redistribute it and/or modify it under the
   7:/home/zkmike/.local/share/renesas/e2_studio/toolchains/gcc_arm/gcc-arm-none-eabi-6-2017-q2-update/arm-none-eabi/include/c++/6.3.1/iostream **** // terms of the GNU General Public License as published by the
   8:/home/zkmike/.local/share/renesas/e2_studio/toolchains/gcc_arm/gcc-arm-none-eabi-6-2017-q2-update/arm-none-eabi/include/c++/6.3.1/iostream **** // Free Software Foundation; either version 3, or (at your option)
   9:/home/zkmike/.local/share/renesas/e2_studio/toolchains/gcc_arm/gcc-arm-none-eabi-6-2017-q2-update/arm-none-eabi/include/c++/6.3.1/iostream **** // any later version.
  10:/home/zkmike/.local/share/renesas/e2_studio/toolchains/gcc_arm/gcc-arm-none-eabi-6-2017-q2-update/arm-none-eabi/include/c++/6.3.1/iostream **** 
  11:/home/zkmike/.local/share/renesas/e2_studio/toolchains/gcc_arm/gcc-arm-none-eabi-6-2017-q2-update/arm-none-eabi/include/c++/6.3.1/iostream **** // This library is distributed in the hope that it will be useful,
  12:/home/zkmike/.local/share/renesas/e2_studio/toolchains/gcc_arm/gcc-arm-none-eabi-6-2017-q2-update/arm-none-eabi/include/c++/6.3.1/iostream **** // but WITHOUT ANY WARRANTY; without even the implied warranty of
  13:/home/zkmike/.local/share/renesas/e2_studio/toolchains/gcc_arm/gcc-arm-none-eabi-6-2017-q2-update/arm-none-eabi/include/c++/6.3.1/iostream **** // MERCHANTABILITY or FITNESS FOR A PARTICULAR PURPOSE.  See the
  14:/home/zkmike/.local/share/renesas/e2_studio/toolchains/gcc_arm/gcc-arm-none-eabi-6-2017-q2-update/arm-none-eabi/include/c++/6.3.1/iostream **** // GNU General Public License for more details.
  15:/home/zkmike/.local/share/renesas/e2_studio/toolchains/gcc_arm/gcc-arm-none-eabi-6-2017-q2-update/arm-none-eabi/include/c++/6.3.1/iostream **** 
  16:/home/zkmike/.local/share/renesas/e2_studio/toolchains/gcc_arm/gcc-arm-none-eabi-6-2017-q2-update/arm-none-eabi/include/c++/6.3.1/iostream **** // Under Section 7 of GPL version 3, you are granted additional
  17:/home/zkmike/.local/share/renesas/e2_studio/toolchains/gcc_arm/gcc-arm-none-eabi-6-2017-q2-update/arm-none-eabi/include/c++/6.3.1/iostream **** // permissions described in the GCC Runtime Library Exception, version
  18:/home/zkmike/.local/share/renesas/e2_studio/toolchains/gcc_arm/gcc-arm-none-eabi-6-2017-q2-update/arm-none-eabi/include/c++/6.3.1/iostream **** // 3.1, as published by the Free Software Foundation.
  19:/home/zkmike/.local/share/renesas/e2_studio/toolchains/gcc_arm/gcc-arm-none-eabi-6-2017-q2-update/arm-none-eabi/include/c++/6.3.1/iostream **** 
  20:/home/zkmike/.local/share/renesas/e2_studio/toolchains/gcc_arm/gcc-arm-none-eabi-6-2017-q2-update/arm-none-eabi/include/c++/6.3.1/iostream **** // You should have received a copy of the GNU General Public License and
  21:/home/zkmike/.local/share/renesas/e2_studio/toolchains/gcc_arm/gcc-arm-none-eabi-6-2017-q2-update/arm-none-eabi/include/c++/6.3.1/iostream **** // a copy of the GCC Runtime Library Exception along with this program;
  22:/home/zkmike/.local/share/renesas/e2_studio/toolchains/gcc_arm/gcc-arm-none-eabi-6-2017-q2-update/arm-none-eabi/include/c++/6.3.1/iostream **** // see the files COPYING3 and COPYING.RUNTIME respectively.  If not, see
  23:/home/zkmike/.local/share/renesas/e2_studio/toolchains/gcc_arm/gcc-arm-none-eabi-6-2017-q2-update/arm-none-eabi/include/c++/6.3.1/iostream **** // <http://www.gnu.org/licenses/>.
  24:/home/zkmike/.local/share/renesas/e2_studio/toolchains/gcc_arm/gcc-arm-none-eabi-6-2017-q2-update/arm-none-eabi/include/c++/6.3.1/iostream **** 
  25:/home/zkmike/.local/share/renesas/e2_studio/toolchains/gcc_arm/gcc-arm-none-eabi-6-2017-q2-update/arm-none-eabi/include/c++/6.3.1/iostream **** /** @file include/iostream
  26:/home/zkmike/.local/share/renesas/e2_studio/toolchains/gcc_arm/gcc-arm-none-eabi-6-2017-q2-update/arm-none-eabi/include/c++/6.3.1/iostream ****  *  This is a Standard C++ Library header.
  27:/home/zkmike/.local/share/renesas/e2_studio/toolchains/gcc_arm/gcc-arm-none-eabi-6-2017-q2-update/arm-none-eabi/include/c++/6.3.1/iostream ****  */
  28:/home/zkmike/.local/share/renesas/e2_studio/toolchains/gcc_arm/gcc-arm-none-eabi-6-2017-q2-update/arm-none-eabi/include/c++/6.3.1/iostream **** 
  29:/home/zkmike/.local/share/renesas/e2_studio/toolchains/gcc_arm/gcc-arm-none-eabi-6-2017-q2-update/arm-none-eabi/include/c++/6.3.1/iostream **** //
  30:/home/zkmike/.local/share/renesas/e2_studio/toolchains/gcc_arm/gcc-arm-none-eabi-6-2017-q2-update/arm-none-eabi/include/c++/6.3.1/iostream **** // ISO C++ 14882: 27.3  Standard iostream objects
  31:/home/zkmike/.local/share/renesas/e2_studio/toolchains/gcc_arm/gcc-arm-none-eabi-6-2017-q2-update/arm-none-eabi/include/c++/6.3.1/iostream **** //
  32:/home/zkmike/.local/share/renesas/e2_studio/toolchains/gcc_arm/gcc-arm-none-eabi-6-2017-q2-update/arm-none-eabi/include/c++/6.3.1/iostream **** 
  33:/home/zkmike/.local/share/renesas/e2_studio/toolchains/gcc_arm/gcc-arm-none-eabi-6-2017-q2-update/arm-none-eabi/include/c++/6.3.1/iostream **** #ifndef _GLIBCXX_IOSTREAM
  34:/home/zkmike/.local/share/renesas/e2_studio/toolchains/gcc_arm/gcc-arm-none-eabi-6-2017-q2-update/arm-none-eabi/include/c++/6.3.1/iostream **** #define _GLIBCXX_IOSTREAM 1
  35:/home/zkmike/.local/share/renesas/e2_studio/toolchains/gcc_arm/gcc-arm-none-eabi-6-2017-q2-update/arm-none-eabi/include/c++/6.3.1/iostream **** 
  36:/home/zkmike/.local/share/renesas/e2_studio/toolchains/gcc_arm/gcc-arm-none-eabi-6-2017-q2-update/arm-none-eabi/include/c++/6.3.1/iostream **** #pragma GCC system_header
  37:/home/zkmike/.local/share/renesas/e2_studio/toolchains/gcc_arm/gcc-arm-none-eabi-6-2017-q2-update/arm-none-eabi/include/c++/6.3.1/iostream **** 
  38:/home/zkmike/.local/share/renesas/e2_studio/toolchains/gcc_arm/gcc-arm-none-eabi-6-2017-q2-update/arm-none-eabi/include/c++/6.3.1/iostream **** #include <bits/c++config.h>
  39:/home/zkmike/.local/share/renesas/e2_studio/toolchains/gcc_arm/gcc-arm-none-eabi-6-2017-q2-update/arm-none-eabi/include/c++/6.3.1/iostream **** #include <ostream>
  40:/home/zkmike/.local/share/renesas/e2_studio/toolchains/gcc_arm/gcc-arm-none-eabi-6-2017-q2-update/arm-none-eabi/include/c++/6.3.1/iostream **** #include <istream>
  41:/home/zkmike/.local/share/renesas/e2_studio/toolchains/gcc_arm/gcc-arm-none-eabi-6-2017-q2-update/arm-none-eabi/include/c++/6.3.1/iostream **** 
  42:/home/zkmike/.local/share/renesas/e2_studio/toolchains/gcc_arm/gcc-arm-none-eabi-6-2017-q2-update/arm-none-eabi/include/c++/6.3.1/iostream **** namespace std _GLIBCXX_VISIBILITY(default)
  43:/home/zkmike/.local/share/renesas/e2_studio/toolchains/gcc_arm/gcc-arm-none-eabi-6-2017-q2-update/arm-none-eabi/include/c++/6.3.1/iostream **** {
  44:/home/zkmike/.local/share/renesas/e2_studio/toolchains/gcc_arm/gcc-arm-none-eabi-6-2017-q2-update/arm-none-eabi/include/c++/6.3.1/iostream **** _GLIBCXX_BEGIN_NAMESPACE_VERSION
  45:/home/zkmike/.local/share/renesas/e2_studio/toolchains/gcc_arm/gcc-arm-none-eabi-6-2017-q2-update/arm-none-eabi/include/c++/6.3.1/iostream **** 
  46:/home/zkmike/.local/share/renesas/e2_studio/toolchains/gcc_arm/gcc-arm-none-eabi-6-2017-q2-update/arm-none-eabi/include/c++/6.3.1/iostream ****   /**
  47:/home/zkmike/.local/share/renesas/e2_studio/toolchains/gcc_arm/gcc-arm-none-eabi-6-2017-q2-update/arm-none-eabi/include/c++/6.3.1/iostream ****    *  @name Standard Stream Objects
  48:/home/zkmike/.local/share/renesas/e2_studio/toolchains/gcc_arm/gcc-arm-none-eabi-6-2017-q2-update/arm-none-eabi/include/c++/6.3.1/iostream ****    *
  49:/home/zkmike/.local/share/renesas/e2_studio/toolchains/gcc_arm/gcc-arm-none-eabi-6-2017-q2-update/arm-none-eabi/include/c++/6.3.1/iostream ****    *  The &lt;iostream&gt; header declares the eight <em>standard stream
  50:/home/zkmike/.local/share/renesas/e2_studio/toolchains/gcc_arm/gcc-arm-none-eabi-6-2017-q2-update/arm-none-eabi/include/c++/6.3.1/iostream ****    *  objects</em>.  For other declarations, see
  51:/home/zkmike/.local/share/renesas/e2_studio/toolchains/gcc_arm/gcc-arm-none-eabi-6-2017-q2-update/arm-none-eabi/include/c++/6.3.1/iostream ****    *  http://gcc.gnu.org/onlinedocs/libstdc++/manual/io.html
  52:/home/zkmike/.local/share/renesas/e2_studio/toolchains/gcc_arm/gcc-arm-none-eabi-6-2017-q2-update/arm-none-eabi/include/c++/6.3.1/iostream ****    *  and the @link iosfwd I/O forward declarations @endlink
  53:/home/zkmike/.local/share/renesas/e2_studio/toolchains/gcc_arm/gcc-arm-none-eabi-6-2017-q2-update/arm-none-eabi/include/c++/6.3.1/iostream ****    *
  54:/home/zkmike/.local/share/renesas/e2_studio/toolchains/gcc_arm/gcc-arm-none-eabi-6-2017-q2-update/arm-none-eabi/include/c++/6.3.1/iostream ****    *  They are required by default to cooperate with the global C
  55:/home/zkmike/.local/share/renesas/e2_studio/toolchains/gcc_arm/gcc-arm-none-eabi-6-2017-q2-update/arm-none-eabi/include/c++/6.3.1/iostream ****    *  library's @c FILE streams, and to be available during program
  56:/home/zkmike/.local/share/renesas/e2_studio/toolchains/gcc_arm/gcc-arm-none-eabi-6-2017-q2-update/arm-none-eabi/include/c++/6.3.1/iostream ****    *  startup and termination. For more information, see the section of the
  57:/home/zkmike/.local/share/renesas/e2_studio/toolchains/gcc_arm/gcc-arm-none-eabi-6-2017-q2-update/arm-none-eabi/include/c++/6.3.1/iostream ****    *  manual linked to above.
  58:/home/zkmike/.local/share/renesas/e2_studio/toolchains/gcc_arm/gcc-arm-none-eabi-6-2017-q2-update/arm-none-eabi/include/c++/6.3.1/iostream ****   */
  59:/home/zkmike/.local/share/renesas/e2_studio/toolchains/gcc_arm/gcc-arm-none-eabi-6-2017-q2-update/arm-none-eabi/include/c++/6.3.1/iostream ****   //@{
  60:/home/zkmike/.local/share/renesas/e2_studio/toolchains/gcc_arm/gcc-arm-none-eabi-6-2017-q2-update/arm-none-eabi/include/c++/6.3.1/iostream ****   extern istream cin;		/// Linked to standard input
  61:/home/zkmike/.local/share/renesas/e2_studio/toolchains/gcc_arm/gcc-arm-none-eabi-6-2017-q2-update/arm-none-eabi/include/c++/6.3.1/iostream ****   extern ostream cout;		/// Linked to standard output
  62:/home/zkmike/.local/share/renesas/e2_studio/toolchains/gcc_arm/gcc-arm-none-eabi-6-2017-q2-update/arm-none-eabi/include/c++/6.3.1/iostream ****   extern ostream cerr;		/// Linked to standard error (unbuffered)
  63:/home/zkmike/.local/share/renesas/e2_studio/toolchains/gcc_arm/gcc-arm-none-eabi-6-2017-q2-update/arm-none-eabi/include/c++/6.3.1/iostream ****   extern ostream clog;		/// Linked to standard error (buffered)
  64:/home/zkmike/.local/share/renesas/e2_studio/toolchains/gcc_arm/gcc-arm-none-eabi-6-2017-q2-update/arm-none-eabi/include/c++/6.3.1/iostream **** 
  65:/home/zkmike/.local/share/renesas/e2_studio/toolchains/gcc_arm/gcc-arm-none-eabi-6-2017-q2-update/arm-none-eabi/include/c++/6.3.1/iostream **** #ifdef _GLIBCXX_USE_WCHAR_T
  66:/home/zkmike/.local/share/renesas/e2_studio/toolchains/gcc_arm/gcc-arm-none-eabi-6-2017-q2-update/arm-none-eabi/include/c++/6.3.1/iostream ****   extern wistream wcin;		/// Linked to standard input
  67:/home/zkmike/.local/share/renesas/e2_studio/toolchains/gcc_arm/gcc-arm-none-eabi-6-2017-q2-update/arm-none-eabi/include/c++/6.3.1/iostream ****   extern wostream wcout;	/// Linked to standard output
  68:/home/zkmike/.local/share/renesas/e2_studio/toolchains/gcc_arm/gcc-arm-none-eabi-6-2017-q2-update/arm-none-eabi/include/c++/6.3.1/iostream ****   extern wostream wcerr;	/// Linked to standard error (unbuffered)
  69:/home/zkmike/.local/share/renesas/e2_studio/toolchains/gcc_arm/gcc-arm-none-eabi-6-2017-q2-update/arm-none-eabi/include/c++/6.3.1/iostream ****   extern wostream wclog;	/// Linked to standard error (buffered)
  70:/home/zkmike/.local/share/renesas/e2_studio/toolchains/gcc_arm/gcc-arm-none-eabi-6-2017-q2-update/arm-none-eabi/include/c++/6.3.1/iostream **** #endif
  71:/home/zkmike/.local/share/renesas/e2_studio/toolchains/gcc_arm/gcc-arm-none-eabi-6-2017-q2-update/arm-none-eabi/include/c++/6.3.1/iostream ****   //@}
  72:/home/zkmike/.local/share/renesas/e2_studio/toolchains/gcc_arm/gcc-arm-none-eabi-6-2017-q2-update/arm-none-eabi/include/c++/6.3.1/iostream **** 
  73:/home/zkmike/.local/share/renesas/e2_studio/toolchains/gcc_arm/gcc-arm-none-eabi-6-2017-q2-update/arm-none-eabi/include/c++/6.3.1/iostream ****   // For construction of filebuffers for cout, cin, cerr, clog et. al.
  74:/home/zkmike/.local/share/renesas/e2_studio/toolchains/gcc_arm/gcc-arm-none-eabi-6-2017-q2-update/arm-none-eabi/include/c++/6.3.1/iostream ****   static ios_base::Init __ioinit;
  43              		.loc 2 74 0 is_stmt 1
  44 0018 004000E3 		movw	r4, #:lower16:.LANCHOR0
  45 001c 004040E3 		movt	r4, #:upper16:.LANCHOR0
  46 0020 0400A0E1 		mov	r0, r4
  47              	.LVL1:
  48 0024 FEFFFFEB 		bl	_ZNSt8ios_base4InitC1Ev
  49              	.LVL2:
  50 0028 002000E3 		movw	r2, #:lower16:__dso_handle
  51 002c 002040E3 		movt	r2, #:upper16:__dso_handle
  52 0030 001000E3 		movw	r1, #:lower16:_ZNSt8ios_base4InitD1Ev
  53 0034 001040E3 		movt	r1, #:upper16:_ZNSt8ios_base4InitD1Ev
  54 0038 0400A0E1 		mov	r0, r4
  55 003c FEFFFFEB 		bl	__aeabi_atexit
  56              	.LVL3:
  57 0040 1080BDE8 		pop	{r4, pc}
  58              		.cfi_endproc
  59              	.LFE2701:
  60              		.cantunwind
  61              		.fnend
  63              		.section	.text._ZN5zxing9BinarizerC2ENS_3RefINS_15LuminanceSourceEEE,"ax",%progbits
  64              		.align	2
  65              		.global	_ZN5zxing9BinarizerC2ENS_3RefINS_15LuminanceSourceEEE
  66              		.syntax unified
  67              		.arm
  68              		.fpu neon
  70              	_ZN5zxing9BinarizerC2ENS_3RefINS_15LuminanceSourceEEE:
  71              		.fnstart
  72              	.LFB2242:
  27:../src/zxing_lib/zxing/Binarizer.cpp ****   }
  73              		.loc 1 27 0
  74              		.cfi_startproc
  75              		@ args = 0, pretend = 0, frame = 0
  76              		@ frame_needed = 0, uses_anonymous_args = 0
  77              	.LVL4:
  78 0000 70402DE9 		push	{r4, r5, r6, lr}
  79              		.cfi_def_cfa_offset 16
  80              		.cfi_offset 4, -16
  81              		.cfi_offset 5, -12
  82              		.cfi_offset 6, -8
  83              		.cfi_offset 14, -4
  84 0004 0040A0E1 		mov	r4, r0
  85              	.LVL5:
  86              	.LBB52:
  87              	.LBB53:
  88              	.LBB54:
  89              		.file 3 "/home/zkmike/workspace/RZA2M/rza2m_2d_barcode_sample_freertos_gcc/src/zxing_lib/zxing/com
   1:/home/zkmike/workspace/RZA2M/rza2m_2d_barcode_sample_freertos_gcc/src/zxing_lib/zxing/common/Counted.h **** // -*- mode:c++; tab-width:2; indent-tabs-mode:nil; c-basic-offset:2 -*-
   2:/home/zkmike/workspace/RZA2M/rza2m_2d_barcode_sample_freertos_gcc/src/zxing_lib/zxing/common/Counted.h **** #ifndef __COUNTED_H__
   3:/home/zkmike/workspace/RZA2M/rza2m_2d_barcode_sample_freertos_gcc/src/zxing_lib/zxing/common/Counted.h **** #define __COUNTED_H__
   4:/home/zkmike/workspace/RZA2M/rza2m_2d_barcode_sample_freertos_gcc/src/zxing_lib/zxing/common/Counted.h **** 
   5:/home/zkmike/workspace/RZA2M/rza2m_2d_barcode_sample_freertos_gcc/src/zxing_lib/zxing/common/Counted.h **** /*
   6:/home/zkmike/workspace/RZA2M/rza2m_2d_barcode_sample_freertos_gcc/src/zxing_lib/zxing/common/Counted.h ****  *  Copyright 2010 ZXing authors All rights reserved.
   7:/home/zkmike/workspace/RZA2M/rza2m_2d_barcode_sample_freertos_gcc/src/zxing_lib/zxing/common/Counted.h ****  *
   8:/home/zkmike/workspace/RZA2M/rza2m_2d_barcode_sample_freertos_gcc/src/zxing_lib/zxing/common/Counted.h ****  * Licensed under the Apache License, Version 2.0 (the "License");
   9:/home/zkmike/workspace/RZA2M/rza2m_2d_barcode_sample_freertos_gcc/src/zxing_lib/zxing/common/Counted.h ****  * you may not use this file except in compliance with the License.
  10:/home/zkmike/workspace/RZA2M/rza2m_2d_barcode_sample_freertos_gcc/src/zxing_lib/zxing/common/Counted.h ****  * You may obtain a copy of the License at
  11:/home/zkmike/workspace/RZA2M/rza2m_2d_barcode_sample_freertos_gcc/src/zxing_lib/zxing/common/Counted.h ****  *
  12:/home/zkmike/workspace/RZA2M/rza2m_2d_barcode_sample_freertos_gcc/src/zxing_lib/zxing/common/Counted.h ****  *      http://www.apache.org/licenses/LICENSE-2.0
  13:/home/zkmike/workspace/RZA2M/rza2m_2d_barcode_sample_freertos_gcc/src/zxing_lib/zxing/common/Counted.h ****  *
  14:/home/zkmike/workspace/RZA2M/rza2m_2d_barcode_sample_freertos_gcc/src/zxing_lib/zxing/common/Counted.h ****  * Unless required by applicable law or agreed to in writing, software
  15:/home/zkmike/workspace/RZA2M/rza2m_2d_barcode_sample_freertos_gcc/src/zxing_lib/zxing/common/Counted.h ****  * distributed under the License is distributed on an "AS IS" BASIS,
  16:/home/zkmike/workspace/RZA2M/rza2m_2d_barcode_sample_freertos_gcc/src/zxing_lib/zxing/common/Counted.h ****  * WITHOUT WARRANTIES OR CONDITIONS OF ANY KIND, either express or implied.
  17:/home/zkmike/workspace/RZA2M/rza2m_2d_barcode_sample_freertos_gcc/src/zxing_lib/zxing/common/Counted.h ****  * See the License for the specific language governing permissions and
  18:/home/zkmike/workspace/RZA2M/rza2m_2d_barcode_sample_freertos_gcc/src/zxing_lib/zxing/common/Counted.h ****  * limitations under the License.
  19:/home/zkmike/workspace/RZA2M/rza2m_2d_barcode_sample_freertos_gcc/src/zxing_lib/zxing/common/Counted.h ****  */
  20:/home/zkmike/workspace/RZA2M/rza2m_2d_barcode_sample_freertos_gcc/src/zxing_lib/zxing/common/Counted.h **** 
  21:/home/zkmike/workspace/RZA2M/rza2m_2d_barcode_sample_freertos_gcc/src/zxing_lib/zxing/common/Counted.h **** #include <iostream>
  22:/home/zkmike/workspace/RZA2M/rza2m_2d_barcode_sample_freertos_gcc/src/zxing_lib/zxing/common/Counted.h **** 
  23:/home/zkmike/workspace/RZA2M/rza2m_2d_barcode_sample_freertos_gcc/src/zxing_lib/zxing/common/Counted.h **** namespace zxing {
  24:/home/zkmike/workspace/RZA2M/rza2m_2d_barcode_sample_freertos_gcc/src/zxing_lib/zxing/common/Counted.h **** 
  25:/home/zkmike/workspace/RZA2M/rza2m_2d_barcode_sample_freertos_gcc/src/zxing_lib/zxing/common/Counted.h **** /* base class for reference-counted objects */
  26:/home/zkmike/workspace/RZA2M/rza2m_2d_barcode_sample_freertos_gcc/src/zxing_lib/zxing/common/Counted.h **** class Counted {
  27:/home/zkmike/workspace/RZA2M/rza2m_2d_barcode_sample_freertos_gcc/src/zxing_lib/zxing/common/Counted.h **** private:
  28:/home/zkmike/workspace/RZA2M/rza2m_2d_barcode_sample_freertos_gcc/src/zxing_lib/zxing/common/Counted.h ****   unsigned int count_;
  29:/home/zkmike/workspace/RZA2M/rza2m_2d_barcode_sample_freertos_gcc/src/zxing_lib/zxing/common/Counted.h **** public:
  30:/home/zkmike/workspace/RZA2M/rza2m_2d_barcode_sample_freertos_gcc/src/zxing_lib/zxing/common/Counted.h ****   Counted() :
  31:/home/zkmike/workspace/RZA2M/rza2m_2d_barcode_sample_freertos_gcc/src/zxing_lib/zxing/common/Counted.h ****       count_(0) {
  90              		.loc 3 31 0
  91 0008 0030A0E3 		mov	r3, #0
  92 000c 043080E5 		str	r3, [r0, #4]
  93              	.LVL6:
  94              	.LBE54:
  95              	.LBE53:
  27:../src/zxing_lib/zxing/Binarizer.cpp ****   }
  96              		.loc 1 27 0
  97 0010 60209FE5 		ldr	r2, .L12
  98 0014 002080E5 		str	r2, [r0]
  99              	.LVL7:
 100              	.LBB55:
 101              	.LBB56:
  32:/home/zkmike/workspace/RZA2M/rza2m_2d_barcode_sample_freertos_gcc/src/zxing_lib/zxing/common/Counted.h ****   }
  33:/home/zkmike/workspace/RZA2M/rza2m_2d_barcode_sample_freertos_gcc/src/zxing_lib/zxing/common/Counted.h ****   virtual ~Counted() {
  34:/home/zkmike/workspace/RZA2M/rza2m_2d_barcode_sample_freertos_gcc/src/zxing_lib/zxing/common/Counted.h ****   }
  35:/home/zkmike/workspace/RZA2M/rza2m_2d_barcode_sample_freertos_gcc/src/zxing_lib/zxing/common/Counted.h ****   Counted *retain() {
  36:/home/zkmike/workspace/RZA2M/rza2m_2d_barcode_sample_freertos_gcc/src/zxing_lib/zxing/common/Counted.h ****     count_++;
  37:/home/zkmike/workspace/RZA2M/rza2m_2d_barcode_sample_freertos_gcc/src/zxing_lib/zxing/common/Counted.h ****     return this;
  38:/home/zkmike/workspace/RZA2M/rza2m_2d_barcode_sample_freertos_gcc/src/zxing_lib/zxing/common/Counted.h ****   }
  39:/home/zkmike/workspace/RZA2M/rza2m_2d_barcode_sample_freertos_gcc/src/zxing_lib/zxing/common/Counted.h ****   void release() {
  40:/home/zkmike/workspace/RZA2M/rza2m_2d_barcode_sample_freertos_gcc/src/zxing_lib/zxing/common/Counted.h ****     count_--;
  41:/home/zkmike/workspace/RZA2M/rza2m_2d_barcode_sample_freertos_gcc/src/zxing_lib/zxing/common/Counted.h ****     if (count_ == 0) {
  42:/home/zkmike/workspace/RZA2M/rza2m_2d_barcode_sample_freertos_gcc/src/zxing_lib/zxing/common/Counted.h ****       count_ = 0xDEADF001;
  43:/home/zkmike/workspace/RZA2M/rza2m_2d_barcode_sample_freertos_gcc/src/zxing_lib/zxing/common/Counted.h ****       delete this;
  44:/home/zkmike/workspace/RZA2M/rza2m_2d_barcode_sample_freertos_gcc/src/zxing_lib/zxing/common/Counted.h ****     }
  45:/home/zkmike/workspace/RZA2M/rza2m_2d_barcode_sample_freertos_gcc/src/zxing_lib/zxing/common/Counted.h ****   }
  46:/home/zkmike/workspace/RZA2M/rza2m_2d_barcode_sample_freertos_gcc/src/zxing_lib/zxing/common/Counted.h **** 
  47:/home/zkmike/workspace/RZA2M/rza2m_2d_barcode_sample_freertos_gcc/src/zxing_lib/zxing/common/Counted.h **** 
  48:/home/zkmike/workspace/RZA2M/rza2m_2d_barcode_sample_freertos_gcc/src/zxing_lib/zxing/common/Counted.h ****   /* return the current count for denugging purposes or similar */
  49:/home/zkmike/workspace/RZA2M/rza2m_2d_barcode_sample_freertos_gcc/src/zxing_lib/zxing/common/Counted.h ****   int count() const {
  50:/home/zkmike/workspace/RZA2M/rza2m_2d_barcode_sample_freertos_gcc/src/zxing_lib/zxing/common/Counted.h ****     return count_;
  51:/home/zkmike/workspace/RZA2M/rza2m_2d_barcode_sample_freertos_gcc/src/zxing_lib/zxing/common/Counted.h ****   }
  52:/home/zkmike/workspace/RZA2M/rza2m_2d_barcode_sample_freertos_gcc/src/zxing_lib/zxing/common/Counted.h **** };
  53:/home/zkmike/workspace/RZA2M/rza2m_2d_barcode_sample_freertos_gcc/src/zxing_lib/zxing/common/Counted.h **** 
  54:/home/zkmike/workspace/RZA2M/rza2m_2d_barcode_sample_freertos_gcc/src/zxing_lib/zxing/common/Counted.h **** /* counting reference to reference-counted objects */
  55:/home/zkmike/workspace/RZA2M/rza2m_2d_barcode_sample_freertos_gcc/src/zxing_lib/zxing/common/Counted.h **** template<typename T> class Ref {
  56:/home/zkmike/workspace/RZA2M/rza2m_2d_barcode_sample_freertos_gcc/src/zxing_lib/zxing/common/Counted.h **** private:
  57:/home/zkmike/workspace/RZA2M/rza2m_2d_barcode_sample_freertos_gcc/src/zxing_lib/zxing/common/Counted.h **** public:
  58:/home/zkmike/workspace/RZA2M/rza2m_2d_barcode_sample_freertos_gcc/src/zxing_lib/zxing/common/Counted.h ****   T *object_;
  59:/home/zkmike/workspace/RZA2M/rza2m_2d_barcode_sample_freertos_gcc/src/zxing_lib/zxing/common/Counted.h ****   explicit Ref(T *o = 0) :
  60:/home/zkmike/workspace/RZA2M/rza2m_2d_barcode_sample_freertos_gcc/src/zxing_lib/zxing/common/Counted.h ****       object_(0) {
  61:/home/zkmike/workspace/RZA2M/rza2m_2d_barcode_sample_freertos_gcc/src/zxing_lib/zxing/common/Counted.h ****     reset(o);
  62:/home/zkmike/workspace/RZA2M/rza2m_2d_barcode_sample_freertos_gcc/src/zxing_lib/zxing/common/Counted.h ****   }
  63:/home/zkmike/workspace/RZA2M/rza2m_2d_barcode_sample_freertos_gcc/src/zxing_lib/zxing/common/Counted.h ****   Ref(const Ref &other) :
  64:/home/zkmike/workspace/RZA2M/rza2m_2d_barcode_sample_freertos_gcc/src/zxing_lib/zxing/common/Counted.h ****       object_(0) {
 102              		.loc 3 64 0
 103 0018 083080E5 		str	r3, [r0, #8]
  65:/home/zkmike/workspace/RZA2M/rza2m_2d_barcode_sample_freertos_gcc/src/zxing_lib/zxing/common/Counted.h ****     reset(other.object_);
 104              		.loc 3 65 0
 105 001c 005091E5 		ldr	r5, [r1]
 106              	.LVL8:
 107              	.LBB57:
 108              	.LBB58:
  66:/home/zkmike/workspace/RZA2M/rza2m_2d_barcode_sample_freertos_gcc/src/zxing_lib/zxing/common/Counted.h ****   }
  67:/home/zkmike/workspace/RZA2M/rza2m_2d_barcode_sample_freertos_gcc/src/zxing_lib/zxing/common/Counted.h **** 
  68:/home/zkmike/workspace/RZA2M/rza2m_2d_barcode_sample_freertos_gcc/src/zxing_lib/zxing/common/Counted.h ****   template<class Y>
  69:/home/zkmike/workspace/RZA2M/rza2m_2d_barcode_sample_freertos_gcc/src/zxing_lib/zxing/common/Counted.h ****   Ref(const Ref<Y> &other) :
  70:/home/zkmike/workspace/RZA2M/rza2m_2d_barcode_sample_freertos_gcc/src/zxing_lib/zxing/common/Counted.h ****       object_(0) {
  71:/home/zkmike/workspace/RZA2M/rza2m_2d_barcode_sample_freertos_gcc/src/zxing_lib/zxing/common/Counted.h ****     reset(other.object_);
  72:/home/zkmike/workspace/RZA2M/rza2m_2d_barcode_sample_freertos_gcc/src/zxing_lib/zxing/common/Counted.h ****   }
  73:/home/zkmike/workspace/RZA2M/rza2m_2d_barcode_sample_freertos_gcc/src/zxing_lib/zxing/common/Counted.h **** 
  74:/home/zkmike/workspace/RZA2M/rza2m_2d_barcode_sample_freertos_gcc/src/zxing_lib/zxing/common/Counted.h ****   ~Ref() {
  75:/home/zkmike/workspace/RZA2M/rza2m_2d_barcode_sample_freertos_gcc/src/zxing_lib/zxing/common/Counted.h ****     if (object_) {
  76:/home/zkmike/workspace/RZA2M/rza2m_2d_barcode_sample_freertos_gcc/src/zxing_lib/zxing/common/Counted.h ****       object_->release();
  77:/home/zkmike/workspace/RZA2M/rza2m_2d_barcode_sample_freertos_gcc/src/zxing_lib/zxing/common/Counted.h ****     }
  78:/home/zkmike/workspace/RZA2M/rza2m_2d_barcode_sample_freertos_gcc/src/zxing_lib/zxing/common/Counted.h ****   }
  79:/home/zkmike/workspace/RZA2M/rza2m_2d_barcode_sample_freertos_gcc/src/zxing_lib/zxing/common/Counted.h **** 
  80:/home/zkmike/workspace/RZA2M/rza2m_2d_barcode_sample_freertos_gcc/src/zxing_lib/zxing/common/Counted.h ****   void reset(T *o) {
  81:/home/zkmike/workspace/RZA2M/rza2m_2d_barcode_sample_freertos_gcc/src/zxing_lib/zxing/common/Counted.h ****     if (o) {
 109              		.loc 3 81 0
 110 0020 030055E1 		cmp	r5, r3
 111              	.LVL9:
 112              	.LBB59:
 113              	.LBB60:
  36:/home/zkmike/workspace/RZA2M/rza2m_2d_barcode_sample_freertos_gcc/src/zxing_lib/zxing/common/Counted.h ****     return this;
 114              		.loc 3 36 0
 115 0024 04309515 		ldrne	r3, [r5, #4]
 116 0028 01308312 		addne	r3, r3, #1
 117 002c 04308515 		strne	r3, [r5, #4]
 118              	.LVL10:
 119              	.L8:
 120              	.LBE60:
 121              	.LBE59:
  82:/home/zkmike/workspace/RZA2M/rza2m_2d_barcode_sample_freertos_gcc/src/zxing_lib/zxing/common/Counted.h ****       o->retain();
  83:/home/zkmike/workspace/RZA2M/rza2m_2d_barcode_sample_freertos_gcc/src/zxing_lib/zxing/common/Counted.h ****     }
  84:/home/zkmike/workspace/RZA2M/rza2m_2d_barcode_sample_freertos_gcc/src/zxing_lib/zxing/common/Counted.h ****     if (object_ != 0) {
 122              		.loc 3 84 0
 123 0030 080094E5 		ldr	r0, [r4, #8]
 124              	.LVL11:
 125 0034 000050E3 		cmp	r0, #0
 126 0038 0400000A 		beq	.L9
 127              	.LVL12:
 128              	.LBB61:
 129              	.LBB62:
  40:/home/zkmike/workspace/RZA2M/rza2m_2d_barcode_sample_freertos_gcc/src/zxing_lib/zxing/common/Counted.h ****     if (count_ == 0) {
 130              		.loc 3 40 0
 131 003c 043090E5 		ldr	r3, [r0, #4]
 132 0040 013043E2 		sub	r3, r3, #1
 133 0044 043080E5 		str	r3, [r0, #4]
  41:/home/zkmike/workspace/RZA2M/rza2m_2d_barcode_sample_freertos_gcc/src/zxing_lib/zxing/common/Counted.h ****       count_ = 0xDEADF001;
 134              		.loc 3 41 0
 135 0048 000053E3 		cmp	r3, #0
 136 004c 0200000A 		beq	.L11
 137              	.LVL13:
 138              	.L9:
 139              	.LBE62:
 140              	.LBE61:
  85:/home/zkmike/workspace/RZA2M/rza2m_2d_barcode_sample_freertos_gcc/src/zxing_lib/zxing/common/Counted.h ****       object_->release();
  86:/home/zkmike/workspace/RZA2M/rza2m_2d_barcode_sample_freertos_gcc/src/zxing_lib/zxing/common/Counted.h ****     }
  87:/home/zkmike/workspace/RZA2M/rza2m_2d_barcode_sample_freertos_gcc/src/zxing_lib/zxing/common/Counted.h ****     object_ = o;
 141              		.loc 3 87 0
 142 0050 085084E5 		str	r5, [r4, #8]
 143              	.LVL14:
 144              	.LBE58:
 145              	.LBE57:
 146              	.LBE56:
 147              	.LBE55:
 148              	.LBE52:
  28:../src/zxing_lib/zxing/Binarizer.cpp **** 	
 149              		.loc 1 28 0
 150 0054 0400A0E1 		mov	r0, r4
 151 0058 7080BDE8 		pop	{r4, r5, r6, pc}
 152              	.LVL15:
 153              	.L11:
 154              	.LBB69:
 155              	.LBB68:
 156              	.LBB67:
 157              	.LBB66:
 158              	.LBB65:
 159              	.LBB64:
 160              	.LBB63:
  42:/home/zkmike/workspace/RZA2M/rza2m_2d_barcode_sample_freertos_gcc/src/zxing_lib/zxing/common/Counted.h ****       delete this;
 161              		.loc 3 42 0
 162 005c 01300FE3 		movw	r3, #61441
 163 0060 AD3E4DE3 		movt	r3, 57005
 164 0064 043080E5 		str	r3, [r0, #4]
  43:/home/zkmike/workspace/RZA2M/rza2m_2d_barcode_sample_freertos_gcc/src/zxing_lib/zxing/common/Counted.h ****     }
 165              		.loc 3 43 0
 166 0068 003090E5 		ldr	r3, [r0]
 167 006c 043093E5 		ldr	r3, [r3, #4]
 168 0070 33FF2FE1 		blx	r3
 169              	.LVL16:
 170 0074 F5FFFFEA 		b	.L9
 171              	.L13:
 172              		.align	2
 173              	.L12:
 174 0078 08000000 		.word	.LANCHOR1+8
 175              	.LBE63:
 176              	.LBE64:
 177              	.LBE65:
 178              	.LBE66:
 179              	.LBE67:
 180              	.LBE68:
 181              	.LBE69:
 182              		.cfi_endproc
 183              	.LFE2242:
 184              		.cantunwind
 185              		.fnend
 187              		.global	_ZN5zxing9BinarizerC1ENS_3RefINS_15LuminanceSourceEEE
 188              		.set	_ZN5zxing9BinarizerC1ENS_3RefINS_15LuminanceSourceEEE,_ZN5zxing9BinarizerC2ENS_3RefINS_15Lumi
 189              		.section	.text._ZN5zxing9BinarizerD2Ev,"ax",%progbits
 190              		.align	2
 191              		.global	_ZN5zxing9BinarizerD2Ev
 192              		.syntax unified
 193              		.arm
 194              		.fpu neon
 196              	_ZN5zxing9BinarizerD2Ev:
 197              		.fnstart
 198              	.LFB2245:
  30:../src/zxing_lib/zxing/Binarizer.cpp **** 	}
 199              		.loc 1 30 0
 200              		.cfi_startproc
 201              		@ args = 0, pretend = 0, frame = 0
 202              		@ frame_needed = 0, uses_anonymous_args = 0
 203              	.LVL17:
 204 0000 10402DE9 		push	{r4, lr}
 205              		.cfi_def_cfa_offset 8
 206              		.cfi_offset 4, -8
 207              		.cfi_offset 14, -4
 208 0004 0040A0E1 		mov	r4, r0
 209              	.LBB70:
  30:../src/zxing_lib/zxing/Binarizer.cpp **** 	}
 210              		.loc 1 30 0
 211 0008 44309FE5 		ldr	r3, .L18
 212 000c 003080E5 		str	r3, [r0]
 213              	.LVL18:
 214              	.LBB71:
 215              	.LBB72:
  75:/home/zkmike/workspace/RZA2M/rza2m_2d_barcode_sample_freertos_gcc/src/zxing_lib/zxing/common/Counted.h ****       object_->release();
 216              		.loc 3 75 0
 217 0010 080090E5 		ldr	r0, [r0, #8]
 218              	.LVL19:
 219 0014 000050E3 		cmp	r0, #0
 220 0018 0400000A 		beq	.L15
 221              	.LVL20:
 222              	.LBB73:
 223              	.LBB74:
  40:/home/zkmike/workspace/RZA2M/rza2m_2d_barcode_sample_freertos_gcc/src/zxing_lib/zxing/common/Counted.h ****     if (count_ == 0) {
 224              		.loc 3 40 0
 225 001c 043090E5 		ldr	r3, [r0, #4]
 226 0020 013043E2 		sub	r3, r3, #1
 227 0024 043080E5 		str	r3, [r0, #4]
  41:/home/zkmike/workspace/RZA2M/rza2m_2d_barcode_sample_freertos_gcc/src/zxing_lib/zxing/common/Counted.h ****       count_ = 0xDEADF001;
 228              		.loc 3 41 0
 229 0028 000053E3 		cmp	r3, #0
 230 002c 0100000A 		beq	.L17
 231              	.LVL21:
 232              	.L15:
 233              	.LBE74:
 234              	.LBE73:
 235              	.LBE72:
 236              	.LBE71:
 237              	.LBE70:
  31:../src/zxing_lib/zxing/Binarizer.cpp **** 	
 238              		.loc 1 31 0
 239 0030 0400A0E1 		mov	r0, r4
 240 0034 1080BDE8 		pop	{r4, pc}
 241              	.LVL22:
 242              	.L17:
 243              	.LBB79:
 244              	.LBB78:
 245              	.LBB77:
 246              	.LBB76:
 247              	.LBB75:
  42:/home/zkmike/workspace/RZA2M/rza2m_2d_barcode_sample_freertos_gcc/src/zxing_lib/zxing/common/Counted.h ****       delete this;
 248              		.loc 3 42 0
 249 0038 01300FE3 		movw	r3, #61441
 250 003c AD3E4DE3 		movt	r3, 57005
 251 0040 043080E5 		str	r3, [r0, #4]
  43:/home/zkmike/workspace/RZA2M/rza2m_2d_barcode_sample_freertos_gcc/src/zxing_lib/zxing/common/Counted.h ****     }
 252              		.loc 3 43 0
 253 0044 003090E5 		ldr	r3, [r0]
 254 0048 043093E5 		ldr	r3, [r3, #4]
 255 004c 33FF2FE1 		blx	r3
 256              	.LVL23:
 257 0050 F6FFFFEA 		b	.L15
 258              	.L19:
 259              		.align	2
 260              	.L18:
 261 0054 08000000 		.word	.LANCHOR1+8
 262              	.LBE75:
 263              	.LBE76:
 264              	.LBE77:
 265              	.LBE78:
 266              	.LBE79:
 267              		.cfi_endproc
 268              	.LFE2245:
 269              		.cantunwind
 270              		.fnend
 272              		.global	_ZN5zxing9BinarizerD1Ev
 273              		.set	_ZN5zxing9BinarizerD1Ev,_ZN5zxing9BinarizerD2Ev
 274              		.section	.text._ZN5zxing9BinarizerD0Ev,"ax",%progbits
 275              		.align	2
 276              		.global	_ZN5zxing9BinarizerD0Ev
 277              		.syntax unified
 278              		.arm
 279              		.fpu neon
 281              	_ZN5zxing9BinarizerD0Ev:
 282              		.fnstart
 283              	.LFB2247:
  30:../src/zxing_lib/zxing/Binarizer.cpp **** 	}
 284              		.loc 1 30 0
 285              		.cfi_startproc
 286              		@ args = 0, pretend = 0, frame = 0
 287              		@ frame_needed = 0, uses_anonymous_args = 0
 288              	.LVL24:
 289 0000 10402DE9 		push	{r4, lr}
 290              		.cfi_def_cfa_offset 8
 291              		.cfi_offset 4, -8
 292              		.cfi_offset 14, -4
 293 0004 0040A0E1 		mov	r4, r0
  31:../src/zxing_lib/zxing/Binarizer.cpp **** 	
 294              		.loc 1 31 0
 295 0008 FEFFFFEB 		bl	_ZN5zxing9BinarizerD1Ev
 296              	.LVL25:
 297 000c 0C10A0E3 		mov	r1, #12
 298 0010 0400A0E1 		mov	r0, r4
 299 0014 FEFFFFEB 		bl	_ZdlPvj
 300              	.LVL26:
 301 0018 0400A0E1 		mov	r0, r4
 302 001c 1080BDE8 		pop	{r4, pc}
 303              		.cfi_endproc
 304              	.LFE2247:
 305              		.cantunwind
 306              		.fnend
 308              		.section	.text._ZNK5zxing9Binarizer18getLuminanceSourceEv,"ax",%progbits
 309              		.align	2
 310              		.global	_ZNK5zxing9Binarizer18getLuminanceSourceEv
 311              		.syntax unified
 312              		.arm
 313              		.fpu neon
 315              	_ZNK5zxing9Binarizer18getLuminanceSourceEv:
 316              		.fnstart
 317              	.LFB2248:
  33:../src/zxing_lib/zxing/Binarizer.cpp **** 		return source_;
 318              		.loc 1 33 0
 319              		.cfi_startproc
 320              		@ args = 0, pretend = 0, frame = 0
 321              		@ frame_needed = 0, uses_anonymous_args = 0
 322              	.LVL27:
 323 0000 70402DE9 		push	{r4, r5, r6, lr}
 324              		.cfi_def_cfa_offset 16
 325              		.cfi_offset 4, -16
 326              		.cfi_offset 5, -12
 327              		.cfi_offset 6, -8
 328              		.cfi_offset 14, -4
 329 0004 0040A0E1 		mov	r4, r0
 330              	.LVL28:
 331              	.LBB88:
 332              	.LBB89:
  64:/home/zkmike/workspace/RZA2M/rza2m_2d_barcode_sample_freertos_gcc/src/zxing_lib/zxing/common/Counted.h ****     reset(other.object_);
 333              		.loc 3 64 0
 334 0008 0030A0E3 		mov	r3, #0
 335 000c 003080E5 		str	r3, [r0]
  65:/home/zkmike/workspace/RZA2M/rza2m_2d_barcode_sample_freertos_gcc/src/zxing_lib/zxing/common/Counted.h ****   }
 336              		.loc 3 65 0
 337 0010 085091E5 		ldr	r5, [r1, #8]
 338              	.LVL29:
 339              	.LBB90:
 340              	.LBB91:
  81:/home/zkmike/workspace/RZA2M/rza2m_2d_barcode_sample_freertos_gcc/src/zxing_lib/zxing/common/Counted.h ****       o->retain();
 341              		.loc 3 81 0
 342 0014 030055E1 		cmp	r5, r3
 343              	.LVL30:
 344              	.LBB92:
 345              	.LBB93:
  36:/home/zkmike/workspace/RZA2M/rza2m_2d_barcode_sample_freertos_gcc/src/zxing_lib/zxing/common/Counted.h ****     return this;
 346              		.loc 3 36 0
 347 0018 04309515 		ldrne	r3, [r5, #4]
 348 001c 01308312 		addne	r3, r3, #1
 349 0020 04308515 		strne	r3, [r5, #4]
 350              	.LVL31:
 351              	.L23:
 352              	.LBE93:
 353              	.LBE92:
  84:/home/zkmike/workspace/RZA2M/rza2m_2d_barcode_sample_freertos_gcc/src/zxing_lib/zxing/common/Counted.h ****       object_->release();
 354              		.loc 3 84 0
 355 0024 000094E5 		ldr	r0, [r4]
 356              	.LVL32:
 357 0028 000050E3 		cmp	r0, #0
 358 002c 0400000A 		beq	.L24
 359              	.LVL33:
 360              	.LBB94:
 361              	.LBB95:
  40:/home/zkmike/workspace/RZA2M/rza2m_2d_barcode_sample_freertos_gcc/src/zxing_lib/zxing/common/Counted.h ****     if (count_ == 0) {
 362              		.loc 3 40 0
 363 0030 043090E5 		ldr	r3, [r0, #4]
 364 0034 013043E2 		sub	r3, r3, #1
 365 0038 043080E5 		str	r3, [r0, #4]
  41:/home/zkmike/workspace/RZA2M/rza2m_2d_barcode_sample_freertos_gcc/src/zxing_lib/zxing/common/Counted.h ****       count_ = 0xDEADF001;
 366              		.loc 3 41 0
 367 003c 000053E3 		cmp	r3, #0
 368 0040 0200000A 		beq	.L26
 369              	.LVL34:
 370              	.L24:
 371              	.LBE95:
 372              	.LBE94:
 373              		.loc 3 87 0
 374 0044 005084E5 		str	r5, [r4]
 375              	.LVL35:
 376              	.LBE91:
 377              	.LBE90:
 378              	.LBE89:
 379              	.LBE88:
  35:../src/zxing_lib/zxing/Binarizer.cpp **** 
 380              		.loc 1 35 0
 381 0048 0400A0E1 		mov	r0, r4
 382 004c 7080BDE8 		pop	{r4, r5, r6, pc}
 383              	.LVL36:
 384              	.L26:
 385              	.LBB101:
 386              	.LBB100:
 387              	.LBB99:
 388              	.LBB98:
 389              	.LBB97:
 390              	.LBB96:
  42:/home/zkmike/workspace/RZA2M/rza2m_2d_barcode_sample_freertos_gcc/src/zxing_lib/zxing/common/Counted.h ****       delete this;
 391              		.loc 3 42 0
 392 0050 01300FE3 		movw	r3, #61441
 393 0054 AD3E4DE3 		movt	r3, 57005
 394 0058 043080E5 		str	r3, [r0, #4]
  43:/home/zkmike/workspace/RZA2M/rza2m_2d_barcode_sample_freertos_gcc/src/zxing_lib/zxing/common/Counted.h ****     }
 395              		.loc 3 43 0
 396 005c 003090E5 		ldr	r3, [r0]
 397 0060 043093E5 		ldr	r3, [r3, #4]
 398 0064 33FF2FE1 		blx	r3
 399              	.LVL37:
 400 0068 F5FFFFEA 		b	.L24
 401              	.LBE96:
 402              	.LBE97:
 403              	.LBE98:
 404              	.LBE99:
 405              	.LBE100:
 406              	.LBE101:
 407              		.cfi_endproc
 408              	.LFE2248:
 409              		.cantunwind
 410              		.fnend
 412              		.section	.text._ZNK5zxing9Binarizer8getWidthEv,"ax",%progbits
 413              		.align	2
 414              		.global	_ZNK5zxing9Binarizer8getWidthEv
 415              		.syntax unified
 416              		.arm
 417              		.fpu neon
 419              	_ZNK5zxing9Binarizer8getWidthEv:
 420              		.fnstart
 421              	.LFB2249:
  37:../src/zxing_lib/zxing/Binarizer.cpp ****     return source_->getWidth();
 422              		.loc 1 37 0
 423              		.cfi_startproc
 424              		@ args = 0, pretend = 0, frame = 0
 425              		@ frame_needed = 0, uses_anonymous_args = 0
 426              		@ link register save eliminated.
 427              	.LVL38:
 428              	.LBB102:
 429              	.LBB103:
  88:/home/zkmike/workspace/RZA2M/rza2m_2d_barcode_sample_freertos_gcc/src/zxing_lib/zxing/common/Counted.h ****   }
  89:/home/zkmike/workspace/RZA2M/rza2m_2d_barcode_sample_freertos_gcc/src/zxing_lib/zxing/common/Counted.h ****   Ref& operator=(const Ref &other) {
  90:/home/zkmike/workspace/RZA2M/rza2m_2d_barcode_sample_freertos_gcc/src/zxing_lib/zxing/common/Counted.h ****     reset(other.object_);
  91:/home/zkmike/workspace/RZA2M/rza2m_2d_barcode_sample_freertos_gcc/src/zxing_lib/zxing/common/Counted.h ****     return *this;
  92:/home/zkmike/workspace/RZA2M/rza2m_2d_barcode_sample_freertos_gcc/src/zxing_lib/zxing/common/Counted.h ****   }
  93:/home/zkmike/workspace/RZA2M/rza2m_2d_barcode_sample_freertos_gcc/src/zxing_lib/zxing/common/Counted.h ****   template<class Y>
  94:/home/zkmike/workspace/RZA2M/rza2m_2d_barcode_sample_freertos_gcc/src/zxing_lib/zxing/common/Counted.h ****   Ref& operator=(const Ref<Y> &other) {
  95:/home/zkmike/workspace/RZA2M/rza2m_2d_barcode_sample_freertos_gcc/src/zxing_lib/zxing/common/Counted.h ****     reset(other.object_);
  96:/home/zkmike/workspace/RZA2M/rza2m_2d_barcode_sample_freertos_gcc/src/zxing_lib/zxing/common/Counted.h ****     return *this;
  97:/home/zkmike/workspace/RZA2M/rza2m_2d_barcode_sample_freertos_gcc/src/zxing_lib/zxing/common/Counted.h ****   }
  98:/home/zkmike/workspace/RZA2M/rza2m_2d_barcode_sample_freertos_gcc/src/zxing_lib/zxing/common/Counted.h ****   Ref& operator=(T* o) {
  99:/home/zkmike/workspace/RZA2M/rza2m_2d_barcode_sample_freertos_gcc/src/zxing_lib/zxing/common/Counted.h ****     reset(o);
 100:/home/zkmike/workspace/RZA2M/rza2m_2d_barcode_sample_freertos_gcc/src/zxing_lib/zxing/common/Counted.h ****     return *this;
 101:/home/zkmike/workspace/RZA2M/rza2m_2d_barcode_sample_freertos_gcc/src/zxing_lib/zxing/common/Counted.h ****   }
 102:/home/zkmike/workspace/RZA2M/rza2m_2d_barcode_sample_freertos_gcc/src/zxing_lib/zxing/common/Counted.h ****   template<class Y>
 103:/home/zkmike/workspace/RZA2M/rza2m_2d_barcode_sample_freertos_gcc/src/zxing_lib/zxing/common/Counted.h ****   Ref& operator=(Y* o) {
 104:/home/zkmike/workspace/RZA2M/rza2m_2d_barcode_sample_freertos_gcc/src/zxing_lib/zxing/common/Counted.h ****     reset(o);
 105:/home/zkmike/workspace/RZA2M/rza2m_2d_barcode_sample_freertos_gcc/src/zxing_lib/zxing/common/Counted.h ****     return *this;
 106:/home/zkmike/workspace/RZA2M/rza2m_2d_barcode_sample_freertos_gcc/src/zxing_lib/zxing/common/Counted.h ****   }
 107:/home/zkmike/workspace/RZA2M/rza2m_2d_barcode_sample_freertos_gcc/src/zxing_lib/zxing/common/Counted.h **** 
 108:/home/zkmike/workspace/RZA2M/rza2m_2d_barcode_sample_freertos_gcc/src/zxing_lib/zxing/common/Counted.h ****   T& operator*() {
 109:/home/zkmike/workspace/RZA2M/rza2m_2d_barcode_sample_freertos_gcc/src/zxing_lib/zxing/common/Counted.h ****     return *object_;
 110:/home/zkmike/workspace/RZA2M/rza2m_2d_barcode_sample_freertos_gcc/src/zxing_lib/zxing/common/Counted.h ****   }
 111:/home/zkmike/workspace/RZA2M/rza2m_2d_barcode_sample_freertos_gcc/src/zxing_lib/zxing/common/Counted.h ****   T* operator->() const {
 112:/home/zkmike/workspace/RZA2M/rza2m_2d_barcode_sample_freertos_gcc/src/zxing_lib/zxing/common/Counted.h ****     return object_;
 430              		.loc 3 112 0
 431 0000 083090E5 		ldr	r3, [r0, #8]
 432              	.LVL39:
 433              	.LBE103:
 434              	.LBE102:
  39:../src/zxing_lib/zxing/Binarizer.cpp **** 	
 435              		.loc 1 39 0
 436 0004 080093E5 		ldr	r0, [r3, #8]
 437              	.LVL40:
 438 0008 1EFF2FE1 		bx	lr
 439              		.cfi_endproc
 440              	.LFE2249:
 441              		.cantunwind
 442              		.fnend
 444              		.section	.text._ZNK5zxing9Binarizer9getHeightEv,"ax",%progbits
 445              		.align	2
 446              		.global	_ZNK5zxing9Binarizer9getHeightEv
 447              		.syntax unified
 448              		.arm
 449              		.fpu neon
 451              	_ZNK5zxing9Binarizer9getHeightEv:
 452              		.fnstart
 453              	.LFB2250:
  41:../src/zxing_lib/zxing/Binarizer.cpp ****     return source_->getHeight();
 454              		.loc 1 41 0
 455              		.cfi_startproc
 456              		@ args = 0, pretend = 0, frame = 0
 457              		@ frame_needed = 0, uses_anonymous_args = 0
 458              		@ link register save eliminated.
 459              	.LVL41:
 460              	.LBB104:
 461              	.LBB105:
 462              		.loc 3 112 0
 463 0000 083090E5 		ldr	r3, [r0, #8]
 464              	.LVL42:
 465              	.LBE105:
 466              	.LBE104:
  43:../src/zxing_lib/zxing/Binarizer.cpp **** 	
 467              		.loc 1 43 0
 468 0004 0C0093E5 		ldr	r0, [r3, #12]
 469              	.LVL43:
 470 0008 1EFF2FE1 		bx	lr
 471              		.cfi_endproc
 472              	.LFE2250:
 473              		.cantunwind
 474              		.fnend
 476              		.section	.text._GLOBAL__sub_I__ZN5zxing9BinarizerC2ENS_3RefINS_15LuminanceSourceEEE,"ax",%progbits
 477              		.align	2
 478              		.syntax unified
 479              		.arm
 480              		.fpu neon
 482              	_GLOBAL__sub_I__ZN5zxing9BinarizerC2ENS_3RefINS_15LuminanceSourceEEE:
 483              		.fnstart
 484              	.LFB2702:
 485              		.loc 1 45 0
 486              		.cfi_startproc
 487              		@ args = 0, pretend = 0, frame = 0
 488              		@ frame_needed = 0, uses_anonymous_args = 0
 489 0000 10402DE9 		push	{r4, lr}
 490              		.cfi_def_cfa_offset 8
 491              		.cfi_offset 4, -8
 492              		.cfi_offset 14, -4
 493              		.loc 1 45 0
 494 0004 FF1F0FE3 		movw	r1, #65535
 495 0008 0100A0E3 		mov	r0, #1
 496 000c FEFFFFEB 		bl	_Z41__static_initialization_and_destruction_0ii
 497              	.LVL44:
 498 0010 1080BDE8 		pop	{r4, pc}
 499              		.cfi_endproc
 500              	.LFE2702:
 501              		.cantunwind
 502              		.fnend
 504              		.section	.init_array,"aw",%init_array
 505              		.align	2
 506 0000 00000000 		.word	_GLOBAL__sub_I__ZN5zxing9BinarizerC2ENS_3RefINS_15LuminanceSourceEEE(target1)
 507              		.weak	_ZTSN5zxing7CountedE
 508              		.section	.rodata._ZTSN5zxing7CountedE,"aG",%progbits,_ZTSN5zxing7CountedE,comdat
 509              		.align	2
 512              	_ZTSN5zxing7CountedE:
 513 0000 4E357A78 		.ascii	"N5zxing7CountedE\000"
 513      696E6737 
 513      436F756E 
 513      74656445 
 513      00
 514              		.weak	_ZTIN5zxing7CountedE
 515              		.section	.rodata._ZTIN5zxing7CountedE,"aG",%progbits,_ZTIN5zxing7CountedE,comdat
 516              		.align	2
 519              	_ZTIN5zxing7CountedE:
 520 0000 08000000 		.word	_ZTVN10__cxxabiv117__class_type_infoE+8
 521 0004 00000000 		.word	_ZTSN5zxing7CountedE
 522              		.global	_ZTSN5zxing9BinarizerE
 523              		.global	_ZTIN5zxing9BinarizerE
 524              		.global	_ZTVN5zxing9BinarizerE
 525              		.section	.bss._ZStL8__ioinit,"aw",%nobits
 526              		.align	2
 527              		.set	.LANCHOR0,. + 0
 530              	_ZStL8__ioinit:
 531 0000 00       		.space	1
 532              		.section	.rodata._ZTIN5zxing9BinarizerE,"a",%progbits
 533              		.align	2
 536              	_ZTIN5zxing9BinarizerE:
 537 0000 08000000 		.word	_ZTVN10__cxxabiv120__si_class_type_infoE+8
 538 0004 00000000 		.word	_ZTSN5zxing9BinarizerE
 539 0008 00000000 		.word	_ZTIN5zxing7CountedE
 540              		.section	.rodata._ZTSN5zxing9BinarizerE,"a",%progbits
 541              		.align	2
 544              	_ZTSN5zxing9BinarizerE:
 545 0000 4E357A78 		.ascii	"N5zxing9BinarizerE\000"
 545      696E6739 
 545      42696E61 
 545      72697A65 
 545      724500
 546              		.section	.rodata._ZTVN5zxing9BinarizerE,"a",%progbits
 547              		.align	2
 548              		.set	.LANCHOR1,. + 0
 551              	_ZTVN5zxing9BinarizerE:
 552 0000 00000000 		.word	0
 553 0004 00000000 		.word	_ZTIN5zxing9BinarizerE
 554 0008 00000000 		.word	0
 555 000c 00000000 		.word	0
 556 0010 00000000 		.word	__cxa_pure_virtual
 557 0014 00000000 		.word	__cxa_pure_virtual
 558 0018 00000000 		.word	__cxa_pure_virtual
 559              		.text
 560              	.Letext0:
 561              		.file 4 "/home/zkmike/.local/share/renesas/e2_studio/toolchains/gcc_arm/gcc-arm-none-eabi-6-2017-q
 562              		.file 5 "/home/zkmike/.local/share/renesas/e2_studio/toolchains/gcc_arm/gcc-arm-none-eabi-6-2017-q
 563              		.file 6 "/home/zkmike/.local/share/renesas/e2_studio/toolchains/gcc_arm/gcc-arm-none-eabi-6-2017-q
 564              		.file 7 "/home/zkmike/.local/share/renesas/e2_studio/toolchains/gcc_arm/gcc-arm-none-eabi-6-2017-q
 565              		.file 8 "/home/zkmike/.local/share/renesas/e2_studio/toolchains/gcc_arm/gcc-arm-none-eabi-6-2017-q
 566              		.file 9 "/home/zkmike/.local/share/renesas/e2_studio/toolchains/gcc_arm/gcc-arm-none-eabi-6-2017-q
 567              		.file 10 "/home/zkmike/.local/share/renesas/e2_studio/toolchains/gcc_arm/gcc-arm-none-eabi-6-2017-
 568              		.file 11 "/home/zkmike/.local/share/renesas/e2_studio/toolchains/gcc_arm/gcc-arm-none-eabi-6-2017-
 569              		.file 12 "/home/zkmike/.local/share/renesas/e2_studio/toolchains/gcc_arm/gcc-arm-none-eabi-6-2017-
 570              		.file 13 "/home/zkmike/.local/share/renesas/e2_studio/toolchains/gcc_arm/gcc-arm-none-eabi-6-2017-
 571              		.file 14 "/home/zkmike/.local/share/renesas/e2_studio/toolchains/gcc_arm/gcc-arm-none-eabi-6-2017-
 572              		.file 15 "/home/zkmike/.local/share/renesas/e2_studio/toolchains/gcc_arm/gcc-arm-none-eabi-6-2017-
 573              		.file 16 "/home/zkmike/.local/share/renesas/e2_studio/toolchains/gcc_arm/gcc-arm-none-eabi-6-2017-
 574              		.file 17 "/home/zkmike/.local/share/renesas/e2_studio/toolchains/gcc_arm/gcc-arm-none-eabi-6-2017-
 575              		.file 18 "/home/zkmike/.local/share/renesas/e2_studio/toolchains/gcc_arm/gcc-arm-none-eabi-6-2017-
 576              		.file 19 "/home/zkmike/.local/share/renesas/e2_studio/toolchains/gcc_arm/gcc-arm-none-eabi-6-2017-
 577              		.file 20 "/home/zkmike/.local/share/renesas/e2_studio/toolchains/gcc_arm/gcc-arm-none-eabi-6-2017-
 578              		.file 21 "/home/zkmike/.local/share/renesas/e2_studio/toolchains/gcc_arm/gcc-arm-none-eabi-6-2017-
 579              		.file 22 "/home/zkmike/.local/share/renesas/e2_studio/toolchains/gcc_arm/gcc-arm-none-eabi-6-2017-
 580              		.file 23 "/home/zkmike/.local/share/renesas/e2_studio/toolchains/gcc_arm/gcc-arm-none-eabi-6-2017-
 581              		.file 24 "/home/zkmike/.local/share/renesas/e2_studio/toolchains/gcc_arm/gcc-arm-none-eabi-6-2017-
 582              		.file 25 "/home/zkmike/.local/share/renesas/e2_studio/toolchains/gcc_arm/gcc-arm-none-eabi-6-2017-
 583              		.file 26 "/home/zkmike/.local/share/renesas/e2_studio/toolchains/gcc_arm/gcc-arm-none-eabi-6-2017-
 584              		.file 27 "/home/zkmike/.local/share/renesas/e2_studio/toolchains/gcc_arm/gcc-arm-none-eabi-6-2017-
 585              		.file 28 "/home/zkmike/.local/share/renesas/e2_studio/toolchains/gcc_arm/gcc-arm-none-eabi-6-2017-
 586              		.file 29 "/home/zkmike/.local/share/renesas/e2_studio/toolchains/gcc_arm/gcc-arm-none-eabi-6-2017-
 587              		.file 30 "/home/zkmike/.local/share/renesas/e2_studio/toolchains/gcc_arm/gcc-arm-none-eabi-6-2017-
 588              		.file 31 "<built-in>"
 589              		.file 32 "/home/zkmike/.local/share/renesas/e2_studio/toolchains/gcc_arm/gcc-arm-none-eabi-6-2017-
 590              		.file 33 "/home/zkmike/.local/share/renesas/e2_studio/toolchains/gcc_arm/gcc-arm-none-eabi-6-2017-
 591              		.file 34 "/home/zkmike/.local/share/renesas/e2_studio/toolchains/gcc_arm/gcc-arm-none-eabi-6-2017-
 592              		.file 35 "/home/zkmike/.local/share/renesas/e2_studio/toolchains/gcc_arm/gcc-arm-none-eabi-6-2017-
 593              		.file 36 "/home/zkmike/.local/share/renesas/e2_studio/toolchains/gcc_arm/gcc-arm-none-eabi-6-2017-
 594              		.file 37 "/home/zkmike/.local/share/renesas/e2_studio/toolchains/gcc_arm/gcc-arm-none-eabi-6-2017-
 595              		.file 38 "/home/zkmike/.local/share/renesas/e2_studio/toolchains/gcc_arm/gcc-arm-none-eabi-6-2017-
 596              		.file 39 "/home/zkmike/.local/share/renesas/e2_studio/toolchains/gcc_arm/gcc-arm-none-eabi-6-2017-
 597              		.file 40 "/home/zkmike/.local/share/renesas/e2_studio/toolchains/gcc_arm/gcc-arm-none-eabi-6-2017-
 598              		.file 41 "/home/zkmike/.local/share/renesas/e2_studio/toolchains/gcc_arm/gcc-arm-none-eabi-6-2017-
 599              		.file 42 "/home/zkmike/.local/share/renesas/e2_studio/toolchains/gcc_arm/gcc-arm-none-eabi-6-2017-
 600              		.file 43 "/home/zkmike/workspace/RZA2M/rza2m_2d_barcode_sample_freertos_gcc/src/zxing_lib/zxing/Lu
 601              		.file 44 "/home/zkmike/workspace/RZA2M/rza2m_2d_barcode_sample_freertos_gcc/src/zxing_lib/zxing/Bi