   1              		.cpu cortex-a9
   2              		.eabi_attribute 28, 1
   3              		.eabi_attribute 20, 1
   4              		.eabi_attribute 21, 1
   5              		.eabi_attribute 23, 3
   6              		.eabi_attribute 24, 1
   7              		.eabi_attribute 25, 1
   8              		.eabi_attribute 26, 1
   9              		.eabi_attribute 30, 1
  10              		.eabi_attribute 34, 0
  11              		.eabi_attribute 18, 4
  12              		.file	"ChecksumException.cpp"
  13              		.text
  14              	.Ltext0:
  15              		.cfi_sections	.debug_frame
  16              		.section	.text._ZNK5zxing9Exception4whatEv,"axG",%progbits,_ZNK5zxing9Exception4whatEv,comdat
  17              		.align	2
  18              		.weak	_ZNK5zxing9Exception4whatEv
  19              		.syntax unified
  20              		.arm
  21              		.fpu neon
  23              	_ZNK5zxing9Exception4whatEv:
  24              		.fnstart
  25              	.LFB941:
  26              		.file 1 "/home/zkmike/workspace/RZA2M/rza2m_2d_barcode_sample_freertos_gcc/src/zxing_lib/zxing/Exc
   1:/home/zkmike/workspace/RZA2M/rza2m_2d_barcode_sample_freertos_gcc/src/zxing_lib/zxing/Exception.h **** // -*- mode:c++; tab-width:2; indent-tabs-mode:nil; c-basic-offset:2 -*-
   2:/home/zkmike/workspace/RZA2M/rza2m_2d_barcode_sample_freertos_gcc/src/zxing_lib/zxing/Exception.h **** #ifndef __EXCEPTION_H__
   3:/home/zkmike/workspace/RZA2M/rza2m_2d_barcode_sample_freertos_gcc/src/zxing_lib/zxing/Exception.h **** #define __EXCEPTION_H__
   4:/home/zkmike/workspace/RZA2M/rza2m_2d_barcode_sample_freertos_gcc/src/zxing_lib/zxing/Exception.h **** 
   5:/home/zkmike/workspace/RZA2M/rza2m_2d_barcode_sample_freertos_gcc/src/zxing_lib/zxing/Exception.h **** /*
   6:/home/zkmike/workspace/RZA2M/rza2m_2d_barcode_sample_freertos_gcc/src/zxing_lib/zxing/Exception.h ****  *  Exception.h
   7:/home/zkmike/workspace/RZA2M/rza2m_2d_barcode_sample_freertos_gcc/src/zxing_lib/zxing/Exception.h ****  *  ZXing
   8:/home/zkmike/workspace/RZA2M/rza2m_2d_barcode_sample_freertos_gcc/src/zxing_lib/zxing/Exception.h ****  *
   9:/home/zkmike/workspace/RZA2M/rza2m_2d_barcode_sample_freertos_gcc/src/zxing_lib/zxing/Exception.h ****  *  Copyright 2010 ZXing authors All rights reserved.
  10:/home/zkmike/workspace/RZA2M/rza2m_2d_barcode_sample_freertos_gcc/src/zxing_lib/zxing/Exception.h ****  *
  11:/home/zkmike/workspace/RZA2M/rza2m_2d_barcode_sample_freertos_gcc/src/zxing_lib/zxing/Exception.h ****  * Licensed under the Apache License, Version 2.0 (the "License");
  12:/home/zkmike/workspace/RZA2M/rza2m_2d_barcode_sample_freertos_gcc/src/zxing_lib/zxing/Exception.h ****  * you may not use this file except in compliance with the License.
  13:/home/zkmike/workspace/RZA2M/rza2m_2d_barcode_sample_freertos_gcc/src/zxing_lib/zxing/Exception.h ****  * You may obtain a copy of the License at
  14:/home/zkmike/workspace/RZA2M/rza2m_2d_barcode_sample_freertos_gcc/src/zxing_lib/zxing/Exception.h ****  *
  15:/home/zkmike/workspace/RZA2M/rza2m_2d_barcode_sample_freertos_gcc/src/zxing_lib/zxing/Exception.h ****  *      http://www.apache.org/licenses/LICENSE-2.0
  16:/home/zkmike/workspace/RZA2M/rza2m_2d_barcode_sample_freertos_gcc/src/zxing_lib/zxing/Exception.h ****  *
  17:/home/zkmike/workspace/RZA2M/rza2m_2d_barcode_sample_freertos_gcc/src/zxing_lib/zxing/Exception.h ****  * Unless required by applicable law or agreed to in writing, software
  18:/home/zkmike/workspace/RZA2M/rza2m_2d_barcode_sample_freertos_gcc/src/zxing_lib/zxing/Exception.h ****  * distributed under the License is distributed on an "AS IS" BASIS,
  19:/home/zkmike/workspace/RZA2M/rza2m_2d_barcode_sample_freertos_gcc/src/zxing_lib/zxing/Exception.h ****  * WITHOUT WARRANTIES OR CONDITIONS OF ANY KIND, either express or implied.
  20:/home/zkmike/workspace/RZA2M/rza2m_2d_barcode_sample_freertos_gcc/src/zxing_lib/zxing/Exception.h ****  * See the License for the specific language governing permissions and
  21:/home/zkmike/workspace/RZA2M/rza2m_2d_barcode_sample_freertos_gcc/src/zxing_lib/zxing/Exception.h ****  * limitations under the License.
  22:/home/zkmike/workspace/RZA2M/rza2m_2d_barcode_sample_freertos_gcc/src/zxing_lib/zxing/Exception.h ****  */
  23:/home/zkmike/workspace/RZA2M/rza2m_2d_barcode_sample_freertos_gcc/src/zxing_lib/zxing/Exception.h **** 
  24:/home/zkmike/workspace/RZA2M/rza2m_2d_barcode_sample_freertos_gcc/src/zxing_lib/zxing/Exception.h **** #include <string>
  25:/home/zkmike/workspace/RZA2M/rza2m_2d_barcode_sample_freertos_gcc/src/zxing_lib/zxing/Exception.h **** #include <exception>
  26:/home/zkmike/workspace/RZA2M/rza2m_2d_barcode_sample_freertos_gcc/src/zxing_lib/zxing/Exception.h **** 
  27:/home/zkmike/workspace/RZA2M/rza2m_2d_barcode_sample_freertos_gcc/src/zxing_lib/zxing/Exception.h **** namespace zxing {
  28:/home/zkmike/workspace/RZA2M/rza2m_2d_barcode_sample_freertos_gcc/src/zxing_lib/zxing/Exception.h **** 
  29:/home/zkmike/workspace/RZA2M/rza2m_2d_barcode_sample_freertos_gcc/src/zxing_lib/zxing/Exception.h **** class Exception : public std::exception {
  30:/home/zkmike/workspace/RZA2M/rza2m_2d_barcode_sample_freertos_gcc/src/zxing_lib/zxing/Exception.h **** private:
  31:/home/zkmike/workspace/RZA2M/rza2m_2d_barcode_sample_freertos_gcc/src/zxing_lib/zxing/Exception.h ****   char const* const message;
  32:/home/zkmike/workspace/RZA2M/rza2m_2d_barcode_sample_freertos_gcc/src/zxing_lib/zxing/Exception.h **** 
  33:/home/zkmike/workspace/RZA2M/rza2m_2d_barcode_sample_freertos_gcc/src/zxing_lib/zxing/Exception.h **** public:
  34:/home/zkmike/workspace/RZA2M/rza2m_2d_barcode_sample_freertos_gcc/src/zxing_lib/zxing/Exception.h ****   Exception() throw() : message(0) {}
  35:/home/zkmike/workspace/RZA2M/rza2m_2d_barcode_sample_freertos_gcc/src/zxing_lib/zxing/Exception.h ****   Exception(const char* msg) throw() : message(copy(msg)) {}
  36:/home/zkmike/workspace/RZA2M/rza2m_2d_barcode_sample_freertos_gcc/src/zxing_lib/zxing/Exception.h ****   Exception(Exception const& that) throw() : std::exception(that), message(copy(that.message)) {}
  37:/home/zkmike/workspace/RZA2M/rza2m_2d_barcode_sample_freertos_gcc/src/zxing_lib/zxing/Exception.h ****   ~Exception() throw() {
  38:/home/zkmike/workspace/RZA2M/rza2m_2d_barcode_sample_freertos_gcc/src/zxing_lib/zxing/Exception.h ****     if(message) {
  39:/home/zkmike/workspace/RZA2M/rza2m_2d_barcode_sample_freertos_gcc/src/zxing_lib/zxing/Exception.h ****       deleteMessage();
  40:/home/zkmike/workspace/RZA2M/rza2m_2d_barcode_sample_freertos_gcc/src/zxing_lib/zxing/Exception.h ****     }
  41:/home/zkmike/workspace/RZA2M/rza2m_2d_barcode_sample_freertos_gcc/src/zxing_lib/zxing/Exception.h ****   }
  42:/home/zkmike/workspace/RZA2M/rza2m_2d_barcode_sample_freertos_gcc/src/zxing_lib/zxing/Exception.h ****   char const* what() const throw() {return message ? message : "";}
  27              		.loc 1 42 0
  28              		.cfi_startproc
  29              		@ args = 0, pretend = 0, frame = 0
  30              		@ frame_needed = 0, uses_anonymous_args = 0
  31              		@ link register save eliminated.
  32              	.LVL0:
  33              		.loc 1 42 0
  34 0000 040090E5 		ldr	r0, [r0, #4]
  35              	.LVL1:
  36 0004 000050E3 		cmp	r0, #0
  37 0008 1EFF2F11 		bxne	lr
  38 000c 000000E3 		movw	r0, #:lower16:.LC0
  39 0010 000040E3 		movt	r0, #:upper16:.LC0
  40 0014 1EFF2FE1 		bx	lr
  41              		.cfi_endproc
  42              	.LFE941:
  43              		.cantunwind
  44              		.fnend
  46              		.section	.text._ZN5zxing9ExceptionD2Ev,"axG",%progbits,_ZN5zxing9ExceptionD5Ev,comdat
  47              		.align	2
  48              		.weak	_ZN5zxing9ExceptionD2Ev
  49              		.syntax unified
  50              		.arm
  51              		.fpu neon
  53              	_ZN5zxing9ExceptionD2Ev:
  54              		.fnstart
  55              	.LFB938:
  37:/home/zkmike/workspace/RZA2M/rza2m_2d_barcode_sample_freertos_gcc/src/zxing_lib/zxing/Exception.h ****     if(message) {
  56              		.loc 1 37 0
  57              		.cfi_startproc
  58              		.cfi_personality 0,__gxx_personality_v0
  59              		.cfi_lsda 0,.LLSDA938
  60              		@ args = 0, pretend = 0, frame = 0
  61              		@ frame_needed = 0, uses_anonymous_args = 0
  62              	.LVL2:
  63 0000 70402DE9 		push	{r4, r5, r6, lr}
  64              		.save {r4, r5, r6, lr}
  65              		.cfi_def_cfa_offset 16
  66              		.cfi_offset 4, -16
  67              		.cfi_offset 5, -12
  68              		.cfi_offset 6, -8
  69              		.cfi_offset 14, -4
  70 0004 0040A0E1 		mov	r4, r0
  71              	.LBB37:
  37:/home/zkmike/workspace/RZA2M/rza2m_2d_barcode_sample_freertos_gcc/src/zxing_lib/zxing/Exception.h ****     if(message) {
  72              		.loc 1 37 0
  73 0008 48309FE5 		ldr	r3, .L10
  74 000c 003080E5 		str	r3, [r0]
  38:/home/zkmike/workspace/RZA2M/rza2m_2d_barcode_sample_freertos_gcc/src/zxing_lib/zxing/Exception.h ****       deleteMessage();
  75              		.loc 1 38 0
  76 0010 043090E5 		ldr	r3, [r0, #4]
  77 0014 000053E3 		cmp	r3, #0
  78 0018 0A00000A 		beq	.L4
  79              	.LEHB0:
  39:/home/zkmike/workspace/RZA2M/rza2m_2d_barcode_sample_freertos_gcc/src/zxing_lib/zxing/Exception.h ****     }
  80              		.loc 1 39 0
  81 001c FEFFFFEB 		bl	_ZN5zxing9Exception13deleteMessageEv
  82              	.LVL3:
  83              	.LEHE0:
  84 0020 080000EA 		b	.L4
  85              	.L7:
  86 0024 0050A0E1 		mov	r5, r0
  87 0028 0160A0E1 		mov	r6, r1
  37:/home/zkmike/workspace/RZA2M/rza2m_2d_barcode_sample_freertos_gcc/src/zxing_lib/zxing/Exception.h ****     if(message) {
  88              		.loc 1 37 0
  89 002c 0400A0E1 		mov	r0, r4
  90 0030 FEFFFFEB 		bl	_ZNSt9exceptionD2Ev
  91              	.LVL4:
  92 0034 010076E3 		cmn	r6, #1
  93 0038 0000000A 		beq	.L6
  94              	.LEHB1:
  95 003c FEFFFFEB 		bl	__cxa_end_cleanup
  96              	.LVL5:
  97              	.L6:
  98              	.LBE37:
  99 0040 0500A0E1 		mov	r0, r5
 100 0044 FEFFFFEB 		bl	__cxa_call_unexpected
 101              	.LVL6:
 102              	.LEHE1:
 103              	.L4:
 104              	.LBB38:
 105 0048 0400A0E1 		mov	r0, r4
 106 004c FEFFFFEB 		bl	_ZNSt9exceptionD2Ev
 107              	.LVL7:
 108              	.LBE38:
  41:/home/zkmike/workspace/RZA2M/rza2m_2d_barcode_sample_freertos_gcc/src/zxing_lib/zxing/Exception.h ****   char const* what() const throw() {return message ? message : "";}
 109              		.loc 1 41 0
 110 0050 0400A0E1 		mov	r0, r4
 111 0054 7080BDE8 		pop	{r4, r5, r6, pc}
 112              	.L11:
 113              		.align	2
 114              	.L10:
 115 0058 08000000 		.word	_ZTVN5zxing9ExceptionE+8
 116              		.cfi_endproc
 117              	.LFE938:
 118              		.global	__gxx_personality_v0
 119              		.personality	__gxx_personality_v0
 120              		.handlerdata
 121              		.align	2
 122              	.LLSDA938:
 123 0008 FF       		.byte	0xff
 124 0009 10       		.byte	0x10
 125 000a 11       		.uleb128 .LLSDATT938-.LLSDATTD938
 126              	.LLSDATTD938:
 127 000b 01       		.byte	0x1
 128 000c 08       		.uleb128 .LLSDACSE938-.LLSDACSB938
 129              	.LLSDACSB938:
 130 000d 1C       		.uleb128 .LEHB0-.LFB938
 131 000e 04       		.uleb128 .LEHE0-.LEHB0
 132 000f 24       		.uleb128 .L7-.LFB938
 133 0010 03       		.uleb128 0x3
 134 0011 3C       		.uleb128 .LEHB1-.LFB938
 135 0012 0C       		.uleb128 .LEHE1-.LEHB1
 136 0013 00       		.uleb128 0
 137 0014 00       		.uleb128 0
 138              	.LLSDACSE938:
 139 0015 7F       		.byte	0x7f
 140 0016 00       		.byte	0
 141 0017 00       		.byte	0
 142 0018 7D       		.byte	0x7d
 143 0019 000000   		.align	2
 144              	.LLSDATT938:
 145 001c 00000000 		.word	0
 146              		.section	.text._ZN5zxing9ExceptionD2Ev,"axG",%progbits,_ZN5zxing9ExceptionD5Ev,comdat
 147              		.fnend
 149              		.weak	_ZN5zxing9ExceptionD1Ev
 150              		.set	_ZN5zxing9ExceptionD1Ev,_ZN5zxing9ExceptionD2Ev
 151              		.section	.text._ZN5zxing17ChecksumExceptionD2Ev,"ax",%progbits
 152              		.align	2
 153              		.global	_ZN5zxing17ChecksumExceptionD2Ev
 154              		.syntax unified
 155              		.arm
 156              		.fpu neon
 158              	_ZN5zxing17ChecksumExceptionD2Ev:
 159              		.fnstart
 160              	.LFB959:
 161              		.file 2 "../src/zxing_lib/zxing/ChecksumException.cpp"
   1:../src/zxing_lib/zxing/ChecksumException.cpp **** // -*- mode:c++; tab-width:2; indent-tabs-mode:nil; c-basic-offset:2 -*-
   2:../src/zxing_lib/zxing/ChecksumException.cpp **** /*
   3:../src/zxing_lib/zxing/ChecksumException.cpp ****  *  ChecksumException.cpp
   4:../src/zxing_lib/zxing/ChecksumException.cpp ****  *  zxing
   5:../src/zxing_lib/zxing/ChecksumException.cpp ****  *
   6:../src/zxing_lib/zxing/ChecksumException.cpp ****  *  Created by Christian Brunschen on 13/05/2008.
   7:../src/zxing_lib/zxing/ChecksumException.cpp ****  *  Copyright 2008 ZXing authors All rights reserved.
   8:../src/zxing_lib/zxing/ChecksumException.cpp ****  *
   9:../src/zxing_lib/zxing/ChecksumException.cpp ****  * Licensed under the Apache License, Version 2.0 (the "License");
  10:../src/zxing_lib/zxing/ChecksumException.cpp ****  * you may not use this file except in compliance with the License.
  11:../src/zxing_lib/zxing/ChecksumException.cpp ****  * You may obtain a copy of the License at
  12:../src/zxing_lib/zxing/ChecksumException.cpp ****  *
  13:../src/zxing_lib/zxing/ChecksumException.cpp ****  *      http://www.apache.org/licenses/LICENSE-2.0
  14:../src/zxing_lib/zxing/ChecksumException.cpp ****  *
  15:../src/zxing_lib/zxing/ChecksumException.cpp ****  * Unless required by applicable law or agreed to in writing, software
  16:../src/zxing_lib/zxing/ChecksumException.cpp ****  * distributed under the License is distributed on an "AS IS" BASIS,
  17:../src/zxing_lib/zxing/ChecksumException.cpp ****  * WITHOUT WARRANTIES OR CONDITIONS OF ANY KIND, either express or implied.
  18:../src/zxing_lib/zxing/ChecksumException.cpp ****  * See the License for the specific language governing permissions and
  19:../src/zxing_lib/zxing/ChecksumException.cpp ****  * limitations under the License.
  20:../src/zxing_lib/zxing/ChecksumException.cpp ****  */
  21:../src/zxing_lib/zxing/ChecksumException.cpp **** 
  22:../src/zxing_lib/zxing/ChecksumException.cpp **** #include <zxing/ChecksumException.h>
  23:../src/zxing_lib/zxing/ChecksumException.cpp **** 
  24:../src/zxing_lib/zxing/ChecksumException.cpp **** using zxing::ChecksumException;
  25:../src/zxing_lib/zxing/ChecksumException.cpp **** 
  26:../src/zxing_lib/zxing/ChecksumException.cpp **** ChecksumException::ChecksumException() throw() {}
  27:../src/zxing_lib/zxing/ChecksumException.cpp **** ChecksumException::ChecksumException(const char *msg) throw() : ReaderException(msg) {}
  28:../src/zxing_lib/zxing/ChecksumException.cpp **** ChecksumException::~ChecksumException() throw() {}
 162              		.loc 2 28 0
 163              		.cfi_startproc
 164              		.cfi_personality 0,__gxx_personality_v0
 165              		.cfi_lsda 0,.LLSDA959
 166              		@ args = 0, pretend = 0, frame = 0
 167              		@ frame_needed = 0, uses_anonymous_args = 0
 168              	.LVL8:
 169 0000 70402DE9 		push	{r4, r5, r6, lr}
 170              		.save {r4, r5, r6, lr}
 171              		.cfi_def_cfa_offset 16
 172              		.cfi_offset 4, -16
 173              		.cfi_offset 5, -12
 174              		.cfi_offset 6, -8
 175              		.cfi_offset 14, -4
 176 0004 0040A0E1 		mov	r4, r0
 177              	.LVL9:
 178              	.LBB45:
 179              	.LBB46:
 180              	.LBB47:
 181              	.LBB48:
 182              	.LBB49:
  37:/home/zkmike/workspace/RZA2M/rza2m_2d_barcode_sample_freertos_gcc/src/zxing_lib/zxing/Exception.h ****     if(message) {
 183              		.loc 1 37 0
 184 0008 48309FE5 		ldr	r3, .L19
 185 000c 003080E5 		str	r3, [r0]
  38:/home/zkmike/workspace/RZA2M/rza2m_2d_barcode_sample_freertos_gcc/src/zxing_lib/zxing/Exception.h ****       deleteMessage();
 186              		.loc 1 38 0
 187 0010 043090E5 		ldr	r3, [r0, #4]
 188 0014 000053E3 		cmp	r3, #0
 189 0018 0A00000A 		beq	.L13
 190              	.LEHB2:
  39:/home/zkmike/workspace/RZA2M/rza2m_2d_barcode_sample_freertos_gcc/src/zxing_lib/zxing/Exception.h ****     }
 191              		.loc 1 39 0
 192 001c FEFFFFEB 		bl	_ZN5zxing9Exception13deleteMessageEv
 193              	.LVL10:
 194              	.LEHE2:
 195 0020 080000EA 		b	.L13
 196              	.L16:
 197 0024 0050A0E1 		mov	r5, r0
 198 0028 0160A0E1 		mov	r6, r1
  37:/home/zkmike/workspace/RZA2M/rza2m_2d_barcode_sample_freertos_gcc/src/zxing_lib/zxing/Exception.h ****     if(message) {
 199              		.loc 1 37 0
 200 002c 0400A0E1 		mov	r0, r4
 201 0030 FEFFFFEB 		bl	_ZNSt9exceptionD2Ev
 202              	.LVL11:
 203 0034 010076E3 		cmn	r6, #1
 204 0038 0000000A 		beq	.L15
 205              	.LEHB3:
 206 003c FEFFFFEB 		bl	__cxa_end_cleanup
 207              	.LVL12:
 208              	.L15:
 209              	.LBE49:
 210 0040 0500A0E1 		mov	r0, r5
 211 0044 FEFFFFEB 		bl	__cxa_call_unexpected
 212              	.LVL13:
 213              	.LEHE3:
 214              	.L13:
 215              	.LBB50:
 216 0048 0400A0E1 		mov	r0, r4
 217 004c FEFFFFEB 		bl	_ZNSt9exceptionD2Ev
 218              	.LVL14:
 219              	.LBE50:
 220              	.LBE48:
 221              	.LBE47:
 222              	.LBE46:
 223              	.LBE45:
 224              		.loc 2 28 0
 225 0050 0400A0E1 		mov	r0, r4
 226 0054 7080BDE8 		pop	{r4, r5, r6, pc}
 227              	.L20:
 228              		.align	2
 229              	.L19:
 230 0058 08000000 		.word	_ZTVN5zxing9ExceptionE+8
 231              		.cfi_endproc
 232              	.LFE959:
 233              		.personality	__gxx_personality_v0
 234              		.handlerdata
 235              		.align	2
 236              	.LLSDA959:
 237 0008 FF       		.byte	0xff
 238 0009 10       		.byte	0x10
 239 000a 11       		.uleb128 .LLSDATT959-.LLSDATTD959
 240              	.LLSDATTD959:
 241 000b 01       		.byte	0x1
 242 000c 08       		.uleb128 .LLSDACSE959-.LLSDACSB959
 243              	.LLSDACSB959:
 244 000d 1C       		.uleb128 .LEHB2-.LFB959
 245 000e 04       		.uleb128 .LEHE2-.LEHB2
 246 000f 24       		.uleb128 .L16-.LFB959
 247 0010 03       		.uleb128 0x3
 248 0011 3C       		.uleb128 .LEHB3-.LFB959
 249 0012 0C       		.uleb128 .LEHE3-.LEHB3
 250 0013 00       		.uleb128 0
 251 0014 00       		.uleb128 0
 252              	.LLSDACSE959:
 253 0015 7F       		.byte	0x7f
 254 0016 00       		.byte	0
 255 0017 00       		.byte	0
 256 0018 7D       		.byte	0x7d
 257 0019 000000   		.align	2
 258              	.LLSDATT959:
 259 001c 00000000 		.word	0
 260              		.section	.text._ZN5zxing17ChecksumExceptionD2Ev
 261              		.fnend
 263              		.global	_ZN5zxing17ChecksumExceptionD1Ev
 264              		.set	_ZN5zxing17ChecksumExceptionD1Ev,_ZN5zxing17ChecksumExceptionD2Ev
 265              		.section	.text._ZN5zxing17ChecksumExceptionD0Ev,"ax",%progbits
 266              		.align	2
 267              		.global	_ZN5zxing17ChecksumExceptionD0Ev
 268              		.syntax unified
 269              		.arm
 270              		.fpu neon
 272              	_ZN5zxing17ChecksumExceptionD0Ev:
 273              		.fnstart
 274              	.LFB961:
 275              		.loc 2 28 0
 276              		.cfi_startproc
 277              		@ args = 0, pretend = 0, frame = 0
 278              		@ frame_needed = 0, uses_anonymous_args = 0
 279              	.LVL15:
 280 0000 10402DE9 		push	{r4, lr}
 281              		.cfi_def_cfa_offset 8
 282              		.cfi_offset 4, -8
 283              		.cfi_offset 14, -4
 284 0004 0040A0E1 		mov	r4, r0
 285              		.loc 2 28 0
 286 0008 FEFFFFEB 		bl	_ZN5zxing17ChecksumExceptionD1Ev
 287              	.LVL16:
 288 000c 0810A0E3 		mov	r1, #8
 289 0010 0400A0E1 		mov	r0, r4
 290 0014 FEFFFFEB 		bl	_ZdlPvj
 291              	.LVL17:
 292 0018 0400A0E1 		mov	r0, r4
 293 001c 1080BDE8 		pop	{r4, pc}
 294              		.cfi_endproc
 295              	.LFE961:
 296              		.cantunwind
 297              		.fnend
 299              		.section	.text._ZN5zxing15ReaderExceptionD2Ev,"axG",%progbits,_ZN5zxing15ReaderExceptionD5Ev,comda
 300              		.align	2
 301              		.weak	_ZN5zxing15ReaderExceptionD2Ev
 302              		.syntax unified
 303              		.arm
 304              		.fpu neon
 306              	_ZN5zxing15ReaderExceptionD2Ev:
 307              		.fnstart
 308              	.LFB949:
 309              		.file 3 "/home/zkmike/workspace/RZA2M/rza2m_2d_barcode_sample_freertos_gcc/src/zxing_lib/zxing/Rea
   1:/home/zkmike/workspace/RZA2M/rza2m_2d_barcode_sample_freertos_gcc/src/zxing_lib/zxing/ReaderException.h **** // -*- mode:c++; tab-width:2; indent-tabs-mode:nil; c-basic-offset:2 -*-
   2:/home/zkmike/workspace/RZA2M/rza2m_2d_barcode_sample_freertos_gcc/src/zxing_lib/zxing/ReaderException.h **** #ifndef __READER_EXCEPTION_H__
   3:/home/zkmike/workspace/RZA2M/rza2m_2d_barcode_sample_freertos_gcc/src/zxing_lib/zxing/ReaderException.h **** #define __READER_EXCEPTION_H__
   4:/home/zkmike/workspace/RZA2M/rza2m_2d_barcode_sample_freertos_gcc/src/zxing_lib/zxing/ReaderException.h **** 
   5:/home/zkmike/workspace/RZA2M/rza2m_2d_barcode_sample_freertos_gcc/src/zxing_lib/zxing/ReaderException.h **** /*
   6:/home/zkmike/workspace/RZA2M/rza2m_2d_barcode_sample_freertos_gcc/src/zxing_lib/zxing/ReaderException.h ****  *  ReaderException.h
   7:/home/zkmike/workspace/RZA2M/rza2m_2d_barcode_sample_freertos_gcc/src/zxing_lib/zxing/ReaderException.h ****  *  zxing
   8:/home/zkmike/workspace/RZA2M/rza2m_2d_barcode_sample_freertos_gcc/src/zxing_lib/zxing/ReaderException.h ****  *
   9:/home/zkmike/workspace/RZA2M/rza2m_2d_barcode_sample_freertos_gcc/src/zxing_lib/zxing/ReaderException.h ****  *  Copyright 2010 ZXing authors All rights reserved.
  10:/home/zkmike/workspace/RZA2M/rza2m_2d_barcode_sample_freertos_gcc/src/zxing_lib/zxing/ReaderException.h ****  *
  11:/home/zkmike/workspace/RZA2M/rza2m_2d_barcode_sample_freertos_gcc/src/zxing_lib/zxing/ReaderException.h ****  * Licensed under the Apache License, Version 2.0 (the "License");
  12:/home/zkmike/workspace/RZA2M/rza2m_2d_barcode_sample_freertos_gcc/src/zxing_lib/zxing/ReaderException.h ****  * you may not use this file except in compliance with the License.
  13:/home/zkmike/workspace/RZA2M/rza2m_2d_barcode_sample_freertos_gcc/src/zxing_lib/zxing/ReaderException.h ****  * You may obtain a copy of the License at
  14:/home/zkmike/workspace/RZA2M/rza2m_2d_barcode_sample_freertos_gcc/src/zxing_lib/zxing/ReaderException.h ****  *
  15:/home/zkmike/workspace/RZA2M/rza2m_2d_barcode_sample_freertos_gcc/src/zxing_lib/zxing/ReaderException.h ****  *      http://www.apache.org/licenses/LICENSE-2.0
  16:/home/zkmike/workspace/RZA2M/rza2m_2d_barcode_sample_freertos_gcc/src/zxing_lib/zxing/ReaderException.h ****  *
  17:/home/zkmike/workspace/RZA2M/rza2m_2d_barcode_sample_freertos_gcc/src/zxing_lib/zxing/ReaderException.h ****  * Unless required by applicable law or agreed to in writing, software
  18:/home/zkmike/workspace/RZA2M/rza2m_2d_barcode_sample_freertos_gcc/src/zxing_lib/zxing/ReaderException.h ****  * distributed under the License is distributed on an "AS IS" BASIS,
  19:/home/zkmike/workspace/RZA2M/rza2m_2d_barcode_sample_freertos_gcc/src/zxing_lib/zxing/ReaderException.h ****  * WITHOUT WARRANTIES OR CONDITIONS OF ANY KIND, either express or implied.
  20:/home/zkmike/workspace/RZA2M/rza2m_2d_barcode_sample_freertos_gcc/src/zxing_lib/zxing/ReaderException.h ****  * See the License for the specific language governing permissions and
  21:/home/zkmike/workspace/RZA2M/rza2m_2d_barcode_sample_freertos_gcc/src/zxing_lib/zxing/ReaderException.h ****  * limitations under the License.
  22:/home/zkmike/workspace/RZA2M/rza2m_2d_barcode_sample_freertos_gcc/src/zxing_lib/zxing/ReaderException.h ****  */
  23:/home/zkmike/workspace/RZA2M/rza2m_2d_barcode_sample_freertos_gcc/src/zxing_lib/zxing/ReaderException.h **** 
  24:/home/zkmike/workspace/RZA2M/rza2m_2d_barcode_sample_freertos_gcc/src/zxing_lib/zxing/ReaderException.h **** #include <zxing/Exception.h>
  25:/home/zkmike/workspace/RZA2M/rza2m_2d_barcode_sample_freertos_gcc/src/zxing_lib/zxing/ReaderException.h **** 
  26:/home/zkmike/workspace/RZA2M/rza2m_2d_barcode_sample_freertos_gcc/src/zxing_lib/zxing/ReaderException.h **** namespace zxing {
  27:/home/zkmike/workspace/RZA2M/rza2m_2d_barcode_sample_freertos_gcc/src/zxing_lib/zxing/ReaderException.h **** 
  28:/home/zkmike/workspace/RZA2M/rza2m_2d_barcode_sample_freertos_gcc/src/zxing_lib/zxing/ReaderException.h **** class ReaderException : public Exception {
  29:/home/zkmike/workspace/RZA2M/rza2m_2d_barcode_sample_freertos_gcc/src/zxing_lib/zxing/ReaderException.h ****  public:
  30:/home/zkmike/workspace/RZA2M/rza2m_2d_barcode_sample_freertos_gcc/src/zxing_lib/zxing/ReaderException.h ****   ReaderException() throw() {}
  31:/home/zkmike/workspace/RZA2M/rza2m_2d_barcode_sample_freertos_gcc/src/zxing_lib/zxing/ReaderException.h ****   ReaderException(char const* msg) throw() : Exception(msg) {}
  32:/home/zkmike/workspace/RZA2M/rza2m_2d_barcode_sample_freertos_gcc/src/zxing_lib/zxing/ReaderException.h ****   ~ReaderException() throw() {}
 310              		.loc 3 32 0
 311              		.cfi_startproc
 312              		.cfi_personality 0,__gxx_personality_v0
 313              		.cfi_lsda 0,.LLSDA949
 314              		@ args = 0, pretend = 0, frame = 0
 315              		@ frame_needed = 0, uses_anonymous_args = 0
 316              	.LVL18:
 317 0000 70402DE9 		push	{r4, r5, r6, lr}
 318              		.save {r4, r5, r6, lr}
 319              		.cfi_def_cfa_offset 16
 320              		.cfi_offset 4, -16
 321              		.cfi_offset 5, -12
 322              		.cfi_offset 6, -8
 323              		.cfi_offset 14, -4
 324 0004 0040A0E1 		mov	r4, r0
 325              	.LVL19:
 326              	.LBB55:
 327              	.LBB56:
 328              	.LBB57:
 329              	.LBB58:
  37:/home/zkmike/workspace/RZA2M/rza2m_2d_barcode_sample_freertos_gcc/src/zxing_lib/zxing/Exception.h ****     if(message) {
 330              		.loc 1 37 0
 331 0008 48309FE5 		ldr	r3, .L30
 332 000c 003080E5 		str	r3, [r0]
  38:/home/zkmike/workspace/RZA2M/rza2m_2d_barcode_sample_freertos_gcc/src/zxing_lib/zxing/Exception.h ****       deleteMessage();
 333              		.loc 1 38 0
 334 0010 043090E5 		ldr	r3, [r0, #4]
 335 0014 000053E3 		cmp	r3, #0
 336 0018 0A00000A 		beq	.L24
 337              	.LEHB4:
  39:/home/zkmike/workspace/RZA2M/rza2m_2d_barcode_sample_freertos_gcc/src/zxing_lib/zxing/Exception.h ****     }
 338              		.loc 1 39 0
 339 001c FEFFFFEB 		bl	_ZN5zxing9Exception13deleteMessageEv
 340              	.LVL20:
 341              	.LEHE4:
 342 0020 080000EA 		b	.L24
 343              	.L27:
 344 0024 0050A0E1 		mov	r5, r0
 345 0028 0160A0E1 		mov	r6, r1
  37:/home/zkmike/workspace/RZA2M/rza2m_2d_barcode_sample_freertos_gcc/src/zxing_lib/zxing/Exception.h ****     if(message) {
 346              		.loc 1 37 0
 347 002c 0400A0E1 		mov	r0, r4
 348 0030 FEFFFFEB 		bl	_ZNSt9exceptionD2Ev
 349              	.LVL21:
 350 0034 010076E3 		cmn	r6, #1
 351 0038 0000000A 		beq	.L26
 352              	.LEHB5:
 353 003c FEFFFFEB 		bl	__cxa_end_cleanup
 354              	.LVL22:
 355              	.L26:
 356              	.LBE58:
 357 0040 0500A0E1 		mov	r0, r5
 358 0044 FEFFFFEB 		bl	__cxa_call_unexpected
 359              	.LVL23:
 360              	.LEHE5:
 361              	.L24:
 362              	.LBB59:
 363 0048 0400A0E1 		mov	r0, r4
 364 004c FEFFFFEB 		bl	_ZNSt9exceptionD2Ev
 365              	.LVL24:
 366              	.LBE59:
 367              	.LBE57:
 368              	.LBE56:
 369              	.LBE55:
 370              		.loc 3 32 0
 371 0050 0400A0E1 		mov	r0, r4
 372 0054 7080BDE8 		pop	{r4, r5, r6, pc}
 373              	.L31:
 374              		.align	2
 375              	.L30:
 376 0058 08000000 		.word	_ZTVN5zxing9ExceptionE+8
 377              		.cfi_endproc
 378              	.LFE949:
 379              		.personality	__gxx_personality_v0
 380              		.handlerdata
 381              		.align	2
 382              	.LLSDA949:
 383 0008 FF       		.byte	0xff
 384 0009 10       		.byte	0x10
 385 000a 11       		.uleb128 .LLSDATT949-.LLSDATTD949
 386              	.LLSDATTD949:
 387 000b 01       		.byte	0x1
 388 000c 08       		.uleb128 .LLSDACSE949-.LLSDACSB949
 389              	.LLSDACSB949:
 390 000d 1C       		.uleb128 .LEHB4-.LFB949
 391 000e 04       		.uleb128 .LEHE4-.LEHB4
 392 000f 24       		.uleb128 .L27-.LFB949
 393 0010 03       		.uleb128 0x3
 394 0011 3C       		.uleb128 .LEHB5-.LFB949
 395 0012 0C       		.uleb128 .LEHE5-.LEHB5
 396 0013 00       		.uleb128 0
 397 0014 00       		.uleb128 0
 398              	.LLSDACSE949:
 399 0015 7F       		.byte	0x7f
 400 0016 00       		.byte	0
 401 0017 00       		.byte	0
 402 0018 7D       		.byte	0x7d
 403 0019 000000   		.align	2
 404              	.LLSDATT949:
 405 001c 00000000 		.word	0
 406              		.section	.text._ZN5zxing15ReaderExceptionD2Ev,"axG",%progbits,_ZN5zxing15ReaderExceptionD5Ev,comda
 407              		.fnend
 409              		.weak	_ZN5zxing15ReaderExceptionD1Ev
 410              		.set	_ZN5zxing15ReaderExceptionD1Ev,_ZN5zxing15ReaderExceptionD2Ev
 411              		.section	.text._ZN5zxing9ExceptionD0Ev,"axG",%progbits,_ZN5zxing9ExceptionD5Ev,comdat
 412              		.align	2
 413              		.weak	_ZN5zxing9ExceptionD0Ev
 414              		.syntax unified
 415              		.arm
 416              		.fpu neon
 418              	_ZN5zxing9ExceptionD0Ev:
 419              		.fnstart
 420              	.LFB940:
  37:/home/zkmike/workspace/RZA2M/rza2m_2d_barcode_sample_freertos_gcc/src/zxing_lib/zxing/Exception.h ****     if(message) {
 421              		.loc 1 37 0
 422              		.cfi_startproc
 423              		.cfi_personality 0,__gxx_personality_v0
 424              		.cfi_lsda 0,.LLSDA940
 425              		@ args = 0, pretend = 0, frame = 0
 426              		@ frame_needed = 0, uses_anonymous_args = 0
 427              	.LVL25:
 428 0000 70402DE9 		push	{r4, r5, r6, lr}
 429              		.save {r4, r5, r6, lr}
 430              		.cfi_def_cfa_offset 16
 431              		.cfi_offset 4, -16
 432              		.cfi_offset 5, -12
 433              		.cfi_offset 6, -8
 434              		.cfi_offset 14, -4
 435 0004 0040A0E1 		mov	r4, r0
 436              	.LVL26:
 437              	.LBB63:
 438              	.LBB64:
 439              	.LBB65:
  37:/home/zkmike/workspace/RZA2M/rza2m_2d_barcode_sample_freertos_gcc/src/zxing_lib/zxing/Exception.h ****     if(message) {
 440              		.loc 1 37 0
 441 0008 54309FE5 		ldr	r3, .L39
 442 000c 003080E5 		str	r3, [r0]
  38:/home/zkmike/workspace/RZA2M/rza2m_2d_barcode_sample_freertos_gcc/src/zxing_lib/zxing/Exception.h ****       deleteMessage();
 443              		.loc 1 38 0
 444 0010 043090E5 		ldr	r3, [r0, #4]
 445 0014 000053E3 		cmp	r3, #0
 446 0018 0A00000A 		beq	.L33
 447              	.LEHB6:
  39:/home/zkmike/workspace/RZA2M/rza2m_2d_barcode_sample_freertos_gcc/src/zxing_lib/zxing/Exception.h ****     }
 448              		.loc 1 39 0
 449 001c FEFFFFEB 		bl	_ZN5zxing9Exception13deleteMessageEv
 450              	.LVL27:
 451              	.LEHE6:
 452 0020 080000EA 		b	.L33
 453              	.L36:
 454 0024 0050A0E1 		mov	r5, r0
 455 0028 0160A0E1 		mov	r6, r1
  37:/home/zkmike/workspace/RZA2M/rza2m_2d_barcode_sample_freertos_gcc/src/zxing_lib/zxing/Exception.h ****     if(message) {
 456              		.loc 1 37 0
 457 002c 0400A0E1 		mov	r0, r4
 458 0030 FEFFFFEB 		bl	_ZNSt9exceptionD2Ev
 459              	.LVL28:
 460 0034 010076E3 		cmn	r6, #1
 461 0038 0000000A 		beq	.L35
 462              	.LEHB7:
 463 003c FEFFFFEB 		bl	__cxa_end_cleanup
 464              	.LVL29:
 465              	.L35:
 466              	.LBE65:
 467 0040 0500A0E1 		mov	r0, r5
 468 0044 FEFFFFEB 		bl	__cxa_call_unexpected
 469              	.LVL30:
 470              	.LEHE7:
 471              	.L33:
 472              	.LBB66:
 473 0048 0400A0E1 		mov	r0, r4
 474 004c FEFFFFEB 		bl	_ZNSt9exceptionD2Ev
 475              	.LVL31:
 476              	.LBE66:
 477              	.LBE64:
 478              	.LBE63:
  41:/home/zkmike/workspace/RZA2M/rza2m_2d_barcode_sample_freertos_gcc/src/zxing_lib/zxing/Exception.h ****   char const* what() const throw() {return message ? message : "";}
 479              		.loc 1 41 0
 480 0050 0810A0E3 		mov	r1, #8
 481 0054 0400A0E1 		mov	r0, r4
 482 0058 FEFFFFEB 		bl	_ZdlPvj
 483              	.LVL32:
 484 005c 0400A0E1 		mov	r0, r4
 485 0060 7080BDE8 		pop	{r4, r5, r6, pc}
 486              	.L40:
 487              		.align	2
 488              	.L39:
 489 0064 08000000 		.word	_ZTVN5zxing9ExceptionE+8
 490              		.cfi_endproc
 491              	.LFE940:
 492              		.personality	__gxx_personality_v0
 493              		.handlerdata
 494              		.align	2
 495              	.LLSDA940:
 496 0008 FF       		.byte	0xff
 497 0009 10       		.byte	0x10
 498 000a 11       		.uleb128 .LLSDATT940-.LLSDATTD940
 499              	.LLSDATTD940:
 500 000b 01       		.byte	0x1
 501 000c 08       		.uleb128 .LLSDACSE940-.LLSDACSB940
 502              	.LLSDACSB940:
 503 000d 1C       		.uleb128 .LEHB6-.LFB940
 504 000e 04       		.uleb128 .LEHE6-.LEHB6
 505 000f 24       		.uleb128 .L36-.LFB940
 506 0010 03       		.uleb128 0x3
 507 0011 3C       		.uleb128 .LEHB7-.LFB940
 508 0012 0C       		.uleb128 .LEHE7-.LEHB7
 509 0013 00       		.uleb128 0
 510 0014 00       		.uleb128 0
 511              	.LLSDACSE940:
 512 0015 7F       		.byte	0x7f
 513 0016 00       		.byte	0
 514 0017 00       		.byte	0
 515 0018 7D       		.byte	0x7d
 516 0019 000000   		.align	2
 517              	.LLSDATT940:
 518 001c 00000000 		.word	0
 519              		.section	.text._ZN5zxing9ExceptionD0Ev,"axG",%progbits,_ZN5zxing9ExceptionD5Ev,comdat
 520              		.fnend
 522              		.section	.text._ZN5zxing15ReaderExceptionD0Ev,"axG",%progbits,_ZN5zxing15ReaderExceptionD5Ev,comda
 523              		.align	2
 524              		.weak	_ZN5zxing15ReaderExceptionD0Ev
 525              		.syntax unified
 526              		.arm
 527              		.fpu neon
 529              	_ZN5zxing15ReaderExceptionD0Ev:
 530              		.fnstart
 531              	.LFB951:
 532              		.loc 3 32 0
 533              		.cfi_startproc
 534              		.cfi_personality 0,__gxx_personality_v0
 535              		.cfi_lsda 0,.LLSDA951
 536              		@ args = 0, pretend = 0, frame = 0
 537              		@ frame_needed = 0, uses_anonymous_args = 0
 538              	.LVL33:
 539 0000 70402DE9 		push	{r4, r5, r6, lr}
 540              		.save {r4, r5, r6, lr}
 541              		.cfi_def_cfa_offset 16
 542              		.cfi_offset 4, -16
 543              		.cfi_offset 5, -12
 544              		.cfi_offset 6, -8
 545              		.cfi_offset 14, -4
 546 0004 0040A0E1 		mov	r4, r0
 547              	.LVL34:
 548              	.LBB72:
 549              	.LBB73:
 550              	.LBB74:
 551              	.LBB75:
 552              	.LBB76:
  37:/home/zkmike/workspace/RZA2M/rza2m_2d_barcode_sample_freertos_gcc/src/zxing_lib/zxing/Exception.h ****     if(message) {
 553              		.loc 1 37 0
 554 0008 54309FE5 		ldr	r3, .L48
 555 000c 003080E5 		str	r3, [r0]
  38:/home/zkmike/workspace/RZA2M/rza2m_2d_barcode_sample_freertos_gcc/src/zxing_lib/zxing/Exception.h ****       deleteMessage();
 556              		.loc 1 38 0
 557 0010 043090E5 		ldr	r3, [r0, #4]
 558 0014 000053E3 		cmp	r3, #0
 559 0018 0A00000A 		beq	.L42
 560              	.LEHB8:
  39:/home/zkmike/workspace/RZA2M/rza2m_2d_barcode_sample_freertos_gcc/src/zxing_lib/zxing/Exception.h ****     }
 561              		.loc 1 39 0
 562 001c FEFFFFEB 		bl	_ZN5zxing9Exception13deleteMessageEv
 563              	.LVL35:
 564              	.LEHE8:
 565 0020 080000EA 		b	.L42
 566              	.L45:
 567 0024 0050A0E1 		mov	r5, r0
 568 0028 0160A0E1 		mov	r6, r1
  37:/home/zkmike/workspace/RZA2M/rza2m_2d_barcode_sample_freertos_gcc/src/zxing_lib/zxing/Exception.h ****     if(message) {
 569              		.loc 1 37 0
 570 002c 0400A0E1 		mov	r0, r4
 571 0030 FEFFFFEB 		bl	_ZNSt9exceptionD2Ev
 572              	.LVL36:
 573 0034 010076E3 		cmn	r6, #1
 574 0038 0000000A 		beq	.L44
 575              	.LEHB9:
 576 003c FEFFFFEB 		bl	__cxa_end_cleanup
 577              	.LVL37:
 578              	.L44:
 579              	.LBE76:
 580 0040 0500A0E1 		mov	r0, r5
 581 0044 FEFFFFEB 		bl	__cxa_call_unexpected
 582              	.LVL38:
 583              	.LEHE9:
 584              	.L42:
 585              	.LBB77:
 586 0048 0400A0E1 		mov	r0, r4
 587 004c FEFFFFEB 		bl	_ZNSt9exceptionD2Ev
 588              	.LVL39:
 589              	.LBE77:
 590              	.LBE75:
 591              	.LBE74:
 592              	.LBE73:
 593              	.LBE72:
 594              		.loc 3 32 0
 595 0050 0810A0E3 		mov	r1, #8
 596 0054 0400A0E1 		mov	r0, r4
 597 0058 FEFFFFEB 		bl	_ZdlPvj
 598              	.LVL40:
 599 005c 0400A0E1 		mov	r0, r4
 600 0060 7080BDE8 		pop	{r4, r5, r6, pc}
 601              	.L49:
 602              		.align	2
 603              	.L48:
 604 0064 08000000 		.word	_ZTVN5zxing9ExceptionE+8
 605              		.cfi_endproc
 606              	.LFE951:
 607              		.personality	__gxx_personality_v0
 608              		.handlerdata
 609              		.align	2
 610              	.LLSDA951:
 611 0008 FF       		.byte	0xff
 612 0009 10       		.byte	0x10
 613 000a 11       		.uleb128 .LLSDATT951-.LLSDATTD951
 614              	.LLSDATTD951:
 615 000b 01       		.byte	0x1
 616 000c 08       		.uleb128 .LLSDACSE951-.LLSDACSB951
 617              	.LLSDACSB951:
 618 000d 1C       		.uleb128 .LEHB8-.LFB951
 619 000e 04       		.uleb128 .LEHE8-.LEHB8
 620 000f 24       		.uleb128 .L45-.LFB951
 621 0010 03       		.uleb128 0x3
 622 0011 3C       		.uleb128 .LEHB9-.LFB951
 623 0012 0C       		.uleb128 .LEHE9-.LEHB9
 624 0013 00       		.uleb128 0
 625 0014 00       		.uleb128 0
 626              	.LLSDACSE951:
 627 0015 7F       		.byte	0x7f
 628 0016 00       		.byte	0
 629 0017 00       		.byte	0
 630 0018 7D       		.byte	0x7d
 631 0019 000000   		.align	2
 632              	.LLSDATT951:
 633 001c 00000000 		.word	0
 634              		.section	.text._ZN5zxing15ReaderExceptionD0Ev,"axG",%progbits,_ZN5zxing15ReaderExceptionD5Ev,comda
 635              		.fnend
 637              		.section	.text._ZN5zxing17ChecksumExceptionC2Ev,"ax",%progbits
 638              		.align	2
 639              		.global	_ZN5zxing17ChecksumExceptionC2Ev
 640              		.syntax unified
 641              		.arm
 642              		.fpu neon
 644              	_ZN5zxing17ChecksumExceptionC2Ev:
 645              		.fnstart
 646              	.LFB953:
  26:../src/zxing_lib/zxing/ChecksumException.cpp **** ChecksumException::ChecksumException(const char *msg) throw() : ReaderException(msg) {}
 647              		.loc 2 26 0
 648              		.cfi_startproc
 649              		@ args = 0, pretend = 0, frame = 0
 650              		@ frame_needed = 0, uses_anonymous_args = 0
 651              		@ link register save eliminated.
 652              	.LVL41:
 653              	.LBB78:
 654              	.LBB79:
 655              	.LBB80:
 656              	.LBB81:
  34:/home/zkmike/workspace/RZA2M/rza2m_2d_barcode_sample_freertos_gcc/src/zxing_lib/zxing/Exception.h ****   Exception(const char* msg) throw() : message(copy(msg)) {}
 657              		.loc 1 34 0
 658 0000 0020A0E3 		mov	r2, #0
 659 0004 042080E5 		str	r2, [r0, #4]
 660              	.LVL42:
 661              	.LBE81:
 662              	.LBE80:
 663              	.LBE79:
  26:../src/zxing_lib/zxing/ChecksumException.cpp **** ChecksumException::ChecksumException(const char *msg) throw() : ReaderException(msg) {}
 664              		.loc 2 26 0
 665 0008 04209FE5 		ldr	r2, .L51
 666 000c 002080E5 		str	r2, [r0]
 667              	.LBE78:
 668 0010 1EFF2FE1 		bx	lr
 669              	.L52:
 670              		.align	2
 671              	.L51:
 672 0014 08000000 		.word	.LANCHOR0+8
 673              		.cfi_endproc
 674              	.LFE953:
 675              		.cantunwind
 676              		.fnend
 678              		.global	_ZN5zxing17ChecksumExceptionC1Ev
 679              		.set	_ZN5zxing17ChecksumExceptionC1Ev,_ZN5zxing17ChecksumExceptionC2Ev
 680              		.section	.text._ZN5zxing17ChecksumExceptionC2EPKc,"ax",%progbits
 681              		.align	2
 682              		.global	_ZN5zxing17ChecksumExceptionC2EPKc
 683              		.syntax unified
 684              		.arm
 685              		.fpu neon
 687              	_ZN5zxing17ChecksumExceptionC2EPKc:
 688              		.fnstart
 689              	.LFB956:
  27:../src/zxing_lib/zxing/ChecksumException.cpp **** ChecksumException::~ChecksumException() throw() {}
 690              		.loc 2 27 0
 691              		.cfi_startproc
 692              		.cfi_personality 0,__gxx_personality_v0
 693              		.cfi_lsda 0,.LLSDA956
 694              		@ args = 0, pretend = 0, frame = 0
 695              		@ frame_needed = 0, uses_anonymous_args = 0
 696              	.LVL43:
 697 0000 70402DE9 		push	{r4, r5, r6, lr}
 698              		.save {r4, r5, r6, lr}
 699              		.cfi_def_cfa_offset 16
 700              		.cfi_offset 4, -16
 701              		.cfi_offset 5, -12
 702              		.cfi_offset 6, -8
 703              		.cfi_offset 14, -4
 704 0004 0040A0E1 		mov	r4, r0
 705              	.LVL44:
 706              	.LBB91:
 707              	.LBB92:
 708              	.LBB93:
 709              	.LBB94:
 710              	.LBB95:
 711              	.LBB96:
  35:/home/zkmike/workspace/RZA2M/rza2m_2d_barcode_sample_freertos_gcc/src/zxing_lib/zxing/Exception.h ****   Exception(Exception const& that) throw() : std::exception(that), message(copy(that.message)) {}
 712              		.loc 1 35 0
 713 0008 44309FE5 		ldr	r3, .L61
 714 000c 003080E5 		str	r3, [r0]
 715 0010 0100A0E1 		mov	r0, r1
 716              	.LVL45:
 717              	.LEHB10:
 718 0014 FEFFFFEB 		bl	_ZN5zxing9Exception4copyEPKc
 719              	.LVL46:
 720              	.LEHE10:
 721 0018 080000EA 		b	.L60
 722              	.L56:
 723 001c 0050A0E1 		mov	r5, r0
 724 0020 0160A0E1 		mov	r6, r1
 725 0024 0400A0E1 		mov	r0, r4
 726 0028 FEFFFFEB 		bl	_ZNSt9exceptionD2Ev
 727              	.LVL47:
 728 002c 010076E3 		cmn	r6, #1
 729 0030 0000000A 		beq	.L55
 730              	.LEHB11:
 731 0034 FEFFFFEB 		bl	__cxa_end_cleanup
 732              	.LVL48:
 733              	.L55:
 734              	.LBE96:
 735 0038 0500A0E1 		mov	r0, r5
 736 003c FEFFFFEB 		bl	__cxa_call_unexpected
 737              	.LVL49:
 738              	.LEHE11:
 739              	.L60:
 740              	.LBB97:
 741 0040 040084E5 		str	r0, [r4, #4]
 742              	.LVL50:
 743              	.LBE97:
 744              	.LBE95:
 745              	.LBE94:
 746              	.LBE93:
 747              	.LBE92:
  27:../src/zxing_lib/zxing/ChecksumException.cpp **** ChecksumException::~ChecksumException() throw() {}
 748              		.loc 2 27 0
 749 0044 0C309FE5 		ldr	r3, .L61+4
 750 0048 003084E5 		str	r3, [r4]
 751              	.LBE91:
 752 004c 0400A0E1 		mov	r0, r4
 753 0050 7080BDE8 		pop	{r4, r5, r6, pc}
 754              	.L62:
 755              		.align	2
 756              	.L61:
 757 0054 08000000 		.word	_ZTVN5zxing9ExceptionE+8
 758 0058 08000000 		.word	.LANCHOR0+8
 759              		.cfi_endproc
 760              	.LFE956:
 761              		.personality	__gxx_personality_v0
 762              		.handlerdata
 763              		.align	2
 764              	.LLSDA956:
 765 0008 FF       		.byte	0xff
 766 0009 10       		.byte	0x10
 767 000a 11       		.uleb128 .LLSDATT956-.LLSDATTD956
 768              	.LLSDATTD956:
 769 000b 01       		.byte	0x1
 770 000c 08       		.uleb128 .LLSDACSE956-.LLSDACSB956
 771              	.LLSDACSB956:
 772 000d 14       		.uleb128 .LEHB10-.LFB956
 773 000e 04       		.uleb128 .LEHE10-.LEHB10
 774 000f 1C       		.uleb128 .L56-.LFB956
 775 0010 03       		.uleb128 0x3
 776 0011 34       		.uleb128 .LEHB11-.LFB956
 777 0012 0C       		.uleb128 .LEHE11-.LEHB11
 778 0013 00       		.uleb128 0
 779 0014 00       		.uleb128 0
 780              	.LLSDACSE956:
 781 0015 7F       		.byte	0x7f
 782 0016 00       		.byte	0
 783 0017 00       		.byte	0
 784 0018 7D       		.byte	0x7d
 785 0019 000000   		.align	2
 786              	.LLSDATT956:
 787 001c 00000000 		.word	0
 788              		.section	.text._ZN5zxing17ChecksumExceptionC2EPKc
 789              		.fnend
 791              		.global	_ZN5zxing17ChecksumExceptionC1EPKc
 792              		.set	_ZN5zxing17ChecksumExceptionC1EPKc,_ZN5zxing17ChecksumExceptionC2EPKc
 793              		.weak	_ZTSN5zxing9ExceptionE
 794              		.section	.rodata._ZTSN5zxing9ExceptionE,"aG",%progbits,_ZTSN5zxing9ExceptionE,comdat
 795              		.align	2
 798              	_ZTSN5zxing9ExceptionE:
 799 0000 4E357A78 		.ascii	"N5zxing9ExceptionE\000"
 799      696E6739 
 799      45786365 
 799      7074696F 
 799      6E4500
 800              		.weak	_ZTIN5zxing9ExceptionE
 801              		.section	.rodata._ZTIN5zxing9ExceptionE,"aG",%progbits,_ZTIN5zxing9ExceptionE,comdat
 802              		.align	2
 805              	_ZTIN5zxing9ExceptionE:
 806 0000 08000000 		.word	_ZTVN10__cxxabiv120__si_class_type_infoE+8
 807 0004 00000000 		.word	_ZTSN5zxing9ExceptionE
 808 0008 00000000 		.word	_ZTISt9exception
 809              		.weak	_ZTSN5zxing15ReaderExceptionE
 810              		.section	.rodata._ZTSN5zxing15ReaderExceptionE,"aG",%progbits,_ZTSN5zxing15ReaderExceptionE,comdat
 811              		.align	2
 814              	_ZTSN5zxing15ReaderExceptionE:
 815 0000 4E357A78 		.ascii	"N5zxing15ReaderExceptionE\000"
 815      696E6731 
 815      35526561 
 815      64657245 
 815      78636570 
 816              		.weak	_ZTIN5zxing15ReaderExceptionE
 817              		.section	.rodata._ZTIN5zxing15ReaderExceptionE,"aG",%progbits,_ZTIN5zxing15ReaderExceptionE,comdat
 818              		.align	2
 821              	_ZTIN5zxing15ReaderExceptionE:
 822 0000 08000000 		.word	_ZTVN10__cxxabiv120__si_class_type_infoE+8
 823 0004 00000000 		.word	_ZTSN5zxing15ReaderExceptionE
 824 0008 00000000 		.word	_ZTIN5zxing9ExceptionE
 825              		.global	_ZTSN5zxing17ChecksumExceptionE
 826              		.global	_ZTIN5zxing17ChecksumExceptionE
 827              		.weak	_ZTVN5zxing9ExceptionE
 828              		.section	.rodata._ZTVN5zxing9ExceptionE,"aG",%progbits,_ZTVN5zxing9ExceptionE,comdat
 829              		.align	2
 832              	_ZTVN5zxing9ExceptionE:
 833 0000 00000000 		.word	0
 834 0004 00000000 		.word	_ZTIN5zxing9ExceptionE
 835 0008 00000000 		.word	_ZN5zxing9ExceptionD1Ev
 836 000c 00000000 		.word	_ZN5zxing9ExceptionD0Ev
 837 0010 00000000 		.word	_ZNK5zxing9Exception4whatEv
 838              		.weak	_ZTVN5zxing15ReaderExceptionE
 839              		.section	.rodata._ZTVN5zxing15ReaderExceptionE,"aG",%progbits,_ZTVN5zxing15ReaderExceptionE,comdat
 840              		.align	2
 843              	_ZTVN5zxing15ReaderExceptionE:
 844 0000 00000000 		.word	0
 845 0004 00000000 		.word	_ZTIN5zxing15ReaderExceptionE
 846 0008 00000000 		.word	_ZN5zxing15ReaderExceptionD1Ev
 847 000c 00000000 		.word	_ZN5zxing15ReaderExceptionD0Ev
 848 0010 00000000 		.word	_ZNK5zxing9Exception4whatEv
 849              		.global	_ZTVN5zxing17ChecksumExceptionE
 850              		.section	.rodata._ZNK5zxing9Exception4whatEv.str1.4,"aMS",%progbits,1
 851              		.align	2
 852              	.LC0:
 853 0000 00       		.ascii	"\000"
 854              		.section	.rodata._ZTIN5zxing17ChecksumExceptionE,"a",%progbits
 855              		.align	2
 858              	_ZTIN5zxing17ChecksumExceptionE:
 859 0000 08000000 		.word	_ZTVN10__cxxabiv120__si_class_type_infoE+8
 860 0004 00000000 		.word	_ZTSN5zxing17ChecksumExceptionE
 861 0008 00000000 		.word	_ZTIN5zxing15ReaderExceptionE
 862              		.section	.rodata._ZTSN5zxing17ChecksumExceptionE,"a",%progbits
 863              		.align	2
 866              	_ZTSN5zxing17ChecksumExceptionE:
 867 0000 4E357A78 		.ascii	"N5zxing17ChecksumExceptionE\000"
 867      696E6731 
 867      37436865 
 867      636B7375 
 867      6D457863 
 868              		.section	.rodata._ZTVN5zxing17ChecksumExceptionE,"a",%progbits
 869              		.align	2
 870              		.set	.LANCHOR0,. + 0
 873              	_ZTVN5zxing17ChecksumExceptionE:
 874 0000 00000000 		.word	0
 875 0004 00000000 		.word	_ZTIN5zxing17ChecksumExceptionE
 876 0008 00000000 		.word	_ZN5zxing17ChecksumExceptionD1Ev
 877 000c 00000000 		.word	_ZN5zxing17ChecksumExceptionD0Ev
 878 0010 00000000 		.word	_ZNK5zxing9Exception4whatEv
 879              		.text
 880              	.Letext0:
 881              		.file 4 "/home/zkmike/.local/share/renesas/e2_studio/toolchains/gcc_arm/gcc-arm-none-eabi-6-2017-q
 882              		.file 5 "/home/zkmike/.local/share/renesas/e2_studio/toolchains/gcc_arm/gcc-arm-none-eabi-6-2017-q
 883              		.file 6 "/home/zkmike/.local/share/renesas/e2_studio/toolchains/gcc_arm/gcc-arm-none-eabi-6-2017-q
 884              		.file 7 "/home/zkmike/.local/share/renesas/e2_studio/toolchains/gcc_arm/gcc-arm-none-eabi-6-2017-q
 885              		.file 8 "/home/zkmike/.local/share/renesas/e2_studio/toolchains/gcc_arm/gcc-arm-none-eabi-6-2017-q
 886              		.file 9 "/home/zkmike/.local/share/renesas/e2_studio/toolchains/gcc_arm/gcc-arm-none-eabi-6-2017-q
 887              		.file 10 "/home/zkmike/.local/share/renesas/e2_studio/toolchains/gcc_arm/gcc-arm-none-eabi-6-2017-
 888              		.file 11 "/home/zkmike/.local/share/renesas/e2_studio/toolchains/gcc_arm/gcc-arm-none-eabi-6-2017-
 889              		.file 12 "/home/zkmike/.local/share/renesas/e2_studio/toolchains/gcc_arm/gcc-arm-none-eabi-6-2017-
 890              		.file 13 "/home/zkmike/.local/share/renesas/e2_studio/toolchains/gcc_arm/gcc-arm-none-eabi-6-2017-
 891              		.file 14 "/home/zkmike/.local/share/renesas/e2_studio/toolchains/gcc_arm/gcc-arm-none-eabi-6-2017-
 892              		.file 15 "/home/zkmike/.local/share/renesas/e2_studio/toolchains/gcc_arm/gcc-arm-none-eabi-6-2017-
 893              		.file 16 "/home/zkmike/.local/share/renesas/e2_studio/toolchains/gcc_arm/gcc-arm-none-eabi-6-2017-
 894              		.file 17 "/home/zkmike/.local/share/renesas/e2_studio/toolchains/gcc_arm/gcc-arm-none-eabi-6-2017-
 895              		.file 18 "/home/zkmike/.local/share/renesas/e2_studio/toolchains/gcc_arm/gcc-arm-none-eabi-6-2017-
 896              		.file 19 "/home/zkmike/.local/share/renesas/e2_studio/toolchains/gcc_arm/gcc-arm-none-eabi-6-2017-
 897              		.file 20 "/home/zkmike/.local/share/renesas/e2_studio/toolchains/gcc_arm/gcc-arm-none-eabi-6-2017-
 898              		.file 21 "/home/zkmike/.local/share/renesas/e2_studio/toolchains/gcc_arm/gcc-arm-none-eabi-6-2017-
 899              		.file 22 "/home/zkmike/.local/share/renesas/e2_studio/toolchains/gcc_arm/gcc-arm-none-eabi-6-2017-
 900              		.file 23 "/home/zkmike/.local/share/renesas/e2_studio/toolchains/gcc_arm/gcc-arm-none-eabi-6-2017-
 901              		.file 24 "/home/zkmike/.local/share/renesas/e2_studio/toolchains/gcc_arm/gcc-arm-none-eabi-6-2017-
 902              		.file 25 "/home/zkmike/.local/share/renesas/e2_studio/toolchains/gcc_arm/gcc-arm-none-eabi-6-2017-
 903              		.file 26 "/home/zkmike/.local/share/renesas/e2_studio/toolchains/gcc_arm/gcc-arm-none-eabi-6-2017-
 904              		.file 27 "/home/zkmike/.local/share/renesas/e2_studio/toolchains/gcc_arm/gcc-arm-none-eabi-6-2017-
 905              		.file 28 "/home/zkmike/.local/share/renesas/e2_studio/toolchains/gcc_arm/gcc-arm-none-eabi-6-2017-
 906              		.file 29 "/home/zkmike/.local/share/renesas/e2_studio/toolchains/gcc_arm/gcc-arm-none-eabi-6-2017-
 907              		.file 30 "/home/zkmike/.local/share/renesas/e2_studio/toolchains/gcc_arm/gcc-arm-none-eabi-6-2017-
 908              		.file 31 "/home/zkmike/.local/share/renesas/e2_studio/toolchains/gcc_arm/gcc-arm-none-eabi-6-2017-
 909              		.file 32 "/home/zkmike/.local/share/renesas/e2_studio/toolchains/gcc_arm/gcc-arm-none-eabi-6-2017-
 910              		.file 33 "<built-in>"
 911              		.file 34 "/home/zkmike/.local/share/renesas/e2_studio/toolchains/gcc_arm/gcc-arm-none-eabi-6-2017-
 912              		.file 35 "/home/zkmike/.local/share/renesas/e2_studio/toolchains/gcc_arm/gcc-arm-none-eabi-6-2017-
 913              		.file 36 "/home/zkmike/.local/share/renesas/e2_studio/toolchains/gcc_arm/gcc-arm-none-eabi-6-2017-
 914              		.file 37 "/home/zkmike/.local/share/renesas/e2_studio/toolchains/gcc_arm/gcc-arm-none-eabi-6-2017-
 915              		.file 38 "/home/zkmike/.local/share/renesas/e2_studio/toolchains/gcc_arm/gcc-arm-none-eabi-6-2017-
 916              		.file 39 "/home/zkmike/.local/share/renesas/e2_studio/toolchains/gcc_arm/gcc-arm-none-eabi-6-2017-
 917              		.file 40 "/home/zkmike/.local/share/renesas/e2_studio/toolchains/gcc_arm/gcc-arm-none-eabi-6-2017-
 918              		.file 41 "/home/zkmike/.local/share/renesas/e2_studio/toolchains/gcc_arm/gcc-arm-none-eabi-6-2017-
 919              		.file 42 "/home/zkmike/workspace/RZA2M/rza2m_2d_barcode_sample_freertos_gcc/src/zxing_lib/zxing/Ch