   1              		.cpu cortex-a9
   2              		.eabi_attribute 28, 1
   3              		.eabi_attribute 20, 1
   4              		.eabi_attribute 21, 1
   5              		.eabi_attribute 23, 3
   6              		.eabi_attribute 24, 1
   7              		.eabi_attribute 25, 1
   8              		.eabi_attribute 26, 1
   9              		.eabi_attribute 30, 1
  10              		.eabi_attribute 34, 0
  11              		.eabi_attribute 18, 4
  12              		.file	"DecodeHints.cpp"
  13              		.text
  14              	.Ltext0:
  15              		.cfi_sections	.debug_frame
  16              		.section	.text._ZN5zxing11DecodeHintsD2Ev,"axG",%progbits,_ZN5zxing11DecodeHintsD5Ev,comdat
  17              		.align	2
  18              		.weak	_ZN5zxing11DecodeHintsD2Ev
  19              		.syntax unified
  20              		.arm
  21              		.fpu neon
  23              	_ZN5zxing11DecodeHintsD2Ev:
  24              		.fnstart
  25              	.LFB1489:
  26              		.file 1 "/home/zkmike/workspace/RZA2M/rza2m_2d_barcode_sample_freertos_gcc/src/zxing_lib/zxing/Dec
   1:/home/zkmike/workspace/RZA2M/rza2m_2d_barcode_sample_freertos_gcc/src/zxing_lib/zxing/DecodeHints.h **** // -*- mode:c++; tab-width:2; indent-tabs-mode:nil; c-basic-offset:2 -*-
   2:/home/zkmike/workspace/RZA2M/rza2m_2d_barcode_sample_freertos_gcc/src/zxing_lib/zxing/DecodeHints.h **** #ifndef __DECODEHINTS_H_
   3:/home/zkmike/workspace/RZA2M/rza2m_2d_barcode_sample_freertos_gcc/src/zxing_lib/zxing/DecodeHints.h **** #define __DECODEHINTS_H_
   4:/home/zkmike/workspace/RZA2M/rza2m_2d_barcode_sample_freertos_gcc/src/zxing_lib/zxing/DecodeHints.h **** /*
   5:/home/zkmike/workspace/RZA2M/rza2m_2d_barcode_sample_freertos_gcc/src/zxing_lib/zxing/DecodeHints.h ****  *  DecodeHintType.h
   6:/home/zkmike/workspace/RZA2M/rza2m_2d_barcode_sample_freertos_gcc/src/zxing_lib/zxing/DecodeHints.h ****  *  zxing
   7:/home/zkmike/workspace/RZA2M/rza2m_2d_barcode_sample_freertos_gcc/src/zxing_lib/zxing/DecodeHints.h ****  *
   8:/home/zkmike/workspace/RZA2M/rza2m_2d_barcode_sample_freertos_gcc/src/zxing_lib/zxing/DecodeHints.h ****  *  Copyright 2010 ZXing authors All rights reserved.
   9:/home/zkmike/workspace/RZA2M/rza2m_2d_barcode_sample_freertos_gcc/src/zxing_lib/zxing/DecodeHints.h ****  *
  10:/home/zkmike/workspace/RZA2M/rza2m_2d_barcode_sample_freertos_gcc/src/zxing_lib/zxing/DecodeHints.h ****  * Licensed under the Apache License, Version 2.0 (the "License");
  11:/home/zkmike/workspace/RZA2M/rza2m_2d_barcode_sample_freertos_gcc/src/zxing_lib/zxing/DecodeHints.h ****  * you may not use this file except in compliance with the License.
  12:/home/zkmike/workspace/RZA2M/rza2m_2d_barcode_sample_freertos_gcc/src/zxing_lib/zxing/DecodeHints.h ****  * You may obtain a copy of the License at
  13:/home/zkmike/workspace/RZA2M/rza2m_2d_barcode_sample_freertos_gcc/src/zxing_lib/zxing/DecodeHints.h ****  *
  14:/home/zkmike/workspace/RZA2M/rza2m_2d_barcode_sample_freertos_gcc/src/zxing_lib/zxing/DecodeHints.h ****  *      http://www.apache.org/licenses/LICENSE-2.0
  15:/home/zkmike/workspace/RZA2M/rza2m_2d_barcode_sample_freertos_gcc/src/zxing_lib/zxing/DecodeHints.h ****  *
  16:/home/zkmike/workspace/RZA2M/rza2m_2d_barcode_sample_freertos_gcc/src/zxing_lib/zxing/DecodeHints.h ****  * Unless required by applicable law or agreed to in writing, software
  17:/home/zkmike/workspace/RZA2M/rza2m_2d_barcode_sample_freertos_gcc/src/zxing_lib/zxing/DecodeHints.h ****  * distributed under the License is distributed on an "AS IS" BASIS,
  18:/home/zkmike/workspace/RZA2M/rza2m_2d_barcode_sample_freertos_gcc/src/zxing_lib/zxing/DecodeHints.h ****  * WITHOUT WARRANTIES OR CONDITIONS OF ANY KIND, either express or implied.
  19:/home/zkmike/workspace/RZA2M/rza2m_2d_barcode_sample_freertos_gcc/src/zxing_lib/zxing/DecodeHints.h ****  * See the License for the specific language governing permissions and
  20:/home/zkmike/workspace/RZA2M/rza2m_2d_barcode_sample_freertos_gcc/src/zxing_lib/zxing/DecodeHints.h ****  * limitations under the License.
  21:/home/zkmike/workspace/RZA2M/rza2m_2d_barcode_sample_freertos_gcc/src/zxing_lib/zxing/DecodeHints.h ****  */
  22:/home/zkmike/workspace/RZA2M/rza2m_2d_barcode_sample_freertos_gcc/src/zxing_lib/zxing/DecodeHints.h **** 
  23:/home/zkmike/workspace/RZA2M/rza2m_2d_barcode_sample_freertos_gcc/src/zxing_lib/zxing/DecodeHints.h **** #include <zxing/BarcodeFormat.h>
  24:/home/zkmike/workspace/RZA2M/rza2m_2d_barcode_sample_freertos_gcc/src/zxing_lib/zxing/DecodeHints.h **** #include <zxing/ResultPointCallback.h>
  25:/home/zkmike/workspace/RZA2M/rza2m_2d_barcode_sample_freertos_gcc/src/zxing_lib/zxing/DecodeHints.h **** 
  26:/home/zkmike/workspace/RZA2M/rza2m_2d_barcode_sample_freertos_gcc/src/zxing_lib/zxing/DecodeHints.h **** namespace zxing {
  27:/home/zkmike/workspace/RZA2M/rza2m_2d_barcode_sample_freertos_gcc/src/zxing_lib/zxing/DecodeHints.h **** 
  28:/home/zkmike/workspace/RZA2M/rza2m_2d_barcode_sample_freertos_gcc/src/zxing_lib/zxing/DecodeHints.h **** typedef unsigned int DecodeHintType;
  29:/home/zkmike/workspace/RZA2M/rza2m_2d_barcode_sample_freertos_gcc/src/zxing_lib/zxing/DecodeHints.h **** class DecodeHints;
  30:/home/zkmike/workspace/RZA2M/rza2m_2d_barcode_sample_freertos_gcc/src/zxing_lib/zxing/DecodeHints.h **** DecodeHints operator | (DecodeHints const&, DecodeHints const&);
  31:/home/zkmike/workspace/RZA2M/rza2m_2d_barcode_sample_freertos_gcc/src/zxing_lib/zxing/DecodeHints.h **** 
  32:/home/zkmike/workspace/RZA2M/rza2m_2d_barcode_sample_freertos_gcc/src/zxing_lib/zxing/DecodeHints.h **** class DecodeHints {
  27              		.loc 1 32 0
  28              		.cfi_startproc
  29              		@ args = 0, pretend = 0, frame = 0
  30              		@ frame_needed = 0, uses_anonymous_args = 0
  31              	.LVL0:
  32 0000 10402DE9 		push	{r4, lr}
  33              		.cfi_def_cfa_offset 8
  34              		.cfi_offset 4, -8
  35              		.cfi_offset 14, -4
  36 0004 0040A0E1 		mov	r4, r0
  37              	.LVL1:
  38              	.LBB102:
  39              	.LBB103:
  40              		.file 2 "/home/zkmike/workspace/RZA2M/rza2m_2d_barcode_sample_freertos_gcc/src/zxing_lib/zxing/com
   1:/home/zkmike/workspace/RZA2M/rza2m_2d_barcode_sample_freertos_gcc/src/zxing_lib/zxing/common/Counted.h **** // -*- mode:c++; tab-width:2; indent-tabs-mode:nil; c-basic-offset:2 -*-
   2:/home/zkmike/workspace/RZA2M/rza2m_2d_barcode_sample_freertos_gcc/src/zxing_lib/zxing/common/Counted.h **** #ifndef __COUNTED_H__
   3:/home/zkmike/workspace/RZA2M/rza2m_2d_barcode_sample_freertos_gcc/src/zxing_lib/zxing/common/Counted.h **** #define __COUNTED_H__
   4:/home/zkmike/workspace/RZA2M/rza2m_2d_barcode_sample_freertos_gcc/src/zxing_lib/zxing/common/Counted.h **** 
   5:/home/zkmike/workspace/RZA2M/rza2m_2d_barcode_sample_freertos_gcc/src/zxing_lib/zxing/common/Counted.h **** /*
   6:/home/zkmike/workspace/RZA2M/rza2m_2d_barcode_sample_freertos_gcc/src/zxing_lib/zxing/common/Counted.h ****  *  Copyright 2010 ZXing authors All rights reserved.
   7:/home/zkmike/workspace/RZA2M/rza2m_2d_barcode_sample_freertos_gcc/src/zxing_lib/zxing/common/Counted.h ****  *
   8:/home/zkmike/workspace/RZA2M/rza2m_2d_barcode_sample_freertos_gcc/src/zxing_lib/zxing/common/Counted.h ****  * Licensed under the Apache License, Version 2.0 (the "License");
   9:/home/zkmike/workspace/RZA2M/rza2m_2d_barcode_sample_freertos_gcc/src/zxing_lib/zxing/common/Counted.h ****  * you may not use this file except in compliance with the License.
  10:/home/zkmike/workspace/RZA2M/rza2m_2d_barcode_sample_freertos_gcc/src/zxing_lib/zxing/common/Counted.h ****  * You may obtain a copy of the License at
  11:/home/zkmike/workspace/RZA2M/rza2m_2d_barcode_sample_freertos_gcc/src/zxing_lib/zxing/common/Counted.h ****  *
  12:/home/zkmike/workspace/RZA2M/rza2m_2d_barcode_sample_freertos_gcc/src/zxing_lib/zxing/common/Counted.h ****  *      http://www.apache.org/licenses/LICENSE-2.0
  13:/home/zkmike/workspace/RZA2M/rza2m_2d_barcode_sample_freertos_gcc/src/zxing_lib/zxing/common/Counted.h ****  *
  14:/home/zkmike/workspace/RZA2M/rza2m_2d_barcode_sample_freertos_gcc/src/zxing_lib/zxing/common/Counted.h ****  * Unless required by applicable law or agreed to in writing, software
  15:/home/zkmike/workspace/RZA2M/rza2m_2d_barcode_sample_freertos_gcc/src/zxing_lib/zxing/common/Counted.h ****  * distributed under the License is distributed on an "AS IS" BASIS,
  16:/home/zkmike/workspace/RZA2M/rza2m_2d_barcode_sample_freertos_gcc/src/zxing_lib/zxing/common/Counted.h ****  * WITHOUT WARRANTIES OR CONDITIONS OF ANY KIND, either express or implied.
  17:/home/zkmike/workspace/RZA2M/rza2m_2d_barcode_sample_freertos_gcc/src/zxing_lib/zxing/common/Counted.h ****  * See the License for the specific language governing permissions and
  18:/home/zkmike/workspace/RZA2M/rza2m_2d_barcode_sample_freertos_gcc/src/zxing_lib/zxing/common/Counted.h ****  * limitations under the License.
  19:/home/zkmike/workspace/RZA2M/rza2m_2d_barcode_sample_freertos_gcc/src/zxing_lib/zxing/common/Counted.h ****  */
  20:/home/zkmike/workspace/RZA2M/rza2m_2d_barcode_sample_freertos_gcc/src/zxing_lib/zxing/common/Counted.h **** 
  21:/home/zkmike/workspace/RZA2M/rza2m_2d_barcode_sample_freertos_gcc/src/zxing_lib/zxing/common/Counted.h **** #include <iostream>
  22:/home/zkmike/workspace/RZA2M/rza2m_2d_barcode_sample_freertos_gcc/src/zxing_lib/zxing/common/Counted.h **** 
  23:/home/zkmike/workspace/RZA2M/rza2m_2d_barcode_sample_freertos_gcc/src/zxing_lib/zxing/common/Counted.h **** namespace zxing {
  24:/home/zkmike/workspace/RZA2M/rza2m_2d_barcode_sample_freertos_gcc/src/zxing_lib/zxing/common/Counted.h **** 
  25:/home/zkmike/workspace/RZA2M/rza2m_2d_barcode_sample_freertos_gcc/src/zxing_lib/zxing/common/Counted.h **** /* base class for reference-counted objects */
  26:/home/zkmike/workspace/RZA2M/rza2m_2d_barcode_sample_freertos_gcc/src/zxing_lib/zxing/common/Counted.h **** class Counted {
  27:/home/zkmike/workspace/RZA2M/rza2m_2d_barcode_sample_freertos_gcc/src/zxing_lib/zxing/common/Counted.h **** private:
  28:/home/zkmike/workspace/RZA2M/rza2m_2d_barcode_sample_freertos_gcc/src/zxing_lib/zxing/common/Counted.h ****   unsigned int count_;
  29:/home/zkmike/workspace/RZA2M/rza2m_2d_barcode_sample_freertos_gcc/src/zxing_lib/zxing/common/Counted.h **** public:
  30:/home/zkmike/workspace/RZA2M/rza2m_2d_barcode_sample_freertos_gcc/src/zxing_lib/zxing/common/Counted.h ****   Counted() :
  31:/home/zkmike/workspace/RZA2M/rza2m_2d_barcode_sample_freertos_gcc/src/zxing_lib/zxing/common/Counted.h ****       count_(0) {
  32:/home/zkmike/workspace/RZA2M/rza2m_2d_barcode_sample_freertos_gcc/src/zxing_lib/zxing/common/Counted.h ****   }
  33:/home/zkmike/workspace/RZA2M/rza2m_2d_barcode_sample_freertos_gcc/src/zxing_lib/zxing/common/Counted.h ****   virtual ~Counted() {
  34:/home/zkmike/workspace/RZA2M/rza2m_2d_barcode_sample_freertos_gcc/src/zxing_lib/zxing/common/Counted.h ****   }
  35:/home/zkmike/workspace/RZA2M/rza2m_2d_barcode_sample_freertos_gcc/src/zxing_lib/zxing/common/Counted.h ****   Counted *retain() {
  36:/home/zkmike/workspace/RZA2M/rza2m_2d_barcode_sample_freertos_gcc/src/zxing_lib/zxing/common/Counted.h ****     count_++;
  37:/home/zkmike/workspace/RZA2M/rza2m_2d_barcode_sample_freertos_gcc/src/zxing_lib/zxing/common/Counted.h ****     return this;
  38:/home/zkmike/workspace/RZA2M/rza2m_2d_barcode_sample_freertos_gcc/src/zxing_lib/zxing/common/Counted.h ****   }
  39:/home/zkmike/workspace/RZA2M/rza2m_2d_barcode_sample_freertos_gcc/src/zxing_lib/zxing/common/Counted.h ****   void release() {
  40:/home/zkmike/workspace/RZA2M/rza2m_2d_barcode_sample_freertos_gcc/src/zxing_lib/zxing/common/Counted.h ****     count_--;
  41:/home/zkmike/workspace/RZA2M/rza2m_2d_barcode_sample_freertos_gcc/src/zxing_lib/zxing/common/Counted.h ****     if (count_ == 0) {
  42:/home/zkmike/workspace/RZA2M/rza2m_2d_barcode_sample_freertos_gcc/src/zxing_lib/zxing/common/Counted.h ****       count_ = 0xDEADF001;
  43:/home/zkmike/workspace/RZA2M/rza2m_2d_barcode_sample_freertos_gcc/src/zxing_lib/zxing/common/Counted.h ****       delete this;
  44:/home/zkmike/workspace/RZA2M/rza2m_2d_barcode_sample_freertos_gcc/src/zxing_lib/zxing/common/Counted.h ****     }
  45:/home/zkmike/workspace/RZA2M/rza2m_2d_barcode_sample_freertos_gcc/src/zxing_lib/zxing/common/Counted.h ****   }
  46:/home/zkmike/workspace/RZA2M/rza2m_2d_barcode_sample_freertos_gcc/src/zxing_lib/zxing/common/Counted.h **** 
  47:/home/zkmike/workspace/RZA2M/rza2m_2d_barcode_sample_freertos_gcc/src/zxing_lib/zxing/common/Counted.h **** 
  48:/home/zkmike/workspace/RZA2M/rza2m_2d_barcode_sample_freertos_gcc/src/zxing_lib/zxing/common/Counted.h ****   /* return the current count for denugging purposes or similar */
  49:/home/zkmike/workspace/RZA2M/rza2m_2d_barcode_sample_freertos_gcc/src/zxing_lib/zxing/common/Counted.h ****   int count() const {
  50:/home/zkmike/workspace/RZA2M/rza2m_2d_barcode_sample_freertos_gcc/src/zxing_lib/zxing/common/Counted.h ****     return count_;
  51:/home/zkmike/workspace/RZA2M/rza2m_2d_barcode_sample_freertos_gcc/src/zxing_lib/zxing/common/Counted.h ****   }
  52:/home/zkmike/workspace/RZA2M/rza2m_2d_barcode_sample_freertos_gcc/src/zxing_lib/zxing/common/Counted.h **** };
  53:/home/zkmike/workspace/RZA2M/rza2m_2d_barcode_sample_freertos_gcc/src/zxing_lib/zxing/common/Counted.h **** 
  54:/home/zkmike/workspace/RZA2M/rza2m_2d_barcode_sample_freertos_gcc/src/zxing_lib/zxing/common/Counted.h **** /* counting reference to reference-counted objects */
  55:/home/zkmike/workspace/RZA2M/rza2m_2d_barcode_sample_freertos_gcc/src/zxing_lib/zxing/common/Counted.h **** template<typename T> class Ref {
  56:/home/zkmike/workspace/RZA2M/rza2m_2d_barcode_sample_freertos_gcc/src/zxing_lib/zxing/common/Counted.h **** private:
  57:/home/zkmike/workspace/RZA2M/rza2m_2d_barcode_sample_freertos_gcc/src/zxing_lib/zxing/common/Counted.h **** public:
  58:/home/zkmike/workspace/RZA2M/rza2m_2d_barcode_sample_freertos_gcc/src/zxing_lib/zxing/common/Counted.h ****   T *object_;
  59:/home/zkmike/workspace/RZA2M/rza2m_2d_barcode_sample_freertos_gcc/src/zxing_lib/zxing/common/Counted.h ****   explicit Ref(T *o = 0) :
  60:/home/zkmike/workspace/RZA2M/rza2m_2d_barcode_sample_freertos_gcc/src/zxing_lib/zxing/common/Counted.h ****       object_(0) {
  61:/home/zkmike/workspace/RZA2M/rza2m_2d_barcode_sample_freertos_gcc/src/zxing_lib/zxing/common/Counted.h ****     reset(o);
  62:/home/zkmike/workspace/RZA2M/rza2m_2d_barcode_sample_freertos_gcc/src/zxing_lib/zxing/common/Counted.h ****   }
  63:/home/zkmike/workspace/RZA2M/rza2m_2d_barcode_sample_freertos_gcc/src/zxing_lib/zxing/common/Counted.h ****   Ref(const Ref &other) :
  64:/home/zkmike/workspace/RZA2M/rza2m_2d_barcode_sample_freertos_gcc/src/zxing_lib/zxing/common/Counted.h ****       object_(0) {
  65:/home/zkmike/workspace/RZA2M/rza2m_2d_barcode_sample_freertos_gcc/src/zxing_lib/zxing/common/Counted.h ****     reset(other.object_);
  66:/home/zkmike/workspace/RZA2M/rza2m_2d_barcode_sample_freertos_gcc/src/zxing_lib/zxing/common/Counted.h ****   }
  67:/home/zkmike/workspace/RZA2M/rza2m_2d_barcode_sample_freertos_gcc/src/zxing_lib/zxing/common/Counted.h **** 
  68:/home/zkmike/workspace/RZA2M/rza2m_2d_barcode_sample_freertos_gcc/src/zxing_lib/zxing/common/Counted.h ****   template<class Y>
  69:/home/zkmike/workspace/RZA2M/rza2m_2d_barcode_sample_freertos_gcc/src/zxing_lib/zxing/common/Counted.h ****   Ref(const Ref<Y> &other) :
  70:/home/zkmike/workspace/RZA2M/rza2m_2d_barcode_sample_freertos_gcc/src/zxing_lib/zxing/common/Counted.h ****       object_(0) {
  71:/home/zkmike/workspace/RZA2M/rza2m_2d_barcode_sample_freertos_gcc/src/zxing_lib/zxing/common/Counted.h ****     reset(other.object_);
  72:/home/zkmike/workspace/RZA2M/rza2m_2d_barcode_sample_freertos_gcc/src/zxing_lib/zxing/common/Counted.h ****   }
  73:/home/zkmike/workspace/RZA2M/rza2m_2d_barcode_sample_freertos_gcc/src/zxing_lib/zxing/common/Counted.h **** 
  74:/home/zkmike/workspace/RZA2M/rza2m_2d_barcode_sample_freertos_gcc/src/zxing_lib/zxing/common/Counted.h ****   ~Ref() {
  75:/home/zkmike/workspace/RZA2M/rza2m_2d_barcode_sample_freertos_gcc/src/zxing_lib/zxing/common/Counted.h ****     if (object_) {
  41              		.loc 2 75 0
  42 0008 040090E5 		ldr	r0, [r0, #4]
  43              	.LVL2:
  44 000c 000050E3 		cmp	r0, #0
  45 0010 0400000A 		beq	.L2
  46              	.LVL3:
  47              	.LBB104:
  48              	.LBB105:
  40:/home/zkmike/workspace/RZA2M/rza2m_2d_barcode_sample_freertos_gcc/src/zxing_lib/zxing/common/Counted.h ****     if (count_ == 0) {
  49              		.loc 2 40 0
  50 0014 043090E5 		ldr	r3, [r0, #4]
  51 0018 013043E2 		sub	r3, r3, #1
  52 001c 043080E5 		str	r3, [r0, #4]
  41:/home/zkmike/workspace/RZA2M/rza2m_2d_barcode_sample_freertos_gcc/src/zxing_lib/zxing/common/Counted.h ****       count_ = 0xDEADF001;
  53              		.loc 2 41 0
  54 0020 000053E3 		cmp	r3, #0
  55 0024 0100000A 		beq	.L4
  56              	.LVL4:
  57              	.L2:
  58              	.LBE105:
  59              	.LBE104:
  60              	.LBE103:
  61              	.LBE102:
  62              		.loc 1 32 0
  63 0028 0400A0E1 		mov	r0, r4
  64 002c 1080BDE8 		pop	{r4, pc}
  65              	.LVL5:
  66              	.L4:
  67              	.LBB109:
  68              	.LBB108:
  69              	.LBB107:
  70              	.LBB106:
  42:/home/zkmike/workspace/RZA2M/rza2m_2d_barcode_sample_freertos_gcc/src/zxing_lib/zxing/common/Counted.h ****       delete this;
  71              		.loc 2 42 0
  72 0030 01300FE3 		movw	r3, #61441
  73 0034 AD3E4DE3 		movt	r3, 57005
  74 0038 043080E5 		str	r3, [r0, #4]
  43:/home/zkmike/workspace/RZA2M/rza2m_2d_barcode_sample_freertos_gcc/src/zxing_lib/zxing/common/Counted.h ****     }
  75              		.loc 2 43 0
  76 003c 003090E5 		ldr	r3, [r0]
  77 0040 043093E5 		ldr	r3, [r3, #4]
  78 0044 33FF2FE1 		blx	r3
  79              	.LVL6:
  80 0048 F6FFFFEA 		b	.L2
  81              	.LBE106:
  82              	.LBE107:
  83              	.LBE108:
  84              	.LBE109:
  85              		.cfi_endproc
  86              	.LFE1489:
  87              		.cantunwind
  88              		.fnend
  90              		.weak	_ZN5zxing11DecodeHintsD1Ev
  91              		.set	_ZN5zxing11DecodeHintsD1Ev,_ZN5zxing11DecodeHintsD2Ev
  92              		.section	.text._ZN5zxing11DecodeHintsC2Ev,"ax",%progbits
  93              		.align	2
  94              		.global	_ZN5zxing11DecodeHintsC2Ev
  95              		.syntax unified
  96              		.arm
  97              		.fpu neon
  99              	_ZN5zxing11DecodeHintsC2Ev:
 100              		.fnstart
 101              	.LFB1495:
 102              		.file 3 "../src/zxing_lib/zxing/DecodeHints.cpp"
   1:../src/zxing_lib/zxing/DecodeHints.cpp **** // -*- mode:c++; tab-width:2; indent-tabs-mode:nil; c-basic-offset:2 -*-
   2:../src/zxing_lib/zxing/DecodeHints.cpp **** /*
   3:../src/zxing_lib/zxing/DecodeHints.cpp ****  *  DecodeHintType.cpp
   4:../src/zxing_lib/zxing/DecodeHints.cpp ****  *  zxing
   5:../src/zxing_lib/zxing/DecodeHints.cpp ****  *
   6:../src/zxing_lib/zxing/DecodeHints.cpp ****  *  Copyright 2010 ZXing authors All rights reserved.
   7:../src/zxing_lib/zxing/DecodeHints.cpp ****  *
   8:../src/zxing_lib/zxing/DecodeHints.cpp ****  * Licensed under the Apache License, Version 2.0 (the "License");
   9:../src/zxing_lib/zxing/DecodeHints.cpp ****  * you may not use this file except in compliance with the License.
  10:../src/zxing_lib/zxing/DecodeHints.cpp ****  * You may obtain a copy of the License at
  11:../src/zxing_lib/zxing/DecodeHints.cpp ****  *
  12:../src/zxing_lib/zxing/DecodeHints.cpp ****  *      http://www.apache.org/licenses/LICENSE-2.0
  13:../src/zxing_lib/zxing/DecodeHints.cpp ****  *
  14:../src/zxing_lib/zxing/DecodeHints.cpp ****  * Unless required by applicable law or agreed to in writing, software
  15:../src/zxing_lib/zxing/DecodeHints.cpp ****  * distributed under the License is distributed on an "AS IS" BASIS,
  16:../src/zxing_lib/zxing/DecodeHints.cpp ****  * WITHOUT WARRANTIES OR CONDITIONS OF ANY KIND, either express or implied.
  17:../src/zxing_lib/zxing/DecodeHints.cpp ****  * See the License for the specific language governing permissions and
  18:../src/zxing_lib/zxing/DecodeHints.cpp ****  * limitations under the License.
  19:../src/zxing_lib/zxing/DecodeHints.cpp ****  */
  20:../src/zxing_lib/zxing/DecodeHints.cpp **** 
  21:../src/zxing_lib/zxing/DecodeHints.cpp **** #include <zxing/DecodeHints.h>
  22:../src/zxing_lib/zxing/DecodeHints.cpp **** #include <zxing/common/IllegalArgumentException.h>
  23:../src/zxing_lib/zxing/DecodeHints.cpp **** 
  24:../src/zxing_lib/zxing/DecodeHints.cpp **** using zxing::Ref;
  25:../src/zxing_lib/zxing/DecodeHints.cpp **** using zxing::ResultPointCallback;
  26:../src/zxing_lib/zxing/DecodeHints.cpp **** using zxing::DecodeHintType;
  27:../src/zxing_lib/zxing/DecodeHints.cpp **** using zxing::DecodeHints;
  28:../src/zxing_lib/zxing/DecodeHints.cpp **** 
  29:../src/zxing_lib/zxing/DecodeHints.cpp **** // VC++
  30:../src/zxing_lib/zxing/DecodeHints.cpp **** using zxing::BarcodeFormat;
  31:../src/zxing_lib/zxing/DecodeHints.cpp **** 
  32:../src/zxing_lib/zxing/DecodeHints.cpp **** const DecodeHintType DecodeHints::CHARACTER_SET;
  33:../src/zxing_lib/zxing/DecodeHints.cpp **** 
  34:../src/zxing_lib/zxing/DecodeHints.cpp **** const DecodeHints DecodeHints::PRODUCT_HINT(
  35:../src/zxing_lib/zxing/DecodeHints.cpp ****   UPC_A_HINT |
  36:../src/zxing_lib/zxing/DecodeHints.cpp ****   UPC_E_HINT |
  37:../src/zxing_lib/zxing/DecodeHints.cpp ****   EAN_13_HINT |
  38:../src/zxing_lib/zxing/DecodeHints.cpp ****   EAN_8_HINT |
  39:../src/zxing_lib/zxing/DecodeHints.cpp ****   RSS_14_HINT
  40:../src/zxing_lib/zxing/DecodeHints.cpp ****   );
  41:../src/zxing_lib/zxing/DecodeHints.cpp **** 
  42:../src/zxing_lib/zxing/DecodeHints.cpp **** const DecodeHints DecodeHints::ONED_HINT(
  43:../src/zxing_lib/zxing/DecodeHints.cpp ****   CODE_39_HINT |
  44:../src/zxing_lib/zxing/DecodeHints.cpp ****   CODE_93_HINT |
  45:../src/zxing_lib/zxing/DecodeHints.cpp ****   CODE_128_HINT |
  46:../src/zxing_lib/zxing/DecodeHints.cpp ****   ITF_HINT |
  47:../src/zxing_lib/zxing/DecodeHints.cpp ****   CODABAR_HINT |
  48:../src/zxing_lib/zxing/DecodeHints.cpp ****   DecodeHints::PRODUCT_HINT
  49:../src/zxing_lib/zxing/DecodeHints.cpp ****   );
  50:../src/zxing_lib/zxing/DecodeHints.cpp **** 
  51:../src/zxing_lib/zxing/DecodeHints.cpp **** const DecodeHints DecodeHints::DEFAULT_HINT(
  52:../src/zxing_lib/zxing/DecodeHints.cpp ****   ONED_HINT |
  53:../src/zxing_lib/zxing/DecodeHints.cpp ****   QR_CODE_HINT |
  54:../src/zxing_lib/zxing/DecodeHints.cpp ****   DATA_MATRIX_HINT |
  55:../src/zxing_lib/zxing/DecodeHints.cpp ****   AZTEC_HINT |
  56:../src/zxing_lib/zxing/DecodeHints.cpp ****   PDF_417_HINT
  57:../src/zxing_lib/zxing/DecodeHints.cpp ****   );
  58:../src/zxing_lib/zxing/DecodeHints.cpp **** 
  59:../src/zxing_lib/zxing/DecodeHints.cpp **** DecodeHints::DecodeHints() {
 103              		.loc 3 59 0
 104              		.cfi_startproc
 105              		@ args = 0, pretend = 0, frame = 0
 106              		@ frame_needed = 0, uses_anonymous_args = 0
 107              	.LVL7:
 108 0000 10402DE9 		push	{r4, lr}
 109              		.cfi_def_cfa_offset 8
 110              		.cfi_offset 4, -8
 111              		.cfi_offset 14, -4
 112 0004 0040A0E1 		mov	r4, r0
 113              	.LVL8:
 114              	.LBB120:
 115              	.LBB121:
 116              	.LBB122:
  60:/home/zkmike/workspace/RZA2M/rza2m_2d_barcode_sample_freertos_gcc/src/zxing_lib/zxing/common/Counted.h ****     reset(o);
 117              		.loc 2 60 0
 118 0008 0030A0E3 		mov	r3, #0
 119 000c 043080E5 		str	r3, [r0, #4]
 120              	.LVL9:
 121              	.LBB123:
 122              	.LBB124:
  76:/home/zkmike/workspace/RZA2M/rza2m_2d_barcode_sample_freertos_gcc/src/zxing_lib/zxing/common/Counted.h ****       object_->release();
  77:/home/zkmike/workspace/RZA2M/rza2m_2d_barcode_sample_freertos_gcc/src/zxing_lib/zxing/common/Counted.h ****     }
  78:/home/zkmike/workspace/RZA2M/rza2m_2d_barcode_sample_freertos_gcc/src/zxing_lib/zxing/common/Counted.h ****   }
  79:/home/zkmike/workspace/RZA2M/rza2m_2d_barcode_sample_freertos_gcc/src/zxing_lib/zxing/common/Counted.h **** 
  80:/home/zkmike/workspace/RZA2M/rza2m_2d_barcode_sample_freertos_gcc/src/zxing_lib/zxing/common/Counted.h ****   void reset(T *o) {
  81:/home/zkmike/workspace/RZA2M/rza2m_2d_barcode_sample_freertos_gcc/src/zxing_lib/zxing/common/Counted.h ****     if (o) {
  82:/home/zkmike/workspace/RZA2M/rza2m_2d_barcode_sample_freertos_gcc/src/zxing_lib/zxing/common/Counted.h ****       o->retain();
  83:/home/zkmike/workspace/RZA2M/rza2m_2d_barcode_sample_freertos_gcc/src/zxing_lib/zxing/common/Counted.h ****     }
  84:/home/zkmike/workspace/RZA2M/rza2m_2d_barcode_sample_freertos_gcc/src/zxing_lib/zxing/common/Counted.h ****     if (object_ != 0) {
 123              		.loc 2 84 0
 124 0010 030053E1 		cmp	r3, r3
 125 0014 0500000A 		beq	.L6
 126 0018 0300A0E1 		mov	r0, r3
 127              	.LVL10:
 128              	.LBB125:
 129              	.LBB126:
  40:/home/zkmike/workspace/RZA2M/rza2m_2d_barcode_sample_freertos_gcc/src/zxing_lib/zxing/common/Counted.h ****     if (count_ == 0) {
 130              		.loc 2 40 0
 131 001c 043093E5 		ldr	r3, [r3, #4]
 132 0020 013043E2 		sub	r3, r3, #1
 133 0024 043080E5 		str	r3, [r0, #4]
  41:/home/zkmike/workspace/RZA2M/rza2m_2d_barcode_sample_freertos_gcc/src/zxing_lib/zxing/common/Counted.h ****       count_ = 0xDEADF001;
 134              		.loc 2 41 0
 135 0028 000053E1 		cmp	r3, r0
 136 002c 0400000A 		beq	.L8
 137              	.LVL11:
 138              	.L6:
 139              	.LBE126:
 140              	.LBE125:
  85:/home/zkmike/workspace/RZA2M/rza2m_2d_barcode_sample_freertos_gcc/src/zxing_lib/zxing/common/Counted.h ****       object_->release();
  86:/home/zkmike/workspace/RZA2M/rza2m_2d_barcode_sample_freertos_gcc/src/zxing_lib/zxing/common/Counted.h ****     }
  87:/home/zkmike/workspace/RZA2M/rza2m_2d_barcode_sample_freertos_gcc/src/zxing_lib/zxing/common/Counted.h ****     object_ = o;
 141              		.loc 2 87 0
 142 0030 0030A0E3 		mov	r3, #0
 143 0034 043084E5 		str	r3, [r4, #4]
 144              	.LVL12:
 145              	.LBE124:
 146              	.LBE123:
 147              	.LBE122:
 148              	.LBE121:
  60:../src/zxing_lib/zxing/DecodeHints.cpp ****   hints = 0;
 149              		.loc 3 60 0
 150 0038 003084E5 		str	r3, [r4]
 151              	.LBE120:
  61:../src/zxing_lib/zxing/DecodeHints.cpp **** }
 152              		.loc 3 61 0
 153 003c 0400A0E1 		mov	r0, r4
 154 0040 1080BDE8 		pop	{r4, pc}
 155              	.LVL13:
 156              	.L8:
 157              	.LBB133:
 158              	.LBB132:
 159              	.LBB131:
 160              	.LBB130:
 161              	.LBB129:
 162              	.LBB128:
 163              	.LBB127:
  42:/home/zkmike/workspace/RZA2M/rza2m_2d_barcode_sample_freertos_gcc/src/zxing_lib/zxing/common/Counted.h ****       delete this;
 164              		.loc 2 42 0
 165 0044 01300FE3 		movw	r3, #61441
 166 0048 AD3E4DE3 		movt	r3, 57005
 167 004c 043080E5 		str	r3, [r0, #4]
  43:/home/zkmike/workspace/RZA2M/rza2m_2d_barcode_sample_freertos_gcc/src/zxing_lib/zxing/common/Counted.h ****     }
 168              		.loc 2 43 0
 169 0050 003090E5 		ldr	r3, [r0]
 170 0054 043093E5 		ldr	r3, [r3, #4]
 171 0058 33FF2FE1 		blx	r3
 172              	.LVL14:
 173 005c F3FFFFEA 		b	.L6
 174              	.LBE127:
 175              	.LBE128:
 176              	.LBE129:
 177              	.LBE130:
 178              	.LBE131:
 179              	.LBE132:
 180              	.LBE133:
 181              		.cfi_endproc
 182              	.LFE1495:
 183              		.cantunwind
 184              		.fnend
 186              		.global	_ZN5zxing11DecodeHintsC1Ev
 187              		.set	_ZN5zxing11DecodeHintsC1Ev,_ZN5zxing11DecodeHintsC2Ev
 188              		.section	.text._ZN5zxing11DecodeHintsC2Ej,"ax",%progbits
 189              		.align	2
 190              		.global	_ZN5zxing11DecodeHintsC2Ej
 191              		.syntax unified
 192              		.arm
 193              		.fpu neon
 195              	_ZN5zxing11DecodeHintsC2Ej:
 196              		.fnstart
 197              	.LFB1498:
  62:../src/zxing_lib/zxing/DecodeHints.cpp **** 
  63:../src/zxing_lib/zxing/DecodeHints.cpp **** DecodeHints::DecodeHints(DecodeHintType init) {
 198              		.loc 3 63 0
 199              		.cfi_startproc
 200              		@ args = 0, pretend = 0, frame = 0
 201              		@ frame_needed = 0, uses_anonymous_args = 0
 202              	.LVL15:
 203 0000 70402DE9 		push	{r4, r5, r6, lr}
 204              		.cfi_def_cfa_offset 16
 205              		.cfi_offset 4, -16
 206              		.cfi_offset 5, -12
 207              		.cfi_offset 6, -8
 208              		.cfi_offset 14, -4
 209 0004 0040A0E1 		mov	r4, r0
 210 0008 0150A0E1 		mov	r5, r1
 211              	.LVL16:
 212              	.LBB144:
 213              	.LBB145:
 214              	.LBB146:
  60:/home/zkmike/workspace/RZA2M/rza2m_2d_barcode_sample_freertos_gcc/src/zxing_lib/zxing/common/Counted.h ****     reset(o);
 215              		.loc 2 60 0
 216 000c 0030A0E3 		mov	r3, #0
 217 0010 043080E5 		str	r3, [r0, #4]
 218              	.LVL17:
 219              	.LBB147:
 220              	.LBB148:
  84:/home/zkmike/workspace/RZA2M/rza2m_2d_barcode_sample_freertos_gcc/src/zxing_lib/zxing/common/Counted.h ****       object_->release();
 221              		.loc 2 84 0
 222 0014 030053E1 		cmp	r3, r3
 223 0018 0500000A 		beq	.L10
 224 001c 0300A0E1 		mov	r0, r3
 225              	.LVL18:
 226              	.LBB149:
 227              	.LBB150:
  40:/home/zkmike/workspace/RZA2M/rza2m_2d_barcode_sample_freertos_gcc/src/zxing_lib/zxing/common/Counted.h ****     if (count_ == 0) {
 228              		.loc 2 40 0
 229 0020 043093E5 		ldr	r3, [r3, #4]
 230 0024 013043E2 		sub	r3, r3, #1
 231 0028 043080E5 		str	r3, [r0, #4]
  41:/home/zkmike/workspace/RZA2M/rza2m_2d_barcode_sample_freertos_gcc/src/zxing_lib/zxing/common/Counted.h ****       count_ = 0xDEADF001;
 232              		.loc 2 41 0
 233 002c 000053E1 		cmp	r3, r0
 234 0030 0400000A 		beq	.L12
 235              	.LVL19:
 236              	.L10:
 237              	.LBE150:
 238              	.LBE149:
 239              		.loc 2 87 0
 240 0034 0030A0E3 		mov	r3, #0
 241 0038 043084E5 		str	r3, [r4, #4]
 242              	.LVL20:
 243              	.LBE148:
 244              	.LBE147:
 245              	.LBE146:
 246              	.LBE145:
  64:../src/zxing_lib/zxing/DecodeHints.cpp ****   hints = init;
 247              		.loc 3 64 0
 248 003c 005084E5 		str	r5, [r4]
 249              	.LBE144:
  65:../src/zxing_lib/zxing/DecodeHints.cpp **** }
 250              		.loc 3 65 0
 251 0040 0400A0E1 		mov	r0, r4
 252 0044 7080BDE8 		pop	{r4, r5, r6, pc}
 253              	.LVL21:
 254              	.L12:
 255              	.LBB157:
 256              	.LBB156:
 257              	.LBB155:
 258              	.LBB154:
 259              	.LBB153:
 260              	.LBB152:
 261              	.LBB151:
  42:/home/zkmike/workspace/RZA2M/rza2m_2d_barcode_sample_freertos_gcc/src/zxing_lib/zxing/common/Counted.h ****       delete this;
 262              		.loc 2 42 0
 263 0048 01300FE3 		movw	r3, #61441
 264 004c AD3E4DE3 		movt	r3, 57005
 265 0050 043080E5 		str	r3, [r0, #4]
  43:/home/zkmike/workspace/RZA2M/rza2m_2d_barcode_sample_freertos_gcc/src/zxing_lib/zxing/common/Counted.h ****     }
 266              		.loc 2 43 0
 267 0054 003090E5 		ldr	r3, [r0]
 268 0058 043093E5 		ldr	r3, [r3, #4]
 269 005c 33FF2FE1 		blx	r3
 270              	.LVL22:
 271 0060 F3FFFFEA 		b	.L10
 272              	.LBE151:
 273              	.LBE152:
 274              	.LBE153:
 275              	.LBE154:
 276              	.LBE155:
 277              	.LBE156:
 278              	.LBE157:
 279              		.cfi_endproc
 280              	.LFE1498:
 281              		.cantunwind
 282              		.fnend
 284              		.global	_ZN5zxing11DecodeHintsC1Ej
 285              		.set	_ZN5zxing11DecodeHintsC1Ej,_ZN5zxing11DecodeHintsC2Ej
 286              		.section	.text._ZN5zxing11DecodeHints9addFormatENS_13BarcodeFormatE,"ax",%progbits
 287              		.align	2
 288              		.global	_ZN5zxing11DecodeHints9addFormatENS_13BarcodeFormatE
 289              		.syntax unified
 290              		.arm
 291              		.fpu neon
 293              	_ZN5zxing11DecodeHints9addFormatENS_13BarcodeFormatE:
 294              		.fnstart
 295              	.LFB1500:
  66:../src/zxing_lib/zxing/DecodeHints.cpp **** 
  67:../src/zxing_lib/zxing/DecodeHints.cpp **** void DecodeHints::addFormat(BarcodeFormat toadd) {
 296              		.loc 3 67 0
 297              		.cfi_startproc
 298              		.cfi_personality 0,__gxx_personality_v0
 299              		.cfi_lsda 0,.LLSDA1500
 300              		@ args = 0, pretend = 0, frame = 0
 301              		@ frame_needed = 0, uses_anonymous_args = 0
 302              	.LVL23:
 303              	.LBB158:
 304              	.LBB159:
 305              		.file 4 "/home/zkmike/workspace/RZA2M/rza2m_2d_barcode_sample_freertos_gcc/src/zxing_lib/zxing/Bar
   1:/home/zkmike/workspace/RZA2M/rza2m_2d_barcode_sample_freertos_gcc/src/zxing_lib/zxing/BarcodeFormat.h **** // -*- mode:c++; tab-width:2; indent-tabs-mode:nil; c-basic-offset:2 -*-
   2:/home/zkmike/workspace/RZA2M/rza2m_2d_barcode_sample_freertos_gcc/src/zxing_lib/zxing/BarcodeFormat.h **** #ifndef __BARCODE_FORMAT_H__
   3:/home/zkmike/workspace/RZA2M/rza2m_2d_barcode_sample_freertos_gcc/src/zxing_lib/zxing/BarcodeFormat.h **** #define __BARCODE_FORMAT_H__
   4:/home/zkmike/workspace/RZA2M/rza2m_2d_barcode_sample_freertos_gcc/src/zxing_lib/zxing/BarcodeFormat.h **** 
   5:/home/zkmike/workspace/RZA2M/rza2m_2d_barcode_sample_freertos_gcc/src/zxing_lib/zxing/BarcodeFormat.h **** /*
   6:/home/zkmike/workspace/RZA2M/rza2m_2d_barcode_sample_freertos_gcc/src/zxing_lib/zxing/BarcodeFormat.h ****  *  BarcodeFormat.h
   7:/home/zkmike/workspace/RZA2M/rza2m_2d_barcode_sample_freertos_gcc/src/zxing_lib/zxing/BarcodeFormat.h ****  *  zxing
   8:/home/zkmike/workspace/RZA2M/rza2m_2d_barcode_sample_freertos_gcc/src/zxing_lib/zxing/BarcodeFormat.h ****  *
   9:/home/zkmike/workspace/RZA2M/rza2m_2d_barcode_sample_freertos_gcc/src/zxing_lib/zxing/BarcodeFormat.h ****  *  Copyright 2010 ZXing authors All rights reserved.
  10:/home/zkmike/workspace/RZA2M/rza2m_2d_barcode_sample_freertos_gcc/src/zxing_lib/zxing/BarcodeFormat.h ****  *
  11:/home/zkmike/workspace/RZA2M/rza2m_2d_barcode_sample_freertos_gcc/src/zxing_lib/zxing/BarcodeFormat.h ****  * Licensed under the Apache License, Version 2.0 (the "License");
  12:/home/zkmike/workspace/RZA2M/rza2m_2d_barcode_sample_freertos_gcc/src/zxing_lib/zxing/BarcodeFormat.h ****  * you may not use this file except in compliance with the License.
  13:/home/zkmike/workspace/RZA2M/rza2m_2d_barcode_sample_freertos_gcc/src/zxing_lib/zxing/BarcodeFormat.h ****  * You may obtain a copy of the License at
  14:/home/zkmike/workspace/RZA2M/rza2m_2d_barcode_sample_freertos_gcc/src/zxing_lib/zxing/BarcodeFormat.h ****  *
  15:/home/zkmike/workspace/RZA2M/rza2m_2d_barcode_sample_freertos_gcc/src/zxing_lib/zxing/BarcodeFormat.h ****  *      http://www.apache.org/licenses/LICENSE-2.0
  16:/home/zkmike/workspace/RZA2M/rza2m_2d_barcode_sample_freertos_gcc/src/zxing_lib/zxing/BarcodeFormat.h ****  *
  17:/home/zkmike/workspace/RZA2M/rza2m_2d_barcode_sample_freertos_gcc/src/zxing_lib/zxing/BarcodeFormat.h ****  * Unless required by applicable law or agreed to in writing, software
  18:/home/zkmike/workspace/RZA2M/rza2m_2d_barcode_sample_freertos_gcc/src/zxing_lib/zxing/BarcodeFormat.h ****  * distributed under the License is distributed on an "AS IS" BASIS,
  19:/home/zkmike/workspace/RZA2M/rza2m_2d_barcode_sample_freertos_gcc/src/zxing_lib/zxing/BarcodeFormat.h ****  * WITHOUT WARRANTIES OR CONDITIONS OF ANY KIND, either express or implied.
  20:/home/zkmike/workspace/RZA2M/rza2m_2d_barcode_sample_freertos_gcc/src/zxing_lib/zxing/BarcodeFormat.h ****  * See the License for the specific language governing permissions and
  21:/home/zkmike/workspace/RZA2M/rza2m_2d_barcode_sample_freertos_gcc/src/zxing_lib/zxing/BarcodeFormat.h ****  * limitations under the License.
  22:/home/zkmike/workspace/RZA2M/rza2m_2d_barcode_sample_freertos_gcc/src/zxing_lib/zxing/BarcodeFormat.h ****  */
  23:/home/zkmike/workspace/RZA2M/rza2m_2d_barcode_sample_freertos_gcc/src/zxing_lib/zxing/BarcodeFormat.h **** 
  24:/home/zkmike/workspace/RZA2M/rza2m_2d_barcode_sample_freertos_gcc/src/zxing_lib/zxing/BarcodeFormat.h **** namespace zxing {
  25:/home/zkmike/workspace/RZA2M/rza2m_2d_barcode_sample_freertos_gcc/src/zxing_lib/zxing/BarcodeFormat.h **** 
  26:/home/zkmike/workspace/RZA2M/rza2m_2d_barcode_sample_freertos_gcc/src/zxing_lib/zxing/BarcodeFormat.h **** class BarcodeFormat {
  27:/home/zkmike/workspace/RZA2M/rza2m_2d_barcode_sample_freertos_gcc/src/zxing_lib/zxing/BarcodeFormat.h **** public:
  28:/home/zkmike/workspace/RZA2M/rza2m_2d_barcode_sample_freertos_gcc/src/zxing_lib/zxing/BarcodeFormat.h ****   // if you update the enum, update BarcodeFormat.cpp
  29:/home/zkmike/workspace/RZA2M/rza2m_2d_barcode_sample_freertos_gcc/src/zxing_lib/zxing/BarcodeFormat.h **** 
  30:/home/zkmike/workspace/RZA2M/rza2m_2d_barcode_sample_freertos_gcc/src/zxing_lib/zxing/BarcodeFormat.h ****   enum Value {
  31:/home/zkmike/workspace/RZA2M/rza2m_2d_barcode_sample_freertos_gcc/src/zxing_lib/zxing/BarcodeFormat.h ****     NONE,
  32:/home/zkmike/workspace/RZA2M/rza2m_2d_barcode_sample_freertos_gcc/src/zxing_lib/zxing/BarcodeFormat.h ****     AZTEC,
  33:/home/zkmike/workspace/RZA2M/rza2m_2d_barcode_sample_freertos_gcc/src/zxing_lib/zxing/BarcodeFormat.h ****     CODABAR,
  34:/home/zkmike/workspace/RZA2M/rza2m_2d_barcode_sample_freertos_gcc/src/zxing_lib/zxing/BarcodeFormat.h ****     CODE_39,
  35:/home/zkmike/workspace/RZA2M/rza2m_2d_barcode_sample_freertos_gcc/src/zxing_lib/zxing/BarcodeFormat.h ****     CODE_93,
  36:/home/zkmike/workspace/RZA2M/rza2m_2d_barcode_sample_freertos_gcc/src/zxing_lib/zxing/BarcodeFormat.h ****     CODE_128,
  37:/home/zkmike/workspace/RZA2M/rza2m_2d_barcode_sample_freertos_gcc/src/zxing_lib/zxing/BarcodeFormat.h ****     DATA_MATRIX,
  38:/home/zkmike/workspace/RZA2M/rza2m_2d_barcode_sample_freertos_gcc/src/zxing_lib/zxing/BarcodeFormat.h ****     EAN_8,
  39:/home/zkmike/workspace/RZA2M/rza2m_2d_barcode_sample_freertos_gcc/src/zxing_lib/zxing/BarcodeFormat.h ****     EAN_13,
  40:/home/zkmike/workspace/RZA2M/rza2m_2d_barcode_sample_freertos_gcc/src/zxing_lib/zxing/BarcodeFormat.h ****     ITF,
  41:/home/zkmike/workspace/RZA2M/rza2m_2d_barcode_sample_freertos_gcc/src/zxing_lib/zxing/BarcodeFormat.h ****     MAXICODE,
  42:/home/zkmike/workspace/RZA2M/rza2m_2d_barcode_sample_freertos_gcc/src/zxing_lib/zxing/BarcodeFormat.h ****     PDF_417,
  43:/home/zkmike/workspace/RZA2M/rza2m_2d_barcode_sample_freertos_gcc/src/zxing_lib/zxing/BarcodeFormat.h ****     QR_CODE,
  44:/home/zkmike/workspace/RZA2M/rza2m_2d_barcode_sample_freertos_gcc/src/zxing_lib/zxing/BarcodeFormat.h ****     RSS_14,
  45:/home/zkmike/workspace/RZA2M/rza2m_2d_barcode_sample_freertos_gcc/src/zxing_lib/zxing/BarcodeFormat.h ****     RSS_EXPANDED,
  46:/home/zkmike/workspace/RZA2M/rza2m_2d_barcode_sample_freertos_gcc/src/zxing_lib/zxing/BarcodeFormat.h ****     UPC_A,
  47:/home/zkmike/workspace/RZA2M/rza2m_2d_barcode_sample_freertos_gcc/src/zxing_lib/zxing/BarcodeFormat.h ****     UPC_E,
  48:/home/zkmike/workspace/RZA2M/rza2m_2d_barcode_sample_freertos_gcc/src/zxing_lib/zxing/BarcodeFormat.h ****     UPC_EAN_EXTENSION
  49:/home/zkmike/workspace/RZA2M/rza2m_2d_barcode_sample_freertos_gcc/src/zxing_lib/zxing/BarcodeFormat.h ****   };
  50:/home/zkmike/workspace/RZA2M/rza2m_2d_barcode_sample_freertos_gcc/src/zxing_lib/zxing/BarcodeFormat.h **** 
  51:/home/zkmike/workspace/RZA2M/rza2m_2d_barcode_sample_freertos_gcc/src/zxing_lib/zxing/BarcodeFormat.h ****   BarcodeFormat(Value v) : value(v) {}  
  52:/home/zkmike/workspace/RZA2M/rza2m_2d_barcode_sample_freertos_gcc/src/zxing_lib/zxing/BarcodeFormat.h ****   const Value value;
  53:/home/zkmike/workspace/RZA2M/rza2m_2d_barcode_sample_freertos_gcc/src/zxing_lib/zxing/BarcodeFormat.h ****   operator Value () const {return value;}
 306              		.loc 4 53 0
 307 0000 7110EFE6 		uxtb	r1, r1
 308              	.LVL24:
 309              	.LBE159:
 310              	.LBE158:
  68:../src/zxing_lib/zxing/DecodeHints.cpp ****   switch (toadd) {
 311              		.loc 3 68 0
 312 0004 011041E2 		sub	r1, r1, #1
 313 0008 100051E3 		cmp	r1, #16
 314 000c 01F19F97 		ldrls	pc, [pc, r1, asl #2]
 315 0010 540000EA 		b	.L14
 316              	.L16:
 317 0014 58000000 		.word	.L15
 318 0018 68000000 		.word	.L17
 319 001c 78000000 		.word	.L18
 320 0020 88000000 		.word	.L19
 321 0024 98000000 		.word	.L20
 322 0028 A8000000 		.word	.L21
 323 002c B8000000 		.word	.L22
 324 0030 C8000000 		.word	.L23
 325 0034 D8000000 		.word	.L24
 326 0038 E8000000 		.word	.L25
 327 003c F8000000 		.word	.L26
 328 0040 08010000 		.word	.L27
 329 0044 18010000 		.word	.L28
 330 0048 28010000 		.word	.L29
 331 004c 38010000 		.word	.L30
 332 0050 48010000 		.word	.L31
 333 0054 58010000 		.word	.L32
 334              	.L15:
  69:../src/zxing_lib/zxing/DecodeHints.cpp ****   case BarcodeFormat::AZTEC: hints |= AZTEC_HINT; break;
 335              		.loc 3 69 0
 336 0058 003090E5 		ldr	r3, [r0]
 337 005c 023083E3 		orr	r3, r3, #2
 338 0060 003080E5 		str	r3, [r0]
 339              	.L13:
 340 0064 1EFF2FE1 		bx	lr
 341              	.L17:
  70:../src/zxing_lib/zxing/DecodeHints.cpp ****   case BarcodeFormat::CODABAR: hints |= CODABAR_HINT; break;
 342              		.loc 3 70 0
 343 0068 003090E5 		ldr	r3, [r0]
 344 006c 043083E3 		orr	r3, r3, #4
 345 0070 003080E5 		str	r3, [r0]
 346 0074 FAFFFFEA 		b	.L13
 347              	.L18:
  71:../src/zxing_lib/zxing/DecodeHints.cpp ****   case BarcodeFormat::CODE_39: hints |= CODE_39_HINT; break;
 348              		.loc 3 71 0
 349 0078 003090E5 		ldr	r3, [r0]
 350 007c 083083E3 		orr	r3, r3, #8
 351 0080 003080E5 		str	r3, [r0]
 352 0084 F6FFFFEA 		b	.L13
 353              	.L19:
  72:../src/zxing_lib/zxing/DecodeHints.cpp ****   case BarcodeFormat::CODE_93: hints |= CODE_93_HINT; break;
 354              		.loc 3 72 0
 355 0088 003090E5 		ldr	r3, [r0]
 356 008c 103083E3 		orr	r3, r3, #16
 357 0090 003080E5 		str	r3, [r0]
 358 0094 F2FFFFEA 		b	.L13
 359              	.L20:
  73:../src/zxing_lib/zxing/DecodeHints.cpp ****   case BarcodeFormat::CODE_128: hints |= CODE_128_HINT; break;
 360              		.loc 3 73 0
 361 0098 003090E5 		ldr	r3, [r0]
 362 009c 203083E3 		orr	r3, r3, #32
 363 00a0 003080E5 		str	r3, [r0]
 364 00a4 EEFFFFEA 		b	.L13
 365              	.L21:
  74:../src/zxing_lib/zxing/DecodeHints.cpp ****   case BarcodeFormat::DATA_MATRIX: hints |= DATA_MATRIX_HINT; break;
 366              		.loc 3 74 0
 367 00a8 003090E5 		ldr	r3, [r0]
 368 00ac 403083E3 		orr	r3, r3, #64
 369 00b0 003080E5 		str	r3, [r0]
 370 00b4 EAFFFFEA 		b	.L13
 371              	.L22:
  75:../src/zxing_lib/zxing/DecodeHints.cpp ****   case BarcodeFormat::EAN_8: hints |= EAN_8_HINT; break;
 372              		.loc 3 75 0
 373 00b8 003090E5 		ldr	r3, [r0]
 374 00bc 803083E3 		orr	r3, r3, #128
 375 00c0 003080E5 		str	r3, [r0]
 376 00c4 E6FFFFEA 		b	.L13
 377              	.L23:
  76:../src/zxing_lib/zxing/DecodeHints.cpp ****   case BarcodeFormat::EAN_13: hints |= EAN_13_HINT; break;
 378              		.loc 3 76 0
 379 00c8 003090E5 		ldr	r3, [r0]
 380 00cc 013C83E3 		orr	r3, r3, #256
 381 00d0 003080E5 		str	r3, [r0]
 382 00d4 E2FFFFEA 		b	.L13
 383              	.L24:
  77:../src/zxing_lib/zxing/DecodeHints.cpp ****   case BarcodeFormat::ITF: hints |= ITF_HINT; break;
 384              		.loc 3 77 0
 385 00d8 003090E5 		ldr	r3, [r0]
 386 00dc 023C83E3 		orr	r3, r3, #512
 387 00e0 003080E5 		str	r3, [r0]
 388 00e4 DEFFFFEA 		b	.L13
 389              	.L25:
  78:../src/zxing_lib/zxing/DecodeHints.cpp ****   case BarcodeFormat::MAXICODE: hints |= MAXICODE_HINT; break;
 390              		.loc 3 78 0
 391 00e8 003090E5 		ldr	r3, [r0]
 392 00ec 013B83E3 		orr	r3, r3, #1024
 393 00f0 003080E5 		str	r3, [r0]
 394 00f4 DAFFFFEA 		b	.L13
 395              	.L26:
  79:../src/zxing_lib/zxing/DecodeHints.cpp ****   case BarcodeFormat::PDF_417: hints |= PDF_417_HINT; break;
 396              		.loc 3 79 0
 397 00f8 003090E5 		ldr	r3, [r0]
 398 00fc 023B83E3 		orr	r3, r3, #2048
 399 0100 003080E5 		str	r3, [r0]
 400 0104 D6FFFFEA 		b	.L13
 401              	.L27:
  80:../src/zxing_lib/zxing/DecodeHints.cpp ****   case BarcodeFormat::QR_CODE: hints |= QR_CODE_HINT; break;
 402              		.loc 3 80 0
 403 0108 003090E5 		ldr	r3, [r0]
 404 010c 013A83E3 		orr	r3, r3, #4096
 405 0110 003080E5 		str	r3, [r0]
 406 0114 D2FFFFEA 		b	.L13
 407              	.L28:
  81:../src/zxing_lib/zxing/DecodeHints.cpp ****   case BarcodeFormat::RSS_14: hints |= RSS_14_HINT; break;
 408              		.loc 3 81 0
 409 0118 003090E5 		ldr	r3, [r0]
 410 011c 023A83E3 		orr	r3, r3, #8192
 411 0120 003080E5 		str	r3, [r0]
 412 0124 CEFFFFEA 		b	.L13
 413              	.L29:
  82:../src/zxing_lib/zxing/DecodeHints.cpp ****   case BarcodeFormat::RSS_EXPANDED: hints |= RSS_EXPANDED_HINT; break;
 414              		.loc 3 82 0
 415 0128 003090E5 		ldr	r3, [r0]
 416 012c 013983E3 		orr	r3, r3, #16384
 417 0130 003080E5 		str	r3, [r0]
 418 0134 CAFFFFEA 		b	.L13
 419              	.L30:
  83:../src/zxing_lib/zxing/DecodeHints.cpp ****   case BarcodeFormat::UPC_A: hints |= UPC_A_HINT; break;
 420              		.loc 3 83 0
 421 0138 003090E5 		ldr	r3, [r0]
 422 013c 023983E3 		orr	r3, r3, #32768
 423 0140 003080E5 		str	r3, [r0]
 424 0144 C6FFFFEA 		b	.L13
 425              	.L31:
  84:../src/zxing_lib/zxing/DecodeHints.cpp ****   case BarcodeFormat::UPC_E: hints |= UPC_E_HINT; break;
 426              		.loc 3 84 0
 427 0148 003090E5 		ldr	r3, [r0]
 428 014c 013883E3 		orr	r3, r3, #65536
 429 0150 003080E5 		str	r3, [r0]
 430 0154 C2FFFFEA 		b	.L13
 431              	.L32:
  85:../src/zxing_lib/zxing/DecodeHints.cpp ****   case BarcodeFormat::UPC_EAN_EXTENSION: hints |= UPC_EAN_EXTENSION_HINT; break;
 432              		.loc 3 85 0
 433 0158 003090E5 		ldr	r3, [r0]
 434 015c 023883E3 		orr	r3, r3, #131072
 435 0160 003080E5 		str	r3, [r0]
 436 0164 BEFFFFEA 		b	.L13
 437              	.L14:
  67:../src/zxing_lib/zxing/DecodeHints.cpp ****   switch (toadd) {
 438              		.loc 3 67 0
 439 0168 10402DE9 		push	{r4, lr}
 440              		.save {r4, lr}
  86:../src/zxing_lib/zxing/DecodeHints.cpp ****   default: throw IllegalArgumentException("Unrecognizd barcode format");
 441              		.loc 3 86 0
 442 016c 0800A0E3 		mov	r0, #8
 443              	.LVL25:
 444 0170 FEFFFFEB 		bl	__cxa_allocate_exception
 445              	.LVL26:
 446 0174 0040A0E1 		mov	r4, r0
 447 0178 001000E3 		movw	r1, #:lower16:.LC0
 448 017c 001040E3 		movt	r1, #:upper16:.LC0
 449              	.LEHB0:
 450 0180 FEFFFFEB 		bl	_ZN5zxing24IllegalArgumentExceptionC1EPKc
 451              	.LVL27:
 452              	.LEHE0:
 453              		.loc 3 86 0 is_stmt 0 discriminator 2
 454 0184 002000E3 		movw	r2, #:lower16:_ZN5zxing24IllegalArgumentExceptionD1Ev
 455 0188 002040E3 		movt	r2, #:upper16:_ZN5zxing24IllegalArgumentExceptionD1Ev
 456 018c 001000E3 		movw	r1, #:lower16:_ZTIN5zxing24IllegalArgumentExceptionE
 457 0190 001040E3 		movt	r1, #:upper16:_ZTIN5zxing24IllegalArgumentExceptionE
 458 0194 0400A0E1 		mov	r0, r4
 459              	.LEHB1:
 460 0198 FEFFFFEB 		bl	__cxa_throw
 461              	.LVL28:
 462              	.L35:
 463              		.loc 3 86 0
 464 019c 0400A0E1 		mov	r0, r4
 465 01a0 FEFFFFEB 		bl	__cxa_free_exception
 466              	.LVL29:
 467 01a4 FEFFFFEB 		bl	__cxa_end_cleanup
 468              	.LVL30:
 469              	.LEHE1:
 470              		.cfi_endproc
 471              	.LFE1500:
 472              		.global	__gxx_personality_v0
 473              		.personality	__gxx_personality_v0
 474              		.handlerdata
 475              	.LLSDA1500:
 476 0008 FF       		.byte	0xff
 477 0009 FF       		.byte	0xff
 478 000a 01       		.byte	0x1
 479 000b 0B       		.uleb128 .LLSDACSE1500-.LLSDACSB1500
 480              	.LLSDACSB1500:
 481 000c 8003     		.uleb128 .LEHB0-.LFB1500
 482 000e 04       		.uleb128 .LEHE0-.LEHB0
 483 000f 9C03     		.uleb128 .L35-.LFB1500
 484 0011 00       		.uleb128 0
 485 0012 9803     		.uleb128 .LEHB1-.LFB1500
 486 0014 10       		.uleb128 .LEHE1-.LEHB1
 487 0015 00       		.uleb128 0
 488 0016 00       		.uleb128 0
 489              	.LLSDACSE1500:
 490              		.section	.text._ZN5zxing11DecodeHints9addFormatENS_13BarcodeFormatE
 491              		.fnend
 493              		.section	.text._ZNK5zxing11DecodeHints14containsFormatENS_13BarcodeFormatE,"ax",%progbits
 494              		.align	2
 495              		.global	_ZNK5zxing11DecodeHints14containsFormatENS_13BarcodeFormatE
 496              		.syntax unified
 497              		.arm
 498              		.fpu neon
 500              	_ZNK5zxing11DecodeHints14containsFormatENS_13BarcodeFormatE:
 501              		.fnstart
 502              	.LFB1504:
  87:../src/zxing_lib/zxing/DecodeHints.cpp ****   }
  88:../src/zxing_lib/zxing/DecodeHints.cpp **** }
  89:../src/zxing_lib/zxing/DecodeHints.cpp **** 
  90:../src/zxing_lib/zxing/DecodeHints.cpp **** bool DecodeHints::containsFormat(BarcodeFormat tocheck) const {
 503              		.loc 3 90 0 is_stmt 1
 504              		.cfi_startproc
 505              		.cfi_personality 0,__gxx_personality_v0
 506              		.cfi_lsda 0,.LLSDA1504
 507              		@ args = 0, pretend = 0, frame = 0
 508              		@ frame_needed = 0, uses_anonymous_args = 0
 509              	.LVL31:
 510              	.LBB160:
 511              	.LBB161:
 512              		.loc 4 53 0
 513 0000 7110EFE6 		uxtb	r1, r1
 514              	.LVL32:
 515              	.LBE161:
 516              	.LBE160:
  91:../src/zxing_lib/zxing/DecodeHints.cpp ****   DecodeHintType checkAgainst = 0;
  92:../src/zxing_lib/zxing/DecodeHints.cpp ****   switch (tocheck) {
 517              		.loc 3 92 0
 518 0004 011041E2 		sub	r1, r1, #1
 519 0008 100051E3 		cmp	r1, #16
 520 000c 01F19F97 		ldrls	pc, [pc, r1, asl #2]
 521 0010 2E0000EA 		b	.L39
 522              	.L41:
 523 0014 04010000 		.word	.L40
 524 0018 0C010000 		.word	.L59
 525 001c 58000000 		.word	.L43
 526 0020 60000000 		.word	.L44
 527 0024 68000000 		.word	.L45
 528 0028 70000000 		.word	.L46
 529 002c 78000000 		.word	.L47
 530 0030 80000000 		.word	.L48
 531 0034 88000000 		.word	.L49
 532 0038 90000000 		.word	.L50
 533 003c 98000000 		.word	.L51
 534 0040 A0000000 		.word	.L52
 535 0044 A8000000 		.word	.L53
 536 0048 B0000000 		.word	.L54
 537 004c B8000000 		.word	.L55
 538 0050 C0000000 		.word	.L56
 539 0054 C8000000 		.word	.L57
 540              	.L43:
 541              	.LVL33:
  93:../src/zxing_lib/zxing/DecodeHints.cpp ****   case BarcodeFormat::AZTEC: checkAgainst |= AZTEC_HINT; break;
  94:../src/zxing_lib/zxing/DecodeHints.cpp ****   case BarcodeFormat::CODABAR: checkAgainst |= CODABAR_HINT; break;
  95:../src/zxing_lib/zxing/DecodeHints.cpp ****   case BarcodeFormat::CODE_39: checkAgainst |= CODE_39_HINT; break;
 542              		.loc 3 95 0
 543 0058 0820A0E3 		mov	r2, #8
 544 005c 2B0000EA 		b	.L42
 545              	.LVL34:
 546              	.L44:
  96:../src/zxing_lib/zxing/DecodeHints.cpp ****   case BarcodeFormat::CODE_93: checkAgainst |= CODE_93_HINT; break;
 547              		.loc 3 96 0
 548 0060 1020A0E3 		mov	r2, #16
 549 0064 290000EA 		b	.L42
 550              	.LVL35:
 551              	.L45:
  97:../src/zxing_lib/zxing/DecodeHints.cpp ****   case BarcodeFormat::CODE_128: checkAgainst |= CODE_128_HINT; break;
 552              		.loc 3 97 0
 553 0068 2020A0E3 		mov	r2, #32
 554 006c 270000EA 		b	.L42
 555              	.LVL36:
 556              	.L46:
  98:../src/zxing_lib/zxing/DecodeHints.cpp ****   case BarcodeFormat::DATA_MATRIX: checkAgainst |= DATA_MATRIX_HINT; break;
 557              		.loc 3 98 0
 558 0070 4020A0E3 		mov	r2, #64
 559 0074 250000EA 		b	.L42
 560              	.LVL37:
 561              	.L47:
  99:../src/zxing_lib/zxing/DecodeHints.cpp ****   case BarcodeFormat::EAN_8: checkAgainst |= EAN_8_HINT; break;
 562              		.loc 3 99 0
 563 0078 8020A0E3 		mov	r2, #128
 564 007c 230000EA 		b	.L42
 565              	.LVL38:
 566              	.L48:
 100:../src/zxing_lib/zxing/DecodeHints.cpp ****   case BarcodeFormat::EAN_13: checkAgainst |= EAN_13_HINT; break;
 567              		.loc 3 100 0
 568 0080 012CA0E3 		mov	r2, #256
 569 0084 210000EA 		b	.L42
 570              	.LVL39:
 571              	.L49:
 101:../src/zxing_lib/zxing/DecodeHints.cpp ****   case BarcodeFormat::ITF: checkAgainst |= ITF_HINT; break;
 572              		.loc 3 101 0
 573 0088 022CA0E3 		mov	r2, #512
 574 008c 1F0000EA 		b	.L42
 575              	.LVL40:
 576              	.L50:
 102:../src/zxing_lib/zxing/DecodeHints.cpp ****   case BarcodeFormat::MAXICODE: checkAgainst |= MAXICODE_HINT; break;
 577              		.loc 3 102 0
 578 0090 012BA0E3 		mov	r2, #1024
 579 0094 1D0000EA 		b	.L42
 580              	.LVL41:
 581              	.L51:
 103:../src/zxing_lib/zxing/DecodeHints.cpp ****   case BarcodeFormat::PDF_417: checkAgainst |= PDF_417_HINT; break;
 582              		.loc 3 103 0
 583 0098 022BA0E3 		mov	r2, #2048
 584 009c 1B0000EA 		b	.L42
 585              	.LVL42:
 586              	.L52:
 104:../src/zxing_lib/zxing/DecodeHints.cpp ****   case BarcodeFormat::QR_CODE: checkAgainst |= QR_CODE_HINT; break;
 587              		.loc 3 104 0
 588 00a0 012AA0E3 		mov	r2, #4096
 589 00a4 190000EA 		b	.L42
 590              	.LVL43:
 591              	.L53:
 105:../src/zxing_lib/zxing/DecodeHints.cpp ****   case BarcodeFormat::RSS_14: checkAgainst |= RSS_14_HINT; break;
 592              		.loc 3 105 0
 593 00a8 022AA0E3 		mov	r2, #8192
 594 00ac 170000EA 		b	.L42
 595              	.LVL44:
 596              	.L54:
 106:../src/zxing_lib/zxing/DecodeHints.cpp ****   case BarcodeFormat::RSS_EXPANDED: checkAgainst |= RSS_EXPANDED_HINT; break;
 597              		.loc 3 106 0
 598 00b0 0129A0E3 		mov	r2, #16384
 599 00b4 150000EA 		b	.L42
 600              	.LVL45:
 601              	.L55:
 107:../src/zxing_lib/zxing/DecodeHints.cpp ****   case BarcodeFormat::UPC_A: checkAgainst |= UPC_A_HINT; break;
 602              		.loc 3 107 0
 603 00b8 0229A0E3 		mov	r2, #32768
 604 00bc 130000EA 		b	.L42
 605              	.LVL46:
 606              	.L56:
 108:../src/zxing_lib/zxing/DecodeHints.cpp ****   case BarcodeFormat::UPC_E: checkAgainst |= UPC_E_HINT; break;
 607              		.loc 3 108 0
 608 00c0 0128A0E3 		mov	r2, #65536
 609 00c4 110000EA 		b	.L42
 610              	.LVL47:
 611              	.L57:
 109:../src/zxing_lib/zxing/DecodeHints.cpp ****   case BarcodeFormat::UPC_EAN_EXTENSION: checkAgainst |= UPC_EAN_EXTENSION_HINT; break;
 612              		.loc 3 109 0
 613 00c8 0228A0E3 		mov	r2, #131072
 614 00cc 0F0000EA 		b	.L42
 615              	.LVL48:
 616              	.L39:
  90:../src/zxing_lib/zxing/DecodeHints.cpp ****   DecodeHintType checkAgainst = 0;
 617              		.loc 3 90 0
 618 00d0 10402DE9 		push	{r4, lr}
 619              		.save {r4, lr}
 110:../src/zxing_lib/zxing/DecodeHints.cpp ****   default: throw IllegalArgumentException("Unrecognizd barcode format");
 620              		.loc 3 110 0
 621 00d4 0800A0E3 		mov	r0, #8
 622              	.LVL49:
 623 00d8 FEFFFFEB 		bl	__cxa_allocate_exception
 624              	.LVL50:
 625 00dc 0040A0E1 		mov	r4, r0
 626 00e0 001000E3 		movw	r1, #:lower16:.LC0
 627 00e4 001040E3 		movt	r1, #:upper16:.LC0
 628              	.LEHB2:
 629 00e8 FEFFFFEB 		bl	_ZN5zxing24IllegalArgumentExceptionC1EPKc
 630              	.LVL51:
 631              	.LEHE2:
 632              		.loc 3 110 0 is_stmt 0 discriminator 2
 633 00ec 002000E3 		movw	r2, #:lower16:_ZN5zxing24IllegalArgumentExceptionD1Ev
 634 00f0 002040E3 		movt	r2, #:upper16:_ZN5zxing24IllegalArgumentExceptionD1Ev
 635 00f4 001000E3 		movw	r1, #:lower16:_ZTIN5zxing24IllegalArgumentExceptionE
 636 00f8 001040E3 		movt	r1, #:upper16:_ZTIN5zxing24IllegalArgumentExceptionE
 637 00fc 0400A0E1 		mov	r0, r4
 638              	.LEHB3:
 639 0100 FEFFFFEB 		bl	__cxa_throw
 640              	.LVL52:
 641              	.L40:
  93:../src/zxing_lib/zxing/DecodeHints.cpp ****   case BarcodeFormat::CODABAR: checkAgainst |= CODABAR_HINT; break;
 642              		.loc 3 93 0 is_stmt 1
 643 0104 0220A0E3 		mov	r2, #2
 644 0108 000000EA 		b	.L42
 645              	.L59:
  94:../src/zxing_lib/zxing/DecodeHints.cpp ****   case BarcodeFormat::CODE_39: checkAgainst |= CODE_39_HINT; break;
 646              		.loc 3 94 0
 647 010c 0420A0E3 		mov	r2, #4
 648              	.LVL53:
 649              	.L42:
 111:../src/zxing_lib/zxing/DecodeHints.cpp ****   }
 112:../src/zxing_lib/zxing/DecodeHints.cpp ****   return (hints & checkAgainst) != 0;
 650              		.loc 3 112 0
 651 0110 003090E5 		ldr	r3, [r0]
 652 0114 030012E1 		tst	r2, r3
 653 0118 0100A013 		movne	r0, #1
 654              	.LVL54:
 655 011c 0000A003 		moveq	r0, #0
 113:../src/zxing_lib/zxing/DecodeHints.cpp **** }
 656              		.loc 3 113 0
 657 0120 1EFF2FE1 		bx	lr
 658              	.LVL55:
 659              	.L60:
 110:../src/zxing_lib/zxing/DecodeHints.cpp ****   }
 660              		.loc 3 110 0
 661 0124 0400A0E1 		mov	r0, r4
 662 0128 FEFFFFEB 		bl	__cxa_free_exception
 663              	.LVL56:
 664 012c FEFFFFEB 		bl	__cxa_end_cleanup
 665              	.LVL57:
 666              	.LEHE3:
 667              		.cfi_endproc
 668              	.LFE1504:
 669              		.personality	__gxx_personality_v0
 670              		.handlerdata
 671              	.LLSDA1504:
 672 0008 FF       		.byte	0xff
 673 0009 FF       		.byte	0xff
 674 000a 01       		.byte	0x1
 675 000b 0B       		.uleb128 .LLSDACSE1504-.LLSDACSB1504
 676              	.LLSDACSB1504:
 677 000c E801     		.uleb128 .LEHB2-.LFB1504
 678 000e 04       		.uleb128 .LEHE2-.LEHB2
 679 000f A402     		.uleb128 .L60-.LFB1504
 680 0011 00       		.uleb128 0
 681 0012 8002     		.uleb128 .LEHB3-.LFB1504
 682 0014 30       		.uleb128 .LEHE3-.LEHB3
 683 0015 00       		.uleb128 0
 684 0016 00       		.uleb128 0
 685              	.LLSDACSE1504:
 686              		.section	.text._ZNK5zxing11DecodeHints14containsFormatENS_13BarcodeFormatE
 687              		.fnend
 689              		.section	.text._ZN5zxing11DecodeHints12setTryHarderEb,"ax",%progbits
 690              		.align	2
 691              		.global	_ZN5zxing11DecodeHints12setTryHarderEb
 692              		.syntax unified
 693              		.arm
 694              		.fpu neon
 696              	_ZN5zxing11DecodeHints12setTryHarderEb:
 697              		.fnstart
 698              	.LFB1505:
 114:../src/zxing_lib/zxing/DecodeHints.cpp **** 
 115:../src/zxing_lib/zxing/DecodeHints.cpp **** void DecodeHints::setTryHarder(bool toset) {
 699              		.loc 3 115 0
 700              		.cfi_startproc
 701              		@ args = 0, pretend = 0, frame = 0
 702              		@ frame_needed = 0, uses_anonymous_args = 0
 703              		@ link register save eliminated.
 704              	.LVL58:
 116:../src/zxing_lib/zxing/DecodeHints.cpp ****   if (toset) {
 705              		.loc 3 116 0
 706 0000 000051E3 		cmp	r1, #0
 707 0004 0300001A 		bne	.L67
 117:../src/zxing_lib/zxing/DecodeHints.cpp ****     hints |= TRYHARDER_HINT;
 118:../src/zxing_lib/zxing/DecodeHints.cpp ****   } else {
 119:../src/zxing_lib/zxing/DecodeHints.cpp ****     hints &= ~TRYHARDER_HINT;
 708              		.loc 3 119 0
 709 0008 003090E5 		ldr	r3, [r0]
 710 000c 0231C3E3 		bic	r3, r3, #-2147483648
 711 0010 003080E5 		str	r3, [r0]
 712 0014 1EFF2FE1 		bx	lr
 713              	.L67:
 117:../src/zxing_lib/zxing/DecodeHints.cpp ****     hints |= TRYHARDER_HINT;
 714              		.loc 3 117 0
 715 0018 003090E5 		ldr	r3, [r0]
 716 001c 023183E3 		orr	r3, r3, #-2147483648
 717 0020 003080E5 		str	r3, [r0]
 718 0024 1EFF2FE1 		bx	lr
 719              		.cfi_endproc
 720              	.LFE1505:
 721              		.cantunwind
 722              		.fnend
 724              		.section	.text._ZNK5zxing11DecodeHints12getTryHarderEv,"ax",%progbits
 725              		.align	2
 726              		.global	_ZNK5zxing11DecodeHints12getTryHarderEv
 727              		.syntax unified
 728              		.arm
 729              		.fpu neon
 731              	_ZNK5zxing11DecodeHints12getTryHarderEv:
 732              		.fnstart
 733              	.LFB1506:
 120:../src/zxing_lib/zxing/DecodeHints.cpp ****   }
 121:../src/zxing_lib/zxing/DecodeHints.cpp **** }
 122:../src/zxing_lib/zxing/DecodeHints.cpp **** 
 123:../src/zxing_lib/zxing/DecodeHints.cpp **** bool DecodeHints::getTryHarder() const {
 734              		.loc 3 123 0
 735              		.cfi_startproc
 736              		@ args = 0, pretend = 0, frame = 0
 737              		@ frame_needed = 0, uses_anonymous_args = 0
 738              		@ link register save eliminated.
 739              	.LVL59:
 124:../src/zxing_lib/zxing/DecodeHints.cpp ****   return (hints & TRYHARDER_HINT) != 0;
 740              		.loc 3 124 0
 741 0000 000090E5 		ldr	r0, [r0]
 742              	.LVL60:
 125:../src/zxing_lib/zxing/DecodeHints.cpp **** }
 743              		.loc 3 125 0
 744 0004 A00FA0E1 		lsr	r0, r0, #31
 745 0008 1EFF2FE1 		bx	lr
 746              		.cfi_endproc
 747              	.LFE1506:
 748              		.cantunwind
 749              		.fnend
 751              		.section	.text._ZN5zxing11DecodeHints22setResultPointCallbackERKNS_3RefINS_19ResultPointCallbackEE
 752              		.align	2
 753              		.global	_ZN5zxing11DecodeHints22setResultPointCallbackERKNS_3RefINS_19ResultPointCallbackEEE
 754              		.syntax unified
 755              		.arm
 756              		.fpu neon
 758              	_ZN5zxing11DecodeHints22setResultPointCallbackERKNS_3RefINS_19ResultPointCallbackEEE:
 759              		.fnstart
 760              	.LFB1507:
 126:../src/zxing_lib/zxing/DecodeHints.cpp **** 
 127:../src/zxing_lib/zxing/DecodeHints.cpp **** void DecodeHints::setResultPointCallback(Ref<ResultPointCallback> const& _callback) {
 761              		.loc 3 127 0
 762              		.cfi_startproc
 763              		@ args = 0, pretend = 0, frame = 0
 764              		@ frame_needed = 0, uses_anonymous_args = 0
 765              	.LVL61:
 766 0000 70402DE9 		push	{r4, r5, r6, lr}
 767              		.cfi_def_cfa_offset 16
 768              		.cfi_offset 4, -16
 769              		.cfi_offset 5, -12
 770              		.cfi_offset 6, -8
 771              		.cfi_offset 14, -4
 772 0004 0050A0E1 		mov	r5, r0
 773              	.LVL62:
 774              	.LBB170:
 775              	.LBB171:
  88:/home/zkmike/workspace/RZA2M/rza2m_2d_barcode_sample_freertos_gcc/src/zxing_lib/zxing/common/Counted.h ****   }
  89:/home/zkmike/workspace/RZA2M/rza2m_2d_barcode_sample_freertos_gcc/src/zxing_lib/zxing/common/Counted.h ****   Ref& operator=(const Ref &other) {
  90:/home/zkmike/workspace/RZA2M/rza2m_2d_barcode_sample_freertos_gcc/src/zxing_lib/zxing/common/Counted.h ****     reset(other.object_);
 776              		.loc 2 90 0
 777 0008 004091E5 		ldr	r4, [r1]
 778              	.LVL63:
 779              	.LBB172:
 780              	.LBB173:
  81:/home/zkmike/workspace/RZA2M/rza2m_2d_barcode_sample_freertos_gcc/src/zxing_lib/zxing/common/Counted.h ****       o->retain();
 781              		.loc 2 81 0
 782 000c 000054E3 		cmp	r4, #0
 783              	.LVL64:
 784              	.LBB174:
 785              	.LBB175:
  36:/home/zkmike/workspace/RZA2M/rza2m_2d_barcode_sample_freertos_gcc/src/zxing_lib/zxing/common/Counted.h ****     return this;
 786              		.loc 2 36 0
 787 0010 04309415 		ldrne	r3, [r4, #4]
 788 0014 01308312 		addne	r3, r3, #1
 789 0018 04308415 		strne	r3, [r4, #4]
 790              	.LVL65:
 791              	.L70:
 792              	.LBE175:
 793              	.LBE174:
  84:/home/zkmike/workspace/RZA2M/rza2m_2d_barcode_sample_freertos_gcc/src/zxing_lib/zxing/common/Counted.h ****       object_->release();
 794              		.loc 2 84 0
 795 001c 040095E5 		ldr	r0, [r5, #4]
 796              	.LVL66:
 797 0020 000050E3 		cmp	r0, #0
 798 0024 0400000A 		beq	.L71
 799              	.LVL67:
 800              	.LBB176:
 801              	.LBB177:
  40:/home/zkmike/workspace/RZA2M/rza2m_2d_barcode_sample_freertos_gcc/src/zxing_lib/zxing/common/Counted.h ****     if (count_ == 0) {
 802              		.loc 2 40 0
 803 0028 043090E5 		ldr	r3, [r0, #4]
 804 002c 013043E2 		sub	r3, r3, #1
 805 0030 043080E5 		str	r3, [r0, #4]
  41:/home/zkmike/workspace/RZA2M/rza2m_2d_barcode_sample_freertos_gcc/src/zxing_lib/zxing/common/Counted.h ****       count_ = 0xDEADF001;
 806              		.loc 2 41 0
 807 0034 000053E3 		cmp	r3, #0
 808 0038 0100000A 		beq	.L73
 809              	.LVL68:
 810              	.L71:
 811              	.LBE177:
 812              	.LBE176:
  87:/home/zkmike/workspace/RZA2M/rza2m_2d_barcode_sample_freertos_gcc/src/zxing_lib/zxing/common/Counted.h ****   }
 813              		.loc 2 87 0
 814 003c 044085E5 		str	r4, [r5, #4]
 815              	.LVL69:
 816 0040 7080BDE8 		pop	{r4, r5, r6, pc}
 817              	.LVL70:
 818              	.L73:
 819              	.LBB179:
 820              	.LBB178:
  42:/home/zkmike/workspace/RZA2M/rza2m_2d_barcode_sample_freertos_gcc/src/zxing_lib/zxing/common/Counted.h ****       delete this;
 821              		.loc 2 42 0
 822 0044 01300FE3 		movw	r3, #61441
 823 0048 AD3E4DE3 		movt	r3, 57005
 824 004c 043080E5 		str	r3, [r0, #4]
  43:/home/zkmike/workspace/RZA2M/rza2m_2d_barcode_sample_freertos_gcc/src/zxing_lib/zxing/common/Counted.h ****     }
 825              		.loc 2 43 0
 826 0050 003090E5 		ldr	r3, [r0]
 827 0054 043093E5 		ldr	r3, [r3, #4]
 828 0058 33FF2FE1 		blx	r3
 829              	.LVL71:
 830 005c F6FFFFEA 		b	.L71
 831              	.LBE178:
 832              	.LBE179:
 833              	.LBE173:
 834              	.LBE172:
 835              	.LBE171:
 836              	.LBE170:
 837              		.cfi_endproc
 838              	.LFE1507:
 839              		.cantunwind
 840              		.fnend
 842              		.section	.text._ZNK5zxing11DecodeHints22getResultPointCallbackEv,"ax",%progbits
 843              		.align	2
 844              		.global	_ZNK5zxing11DecodeHints22getResultPointCallbackEv
 845              		.syntax unified
 846              		.arm
 847              		.fpu neon
 849              	_ZNK5zxing11DecodeHints22getResultPointCallbackEv:
 850              		.fnstart
 851              	.LFB1508:
 128:../src/zxing_lib/zxing/DecodeHints.cpp ****   callback = _callback;
 129:../src/zxing_lib/zxing/DecodeHints.cpp **** }
 130:../src/zxing_lib/zxing/DecodeHints.cpp **** 
 131:../src/zxing_lib/zxing/DecodeHints.cpp **** Ref<ResultPointCallback> DecodeHints::getResultPointCallback() const {
 852              		.loc 3 131 0
 853              		.cfi_startproc
 854              		@ args = 0, pretend = 0, frame = 0
 855              		@ frame_needed = 0, uses_anonymous_args = 0
 856              	.LVL72:
 857 0000 70402DE9 		push	{r4, r5, r6, lr}
 858              		.cfi_def_cfa_offset 16
 859              		.cfi_offset 4, -16
 860              		.cfi_offset 5, -12
 861              		.cfi_offset 6, -8
 862              		.cfi_offset 14, -4
 863 0004 0040A0E1 		mov	r4, r0
 864              	.LVL73:
 865              	.LBB188:
 866              	.LBB189:
  64:/home/zkmike/workspace/RZA2M/rza2m_2d_barcode_sample_freertos_gcc/src/zxing_lib/zxing/common/Counted.h ****     reset(other.object_);
 867              		.loc 2 64 0
 868 0008 0030A0E3 		mov	r3, #0
 869 000c 003080E5 		str	r3, [r0]
  65:/home/zkmike/workspace/RZA2M/rza2m_2d_barcode_sample_freertos_gcc/src/zxing_lib/zxing/common/Counted.h ****   }
 870              		.loc 2 65 0
 871 0010 045091E5 		ldr	r5, [r1, #4]
 872              	.LVL74:
 873              	.LBB190:
 874              	.LBB191:
  81:/home/zkmike/workspace/RZA2M/rza2m_2d_barcode_sample_freertos_gcc/src/zxing_lib/zxing/common/Counted.h ****       o->retain();
 875              		.loc 2 81 0
 876 0014 030055E1 		cmp	r5, r3
 877              	.LVL75:
 878              	.LBB192:
 879              	.LBB193:
  36:/home/zkmike/workspace/RZA2M/rza2m_2d_barcode_sample_freertos_gcc/src/zxing_lib/zxing/common/Counted.h ****     return this;
 880              		.loc 2 36 0
 881 0018 04309515 		ldrne	r3, [r5, #4]
 882 001c 01308312 		addne	r3, r3, #1
 883 0020 04308515 		strne	r3, [r5, #4]
 884              	.LVL76:
 885              	.L75:
 886              	.LBE193:
 887              	.LBE192:
  84:/home/zkmike/workspace/RZA2M/rza2m_2d_barcode_sample_freertos_gcc/src/zxing_lib/zxing/common/Counted.h ****       object_->release();
 888              		.loc 2 84 0
 889 0024 000094E5 		ldr	r0, [r4]
 890              	.LVL77:
 891 0028 000050E3 		cmp	r0, #0
 892 002c 0400000A 		beq	.L76
 893              	.LVL78:
 894              	.LBB194:
 895              	.LBB195:
  40:/home/zkmike/workspace/RZA2M/rza2m_2d_barcode_sample_freertos_gcc/src/zxing_lib/zxing/common/Counted.h ****     if (count_ == 0) {
 896              		.loc 2 40 0
 897 0030 043090E5 		ldr	r3, [r0, #4]
 898 0034 013043E2 		sub	r3, r3, #1
 899 0038 043080E5 		str	r3, [r0, #4]
  41:/home/zkmike/workspace/RZA2M/rza2m_2d_barcode_sample_freertos_gcc/src/zxing_lib/zxing/common/Counted.h ****       count_ = 0xDEADF001;
 900              		.loc 2 41 0
 901 003c 000053E3 		cmp	r3, #0
 902 0040 0200000A 		beq	.L78
 903              	.LVL79:
 904              	.L76:
 905              	.LBE195:
 906              	.LBE194:
  87:/home/zkmike/workspace/RZA2M/rza2m_2d_barcode_sample_freertos_gcc/src/zxing_lib/zxing/common/Counted.h ****   }
 907              		.loc 2 87 0
 908 0044 005084E5 		str	r5, [r4]
 909              	.LVL80:
 910              	.LBE191:
 911              	.LBE190:
 912              	.LBE189:
 913              	.LBE188:
 132:../src/zxing_lib/zxing/DecodeHints.cpp ****   return callback;
 133:../src/zxing_lib/zxing/DecodeHints.cpp **** }
 914              		.loc 3 133 0
 915 0048 0400A0E1 		mov	r0, r4
 916 004c 7080BDE8 		pop	{r4, r5, r6, pc}
 917              	.LVL81:
 918              	.L78:
 919              	.LBB201:
 920              	.LBB200:
 921              	.LBB199:
 922              	.LBB198:
 923              	.LBB197:
 924              	.LBB196:
  42:/home/zkmike/workspace/RZA2M/rza2m_2d_barcode_sample_freertos_gcc/src/zxing_lib/zxing/common/Counted.h ****       delete this;
 925              		.loc 2 42 0
 926 0050 01300FE3 		movw	r3, #61441
 927 0054 AD3E4DE3 		movt	r3, 57005
 928 0058 043080E5 		str	r3, [r0, #4]
  43:/home/zkmike/workspace/RZA2M/rza2m_2d_barcode_sample_freertos_gcc/src/zxing_lib/zxing/common/Counted.h ****     }
 929              		.loc 2 43 0
 930 005c 003090E5 		ldr	r3, [r0]
 931 0060 043093E5 		ldr	r3, [r3, #4]
 932 0064 33FF2FE1 		blx	r3
 933              	.LVL82:
 934 0068 F5FFFFEA 		b	.L76
 935              	.LBE196:
 936              	.LBE197:
 937              	.LBE198:
 938              	.LBE199:
 939              	.LBE200:
 940              	.LBE201:
 941              		.cfi_endproc
 942              	.LFE1508:
 943              		.cantunwind
 944              		.fnend
 946              		.section	.text._ZN5zxingorERKNS_11DecodeHintsES2_,"ax",%progbits
 947              		.align	2
 948              		.global	_ZN5zxingorERKNS_11DecodeHintsES2_
 949              		.syntax unified
 950              		.arm
 951              		.fpu neon
 953              	_ZN5zxingorERKNS_11DecodeHintsES2_:
 954              		.fnstart
 955              	.LFB1509:
 134:../src/zxing_lib/zxing/DecodeHints.cpp **** 
 135:../src/zxing_lib/zxing/DecodeHints.cpp **** DecodeHints zxing::operator | (DecodeHints const& l, DecodeHints const& r) {
 956              		.loc 3 135 0
 957              		.cfi_startproc
 958              		@ args = 0, pretend = 0, frame = 0
 959              		@ frame_needed = 0, uses_anonymous_args = 0
 960              	.LVL83:
 961 0000 70402DE9 		push	{r4, r5, r6, lr}
 962              		.cfi_def_cfa_offset 16
 963              		.cfi_offset 4, -16
 964              		.cfi_offset 5, -12
 965              		.cfi_offset 6, -8
 966              		.cfi_offset 14, -4
 967 0004 0040A0E1 		mov	r4, r0
 968 0008 0260A0E1 		mov	r6, r2
 969              	.LVL84:
 970              	.LBB222:
 971              	.LBB223:
 972              		.loc 1 32 0
 973 000c 003091E5 		ldr	r3, [r1]
 974 0010 003080E5 		str	r3, [r0]
 975              	.LVL85:
 976              	.LBB224:
 977              	.LBB225:
  64:/home/zkmike/workspace/RZA2M/rza2m_2d_barcode_sample_freertos_gcc/src/zxing_lib/zxing/common/Counted.h ****     reset(other.object_);
 978              		.loc 2 64 0
 979 0014 0030A0E3 		mov	r3, #0
 980 0018 043080E5 		str	r3, [r0, #4]
  65:/home/zkmike/workspace/RZA2M/rza2m_2d_barcode_sample_freertos_gcc/src/zxing_lib/zxing/common/Counted.h ****   }
 981              		.loc 2 65 0
 982 001c 045091E5 		ldr	r5, [r1, #4]
 983              	.LVL86:
 984              	.LBB226:
 985              	.LBB227:
  81:/home/zkmike/workspace/RZA2M/rza2m_2d_barcode_sample_freertos_gcc/src/zxing_lib/zxing/common/Counted.h ****       o->retain();
 986              		.loc 2 81 0
 987 0020 030055E1 		cmp	r5, r3
 988              	.LVL87:
 989              	.LBB228:
 990              	.LBB229:
  36:/home/zkmike/workspace/RZA2M/rza2m_2d_barcode_sample_freertos_gcc/src/zxing_lib/zxing/common/Counted.h ****     return this;
 991              		.loc 2 36 0
 992 0024 04309515 		ldrne	r3, [r5, #4]
 993 0028 01308312 		addne	r3, r3, #1
 994 002c 04308515 		strne	r3, [r5, #4]
 995              	.LVL88:
 996              	.L80:
 997              	.LBE229:
 998              	.LBE228:
  84:/home/zkmike/workspace/RZA2M/rza2m_2d_barcode_sample_freertos_gcc/src/zxing_lib/zxing/common/Counted.h ****       object_->release();
 999              		.loc 2 84 0
 1000 0030 040094E5 		ldr	r0, [r4, #4]
 1001              	.LVL89:
 1002 0034 000050E3 		cmp	r0, #0
 1003 0038 0400000A 		beq	.L81
 1004              	.LVL90:
 1005              	.LBB230:
 1006              	.LBB231:
  40:/home/zkmike/workspace/RZA2M/rza2m_2d_barcode_sample_freertos_gcc/src/zxing_lib/zxing/common/Counted.h ****     if (count_ == 0) {
 1007              		.loc 2 40 0
 1008 003c 043090E5 		ldr	r3, [r0, #4]
 1009 0040 013043E2 		sub	r3, r3, #1
 1010 0044 043080E5 		str	r3, [r0, #4]
  41:/home/zkmike/workspace/RZA2M/rza2m_2d_barcode_sample_freertos_gcc/src/zxing_lib/zxing/common/Counted.h ****       count_ = 0xDEADF001;
 1011              		.loc 2 41 0
 1012 0048 000053E3 		cmp	r3, #0
 1013 004c 0800000A 		beq	.L86
 1014              	.LVL91:
 1015              	.L81:
 1016              	.LBE231:
 1017              	.LBE230:
  87:/home/zkmike/workspace/RZA2M/rza2m_2d_barcode_sample_freertos_gcc/src/zxing_lib/zxing/common/Counted.h ****   }
 1018              		.loc 2 87 0
 1019 0050 045084E5 		str	r5, [r4, #4]
 1020              	.LVL92:
 1021              	.LBE227:
 1022              	.LBE226:
 1023              	.LBE225:
 1024              	.LBE224:
 1025              	.LBE223:
 1026              	.LBE222:
 136:../src/zxing_lib/zxing/DecodeHints.cpp ****   DecodeHints result (l);
 137:../src/zxing_lib/zxing/DecodeHints.cpp ****   result.hints |= r.hints;
 1027              		.loc 3 137 0
 1028 0054 003094E5 		ldr	r3, [r4]
 1029 0058 002096E5 		ldr	r2, [r6]
 1030 005c 023083E1 		orr	r3, r3, r2
 1031 0060 003084E5 		str	r3, [r4]
 1032              	.LVL93:
 138:../src/zxing_lib/zxing/DecodeHints.cpp ****   if (!result.callback) {
 1033              		.loc 3 138 0
 1034 0064 000055E3 		cmp	r5, #0
 1035 0068 0800000A 		beq	.L87
 1036              	.L79:
 139:../src/zxing_lib/zxing/DecodeHints.cpp ****     result.callback = r.callback;
 140:../src/zxing_lib/zxing/DecodeHints.cpp ****   }
 141:../src/zxing_lib/zxing/DecodeHints.cpp ****   return result;
 142:../src/zxing_lib/zxing/DecodeHints.cpp **** }
 1037              		.loc 3 142 0
 1038 006c 0400A0E1 		mov	r0, r4
 1039 0070 7080BDE8 		pop	{r4, r5, r6, pc}
 1040              	.LVL94:
 1041              	.L86:
 1042              	.LBB239:
 1043              	.LBB238:
 1044              	.LBB237:
 1045              	.LBB236:
 1046              	.LBB235:
 1047              	.LBB234:
 1048              	.LBB233:
 1049              	.LBB232:
  42:/home/zkmike/workspace/RZA2M/rza2m_2d_barcode_sample_freertos_gcc/src/zxing_lib/zxing/common/Counted.h ****       delete this;
 1050              		.loc 2 42 0
 1051 0074 01300FE3 		movw	r3, #61441
 1052 0078 AD3E4DE3 		movt	r3, 57005
 1053 007c 043080E5 		str	r3, [r0, #4]
  43:/home/zkmike/workspace/RZA2M/rza2m_2d_barcode_sample_freertos_gcc/src/zxing_lib/zxing/common/Counted.h ****     }
 1054              		.loc 2 43 0
 1055 0080 003090E5 		ldr	r3, [r0]
 1056 0084 043093E5 		ldr	r3, [r3, #4]
 1057 0088 33FF2FE1 		blx	r3
 1058              	.LVL95:
 1059 008c EFFFFFEA 		b	.L81
 1060              	.LVL96:
 1061              	.L87:
 1062              	.LBE232:
 1063              	.LBE233:
 1064              	.LBE234:
 1065              	.LBE235:
 1066              	.LBE236:
 1067              	.LBE237:
 1068              	.LBE238:
 1069              	.LBE239:
 1070              	.LBB240:
 1071              	.LBB241:
 1072              		.loc 2 90 0
 1073 0090 045096E5 		ldr	r5, [r6, #4]
 1074              	.LVL97:
 1075              	.LBB242:
 1076              	.LBB243:
  81:/home/zkmike/workspace/RZA2M/rza2m_2d_barcode_sample_freertos_gcc/src/zxing_lib/zxing/common/Counted.h ****       o->retain();
 1077              		.loc 2 81 0
 1078 0094 000055E3 		cmp	r5, #0
 1079              	.LVL98:
 1080              	.LBB244:
 1081              	.LBB245:
  36:/home/zkmike/workspace/RZA2M/rza2m_2d_barcode_sample_freertos_gcc/src/zxing_lib/zxing/common/Counted.h ****     return this;
 1082              		.loc 2 36 0
 1083 0098 04309515 		ldrne	r3, [r5, #4]
 1084 009c 01308312 		addne	r3, r3, #1
 1085 00a0 04308515 		strne	r3, [r5, #4]
 1086              	.LVL99:
 1087              	.L83:
 1088              	.LBE245:
 1089              	.LBE244:
  84:/home/zkmike/workspace/RZA2M/rza2m_2d_barcode_sample_freertos_gcc/src/zxing_lib/zxing/common/Counted.h ****       object_->release();
 1090              		.loc 2 84 0
 1091 00a4 040094E5 		ldr	r0, [r4, #4]
 1092 00a8 000050E3 		cmp	r0, #0
 1093 00ac 0400000A 		beq	.L84
 1094              	.LVL100:
 1095              	.LBB246:
 1096              	.LBB247:
  40:/home/zkmike/workspace/RZA2M/rza2m_2d_barcode_sample_freertos_gcc/src/zxing_lib/zxing/common/Counted.h ****     if (count_ == 0) {
 1097              		.loc 2 40 0
 1098 00b0 043090E5 		ldr	r3, [r0, #4]
 1099 00b4 013043E2 		sub	r3, r3, #1
 1100 00b8 043080E5 		str	r3, [r0, #4]
  41:/home/zkmike/workspace/RZA2M/rza2m_2d_barcode_sample_freertos_gcc/src/zxing_lib/zxing/common/Counted.h ****       count_ = 0xDEADF001;
 1101              		.loc 2 41 0
 1102 00bc 000053E3 		cmp	r3, #0
 1103 00c0 0100000A 		beq	.L88
 1104              	.LVL101:
 1105              	.L84:
 1106              	.LBE247:
 1107              	.LBE246:
  87:/home/zkmike/workspace/RZA2M/rza2m_2d_barcode_sample_freertos_gcc/src/zxing_lib/zxing/common/Counted.h ****   }
 1108              		.loc 2 87 0
 1109 00c4 045084E5 		str	r5, [r4, #4]
 1110              	.LBE243:
 1111              	.LBE242:
 1112              	.LBE241:
 1113              	.LBE240:
 141:../src/zxing_lib/zxing/DecodeHints.cpp **** }
 1114              		.loc 3 141 0
 1115 00c8 E7FFFFEA 		b	.L79
 1116              	.LVL102:
 1117              	.L88:
 1118              	.LBB253:
 1119              	.LBB252:
 1120              	.LBB251:
 1121              	.LBB250:
 1122              	.LBB249:
 1123              	.LBB248:
  42:/home/zkmike/workspace/RZA2M/rza2m_2d_barcode_sample_freertos_gcc/src/zxing_lib/zxing/common/Counted.h ****       delete this;
 1124              		.loc 2 42 0
 1125 00cc 01300FE3 		movw	r3, #61441
 1126 00d0 AD3E4DE3 		movt	r3, 57005
 1127 00d4 043080E5 		str	r3, [r0, #4]
  43:/home/zkmike/workspace/RZA2M/rza2m_2d_barcode_sample_freertos_gcc/src/zxing_lib/zxing/common/Counted.h ****     }
 1128              		.loc 2 43 0
 1129 00d8 003090E5 		ldr	r3, [r0]
 1130 00dc 043093E5 		ldr	r3, [r3, #4]
 1131 00e0 33FF2FE1 		blx	r3
 1132              	.LVL103:
 1133 00e4 F6FFFFEA 		b	.L84
 1134              	.LBE248:
 1135              	.LBE249:
 1136              	.LBE250:
 1137              	.LBE251:
 1138              	.LBE252:
 1139              	.LBE253:
 1140              		.cfi_endproc
 1141              	.LFE1509:
 1142              		.cantunwind
 1143              		.fnend
 1145              		.section	.text._Z41__static_initialization_and_destruction_0ii,"ax",%progbits
 1146              		.align	2
 1147              		.syntax unified
 1148              		.arm
 1149              		.fpu neon
 1151              	_Z41__static_initialization_and_destruction_0ii:
 1152              		.fnstart
 1153              	.LFB1960:
 1154              		.loc 3 142 0
 1155              		.cfi_startproc
 1156              		@ args = 0, pretend = 0, frame = 64
 1157              		@ frame_needed = 0, uses_anonymous_args = 0
 1158              	.LVL104:
 1159 0000 010050E3 		cmp	r0, #1
 1160 0004 1EFF2F11 		bxne	lr
 1161              		.loc 3 142 0 is_stmt 0 discriminator 1
 1162 0008 FF3F0FE3 		movw	r3, #65535
 1163 000c 030051E1 		cmp	r1, r3
 1164 0010 1EFF2F11 		bxne	lr
 1165              		.loc 3 142 0
 1166 0014 30402DE9 		push	{r4, r5, lr}
 1167              		.cfi_def_cfa_offset 12
 1168              		.cfi_offset 4, -12
 1169              		.cfi_offset 5, -8
 1170              		.cfi_offset 14, -4
 1171 0018 44D04DE2 		sub	sp, sp, #68
 1172              		.cfi_def_cfa_offset 80
 1173              		.file 5 "/home/zkmike/.local/share/renesas/e2_studio/toolchains/gcc_arm/gcc-arm-none-eabi-6-2017-q
   1:/home/zkmike/.local/share/renesas/e2_studio/toolchains/gcc_arm/gcc-arm-none-eabi-6-2017-q2-update/arm-none-eabi/include/c++/6.3.1/iostream **** // Standard iostream objects -*- C++ -*-
   2:/home/zkmike/.local/share/renesas/e2_studio/toolchains/gcc_arm/gcc-arm-none-eabi-6-2017-q2-update/arm-none-eabi/include/c++/6.3.1/iostream **** 
   3:/home/zkmike/.local/share/renesas/e2_studio/toolchains/gcc_arm/gcc-arm-none-eabi-6-2017-q2-update/arm-none-eabi/include/c++/6.3.1/iostream **** // Copyright (C) 1997-2016 Free Software Foundation, Inc.
   4:/home/zkmike/.local/share/renesas/e2_studio/toolchains/gcc_arm/gcc-arm-none-eabi-6-2017-q2-update/arm-none-eabi/include/c++/6.3.1/iostream **** //
   5:/home/zkmike/.local/share/renesas/e2_studio/toolchains/gcc_arm/gcc-arm-none-eabi-6-2017-q2-update/arm-none-eabi/include/c++/6.3.1/iostream **** // This file is part of the GNU ISO C++ Library.  This library is free
   6:/home/zkmike/.local/share/renesas/e2_studio/toolchains/gcc_arm/gcc-arm-none-eabi-6-2017-q2-update/arm-none-eabi/include/c++/6.3.1/iostream **** // software; you can redistribute it and/or modify it under the
   7:/home/zkmike/.local/share/renesas/e2_studio/toolchains/gcc_arm/gcc-arm-none-eabi-6-2017-q2-update/arm-none-eabi/include/c++/6.3.1/iostream **** // terms of the GNU General Public License as published by the
   8:/home/zkmike/.local/share/renesas/e2_studio/toolchains/gcc_arm/gcc-arm-none-eabi-6-2017-q2-update/arm-none-eabi/include/c++/6.3.1/iostream **** // Free Software Foundation; either version 3, or (at your option)
   9:/home/zkmike/.local/share/renesas/e2_studio/toolchains/gcc_arm/gcc-arm-none-eabi-6-2017-q2-update/arm-none-eabi/include/c++/6.3.1/iostream **** // any later version.
  10:/home/zkmike/.local/share/renesas/e2_studio/toolchains/gcc_arm/gcc-arm-none-eabi-6-2017-q2-update/arm-none-eabi/include/c++/6.3.1/iostream **** 
  11:/home/zkmike/.local/share/renesas/e2_studio/toolchains/gcc_arm/gcc-arm-none-eabi-6-2017-q2-update/arm-none-eabi/include/c++/6.3.1/iostream **** // This library is distributed in the hope that it will be useful,
  12:/home/zkmike/.local/share/renesas/e2_studio/toolchains/gcc_arm/gcc-arm-none-eabi-6-2017-q2-update/arm-none-eabi/include/c++/6.3.1/iostream **** // but WITHOUT ANY WARRANTY; without even the implied warranty of
  13:/home/zkmike/.local/share/renesas/e2_studio/toolchains/gcc_arm/gcc-arm-none-eabi-6-2017-q2-update/arm-none-eabi/include/c++/6.3.1/iostream **** // MERCHANTABILITY or FITNESS FOR A PARTICULAR PURPOSE.  See the
  14:/home/zkmike/.local/share/renesas/e2_studio/toolchains/gcc_arm/gcc-arm-none-eabi-6-2017-q2-update/arm-none-eabi/include/c++/6.3.1/iostream **** // GNU General Public License for more details.
  15:/home/zkmike/.local/share/renesas/e2_studio/toolchains/gcc_arm/gcc-arm-none-eabi-6-2017-q2-update/arm-none-eabi/include/c++/6.3.1/iostream **** 
  16:/home/zkmike/.local/share/renesas/e2_studio/toolchains/gcc_arm/gcc-arm-none-eabi-6-2017-q2-update/arm-none-eabi/include/c++/6.3.1/iostream **** // Under Section 7 of GPL version 3, you are granted additional
  17:/home/zkmike/.local/share/renesas/e2_studio/toolchains/gcc_arm/gcc-arm-none-eabi-6-2017-q2-update/arm-none-eabi/include/c++/6.3.1/iostream **** // permissions described in the GCC Runtime Library Exception, version
  18:/home/zkmike/.local/share/renesas/e2_studio/toolchains/gcc_arm/gcc-arm-none-eabi-6-2017-q2-update/arm-none-eabi/include/c++/6.3.1/iostream **** // 3.1, as published by the Free Software Foundation.
  19:/home/zkmike/.local/share/renesas/e2_studio/toolchains/gcc_arm/gcc-arm-none-eabi-6-2017-q2-update/arm-none-eabi/include/c++/6.3.1/iostream **** 
  20:/home/zkmike/.local/share/renesas/e2_studio/toolchains/gcc_arm/gcc-arm-none-eabi-6-2017-q2-update/arm-none-eabi/include/c++/6.3.1/iostream **** // You should have received a copy of the GNU General Public License and
  21:/home/zkmike/.local/share/renesas/e2_studio/toolchains/gcc_arm/gcc-arm-none-eabi-6-2017-q2-update/arm-none-eabi/include/c++/6.3.1/iostream **** // a copy of the GCC Runtime Library Exception along with this program;
  22:/home/zkmike/.local/share/renesas/e2_studio/toolchains/gcc_arm/gcc-arm-none-eabi-6-2017-q2-update/arm-none-eabi/include/c++/6.3.1/iostream **** // see the files COPYING3 and COPYING.RUNTIME respectively.  If not, see
  23:/home/zkmike/.local/share/renesas/e2_studio/toolchains/gcc_arm/gcc-arm-none-eabi-6-2017-q2-update/arm-none-eabi/include/c++/6.3.1/iostream **** // <http://www.gnu.org/licenses/>.
  24:/home/zkmike/.local/share/renesas/e2_studio/toolchains/gcc_arm/gcc-arm-none-eabi-6-2017-q2-update/arm-none-eabi/include/c++/6.3.1/iostream **** 
  25:/home/zkmike/.local/share/renesas/e2_studio/toolchains/gcc_arm/gcc-arm-none-eabi-6-2017-q2-update/arm-none-eabi/include/c++/6.3.1/iostream **** /** @file include/iostream
  26:/home/zkmike/.local/share/renesas/e2_studio/toolchains/gcc_arm/gcc-arm-none-eabi-6-2017-q2-update/arm-none-eabi/include/c++/6.3.1/iostream ****  *  This is a Standard C++ Library header.
  27:/home/zkmike/.local/share/renesas/e2_studio/toolchains/gcc_arm/gcc-arm-none-eabi-6-2017-q2-update/arm-none-eabi/include/c++/6.3.1/iostream ****  */
  28:/home/zkmike/.local/share/renesas/e2_studio/toolchains/gcc_arm/gcc-arm-none-eabi-6-2017-q2-update/arm-none-eabi/include/c++/6.3.1/iostream **** 
  29:/home/zkmike/.local/share/renesas/e2_studio/toolchains/gcc_arm/gcc-arm-none-eabi-6-2017-q2-update/arm-none-eabi/include/c++/6.3.1/iostream **** //
  30:/home/zkmike/.local/share/renesas/e2_studio/toolchains/gcc_arm/gcc-arm-none-eabi-6-2017-q2-update/arm-none-eabi/include/c++/6.3.1/iostream **** // ISO C++ 14882: 27.3  Standard iostream objects
  31:/home/zkmike/.local/share/renesas/e2_studio/toolchains/gcc_arm/gcc-arm-none-eabi-6-2017-q2-update/arm-none-eabi/include/c++/6.3.1/iostream **** //
  32:/home/zkmike/.local/share/renesas/e2_studio/toolchains/gcc_arm/gcc-arm-none-eabi-6-2017-q2-update/arm-none-eabi/include/c++/6.3.1/iostream **** 
  33:/home/zkmike/.local/share/renesas/e2_studio/toolchains/gcc_arm/gcc-arm-none-eabi-6-2017-q2-update/arm-none-eabi/include/c++/6.3.1/iostream **** #ifndef _GLIBCXX_IOSTREAM
  34:/home/zkmike/.local/share/renesas/e2_studio/toolchains/gcc_arm/gcc-arm-none-eabi-6-2017-q2-update/arm-none-eabi/include/c++/6.3.1/iostream **** #define _GLIBCXX_IOSTREAM 1
  35:/home/zkmike/.local/share/renesas/e2_studio/toolchains/gcc_arm/gcc-arm-none-eabi-6-2017-q2-update/arm-none-eabi/include/c++/6.3.1/iostream **** 
  36:/home/zkmike/.local/share/renesas/e2_studio/toolchains/gcc_arm/gcc-arm-none-eabi-6-2017-q2-update/arm-none-eabi/include/c++/6.3.1/iostream **** #pragma GCC system_header
  37:/home/zkmike/.local/share/renesas/e2_studio/toolchains/gcc_arm/gcc-arm-none-eabi-6-2017-q2-update/arm-none-eabi/include/c++/6.3.1/iostream **** 
  38:/home/zkmike/.local/share/renesas/e2_studio/toolchains/gcc_arm/gcc-arm-none-eabi-6-2017-q2-update/arm-none-eabi/include/c++/6.3.1/iostream **** #include <bits/c++config.h>
  39:/home/zkmike/.local/share/renesas/e2_studio/toolchains/gcc_arm/gcc-arm-none-eabi-6-2017-q2-update/arm-none-eabi/include/c++/6.3.1/iostream **** #include <ostream>
  40:/home/zkmike/.local/share/renesas/e2_studio/toolchains/gcc_arm/gcc-arm-none-eabi-6-2017-q2-update/arm-none-eabi/include/c++/6.3.1/iostream **** #include <istream>
  41:/home/zkmike/.local/share/renesas/e2_studio/toolchains/gcc_arm/gcc-arm-none-eabi-6-2017-q2-update/arm-none-eabi/include/c++/6.3.1/iostream **** 
  42:/home/zkmike/.local/share/renesas/e2_studio/toolchains/gcc_arm/gcc-arm-none-eabi-6-2017-q2-update/arm-none-eabi/include/c++/6.3.1/iostream **** namespace std _GLIBCXX_VISIBILITY(default)
  43:/home/zkmike/.local/share/renesas/e2_studio/toolchains/gcc_arm/gcc-arm-none-eabi-6-2017-q2-update/arm-none-eabi/include/c++/6.3.1/iostream **** {
  44:/home/zkmike/.local/share/renesas/e2_studio/toolchains/gcc_arm/gcc-arm-none-eabi-6-2017-q2-update/arm-none-eabi/include/c++/6.3.1/iostream **** _GLIBCXX_BEGIN_NAMESPACE_VERSION
  45:/home/zkmike/.local/share/renesas/e2_studio/toolchains/gcc_arm/gcc-arm-none-eabi-6-2017-q2-update/arm-none-eabi/include/c++/6.3.1/iostream **** 
  46:/home/zkmike/.local/share/renesas/e2_studio/toolchains/gcc_arm/gcc-arm-none-eabi-6-2017-q2-update/arm-none-eabi/include/c++/6.3.1/iostream ****   /**
  47:/home/zkmike/.local/share/renesas/e2_studio/toolchains/gcc_arm/gcc-arm-none-eabi-6-2017-q2-update/arm-none-eabi/include/c++/6.3.1/iostream ****    *  @name Standard Stream Objects
  48:/home/zkmike/.local/share/renesas/e2_studio/toolchains/gcc_arm/gcc-arm-none-eabi-6-2017-q2-update/arm-none-eabi/include/c++/6.3.1/iostream ****    *
  49:/home/zkmike/.local/share/renesas/e2_studio/toolchains/gcc_arm/gcc-arm-none-eabi-6-2017-q2-update/arm-none-eabi/include/c++/6.3.1/iostream ****    *  The &lt;iostream&gt; header declares the eight <em>standard stream
  50:/home/zkmike/.local/share/renesas/e2_studio/toolchains/gcc_arm/gcc-arm-none-eabi-6-2017-q2-update/arm-none-eabi/include/c++/6.3.1/iostream ****    *  objects</em>.  For other declarations, see
  51:/home/zkmike/.local/share/renesas/e2_studio/toolchains/gcc_arm/gcc-arm-none-eabi-6-2017-q2-update/arm-none-eabi/include/c++/6.3.1/iostream ****    *  http://gcc.gnu.org/onlinedocs/libstdc++/manual/io.html
  52:/home/zkmike/.local/share/renesas/e2_studio/toolchains/gcc_arm/gcc-arm-none-eabi-6-2017-q2-update/arm-none-eabi/include/c++/6.3.1/iostream ****    *  and the @link iosfwd I/O forward declarations @endlink
  53:/home/zkmike/.local/share/renesas/e2_studio/toolchains/gcc_arm/gcc-arm-none-eabi-6-2017-q2-update/arm-none-eabi/include/c++/6.3.1/iostream ****    *
  54:/home/zkmike/.local/share/renesas/e2_studio/toolchains/gcc_arm/gcc-arm-none-eabi-6-2017-q2-update/arm-none-eabi/include/c++/6.3.1/iostream ****    *  They are required by default to cooperate with the global C
  55:/home/zkmike/.local/share/renesas/e2_studio/toolchains/gcc_arm/gcc-arm-none-eabi-6-2017-q2-update/arm-none-eabi/include/c++/6.3.1/iostream ****    *  library's @c FILE streams, and to be available during program
  56:/home/zkmike/.local/share/renesas/e2_studio/toolchains/gcc_arm/gcc-arm-none-eabi-6-2017-q2-update/arm-none-eabi/include/c++/6.3.1/iostream ****    *  startup and termination. For more information, see the section of the
  57:/home/zkmike/.local/share/renesas/e2_studio/toolchains/gcc_arm/gcc-arm-none-eabi-6-2017-q2-update/arm-none-eabi/include/c++/6.3.1/iostream ****    *  manual linked to above.
  58:/home/zkmike/.local/share/renesas/e2_studio/toolchains/gcc_arm/gcc-arm-none-eabi-6-2017-q2-update/arm-none-eabi/include/c++/6.3.1/iostream ****   */
  59:/home/zkmike/.local/share/renesas/e2_studio/toolchains/gcc_arm/gcc-arm-none-eabi-6-2017-q2-update/arm-none-eabi/include/c++/6.3.1/iostream ****   //@{
  60:/home/zkmike/.local/share/renesas/e2_studio/toolchains/gcc_arm/gcc-arm-none-eabi-6-2017-q2-update/arm-none-eabi/include/c++/6.3.1/iostream ****   extern istream cin;		/// Linked to standard input
  61:/home/zkmike/.local/share/renesas/e2_studio/toolchains/gcc_arm/gcc-arm-none-eabi-6-2017-q2-update/arm-none-eabi/include/c++/6.3.1/iostream ****   extern ostream cout;		/// Linked to standard output
  62:/home/zkmike/.local/share/renesas/e2_studio/toolchains/gcc_arm/gcc-arm-none-eabi-6-2017-q2-update/arm-none-eabi/include/c++/6.3.1/iostream ****   extern ostream cerr;		/// Linked to standard error (unbuffered)
  63:/home/zkmike/.local/share/renesas/e2_studio/toolchains/gcc_arm/gcc-arm-none-eabi-6-2017-q2-update/arm-none-eabi/include/c++/6.3.1/iostream ****   extern ostream clog;		/// Linked to standard error (buffered)
  64:/home/zkmike/.local/share/renesas/e2_studio/toolchains/gcc_arm/gcc-arm-none-eabi-6-2017-q2-update/arm-none-eabi/include/c++/6.3.1/iostream **** 
  65:/home/zkmike/.local/share/renesas/e2_studio/toolchains/gcc_arm/gcc-arm-none-eabi-6-2017-q2-update/arm-none-eabi/include/c++/6.3.1/iostream **** #ifdef _GLIBCXX_USE_WCHAR_T
  66:/home/zkmike/.local/share/renesas/e2_studio/toolchains/gcc_arm/gcc-arm-none-eabi-6-2017-q2-update/arm-none-eabi/include/c++/6.3.1/iostream ****   extern wistream wcin;		/// Linked to standard input
  67:/home/zkmike/.local/share/renesas/e2_studio/toolchains/gcc_arm/gcc-arm-none-eabi-6-2017-q2-update/arm-none-eabi/include/c++/6.3.1/iostream ****   extern wostream wcout;	/// Linked to standard output
  68:/home/zkmike/.local/share/renesas/e2_studio/toolchains/gcc_arm/gcc-arm-none-eabi-6-2017-q2-update/arm-none-eabi/include/c++/6.3.1/iostream ****   extern wostream wcerr;	/// Linked to standard error (unbuffered)
  69:/home/zkmike/.local/share/renesas/e2_studio/toolchains/gcc_arm/gcc-arm-none-eabi-6-2017-q2-update/arm-none-eabi/include/c++/6.3.1/iostream ****   extern wostream wclog;	/// Linked to standard error (buffered)
  70:/home/zkmike/.local/share/renesas/e2_studio/toolchains/gcc_arm/gcc-arm-none-eabi-6-2017-q2-update/arm-none-eabi/include/c++/6.3.1/iostream **** #endif
  71:/home/zkmike/.local/share/renesas/e2_studio/toolchains/gcc_arm/gcc-arm-none-eabi-6-2017-q2-update/arm-none-eabi/include/c++/6.3.1/iostream ****   //@}
  72:/home/zkmike/.local/share/renesas/e2_studio/toolchains/gcc_arm/gcc-arm-none-eabi-6-2017-q2-update/arm-none-eabi/include/c++/6.3.1/iostream **** 
  73:/home/zkmike/.local/share/renesas/e2_studio/toolchains/gcc_arm/gcc-arm-none-eabi-6-2017-q2-update/arm-none-eabi/include/c++/6.3.1/iostream ****   // For construction of filebuffers for cout, cin, cerr, clog et. al.
  74:/home/zkmike/.local/share/renesas/e2_studio/toolchains/gcc_arm/gcc-arm-none-eabi-6-2017-q2-update/arm-none-eabi/include/c++/6.3.1/iostream ****   static ios_base::Init __ioinit;
 1174              		.loc 5 74 0 is_stmt 1
 1175 001c 004000E3 		movw	r4, #:lower16:.LANCHOR0
 1176 0020 004040E3 		movt	r4, #:upper16:.LANCHOR0
 1177 0024 0400A0E1 		mov	r0, r4
 1178              	.LVL105:
 1179 0028 FEFFFFEB 		bl	_ZNSt8ios_base4InitC1Ev
 1180              	.LVL106:
 1181 002c 005000E3 		movw	r5, #:lower16:__dso_handle
 1182 0030 005040E3 		movt	r5, #:upper16:__dso_handle
 1183 0034 0520A0E1 		mov	r2, r5
 1184 0038 001000E3 		movw	r1, #:lower16:_ZNSt8ios_base4InitD1Ev
 1185 003c 001040E3 		movt	r1, #:upper16:_ZNSt8ios_base4InitD1Ev
 1186 0040 0400A0E1 		mov	r0, r4
 1187 0044 FEFFFFEB 		bl	__aeabi_atexit
 1188              	.LVL107:
  34:../src/zxing_lib/zxing/DecodeHints.cpp ****   UPC_A_HINT |
 1189              		.loc 3 34 0
 1190 0048 004000E3 		movw	r4, #:lower16:.LANCHOR1
 1191 004c 004040E3 		movt	r4, #:upper16:.LANCHOR1
 1192 0050 80110AE3 		movw	r1, #41344
 1193 0054 011040E3 		movt	r1, 1
 1194 0058 0400A0E1 		mov	r0, r4
 1195 005c FEFFFFEB 		bl	_ZN5zxing11DecodeHintsC1Ej
 1196              	.LVL108:
 1197 0060 0520A0E1 		mov	r2, r5
 1198 0064 001000E3 		movw	r1, #:lower16:_ZN5zxing11DecodeHintsD1Ev
 1199 0068 001040E3 		movt	r1, #:upper16:_ZN5zxing11DecodeHintsD1Ev
 1200 006c 0400A0E1 		mov	r0, r4
 1201 0070 FEFFFFEB 		bl	__aeabi_atexit
 1202              	.LVL109:
  42:../src/zxing_lib/zxing/DecodeHints.cpp ****   CODE_39_HINT |
 1203              		.loc 3 42 0
 1204 0074 8F1FA0E3 		mov	r1, #572
 1205 0078 0D00A0E1 		mov	r0, sp
 1206 007c FEFFFFEB 		bl	_ZN5zxing11DecodeHintsC1Ej
 1207              	.LVL110:
 1208 0080 0420A0E1 		mov	r2, r4
 1209 0084 0D10A0E1 		mov	r1, sp
 1210 0088 000000E3 		movw	r0, #:lower16:.LANCHOR2
 1211 008c 000040E3 		movt	r0, #:upper16:.LANCHOR2
 1212 0090 FEFFFFEB 		bl	_ZN5zxingorERKNS_11DecodeHintsES2_
 1213              	.LVL111:
 1214              	.LBB254:
 1215              	.LBB255:
 1216              	.LBB256:
  75:/home/zkmike/workspace/RZA2M/rza2m_2d_barcode_sample_freertos_gcc/src/zxing_lib/zxing/common/Counted.h ****       object_->release();
 1217              		.loc 2 75 0
 1218 0094 04009DE5 		ldr	r0, [sp, #4]
 1219 0098 000050E3 		cmp	r0, #0
 1220 009c 0400000A 		beq	.L91
 1221              	.LVL112:
 1222              	.LBB257:
 1223              	.LBB258:
  40:/home/zkmike/workspace/RZA2M/rza2m_2d_barcode_sample_freertos_gcc/src/zxing_lib/zxing/common/Counted.h ****     if (count_ == 0) {
 1224              		.loc 2 40 0
 1225 00a0 043090E5 		ldr	r3, [r0, #4]
 1226 00a4 013043E2 		sub	r3, r3, #1
 1227 00a8 043080E5 		str	r3, [r0, #4]
  41:/home/zkmike/workspace/RZA2M/rza2m_2d_barcode_sample_freertos_gcc/src/zxing_lib/zxing/common/Counted.h ****       count_ = 0xDEADF001;
 1228              		.loc 2 41 0
 1229 00ac 000053E3 		cmp	r3, #0
 1230 00b0 6500000A 		beq	.L103
 1231              	.LVL113:
 1232              	.L91:
 1233              	.LBE258:
 1234              	.LBE257:
 1235              	.LBE256:
 1236              	.LBE255:
 1237              	.LBE254:
  42:../src/zxing_lib/zxing/DecodeHints.cpp ****   CODE_39_HINT |
 1238              		.loc 3 42 0
 1239 00b4 004000E3 		movw	r4, #:lower16:.LANCHOR2
 1240 00b8 004040E3 		movt	r4, #:upper16:.LANCHOR2
 1241 00bc 002000E3 		movw	r2, #:lower16:__dso_handle
 1242 00c0 002040E3 		movt	r2, #:upper16:__dso_handle
 1243 00c4 001000E3 		movw	r1, #:lower16:_ZN5zxing11DecodeHintsD1Ev
 1244 00c8 001040E3 		movt	r1, #:upper16:_ZN5zxing11DecodeHintsD1Ev
 1245 00cc 0400A0E1 		mov	r0, r4
 1246 00d0 FEFFFFEB 		bl	__aeabi_atexit
 1247              	.LVL114:
  52:../src/zxing_lib/zxing/DecodeHints.cpp ****   QR_CODE_HINT |
 1248              		.loc 3 52 0
 1249 00d4 011AA0E3 		mov	r1, #4096
 1250 00d8 20008DE2 		add	r0, sp, #32
 1251 00dc FEFFFFEB 		bl	_ZN5zxing11DecodeHintsC1Ej
 1252              	.LVL115:
 1253 00e0 20208DE2 		add	r2, sp, #32
 1254 00e4 0410A0E1 		mov	r1, r4
 1255 00e8 18008DE2 		add	r0, sp, #24
 1256 00ec FEFFFFEB 		bl	_ZN5zxingorERKNS_11DecodeHintsES2_
 1257              	.LVL116:
  53:../src/zxing_lib/zxing/DecodeHints.cpp ****   DATA_MATRIX_HINT |
 1258              		.loc 3 53 0
 1259 00f0 4010A0E3 		mov	r1, #64
 1260 00f4 28008DE2 		add	r0, sp, #40
 1261 00f8 FEFFFFEB 		bl	_ZN5zxing11DecodeHintsC1Ej
 1262              	.LVL117:
 1263 00fc 28208DE2 		add	r2, sp, #40
 1264 0100 18108DE2 		add	r1, sp, #24
 1265 0104 10008DE2 		add	r0, sp, #16
 1266 0108 FEFFFFEB 		bl	_ZN5zxingorERKNS_11DecodeHintsES2_
 1267              	.LVL118:
  54:../src/zxing_lib/zxing/DecodeHints.cpp ****   AZTEC_HINT |
 1268              		.loc 3 54 0
 1269 010c 0210A0E3 		mov	r1, #2
 1270 0110 30008DE2 		add	r0, sp, #48
 1271 0114 FEFFFFEB 		bl	_ZN5zxing11DecodeHintsC1Ej
 1272              	.LVL119:
 1273 0118 30208DE2 		add	r2, sp, #48
 1274 011c 10108DE2 		add	r1, sp, #16
 1275 0120 08008DE2 		add	r0, sp, #8
 1276 0124 FEFFFFEB 		bl	_ZN5zxingorERKNS_11DecodeHintsES2_
 1277              	.LVL120:
  51:../src/zxing_lib/zxing/DecodeHints.cpp ****   ONED_HINT |
 1278              		.loc 3 51 0
 1279 0128 021BA0E3 		mov	r1, #2048
 1280 012c 38008DE2 		add	r0, sp, #56
 1281 0130 FEFFFFEB 		bl	_ZN5zxing11DecodeHintsC1Ej
 1282              	.LVL121:
 1283 0134 38208DE2 		add	r2, sp, #56
 1284 0138 08108DE2 		add	r1, sp, #8
 1285 013c 000000E3 		movw	r0, #:lower16:.LANCHOR3
 1286 0140 000040E3 		movt	r0, #:upper16:.LANCHOR3
 1287 0144 FEFFFFEB 		bl	_ZN5zxingorERKNS_11DecodeHintsES2_
 1288              	.LVL122:
 1289              	.LBB263:
 1290              	.LBB264:
 1291              	.LBB265:
  75:/home/zkmike/workspace/RZA2M/rza2m_2d_barcode_sample_freertos_gcc/src/zxing_lib/zxing/common/Counted.h ****       object_->release();
 1292              		.loc 2 75 0
 1293 0148 3C009DE5 		ldr	r0, [sp, #60]
 1294 014c 000050E3 		cmp	r0, #0
 1295 0150 0400000A 		beq	.L92
 1296              	.LVL123:
 1297              	.LBB266:
 1298              	.LBB267:
  40:/home/zkmike/workspace/RZA2M/rza2m_2d_barcode_sample_freertos_gcc/src/zxing_lib/zxing/common/Counted.h ****     if (count_ == 0) {
 1299              		.loc 2 40 0
 1300 0154 043090E5 		ldr	r3, [r0, #4]
 1301 0158 013043E2 		sub	r3, r3, #1
 1302 015c 043080E5 		str	r3, [r0, #4]
  41:/home/zkmike/workspace/RZA2M/rza2m_2d_barcode_sample_freertos_gcc/src/zxing_lib/zxing/common/Counted.h ****       count_ = 0xDEADF001;
 1303              		.loc 2 41 0
 1304 0160 000053E3 		cmp	r3, #0
 1305 0164 3F00000A 		beq	.L104
 1306              	.LVL124:
 1307              	.L92:
 1308              	.LBE267:
 1309              	.LBE266:
 1310              	.LBE265:
 1311              	.LBE264:
 1312              	.LBE263:
 1313              	.LBB272:
 1314              	.LBB273:
 1315              	.LBB274:
  75:/home/zkmike/workspace/RZA2M/rza2m_2d_barcode_sample_freertos_gcc/src/zxing_lib/zxing/common/Counted.h ****       object_->release();
 1316              		.loc 2 75 0
 1317 0168 0C009DE5 		ldr	r0, [sp, #12]
 1318 016c 000050E3 		cmp	r0, #0
 1319 0170 0400000A 		beq	.L93
 1320              	.LVL125:
 1321              	.LBB275:
 1322              	.LBB276:
  40:/home/zkmike/workspace/RZA2M/rza2m_2d_barcode_sample_freertos_gcc/src/zxing_lib/zxing/common/Counted.h ****     if (count_ == 0) {
 1323              		.loc 2 40 0
 1324 0174 043090E5 		ldr	r3, [r0, #4]
 1325 0178 013043E2 		sub	r3, r3, #1
 1326 017c 043080E5 		str	r3, [r0, #4]
  41:/home/zkmike/workspace/RZA2M/rza2m_2d_barcode_sample_freertos_gcc/src/zxing_lib/zxing/common/Counted.h ****       count_ = 0xDEADF001;
 1327              		.loc 2 41 0
 1328 0180 000053E3 		cmp	r3, #0
 1329 0184 3E00000A 		beq	.L105
 1330              	.LVL126:
 1331              	.L93:
 1332              	.LBE276:
 1333              	.LBE275:
 1334              	.LBE274:
 1335              	.LBE273:
 1336              	.LBE272:
 1337              	.LBB281:
 1338              	.LBB282:
 1339              	.LBB283:
  75:/home/zkmike/workspace/RZA2M/rza2m_2d_barcode_sample_freertos_gcc/src/zxing_lib/zxing/common/Counted.h ****       object_->release();
 1340              		.loc 2 75 0
 1341 0188 34009DE5 		ldr	r0, [sp, #52]
 1342 018c 000050E3 		cmp	r0, #0
 1343 0190 0400000A 		beq	.L94
 1344              	.LVL127:
 1345              	.LBB284:
 1346              	.LBB285:
  40:/home/zkmike/workspace/RZA2M/rza2m_2d_barcode_sample_freertos_gcc/src/zxing_lib/zxing/common/Counted.h ****     if (count_ == 0) {
 1347              		.loc 2 40 0
 1348 0194 043090E5 		ldr	r3, [r0, #4]
 1349 0198 013043E2 		sub	r3, r3, #1
 1350 019c 043080E5 		str	r3, [r0, #4]
  41:/home/zkmike/workspace/RZA2M/rza2m_2d_barcode_sample_freertos_gcc/src/zxing_lib/zxing/common/Counted.h ****       count_ = 0xDEADF001;
 1351              		.loc 2 41 0
 1352 01a0 000053E3 		cmp	r3, #0
 1353 01a4 3D00000A 		beq	.L106
 1354              	.LVL128:
 1355              	.L94:
 1356              	.LBE285:
 1357              	.LBE284:
 1358              	.LBE283:
 1359              	.LBE282:
 1360              	.LBE281:
 1361              	.LBB290:
 1362              	.LBB291:
 1363              	.LBB292:
  75:/home/zkmike/workspace/RZA2M/rza2m_2d_barcode_sample_freertos_gcc/src/zxing_lib/zxing/common/Counted.h ****       object_->release();
 1364              		.loc 2 75 0
 1365 01a8 14009DE5 		ldr	r0, [sp, #20]
 1366 01ac 000050E3 		cmp	r0, #0
 1367 01b0 0400000A 		beq	.L95
 1368              	.LVL129:
 1369              	.LBB293:
 1370              	.LBB294:
  40:/home/zkmike/workspace/RZA2M/rza2m_2d_barcode_sample_freertos_gcc/src/zxing_lib/zxing/common/Counted.h ****     if (count_ == 0) {
 1371              		.loc 2 40 0
 1372 01b4 043090E5 		ldr	r3, [r0, #4]
 1373 01b8 013043E2 		sub	r3, r3, #1
 1374 01bc 043080E5 		str	r3, [r0, #4]
  41:/home/zkmike/workspace/RZA2M/rza2m_2d_barcode_sample_freertos_gcc/src/zxing_lib/zxing/common/Counted.h ****       count_ = 0xDEADF001;
 1375              		.loc 2 41 0
 1376 01c0 000053E3 		cmp	r3, #0
 1377 01c4 3C00000A 		beq	.L107
 1378              	.LVL130:
 1379              	.L95:
 1380              	.LBE294:
 1381              	.LBE293:
 1382              	.LBE292:
 1383              	.LBE291:
 1384              	.LBE290:
 1385              	.LBB299:
 1386              	.LBB300:
 1387              	.LBB301:
  75:/home/zkmike/workspace/RZA2M/rza2m_2d_barcode_sample_freertos_gcc/src/zxing_lib/zxing/common/Counted.h ****       object_->release();
 1388              		.loc 2 75 0
 1389 01c8 2C009DE5 		ldr	r0, [sp, #44]
 1390 01cc 000050E3 		cmp	r0, #0
 1391 01d0 0400000A 		beq	.L96
 1392              	.LVL131:
 1393              	.LBB302:
 1394              	.LBB303:
  40:/home/zkmike/workspace/RZA2M/rza2m_2d_barcode_sample_freertos_gcc/src/zxing_lib/zxing/common/Counted.h ****     if (count_ == 0) {
 1395              		.loc 2 40 0
 1396 01d4 043090E5 		ldr	r3, [r0, #4]
 1397 01d8 013043E2 		sub	r3, r3, #1
 1398 01dc 043080E5 		str	r3, [r0, #4]
  41:/home/zkmike/workspace/RZA2M/rza2m_2d_barcode_sample_freertos_gcc/src/zxing_lib/zxing/common/Counted.h ****       count_ = 0xDEADF001;
 1399              		.loc 2 41 0
 1400 01e0 000053E3 		cmp	r3, #0
 1401 01e4 3B00000A 		beq	.L108
 1402              	.LVL132:
 1403              	.L96:
 1404              	.LBE303:
 1405              	.LBE302:
 1406              	.LBE301:
 1407              	.LBE300:
 1408              	.LBE299:
 1409              	.LBB308:
 1410              	.LBB309:
 1411              	.LBB310:
  75:/home/zkmike/workspace/RZA2M/rza2m_2d_barcode_sample_freertos_gcc/src/zxing_lib/zxing/common/Counted.h ****       object_->release();
 1412              		.loc 2 75 0
 1413 01e8 1C009DE5 		ldr	r0, [sp, #28]
 1414 01ec 000050E3 		cmp	r0, #0
 1415 01f0 0400000A 		beq	.L97
 1416              	.LVL133:
 1417              	.LBB311:
 1418              	.LBB312:
  40:/home/zkmike/workspace/RZA2M/rza2m_2d_barcode_sample_freertos_gcc/src/zxing_lib/zxing/common/Counted.h ****     if (count_ == 0) {
 1419              		.loc 2 40 0
 1420 01f4 043090E5 		ldr	r3, [r0, #4]
 1421 01f8 013043E2 		sub	r3, r3, #1
 1422 01fc 043080E5 		str	r3, [r0, #4]
  41:/home/zkmike/workspace/RZA2M/rza2m_2d_barcode_sample_freertos_gcc/src/zxing_lib/zxing/common/Counted.h ****       count_ = 0xDEADF001;
 1423              		.loc 2 41 0
 1424 0200 000053E3 		cmp	r3, #0
 1425 0204 3A00000A 		beq	.L109
 1426              	.LVL134:
 1427              	.L97:
 1428              	.LBE312:
 1429              	.LBE311:
 1430              	.LBE310:
 1431              	.LBE309:
 1432              	.LBE308:
 1433              	.LBB317:
 1434              	.LBB318:
 1435              	.LBB319:
  75:/home/zkmike/workspace/RZA2M/rza2m_2d_barcode_sample_freertos_gcc/src/zxing_lib/zxing/common/Counted.h ****       object_->release();
 1436              		.loc 2 75 0
 1437 0208 24009DE5 		ldr	r0, [sp, #36]
 1438 020c 000050E3 		cmp	r0, #0
 1439 0210 0400000A 		beq	.L98
 1440              	.LVL135:
 1441              	.LBB320:
 1442              	.LBB321:
  40:/home/zkmike/workspace/RZA2M/rza2m_2d_barcode_sample_freertos_gcc/src/zxing_lib/zxing/common/Counted.h ****     if (count_ == 0) {
 1443              		.loc 2 40 0
 1444 0214 043090E5 		ldr	r3, [r0, #4]
 1445 0218 013043E2 		sub	r3, r3, #1
 1446 021c 043080E5 		str	r3, [r0, #4]
  41:/home/zkmike/workspace/RZA2M/rza2m_2d_barcode_sample_freertos_gcc/src/zxing_lib/zxing/common/Counted.h ****       count_ = 0xDEADF001;
 1447              		.loc 2 41 0
 1448 0220 000053E3 		cmp	r3, #0
 1449 0224 3900000A 		beq	.L110
 1450              	.LVL136:
 1451              	.L98:
 1452              	.LBE321:
 1453              	.LBE320:
 1454              	.LBE319:
 1455              	.LBE318:
 1456              	.LBE317:
  51:../src/zxing_lib/zxing/DecodeHints.cpp ****   ONED_HINT |
 1457              		.loc 3 51 0
 1458 0228 002000E3 		movw	r2, #:lower16:__dso_handle
 1459 022c 002040E3 		movt	r2, #:upper16:__dso_handle
 1460 0230 001000E3 		movw	r1, #:lower16:_ZN5zxing11DecodeHintsD1Ev
 1461 0234 001040E3 		movt	r1, #:upper16:_ZN5zxing11DecodeHintsD1Ev
 1462 0238 000000E3 		movw	r0, #:lower16:.LANCHOR3
 1463 023c 000040E3 		movt	r0, #:upper16:.LANCHOR3
 1464 0240 FEFFFFEB 		bl	__aeabi_atexit
 1465              	.LVL137:
 1466              		.loc 3 142 0
 1467 0244 44D08DE2 		add	sp, sp, #68
 1468              		.cfi_remember_state
 1469              		.cfi_def_cfa_offset 12
 1470              		@ sp needed
 1471 0248 3080BDE8 		pop	{r4, r5, pc}
 1472              	.LVL138:
 1473              	.L103:
 1474              		.cfi_restore_state
 1475              	.LBB326:
 1476              	.LBB262:
 1477              	.LBB261:
 1478              	.LBB260:
 1479              	.LBB259:
  42:/home/zkmike/workspace/RZA2M/rza2m_2d_barcode_sample_freertos_gcc/src/zxing_lib/zxing/common/Counted.h ****       delete this;
 1480              		.loc 2 42 0
 1481 024c 01300FE3 		movw	r3, #61441
 1482 0250 AD3E4DE3 		movt	r3, 57005
 1483 0254 043080E5 		str	r3, [r0, #4]
  43:/home/zkmike/workspace/RZA2M/rza2m_2d_barcode_sample_freertos_gcc/src/zxing_lib/zxing/common/Counted.h ****     }
 1484              		.loc 2 43 0
 1485 0258 003090E5 		ldr	r3, [r0]
 1486 025c 043093E5 		ldr	r3, [r3, #4]
 1487 0260 33FF2FE1 		blx	r3
 1488              	.LVL139:
 1489 0264 92FFFFEA 		b	.L91
 1490              	.LVL140:
 1491              	.L104:
 1492              	.LBE259:
 1493              	.LBE260:
 1494              	.LBE261:
 1495              	.LBE262:
 1496              	.LBE326:
 1497              	.LBB327:
 1498              	.LBB271:
 1499              	.LBB270:
 1500              	.LBB269:
 1501              	.LBB268:
  42:/home/zkmike/workspace/RZA2M/rza2m_2d_barcode_sample_freertos_gcc/src/zxing_lib/zxing/common/Counted.h ****       delete this;
 1502              		.loc 2 42 0
 1503 0268 01300FE3 		movw	r3, #61441
 1504 026c AD3E4DE3 		movt	r3, 57005
 1505 0270 043080E5 		str	r3, [r0, #4]
  43:/home/zkmike/workspace/RZA2M/rza2m_2d_barcode_sample_freertos_gcc/src/zxing_lib/zxing/common/Counted.h ****     }
 1506              		.loc 2 43 0
 1507 0274 003090E5 		ldr	r3, [r0]
 1508 0278 043093E5 		ldr	r3, [r3, #4]
 1509 027c 33FF2FE1 		blx	r3
 1510              	.LVL141:
 1511 0280 B8FFFFEA 		b	.L92
 1512              	.LVL142:
 1513              	.L105:
 1514              	.LBE268:
 1515              	.LBE269:
 1516              	.LBE270:
 1517              	.LBE271:
 1518              	.LBE327:
 1519              	.LBB328:
 1520              	.LBB280:
 1521              	.LBB279:
 1522              	.LBB278:
 1523              	.LBB277:
  42:/home/zkmike/workspace/RZA2M/rza2m_2d_barcode_sample_freertos_gcc/src/zxing_lib/zxing/common/Counted.h ****       delete this;
 1524              		.loc 2 42 0
 1525 0284 01300FE3 		movw	r3, #61441
 1526 0288 AD3E4DE3 		movt	r3, 57005
 1527 028c 043080E5 		str	r3, [r0, #4]
  43:/home/zkmike/workspace/RZA2M/rza2m_2d_barcode_sample_freertos_gcc/src/zxing_lib/zxing/common/Counted.h ****     }
 1528              		.loc 2 43 0
 1529 0290 003090E5 		ldr	r3, [r0]
 1530 0294 043093E5 		ldr	r3, [r3, #4]
 1531 0298 33FF2FE1 		blx	r3
 1532              	.LVL143:
 1533 029c B9FFFFEA 		b	.L93
 1534              	.LVL144:
 1535              	.L106:
 1536              	.LBE277:
 1537              	.LBE278:
 1538              	.LBE279:
 1539              	.LBE280:
 1540              	.LBE328:
 1541              	.LBB329:
 1542              	.LBB289:
 1543              	.LBB288:
 1544              	.LBB287:
 1545              	.LBB286:
  42:/home/zkmike/workspace/RZA2M/rza2m_2d_barcode_sample_freertos_gcc/src/zxing_lib/zxing/common/Counted.h ****       delete this;
 1546              		.loc 2 42 0
 1547 02a0 01300FE3 		movw	r3, #61441
 1548 02a4 AD3E4DE3 		movt	r3, 57005
 1549 02a8 043080E5 		str	r3, [r0, #4]
  43:/home/zkmike/workspace/RZA2M/rza2m_2d_barcode_sample_freertos_gcc/src/zxing_lib/zxing/common/Counted.h ****     }
 1550              		.loc 2 43 0
 1551 02ac 003090E5 		ldr	r3, [r0]
 1552 02b0 043093E5 		ldr	r3, [r3, #4]
 1553 02b4 33FF2FE1 		blx	r3
 1554              	.LVL145:
 1555 02b8 BAFFFFEA 		b	.L94
 1556              	.LVL146:
 1557              	.L107:
 1558              	.LBE286:
 1559              	.LBE287:
 1560              	.LBE288:
 1561              	.LBE289:
 1562              	.LBE329:
 1563              	.LBB330:
 1564              	.LBB298:
 1565              	.LBB297:
 1566              	.LBB296:
 1567              	.LBB295:
  42:/home/zkmike/workspace/RZA2M/rza2m_2d_barcode_sample_freertos_gcc/src/zxing_lib/zxing/common/Counted.h ****       delete this;
 1568              		.loc 2 42 0
 1569 02bc 01300FE3 		movw	r3, #61441
 1570 02c0 AD3E4DE3 		movt	r3, 57005
 1571 02c4 043080E5 		str	r3, [r0, #4]
  43:/home/zkmike/workspace/RZA2M/rza2m_2d_barcode_sample_freertos_gcc/src/zxing_lib/zxing/common/Counted.h ****     }
 1572              		.loc 2 43 0
 1573 02c8 003090E5 		ldr	r3, [r0]
 1574 02cc 043093E5 		ldr	r3, [r3, #4]
 1575 02d0 33FF2FE1 		blx	r3
 1576              	.LVL147:
 1577 02d4 BBFFFFEA 		b	.L95
 1578              	.LVL148:
 1579              	.L108:
 1580              	.LBE295:
 1581              	.LBE296:
 1582              	.LBE297:
 1583              	.LBE298:
 1584              	.LBE330:
 1585              	.LBB331:
 1586              	.LBB307:
 1587              	.LBB306:
 1588              	.LBB305:
 1589              	.LBB304:
  42:/home/zkmike/workspace/RZA2M/rza2m_2d_barcode_sample_freertos_gcc/src/zxing_lib/zxing/common/Counted.h ****       delete this;
 1590              		.loc 2 42 0
 1591 02d8 01300FE3 		movw	r3, #61441
 1592 02dc AD3E4DE3 		movt	r3, 57005
 1593 02e0 043080E5 		str	r3, [r0, #4]
  43:/home/zkmike/workspace/RZA2M/rza2m_2d_barcode_sample_freertos_gcc/src/zxing_lib/zxing/common/Counted.h ****     }
 1594              		.loc 2 43 0
 1595 02e4 003090E5 		ldr	r3, [r0]
 1596 02e8 043093E5 		ldr	r3, [r3, #4]
 1597 02ec 33FF2FE1 		blx	r3
 1598              	.LVL149:
 1599 02f0 BCFFFFEA 		b	.L96
 1600              	.LVL150:
 1601              	.L109:
 1602              	.LBE304:
 1603              	.LBE305:
 1604              	.LBE306:
 1605              	.LBE307:
 1606              	.LBE331:
 1607              	.LBB332:
 1608              	.LBB316:
 1609              	.LBB315:
 1610              	.LBB314:
 1611              	.LBB313:
  42:/home/zkmike/workspace/RZA2M/rza2m_2d_barcode_sample_freertos_gcc/src/zxing_lib/zxing/common/Counted.h ****       delete this;
 1612              		.loc 2 42 0
 1613 02f4 01300FE3 		movw	r3, #61441
 1614 02f8 AD3E4DE3 		movt	r3, 57005
 1615 02fc 043080E5 		str	r3, [r0, #4]
  43:/home/zkmike/workspace/RZA2M/rza2m_2d_barcode_sample_freertos_gcc/src/zxing_lib/zxing/common/Counted.h ****     }
 1616              		.loc 2 43 0
 1617 0300 003090E5 		ldr	r3, [r0]
 1618 0304 043093E5 		ldr	r3, [r3, #4]
 1619 0308 33FF2FE1 		blx	r3
 1620              	.LVL151:
 1621 030c BDFFFFEA 		b	.L97
 1622              	.LVL152:
 1623              	.L110:
 1624              	.LBE313:
 1625              	.LBE314:
 1626              	.LBE315:
 1627              	.LBE316:
 1628              	.LBE332:
 1629              	.LBB333:
 1630              	.LBB325:
 1631              	.LBB324:
 1632              	.LBB323:
 1633              	.LBB322:
  42:/home/zkmike/workspace/RZA2M/rza2m_2d_barcode_sample_freertos_gcc/src/zxing_lib/zxing/common/Counted.h ****       delete this;
 1634              		.loc 2 42 0
 1635 0310 01300FE3 		movw	r3, #61441
 1636 0314 AD3E4DE3 		movt	r3, 57005
 1637 0318 043080E5 		str	r3, [r0, #4]
  43:/home/zkmike/workspace/RZA2M/rza2m_2d_barcode_sample_freertos_gcc/src/zxing_lib/zxing/common/Counted.h ****     }
 1638              		.loc 2 43 0
 1639 031c 003090E5 		ldr	r3, [r0]
 1640 0320 043093E5 		ldr	r3, [r3, #4]
 1641 0324 33FF2FE1 		blx	r3
 1642              	.LVL153:
 1643 0328 BEFFFFEA 		b	.L98
 1644              	.LBE322:
 1645              	.LBE323:
 1646              	.LBE324:
 1647              	.LBE325:
 1648              	.LBE333:
 1649              		.cfi_endproc
 1650              	.LFE1960:
 1651              		.cantunwind
 1652              		.fnend
 1654              		.section	.text._GLOBAL__sub_I__ZN5zxing11DecodeHints13CHARACTER_SETE,"ax",%progbits
 1655              		.align	2
 1656              		.syntax unified
 1657              		.arm
 1658              		.fpu neon
 1660              	_GLOBAL__sub_I__ZN5zxing11DecodeHints13CHARACTER_SETE:
 1661              		.fnstart
 1662              	.LFB1961:
 1663              		.loc 3 142 0
 1664              		.cfi_startproc
 1665              		@ args = 0, pretend = 0, frame = 0
 1666              		@ frame_needed = 0, uses_anonymous_args = 0
 1667 0000 10402DE9 		push	{r4, lr}
 1668              		.cfi_def_cfa_offset 8
 1669              		.cfi_offset 4, -8
 1670              		.cfi_offset 14, -4
 1671              		.loc 3 142 0
 1672 0004 FF1F0FE3 		movw	r1, #65535
 1673 0008 0100A0E3 		mov	r0, #1
 1674 000c FEFFFFEB 		bl	_Z41__static_initialization_and_destruction_0ii
 1675              	.LVL154:
 1676 0010 1080BDE8 		pop	{r4, pc}
 1677              		.cfi_endproc
 1678              	.LFE1961:
 1679              		.cantunwind
 1680              		.fnend
 1682              		.section	.init_array,"aw",%init_array
 1683              		.align	2
 1684 0000 00000000 		.word	_GLOBAL__sub_I__ZN5zxing11DecodeHints13CHARACTER_SETE(target1)
 1685              		.global	_ZN5zxing11DecodeHints12DEFAULT_HINTE
 1686              		.global	_ZN5zxing11DecodeHints9ONED_HINTE
 1687              		.global	_ZN5zxing11DecodeHints12PRODUCT_HINTE
 1688              		.global	_ZN5zxing11DecodeHints13CHARACTER_SETE
 1689              		.section	.bss._ZN5zxing11DecodeHints12DEFAULT_HINTE,"aw",%nobits
 1690              		.align	2
 1691              		.set	.LANCHOR3,. + 0
 1694              	_ZN5zxing11DecodeHints12DEFAULT_HINTE:
 1695 0000 00000000 		.space	8
 1695      00000000 
 1696              		.section	.bss._ZN5zxing11DecodeHints12PRODUCT_HINTE,"aw",%nobits
 1697              		.align	2
 1698              		.set	.LANCHOR1,. + 0
 1701              	_ZN5zxing11DecodeHints12PRODUCT_HINTE:
 1702 0000 00000000 		.space	8
 1702      00000000 
 1703              		.section	.bss._ZN5zxing11DecodeHints9ONED_HINTE,"aw",%nobits
 1704              		.align	2
 1705              		.set	.LANCHOR2,. + 0
 1708              	_ZN5zxing11DecodeHints9ONED_HINTE:
 1709 0000 00000000 		.space	8
 1709      00000000 
 1710              		.section	.bss._ZStL8__ioinit,"aw",%nobits
 1711              		.align	2
 1712              		.set	.LANCHOR0,. + 0
 1715              	_ZStL8__ioinit:
 1716 0000 00       		.space	1
 1717              		.section	.rodata._ZN5zxing11DecodeHints13CHARACTER_SETE,"a",%progbits
 1718              		.align	2
 1721              	_ZN5zxing11DecodeHints13CHARACTER_SETE:
 1722 0000 00000040 		.word	1073741824
 1723              		.section	.rodata._ZN5zxing11DecodeHints9addFormatENS_13BarcodeFormatE.str1.4,"aMS",%progbits,1
 1724              		.align	2
 1725              	.LC0:
 1726 0000 556E7265 		.ascii	"Unrecognizd barcode format\000"
 1726      636F676E 
 1726      697A6420 
 1726      62617263 
 1726      6F646520 
 1727              		.text
 1728              	.Letext0:
 1729              		.file 6 "/home/zkmike/.local/share/renesas/e2_studio/toolchains/gcc_arm/gcc-arm-none-eabi-6-2017-q
 1730              		.file 7 "/home/zkmike/.local/share/renesas/e2_studio/toolchains/gcc_arm/gcc-arm-none-eabi-6-2017-q
 1731              		.file 8 "/home/zkmike/.local/share/renesas/e2_studio/toolchains/gcc_arm/gcc-arm-none-eabi-6-2017-q
 1732              		.file 9 "/home/zkmike/.local/share/renesas/e2_studio/toolchains/gcc_arm/gcc-arm-none-eabi-6-2017-q
 1733              		.file 10 "/home/zkmike/.local/share/renesas/e2_studio/toolchains/gcc_arm/gcc-arm-none-eabi-6-2017-
 1734              		.file 11 "/home/zkmike/.local/share/renesas/e2_studio/toolchains/gcc_arm/gcc-arm-none-eabi-6-2017-
 1735              		.file 12 "/home/zkmike/.local/share/renesas/e2_studio/toolchains/gcc_arm/gcc-arm-none-eabi-6-2017-
 1736              		.file 13 "/home/zkmike/.local/share/renesas/e2_studio/toolchains/gcc_arm/gcc-arm-none-eabi-6-2017-
 1737              		.file 14 "/home/zkmike/.local/share/renesas/e2_studio/toolchains/gcc_arm/gcc-arm-none-eabi-6-2017-
 1738              		.file 15 "/home/zkmike/.local/share/renesas/e2_studio/toolchains/gcc_arm/gcc-arm-none-eabi-6-2017-
 1739              		.file 16 "/home/zkmike/.local/share/renesas/e2_studio/toolchains/gcc_arm/gcc-arm-none-eabi-6-2017-
 1740              		.file 17 "/home/zkmike/.local/share/renesas/e2_studio/toolchains/gcc_arm/gcc-arm-none-eabi-6-2017-
 1741              		.file 18 "/home/zkmike/.local/share/renesas/e2_studio/toolchains/gcc_arm/gcc-arm-none-eabi-6-2017-
 1742              		.file 19 "/home/zkmike/.local/share/renesas/e2_studio/toolchains/gcc_arm/gcc-arm-none-eabi-6-2017-
 1743              		.file 20 "/home/zkmike/.local/share/renesas/e2_studio/toolchains/gcc_arm/gcc-arm-none-eabi-6-2017-
 1744              		.file 21 "/home/zkmike/.local/share/renesas/e2_studio/toolchains/gcc_arm/gcc-arm-none-eabi-6-2017-
 1745              		.file 22 "/home/zkmike/.local/share/renesas/e2_studio/toolchains/gcc_arm/gcc-arm-none-eabi-6-2017-
 1746              		.file 23 "/home/zkmike/.local/share/renesas/e2_studio/toolchains/gcc_arm/gcc-arm-none-eabi-6-2017-
 1747              		.file 24 "/home/zkmike/.local/share/renesas/e2_studio/toolchains/gcc_arm/gcc-arm-none-eabi-6-2017-
 1748              		.file 25 "/home/zkmike/.local/share/renesas/e2_studio/toolchains/gcc_arm/gcc-arm-none-eabi-6-2017-
 1749              		.file 26 "/home/zkmike/.local/share/renesas/e2_studio/toolchains/gcc_arm/gcc-arm-none-eabi-6-2017-
 1750              		.file 27 "/home/zkmike/.local/share/renesas/e2_studio/toolchains/gcc_arm/gcc-arm-none-eabi-6-2017-
 1751              		.file 28 "/home/zkmike/.local/share/renesas/e2_studio/toolchains/gcc_arm/gcc-arm-none-eabi-6-2017-
 1752              		.file 29 "/home/zkmike/.local/share/renesas/e2_studio/toolchains/gcc_arm/gcc-arm-none-eabi-6-2017-
 1753              		.file 30 "/home/zkmike/.local/share/renesas/e2_studio/toolchains/gcc_arm/gcc-arm-none-eabi-6-2017-
 1754              		.file 31 "/home/zkmike/.local/share/renesas/e2_studio/toolchains/gcc_arm/gcc-arm-none-eabi-6-2017-
 1755              		.file 32 "<built-in>"
 1756              		.file 33 "/home/zkmike/.local/share/renesas/e2_studio/toolchains/gcc_arm/gcc-arm-none-eabi-6-2017-
 1757              		.file 34 "/home/zkmike/.local/share/renesas/e2_studio/toolchains/gcc_arm/gcc-arm-none-eabi-6-2017-
 1758              		.file 35 "/home/zkmike/.local/share/renesas/e2_studio/toolchains/gcc_arm/gcc-arm-none-eabi-6-2017-
 1759              		.file 36 "/home/zkmike/.local/share/renesas/e2_studio/toolchains/gcc_arm/gcc-arm-none-eabi-6-2017-
 1760              		.file 37 "/home/zkmike/.local/share/renesas/e2_studio/toolchains/gcc_arm/gcc-arm-none-eabi-6-2017-
 1761              		.file 38 "/home/zkmike/.local/share/renesas/e2_studio/toolchains/gcc_arm/gcc-arm-none-eabi-6-2017-
 1762              		.file 39 "/home/zkmike/.local/share/renesas/e2_studio/toolchains/gcc_arm/gcc-arm-none-eabi-6-2017-
 1763              		.file 40 "/home/zkmike/.local/share/renesas/e2_studio/toolchains/gcc_arm/gcc-arm-none-eabi-6-2017-
 1764              		.file 41 "/home/zkmike/.local/share/renesas/e2_studio/toolchains/gcc_arm/gcc-arm-none-eabi-6-2017-
 1765              		.file 42 "/home/zkmike/.local/share/renesas/e2_studio/toolchains/gcc_arm/gcc-arm-none-eabi-6-2017-