   1              		.cpu cortex-a9
   2              		.eabi_attribute 28, 1
   3              		.eabi_attribute 20, 1
   4              		.eabi_attribute 21, 1
   5              		.eabi_attribute 23, 3
   6              		.eabi_attribute 24, 1
   7              		.eabi_attribute 25, 1
   8              		.eabi_attribute 26, 1
   9              		.eabi_attribute 30, 1
  10              		.eabi_attribute 34, 0
  11              		.eabi_attribute 18, 4
  12              		.file	"Exception.cpp"
  13              		.text
  14              	.Ltext0:
  15              		.cfi_sections	.debug_frame
  16              		.section	.text._ZN5zxing9Exception13deleteMessageEv,"ax",%progbits
  17              		.align	2
  18              		.global	_ZN5zxing9Exception13deleteMessageEv
  19              		.syntax unified
  20              		.arm
  21              		.fpu neon
  23              	_ZN5zxing9Exception13deleteMessageEv:
  24              		.fnstart
  25              	.LFB1335:
  26              		.file 1 "../src/zxing_lib/zxing/Exception.cpp"
   1:../src/zxing_lib/zxing/Exception.cpp **** // -*- mode:c++; tab-width:2; indent-tabs-mode:nil; c-basic-offset:2 -*-
   2:../src/zxing_lib/zxing/Exception.cpp **** /*
   3:../src/zxing_lib/zxing/Exception.cpp ****  *  Exception.cpp
   4:../src/zxing_lib/zxing/Exception.cpp ****  *  ZXing
   5:../src/zxing_lib/zxing/Exception.cpp ****  *
   6:../src/zxing_lib/zxing/Exception.cpp ****  *  Created by Christian Brunschen on 03/06/2008.
   7:../src/zxing_lib/zxing/Exception.cpp ****  *  Copyright 2008-2011 ZXing authors All rights reserved.
   8:../src/zxing_lib/zxing/Exception.cpp ****  *
   9:../src/zxing_lib/zxing/Exception.cpp ****  * Licensed under the Apache License, Version 2.0 (the "License");
  10:../src/zxing_lib/zxing/Exception.cpp ****  * you may not use this file except in compliance with the License.
  11:../src/zxing_lib/zxing/Exception.cpp ****  * You may obtain a copy of the License at
  12:../src/zxing_lib/zxing/Exception.cpp ****  *
  13:../src/zxing_lib/zxing/Exception.cpp ****  *      http://www.apache.org/licenses/LICENSE-2.0
  14:../src/zxing_lib/zxing/Exception.cpp ****  *
  15:../src/zxing_lib/zxing/Exception.cpp ****  * Unless required by applicable law or agreed to in writing, software
  16:../src/zxing_lib/zxing/Exception.cpp ****  * distributed under the License is distributed on an "AS IS" BASIS,
  17:../src/zxing_lib/zxing/Exception.cpp ****  * WITHOUT WARRANTIES OR CONDITIONS OF ANY KIND, either express or implied.
  18:../src/zxing_lib/zxing/Exception.cpp ****  * See the License for the specific language governing permissions and
  19:../src/zxing_lib/zxing/Exception.cpp ****  * limitations under the License.
  20:../src/zxing_lib/zxing/Exception.cpp **** 
  21:../src/zxing_lib/zxing/Exception.cpp ****  */
  22:../src/zxing_lib/zxing/Exception.cpp **** 
  23:../src/zxing_lib/zxing/Exception.cpp **** #include <zxing/ZXing.h>
  24:../src/zxing_lib/zxing/Exception.cpp **** #include <zxing/Exception.h>
  25:../src/zxing_lib/zxing/Exception.cpp **** #include <string.h>
  26:../src/zxing_lib/zxing/Exception.cpp **** 
  27:../src/zxing_lib/zxing/Exception.cpp **** using zxing::Exception;
  28:../src/zxing_lib/zxing/Exception.cpp **** 
  29:../src/zxing_lib/zxing/Exception.cpp **** void Exception::deleteMessage() {
  27              		.loc 1 29 0
  28              		.cfi_startproc
  29              		@ args = 0, pretend = 0, frame = 0
  30              		@ frame_needed = 0, uses_anonymous_args = 0
  31              	.LVL0:
  30:../src/zxing_lib/zxing/Exception.cpp ****   delete [] message;
  32              		.loc 1 30 0
  33 0000 040090E5 		ldr	r0, [r0, #4]
  34              	.LVL1:
  35 0004 000050E3 		cmp	r0, #0
  36 0008 1EFF2F01 		bxeq	lr
  29:../src/zxing_lib/zxing/Exception.cpp ****   delete [] message;
  37              		.loc 1 29 0 discriminator 1
  38 000c 10402DE9 		push	{r4, lr}
  39              		.cfi_def_cfa_offset 8
  40              		.cfi_offset 4, -8
  41              		.cfi_offset 14, -4
  42              		.loc 1 30 0 discriminator 1
  43 0010 FEFFFFEB 		bl	_ZdaPv
  44              	.LVL2:
  45 0014 1080BDE8 		pop	{r4, pc}
  46              		.cfi_endproc
  47              	.LFE1335:
  48              		.cantunwind
  49              		.fnend
  51              		.section	.text._ZN5zxing9Exception4copyEPKc,"ax",%progbits
  52              		.align	2
  53              		.global	_ZN5zxing9Exception4copyEPKc
  54              		.syntax unified
  55              		.arm
  56              		.fpu neon
  58              	_ZN5zxing9Exception4copyEPKc:
  59              		.fnstart
  60              	.LFB1336:
  31:../src/zxing_lib/zxing/Exception.cpp **** }
  32:../src/zxing_lib/zxing/Exception.cpp **** 
  33:../src/zxing_lib/zxing/Exception.cpp **** char const* Exception::copy(char const* msg) {
  61              		.loc 1 33 0
  62              		.cfi_startproc
  63              		@ args = 0, pretend = 0, frame = 0
  64              		@ frame_needed = 0, uses_anonymous_args = 0
  65              	.LVL3:
  66 0000 70402DE9 		push	{r4, r5, r6, lr}
  67              		.save {r4, r5, r6, lr}
  68              		.cfi_def_cfa_offset 16
  69              		.cfi_offset 4, -16
  70              		.cfi_offset 5, -12
  71              		.cfi_offset 6, -8
  72              		.cfi_offset 14, -4
  73              	.LVL4:
  74              	.LBB2:
  34:../src/zxing_lib/zxing/Exception.cpp ****   char* message = 0;
  35:../src/zxing_lib/zxing/Exception.cpp ****   if (msg) {
  75              		.loc 1 35 0
  76 0004 004050E2 		subs	r4, r0, #0
  77 0008 0900000A 		beq	.L9
  78              	.LBB3:
  36:../src/zxing_lib/zxing/Exception.cpp ****     int l = strlen(msg)+1;
  79              		.loc 1 36 0
  80 000c 0400A0E1 		mov	r0, r4
  81 0010 FEFFFFEB 		bl	strlen
  82              	.LVL5:
  37:../src/zxing_lib/zxing/Exception.cpp ****     if (l) {
  83              		.loc 1 37 0
  84 0014 010090E2 		adds	r0, r0, #1
  85              	.LVL6:
  86 0018 0700000A 		beq	.L10
  38:../src/zxing_lib/zxing/Exception.cpp ****       message = new char[l];
  87              		.loc 1 38 0
  88 001c FEFFFFEB 		bl	_Znaj
  89              	.LVL7:
  90 0020 0050A0E1 		mov	r5, r0
  91              	.LVL8:
  39:../src/zxing_lib/zxing/Exception.cpp ****       strcpy(message, msg);
  92              		.loc 1 39 0
  93 0024 0410A0E1 		mov	r1, r4
  94 0028 FEFFFFEB 		bl	strcpy
  95              	.LVL9:
  96              	.L8:
  97              	.LBE3:
  98              	.LBE2:
  40:../src/zxing_lib/zxing/Exception.cpp ****     }
  41:../src/zxing_lib/zxing/Exception.cpp ****   }
  42:../src/zxing_lib/zxing/Exception.cpp ****   return message;
  43:../src/zxing_lib/zxing/Exception.cpp **** }
  99              		.loc 1 43 0
 100 002c 0500A0E1 		mov	r0, r5
 101 0030 7080BDE8 		pop	{r4, r5, r6, pc}
 102              	.LVL10:
 103              	.L9:
  34:../src/zxing_lib/zxing/Exception.cpp ****   if (msg) {
 104              		.loc 1 34 0
 105 0034 0050A0E3 		mov	r5, #0
 106 0038 FBFFFFEA 		b	.L8
 107              	.LVL11:
 108              	.L10:
 109 003c 0050A0E3 		mov	r5, #0
 110 0040 F9FFFFEA 		b	.L8
 111              		.cfi_endproc
 112              	.LFE1336:
 113              		.fnend
 115              		.text
 116              	.Letext0:
 117              		.file 2 "/home/zkmike/.local/share/renesas/e2_studio/toolchains/gcc_arm/gcc-arm-none-eabi-6-2017-q
 118              		.file 3 "/home/zkmike/.local/share/renesas/e2_studio/toolchains/gcc_arm/gcc-arm-none-eabi-6-2017-q
 119              		.file 4 "/home/zkmike/.local/share/renesas/e2_studio/toolchains/gcc_arm/gcc-arm-none-eabi-6-2017-q
 120              		.file 5 "/home/zkmike/.local/share/renesas/e2_studio/toolchains/gcc_arm/gcc-arm-none-eabi-6-2017-q
 121              		.file 6 "/home/zkmike/.local/share/renesas/e2_studio/toolchains/gcc_arm/gcc-arm-none-eabi-6-2017-q
 122              		.file 7 "/home/zkmike/.local/share/renesas/e2_studio/toolchains/gcc_arm/gcc-arm-none-eabi-6-2017-q
 123              		.file 8 "/home/zkmike/.local/share/renesas/e2_studio/toolchains/gcc_arm/gcc-arm-none-eabi-6-2017-q
 124              		.file 9 "/home/zkmike/.local/share/renesas/e2_studio/toolchains/gcc_arm/gcc-arm-none-eabi-6-2017-q
 125              		.file 10 "/home/zkmike/.local/share/renesas/e2_studio/toolchains/gcc_arm/gcc-arm-none-eabi-6-2017-
 126              		.file 11 "/home/zkmike/.local/share/renesas/e2_studio/toolchains/gcc_arm/gcc-arm-none-eabi-6-2017-
 127              		.file 12 "/home/zkmike/.local/share/renesas/e2_studio/toolchains/gcc_arm/gcc-arm-none-eabi-6-2017-
 128              		.file 13 "/home/zkmike/.local/share/renesas/e2_studio/toolchains/gcc_arm/gcc-arm-none-eabi-6-2017-
 129              		.file 14 "/home/zkmike/.local/share/renesas/e2_studio/toolchains/gcc_arm/gcc-arm-none-eabi-6-2017-
 130              		.file 15 "/home/zkmike/.local/share/renesas/e2_studio/toolchains/gcc_arm/gcc-arm-none-eabi-6-2017-
 131              		.file 16 "/home/zkmike/.local/share/renesas/e2_studio/toolchains/gcc_arm/gcc-arm-none-eabi-6-2017-
 132              		.file 17 "/home/zkmike/.local/share/renesas/e2_studio/toolchains/gcc_arm/gcc-arm-none-eabi-6-2017-
 133              		.file 18 "/home/zkmike/.local/share/renesas/e2_studio/toolchains/gcc_arm/gcc-arm-none-eabi-6-2017-
 134              		.file 19 "/home/zkmike/.local/share/renesas/e2_studio/toolchains/gcc_arm/gcc-arm-none-eabi-6-2017-
 135              		.file 20 "/home/zkmike/.local/share/renesas/e2_studio/toolchains/gcc_arm/gcc-arm-none-eabi-6-2017-
 136              		.file 21 "/home/zkmike/.local/share/renesas/e2_studio/toolchains/gcc_arm/gcc-arm-none-eabi-6-2017-
 137              		.file 22 "/home/zkmike/.local/share/renesas/e2_studio/toolchains/gcc_arm/gcc-arm-none-eabi-6-2017-
 138              		.file 23 "/home/zkmike/.local/share/renesas/e2_studio/toolchains/gcc_arm/gcc-arm-none-eabi-6-2017-
 139              		.file 24 "/home/zkmike/.local/share/renesas/e2_studio/toolchains/gcc_arm/gcc-arm-none-eabi-6-2017-
 140              		.file 25 "<built-in>"
 141              		.file 26 "/home/zkmike/.local/share/renesas/e2_studio/toolchains/gcc_arm/gcc-arm-none-eabi-6-2017-
 142              		.file 27 "/home/zkmike/.local/share/renesas/e2_studio/toolchains/gcc_arm/gcc-arm-none-eabi-6-2017-
 143              		.file 28 "/home/zkmike/.local/share/renesas/e2_studio/toolchains/gcc_arm/gcc-arm-none-eabi-6-2017-
 144              		.file 29 "/home/zkmike/.local/share/renesas/e2_studio/toolchains/gcc_arm/gcc-arm-none-eabi-6-2017-
 145              		.file 30 "/home/zkmike/.local/share/renesas/e2_studio/toolchains/gcc_arm/gcc-arm-none-eabi-6-2017-
 146              		.file 31 "/home/zkmike/.local/share/renesas/e2_studio/toolchains/gcc_arm/gcc-arm-none-eabi-6-2017-
 147              		.file 32 "/home/zkmike/.local/share/renesas/e2_studio/toolchains/gcc_arm/gcc-arm-none-eabi-6-2017-
 148              		.file 33 "/home/zkmike/.local/share/renesas/e2_studio/toolchains/gcc_arm/gcc-arm-none-eabi-6-2017-
 149              		.file 34 "/home/zkmike/workspace/RZA2M/rza2m_2d_barcode_sample_freertos_gcc/src/zxing_lib/zxing/ZX
 150              		.file 35 "/home/zkmike/workspace/RZA2M/rza2m_2d_barcode_sample_freertos_gcc/src/zxing_lib/zxing/Ex
 151              		.file 36 "/home/zkmike/.local/share/renesas/e2_studio/toolchains/gcc_arm/gcc-arm-none-eabi-6-2017-