   1              		.cpu cortex-a9
   2              		.eabi_attribute 28, 1
   3              		.eabi_attribute 20, 1
   4              		.eabi_attribute 21, 1
   5              		.eabi_attribute 23, 3
   6              		.eabi_attribute 24, 1
   7              		.eabi_attribute 25, 1
   8              		.eabi_attribute 26, 1
   9              		.eabi_attribute 30, 1
  10              		.eabi_attribute 34, 0
  11              		.eabi_attribute 18, 4
  12              		.file	"Reader.cpp"
  13              		.text
  14              	.Ltext0:
  15              		.cfi_sections	.debug_frame
  16              		.section	.text._ZN5zxing6Reader6decodeENS_3RefINS_12BinaryBitmapEEE,"ax",%progbits
  17              		.align	2
  18              		.global	_ZN5zxing6Reader6decodeENS_3RefINS_12BinaryBitmapEEE
  19              		.syntax unified
  20              		.arm
  21              		.fpu neon
  23              	_ZN5zxing6Reader6decodeENS_3RefINS_12BinaryBitmapEEE:
  24              		.fnstart
  25              	.LFB2257:
  26              		.file 1 "../src/zxing_lib/zxing/Reader.cpp"
   1:../src/zxing_lib/zxing/Reader.cpp **** /*
   2:../src/zxing_lib/zxing/Reader.cpp ****  *  Reader.cpp
   3:../src/zxing_lib/zxing/Reader.cpp ****  *  zxing
   4:../src/zxing_lib/zxing/Reader.cpp ****  *
   5:../src/zxing_lib/zxing/Reader.cpp ****  *  Created by Christian Brunschen on 13/05/2008.
   6:../src/zxing_lib/zxing/Reader.cpp ****  *  Copyright 2008 ZXing authors All rights reserved.
   7:../src/zxing_lib/zxing/Reader.cpp ****  *
   8:../src/zxing_lib/zxing/Reader.cpp ****  * Licensed under the Apache License, Version 2.0 (the "License");
   9:../src/zxing_lib/zxing/Reader.cpp ****  * you may not use this file except in compliance with the License.
  10:../src/zxing_lib/zxing/Reader.cpp ****  * You may obtain a copy of the License at
  11:../src/zxing_lib/zxing/Reader.cpp ****  *
  12:../src/zxing_lib/zxing/Reader.cpp ****  *      http://www.apache.org/licenses/LICENSE-2.0
  13:../src/zxing_lib/zxing/Reader.cpp ****  *
  14:../src/zxing_lib/zxing/Reader.cpp ****  * Unless required by applicable law or agreed to in writing, software
  15:../src/zxing_lib/zxing/Reader.cpp ****  * distributed under the License is distributed on an "AS IS" BASIS,
  16:../src/zxing_lib/zxing/Reader.cpp ****  * WITHOUT WARRANTIES OR CONDITIONS OF ANY KIND, either express or implied.
  17:../src/zxing_lib/zxing/Reader.cpp ****  * See the License for the specific language governing permissions and
  18:../src/zxing_lib/zxing/Reader.cpp ****  * limitations under the License.
  19:../src/zxing_lib/zxing/Reader.cpp ****  */
  20:../src/zxing_lib/zxing/Reader.cpp **** 
  21:../src/zxing_lib/zxing/Reader.cpp **** #include <zxing/Reader.h>
  22:../src/zxing_lib/zxing/Reader.cpp **** 
  23:../src/zxing_lib/zxing/Reader.cpp **** namespace zxing {
  24:../src/zxing_lib/zxing/Reader.cpp **** 
  25:../src/zxing_lib/zxing/Reader.cpp **** Reader::~Reader() { }
  26:../src/zxing_lib/zxing/Reader.cpp **** 
  27:../src/zxing_lib/zxing/Reader.cpp **** Ref<Result> Reader::decode(Ref<BinaryBitmap> image) {
  27              		.loc 1 27 0
  28              		.cfi_startproc
  29              		.cfi_personality 0,__gxx_personality_v0
  30              		.cfi_lsda 0,.LLSDA2257
  31              		@ args = 0, pretend = 0, frame = 16
  32              		@ frame_needed = 0, uses_anonymous_args = 0
  33              	.LVL0:
  34 0000 F0402DE9 		push	{r4, r5, r6, r7, lr}
  35              		.save {r4, r5, r6, r7, lr}
  36              		.cfi_def_cfa_offset 20
  37              		.cfi_offset 4, -20
  38              		.cfi_offset 5, -16
  39              		.cfi_offset 6, -12
  40              		.cfi_offset 7, -8
  41              		.cfi_offset 14, -4
  42              		.pad #20
  43 0004 14D04DE2 		sub	sp, sp, #20
  44              		.cfi_def_cfa_offset 40
  45 0008 0050A0E1 		mov	r5, r0
  46 000c 0160A0E1 		mov	r6, r1
  28:../src/zxing_lib/zxing/Reader.cpp ****   return decode(image, DecodeHints::DEFAULT_HINT);
  47              		.loc 1 28 0
  48 0010 003091E5 		ldr	r3, [r1]
  49 0014 0C7093E5 		ldr	r7, [r3, #12]
  50              	.LVL1:
  51              	.LBB105:
  52              	.LBB106:
  53              	.LBB107:
  54              		.file 2 "/home/zkmike/workspace/RZA2M/rza2m_2d_barcode_sample_freertos_gcc/src/zxing_lib/zxing/com
   1:/home/zkmike/workspace/RZA2M/rza2m_2d_barcode_sample_freertos_gcc/src/zxing_lib/zxing/common/Counted.h **** // -*- mode:c++; tab-width:2; indent-tabs-mode:nil; c-basic-offset:2 -*-
   2:/home/zkmike/workspace/RZA2M/rza2m_2d_barcode_sample_freertos_gcc/src/zxing_lib/zxing/common/Counted.h **** #ifndef __COUNTED_H__
   3:/home/zkmike/workspace/RZA2M/rza2m_2d_barcode_sample_freertos_gcc/src/zxing_lib/zxing/common/Counted.h **** #define __COUNTED_H__
   4:/home/zkmike/workspace/RZA2M/rza2m_2d_barcode_sample_freertos_gcc/src/zxing_lib/zxing/common/Counted.h **** 
   5:/home/zkmike/workspace/RZA2M/rza2m_2d_barcode_sample_freertos_gcc/src/zxing_lib/zxing/common/Counted.h **** /*
   6:/home/zkmike/workspace/RZA2M/rza2m_2d_barcode_sample_freertos_gcc/src/zxing_lib/zxing/common/Counted.h ****  *  Copyright 2010 ZXing authors All rights reserved.
   7:/home/zkmike/workspace/RZA2M/rza2m_2d_barcode_sample_freertos_gcc/src/zxing_lib/zxing/common/Counted.h ****  *
   8:/home/zkmike/workspace/RZA2M/rza2m_2d_barcode_sample_freertos_gcc/src/zxing_lib/zxing/common/Counted.h ****  * Licensed under the Apache License, Version 2.0 (the "License");
   9:/home/zkmike/workspace/RZA2M/rza2m_2d_barcode_sample_freertos_gcc/src/zxing_lib/zxing/common/Counted.h ****  * you may not use this file except in compliance with the License.
  10:/home/zkmike/workspace/RZA2M/rza2m_2d_barcode_sample_freertos_gcc/src/zxing_lib/zxing/common/Counted.h ****  * You may obtain a copy of the License at
  11:/home/zkmike/workspace/RZA2M/rza2m_2d_barcode_sample_freertos_gcc/src/zxing_lib/zxing/common/Counted.h ****  *
  12:/home/zkmike/workspace/RZA2M/rza2m_2d_barcode_sample_freertos_gcc/src/zxing_lib/zxing/common/Counted.h ****  *      http://www.apache.org/licenses/LICENSE-2.0
  13:/home/zkmike/workspace/RZA2M/rza2m_2d_barcode_sample_freertos_gcc/src/zxing_lib/zxing/common/Counted.h ****  *
  14:/home/zkmike/workspace/RZA2M/rza2m_2d_barcode_sample_freertos_gcc/src/zxing_lib/zxing/common/Counted.h ****  * Unless required by applicable law or agreed to in writing, software
  15:/home/zkmike/workspace/RZA2M/rza2m_2d_barcode_sample_freertos_gcc/src/zxing_lib/zxing/common/Counted.h ****  * distributed under the License is distributed on an "AS IS" BASIS,
  16:/home/zkmike/workspace/RZA2M/rza2m_2d_barcode_sample_freertos_gcc/src/zxing_lib/zxing/common/Counted.h ****  * WITHOUT WARRANTIES OR CONDITIONS OF ANY KIND, either express or implied.
  17:/home/zkmike/workspace/RZA2M/rza2m_2d_barcode_sample_freertos_gcc/src/zxing_lib/zxing/common/Counted.h ****  * See the License for the specific language governing permissions and
  18:/home/zkmike/workspace/RZA2M/rza2m_2d_barcode_sample_freertos_gcc/src/zxing_lib/zxing/common/Counted.h ****  * limitations under the License.
  19:/home/zkmike/workspace/RZA2M/rza2m_2d_barcode_sample_freertos_gcc/src/zxing_lib/zxing/common/Counted.h ****  */
  20:/home/zkmike/workspace/RZA2M/rza2m_2d_barcode_sample_freertos_gcc/src/zxing_lib/zxing/common/Counted.h **** 
  21:/home/zkmike/workspace/RZA2M/rza2m_2d_barcode_sample_freertos_gcc/src/zxing_lib/zxing/common/Counted.h **** #include <iostream>
  22:/home/zkmike/workspace/RZA2M/rza2m_2d_barcode_sample_freertos_gcc/src/zxing_lib/zxing/common/Counted.h **** 
  23:/home/zkmike/workspace/RZA2M/rza2m_2d_barcode_sample_freertos_gcc/src/zxing_lib/zxing/common/Counted.h **** namespace zxing {
  24:/home/zkmike/workspace/RZA2M/rza2m_2d_barcode_sample_freertos_gcc/src/zxing_lib/zxing/common/Counted.h **** 
  25:/home/zkmike/workspace/RZA2M/rza2m_2d_barcode_sample_freertos_gcc/src/zxing_lib/zxing/common/Counted.h **** /* base class for reference-counted objects */
  26:/home/zkmike/workspace/RZA2M/rza2m_2d_barcode_sample_freertos_gcc/src/zxing_lib/zxing/common/Counted.h **** class Counted {
  27:/home/zkmike/workspace/RZA2M/rza2m_2d_barcode_sample_freertos_gcc/src/zxing_lib/zxing/common/Counted.h **** private:
  28:/home/zkmike/workspace/RZA2M/rza2m_2d_barcode_sample_freertos_gcc/src/zxing_lib/zxing/common/Counted.h ****   unsigned int count_;
  29:/home/zkmike/workspace/RZA2M/rza2m_2d_barcode_sample_freertos_gcc/src/zxing_lib/zxing/common/Counted.h **** public:
  30:/home/zkmike/workspace/RZA2M/rza2m_2d_barcode_sample_freertos_gcc/src/zxing_lib/zxing/common/Counted.h ****   Counted() :
  31:/home/zkmike/workspace/RZA2M/rza2m_2d_barcode_sample_freertos_gcc/src/zxing_lib/zxing/common/Counted.h ****       count_(0) {
  32:/home/zkmike/workspace/RZA2M/rza2m_2d_barcode_sample_freertos_gcc/src/zxing_lib/zxing/common/Counted.h ****   }
  33:/home/zkmike/workspace/RZA2M/rza2m_2d_barcode_sample_freertos_gcc/src/zxing_lib/zxing/common/Counted.h ****   virtual ~Counted() {
  34:/home/zkmike/workspace/RZA2M/rza2m_2d_barcode_sample_freertos_gcc/src/zxing_lib/zxing/common/Counted.h ****   }
  35:/home/zkmike/workspace/RZA2M/rza2m_2d_barcode_sample_freertos_gcc/src/zxing_lib/zxing/common/Counted.h ****   Counted *retain() {
  36:/home/zkmike/workspace/RZA2M/rza2m_2d_barcode_sample_freertos_gcc/src/zxing_lib/zxing/common/Counted.h ****     count_++;
  37:/home/zkmike/workspace/RZA2M/rza2m_2d_barcode_sample_freertos_gcc/src/zxing_lib/zxing/common/Counted.h ****     return this;
  38:/home/zkmike/workspace/RZA2M/rza2m_2d_barcode_sample_freertos_gcc/src/zxing_lib/zxing/common/Counted.h ****   }
  39:/home/zkmike/workspace/RZA2M/rza2m_2d_barcode_sample_freertos_gcc/src/zxing_lib/zxing/common/Counted.h ****   void release() {
  40:/home/zkmike/workspace/RZA2M/rza2m_2d_barcode_sample_freertos_gcc/src/zxing_lib/zxing/common/Counted.h ****     count_--;
  41:/home/zkmike/workspace/RZA2M/rza2m_2d_barcode_sample_freertos_gcc/src/zxing_lib/zxing/common/Counted.h ****     if (count_ == 0) {
  42:/home/zkmike/workspace/RZA2M/rza2m_2d_barcode_sample_freertos_gcc/src/zxing_lib/zxing/common/Counted.h ****       count_ = 0xDEADF001;
  43:/home/zkmike/workspace/RZA2M/rza2m_2d_barcode_sample_freertos_gcc/src/zxing_lib/zxing/common/Counted.h ****       delete this;
  44:/home/zkmike/workspace/RZA2M/rza2m_2d_barcode_sample_freertos_gcc/src/zxing_lib/zxing/common/Counted.h ****     }
  45:/home/zkmike/workspace/RZA2M/rza2m_2d_barcode_sample_freertos_gcc/src/zxing_lib/zxing/common/Counted.h ****   }
  46:/home/zkmike/workspace/RZA2M/rza2m_2d_barcode_sample_freertos_gcc/src/zxing_lib/zxing/common/Counted.h **** 
  47:/home/zkmike/workspace/RZA2M/rza2m_2d_barcode_sample_freertos_gcc/src/zxing_lib/zxing/common/Counted.h **** 
  48:/home/zkmike/workspace/RZA2M/rza2m_2d_barcode_sample_freertos_gcc/src/zxing_lib/zxing/common/Counted.h ****   /* return the current count for denugging purposes or similar */
  49:/home/zkmike/workspace/RZA2M/rza2m_2d_barcode_sample_freertos_gcc/src/zxing_lib/zxing/common/Counted.h ****   int count() const {
  50:/home/zkmike/workspace/RZA2M/rza2m_2d_barcode_sample_freertos_gcc/src/zxing_lib/zxing/common/Counted.h ****     return count_;
  51:/home/zkmike/workspace/RZA2M/rza2m_2d_barcode_sample_freertos_gcc/src/zxing_lib/zxing/common/Counted.h ****   }
  52:/home/zkmike/workspace/RZA2M/rza2m_2d_barcode_sample_freertos_gcc/src/zxing_lib/zxing/common/Counted.h **** };
  53:/home/zkmike/workspace/RZA2M/rza2m_2d_barcode_sample_freertos_gcc/src/zxing_lib/zxing/common/Counted.h **** 
  54:/home/zkmike/workspace/RZA2M/rza2m_2d_barcode_sample_freertos_gcc/src/zxing_lib/zxing/common/Counted.h **** /* counting reference to reference-counted objects */
  55:/home/zkmike/workspace/RZA2M/rza2m_2d_barcode_sample_freertos_gcc/src/zxing_lib/zxing/common/Counted.h **** template<typename T> class Ref {
  56:/home/zkmike/workspace/RZA2M/rza2m_2d_barcode_sample_freertos_gcc/src/zxing_lib/zxing/common/Counted.h **** private:
  57:/home/zkmike/workspace/RZA2M/rza2m_2d_barcode_sample_freertos_gcc/src/zxing_lib/zxing/common/Counted.h **** public:
  58:/home/zkmike/workspace/RZA2M/rza2m_2d_barcode_sample_freertos_gcc/src/zxing_lib/zxing/common/Counted.h ****   T *object_;
  59:/home/zkmike/workspace/RZA2M/rza2m_2d_barcode_sample_freertos_gcc/src/zxing_lib/zxing/common/Counted.h ****   explicit Ref(T *o = 0) :
  60:/home/zkmike/workspace/RZA2M/rza2m_2d_barcode_sample_freertos_gcc/src/zxing_lib/zxing/common/Counted.h ****       object_(0) {
  61:/home/zkmike/workspace/RZA2M/rza2m_2d_barcode_sample_freertos_gcc/src/zxing_lib/zxing/common/Counted.h ****     reset(o);
  62:/home/zkmike/workspace/RZA2M/rza2m_2d_barcode_sample_freertos_gcc/src/zxing_lib/zxing/common/Counted.h ****   }
  63:/home/zkmike/workspace/RZA2M/rza2m_2d_barcode_sample_freertos_gcc/src/zxing_lib/zxing/common/Counted.h ****   Ref(const Ref &other) :
  64:/home/zkmike/workspace/RZA2M/rza2m_2d_barcode_sample_freertos_gcc/src/zxing_lib/zxing/common/Counted.h ****       object_(0) {
  55              		.loc 2 64 0
  56 0018 0030A0E3 		mov	r3, #0
  57 001c 04308DE5 		str	r3, [sp, #4]
  65:/home/zkmike/workspace/RZA2M/rza2m_2d_barcode_sample_freertos_gcc/src/zxing_lib/zxing/common/Counted.h ****     reset(other.object_);
  58              		.loc 2 65 0
  59 0020 004092E5 		ldr	r4, [r2]
  60              	.LVL2:
  61              	.LBB108:
  62              	.LBB109:
  66:/home/zkmike/workspace/RZA2M/rza2m_2d_barcode_sample_freertos_gcc/src/zxing_lib/zxing/common/Counted.h ****   }
  67:/home/zkmike/workspace/RZA2M/rza2m_2d_barcode_sample_freertos_gcc/src/zxing_lib/zxing/common/Counted.h **** 
  68:/home/zkmike/workspace/RZA2M/rza2m_2d_barcode_sample_freertos_gcc/src/zxing_lib/zxing/common/Counted.h ****   template<class Y>
  69:/home/zkmike/workspace/RZA2M/rza2m_2d_barcode_sample_freertos_gcc/src/zxing_lib/zxing/common/Counted.h ****   Ref(const Ref<Y> &other) :
  70:/home/zkmike/workspace/RZA2M/rza2m_2d_barcode_sample_freertos_gcc/src/zxing_lib/zxing/common/Counted.h ****       object_(0) {
  71:/home/zkmike/workspace/RZA2M/rza2m_2d_barcode_sample_freertos_gcc/src/zxing_lib/zxing/common/Counted.h ****     reset(other.object_);
  72:/home/zkmike/workspace/RZA2M/rza2m_2d_barcode_sample_freertos_gcc/src/zxing_lib/zxing/common/Counted.h ****   }
  73:/home/zkmike/workspace/RZA2M/rza2m_2d_barcode_sample_freertos_gcc/src/zxing_lib/zxing/common/Counted.h **** 
  74:/home/zkmike/workspace/RZA2M/rza2m_2d_barcode_sample_freertos_gcc/src/zxing_lib/zxing/common/Counted.h ****   ~Ref() {
  75:/home/zkmike/workspace/RZA2M/rza2m_2d_barcode_sample_freertos_gcc/src/zxing_lib/zxing/common/Counted.h ****     if (object_) {
  76:/home/zkmike/workspace/RZA2M/rza2m_2d_barcode_sample_freertos_gcc/src/zxing_lib/zxing/common/Counted.h ****       object_->release();
  77:/home/zkmike/workspace/RZA2M/rza2m_2d_barcode_sample_freertos_gcc/src/zxing_lib/zxing/common/Counted.h ****     }
  78:/home/zkmike/workspace/RZA2M/rza2m_2d_barcode_sample_freertos_gcc/src/zxing_lib/zxing/common/Counted.h ****   }
  79:/home/zkmike/workspace/RZA2M/rza2m_2d_barcode_sample_freertos_gcc/src/zxing_lib/zxing/common/Counted.h **** 
  80:/home/zkmike/workspace/RZA2M/rza2m_2d_barcode_sample_freertos_gcc/src/zxing_lib/zxing/common/Counted.h ****   void reset(T *o) {
  81:/home/zkmike/workspace/RZA2M/rza2m_2d_barcode_sample_freertos_gcc/src/zxing_lib/zxing/common/Counted.h ****     if (o) {
  63              		.loc 2 81 0
  64 0024 030054E1 		cmp	r4, r3
  65              	.LVL3:
  66              	.LBB110:
  67              	.LBB111:
  36:/home/zkmike/workspace/RZA2M/rza2m_2d_barcode_sample_freertos_gcc/src/zxing_lib/zxing/common/Counted.h ****     return this;
  68              		.loc 2 36 0
  69 0028 04309415 		ldrne	r3, [r4, #4]
  70 002c 01308312 		addne	r3, r3, #1
  71 0030 04308415 		strne	r3, [r4, #4]
  72              	.LVL4:
  73              	.L2:
  74              	.LBE111:
  75              	.LBE110:
  82:/home/zkmike/workspace/RZA2M/rza2m_2d_barcode_sample_freertos_gcc/src/zxing_lib/zxing/common/Counted.h ****       o->retain();
  83:/home/zkmike/workspace/RZA2M/rza2m_2d_barcode_sample_freertos_gcc/src/zxing_lib/zxing/common/Counted.h ****     }
  84:/home/zkmike/workspace/RZA2M/rza2m_2d_barcode_sample_freertos_gcc/src/zxing_lib/zxing/common/Counted.h ****     if (object_ != 0) {
  76              		.loc 2 84 0
  77 0034 04009DE5 		ldr	r0, [sp, #4]
  78              	.LVL5:
  79 0038 000050E3 		cmp	r0, #0
  80 003c 0400000A 		beq	.L3
  81              	.LVL6:
  82              	.LBB112:
  83              	.LBB113:
  40:/home/zkmike/workspace/RZA2M/rza2m_2d_barcode_sample_freertos_gcc/src/zxing_lib/zxing/common/Counted.h ****     if (count_ == 0) {
  84              		.loc 2 40 0
  85 0040 043090E5 		ldr	r3, [r0, #4]
  86 0044 013043E2 		sub	r3, r3, #1
  87 0048 043080E5 		str	r3, [r0, #4]
  41:/home/zkmike/workspace/RZA2M/rza2m_2d_barcode_sample_freertos_gcc/src/zxing_lib/zxing/common/Counted.h ****       count_ = 0xDEADF001;
  88              		.loc 2 41 0
  89 004c 000053E3 		cmp	r3, #0
  90 0050 1A00000A 		beq	.L13
  91              	.LVL7:
  92              	.L3:
  93              	.LBE113:
  94              	.LBE112:
  85:/home/zkmike/workspace/RZA2M/rza2m_2d_barcode_sample_freertos_gcc/src/zxing_lib/zxing/common/Counted.h ****       object_->release();
  86:/home/zkmike/workspace/RZA2M/rza2m_2d_barcode_sample_freertos_gcc/src/zxing_lib/zxing/common/Counted.h ****     }
  87:/home/zkmike/workspace/RZA2M/rza2m_2d_barcode_sample_freertos_gcc/src/zxing_lib/zxing/common/Counted.h ****     object_ = o;
  95              		.loc 2 87 0
  96 0054 04408DE5 		str	r4, [sp, #4]
  97              	.LVL8:
  98              	.LBE109:
  99              	.LBE108:
 100              	.LBE107:
 101              	.LBE106:
 102              	.LBE105:
 103              	.LBB120:
 104              	.LBB121:
 105              	.LBB122:
 106              		.file 3 "/home/zkmike/workspace/RZA2M/rza2m_2d_barcode_sample_freertos_gcc/src/zxing_lib/zxing/Dec
   1:/home/zkmike/workspace/RZA2M/rza2m_2d_barcode_sample_freertos_gcc/src/zxing_lib/zxing/DecodeHints.h **** // -*- mode:c++; tab-width:2; indent-tabs-mode:nil; c-basic-offset:2 -*-
   2:/home/zkmike/workspace/RZA2M/rza2m_2d_barcode_sample_freertos_gcc/src/zxing_lib/zxing/DecodeHints.h **** #ifndef __DECODEHINTS_H_
   3:/home/zkmike/workspace/RZA2M/rza2m_2d_barcode_sample_freertos_gcc/src/zxing_lib/zxing/DecodeHints.h **** #define __DECODEHINTS_H_
   4:/home/zkmike/workspace/RZA2M/rza2m_2d_barcode_sample_freertos_gcc/src/zxing_lib/zxing/DecodeHints.h **** /*
   5:/home/zkmike/workspace/RZA2M/rza2m_2d_barcode_sample_freertos_gcc/src/zxing_lib/zxing/DecodeHints.h ****  *  DecodeHintType.h
   6:/home/zkmike/workspace/RZA2M/rza2m_2d_barcode_sample_freertos_gcc/src/zxing_lib/zxing/DecodeHints.h ****  *  zxing
   7:/home/zkmike/workspace/RZA2M/rza2m_2d_barcode_sample_freertos_gcc/src/zxing_lib/zxing/DecodeHints.h ****  *
   8:/home/zkmike/workspace/RZA2M/rza2m_2d_barcode_sample_freertos_gcc/src/zxing_lib/zxing/DecodeHints.h ****  *  Copyright 2010 ZXing authors All rights reserved.
   9:/home/zkmike/workspace/RZA2M/rza2m_2d_barcode_sample_freertos_gcc/src/zxing_lib/zxing/DecodeHints.h ****  *
  10:/home/zkmike/workspace/RZA2M/rza2m_2d_barcode_sample_freertos_gcc/src/zxing_lib/zxing/DecodeHints.h ****  * Licensed under the Apache License, Version 2.0 (the "License");
  11:/home/zkmike/workspace/RZA2M/rza2m_2d_barcode_sample_freertos_gcc/src/zxing_lib/zxing/DecodeHints.h ****  * you may not use this file except in compliance with the License.
  12:/home/zkmike/workspace/RZA2M/rza2m_2d_barcode_sample_freertos_gcc/src/zxing_lib/zxing/DecodeHints.h ****  * You may obtain a copy of the License at
  13:/home/zkmike/workspace/RZA2M/rza2m_2d_barcode_sample_freertos_gcc/src/zxing_lib/zxing/DecodeHints.h ****  *
  14:/home/zkmike/workspace/RZA2M/rza2m_2d_barcode_sample_freertos_gcc/src/zxing_lib/zxing/DecodeHints.h ****  *      http://www.apache.org/licenses/LICENSE-2.0
  15:/home/zkmike/workspace/RZA2M/rza2m_2d_barcode_sample_freertos_gcc/src/zxing_lib/zxing/DecodeHints.h ****  *
  16:/home/zkmike/workspace/RZA2M/rza2m_2d_barcode_sample_freertos_gcc/src/zxing_lib/zxing/DecodeHints.h ****  * Unless required by applicable law or agreed to in writing, software
  17:/home/zkmike/workspace/RZA2M/rza2m_2d_barcode_sample_freertos_gcc/src/zxing_lib/zxing/DecodeHints.h ****  * distributed under the License is distributed on an "AS IS" BASIS,
  18:/home/zkmike/workspace/RZA2M/rza2m_2d_barcode_sample_freertos_gcc/src/zxing_lib/zxing/DecodeHints.h ****  * WITHOUT WARRANTIES OR CONDITIONS OF ANY KIND, either express or implied.
  19:/home/zkmike/workspace/RZA2M/rza2m_2d_barcode_sample_freertos_gcc/src/zxing_lib/zxing/DecodeHints.h ****  * See the License for the specific language governing permissions and
  20:/home/zkmike/workspace/RZA2M/rza2m_2d_barcode_sample_freertos_gcc/src/zxing_lib/zxing/DecodeHints.h ****  * limitations under the License.
  21:/home/zkmike/workspace/RZA2M/rza2m_2d_barcode_sample_freertos_gcc/src/zxing_lib/zxing/DecodeHints.h ****  */
  22:/home/zkmike/workspace/RZA2M/rza2m_2d_barcode_sample_freertos_gcc/src/zxing_lib/zxing/DecodeHints.h **** 
  23:/home/zkmike/workspace/RZA2M/rza2m_2d_barcode_sample_freertos_gcc/src/zxing_lib/zxing/DecodeHints.h **** #include <zxing/BarcodeFormat.h>
  24:/home/zkmike/workspace/RZA2M/rza2m_2d_barcode_sample_freertos_gcc/src/zxing_lib/zxing/DecodeHints.h **** #include <zxing/ResultPointCallback.h>
  25:/home/zkmike/workspace/RZA2M/rza2m_2d_barcode_sample_freertos_gcc/src/zxing_lib/zxing/DecodeHints.h **** 
  26:/home/zkmike/workspace/RZA2M/rza2m_2d_barcode_sample_freertos_gcc/src/zxing_lib/zxing/DecodeHints.h **** namespace zxing {
  27:/home/zkmike/workspace/RZA2M/rza2m_2d_barcode_sample_freertos_gcc/src/zxing_lib/zxing/DecodeHints.h **** 
  28:/home/zkmike/workspace/RZA2M/rza2m_2d_barcode_sample_freertos_gcc/src/zxing_lib/zxing/DecodeHints.h **** typedef unsigned int DecodeHintType;
  29:/home/zkmike/workspace/RZA2M/rza2m_2d_barcode_sample_freertos_gcc/src/zxing_lib/zxing/DecodeHints.h **** class DecodeHints;
  30:/home/zkmike/workspace/RZA2M/rza2m_2d_barcode_sample_freertos_gcc/src/zxing_lib/zxing/DecodeHints.h **** DecodeHints operator | (DecodeHints const&, DecodeHints const&);
  31:/home/zkmike/workspace/RZA2M/rza2m_2d_barcode_sample_freertos_gcc/src/zxing_lib/zxing/DecodeHints.h **** 
  32:/home/zkmike/workspace/RZA2M/rza2m_2d_barcode_sample_freertos_gcc/src/zxing_lib/zxing/DecodeHints.h **** class DecodeHints {
 107              		.loc 3 32 0
 108 0058 003000E3 		movw	r3, #:lower16:_ZN5zxing11DecodeHints12DEFAULT_HINTE
 109 005c 003040E3 		movt	r3, #:upper16:_ZN5zxing11DecodeHints12DEFAULT_HINTE
 110 0060 002093E5 		ldr	r2, [r3]
 111 0064 08208DE5 		str	r2, [sp, #8]
 112              	.LVL9:
 113              	.LBB123:
 114              	.LBB124:
 115              	.LBB125:
  64:/home/zkmike/workspace/RZA2M/rza2m_2d_barcode_sample_freertos_gcc/src/zxing_lib/zxing/common/Counted.h ****     reset(other.object_);
 116              		.loc 2 64 0
 117 0068 0020A0E3 		mov	r2, #0
 118 006c 0C208DE5 		str	r2, [sp, #12]
  65:/home/zkmike/workspace/RZA2M/rza2m_2d_barcode_sample_freertos_gcc/src/zxing_lib/zxing/common/Counted.h ****   }
 119              		.loc 2 65 0
 120 0070 044093E5 		ldr	r4, [r3, #4]
 121              	.LVL10:
 122              	.LBB126:
 123              	.LBB127:
  81:/home/zkmike/workspace/RZA2M/rza2m_2d_barcode_sample_freertos_gcc/src/zxing_lib/zxing/common/Counted.h ****       o->retain();
 124              		.loc 2 81 0
 125 0074 020054E1 		cmp	r4, r2
 126              	.LVL11:
 127              	.LBB128:
 128              	.LBB129:
  36:/home/zkmike/workspace/RZA2M/rza2m_2d_barcode_sample_freertos_gcc/src/zxing_lib/zxing/common/Counted.h ****     return this;
 129              		.loc 2 36 0
 130 0078 04309415 		ldrne	r3, [r4, #4]
 131 007c 01308312 		addne	r3, r3, #1
 132 0080 04308415 		strne	r3, [r4, #4]
 133              	.LVL12:
 134              	.L4:
 135              	.LBE129:
 136              	.LBE128:
  84:/home/zkmike/workspace/RZA2M/rza2m_2d_barcode_sample_freertos_gcc/src/zxing_lib/zxing/common/Counted.h ****       object_->release();
 137              		.loc 2 84 0
 138 0084 0C009DE5 		ldr	r0, [sp, #12]
 139 0088 000050E3 		cmp	r0, #0
 140 008c 0400000A 		beq	.L5
 141              	.LVL13:
 142              	.LBB130:
 143              	.LBB131:
  40:/home/zkmike/workspace/RZA2M/rza2m_2d_barcode_sample_freertos_gcc/src/zxing_lib/zxing/common/Counted.h ****     if (count_ == 0) {
 144              		.loc 2 40 0
 145 0090 043090E5 		ldr	r3, [r0, #4]
 146 0094 013043E2 		sub	r3, r3, #1
 147 0098 043080E5 		str	r3, [r0, #4]
  41:/home/zkmike/workspace/RZA2M/rza2m_2d_barcode_sample_freertos_gcc/src/zxing_lib/zxing/common/Counted.h ****       count_ = 0xDEADF001;
 148              		.loc 2 41 0
 149 009c 000053E3 		cmp	r3, #0
 150 00a0 0D00000A 		beq	.L14
 151              	.LVL14:
 152              	.L5:
 153              	.LBE131:
 154              	.LBE130:
 155              		.loc 2 87 0
 156 00a4 0C408DE5 		str	r4, [sp, #12]
 157              	.LVL15:
 158              	.LBE127:
 159              	.LBE126:
 160              	.LBE125:
 161              	.LBE124:
 162              	.LBE123:
 163              	.LBE122:
 164              	.LBE121:
 165              	.LBE120:
 166              		.loc 1 28 0
 167 00a8 08308DE2 		add	r3, sp, #8
 168 00ac 04208DE2 		add	r2, sp, #4
 169 00b0 0610A0E1 		mov	r1, r6
 170 00b4 0500A0E1 		mov	r0, r5
 171              	.LEHB0:
 172 00b8 37FF2FE1 		blx	r7
 173              	.LVL16:
 174              	.LEHE0:
 175 00bc 0D0000EA 		b	.L15
 176              	.LVL17:
 177              	.L13:
 178              	.LBB141:
 179              	.LBB119:
 180              	.LBB118:
 181              	.LBB117:
 182              	.LBB116:
 183              	.LBB115:
 184              	.LBB114:
  42:/home/zkmike/workspace/RZA2M/rza2m_2d_barcode_sample_freertos_gcc/src/zxing_lib/zxing/common/Counted.h ****       delete this;
 185              		.loc 2 42 0
 186 00c0 01300FE3 		movw	r3, #61441
 187 00c4 AD3E4DE3 		movt	r3, 57005
 188 00c8 043080E5 		str	r3, [r0, #4]
  43:/home/zkmike/workspace/RZA2M/rza2m_2d_barcode_sample_freertos_gcc/src/zxing_lib/zxing/common/Counted.h ****     }
 189              		.loc 2 43 0
 190 00cc 003090E5 		ldr	r3, [r0]
 191 00d0 043093E5 		ldr	r3, [r3, #4]
 192 00d4 33FF2FE1 		blx	r3
 193              	.LVL18:
 194 00d8 DDFFFFEA 		b	.L3
 195              	.LVL19:
 196              	.L14:
 197              	.LBE114:
 198              	.LBE115:
 199              	.LBE116:
 200              	.LBE117:
 201              	.LBE118:
 202              	.LBE119:
 203              	.LBE141:
 204              	.LBB142:
 205              	.LBB140:
 206              	.LBB139:
 207              	.LBB138:
 208              	.LBB137:
 209              	.LBB136:
 210              	.LBB135:
 211              	.LBB134:
 212              	.LBB133:
 213              	.LBB132:
  42:/home/zkmike/workspace/RZA2M/rza2m_2d_barcode_sample_freertos_gcc/src/zxing_lib/zxing/common/Counted.h ****       delete this;
 214              		.loc 2 42 0
 215 00dc 01300FE3 		movw	r3, #61441
 216 00e0 AD3E4DE3 		movt	r3, 57005
 217 00e4 043080E5 		str	r3, [r0, #4]
  43:/home/zkmike/workspace/RZA2M/rza2m_2d_barcode_sample_freertos_gcc/src/zxing_lib/zxing/common/Counted.h ****     }
 218              		.loc 2 43 0
 219 00e8 003090E5 		ldr	r3, [r0]
 220 00ec 043093E5 		ldr	r3, [r3, #4]
 221 00f0 33FF2FE1 		blx	r3
 222              	.LVL20:
 223 00f4 EAFFFFEA 		b	.L5
 224              	.LVL21:
 225              	.L15:
 226              	.LBE132:
 227              	.LBE133:
 228              	.LBE134:
 229              	.LBE135:
 230              	.LBE136:
 231              	.LBE137:
 232              	.LBE138:
 233              	.LBE139:
 234              	.LBE140:
 235              	.LBE142:
 236              	.LBB143:
 237              	.LBB144:
 238              	.LBB145:
  75:/home/zkmike/workspace/RZA2M/rza2m_2d_barcode_sample_freertos_gcc/src/zxing_lib/zxing/common/Counted.h ****       object_->release();
 239              		.loc 2 75 0
 240 00f8 0C009DE5 		ldr	r0, [sp, #12]
 241 00fc 000050E3 		cmp	r0, #0
 242 0100 0400000A 		beq	.L6
 243              	.LVL22:
 244              	.LBB146:
 245              	.LBB147:
  40:/home/zkmike/workspace/RZA2M/rza2m_2d_barcode_sample_freertos_gcc/src/zxing_lib/zxing/common/Counted.h ****     if (count_ == 0) {
 246              		.loc 2 40 0
 247 0104 043090E5 		ldr	r3, [r0, #4]
 248 0108 013043E2 		sub	r3, r3, #1
 249 010c 043080E5 		str	r3, [r0, #4]
  41:/home/zkmike/workspace/RZA2M/rza2m_2d_barcode_sample_freertos_gcc/src/zxing_lib/zxing/common/Counted.h ****       count_ = 0xDEADF001;
 250              		.loc 2 41 0
 251 0110 000053E3 		cmp	r3, #0
 252 0114 0A00000A 		beq	.L16
 253              	.LVL23:
 254              	.L6:
 255              	.LBE147:
 256              	.LBE146:
 257              	.LBE145:
 258              	.LBE144:
 259              	.LBE143:
 260              	.LBB152:
 261              	.LBB153:
  75:/home/zkmike/workspace/RZA2M/rza2m_2d_barcode_sample_freertos_gcc/src/zxing_lib/zxing/common/Counted.h ****       object_->release();
 262              		.loc 2 75 0
 263 0118 04009DE5 		ldr	r0, [sp, #4]
 264 011c 000050E3 		cmp	r0, #0
 265 0120 0400000A 		beq	.L1
 266              	.LVL24:
 267              	.LBB154:
 268              	.LBB155:
  40:/home/zkmike/workspace/RZA2M/rza2m_2d_barcode_sample_freertos_gcc/src/zxing_lib/zxing/common/Counted.h ****     if (count_ == 0) {
 269              		.loc 2 40 0
 270 0124 043090E5 		ldr	r3, [r0, #4]
 271 0128 013043E2 		sub	r3, r3, #1
 272 012c 043080E5 		str	r3, [r0, #4]
  41:/home/zkmike/workspace/RZA2M/rza2m_2d_barcode_sample_freertos_gcc/src/zxing_lib/zxing/common/Counted.h ****       count_ = 0xDEADF001;
 273              		.loc 2 41 0
 274 0130 000053E3 		cmp	r3, #0
 275 0134 0900000A 		beq	.L17
 276              	.LVL25:
 277              	.L1:
 278              	.LBE155:
 279              	.LBE154:
 280              	.LBE153:
 281              	.LBE152:
  29:../src/zxing_lib/zxing/Reader.cpp **** }
 282              		.loc 1 29 0
 283 0138 0500A0E1 		mov	r0, r5
 284 013c 14D08DE2 		add	sp, sp, #20
 285              		.cfi_remember_state
 286              		.cfi_def_cfa_offset 20
 287              		@ sp needed
 288 0140 F080BDE8 		pop	{r4, r5, r6, r7, pc}
 289              	.LVL26:
 290              	.L16:
 291              		.cfi_restore_state
 292              	.LBB159:
 293              	.LBB151:
 294              	.LBB150:
 295              	.LBB149:
 296              	.LBB148:
  42:/home/zkmike/workspace/RZA2M/rza2m_2d_barcode_sample_freertos_gcc/src/zxing_lib/zxing/common/Counted.h ****       delete this;
 297              		.loc 2 42 0
 298 0144 01300FE3 		movw	r3, #61441
 299 0148 AD3E4DE3 		movt	r3, 57005
 300 014c 043080E5 		str	r3, [r0, #4]
  43:/home/zkmike/workspace/RZA2M/rza2m_2d_barcode_sample_freertos_gcc/src/zxing_lib/zxing/common/Counted.h ****     }
 301              		.loc 2 43 0
 302 0150 003090E5 		ldr	r3, [r0]
 303 0154 043093E5 		ldr	r3, [r3, #4]
 304 0158 33FF2FE1 		blx	r3
 305              	.LVL27:
 306 015c EDFFFFEA 		b	.L6
 307              	.LVL28:
 308              	.L17:
 309              	.LBE148:
 310              	.LBE149:
 311              	.LBE150:
 312              	.LBE151:
 313              	.LBE159:
 314              	.LBB160:
 315              	.LBB158:
 316              	.LBB157:
 317              	.LBB156:
  42:/home/zkmike/workspace/RZA2M/rza2m_2d_barcode_sample_freertos_gcc/src/zxing_lib/zxing/common/Counted.h ****       delete this;
 318              		.loc 2 42 0
 319 0160 01300FE3 		movw	r3, #61441
 320 0164 AD3E4DE3 		movt	r3, 57005
 321 0168 043080E5 		str	r3, [r0, #4]
  43:/home/zkmike/workspace/RZA2M/rza2m_2d_barcode_sample_freertos_gcc/src/zxing_lib/zxing/common/Counted.h ****     }
 322              		.loc 2 43 0
 323 016c 003090E5 		ldr	r3, [r0]
 324 0170 043093E5 		ldr	r3, [r3, #4]
 325 0174 33FF2FE1 		blx	r3
 326              	.LVL29:
 327              	.LBE156:
 328              	.LBE157:
 329              	.LBE158:
 330              	.LBE160:
  28:../src/zxing_lib/zxing/Reader.cpp **** }
 331              		.loc 1 28 0
 332 0178 EEFFFFEA 		b	.L1
 333              	.L11:
 334              	.LVL30:
 335              	.LBB161:
 336              	.LBB162:
 337              	.LBB163:
  75:/home/zkmike/workspace/RZA2M/rza2m_2d_barcode_sample_freertos_gcc/src/zxing_lib/zxing/common/Counted.h ****       object_->release();
 338              		.loc 2 75 0
 339 017c 0C009DE5 		ldr	r0, [sp, #12]
 340 0180 000050E3 		cmp	r0, #0
 341 0184 0A00000A 		beq	.L9
 342              	.LVL31:
 343              	.LBB164:
 344              	.LBB165:
  40:/home/zkmike/workspace/RZA2M/rza2m_2d_barcode_sample_freertos_gcc/src/zxing_lib/zxing/common/Counted.h ****     if (count_ == 0) {
 345              		.loc 2 40 0
 346 0188 043090E5 		ldr	r3, [r0, #4]
 347 018c 013043E2 		sub	r3, r3, #1
 348 0190 043080E5 		str	r3, [r0, #4]
  41:/home/zkmike/workspace/RZA2M/rza2m_2d_barcode_sample_freertos_gcc/src/zxing_lib/zxing/common/Counted.h ****       count_ = 0xDEADF001;
 349              		.loc 2 41 0
 350 0194 000053E3 		cmp	r3, #0
 351 0198 0500001A 		bne	.L9
  42:/home/zkmike/workspace/RZA2M/rza2m_2d_barcode_sample_freertos_gcc/src/zxing_lib/zxing/common/Counted.h ****       delete this;
 352              		.loc 2 42 0
 353 019c 01300FE3 		movw	r3, #61441
 354 01a0 AD3E4DE3 		movt	r3, 57005
 355 01a4 043080E5 		str	r3, [r0, #4]
  43:/home/zkmike/workspace/RZA2M/rza2m_2d_barcode_sample_freertos_gcc/src/zxing_lib/zxing/common/Counted.h ****     }
 356              		.loc 2 43 0
 357 01a8 003090E5 		ldr	r3, [r0]
 358 01ac 043093E5 		ldr	r3, [r3, #4]
 359 01b0 33FF2FE1 		blx	r3
 360              	.LVL32:
 361              	.L9:
 362              	.LBE165:
 363              	.LBE164:
 364              	.LBE163:
 365              	.LBE162:
 366              	.LBE161:
 367              	.LBB166:
 368              	.LBB167:
  75:/home/zkmike/workspace/RZA2M/rza2m_2d_barcode_sample_freertos_gcc/src/zxing_lib/zxing/common/Counted.h ****       object_->release();
 369              		.loc 2 75 0
 370 01b4 04009DE5 		ldr	r0, [sp, #4]
 371 01b8 000050E3 		cmp	r0, #0
 372 01bc 0A00000A 		beq	.L10
 373              	.LVL33:
 374              	.LBB168:
 375              	.LBB169:
  40:/home/zkmike/workspace/RZA2M/rza2m_2d_barcode_sample_freertos_gcc/src/zxing_lib/zxing/common/Counted.h ****     if (count_ == 0) {
 376              		.loc 2 40 0
 377 01c0 043090E5 		ldr	r3, [r0, #4]
 378 01c4 013043E2 		sub	r3, r3, #1
 379 01c8 043080E5 		str	r3, [r0, #4]
  41:/home/zkmike/workspace/RZA2M/rza2m_2d_barcode_sample_freertos_gcc/src/zxing_lib/zxing/common/Counted.h ****       count_ = 0xDEADF001;
 380              		.loc 2 41 0
 381 01cc 000053E3 		cmp	r3, #0
 382 01d0 0500001A 		bne	.L10
  42:/home/zkmike/workspace/RZA2M/rza2m_2d_barcode_sample_freertos_gcc/src/zxing_lib/zxing/common/Counted.h ****       delete this;
 383              		.loc 2 42 0
 384 01d4 01300FE3 		movw	r3, #61441
 385 01d8 AD3E4DE3 		movt	r3, 57005
 386 01dc 043080E5 		str	r3, [r0, #4]
  43:/home/zkmike/workspace/RZA2M/rza2m_2d_barcode_sample_freertos_gcc/src/zxing_lib/zxing/common/Counted.h ****     }
 387              		.loc 2 43 0
 388 01e0 003090E5 		ldr	r3, [r0]
 389 01e4 043093E5 		ldr	r3, [r3, #4]
 390 01e8 33FF2FE1 		blx	r3
 391              	.LVL34:
 392              	.L10:
 393              	.LEHB1:
 394 01ec FEFFFFEB 		bl	__cxa_end_cleanup
 395              	.LVL35:
 396              	.LEHE1:
 397              	.LBE169:
 398              	.LBE168:
 399              	.LBE167:
 400              	.LBE166:
 401              		.cfi_endproc
 402              	.LFE2257:
 403              		.global	__gxx_personality_v0
 404              		.personality	__gxx_personality_v0
 405              		.handlerdata
 406              	.LLSDA2257:
 407 0008 FF       		.byte	0xff
 408 0009 FF       		.byte	0xff
 409 000a 01       		.byte	0x1
 410 000b 0B       		.uleb128 .LLSDACSE2257-.LLSDACSB2257
 411              	.LLSDACSB2257:
 412 000c B801     		.uleb128 .LEHB0-.LFB2257
 413 000e 04       		.uleb128 .LEHE0-.LEHB0
 414 000f FC02     		.uleb128 .L11-.LFB2257
 415 0011 00       		.uleb128 0
 416 0012 EC03     		.uleb128 .LEHB1-.LFB2257
 417 0014 04       		.uleb128 .LEHE1-.LEHB1
 418 0015 00       		.uleb128 0
 419 0016 00       		.uleb128 0
 420              	.LLSDACSE2257:
 421              		.section	.text._ZN5zxing6Reader6decodeENS_3RefINS_12BinaryBitmapEEE
 422              		.fnend
 424              		.section	.text._Z41__static_initialization_and_destruction_0ii,"ax",%progbits
 425              		.align	2
 426              		.syntax unified
 427              		.arm
 428              		.fpu neon
 430              	_Z41__static_initialization_and_destruction_0ii:
 431              		.fnstart
 432              	.LFB2727:
  30:../src/zxing_lib/zxing/Reader.cpp **** 
  31:../src/zxing_lib/zxing/Reader.cpp **** }
 433              		.loc 1 31 0
 434              		.cfi_startproc
 435              		@ args = 0, pretend = 0, frame = 0
 436              		@ frame_needed = 0, uses_anonymous_args = 0
 437              	.LVL36:
 438 0000 010050E3 		cmp	r0, #1
 439 0004 1EFF2F11 		bxne	lr
 440              		.loc 1 31 0 is_stmt 0 discriminator 1
 441 0008 FF3F0FE3 		movw	r3, #65535
 442 000c 030051E1 		cmp	r1, r3
 443 0010 1EFF2F11 		bxne	lr
 444              		.loc 1 31 0
 445 0014 10402DE9 		push	{r4, lr}
 446              		.cfi_def_cfa_offset 8
 447              		.cfi_offset 4, -8
 448              		.cfi_offset 14, -4
 449              		.file 4 "/home/zkmike/.local/share/renesas/e2_studio/toolchains/gcc_arm/gcc-arm-none-eabi-6-2017-q
   1:/home/zkmike/.local/share/renesas/e2_studio/toolchains/gcc_arm/gcc-arm-none-eabi-6-2017-q2-update/arm-none-eabi/include/c++/6.3.1/iostream **** // Standard iostream objects -*- C++ -*-
   2:/home/zkmike/.local/share/renesas/e2_studio/toolchains/gcc_arm/gcc-arm-none-eabi-6-2017-q2-update/arm-none-eabi/include/c++/6.3.1/iostream **** 
   3:/home/zkmike/.local/share/renesas/e2_studio/toolchains/gcc_arm/gcc-arm-none-eabi-6-2017-q2-update/arm-none-eabi/include/c++/6.3.1/iostream **** // Copyright (C) 1997-2016 Free Software Foundation, Inc.
   4:/home/zkmike/.local/share/renesas/e2_studio/toolchains/gcc_arm/gcc-arm-none-eabi-6-2017-q2-update/arm-none-eabi/include/c++/6.3.1/iostream **** //
   5:/home/zkmike/.local/share/renesas/e2_studio/toolchains/gcc_arm/gcc-arm-none-eabi-6-2017-q2-update/arm-none-eabi/include/c++/6.3.1/iostream **** // This file is part of the GNU ISO C++ Library.  This library is free
   6:/home/zkmike/.local/share/renesas/e2_studio/toolchains/gcc_arm/gcc-arm-none-eabi-6-2017-q2-update/arm-none-eabi/include/c++/6.3.1/iostream **** // software; you can redistribute it and/or modify it under the
   7:/home/zkmike/.local/share/renesas/e2_studio/toolchains/gcc_arm/gcc-arm-none-eabi-6-2017-q2-update/arm-none-eabi/include/c++/6.3.1/iostream **** // terms of the GNU General Public License as published by the
   8:/home/zkmike/.local/share/renesas/e2_studio/toolchains/gcc_arm/gcc-arm-none-eabi-6-2017-q2-update/arm-none-eabi/include/c++/6.3.1/iostream **** // Free Software Foundation; either version 3, or (at your option)
   9:/home/zkmike/.local/share/renesas/e2_studio/toolchains/gcc_arm/gcc-arm-none-eabi-6-2017-q2-update/arm-none-eabi/include/c++/6.3.1/iostream **** // any later version.
  10:/home/zkmike/.local/share/renesas/e2_studio/toolchains/gcc_arm/gcc-arm-none-eabi-6-2017-q2-update/arm-none-eabi/include/c++/6.3.1/iostream **** 
  11:/home/zkmike/.local/share/renesas/e2_studio/toolchains/gcc_arm/gcc-arm-none-eabi-6-2017-q2-update/arm-none-eabi/include/c++/6.3.1/iostream **** // This library is distributed in the hope that it will be useful,
  12:/home/zkmike/.local/share/renesas/e2_studio/toolchains/gcc_arm/gcc-arm-none-eabi-6-2017-q2-update/arm-none-eabi/include/c++/6.3.1/iostream **** // but WITHOUT ANY WARRANTY; without even the implied warranty of
  13:/home/zkmike/.local/share/renesas/e2_studio/toolchains/gcc_arm/gcc-arm-none-eabi-6-2017-q2-update/arm-none-eabi/include/c++/6.3.1/iostream **** // MERCHANTABILITY or FITNESS FOR A PARTICULAR PURPOSE.  See the
  14:/home/zkmike/.local/share/renesas/e2_studio/toolchains/gcc_arm/gcc-arm-none-eabi-6-2017-q2-update/arm-none-eabi/include/c++/6.3.1/iostream **** // GNU General Public License for more details.
  15:/home/zkmike/.local/share/renesas/e2_studio/toolchains/gcc_arm/gcc-arm-none-eabi-6-2017-q2-update/arm-none-eabi/include/c++/6.3.1/iostream **** 
  16:/home/zkmike/.local/share/renesas/e2_studio/toolchains/gcc_arm/gcc-arm-none-eabi-6-2017-q2-update/arm-none-eabi/include/c++/6.3.1/iostream **** // Under Section 7 of GPL version 3, you are granted additional
  17:/home/zkmike/.local/share/renesas/e2_studio/toolchains/gcc_arm/gcc-arm-none-eabi-6-2017-q2-update/arm-none-eabi/include/c++/6.3.1/iostream **** // permissions described in the GCC Runtime Library Exception, version
  18:/home/zkmike/.local/share/renesas/e2_studio/toolchains/gcc_arm/gcc-arm-none-eabi-6-2017-q2-update/arm-none-eabi/include/c++/6.3.1/iostream **** // 3.1, as published by the Free Software Foundation.
  19:/home/zkmike/.local/share/renesas/e2_studio/toolchains/gcc_arm/gcc-arm-none-eabi-6-2017-q2-update/arm-none-eabi/include/c++/6.3.1/iostream **** 
  20:/home/zkmike/.local/share/renesas/e2_studio/toolchains/gcc_arm/gcc-arm-none-eabi-6-2017-q2-update/arm-none-eabi/include/c++/6.3.1/iostream **** // You should have received a copy of the GNU General Public License and
  21:/home/zkmike/.local/share/renesas/e2_studio/toolchains/gcc_arm/gcc-arm-none-eabi-6-2017-q2-update/arm-none-eabi/include/c++/6.3.1/iostream **** // a copy of the GCC Runtime Library Exception along with this program;
  22:/home/zkmike/.local/share/renesas/e2_studio/toolchains/gcc_arm/gcc-arm-none-eabi-6-2017-q2-update/arm-none-eabi/include/c++/6.3.1/iostream **** // see the files COPYING3 and COPYING.RUNTIME respectively.  If not, see
  23:/home/zkmike/.local/share/renesas/e2_studio/toolchains/gcc_arm/gcc-arm-none-eabi-6-2017-q2-update/arm-none-eabi/include/c++/6.3.1/iostream **** // <http://www.gnu.org/licenses/>.
  24:/home/zkmike/.local/share/renesas/e2_studio/toolchains/gcc_arm/gcc-arm-none-eabi-6-2017-q2-update/arm-none-eabi/include/c++/6.3.1/iostream **** 
  25:/home/zkmike/.local/share/renesas/e2_studio/toolchains/gcc_arm/gcc-arm-none-eabi-6-2017-q2-update/arm-none-eabi/include/c++/6.3.1/iostream **** /** @file include/iostream
  26:/home/zkmike/.local/share/renesas/e2_studio/toolchains/gcc_arm/gcc-arm-none-eabi-6-2017-q2-update/arm-none-eabi/include/c++/6.3.1/iostream ****  *  This is a Standard C++ Library header.
  27:/home/zkmike/.local/share/renesas/e2_studio/toolchains/gcc_arm/gcc-arm-none-eabi-6-2017-q2-update/arm-none-eabi/include/c++/6.3.1/iostream ****  */
  28:/home/zkmike/.local/share/renesas/e2_studio/toolchains/gcc_arm/gcc-arm-none-eabi-6-2017-q2-update/arm-none-eabi/include/c++/6.3.1/iostream **** 
  29:/home/zkmike/.local/share/renesas/e2_studio/toolchains/gcc_arm/gcc-arm-none-eabi-6-2017-q2-update/arm-none-eabi/include/c++/6.3.1/iostream **** //
  30:/home/zkmike/.local/share/renesas/e2_studio/toolchains/gcc_arm/gcc-arm-none-eabi-6-2017-q2-update/arm-none-eabi/include/c++/6.3.1/iostream **** // ISO C++ 14882: 27.3  Standard iostream objects
  31:/home/zkmike/.local/share/renesas/e2_studio/toolchains/gcc_arm/gcc-arm-none-eabi-6-2017-q2-update/arm-none-eabi/include/c++/6.3.1/iostream **** //
  32:/home/zkmike/.local/share/renesas/e2_studio/toolchains/gcc_arm/gcc-arm-none-eabi-6-2017-q2-update/arm-none-eabi/include/c++/6.3.1/iostream **** 
  33:/home/zkmike/.local/share/renesas/e2_studio/toolchains/gcc_arm/gcc-arm-none-eabi-6-2017-q2-update/arm-none-eabi/include/c++/6.3.1/iostream **** #ifndef _GLIBCXX_IOSTREAM
  34:/home/zkmike/.local/share/renesas/e2_studio/toolchains/gcc_arm/gcc-arm-none-eabi-6-2017-q2-update/arm-none-eabi/include/c++/6.3.1/iostream **** #define _GLIBCXX_IOSTREAM 1
  35:/home/zkmike/.local/share/renesas/e2_studio/toolchains/gcc_arm/gcc-arm-none-eabi-6-2017-q2-update/arm-none-eabi/include/c++/6.3.1/iostream **** 
  36:/home/zkmike/.local/share/renesas/e2_studio/toolchains/gcc_arm/gcc-arm-none-eabi-6-2017-q2-update/arm-none-eabi/include/c++/6.3.1/iostream **** #pragma GCC system_header
  37:/home/zkmike/.local/share/renesas/e2_studio/toolchains/gcc_arm/gcc-arm-none-eabi-6-2017-q2-update/arm-none-eabi/include/c++/6.3.1/iostream **** 
  38:/home/zkmike/.local/share/renesas/e2_studio/toolchains/gcc_arm/gcc-arm-none-eabi-6-2017-q2-update/arm-none-eabi/include/c++/6.3.1/iostream **** #include <bits/c++config.h>
  39:/home/zkmike/.local/share/renesas/e2_studio/toolchains/gcc_arm/gcc-arm-none-eabi-6-2017-q2-update/arm-none-eabi/include/c++/6.3.1/iostream **** #include <ostream>
  40:/home/zkmike/.local/share/renesas/e2_studio/toolchains/gcc_arm/gcc-arm-none-eabi-6-2017-q2-update/arm-none-eabi/include/c++/6.3.1/iostream **** #include <istream>
  41:/home/zkmike/.local/share/renesas/e2_studio/toolchains/gcc_arm/gcc-arm-none-eabi-6-2017-q2-update/arm-none-eabi/include/c++/6.3.1/iostream **** 
  42:/home/zkmike/.local/share/renesas/e2_studio/toolchains/gcc_arm/gcc-arm-none-eabi-6-2017-q2-update/arm-none-eabi/include/c++/6.3.1/iostream **** namespace std _GLIBCXX_VISIBILITY(default)
  43:/home/zkmike/.local/share/renesas/e2_studio/toolchains/gcc_arm/gcc-arm-none-eabi-6-2017-q2-update/arm-none-eabi/include/c++/6.3.1/iostream **** {
  44:/home/zkmike/.local/share/renesas/e2_studio/toolchains/gcc_arm/gcc-arm-none-eabi-6-2017-q2-update/arm-none-eabi/include/c++/6.3.1/iostream **** _GLIBCXX_BEGIN_NAMESPACE_VERSION
  45:/home/zkmike/.local/share/renesas/e2_studio/toolchains/gcc_arm/gcc-arm-none-eabi-6-2017-q2-update/arm-none-eabi/include/c++/6.3.1/iostream **** 
  46:/home/zkmike/.local/share/renesas/e2_studio/toolchains/gcc_arm/gcc-arm-none-eabi-6-2017-q2-update/arm-none-eabi/include/c++/6.3.1/iostream ****   /**
  47:/home/zkmike/.local/share/renesas/e2_studio/toolchains/gcc_arm/gcc-arm-none-eabi-6-2017-q2-update/arm-none-eabi/include/c++/6.3.1/iostream ****    *  @name Standard Stream Objects
  48:/home/zkmike/.local/share/renesas/e2_studio/toolchains/gcc_arm/gcc-arm-none-eabi-6-2017-q2-update/arm-none-eabi/include/c++/6.3.1/iostream ****    *
  49:/home/zkmike/.local/share/renesas/e2_studio/toolchains/gcc_arm/gcc-arm-none-eabi-6-2017-q2-update/arm-none-eabi/include/c++/6.3.1/iostream ****    *  The &lt;iostream&gt; header declares the eight <em>standard stream
  50:/home/zkmike/.local/share/renesas/e2_studio/toolchains/gcc_arm/gcc-arm-none-eabi-6-2017-q2-update/arm-none-eabi/include/c++/6.3.1/iostream ****    *  objects</em>.  For other declarations, see
  51:/home/zkmike/.local/share/renesas/e2_studio/toolchains/gcc_arm/gcc-arm-none-eabi-6-2017-q2-update/arm-none-eabi/include/c++/6.3.1/iostream ****    *  http://gcc.gnu.org/onlinedocs/libstdc++/manual/io.html
  52:/home/zkmike/.local/share/renesas/e2_studio/toolchains/gcc_arm/gcc-arm-none-eabi-6-2017-q2-update/arm-none-eabi/include/c++/6.3.1/iostream ****    *  and the @link iosfwd I/O forward declarations @endlink
  53:/home/zkmike/.local/share/renesas/e2_studio/toolchains/gcc_arm/gcc-arm-none-eabi-6-2017-q2-update/arm-none-eabi/include/c++/6.3.1/iostream ****    *
  54:/home/zkmike/.local/share/renesas/e2_studio/toolchains/gcc_arm/gcc-arm-none-eabi-6-2017-q2-update/arm-none-eabi/include/c++/6.3.1/iostream ****    *  They are required by default to cooperate with the global C
  55:/home/zkmike/.local/share/renesas/e2_studio/toolchains/gcc_arm/gcc-arm-none-eabi-6-2017-q2-update/arm-none-eabi/include/c++/6.3.1/iostream ****    *  library's @c FILE streams, and to be available during program
  56:/home/zkmike/.local/share/renesas/e2_studio/toolchains/gcc_arm/gcc-arm-none-eabi-6-2017-q2-update/arm-none-eabi/include/c++/6.3.1/iostream ****    *  startup and termination. For more information, see the section of the
  57:/home/zkmike/.local/share/renesas/e2_studio/toolchains/gcc_arm/gcc-arm-none-eabi-6-2017-q2-update/arm-none-eabi/include/c++/6.3.1/iostream ****    *  manual linked to above.
  58:/home/zkmike/.local/share/renesas/e2_studio/toolchains/gcc_arm/gcc-arm-none-eabi-6-2017-q2-update/arm-none-eabi/include/c++/6.3.1/iostream ****   */
  59:/home/zkmike/.local/share/renesas/e2_studio/toolchains/gcc_arm/gcc-arm-none-eabi-6-2017-q2-update/arm-none-eabi/include/c++/6.3.1/iostream ****   //@{
  60:/home/zkmike/.local/share/renesas/e2_studio/toolchains/gcc_arm/gcc-arm-none-eabi-6-2017-q2-update/arm-none-eabi/include/c++/6.3.1/iostream ****   extern istream cin;		/// Linked to standard input
  61:/home/zkmike/.local/share/renesas/e2_studio/toolchains/gcc_arm/gcc-arm-none-eabi-6-2017-q2-update/arm-none-eabi/include/c++/6.3.1/iostream ****   extern ostream cout;		/// Linked to standard output
  62:/home/zkmike/.local/share/renesas/e2_studio/toolchains/gcc_arm/gcc-arm-none-eabi-6-2017-q2-update/arm-none-eabi/include/c++/6.3.1/iostream ****   extern ostream cerr;		/// Linked to standard error (unbuffered)
  63:/home/zkmike/.local/share/renesas/e2_studio/toolchains/gcc_arm/gcc-arm-none-eabi-6-2017-q2-update/arm-none-eabi/include/c++/6.3.1/iostream ****   extern ostream clog;		/// Linked to standard error (buffered)
  64:/home/zkmike/.local/share/renesas/e2_studio/toolchains/gcc_arm/gcc-arm-none-eabi-6-2017-q2-update/arm-none-eabi/include/c++/6.3.1/iostream **** 
  65:/home/zkmike/.local/share/renesas/e2_studio/toolchains/gcc_arm/gcc-arm-none-eabi-6-2017-q2-update/arm-none-eabi/include/c++/6.3.1/iostream **** #ifdef _GLIBCXX_USE_WCHAR_T
  66:/home/zkmike/.local/share/renesas/e2_studio/toolchains/gcc_arm/gcc-arm-none-eabi-6-2017-q2-update/arm-none-eabi/include/c++/6.3.1/iostream ****   extern wistream wcin;		/// Linked to standard input
  67:/home/zkmike/.local/share/renesas/e2_studio/toolchains/gcc_arm/gcc-arm-none-eabi-6-2017-q2-update/arm-none-eabi/include/c++/6.3.1/iostream ****   extern wostream wcout;	/// Linked to standard output
  68:/home/zkmike/.local/share/renesas/e2_studio/toolchains/gcc_arm/gcc-arm-none-eabi-6-2017-q2-update/arm-none-eabi/include/c++/6.3.1/iostream ****   extern wostream wcerr;	/// Linked to standard error (unbuffered)
  69:/home/zkmike/.local/share/renesas/e2_studio/toolchains/gcc_arm/gcc-arm-none-eabi-6-2017-q2-update/arm-none-eabi/include/c++/6.3.1/iostream ****   extern wostream wclog;	/// Linked to standard error (buffered)
  70:/home/zkmike/.local/share/renesas/e2_studio/toolchains/gcc_arm/gcc-arm-none-eabi-6-2017-q2-update/arm-none-eabi/include/c++/6.3.1/iostream **** #endif
  71:/home/zkmike/.local/share/renesas/e2_studio/toolchains/gcc_arm/gcc-arm-none-eabi-6-2017-q2-update/arm-none-eabi/include/c++/6.3.1/iostream ****   //@}
  72:/home/zkmike/.local/share/renesas/e2_studio/toolchains/gcc_arm/gcc-arm-none-eabi-6-2017-q2-update/arm-none-eabi/include/c++/6.3.1/iostream **** 
  73:/home/zkmike/.local/share/renesas/e2_studio/toolchains/gcc_arm/gcc-arm-none-eabi-6-2017-q2-update/arm-none-eabi/include/c++/6.3.1/iostream ****   // For construction of filebuffers for cout, cin, cerr, clog et. al.
  74:/home/zkmike/.local/share/renesas/e2_studio/toolchains/gcc_arm/gcc-arm-none-eabi-6-2017-q2-update/arm-none-eabi/include/c++/6.3.1/iostream ****   static ios_base::Init __ioinit;
 450              		.loc 4 74 0 is_stmt 1
 451 0018 004000E3 		movw	r4, #:lower16:.LANCHOR0
 452 001c 004040E3 		movt	r4, #:upper16:.LANCHOR0
 453 0020 0400A0E1 		mov	r0, r4
 454              	.LVL37:
 455 0024 FEFFFFEB 		bl	_ZNSt8ios_base4InitC1Ev
 456              	.LVL38:
 457 0028 002000E3 		movw	r2, #:lower16:__dso_handle
 458 002c 002040E3 		movt	r2, #:upper16:__dso_handle
 459 0030 001000E3 		movw	r1, #:lower16:_ZNSt8ios_base4InitD1Ev
 460 0034 001040E3 		movt	r1, #:upper16:_ZNSt8ios_base4InitD1Ev
 461 0038 0400A0E1 		mov	r0, r4
 462 003c FEFFFFEB 		bl	__aeabi_atexit
 463              	.LVL39:
 464 0040 1080BDE8 		pop	{r4, pc}
 465              		.cfi_endproc
 466              	.LFE2727:
 467              		.cantunwind
 468              		.fnend
 470              		.section	.text._ZN5zxing6ReaderD2Ev,"ax",%progbits
 471              		.align	2
 472              		.global	_ZN5zxing6ReaderD2Ev
 473              		.syntax unified
 474              		.arm
 475              		.fpu neon
 477              	_ZN5zxing6ReaderD2Ev:
 478              		.fnstart
 479              	.LFB2254:
  25:../src/zxing_lib/zxing/Reader.cpp **** 
 480              		.loc 1 25 0
 481              		.cfi_startproc
 482              		@ args = 0, pretend = 0, frame = 0
 483              		@ frame_needed = 0, uses_anonymous_args = 0
 484              		@ link register save eliminated.
 485              	.LVL40:
  25:../src/zxing_lib/zxing/Reader.cpp **** 
 486              		.loc 1 25 0
 487 0000 1EFF2FE1 		bx	lr
 488              		.cfi_endproc
 489              	.LFE2254:
 490              		.cantunwind
 491              		.fnend
 493              		.global	_ZN5zxing6ReaderD1Ev
 494              		.set	_ZN5zxing6ReaderD1Ev,_ZN5zxing6ReaderD2Ev
 495              		.section	.text._ZN5zxing6ReaderD0Ev,"ax",%progbits
 496              		.align	2
 497              		.global	_ZN5zxing6ReaderD0Ev
 498              		.syntax unified
 499              		.arm
 500              		.fpu neon
 502              	_ZN5zxing6ReaderD0Ev:
 503              		.fnstart
 504              	.LFB2256:
  25:../src/zxing_lib/zxing/Reader.cpp **** 
 505              		.loc 1 25 0
 506              		.cfi_startproc
 507              		@ args = 0, pretend = 0, frame = 0
 508              		@ frame_needed = 0, uses_anonymous_args = 0
 509              	.LVL41:
 510 0000 10402DE9 		push	{r4, lr}
 511              		.cfi_def_cfa_offset 8
 512              		.cfi_offset 4, -8
 513              		.cfi_offset 14, -4
 514 0004 0040A0E1 		mov	r4, r0
  25:../src/zxing_lib/zxing/Reader.cpp **** 
 515              		.loc 1 25 0
 516 0008 0810A0E3 		mov	r1, #8
 517 000c FEFFFFEB 		bl	_ZdlPvj
 518              	.LVL42:
 519 0010 0400A0E1 		mov	r0, r4
 520 0014 1080BDE8 		pop	{r4, pc}
 521              		.cfi_endproc
 522              	.LFE2256:
 523              		.cantunwind
 524              		.fnend
 526              		.section	.text._GLOBAL__sub_I__ZN5zxing6ReaderD2Ev,"ax",%progbits
 527              		.align	2
 528              		.syntax unified
 529              		.arm
 530              		.fpu neon
 532              	_GLOBAL__sub_I__ZN5zxing6ReaderD2Ev:
 533              		.fnstart
 534              	.LFB2728:
 535              		.loc 1 31 0
 536              		.cfi_startproc
 537              		@ args = 0, pretend = 0, frame = 0
 538              		@ frame_needed = 0, uses_anonymous_args = 0
 539 0000 10402DE9 		push	{r4, lr}
 540              		.cfi_def_cfa_offset 8
 541              		.cfi_offset 4, -8
 542              		.cfi_offset 14, -4
 543              		.loc 1 31 0
 544 0004 FF1F0FE3 		movw	r1, #65535
 545 0008 0100A0E3 		mov	r0, #1
 546 000c FEFFFFEB 		bl	_Z41__static_initialization_and_destruction_0ii
 547              	.LVL43:
 548 0010 1080BDE8 		pop	{r4, pc}
 549              		.cfi_endproc
 550              	.LFE2728:
 551              		.cantunwind
 552              		.fnend
 554              		.section	.init_array,"aw",%init_array
 555              		.align	2
 556 0000 00000000 		.word	_GLOBAL__sub_I__ZN5zxing6ReaderD2Ev(target1)
 557              		.weak	_ZTSN5zxing7CountedE
 558              		.section	.rodata._ZTSN5zxing7CountedE,"aG",%progbits,_ZTSN5zxing7CountedE,comdat
 559              		.align	2
 562              	_ZTSN5zxing7CountedE:
 563 0000 4E357A78 		.ascii	"N5zxing7CountedE\000"
 563      696E6737 
 563      436F756E 
 563      74656445 
 563      00
 564              		.weak	_ZTIN5zxing7CountedE
 565              		.section	.rodata._ZTIN5zxing7CountedE,"aG",%progbits,_ZTIN5zxing7CountedE,comdat
 566              		.align	2
 569              	_ZTIN5zxing7CountedE:
 570 0000 08000000 		.word	_ZTVN10__cxxabiv117__class_type_infoE+8
 571 0004 00000000 		.word	_ZTSN5zxing7CountedE
 572              		.global	_ZTSN5zxing6ReaderE
 573              		.global	_ZTIN5zxing6ReaderE
 574              		.global	_ZTVN5zxing6ReaderE
 575              		.section	.bss._ZStL8__ioinit,"aw",%nobits
 576              		.align	2
 577              		.set	.LANCHOR0,. + 0
 580              	_ZStL8__ioinit:
 581 0000 00       		.space	1
 582              		.section	.rodata._ZTIN5zxing6ReaderE,"a",%progbits
 583              		.align	2
 586              	_ZTIN5zxing6ReaderE:
 587 0000 08000000 		.word	_ZTVN10__cxxabiv120__si_class_type_infoE+8
 588 0004 00000000 		.word	_ZTSN5zxing6ReaderE
 589 0008 00000000 		.word	_ZTIN5zxing7CountedE
 590              		.section	.rodata._ZTSN5zxing6ReaderE,"a",%progbits
 591              		.align	2
 594              	_ZTSN5zxing6ReaderE:
 595 0000 4E357A78 		.ascii	"N5zxing6ReaderE\000"
 595      696E6736 
 595      52656164 
 595      65724500 
 596              		.section	.rodata._ZTVN5zxing6ReaderE,"a",%progbits
 597              		.align	2
 600              	_ZTVN5zxing6ReaderE:
 601 0000 00000000 		.word	0
 602 0004 00000000 		.word	_ZTIN5zxing6ReaderE
 603 0008 00000000 		.word	0
 604 000c 00000000 		.word	0
 605 0010 00000000 		.word	_ZN5zxing6Reader6decodeENS_3RefINS_12BinaryBitmapEEE
 606 0014 00000000 		.word	__cxa_pure_virtual
 607              		.text
 608              	.Letext0:
 609              		.file 5 "/home/zkmike/.local/share/renesas/e2_studio/toolchains/gcc_arm/gcc-arm-none-eabi-6-2017-q
 610              		.file 6 "/home/zkmike/.local/share/renesas/e2_studio/toolchains/gcc_arm/gcc-arm-none-eabi-6-2017-q
 611              		.file 7 "/home/zkmike/.local/share/renesas/e2_studio/toolchains/gcc_arm/gcc-arm-none-eabi-6-2017-q
 612              		.file 8 "/home/zkmike/.local/share/renesas/e2_studio/toolchains/gcc_arm/gcc-arm-none-eabi-6-2017-q
 613              		.file 9 "/home/zkmike/.local/share/renesas/e2_studio/toolchains/gcc_arm/gcc-arm-none-eabi-6-2017-q
 614              		.file 10 "/home/zkmike/.local/share/renesas/e2_studio/toolchains/gcc_arm/gcc-arm-none-eabi-6-2017-
 615              		.file 11 "/home/zkmike/.local/share/renesas/e2_studio/toolchains/gcc_arm/gcc-arm-none-eabi-6-2017-
 616              		.file 12 "/home/zkmike/.local/share/renesas/e2_studio/toolchains/gcc_arm/gcc-arm-none-eabi-6-2017-
 617              		.file 13 "/home/zkmike/.local/share/renesas/e2_studio/toolchains/gcc_arm/gcc-arm-none-eabi-6-2017-
 618              		.file 14 "/home/zkmike/.local/share/renesas/e2_studio/toolchains/gcc_arm/gcc-arm-none-eabi-6-2017-
 619              		.file 15 "/home/zkmike/.local/share/renesas/e2_studio/toolchains/gcc_arm/gcc-arm-none-eabi-6-2017-
 620              		.file 16 "/home/zkmike/.local/share/renesas/e2_studio/toolchains/gcc_arm/gcc-arm-none-eabi-6-2017-
 621              		.file 17 "/home/zkmike/.local/share/renesas/e2_studio/toolchains/gcc_arm/gcc-arm-none-eabi-6-2017-
 622              		.file 18 "/home/zkmike/.local/share/renesas/e2_studio/toolchains/gcc_arm/gcc-arm-none-eabi-6-2017-
 623              		.file 19 "/home/zkmike/.local/share/renesas/e2_studio/toolchains/gcc_arm/gcc-arm-none-eabi-6-2017-
 624              		.file 20 "/home/zkmike/.local/share/renesas/e2_studio/toolchains/gcc_arm/gcc-arm-none-eabi-6-2017-
 625              		.file 21 "/home/zkmike/.local/share/renesas/e2_studio/toolchains/gcc_arm/gcc-arm-none-eabi-6-2017-
 626              		.file 22 "/home/zkmike/.local/share/renesas/e2_studio/toolchains/gcc_arm/gcc-arm-none-eabi-6-2017-
 627              		.file 23 "/home/zkmike/.local/share/renesas/e2_studio/toolchains/gcc_arm/gcc-arm-none-eabi-6-2017-
 628              		.file 24 "/home/zkmike/.local/share/renesas/e2_studio/toolchains/gcc_arm/gcc-arm-none-eabi-6-2017-
 629              		.file 25 "/home/zkmike/.local/share/renesas/e2_studio/toolchains/gcc_arm/gcc-arm-none-eabi-6-2017-
 630              		.file 26 "/home/zkmike/.local/share/renesas/e2_studio/toolchains/gcc_arm/gcc-arm-none-eabi-6-2017-
 631              		.file 27 "/home/zkmike/.local/share/renesas/e2_studio/toolchains/gcc_arm/gcc-arm-none-eabi-6-2017-
 632              		.file 28 "/home/zkmike/.local/share/renesas/e2_studio/toolchains/gcc_arm/gcc-arm-none-eabi-6-2017-
 633              		.file 29 "/home/zkmike/.local/share/renesas/e2_studio/toolchains/gcc_arm/gcc-arm-none-eabi-6-2017-
 634              		.file 30 "/home/zkmike/.local/share/renesas/e2_studio/toolchains/gcc_arm/gcc-arm-none-eabi-6-2017-
 635              		.file 31 "/home/zkmike/.local/share/renesas/e2_studio/toolchains/gcc_arm/gcc-arm-none-eabi-6-2017-
 636              		.file 32 "<built-in>"
 637              		.file 33 "/home/zkmike/.local/share/renesas/e2_studio/toolchains/gcc_arm/gcc-arm-none-eabi-6-2017-
 638              		.file 34 "/home/zkmike/.local/share/renesas/e2_studio/toolchains/gcc_arm/gcc-arm-none-eabi-6-2017-
 639              		.file 35 "/home/zkmike/.local/share/renesas/e2_studio/toolchains/gcc_arm/gcc-arm-none-eabi-6-2017-
 640              		.file 36 "/home/zkmike/.local/share/renesas/e2_studio/toolchains/gcc_arm/gcc-arm-none-eabi-6-2017-
 641              		.file 37 "/home/zkmike/.local/share/renesas/e2_studio/toolchains/gcc_arm/gcc-arm-none-eabi-6-2017-
 642              		.file 38 "/home/zkmike/.local/share/renesas/e2_studio/toolchains/gcc_arm/gcc-arm-none-eabi-6-2017-
 643              		.file 39 "/home/zkmike/.local/share/renesas/e2_studio/toolchains/gcc_arm/gcc-arm-none-eabi-6-2017-
 644              		.file 40 "/home/zkmike/.local/share/renesas/e2_studio/toolchains/gcc_arm/gcc-arm-none-eabi-6-2017-
 645              		.file 41 "/home/zkmike/.local/share/renesas/e2_studio/toolchains/gcc_arm/gcc-arm-none-eabi-6-2017-
 646              		.file 42 "/home/zkmike/.local/share/renesas/e2_studio/toolchains/gcc_arm/gcc-arm-none-eabi-6-2017-
 647              		.file 43 "/home/zkmike/.local/share/renesas/e2_studio/toolchains/gcc_arm/gcc-arm-none-eabi-6-2017-
 648              		.file 44 "/home/zkmike/workspace/RZA2M/rza2m_2d_barcode_sample_freertos_gcc/src/zxing_lib/zxing/Ba
 649              		.file 45 "/home/zkmike/workspace/RZA2M/rza2m_2d_barcode_sample_freertos_gcc/src/zxing_lib/zxing/Re