   1              		.cpu cortex-a9
   2              		.eabi_attribute 28, 1
   3              		.eabi_attribute 20, 1
   4              		.eabi_attribute 21, 1
   5              		.eabi_attribute 23, 3
   6              		.eabi_attribute 24, 1
   7              		.eabi_attribute 25, 1
   8              		.eabi_attribute 26, 1
   9              		.eabi_attribute 30, 1
  10              		.eabi_attribute 34, 0
  11              		.eabi_attribute 18, 4
  12              		.file	"ResultPointCallback.cpp"
  13              		.text
  14              	.Ltext0:
  15              		.cfi_sections	.debug_frame
  16              		.section	.text._Z41__static_initialization_and_destruction_0ii,"ax",%progbits
  17              		.align	2
  18              		.syntax unified
  19              		.arm
  20              		.fpu neon
  22              	_Z41__static_initialization_and_destruction_0ii:
  23              		.fnstart
  24              	.LFB1904:
  25              		.file 1 "../src/zxing_lib/zxing/ResultPointCallback.cpp"
   1:../src/zxing_lib/zxing/ResultPointCallback.cpp **** /*
   2:../src/zxing_lib/zxing/ResultPointCallback.cpp ****  *  ResultPointCallback.cpp
   3:../src/zxing_lib/zxing/ResultPointCallback.cpp ****  *  zxing
   4:../src/zxing_lib/zxing/ResultPointCallback.cpp ****  *
   5:../src/zxing_lib/zxing/ResultPointCallback.cpp ****  *  Copyright 2010 ZXing authors All rights reserved.
   6:../src/zxing_lib/zxing/ResultPointCallback.cpp ****  *
   7:../src/zxing_lib/zxing/ResultPointCallback.cpp ****  * Licensed under the Apache License, Version 2.0 (the "License");
   8:../src/zxing_lib/zxing/ResultPointCallback.cpp ****  * you may not use this file except in compliance with the License.
   9:../src/zxing_lib/zxing/ResultPointCallback.cpp ****  * You may obtain a copy of the License at
  10:../src/zxing_lib/zxing/ResultPointCallback.cpp ****  *
  11:../src/zxing_lib/zxing/ResultPointCallback.cpp ****  *      http://www.apache.org/licenses/LICENSE-2.0
  12:../src/zxing_lib/zxing/ResultPointCallback.cpp ****  *
  13:../src/zxing_lib/zxing/ResultPointCallback.cpp ****  * Unless required by applicable law or agreed to in writing, software
  14:../src/zxing_lib/zxing/ResultPointCallback.cpp ****  * distributed under the License is distributed on an "AS IS" BASIS,
  15:../src/zxing_lib/zxing/ResultPointCallback.cpp ****  * WITHOUT WARRANTIES OR CONDITIONS OF ANY KIND, either express or implied.
  16:../src/zxing_lib/zxing/ResultPointCallback.cpp ****  * See the License for the specific language governing permissions and
  17:../src/zxing_lib/zxing/ResultPointCallback.cpp ****  * limitations under the License.
  18:../src/zxing_lib/zxing/ResultPointCallback.cpp ****  */
  19:../src/zxing_lib/zxing/ResultPointCallback.cpp **** 
  20:../src/zxing_lib/zxing/ResultPointCallback.cpp **** #include <zxing/ResultPointCallback.h>
  21:../src/zxing_lib/zxing/ResultPointCallback.cpp **** 
  22:../src/zxing_lib/zxing/ResultPointCallback.cpp **** namespace zxing {
  23:../src/zxing_lib/zxing/ResultPointCallback.cpp **** 
  24:../src/zxing_lib/zxing/ResultPointCallback.cpp **** ResultPointCallback::~ResultPointCallback() {}
  25:../src/zxing_lib/zxing/ResultPointCallback.cpp **** 
  26:../src/zxing_lib/zxing/ResultPointCallback.cpp **** }
  26              		.loc 1 26 0
  27              		.cfi_startproc
  28              		@ args = 0, pretend = 0, frame = 0
  29              		@ frame_needed = 0, uses_anonymous_args = 0
  30              	.LVL0:
  31 0000 010050E3 		cmp	r0, #1
  32 0004 1EFF2F11 		bxne	lr
  33              		.loc 1 26 0 is_stmt 0 discriminator 1
  34 0008 FF3F0FE3 		movw	r3, #65535
  35 000c 030051E1 		cmp	r1, r3
  36 0010 1EFF2F11 		bxne	lr
  37              		.loc 1 26 0
  38 0014 10402DE9 		push	{r4, lr}
  39              		.cfi_def_cfa_offset 8
  40              		.cfi_offset 4, -8
  41              		.cfi_offset 14, -4
  42              		.file 2 "/home/zkmike/.local/share/renesas/e2_studio/toolchains/gcc_arm/gcc-arm-none-eabi-6-2017-q
   1:/home/zkmike/.local/share/renesas/e2_studio/toolchains/gcc_arm/gcc-arm-none-eabi-6-2017-q2-update/arm-none-eabi/include/c++/6.3.1/iostream **** // Standard iostream objects -*- C++ -*-
   2:/home/zkmike/.local/share/renesas/e2_studio/toolchains/gcc_arm/gcc-arm-none-eabi-6-2017-q2-update/arm-none-eabi/include/c++/6.3.1/iostream **** 
   3:/home/zkmike/.local/share/renesas/e2_studio/toolchains/gcc_arm/gcc-arm-none-eabi-6-2017-q2-update/arm-none-eabi/include/c++/6.3.1/iostream **** // Copyright (C) 1997-2016 Free Software Foundation, Inc.
   4:/home/zkmike/.local/share/renesas/e2_studio/toolchains/gcc_arm/gcc-arm-none-eabi-6-2017-q2-update/arm-none-eabi/include/c++/6.3.1/iostream **** //
   5:/home/zkmike/.local/share/renesas/e2_studio/toolchains/gcc_arm/gcc-arm-none-eabi-6-2017-q2-update/arm-none-eabi/include/c++/6.3.1/iostream **** // This file is part of the GNU ISO C++ Library.  This library is free
   6:/home/zkmike/.local/share/renesas/e2_studio/toolchains/gcc_arm/gcc-arm-none-eabi-6-2017-q2-update/arm-none-eabi/include/c++/6.3.1/iostream **** // software; you can redistribute it and/or modify it under the
   7:/home/zkmike/.local/share/renesas/e2_studio/toolchains/gcc_arm/gcc-arm-none-eabi-6-2017-q2-update/arm-none-eabi/include/c++/6.3.1/iostream **** // terms of the GNU General Public License as published by the
   8:/home/zkmike/.local/share/renesas/e2_studio/toolchains/gcc_arm/gcc-arm-none-eabi-6-2017-q2-update/arm-none-eabi/include/c++/6.3.1/iostream **** // Free Software Foundation; either version 3, or (at your option)
   9:/home/zkmike/.local/share/renesas/e2_studio/toolchains/gcc_arm/gcc-arm-none-eabi-6-2017-q2-update/arm-none-eabi/include/c++/6.3.1/iostream **** // any later version.
  10:/home/zkmike/.local/share/renesas/e2_studio/toolchains/gcc_arm/gcc-arm-none-eabi-6-2017-q2-update/arm-none-eabi/include/c++/6.3.1/iostream **** 
  11:/home/zkmike/.local/share/renesas/e2_studio/toolchains/gcc_arm/gcc-arm-none-eabi-6-2017-q2-update/arm-none-eabi/include/c++/6.3.1/iostream **** // This library is distributed in the hope that it will be useful,
  12:/home/zkmike/.local/share/renesas/e2_studio/toolchains/gcc_arm/gcc-arm-none-eabi-6-2017-q2-update/arm-none-eabi/include/c++/6.3.1/iostream **** // but WITHOUT ANY WARRANTY; without even the implied warranty of
  13:/home/zkmike/.local/share/renesas/e2_studio/toolchains/gcc_arm/gcc-arm-none-eabi-6-2017-q2-update/arm-none-eabi/include/c++/6.3.1/iostream **** // MERCHANTABILITY or FITNESS FOR A PARTICULAR PURPOSE.  See the
  14:/home/zkmike/.local/share/renesas/e2_studio/toolchains/gcc_arm/gcc-arm-none-eabi-6-2017-q2-update/arm-none-eabi/include/c++/6.3.1/iostream **** // GNU General Public License for more details.
  15:/home/zkmike/.local/share/renesas/e2_studio/toolchains/gcc_arm/gcc-arm-none-eabi-6-2017-q2-update/arm-none-eabi/include/c++/6.3.1/iostream **** 
  16:/home/zkmike/.local/share/renesas/e2_studio/toolchains/gcc_arm/gcc-arm-none-eabi-6-2017-q2-update/arm-none-eabi/include/c++/6.3.1/iostream **** // Under Section 7 of GPL version 3, you are granted additional
  17:/home/zkmike/.local/share/renesas/e2_studio/toolchains/gcc_arm/gcc-arm-none-eabi-6-2017-q2-update/arm-none-eabi/include/c++/6.3.1/iostream **** // permissions described in the GCC Runtime Library Exception, version
  18:/home/zkmike/.local/share/renesas/e2_studio/toolchains/gcc_arm/gcc-arm-none-eabi-6-2017-q2-update/arm-none-eabi/include/c++/6.3.1/iostream **** // 3.1, as published by the Free Software Foundation.
  19:/home/zkmike/.local/share/renesas/e2_studio/toolchains/gcc_arm/gcc-arm-none-eabi-6-2017-q2-update/arm-none-eabi/include/c++/6.3.1/iostream **** 
  20:/home/zkmike/.local/share/renesas/e2_studio/toolchains/gcc_arm/gcc-arm-none-eabi-6-2017-q2-update/arm-none-eabi/include/c++/6.3.1/iostream **** // You should have received a copy of the GNU General Public License and
  21:/home/zkmike/.local/share/renesas/e2_studio/toolchains/gcc_arm/gcc-arm-none-eabi-6-2017-q2-update/arm-none-eabi/include/c++/6.3.1/iostream **** // a copy of the GCC Runtime Library Exception along with this program;
  22:/home/zkmike/.local/share/renesas/e2_studio/toolchains/gcc_arm/gcc-arm-none-eabi-6-2017-q2-update/arm-none-eabi/include/c++/6.3.1/iostream **** // see the files COPYING3 and COPYING.RUNTIME respectively.  If not, see
  23:/home/zkmike/.local/share/renesas/e2_studio/toolchains/gcc_arm/gcc-arm-none-eabi-6-2017-q2-update/arm-none-eabi/include/c++/6.3.1/iostream **** // <http://www.gnu.org/licenses/>.
  24:/home/zkmike/.local/share/renesas/e2_studio/toolchains/gcc_arm/gcc-arm-none-eabi-6-2017-q2-update/arm-none-eabi/include/c++/6.3.1/iostream **** 
  25:/home/zkmike/.local/share/renesas/e2_studio/toolchains/gcc_arm/gcc-arm-none-eabi-6-2017-q2-update/arm-none-eabi/include/c++/6.3.1/iostream **** /** @file include/iostream
  26:/home/zkmike/.local/share/renesas/e2_studio/toolchains/gcc_arm/gcc-arm-none-eabi-6-2017-q2-update/arm-none-eabi/include/c++/6.3.1/iostream ****  *  This is a Standard C++ Library header.
  27:/home/zkmike/.local/share/renesas/e2_studio/toolchains/gcc_arm/gcc-arm-none-eabi-6-2017-q2-update/arm-none-eabi/include/c++/6.3.1/iostream ****  */
  28:/home/zkmike/.local/share/renesas/e2_studio/toolchains/gcc_arm/gcc-arm-none-eabi-6-2017-q2-update/arm-none-eabi/include/c++/6.3.1/iostream **** 
  29:/home/zkmike/.local/share/renesas/e2_studio/toolchains/gcc_arm/gcc-arm-none-eabi-6-2017-q2-update/arm-none-eabi/include/c++/6.3.1/iostream **** //
  30:/home/zkmike/.local/share/renesas/e2_studio/toolchains/gcc_arm/gcc-arm-none-eabi-6-2017-q2-update/arm-none-eabi/include/c++/6.3.1/iostream **** // ISO C++ 14882: 27.3  Standard iostream objects
  31:/home/zkmike/.local/share/renesas/e2_studio/toolchains/gcc_arm/gcc-arm-none-eabi-6-2017-q2-update/arm-none-eabi/include/c++/6.3.1/iostream **** //
  32:/home/zkmike/.local/share/renesas/e2_studio/toolchains/gcc_arm/gcc-arm-none-eabi-6-2017-q2-update/arm-none-eabi/include/c++/6.3.1/iostream **** 
  33:/home/zkmike/.local/share/renesas/e2_studio/toolchains/gcc_arm/gcc-arm-none-eabi-6-2017-q2-update/arm-none-eabi/include/c++/6.3.1/iostream **** #ifndef _GLIBCXX_IOSTREAM
  34:/home/zkmike/.local/share/renesas/e2_studio/toolchains/gcc_arm/gcc-arm-none-eabi-6-2017-q2-update/arm-none-eabi/include/c++/6.3.1/iostream **** #define _GLIBCXX_IOSTREAM 1
  35:/home/zkmike/.local/share/renesas/e2_studio/toolchains/gcc_arm/gcc-arm-none-eabi-6-2017-q2-update/arm-none-eabi/include/c++/6.3.1/iostream **** 
  36:/home/zkmike/.local/share/renesas/e2_studio/toolchains/gcc_arm/gcc-arm-none-eabi-6-2017-q2-update/arm-none-eabi/include/c++/6.3.1/iostream **** #pragma GCC system_header
  37:/home/zkmike/.local/share/renesas/e2_studio/toolchains/gcc_arm/gcc-arm-none-eabi-6-2017-q2-update/arm-none-eabi/include/c++/6.3.1/iostream **** 
  38:/home/zkmike/.local/share/renesas/e2_studio/toolchains/gcc_arm/gcc-arm-none-eabi-6-2017-q2-update/arm-none-eabi/include/c++/6.3.1/iostream **** #include <bits/c++config.h>
  39:/home/zkmike/.local/share/renesas/e2_studio/toolchains/gcc_arm/gcc-arm-none-eabi-6-2017-q2-update/arm-none-eabi/include/c++/6.3.1/iostream **** #include <ostream>
  40:/home/zkmike/.local/share/renesas/e2_studio/toolchains/gcc_arm/gcc-arm-none-eabi-6-2017-q2-update/arm-none-eabi/include/c++/6.3.1/iostream **** #include <istream>
  41:/home/zkmike/.local/share/renesas/e2_studio/toolchains/gcc_arm/gcc-arm-none-eabi-6-2017-q2-update/arm-none-eabi/include/c++/6.3.1/iostream **** 
  42:/home/zkmike/.local/share/renesas/e2_studio/toolchains/gcc_arm/gcc-arm-none-eabi-6-2017-q2-update/arm-none-eabi/include/c++/6.3.1/iostream **** namespace std _GLIBCXX_VISIBILITY(default)
  43:/home/zkmike/.local/share/renesas/e2_studio/toolchains/gcc_arm/gcc-arm-none-eabi-6-2017-q2-update/arm-none-eabi/include/c++/6.3.1/iostream **** {
  44:/home/zkmike/.local/share/renesas/e2_studio/toolchains/gcc_arm/gcc-arm-none-eabi-6-2017-q2-update/arm-none-eabi/include/c++/6.3.1/iostream **** _GLIBCXX_BEGIN_NAMESPACE_VERSION
  45:/home/zkmike/.local/share/renesas/e2_studio/toolchains/gcc_arm/gcc-arm-none-eabi-6-2017-q2-update/arm-none-eabi/include/c++/6.3.1/iostream **** 
  46:/home/zkmike/.local/share/renesas/e2_studio/toolchains/gcc_arm/gcc-arm-none-eabi-6-2017-q2-update/arm-none-eabi/include/c++/6.3.1/iostream ****   /**
  47:/home/zkmike/.local/share/renesas/e2_studio/toolchains/gcc_arm/gcc-arm-none-eabi-6-2017-q2-update/arm-none-eabi/include/c++/6.3.1/iostream ****    *  @name Standard Stream Objects
  48:/home/zkmike/.local/share/renesas/e2_studio/toolchains/gcc_arm/gcc-arm-none-eabi-6-2017-q2-update/arm-none-eabi/include/c++/6.3.1/iostream ****    *
  49:/home/zkmike/.local/share/renesas/e2_studio/toolchains/gcc_arm/gcc-arm-none-eabi-6-2017-q2-update/arm-none-eabi/include/c++/6.3.1/iostream ****    *  The &lt;iostream&gt; header declares the eight <em>standard stream
  50:/home/zkmike/.local/share/renesas/e2_studio/toolchains/gcc_arm/gcc-arm-none-eabi-6-2017-q2-update/arm-none-eabi/include/c++/6.3.1/iostream ****    *  objects</em>.  For other declarations, see
  51:/home/zkmike/.local/share/renesas/e2_studio/toolchains/gcc_arm/gcc-arm-none-eabi-6-2017-q2-update/arm-none-eabi/include/c++/6.3.1/iostream ****    *  http://gcc.gnu.org/onlinedocs/libstdc++/manual/io.html
  52:/home/zkmike/.local/share/renesas/e2_studio/toolchains/gcc_arm/gcc-arm-none-eabi-6-2017-q2-update/arm-none-eabi/include/c++/6.3.1/iostream ****    *  and the @link iosfwd I/O forward declarations @endlink
  53:/home/zkmike/.local/share/renesas/e2_studio/toolchains/gcc_arm/gcc-arm-none-eabi-6-2017-q2-update/arm-none-eabi/include/c++/6.3.1/iostream ****    *
  54:/home/zkmike/.local/share/renesas/e2_studio/toolchains/gcc_arm/gcc-arm-none-eabi-6-2017-q2-update/arm-none-eabi/include/c++/6.3.1/iostream ****    *  They are required by default to cooperate with the global C
  55:/home/zkmike/.local/share/renesas/e2_studio/toolchains/gcc_arm/gcc-arm-none-eabi-6-2017-q2-update/arm-none-eabi/include/c++/6.3.1/iostream ****    *  library's @c FILE streams, and to be available during program
  56:/home/zkmike/.local/share/renesas/e2_studio/toolchains/gcc_arm/gcc-arm-none-eabi-6-2017-q2-update/arm-none-eabi/include/c++/6.3.1/iostream ****    *  startup and termination. For more information, see the section of the
  57:/home/zkmike/.local/share/renesas/e2_studio/toolchains/gcc_arm/gcc-arm-none-eabi-6-2017-q2-update/arm-none-eabi/include/c++/6.3.1/iostream ****    *  manual linked to above.
  58:/home/zkmike/.local/share/renesas/e2_studio/toolchains/gcc_arm/gcc-arm-none-eabi-6-2017-q2-update/arm-none-eabi/include/c++/6.3.1/iostream ****   */
  59:/home/zkmike/.local/share/renesas/e2_studio/toolchains/gcc_arm/gcc-arm-none-eabi-6-2017-q2-update/arm-none-eabi/include/c++/6.3.1/iostream ****   //@{
  60:/home/zkmike/.local/share/renesas/e2_studio/toolchains/gcc_arm/gcc-arm-none-eabi-6-2017-q2-update/arm-none-eabi/include/c++/6.3.1/iostream ****   extern istream cin;		/// Linked to standard input
  61:/home/zkmike/.local/share/renesas/e2_studio/toolchains/gcc_arm/gcc-arm-none-eabi-6-2017-q2-update/arm-none-eabi/include/c++/6.3.1/iostream ****   extern ostream cout;		/// Linked to standard output
  62:/home/zkmike/.local/share/renesas/e2_studio/toolchains/gcc_arm/gcc-arm-none-eabi-6-2017-q2-update/arm-none-eabi/include/c++/6.3.1/iostream ****   extern ostream cerr;		/// Linked to standard error (unbuffered)
  63:/home/zkmike/.local/share/renesas/e2_studio/toolchains/gcc_arm/gcc-arm-none-eabi-6-2017-q2-update/arm-none-eabi/include/c++/6.3.1/iostream ****   extern ostream clog;		/// Linked to standard error (buffered)
  64:/home/zkmike/.local/share/renesas/e2_studio/toolchains/gcc_arm/gcc-arm-none-eabi-6-2017-q2-update/arm-none-eabi/include/c++/6.3.1/iostream **** 
  65:/home/zkmike/.local/share/renesas/e2_studio/toolchains/gcc_arm/gcc-arm-none-eabi-6-2017-q2-update/arm-none-eabi/include/c++/6.3.1/iostream **** #ifdef _GLIBCXX_USE_WCHAR_T
  66:/home/zkmike/.local/share/renesas/e2_studio/toolchains/gcc_arm/gcc-arm-none-eabi-6-2017-q2-update/arm-none-eabi/include/c++/6.3.1/iostream ****   extern wistream wcin;		/// Linked to standard input
  67:/home/zkmike/.local/share/renesas/e2_studio/toolchains/gcc_arm/gcc-arm-none-eabi-6-2017-q2-update/arm-none-eabi/include/c++/6.3.1/iostream ****   extern wostream wcout;	/// Linked to standard output
  68:/home/zkmike/.local/share/renesas/e2_studio/toolchains/gcc_arm/gcc-arm-none-eabi-6-2017-q2-update/arm-none-eabi/include/c++/6.3.1/iostream ****   extern wostream wcerr;	/// Linked to standard error (unbuffered)
  69:/home/zkmike/.local/share/renesas/e2_studio/toolchains/gcc_arm/gcc-arm-none-eabi-6-2017-q2-update/arm-none-eabi/include/c++/6.3.1/iostream ****   extern wostream wclog;	/// Linked to standard error (buffered)
  70:/home/zkmike/.local/share/renesas/e2_studio/toolchains/gcc_arm/gcc-arm-none-eabi-6-2017-q2-update/arm-none-eabi/include/c++/6.3.1/iostream **** #endif
  71:/home/zkmike/.local/share/renesas/e2_studio/toolchains/gcc_arm/gcc-arm-none-eabi-6-2017-q2-update/arm-none-eabi/include/c++/6.3.1/iostream ****   //@}
  72:/home/zkmike/.local/share/renesas/e2_studio/toolchains/gcc_arm/gcc-arm-none-eabi-6-2017-q2-update/arm-none-eabi/include/c++/6.3.1/iostream **** 
  73:/home/zkmike/.local/share/renesas/e2_studio/toolchains/gcc_arm/gcc-arm-none-eabi-6-2017-q2-update/arm-none-eabi/include/c++/6.3.1/iostream ****   // For construction of filebuffers for cout, cin, cerr, clog et. al.
  74:/home/zkmike/.local/share/renesas/e2_studio/toolchains/gcc_arm/gcc-arm-none-eabi-6-2017-q2-update/arm-none-eabi/include/c++/6.3.1/iostream ****   static ios_base::Init __ioinit;
  43              		.loc 2 74 0 is_stmt 1
  44 0018 004000E3 		movw	r4, #:lower16:.LANCHOR0
  45 001c 004040E3 		movt	r4, #:upper16:.LANCHOR0
  46 0020 0400A0E1 		mov	r0, r4
  47              	.LVL1:
  48 0024 FEFFFFEB 		bl	_ZNSt8ios_base4InitC1Ev
  49              	.LVL2:
  50 0028 002000E3 		movw	r2, #:lower16:__dso_handle
  51 002c 002040E3 		movt	r2, #:upper16:__dso_handle
  52 0030 001000E3 		movw	r1, #:lower16:_ZNSt8ios_base4InitD1Ev
  53 0034 001040E3 		movt	r1, #:upper16:_ZNSt8ios_base4InitD1Ev
  54 0038 0400A0E1 		mov	r0, r4
  55 003c FEFFFFEB 		bl	__aeabi_atexit
  56              	.LVL3:
  57 0040 1080BDE8 		pop	{r4, pc}
  58              		.cfi_endproc
  59              	.LFE1904:
  60              		.cantunwind
  61              		.fnend
  63              		.section	.text._ZN5zxing19ResultPointCallbackD2Ev,"ax",%progbits
  64              		.align	2
  65              		.global	_ZN5zxing19ResultPointCallbackD2Ev
  66              		.syntax unified
  67              		.arm
  68              		.fpu neon
  70              	_ZN5zxing19ResultPointCallbackD2Ev:
  71              		.fnstart
  72              	.LFB1466:
  24:../src/zxing_lib/zxing/ResultPointCallback.cpp **** 
  73              		.loc 1 24 0
  74              		.cfi_startproc
  75              		@ args = 0, pretend = 0, frame = 0
  76              		@ frame_needed = 0, uses_anonymous_args = 0
  77              		@ link register save eliminated.
  78              	.LVL4:
  24:../src/zxing_lib/zxing/ResultPointCallback.cpp **** 
  79              		.loc 1 24 0
  80 0000 1EFF2FE1 		bx	lr
  81              		.cfi_endproc
  82              	.LFE1466:
  83              		.cantunwind
  84              		.fnend
  86              		.global	_ZN5zxing19ResultPointCallbackD1Ev
  87              		.set	_ZN5zxing19ResultPointCallbackD1Ev,_ZN5zxing19ResultPointCallbackD2Ev
  88              		.section	.text._ZN5zxing19ResultPointCallbackD0Ev,"ax",%progbits
  89              		.align	2
  90              		.global	_ZN5zxing19ResultPointCallbackD0Ev
  91              		.syntax unified
  92              		.arm
  93              		.fpu neon
  95              	_ZN5zxing19ResultPointCallbackD0Ev:
  96              		.fnstart
  97              	.LFB1468:
  24:../src/zxing_lib/zxing/ResultPointCallback.cpp **** 
  98              		.loc 1 24 0
  99              		.cfi_startproc
 100              		@ args = 0, pretend = 0, frame = 0
 101              		@ frame_needed = 0, uses_anonymous_args = 0
 102              	.LVL5:
 103 0000 10402DE9 		push	{r4, lr}
 104              		.cfi_def_cfa_offset 8
 105              		.cfi_offset 4, -8
 106              		.cfi_offset 14, -4
 107 0004 0040A0E1 		mov	r4, r0
  24:../src/zxing_lib/zxing/ResultPointCallback.cpp **** 
 108              		.loc 1 24 0
 109 0008 0810A0E3 		mov	r1, #8
 110 000c FEFFFFEB 		bl	_ZdlPvj
 111              	.LVL6:
 112 0010 0400A0E1 		mov	r0, r4
 113 0014 1080BDE8 		pop	{r4, pc}
 114              		.cfi_endproc
 115              	.LFE1468:
 116              		.cantunwind
 117              		.fnend
 119              		.section	.text._GLOBAL__sub_I__ZN5zxing19ResultPointCallbackD2Ev,"ax",%progbits
 120              		.align	2
 121              		.syntax unified
 122              		.arm
 123              		.fpu neon
 125              	_GLOBAL__sub_I__ZN5zxing19ResultPointCallbackD2Ev:
 126              		.fnstart
 127              	.LFB1905:
 128              		.loc 1 26 0
 129              		.cfi_startproc
 130              		@ args = 0, pretend = 0, frame = 0
 131              		@ frame_needed = 0, uses_anonymous_args = 0
 132 0000 10402DE9 		push	{r4, lr}
 133              		.cfi_def_cfa_offset 8
 134              		.cfi_offset 4, -8
 135              		.cfi_offset 14, -4
 136              		.loc 1 26 0
 137 0004 FF1F0FE3 		movw	r1, #65535
 138 0008 0100A0E3 		mov	r0, #1
 139 000c FEFFFFEB 		bl	_Z41__static_initialization_and_destruction_0ii
 140              	.LVL7:
 141 0010 1080BDE8 		pop	{r4, pc}
 142              		.cfi_endproc
 143              	.LFE1905:
 144              		.cantunwind
 145              		.fnend
 147              		.section	.init_array,"aw",%init_array
 148              		.align	2
 149 0000 00000000 		.word	_GLOBAL__sub_I__ZN5zxing19ResultPointCallbackD2Ev(target1)
 150              		.weak	_ZTSN5zxing7CountedE
 151              		.section	.rodata._ZTSN5zxing7CountedE,"aG",%progbits,_ZTSN5zxing7CountedE,comdat
 152              		.align	2
 155              	_ZTSN5zxing7CountedE:
 156 0000 4E357A78 		.ascii	"N5zxing7CountedE\000"
 156      696E6737 
 156      436F756E 
 156      74656445 
 156      00
 157              		.weak	_ZTIN5zxing7CountedE
 158              		.section	.rodata._ZTIN5zxing7CountedE,"aG",%progbits,_ZTIN5zxing7CountedE,comdat
 159              		.align	2
 162              	_ZTIN5zxing7CountedE:
 163 0000 08000000 		.word	_ZTVN10__cxxabiv117__class_type_infoE+8
 164 0004 00000000 		.word	_ZTSN5zxing7CountedE
 165              		.global	_ZTSN5zxing19ResultPointCallbackE
 166              		.global	_ZTIN5zxing19ResultPointCallbackE
 167              		.global	_ZTVN5zxing19ResultPointCallbackE
 168              		.section	.bss._ZStL8__ioinit,"aw",%nobits
 169              		.align	2
 170              		.set	.LANCHOR0,. + 0
 173              	_ZStL8__ioinit:
 174 0000 00       		.space	1
 175              		.section	.rodata._ZTIN5zxing19ResultPointCallbackE,"a",%progbits
 176              		.align	2
 179              	_ZTIN5zxing19ResultPointCallbackE:
 180 0000 08000000 		.word	_ZTVN10__cxxabiv120__si_class_type_infoE+8
 181 0004 00000000 		.word	_ZTSN5zxing19ResultPointCallbackE
 182 0008 00000000 		.word	_ZTIN5zxing7CountedE
 183              		.section	.rodata._ZTSN5zxing19ResultPointCallbackE,"a",%progbits
 184              		.align	2
 187              	_ZTSN5zxing19ResultPointCallbackE:
 188 0000 4E357A78 		.ascii	"N5zxing19ResultPointCallbackE\000"
 188      696E6731 
 188      39526573 
 188      756C7450 
 188      6F696E74 
 189              		.section	.rodata._ZTVN5zxing19ResultPointCallbackE,"a",%progbits
 190              		.align	2
 193              	_ZTVN5zxing19ResultPointCallbackE:
 194 0000 00000000 		.word	0
 195 0004 00000000 		.word	_ZTIN5zxing19ResultPointCallbackE
 196 0008 00000000 		.word	0
 197 000c 00000000 		.word	0
 198 0010 00000000 		.word	__cxa_pure_virtual
 199              		.text
 200              	.Letext0:
 201              		.file 3 "/home/zkmike/.local/share/renesas/e2_studio/toolchains/gcc_arm/gcc-arm-none-eabi-6-2017-q
 202              		.file 4 "/home/zkmike/.local/share/renesas/e2_studio/toolchains/gcc_arm/gcc-arm-none-eabi-6-2017-q
 203              		.file 5 "/home/zkmike/.local/share/renesas/e2_studio/toolchains/gcc_arm/gcc-arm-none-eabi-6-2017-q
 204              		.file 6 "/home/zkmike/.local/share/renesas/e2_studio/toolchains/gcc_arm/gcc-arm-none-eabi-6-2017-q
 205              		.file 7 "/home/zkmike/.local/share/renesas/e2_studio/toolchains/gcc_arm/gcc-arm-none-eabi-6-2017-q
 206              		.file 8 "/home/zkmike/.local/share/renesas/e2_studio/toolchains/gcc_arm/gcc-arm-none-eabi-6-2017-q
 207              		.file 9 "/home/zkmike/.local/share/renesas/e2_studio/toolchains/gcc_arm/gcc-arm-none-eabi-6-2017-q
 208              		.file 10 "/home/zkmike/.local/share/renesas/e2_studio/toolchains/gcc_arm/gcc-arm-none-eabi-6-2017-
 209              		.file 11 "/home/zkmike/.local/share/renesas/e2_studio/toolchains/gcc_arm/gcc-arm-none-eabi-6-2017-
 210              		.file 12 "/home/zkmike/.local/share/renesas/e2_studio/toolchains/gcc_arm/gcc-arm-none-eabi-6-2017-
 211              		.file 13 "/home/zkmike/.local/share/renesas/e2_studio/toolchains/gcc_arm/gcc-arm-none-eabi-6-2017-
 212              		.file 14 "/home/zkmike/.local/share/renesas/e2_studio/toolchains/gcc_arm/gcc-arm-none-eabi-6-2017-
 213              		.file 15 "/home/zkmike/.local/share/renesas/e2_studio/toolchains/gcc_arm/gcc-arm-none-eabi-6-2017-
 214              		.file 16 "/home/zkmike/.local/share/renesas/e2_studio/toolchains/gcc_arm/gcc-arm-none-eabi-6-2017-
 215              		.file 17 "/home/zkmike/.local/share/renesas/e2_studio/toolchains/gcc_arm/gcc-arm-none-eabi-6-2017-
 216              		.file 18 "/home/zkmike/.local/share/renesas/e2_studio/toolchains/gcc_arm/gcc-arm-none-eabi-6-2017-
 217              		.file 19 "/home/zkmike/.local/share/renesas/e2_studio/toolchains/gcc_arm/gcc-arm-none-eabi-6-2017-
 218              		.file 20 "/home/zkmike/.local/share/renesas/e2_studio/toolchains/gcc_arm/gcc-arm-none-eabi-6-2017-
 219              		.file 21 "/home/zkmike/.local/share/renesas/e2_studio/toolchains/gcc_arm/gcc-arm-none-eabi-6-2017-
 220              		.file 22 "/home/zkmike/.local/share/renesas/e2_studio/toolchains/gcc_arm/gcc-arm-none-eabi-6-2017-
 221              		.file 23 "/home/zkmike/.local/share/renesas/e2_studio/toolchains/gcc_arm/gcc-arm-none-eabi-6-2017-
 222              		.file 24 "/home/zkmike/.local/share/renesas/e2_studio/toolchains/gcc_arm/gcc-arm-none-eabi-6-2017-
 223              		.file 25 "/home/zkmike/.local/share/renesas/e2_studio/toolchains/gcc_arm/gcc-arm-none-eabi-6-2017-
 224              		.file 26 "/home/zkmike/.local/share/renesas/e2_studio/toolchains/gcc_arm/gcc-arm-none-eabi-6-2017-
 225              		.file 27 "/home/zkmike/.local/share/renesas/e2_studio/toolchains/gcc_arm/gcc-arm-none-eabi-6-2017-
 226              		.file 28 "/home/zkmike/.local/share/renesas/e2_studio/toolchains/gcc_arm/gcc-arm-none-eabi-6-2017-
 227              		.file 29 "<built-in>"
 228              		.file 30 "/home/zkmike/.local/share/renesas/e2_studio/toolchains/gcc_arm/gcc-arm-none-eabi-6-2017-
 229              		.file 31 "/home/zkmike/.local/share/renesas/e2_studio/toolchains/gcc_arm/gcc-arm-none-eabi-6-2017-
 230              		.file 32 "/home/zkmike/.local/share/renesas/e2_studio/toolchains/gcc_arm/gcc-arm-none-eabi-6-2017-
 231              		.file 33 "/home/zkmike/.local/share/renesas/e2_studio/toolchains/gcc_arm/gcc-arm-none-eabi-6-2017-
 232              		.file 34 "/home/zkmike/.local/share/renesas/e2_studio/toolchains/gcc_arm/gcc-arm-none-eabi-6-2017-
 233              		.file 35 "/home/zkmike/.local/share/renesas/e2_studio/toolchains/gcc_arm/gcc-arm-none-eabi-6-2017-
 234              		.file 36 "/home/zkmike/.local/share/renesas/e2_studio/toolchains/gcc_arm/gcc-arm-none-eabi-6-2017-
 235              		.file 37 "/home/zkmike/.local/share/renesas/e2_studio/toolchains/gcc_arm/gcc-arm-none-eabi-6-2017-
 236              		.file 38 "/home/zkmike/.local/share/renesas/e2_studio/toolchains/gcc_arm/gcc-arm-none-eabi-6-2017-
 237              		.file 39 "/home/zkmike/.local/share/renesas/e2_studio/toolchains/gcc_arm/gcc-arm-none-eabi-6-2017-
 238              		.file 40 "/home/zkmike/workspace/RZA2M/rza2m_2d_barcode_sample_freertos_gcc/src/zxing_lib/zxing/co
 239              		.file 41 "/home/zkmike/workspace/RZA2M/rza2m_2d_barcode_sample_freertos_gcc/src/zxing_lib/zxing/Re
 240              		.file 42 "/home/zkmike/.local/share/renesas/e2_studio/toolchains/gcc_arm/gcc-arm-none-eabi-6-2017-