   1              		.cpu cortex-a9
   2              		.eabi_attribute 28, 1
   3              		.eabi_attribute 20, 1
   4              		.eabi_attribute 21, 1
   5              		.eabi_attribute 23, 3
   6              		.eabi_attribute 24, 1
   7              		.eabi_attribute 25, 1
   8              		.eabi_attribute 26, 1
   9              		.eabi_attribute 30, 1
  10              		.eabi_attribute 34, 0
  11              		.eabi_attribute 18, 4
  12              		.file	"BitMatrixParser.cpp"
  13              		.text
  14              	.Ltext0:
  15              		.cfi_sections	.debug_frame
  16              		.section	.text._ZN5zxing8ArrayRefIiED2Ev,"axG",%progbits,_ZN5zxing8ArrayRefIiED5Ev,comdat
  17              		.align	2
  18              		.weak	_ZN5zxing8ArrayRefIiED2Ev
  19              		.syntax unified
  20              		.arm
  21              		.fpu neon
  23              	_ZN5zxing8ArrayRefIiED2Ev:
  24              		.fnstart
  25              	.LFB2486:
  26              		.file 1 "/home/zkmike/workspace/RZA2M/rza2m_2d_barcode_sample_freertos_gcc/src/zxing_lib/zxing/com
   1:/home/zkmike/workspace/RZA2M/rza2m_2d_barcode_sample_freertos_gcc/src/zxing_lib/zxing/common/Array.h **** // -*- mode:c++; tab-width:2; indent-tabs-mode:nil; c-basic-offset:2 -*-
   2:/home/zkmike/workspace/RZA2M/rza2m_2d_barcode_sample_freertos_gcc/src/zxing_lib/zxing/common/Array.h **** #ifndef __ARRAY_H__
   3:/home/zkmike/workspace/RZA2M/rza2m_2d_barcode_sample_freertos_gcc/src/zxing_lib/zxing/common/Array.h **** #define __ARRAY_H__
   4:/home/zkmike/workspace/RZA2M/rza2m_2d_barcode_sample_freertos_gcc/src/zxing_lib/zxing/common/Array.h **** 
   5:/home/zkmike/workspace/RZA2M/rza2m_2d_barcode_sample_freertos_gcc/src/zxing_lib/zxing/common/Array.h **** /*
   6:/home/zkmike/workspace/RZA2M/rza2m_2d_barcode_sample_freertos_gcc/src/zxing_lib/zxing/common/Array.h ****  *  Array.h
   7:/home/zkmike/workspace/RZA2M/rza2m_2d_barcode_sample_freertos_gcc/src/zxing_lib/zxing/common/Array.h ****  *  zxing
   8:/home/zkmike/workspace/RZA2M/rza2m_2d_barcode_sample_freertos_gcc/src/zxing_lib/zxing/common/Array.h ****  *
   9:/home/zkmike/workspace/RZA2M/rza2m_2d_barcode_sample_freertos_gcc/src/zxing_lib/zxing/common/Array.h ****  *  Copyright 2010 ZXing authors All rights reserved.
  10:/home/zkmike/workspace/RZA2M/rza2m_2d_barcode_sample_freertos_gcc/src/zxing_lib/zxing/common/Array.h ****  *
  11:/home/zkmike/workspace/RZA2M/rza2m_2d_barcode_sample_freertos_gcc/src/zxing_lib/zxing/common/Array.h ****  * Licensed under the Apache License, Version 2.0 (the "License");
  12:/home/zkmike/workspace/RZA2M/rza2m_2d_barcode_sample_freertos_gcc/src/zxing_lib/zxing/common/Array.h ****  * you may not use this file except in compliance with the License.
  13:/home/zkmike/workspace/RZA2M/rza2m_2d_barcode_sample_freertos_gcc/src/zxing_lib/zxing/common/Array.h ****  * You may obtain a copy of the License at
  14:/home/zkmike/workspace/RZA2M/rza2m_2d_barcode_sample_freertos_gcc/src/zxing_lib/zxing/common/Array.h ****  *
  15:/home/zkmike/workspace/RZA2M/rza2m_2d_barcode_sample_freertos_gcc/src/zxing_lib/zxing/common/Array.h ****  *      http://www.apache.org/licenses/LICENSE-2.0
  16:/home/zkmike/workspace/RZA2M/rza2m_2d_barcode_sample_freertos_gcc/src/zxing_lib/zxing/common/Array.h ****  *
  17:/home/zkmike/workspace/RZA2M/rza2m_2d_barcode_sample_freertos_gcc/src/zxing_lib/zxing/common/Array.h ****  * Unless required by applicable law or agreed to in writing, software
  18:/home/zkmike/workspace/RZA2M/rza2m_2d_barcode_sample_freertos_gcc/src/zxing_lib/zxing/common/Array.h ****  * distributed under the License is distributed on an "AS IS" BASIS,
  19:/home/zkmike/workspace/RZA2M/rza2m_2d_barcode_sample_freertos_gcc/src/zxing_lib/zxing/common/Array.h ****  * WITHOUT WARRANTIES OR CONDITIONS OF ANY KIND, either express or implied.
  20:/home/zkmike/workspace/RZA2M/rza2m_2d_barcode_sample_freertos_gcc/src/zxing_lib/zxing/common/Array.h ****  * See the License for the specific language governing permissions and
  21:/home/zkmike/workspace/RZA2M/rza2m_2d_barcode_sample_freertos_gcc/src/zxing_lib/zxing/common/Array.h ****  * limitations under the License.
  22:/home/zkmike/workspace/RZA2M/rza2m_2d_barcode_sample_freertos_gcc/src/zxing_lib/zxing/common/Array.h ****  */
  23:/home/zkmike/workspace/RZA2M/rza2m_2d_barcode_sample_freertos_gcc/src/zxing_lib/zxing/common/Array.h **** 
  24:/home/zkmike/workspace/RZA2M/rza2m_2d_barcode_sample_freertos_gcc/src/zxing_lib/zxing/common/Array.h **** #include <vector>
  25:/home/zkmike/workspace/RZA2M/rza2m_2d_barcode_sample_freertos_gcc/src/zxing_lib/zxing/common/Array.h **** 
  26:/home/zkmike/workspace/RZA2M/rza2m_2d_barcode_sample_freertos_gcc/src/zxing_lib/zxing/common/Array.h **** #include <zxing/common/Counted.h>
  27:/home/zkmike/workspace/RZA2M/rza2m_2d_barcode_sample_freertos_gcc/src/zxing_lib/zxing/common/Array.h **** 
  28:/home/zkmike/workspace/RZA2M/rza2m_2d_barcode_sample_freertos_gcc/src/zxing_lib/zxing/common/Array.h **** namespace zxing {
  29:/home/zkmike/workspace/RZA2M/rza2m_2d_barcode_sample_freertos_gcc/src/zxing_lib/zxing/common/Array.h **** 
  30:/home/zkmike/workspace/RZA2M/rza2m_2d_barcode_sample_freertos_gcc/src/zxing_lib/zxing/common/Array.h **** template<typename T> class Array : public Counted {
  31:/home/zkmike/workspace/RZA2M/rza2m_2d_barcode_sample_freertos_gcc/src/zxing_lib/zxing/common/Array.h **** protected:
  32:/home/zkmike/workspace/RZA2M/rza2m_2d_barcode_sample_freertos_gcc/src/zxing_lib/zxing/common/Array.h **** public:
  33:/home/zkmike/workspace/RZA2M/rza2m_2d_barcode_sample_freertos_gcc/src/zxing_lib/zxing/common/Array.h ****   std::vector<T> values_;
  34:/home/zkmike/workspace/RZA2M/rza2m_2d_barcode_sample_freertos_gcc/src/zxing_lib/zxing/common/Array.h ****   Array() {}
  35:/home/zkmike/workspace/RZA2M/rza2m_2d_barcode_sample_freertos_gcc/src/zxing_lib/zxing/common/Array.h ****   Array(int n) :
  36:/home/zkmike/workspace/RZA2M/rza2m_2d_barcode_sample_freertos_gcc/src/zxing_lib/zxing/common/Array.h ****       Counted(), values_(n, T()) {
  37:/home/zkmike/workspace/RZA2M/rza2m_2d_barcode_sample_freertos_gcc/src/zxing_lib/zxing/common/Array.h ****   }
  38:/home/zkmike/workspace/RZA2M/rza2m_2d_barcode_sample_freertos_gcc/src/zxing_lib/zxing/common/Array.h ****   Array(T const* ts, int n) :
  39:/home/zkmike/workspace/RZA2M/rza2m_2d_barcode_sample_freertos_gcc/src/zxing_lib/zxing/common/Array.h ****       Counted(), values_(ts, ts+n) {
  40:/home/zkmike/workspace/RZA2M/rza2m_2d_barcode_sample_freertos_gcc/src/zxing_lib/zxing/common/Array.h ****   }
  41:/home/zkmike/workspace/RZA2M/rza2m_2d_barcode_sample_freertos_gcc/src/zxing_lib/zxing/common/Array.h ****   Array(T const* ts, T const* te) :
  42:/home/zkmike/workspace/RZA2M/rza2m_2d_barcode_sample_freertos_gcc/src/zxing_lib/zxing/common/Array.h ****       Counted(), values_(ts, te) {
  43:/home/zkmike/workspace/RZA2M/rza2m_2d_barcode_sample_freertos_gcc/src/zxing_lib/zxing/common/Array.h ****   }
  44:/home/zkmike/workspace/RZA2M/rza2m_2d_barcode_sample_freertos_gcc/src/zxing_lib/zxing/common/Array.h ****   Array(T v, int n) :
  45:/home/zkmike/workspace/RZA2M/rza2m_2d_barcode_sample_freertos_gcc/src/zxing_lib/zxing/common/Array.h ****       Counted(), values_(n, v) {
  46:/home/zkmike/workspace/RZA2M/rza2m_2d_barcode_sample_freertos_gcc/src/zxing_lib/zxing/common/Array.h ****   }
  47:/home/zkmike/workspace/RZA2M/rza2m_2d_barcode_sample_freertos_gcc/src/zxing_lib/zxing/common/Array.h ****   Array(std::vector<T> &v) :
  48:/home/zkmike/workspace/RZA2M/rza2m_2d_barcode_sample_freertos_gcc/src/zxing_lib/zxing/common/Array.h ****       Counted(), values_(v) {
  49:/home/zkmike/workspace/RZA2M/rza2m_2d_barcode_sample_freertos_gcc/src/zxing_lib/zxing/common/Array.h ****   }
  50:/home/zkmike/workspace/RZA2M/rza2m_2d_barcode_sample_freertos_gcc/src/zxing_lib/zxing/common/Array.h ****   Array(Array<T> &other) :
  51:/home/zkmike/workspace/RZA2M/rza2m_2d_barcode_sample_freertos_gcc/src/zxing_lib/zxing/common/Array.h ****       Counted(), values_(other.values_) {
  52:/home/zkmike/workspace/RZA2M/rza2m_2d_barcode_sample_freertos_gcc/src/zxing_lib/zxing/common/Array.h ****   }
  53:/home/zkmike/workspace/RZA2M/rza2m_2d_barcode_sample_freertos_gcc/src/zxing_lib/zxing/common/Array.h ****   Array(Array<T> *other) :
  54:/home/zkmike/workspace/RZA2M/rza2m_2d_barcode_sample_freertos_gcc/src/zxing_lib/zxing/common/Array.h ****       Counted(), values_(other->values_) {
  55:/home/zkmike/workspace/RZA2M/rza2m_2d_barcode_sample_freertos_gcc/src/zxing_lib/zxing/common/Array.h ****   }
  56:/home/zkmike/workspace/RZA2M/rza2m_2d_barcode_sample_freertos_gcc/src/zxing_lib/zxing/common/Array.h ****   virtual ~Array() {
  57:/home/zkmike/workspace/RZA2M/rza2m_2d_barcode_sample_freertos_gcc/src/zxing_lib/zxing/common/Array.h ****   }
  58:/home/zkmike/workspace/RZA2M/rza2m_2d_barcode_sample_freertos_gcc/src/zxing_lib/zxing/common/Array.h ****   Array<T>& operator=(const Array<T> &other) {
  59:/home/zkmike/workspace/RZA2M/rza2m_2d_barcode_sample_freertos_gcc/src/zxing_lib/zxing/common/Array.h ****     values_ = other.values_;
  60:/home/zkmike/workspace/RZA2M/rza2m_2d_barcode_sample_freertos_gcc/src/zxing_lib/zxing/common/Array.h ****     return *this;
  61:/home/zkmike/workspace/RZA2M/rza2m_2d_barcode_sample_freertos_gcc/src/zxing_lib/zxing/common/Array.h ****   }
  62:/home/zkmike/workspace/RZA2M/rza2m_2d_barcode_sample_freertos_gcc/src/zxing_lib/zxing/common/Array.h ****   Array<T>& operator=(const std::vector<T> &array) {
  63:/home/zkmike/workspace/RZA2M/rza2m_2d_barcode_sample_freertos_gcc/src/zxing_lib/zxing/common/Array.h ****     values_ = array;
  64:/home/zkmike/workspace/RZA2M/rza2m_2d_barcode_sample_freertos_gcc/src/zxing_lib/zxing/common/Array.h ****     return *this;
  65:/home/zkmike/workspace/RZA2M/rza2m_2d_barcode_sample_freertos_gcc/src/zxing_lib/zxing/common/Array.h ****   }
  66:/home/zkmike/workspace/RZA2M/rza2m_2d_barcode_sample_freertos_gcc/src/zxing_lib/zxing/common/Array.h ****   T const& operator[](int i) const {
  67:/home/zkmike/workspace/RZA2M/rza2m_2d_barcode_sample_freertos_gcc/src/zxing_lib/zxing/common/Array.h ****     return values_[i];
  68:/home/zkmike/workspace/RZA2M/rza2m_2d_barcode_sample_freertos_gcc/src/zxing_lib/zxing/common/Array.h ****   }
  69:/home/zkmike/workspace/RZA2M/rza2m_2d_barcode_sample_freertos_gcc/src/zxing_lib/zxing/common/Array.h ****   T& operator[](int i) {
  70:/home/zkmike/workspace/RZA2M/rza2m_2d_barcode_sample_freertos_gcc/src/zxing_lib/zxing/common/Array.h ****     return values_[i];
  71:/home/zkmike/workspace/RZA2M/rza2m_2d_barcode_sample_freertos_gcc/src/zxing_lib/zxing/common/Array.h ****   }
  72:/home/zkmike/workspace/RZA2M/rza2m_2d_barcode_sample_freertos_gcc/src/zxing_lib/zxing/common/Array.h ****   int size() const {
  73:/home/zkmike/workspace/RZA2M/rza2m_2d_barcode_sample_freertos_gcc/src/zxing_lib/zxing/common/Array.h ****     return values_.size();
  74:/home/zkmike/workspace/RZA2M/rza2m_2d_barcode_sample_freertos_gcc/src/zxing_lib/zxing/common/Array.h ****   }
  75:/home/zkmike/workspace/RZA2M/rza2m_2d_barcode_sample_freertos_gcc/src/zxing_lib/zxing/common/Array.h ****   bool empty() const {
  76:/home/zkmike/workspace/RZA2M/rza2m_2d_barcode_sample_freertos_gcc/src/zxing_lib/zxing/common/Array.h ****     return values_.size() == 0;
  77:/home/zkmike/workspace/RZA2M/rza2m_2d_barcode_sample_freertos_gcc/src/zxing_lib/zxing/common/Array.h ****   }
  78:/home/zkmike/workspace/RZA2M/rza2m_2d_barcode_sample_freertos_gcc/src/zxing_lib/zxing/common/Array.h ****   std::vector<T> const& values() const {
  79:/home/zkmike/workspace/RZA2M/rza2m_2d_barcode_sample_freertos_gcc/src/zxing_lib/zxing/common/Array.h ****     return values_;
  80:/home/zkmike/workspace/RZA2M/rza2m_2d_barcode_sample_freertos_gcc/src/zxing_lib/zxing/common/Array.h ****   }
  81:/home/zkmike/workspace/RZA2M/rza2m_2d_barcode_sample_freertos_gcc/src/zxing_lib/zxing/common/Array.h ****   std::vector<T>& values() {
  82:/home/zkmike/workspace/RZA2M/rza2m_2d_barcode_sample_freertos_gcc/src/zxing_lib/zxing/common/Array.h ****     return values_;
  83:/home/zkmike/workspace/RZA2M/rza2m_2d_barcode_sample_freertos_gcc/src/zxing_lib/zxing/common/Array.h ****   }
  84:/home/zkmike/workspace/RZA2M/rza2m_2d_barcode_sample_freertos_gcc/src/zxing_lib/zxing/common/Array.h **** };
  85:/home/zkmike/workspace/RZA2M/rza2m_2d_barcode_sample_freertos_gcc/src/zxing_lib/zxing/common/Array.h **** 
  86:/home/zkmike/workspace/RZA2M/rza2m_2d_barcode_sample_freertos_gcc/src/zxing_lib/zxing/common/Array.h **** template<typename T> class ArrayRef : public Counted {
  87:/home/zkmike/workspace/RZA2M/rza2m_2d_barcode_sample_freertos_gcc/src/zxing_lib/zxing/common/Array.h **** private:
  88:/home/zkmike/workspace/RZA2M/rza2m_2d_barcode_sample_freertos_gcc/src/zxing_lib/zxing/common/Array.h **** public:
  89:/home/zkmike/workspace/RZA2M/rza2m_2d_barcode_sample_freertos_gcc/src/zxing_lib/zxing/common/Array.h ****   Array<T> *array_;
  90:/home/zkmike/workspace/RZA2M/rza2m_2d_barcode_sample_freertos_gcc/src/zxing_lib/zxing/common/Array.h ****   ArrayRef() :
  91:/home/zkmike/workspace/RZA2M/rza2m_2d_barcode_sample_freertos_gcc/src/zxing_lib/zxing/common/Array.h ****       array_(0) {
  92:/home/zkmike/workspace/RZA2M/rza2m_2d_barcode_sample_freertos_gcc/src/zxing_lib/zxing/common/Array.h ****   }
  93:/home/zkmike/workspace/RZA2M/rza2m_2d_barcode_sample_freertos_gcc/src/zxing_lib/zxing/common/Array.h ****   explicit ArrayRef(int n) :
  94:/home/zkmike/workspace/RZA2M/rza2m_2d_barcode_sample_freertos_gcc/src/zxing_lib/zxing/common/Array.h ****       array_(0) {
  95:/home/zkmike/workspace/RZA2M/rza2m_2d_barcode_sample_freertos_gcc/src/zxing_lib/zxing/common/Array.h ****     reset(new Array<T> (n));
  96:/home/zkmike/workspace/RZA2M/rza2m_2d_barcode_sample_freertos_gcc/src/zxing_lib/zxing/common/Array.h ****   }
  97:/home/zkmike/workspace/RZA2M/rza2m_2d_barcode_sample_freertos_gcc/src/zxing_lib/zxing/common/Array.h ****   ArrayRef(T *ts, int n) :
  98:/home/zkmike/workspace/RZA2M/rza2m_2d_barcode_sample_freertos_gcc/src/zxing_lib/zxing/common/Array.h ****       array_(0) {
  99:/home/zkmike/workspace/RZA2M/rza2m_2d_barcode_sample_freertos_gcc/src/zxing_lib/zxing/common/Array.h ****     reset(new Array<T> (ts, n));
 100:/home/zkmike/workspace/RZA2M/rza2m_2d_barcode_sample_freertos_gcc/src/zxing_lib/zxing/common/Array.h ****   }
 101:/home/zkmike/workspace/RZA2M/rza2m_2d_barcode_sample_freertos_gcc/src/zxing_lib/zxing/common/Array.h ****   ArrayRef(Array<T> *a) :
 102:/home/zkmike/workspace/RZA2M/rza2m_2d_barcode_sample_freertos_gcc/src/zxing_lib/zxing/common/Array.h ****       array_(0) {
 103:/home/zkmike/workspace/RZA2M/rza2m_2d_barcode_sample_freertos_gcc/src/zxing_lib/zxing/common/Array.h ****     reset(a);
 104:/home/zkmike/workspace/RZA2M/rza2m_2d_barcode_sample_freertos_gcc/src/zxing_lib/zxing/common/Array.h ****   }
 105:/home/zkmike/workspace/RZA2M/rza2m_2d_barcode_sample_freertos_gcc/src/zxing_lib/zxing/common/Array.h ****   ArrayRef(const ArrayRef &other) :
 106:/home/zkmike/workspace/RZA2M/rza2m_2d_barcode_sample_freertos_gcc/src/zxing_lib/zxing/common/Array.h ****       Counted(), array_(0) {
 107:/home/zkmike/workspace/RZA2M/rza2m_2d_barcode_sample_freertos_gcc/src/zxing_lib/zxing/common/Array.h ****     reset(other.array_);
 108:/home/zkmike/workspace/RZA2M/rza2m_2d_barcode_sample_freertos_gcc/src/zxing_lib/zxing/common/Array.h ****   }
 109:/home/zkmike/workspace/RZA2M/rza2m_2d_barcode_sample_freertos_gcc/src/zxing_lib/zxing/common/Array.h **** 
 110:/home/zkmike/workspace/RZA2M/rza2m_2d_barcode_sample_freertos_gcc/src/zxing_lib/zxing/common/Array.h ****   template<class Y>
 111:/home/zkmike/workspace/RZA2M/rza2m_2d_barcode_sample_freertos_gcc/src/zxing_lib/zxing/common/Array.h ****   ArrayRef(const ArrayRef<Y> &other) :
 112:/home/zkmike/workspace/RZA2M/rza2m_2d_barcode_sample_freertos_gcc/src/zxing_lib/zxing/common/Array.h ****       array_(0) {
 113:/home/zkmike/workspace/RZA2M/rza2m_2d_barcode_sample_freertos_gcc/src/zxing_lib/zxing/common/Array.h ****     reset(static_cast<const Array<T> *>(other.array_));
 114:/home/zkmike/workspace/RZA2M/rza2m_2d_barcode_sample_freertos_gcc/src/zxing_lib/zxing/common/Array.h ****   }
 115:/home/zkmike/workspace/RZA2M/rza2m_2d_barcode_sample_freertos_gcc/src/zxing_lib/zxing/common/Array.h **** 
 116:/home/zkmike/workspace/RZA2M/rza2m_2d_barcode_sample_freertos_gcc/src/zxing_lib/zxing/common/Array.h ****   ~ArrayRef() {
  27              		.loc 1 116 0
  28              		.cfi_startproc
  29              		@ args = 0, pretend = 0, frame = 0
  30              		@ frame_needed = 0, uses_anonymous_args = 0
  31              	.LVL0:
  32 0000 10402DE9 		push	{r4, lr}
  33              		.cfi_def_cfa_offset 8
  34              		.cfi_offset 4, -8
  35              		.cfi_offset 14, -4
  36 0004 0040A0E1 		mov	r4, r0
  37              	.LBB478:
 117:/home/zkmike/workspace/RZA2M/rza2m_2d_barcode_sample_freertos_gcc/src/zxing_lib/zxing/common/Array.h ****     if (array_) {
 118:/home/zkmike/workspace/RZA2M/rza2m_2d_barcode_sample_freertos_gcc/src/zxing_lib/zxing/common/Array.h ****       array_->release();
 119:/home/zkmike/workspace/RZA2M/rza2m_2d_barcode_sample_freertos_gcc/src/zxing_lib/zxing/common/Array.h ****     }
 120:/home/zkmike/workspace/RZA2M/rza2m_2d_barcode_sample_freertos_gcc/src/zxing_lib/zxing/common/Array.h ****     array_ = 0;
 121:/home/zkmike/workspace/RZA2M/rza2m_2d_barcode_sample_freertos_gcc/src/zxing_lib/zxing/common/Array.h ****   }
  38              		.loc 1 121 0
  39 0008 44309FE5 		ldr	r3, .L5
  40 000c 003080E5 		str	r3, [r0]
 117:/home/zkmike/workspace/RZA2M/rza2m_2d_barcode_sample_freertos_gcc/src/zxing_lib/zxing/common/Array.h ****     if (array_) {
  41              		.loc 1 117 0
  42 0010 080090E5 		ldr	r0, [r0, #8]
  43              	.LVL1:
  44 0014 000050E3 		cmp	r0, #0
  45 0018 0400000A 		beq	.L2
  46              	.LVL2:
  47              	.LBB479:
  48              	.LBB480:
  49              		.file 2 "/home/zkmike/workspace/RZA2M/rza2m_2d_barcode_sample_freertos_gcc/src/zxing_lib/zxing/com
   1:/home/zkmike/workspace/RZA2M/rza2m_2d_barcode_sample_freertos_gcc/src/zxing_lib/zxing/common/Counted.h **** // -*- mode:c++; tab-width:2; indent-tabs-mode:nil; c-basic-offset:2 -*-
   2:/home/zkmike/workspace/RZA2M/rza2m_2d_barcode_sample_freertos_gcc/src/zxing_lib/zxing/common/Counted.h **** #ifndef __COUNTED_H__
   3:/home/zkmike/workspace/RZA2M/rza2m_2d_barcode_sample_freertos_gcc/src/zxing_lib/zxing/common/Counted.h **** #define __COUNTED_H__
   4:/home/zkmike/workspace/RZA2M/rza2m_2d_barcode_sample_freertos_gcc/src/zxing_lib/zxing/common/Counted.h **** 
   5:/home/zkmike/workspace/RZA2M/rza2m_2d_barcode_sample_freertos_gcc/src/zxing_lib/zxing/common/Counted.h **** /*
   6:/home/zkmike/workspace/RZA2M/rza2m_2d_barcode_sample_freertos_gcc/src/zxing_lib/zxing/common/Counted.h ****  *  Copyright 2010 ZXing authors All rights reserved.
   7:/home/zkmike/workspace/RZA2M/rza2m_2d_barcode_sample_freertos_gcc/src/zxing_lib/zxing/common/Counted.h ****  *
   8:/home/zkmike/workspace/RZA2M/rza2m_2d_barcode_sample_freertos_gcc/src/zxing_lib/zxing/common/Counted.h ****  * Licensed under the Apache License, Version 2.0 (the "License");
   9:/home/zkmike/workspace/RZA2M/rza2m_2d_barcode_sample_freertos_gcc/src/zxing_lib/zxing/common/Counted.h ****  * you may not use this file except in compliance with the License.
  10:/home/zkmike/workspace/RZA2M/rza2m_2d_barcode_sample_freertos_gcc/src/zxing_lib/zxing/common/Counted.h ****  * You may obtain a copy of the License at
  11:/home/zkmike/workspace/RZA2M/rza2m_2d_barcode_sample_freertos_gcc/src/zxing_lib/zxing/common/Counted.h ****  *
  12:/home/zkmike/workspace/RZA2M/rza2m_2d_barcode_sample_freertos_gcc/src/zxing_lib/zxing/common/Counted.h ****  *      http://www.apache.org/licenses/LICENSE-2.0
  13:/home/zkmike/workspace/RZA2M/rza2m_2d_barcode_sample_freertos_gcc/src/zxing_lib/zxing/common/Counted.h ****  *
  14:/home/zkmike/workspace/RZA2M/rza2m_2d_barcode_sample_freertos_gcc/src/zxing_lib/zxing/common/Counted.h ****  * Unless required by applicable law or agreed to in writing, software
  15:/home/zkmike/workspace/RZA2M/rza2m_2d_barcode_sample_freertos_gcc/src/zxing_lib/zxing/common/Counted.h ****  * distributed under the License is distributed on an "AS IS" BASIS,
  16:/home/zkmike/workspace/RZA2M/rza2m_2d_barcode_sample_freertos_gcc/src/zxing_lib/zxing/common/Counted.h ****  * WITHOUT WARRANTIES OR CONDITIONS OF ANY KIND, either express or implied.
  17:/home/zkmike/workspace/RZA2M/rza2m_2d_barcode_sample_freertos_gcc/src/zxing_lib/zxing/common/Counted.h ****  * See the License for the specific language governing permissions and
  18:/home/zkmike/workspace/RZA2M/rza2m_2d_barcode_sample_freertos_gcc/src/zxing_lib/zxing/common/Counted.h ****  * limitations under the License.
  19:/home/zkmike/workspace/RZA2M/rza2m_2d_barcode_sample_freertos_gcc/src/zxing_lib/zxing/common/Counted.h ****  */
  20:/home/zkmike/workspace/RZA2M/rza2m_2d_barcode_sample_freertos_gcc/src/zxing_lib/zxing/common/Counted.h **** 
  21:/home/zkmike/workspace/RZA2M/rza2m_2d_barcode_sample_freertos_gcc/src/zxing_lib/zxing/common/Counted.h **** #include <iostream>
  22:/home/zkmike/workspace/RZA2M/rza2m_2d_barcode_sample_freertos_gcc/src/zxing_lib/zxing/common/Counted.h **** 
  23:/home/zkmike/workspace/RZA2M/rza2m_2d_barcode_sample_freertos_gcc/src/zxing_lib/zxing/common/Counted.h **** namespace zxing {
  24:/home/zkmike/workspace/RZA2M/rza2m_2d_barcode_sample_freertos_gcc/src/zxing_lib/zxing/common/Counted.h **** 
  25:/home/zkmike/workspace/RZA2M/rza2m_2d_barcode_sample_freertos_gcc/src/zxing_lib/zxing/common/Counted.h **** /* base class for reference-counted objects */
  26:/home/zkmike/workspace/RZA2M/rza2m_2d_barcode_sample_freertos_gcc/src/zxing_lib/zxing/common/Counted.h **** class Counted {
  27:/home/zkmike/workspace/RZA2M/rza2m_2d_barcode_sample_freertos_gcc/src/zxing_lib/zxing/common/Counted.h **** private:
  28:/home/zkmike/workspace/RZA2M/rza2m_2d_barcode_sample_freertos_gcc/src/zxing_lib/zxing/common/Counted.h ****   unsigned int count_;
  29:/home/zkmike/workspace/RZA2M/rza2m_2d_barcode_sample_freertos_gcc/src/zxing_lib/zxing/common/Counted.h **** public:
  30:/home/zkmike/workspace/RZA2M/rza2m_2d_barcode_sample_freertos_gcc/src/zxing_lib/zxing/common/Counted.h ****   Counted() :
  31:/home/zkmike/workspace/RZA2M/rza2m_2d_barcode_sample_freertos_gcc/src/zxing_lib/zxing/common/Counted.h ****       count_(0) {
  32:/home/zkmike/workspace/RZA2M/rza2m_2d_barcode_sample_freertos_gcc/src/zxing_lib/zxing/common/Counted.h ****   }
  33:/home/zkmike/workspace/RZA2M/rza2m_2d_barcode_sample_freertos_gcc/src/zxing_lib/zxing/common/Counted.h ****   virtual ~Counted() {
  34:/home/zkmike/workspace/RZA2M/rza2m_2d_barcode_sample_freertos_gcc/src/zxing_lib/zxing/common/Counted.h ****   }
  35:/home/zkmike/workspace/RZA2M/rza2m_2d_barcode_sample_freertos_gcc/src/zxing_lib/zxing/common/Counted.h ****   Counted *retain() {
  36:/home/zkmike/workspace/RZA2M/rza2m_2d_barcode_sample_freertos_gcc/src/zxing_lib/zxing/common/Counted.h ****     count_++;
  37:/home/zkmike/workspace/RZA2M/rza2m_2d_barcode_sample_freertos_gcc/src/zxing_lib/zxing/common/Counted.h ****     return this;
  38:/home/zkmike/workspace/RZA2M/rza2m_2d_barcode_sample_freertos_gcc/src/zxing_lib/zxing/common/Counted.h ****   }
  39:/home/zkmike/workspace/RZA2M/rza2m_2d_barcode_sample_freertos_gcc/src/zxing_lib/zxing/common/Counted.h ****   void release() {
  40:/home/zkmike/workspace/RZA2M/rza2m_2d_barcode_sample_freertos_gcc/src/zxing_lib/zxing/common/Counted.h ****     count_--;
  50              		.loc 2 40 0
  51 001c 043090E5 		ldr	r3, [r0, #4]
  52 0020 013043E2 		sub	r3, r3, #1
  53 0024 043080E5 		str	r3, [r0, #4]
  41:/home/zkmike/workspace/RZA2M/rza2m_2d_barcode_sample_freertos_gcc/src/zxing_lib/zxing/common/Counted.h ****     if (count_ == 0) {
  54              		.loc 2 41 0
  55 0028 000053E3 		cmp	r3, #0
  56 002c 0100000A 		beq	.L4
  57              	.LVL3:
  58              	.L2:
  59              	.LBE480:
  60              	.LBE479:
  61              	.LBE478:
  62              		.loc 1 121 0
  63 0030 0400A0E1 		mov	r0, r4
  64 0034 1080BDE8 		pop	{r4, pc}
  65              	.LVL4:
  66              	.L4:
  67              	.LBB483:
  68              	.LBB482:
  69              	.LBB481:
  42:/home/zkmike/workspace/RZA2M/rza2m_2d_barcode_sample_freertos_gcc/src/zxing_lib/zxing/common/Counted.h ****       count_ = 0xDEADF001;
  70              		.loc 2 42 0
  71 0038 01300FE3 		movw	r3, #61441
  72 003c AD3E4DE3 		movt	r3, 57005
  73 0040 043080E5 		str	r3, [r0, #4]
  43:/home/zkmike/workspace/RZA2M/rza2m_2d_barcode_sample_freertos_gcc/src/zxing_lib/zxing/common/Counted.h ****       delete this;
  74              		.loc 2 43 0
  75 0044 003090E5 		ldr	r3, [r0]
  76 0048 043093E5 		ldr	r3, [r3, #4]
  77 004c 33FF2FE1 		blx	r3
  78              	.LVL5:
  79 0050 F6FFFFEA 		b	.L2
  80              	.L6:
  81              		.align	2
  82              	.L5:
  83 0054 08000000 		.word	_ZTVN5zxing8ArrayRefIiEE+8
  84              	.LBE481:
  85              	.LBE482:
  86              	.LBE483:
  87              		.cfi_endproc
  88              	.LFE2486:
  89              		.cantunwind
  90              		.fnend
  92              		.weak	_ZN5zxing8ArrayRefIiED1Ev
  93              		.set	_ZN5zxing8ArrayRefIiED1Ev,_ZN5zxing8ArrayRefIiED2Ev
  94              		.section	.text._ZN5zxing6pdf4177decoder15BitMatrixParserD2Ev,"axG",%progbits,_ZN5zxing6pdf4177deco
  95              		.align	2
  96              		.weak	_ZN5zxing6pdf4177decoder15BitMatrixParserD2Ev
  97              		.syntax unified
  98              		.arm
  99              		.fpu neon
 101              	_ZN5zxing6pdf4177decoder15BitMatrixParserD2Ev:
 102              		.fnstart
 103              	.LFB2800:
 104              		.file 3 "/home/zkmike/workspace/RZA2M/rza2m_2d_barcode_sample_freertos_gcc/src/zxing_lib/zxing/pdf
   1:/home/zkmike/workspace/RZA2M/rza2m_2d_barcode_sample_freertos_gcc/src/zxing_lib/zxing/pdf417/decoder/BitMatrixParser.h **** #ifndef __BIT_MATRIX_PARSER__PDF_H__
   2:/home/zkmike/workspace/RZA2M/rza2m_2d_barcode_sample_freertos_gcc/src/zxing_lib/zxing/pdf417/decoder/BitMatrixParser.h **** #define __BIT_MATRIX_PARSER__PDF_H__
   3:/home/zkmike/workspace/RZA2M/rza2m_2d_barcode_sample_freertos_gcc/src/zxing_lib/zxing/pdf417/decoder/BitMatrixParser.h **** 
   4:/home/zkmike/workspace/RZA2M/rza2m_2d_barcode_sample_freertos_gcc/src/zxing_lib/zxing/pdf417/decoder/BitMatrixParser.h **** /*
   5:/home/zkmike/workspace/RZA2M/rza2m_2d_barcode_sample_freertos_gcc/src/zxing_lib/zxing/pdf417/decoder/BitMatrixParser.h ****  *  BitMatrixParser.h / PDF417
   6:/home/zkmike/workspace/RZA2M/rza2m_2d_barcode_sample_freertos_gcc/src/zxing_lib/zxing/pdf417/decoder/BitMatrixParser.h ****  *  zxing
   7:/home/zkmike/workspace/RZA2M/rza2m_2d_barcode_sample_freertos_gcc/src/zxing_lib/zxing/pdf417/decoder/BitMatrixParser.h ****  *
   8:/home/zkmike/workspace/RZA2M/rza2m_2d_barcode_sample_freertos_gcc/src/zxing_lib/zxing/pdf417/decoder/BitMatrixParser.h ****  *  Copyright 2010 ZXing authors All rights reserved.
   9:/home/zkmike/workspace/RZA2M/rza2m_2d_barcode_sample_freertos_gcc/src/zxing_lib/zxing/pdf417/decoder/BitMatrixParser.h ****  *
  10:/home/zkmike/workspace/RZA2M/rza2m_2d_barcode_sample_freertos_gcc/src/zxing_lib/zxing/pdf417/decoder/BitMatrixParser.h ****  * Licensed under the Apache License, Version 2.0 (the "License");
  11:/home/zkmike/workspace/RZA2M/rza2m_2d_barcode_sample_freertos_gcc/src/zxing_lib/zxing/pdf417/decoder/BitMatrixParser.h ****  * you may not use this file except in compliance with the License.
  12:/home/zkmike/workspace/RZA2M/rza2m_2d_barcode_sample_freertos_gcc/src/zxing_lib/zxing/pdf417/decoder/BitMatrixParser.h ****  * You may obtain a copy of the License at
  13:/home/zkmike/workspace/RZA2M/rza2m_2d_barcode_sample_freertos_gcc/src/zxing_lib/zxing/pdf417/decoder/BitMatrixParser.h ****  *
  14:/home/zkmike/workspace/RZA2M/rza2m_2d_barcode_sample_freertos_gcc/src/zxing_lib/zxing/pdf417/decoder/BitMatrixParser.h ****  *      http://www.apache.org/licenses/LICENSE-2.0
  15:/home/zkmike/workspace/RZA2M/rza2m_2d_barcode_sample_freertos_gcc/src/zxing_lib/zxing/pdf417/decoder/BitMatrixParser.h ****  *
  16:/home/zkmike/workspace/RZA2M/rza2m_2d_barcode_sample_freertos_gcc/src/zxing_lib/zxing/pdf417/decoder/BitMatrixParser.h ****  * Unless required by applicable law or agreed to in writing, software
  17:/home/zkmike/workspace/RZA2M/rza2m_2d_barcode_sample_freertos_gcc/src/zxing_lib/zxing/pdf417/decoder/BitMatrixParser.h ****  * distributed under the License is distributed on an "AS IS" BASIS,
  18:/home/zkmike/workspace/RZA2M/rza2m_2d_barcode_sample_freertos_gcc/src/zxing_lib/zxing/pdf417/decoder/BitMatrixParser.h ****  * WITHOUT WARRANTIES OR CONDITIONS OF ANY KIND, either express or implied.
  19:/home/zkmike/workspace/RZA2M/rza2m_2d_barcode_sample_freertos_gcc/src/zxing_lib/zxing/pdf417/decoder/BitMatrixParser.h ****  * See the License for the specific language governing permissions and
  20:/home/zkmike/workspace/RZA2M/rza2m_2d_barcode_sample_freertos_gcc/src/zxing_lib/zxing/pdf417/decoder/BitMatrixParser.h ****  * limitations under the License.
  21:/home/zkmike/workspace/RZA2M/rza2m_2d_barcode_sample_freertos_gcc/src/zxing_lib/zxing/pdf417/decoder/BitMatrixParser.h ****  */
  22:/home/zkmike/workspace/RZA2M/rza2m_2d_barcode_sample_freertos_gcc/src/zxing_lib/zxing/pdf417/decoder/BitMatrixParser.h **** 
  23:/home/zkmike/workspace/RZA2M/rza2m_2d_barcode_sample_freertos_gcc/src/zxing_lib/zxing/pdf417/decoder/BitMatrixParser.h **** #include <zxing/ReaderException.h>
  24:/home/zkmike/workspace/RZA2M/rza2m_2d_barcode_sample_freertos_gcc/src/zxing_lib/zxing/pdf417/decoder/BitMatrixParser.h **** #include <zxing/FormatException.h>
  25:/home/zkmike/workspace/RZA2M/rza2m_2d_barcode_sample_freertos_gcc/src/zxing_lib/zxing/pdf417/decoder/BitMatrixParser.h **** #include <zxing/common/BitMatrix.h>
  26:/home/zkmike/workspace/RZA2M/rza2m_2d_barcode_sample_freertos_gcc/src/zxing_lib/zxing/pdf417/decoder/BitMatrixParser.h **** #include <zxing/common/Counted.h>
  27:/home/zkmike/workspace/RZA2M/rza2m_2d_barcode_sample_freertos_gcc/src/zxing_lib/zxing/pdf417/decoder/BitMatrixParser.h **** #include <zxing/common/Array.h>
  28:/home/zkmike/workspace/RZA2M/rza2m_2d_barcode_sample_freertos_gcc/src/zxing_lib/zxing/pdf417/decoder/BitMatrixParser.h **** #include <stdint.h>
  29:/home/zkmike/workspace/RZA2M/rza2m_2d_barcode_sample_freertos_gcc/src/zxing_lib/zxing/pdf417/decoder/BitMatrixParser.h **** 
  30:/home/zkmike/workspace/RZA2M/rza2m_2d_barcode_sample_freertos_gcc/src/zxing_lib/zxing/pdf417/decoder/BitMatrixParser.h **** namespace zxing {
  31:/home/zkmike/workspace/RZA2M/rza2m_2d_barcode_sample_freertos_gcc/src/zxing_lib/zxing/pdf417/decoder/BitMatrixParser.h **** namespace pdf417 {
  32:/home/zkmike/workspace/RZA2M/rza2m_2d_barcode_sample_freertos_gcc/src/zxing_lib/zxing/pdf417/decoder/BitMatrixParser.h **** namespace decoder {
  33:/home/zkmike/workspace/RZA2M/rza2m_2d_barcode_sample_freertos_gcc/src/zxing_lib/zxing/pdf417/decoder/BitMatrixParser.h **** 
  34:/home/zkmike/workspace/RZA2M/rza2m_2d_barcode_sample_freertos_gcc/src/zxing_lib/zxing/pdf417/decoder/BitMatrixParser.h **** class BitMatrixParser : public Counted {
 105              		.loc 3 34 0
 106              		.cfi_startproc
 107              		@ args = 0, pretend = 0, frame = 0
 108              		@ frame_needed = 0, uses_anonymous_args = 0
 109              	.LVL6:
 110 0000 10402DE9 		push	{r4, lr}
 111              		.cfi_def_cfa_offset 8
 112              		.cfi_offset 4, -8
 113              		.cfi_offset 14, -4
 114 0004 0040A0E1 		mov	r4, r0
 115              	.LBB495:
 116              		.loc 3 34 0
 117 0008 88309FE5 		ldr	r3, .L13
 118 000c 003080E5 		str	r3, [r0]
 119              	.LVL7:
 120              	.LBB496:
 121              	.LBB497:
 122              		.loc 1 121 0
 123 0010 84309FE5 		ldr	r3, .L13+4
 124 0014 343080E5 		str	r3, [r0, #52]
 117:/home/zkmike/workspace/RZA2M/rza2m_2d_barcode_sample_freertos_gcc/src/zxing_lib/zxing/common/Array.h ****       array_->release();
 125              		.loc 1 117 0
 126 0018 3C0090E5 		ldr	r0, [r0, #60]
 127              	.LVL8:
 128 001c 000050E3 		cmp	r0, #0
 129 0020 0400000A 		beq	.L8
 130              	.LVL9:
 131              	.LBB498:
 132              	.LBB499:
  40:/home/zkmike/workspace/RZA2M/rza2m_2d_barcode_sample_freertos_gcc/src/zxing_lib/zxing/common/Counted.h ****     if (count_ == 0) {
 133              		.loc 2 40 0
 134 0024 043090E5 		ldr	r3, [r0, #4]
 135 0028 013043E2 		sub	r3, r3, #1
 136 002c 043080E5 		str	r3, [r0, #4]
  41:/home/zkmike/workspace/RZA2M/rza2m_2d_barcode_sample_freertos_gcc/src/zxing_lib/zxing/common/Counted.h ****       count_ = 0xDEADF001;
 137              		.loc 2 41 0
 138 0030 000053E3 		cmp	r3, #0
 139 0034 0900000A 		beq	.L11
 140              	.LVL10:
 141              	.L8:
 142              	.LBE499:
 143              	.LBE498:
 144              	.LBE497:
 145              	.LBE496:
 146              	.LBB503:
 147              	.LBB504:
  44:/home/zkmike/workspace/RZA2M/rza2m_2d_barcode_sample_freertos_gcc/src/zxing_lib/zxing/common/Counted.h ****     }
  45:/home/zkmike/workspace/RZA2M/rza2m_2d_barcode_sample_freertos_gcc/src/zxing_lib/zxing/common/Counted.h ****   }
  46:/home/zkmike/workspace/RZA2M/rza2m_2d_barcode_sample_freertos_gcc/src/zxing_lib/zxing/common/Counted.h **** 
  47:/home/zkmike/workspace/RZA2M/rza2m_2d_barcode_sample_freertos_gcc/src/zxing_lib/zxing/common/Counted.h **** 
  48:/home/zkmike/workspace/RZA2M/rza2m_2d_barcode_sample_freertos_gcc/src/zxing_lib/zxing/common/Counted.h ****   /* return the current count for denugging purposes or similar */
  49:/home/zkmike/workspace/RZA2M/rza2m_2d_barcode_sample_freertos_gcc/src/zxing_lib/zxing/common/Counted.h ****   int count() const {
  50:/home/zkmike/workspace/RZA2M/rza2m_2d_barcode_sample_freertos_gcc/src/zxing_lib/zxing/common/Counted.h ****     return count_;
  51:/home/zkmike/workspace/RZA2M/rza2m_2d_barcode_sample_freertos_gcc/src/zxing_lib/zxing/common/Counted.h ****   }
  52:/home/zkmike/workspace/RZA2M/rza2m_2d_barcode_sample_freertos_gcc/src/zxing_lib/zxing/common/Counted.h **** };
  53:/home/zkmike/workspace/RZA2M/rza2m_2d_barcode_sample_freertos_gcc/src/zxing_lib/zxing/common/Counted.h **** 
  54:/home/zkmike/workspace/RZA2M/rza2m_2d_barcode_sample_freertos_gcc/src/zxing_lib/zxing/common/Counted.h **** /* counting reference to reference-counted objects */
  55:/home/zkmike/workspace/RZA2M/rza2m_2d_barcode_sample_freertos_gcc/src/zxing_lib/zxing/common/Counted.h **** template<typename T> class Ref {
  56:/home/zkmike/workspace/RZA2M/rza2m_2d_barcode_sample_freertos_gcc/src/zxing_lib/zxing/common/Counted.h **** private:
  57:/home/zkmike/workspace/RZA2M/rza2m_2d_barcode_sample_freertos_gcc/src/zxing_lib/zxing/common/Counted.h **** public:
  58:/home/zkmike/workspace/RZA2M/rza2m_2d_barcode_sample_freertos_gcc/src/zxing_lib/zxing/common/Counted.h ****   T *object_;
  59:/home/zkmike/workspace/RZA2M/rza2m_2d_barcode_sample_freertos_gcc/src/zxing_lib/zxing/common/Counted.h ****   explicit Ref(T *o = 0) :
  60:/home/zkmike/workspace/RZA2M/rza2m_2d_barcode_sample_freertos_gcc/src/zxing_lib/zxing/common/Counted.h ****       object_(0) {
  61:/home/zkmike/workspace/RZA2M/rza2m_2d_barcode_sample_freertos_gcc/src/zxing_lib/zxing/common/Counted.h ****     reset(o);
  62:/home/zkmike/workspace/RZA2M/rza2m_2d_barcode_sample_freertos_gcc/src/zxing_lib/zxing/common/Counted.h ****   }
  63:/home/zkmike/workspace/RZA2M/rza2m_2d_barcode_sample_freertos_gcc/src/zxing_lib/zxing/common/Counted.h ****   Ref(const Ref &other) :
  64:/home/zkmike/workspace/RZA2M/rza2m_2d_barcode_sample_freertos_gcc/src/zxing_lib/zxing/common/Counted.h ****       object_(0) {
  65:/home/zkmike/workspace/RZA2M/rza2m_2d_barcode_sample_freertos_gcc/src/zxing_lib/zxing/common/Counted.h ****     reset(other.object_);
  66:/home/zkmike/workspace/RZA2M/rza2m_2d_barcode_sample_freertos_gcc/src/zxing_lib/zxing/common/Counted.h ****   }
  67:/home/zkmike/workspace/RZA2M/rza2m_2d_barcode_sample_freertos_gcc/src/zxing_lib/zxing/common/Counted.h **** 
  68:/home/zkmike/workspace/RZA2M/rza2m_2d_barcode_sample_freertos_gcc/src/zxing_lib/zxing/common/Counted.h ****   template<class Y>
  69:/home/zkmike/workspace/RZA2M/rza2m_2d_barcode_sample_freertos_gcc/src/zxing_lib/zxing/common/Counted.h ****   Ref(const Ref<Y> &other) :
  70:/home/zkmike/workspace/RZA2M/rza2m_2d_barcode_sample_freertos_gcc/src/zxing_lib/zxing/common/Counted.h ****       object_(0) {
  71:/home/zkmike/workspace/RZA2M/rza2m_2d_barcode_sample_freertos_gcc/src/zxing_lib/zxing/common/Counted.h ****     reset(other.object_);
  72:/home/zkmike/workspace/RZA2M/rza2m_2d_barcode_sample_freertos_gcc/src/zxing_lib/zxing/common/Counted.h ****   }
  73:/home/zkmike/workspace/RZA2M/rza2m_2d_barcode_sample_freertos_gcc/src/zxing_lib/zxing/common/Counted.h **** 
  74:/home/zkmike/workspace/RZA2M/rza2m_2d_barcode_sample_freertos_gcc/src/zxing_lib/zxing/common/Counted.h ****   ~Ref() {
  75:/home/zkmike/workspace/RZA2M/rza2m_2d_barcode_sample_freertos_gcc/src/zxing_lib/zxing/common/Counted.h ****     if (object_) {
 148              		.loc 2 75 0
 149 0038 080094E5 		ldr	r0, [r4, #8]
 150 003c 000050E3 		cmp	r0, #0
 151 0040 0400000A 		beq	.L9
 152              	.LVL11:
 153              	.LBB505:
 154              	.LBB506:
  40:/home/zkmike/workspace/RZA2M/rza2m_2d_barcode_sample_freertos_gcc/src/zxing_lib/zxing/common/Counted.h ****     if (count_ == 0) {
 155              		.loc 2 40 0
 156 0044 043090E5 		ldr	r3, [r0, #4]
 157 0048 013043E2 		sub	r3, r3, #1
 158 004c 043080E5 		str	r3, [r0, #4]
  41:/home/zkmike/workspace/RZA2M/rza2m_2d_barcode_sample_freertos_gcc/src/zxing_lib/zxing/common/Counted.h ****       count_ = 0xDEADF001;
 159              		.loc 2 41 0
 160 0050 000053E3 		cmp	r3, #0
 161 0054 0800000A 		beq	.L12
 162              	.LVL12:
 163              	.L9:
 164              	.LBE506:
 165              	.LBE505:
 166              	.LBE504:
 167              	.LBE503:
 168              	.LBE495:
 169              		.loc 3 34 0
 170 0058 0400A0E1 		mov	r0, r4
 171 005c 1080BDE8 		pop	{r4, pc}
 172              	.LVL13:
 173              	.L11:
 174              	.LBB512:
 175              	.LBB510:
 176              	.LBB502:
 177              	.LBB501:
 178              	.LBB500:
  42:/home/zkmike/workspace/RZA2M/rza2m_2d_barcode_sample_freertos_gcc/src/zxing_lib/zxing/common/Counted.h ****       delete this;
 179              		.loc 2 42 0
 180 0060 01300FE3 		movw	r3, #61441
 181 0064 AD3E4DE3 		movt	r3, 57005
 182 0068 043080E5 		str	r3, [r0, #4]
  43:/home/zkmike/workspace/RZA2M/rza2m_2d_barcode_sample_freertos_gcc/src/zxing_lib/zxing/common/Counted.h ****     }
 183              		.loc 2 43 0
 184 006c 003090E5 		ldr	r3, [r0]
 185 0070 043093E5 		ldr	r3, [r3, #4]
 186 0074 33FF2FE1 		blx	r3
 187              	.LVL14:
 188 0078 EEFFFFEA 		b	.L8
 189              	.LVL15:
 190              	.L12:
 191              	.LBE500:
 192              	.LBE501:
 193              	.LBE502:
 194              	.LBE510:
 195              	.LBB511:
 196              	.LBB509:
 197              	.LBB508:
 198              	.LBB507:
  42:/home/zkmike/workspace/RZA2M/rza2m_2d_barcode_sample_freertos_gcc/src/zxing_lib/zxing/common/Counted.h ****       delete this;
 199              		.loc 2 42 0
 200 007c 01300FE3 		movw	r3, #61441
 201 0080 AD3E4DE3 		movt	r3, 57005
 202 0084 043080E5 		str	r3, [r0, #4]
  43:/home/zkmike/workspace/RZA2M/rza2m_2d_barcode_sample_freertos_gcc/src/zxing_lib/zxing/common/Counted.h ****     }
 203              		.loc 2 43 0
 204 0088 003090E5 		ldr	r3, [r0]
 205 008c 043093E5 		ldr	r3, [r3, #4]
 206 0090 33FF2FE1 		blx	r3
 207              	.LVL16:
 208 0094 EFFFFFEA 		b	.L9
 209              	.L14:
 210              		.align	2
 211              	.L13:
 212 0098 08000000 		.word	_ZTVN5zxing6pdf4177decoder15BitMatrixParserE+8
 213 009c 08000000 		.word	_ZTVN5zxing8ArrayRefIiEE+8
 214              	.LBE507:
 215              	.LBE508:
 216              	.LBE509:
 217              	.LBE511:
 218              	.LBE512:
 219              		.cfi_endproc
 220              	.LFE2800:
 221              		.cantunwind
 222              		.fnend
 224              		.weak	_ZN5zxing6pdf4177decoder15BitMatrixParserD1Ev
 225              		.set	_ZN5zxing6pdf4177decoder15BitMatrixParserD1Ev,_ZN5zxing6pdf4177decoder15BitMatrixParserD2Ev
 226              		.section	.text._ZN5zxing8ArrayRefIiED0Ev,"axG",%progbits,_ZN5zxing8ArrayRefIiED5Ev,comdat
 227              		.align	2
 228              		.weak	_ZN5zxing8ArrayRefIiED0Ev
 229              		.syntax unified
 230              		.arm
 231              		.fpu neon
 233              	_ZN5zxing8ArrayRefIiED0Ev:
 234              		.fnstart
 235              	.LFB2488:
 116:/home/zkmike/workspace/RZA2M/rza2m_2d_barcode_sample_freertos_gcc/src/zxing_lib/zxing/common/Array.h ****     if (array_) {
 236              		.loc 1 116 0
 237              		.cfi_startproc
 238              		@ args = 0, pretend = 0, frame = 0
 239              		@ frame_needed = 0, uses_anonymous_args = 0
 240              	.LVL17:
 241 0000 10402DE9 		push	{r4, lr}
 242              		.cfi_def_cfa_offset 8
 243              		.cfi_offset 4, -8
 244              		.cfi_offset 14, -4
 245 0004 0040A0E1 		mov	r4, r0
 246              	.LVL18:
 247              	.LBB513:
 248              	.LBB514:
 249              		.loc 1 121 0
 250 0008 50309FE5 		ldr	r3, .L19
 251 000c 003080E5 		str	r3, [r0]
 117:/home/zkmike/workspace/RZA2M/rza2m_2d_barcode_sample_freertos_gcc/src/zxing_lib/zxing/common/Array.h ****       array_->release();
 252              		.loc 1 117 0
 253 0010 080090E5 		ldr	r0, [r0, #8]
 254              	.LVL19:
 255 0014 000050E3 		cmp	r0, #0
 256 0018 0400000A 		beq	.L16
 257              	.LVL20:
 258              	.LBB515:
 259              	.LBB516:
  40:/home/zkmike/workspace/RZA2M/rza2m_2d_barcode_sample_freertos_gcc/src/zxing_lib/zxing/common/Counted.h ****     if (count_ == 0) {
 260              		.loc 2 40 0
 261 001c 043090E5 		ldr	r3, [r0, #4]
 262 0020 013043E2 		sub	r3, r3, #1
 263 0024 043080E5 		str	r3, [r0, #4]
  41:/home/zkmike/workspace/RZA2M/rza2m_2d_barcode_sample_freertos_gcc/src/zxing_lib/zxing/common/Counted.h ****       count_ = 0xDEADF001;
 264              		.loc 2 41 0
 265 0028 000053E3 		cmp	r3, #0
 266 002c 0400000A 		beq	.L18
 267              	.LVL21:
 268              	.L16:
 269              	.LBE516:
 270              	.LBE515:
 271              	.LBE514:
 272              	.LBE513:
 273              		.loc 1 121 0
 274 0030 0C10A0E3 		mov	r1, #12
 275 0034 0400A0E1 		mov	r0, r4
 276 0038 FEFFFFEB 		bl	_ZdlPvj
 277              	.LVL22:
 278 003c 0400A0E1 		mov	r0, r4
 279 0040 1080BDE8 		pop	{r4, pc}
 280              	.LVL23:
 281              	.L18:
 282              	.LBB520:
 283              	.LBB519:
 284              	.LBB518:
 285              	.LBB517:
  42:/home/zkmike/workspace/RZA2M/rza2m_2d_barcode_sample_freertos_gcc/src/zxing_lib/zxing/common/Counted.h ****       delete this;
 286              		.loc 2 42 0
 287 0044 01300FE3 		movw	r3, #61441
 288 0048 AD3E4DE3 		movt	r3, 57005
 289 004c 043080E5 		str	r3, [r0, #4]
  43:/home/zkmike/workspace/RZA2M/rza2m_2d_barcode_sample_freertos_gcc/src/zxing_lib/zxing/common/Counted.h ****     }
 290              		.loc 2 43 0
 291 0050 003090E5 		ldr	r3, [r0]
 292 0054 043093E5 		ldr	r3, [r3, #4]
 293 0058 33FF2FE1 		blx	r3
 294              	.LVL24:
 295 005c F3FFFFEA 		b	.L16
 296              	.L20:
 297              		.align	2
 298              	.L19:
 299 0060 08000000 		.word	_ZTVN5zxing8ArrayRefIiEE+8
 300              	.LBE517:
 301              	.LBE518:
 302              	.LBE519:
 303              	.LBE520:
 304              		.cfi_endproc
 305              	.LFE2488:
 306              		.cantunwind
 307              		.fnend
 309              		.section	.text._ZN5zxing5ArrayIiED2Ev,"axG",%progbits,_ZN5zxing5ArrayIiED5Ev,comdat
 310              		.align	2
 311              		.weak	_ZN5zxing5ArrayIiED2Ev
 312              		.syntax unified
 313              		.arm
 314              		.fpu neon
 316              	_ZN5zxing5ArrayIiED2Ev:
 317              		.fnstart
 318              	.LFB2805:
  56:/home/zkmike/workspace/RZA2M/rza2m_2d_barcode_sample_freertos_gcc/src/zxing_lib/zxing/common/Array.h ****   }
 319              		.loc 1 56 0
 320              		.cfi_startproc
 321              		@ args = 0, pretend = 0, frame = 0
 322              		@ frame_needed = 0, uses_anonymous_args = 0
 323              	.LVL25:
 324 0000 10402DE9 		push	{r4, lr}
 325              		.cfi_def_cfa_offset 8
 326              		.cfi_offset 4, -8
 327              		.cfi_offset 14, -4
 328 0004 0040A0E1 		mov	r4, r0
 329              	.LBB521:
  57:/home/zkmike/workspace/RZA2M/rza2m_2d_barcode_sample_freertos_gcc/src/zxing_lib/zxing/common/Array.h ****   Array<T>& operator=(const Array<T> &other) {
 330              		.loc 1 57 0
 331 0008 18309FE5 		ldr	r3, .L24
 332 000c 003080E5 		str	r3, [r0]
 333              	.LVL26:
 334              	.LBB522:
 335              	.LBB523:
 336              		.file 4 "/home/zkmike/.local/share/renesas/e2_studio/toolchains/gcc_arm/gcc-arm-none-eabi-6-2017-q
   1:/home/zkmike/.local/share/renesas/e2_studio/toolchains/gcc_arm/gcc-arm-none-eabi-6-2017-q2-update/arm-none-eabi/include/c++/6.3.1/bits/stl_vector.h **** // Vector implementation -*- C++ -*-
   2:/home/zkmike/.local/share/renesas/e2_studio/toolchains/gcc_arm/gcc-arm-none-eabi-6-2017-q2-update/arm-none-eabi/include/c++/6.3.1/bits/stl_vector.h **** 
   3:/home/zkmike/.local/share/renesas/e2_studio/toolchains/gcc_arm/gcc-arm-none-eabi-6-2017-q2-update/arm-none-eabi/include/c++/6.3.1/bits/stl_vector.h **** // Copyright (C) 2001-2016 Free Software Foundation, Inc.
   4:/home/zkmike/.local/share/renesas/e2_studio/toolchains/gcc_arm/gcc-arm-none-eabi-6-2017-q2-update/arm-none-eabi/include/c++/6.3.1/bits/stl_vector.h **** //
   5:/home/zkmike/.local/share/renesas/e2_studio/toolchains/gcc_arm/gcc-arm-none-eabi-6-2017-q2-update/arm-none-eabi/include/c++/6.3.1/bits/stl_vector.h **** // This file is part of the GNU ISO C++ Library.  This library is free
   6:/home/zkmike/.local/share/renesas/e2_studio/toolchains/gcc_arm/gcc-arm-none-eabi-6-2017-q2-update/arm-none-eabi/include/c++/6.3.1/bits/stl_vector.h **** // software; you can redistribute it and/or modify it under the
   7:/home/zkmike/.local/share/renesas/e2_studio/toolchains/gcc_arm/gcc-arm-none-eabi-6-2017-q2-update/arm-none-eabi/include/c++/6.3.1/bits/stl_vector.h **** // terms of the GNU General Public License as published by the
   8:/home/zkmike/.local/share/renesas/e2_studio/toolchains/gcc_arm/gcc-arm-none-eabi-6-2017-q2-update/arm-none-eabi/include/c++/6.3.1/bits/stl_vector.h **** // Free Software Foundation; either version 3, or (at your option)
   9:/home/zkmike/.local/share/renesas/e2_studio/toolchains/gcc_arm/gcc-arm-none-eabi-6-2017-q2-update/arm-none-eabi/include/c++/6.3.1/bits/stl_vector.h **** // any later version.
  10:/home/zkmike/.local/share/renesas/e2_studio/toolchains/gcc_arm/gcc-arm-none-eabi-6-2017-q2-update/arm-none-eabi/include/c++/6.3.1/bits/stl_vector.h **** 
  11:/home/zkmike/.local/share/renesas/e2_studio/toolchains/gcc_arm/gcc-arm-none-eabi-6-2017-q2-update/arm-none-eabi/include/c++/6.3.1/bits/stl_vector.h **** // This library is distributed in the hope that it will be useful,
  12:/home/zkmike/.local/share/renesas/e2_studio/toolchains/gcc_arm/gcc-arm-none-eabi-6-2017-q2-update/arm-none-eabi/include/c++/6.3.1/bits/stl_vector.h **** // but WITHOUT ANY WARRANTY; without even the implied warranty of
  13:/home/zkmike/.local/share/renesas/e2_studio/toolchains/gcc_arm/gcc-arm-none-eabi-6-2017-q2-update/arm-none-eabi/include/c++/6.3.1/bits/stl_vector.h **** // MERCHANTABILITY or FITNESS FOR A PARTICULAR PURPOSE.  See the
  14:/home/zkmike/.local/share/renesas/e2_studio/toolchains/gcc_arm/gcc-arm-none-eabi-6-2017-q2-update/arm-none-eabi/include/c++/6.3.1/bits/stl_vector.h **** // GNU General Public License for more details.
  15:/home/zkmike/.local/share/renesas/e2_studio/toolchains/gcc_arm/gcc-arm-none-eabi-6-2017-q2-update/arm-none-eabi/include/c++/6.3.1/bits/stl_vector.h **** 
  16:/home/zkmike/.local/share/renesas/e2_studio/toolchains/gcc_arm/gcc-arm-none-eabi-6-2017-q2-update/arm-none-eabi/include/c++/6.3.1/bits/stl_vector.h **** // Under Section 7 of GPL version 3, you are granted additional
  17:/home/zkmike/.local/share/renesas/e2_studio/toolchains/gcc_arm/gcc-arm-none-eabi-6-2017-q2-update/arm-none-eabi/include/c++/6.3.1/bits/stl_vector.h **** // permissions described in the GCC Runtime Library Exception, version
  18:/home/zkmike/.local/share/renesas/e2_studio/toolchains/gcc_arm/gcc-arm-none-eabi-6-2017-q2-update/arm-none-eabi/include/c++/6.3.1/bits/stl_vector.h **** // 3.1, as published by the Free Software Foundation.
  19:/home/zkmike/.local/share/renesas/e2_studio/toolchains/gcc_arm/gcc-arm-none-eabi-6-2017-q2-update/arm-none-eabi/include/c++/6.3.1/bits/stl_vector.h **** 
  20:/home/zkmike/.local/share/renesas/e2_studio/toolchains/gcc_arm/gcc-arm-none-eabi-6-2017-q2-update/arm-none-eabi/include/c++/6.3.1/bits/stl_vector.h **** // You should have received a copy of the GNU General Public License and
  21:/home/zkmike/.local/share/renesas/e2_studio/toolchains/gcc_arm/gcc-arm-none-eabi-6-2017-q2-update/arm-none-eabi/include/c++/6.3.1/bits/stl_vector.h **** // a copy of the GCC Runtime Library Exception along with this program;
  22:/home/zkmike/.local/share/renesas/e2_studio/toolchains/gcc_arm/gcc-arm-none-eabi-6-2017-q2-update/arm-none-eabi/include/c++/6.3.1/bits/stl_vector.h **** // see the files COPYING3 and COPYING.RUNTIME respectively.  If not, see
  23:/home/zkmike/.local/share/renesas/e2_studio/toolchains/gcc_arm/gcc-arm-none-eabi-6-2017-q2-update/arm-none-eabi/include/c++/6.3.1/bits/stl_vector.h **** // <http://www.gnu.org/licenses/>.
  24:/home/zkmike/.local/share/renesas/e2_studio/toolchains/gcc_arm/gcc-arm-none-eabi-6-2017-q2-update/arm-none-eabi/include/c++/6.3.1/bits/stl_vector.h **** 
  25:/home/zkmike/.local/share/renesas/e2_studio/toolchains/gcc_arm/gcc-arm-none-eabi-6-2017-q2-update/arm-none-eabi/include/c++/6.3.1/bits/stl_vector.h **** /*
  26:/home/zkmike/.local/share/renesas/e2_studio/toolchains/gcc_arm/gcc-arm-none-eabi-6-2017-q2-update/arm-none-eabi/include/c++/6.3.1/bits/stl_vector.h ****  *
  27:/home/zkmike/.local/share/renesas/e2_studio/toolchains/gcc_arm/gcc-arm-none-eabi-6-2017-q2-update/arm-none-eabi/include/c++/6.3.1/bits/stl_vector.h ****  * Copyright (c) 1994
  28:/home/zkmike/.local/share/renesas/e2_studio/toolchains/gcc_arm/gcc-arm-none-eabi-6-2017-q2-update/arm-none-eabi/include/c++/6.3.1/bits/stl_vector.h ****  * Hewlett-Packard Company
  29:/home/zkmike/.local/share/renesas/e2_studio/toolchains/gcc_arm/gcc-arm-none-eabi-6-2017-q2-update/arm-none-eabi/include/c++/6.3.1/bits/stl_vector.h ****  *
  30:/home/zkmike/.local/share/renesas/e2_studio/toolchains/gcc_arm/gcc-arm-none-eabi-6-2017-q2-update/arm-none-eabi/include/c++/6.3.1/bits/stl_vector.h ****  * Permission to use, copy, modify, distribute and sell this software
  31:/home/zkmike/.local/share/renesas/e2_studio/toolchains/gcc_arm/gcc-arm-none-eabi-6-2017-q2-update/arm-none-eabi/include/c++/6.3.1/bits/stl_vector.h ****  * and its documentation for any purpose is hereby granted without fee,
  32:/home/zkmike/.local/share/renesas/e2_studio/toolchains/gcc_arm/gcc-arm-none-eabi-6-2017-q2-update/arm-none-eabi/include/c++/6.3.1/bits/stl_vector.h ****  * provided that the above copyright notice appear in all copies and
  33:/home/zkmike/.local/share/renesas/e2_studio/toolchains/gcc_arm/gcc-arm-none-eabi-6-2017-q2-update/arm-none-eabi/include/c++/6.3.1/bits/stl_vector.h ****  * that both that copyright notice and this permission notice appear
  34:/home/zkmike/.local/share/renesas/e2_studio/toolchains/gcc_arm/gcc-arm-none-eabi-6-2017-q2-update/arm-none-eabi/include/c++/6.3.1/bits/stl_vector.h ****  * in supporting documentation.  Hewlett-Packard Company makes no
  35:/home/zkmike/.local/share/renesas/e2_studio/toolchains/gcc_arm/gcc-arm-none-eabi-6-2017-q2-update/arm-none-eabi/include/c++/6.3.1/bits/stl_vector.h ****  * representations about the suitability of this software for any
  36:/home/zkmike/.local/share/renesas/e2_studio/toolchains/gcc_arm/gcc-arm-none-eabi-6-2017-q2-update/arm-none-eabi/include/c++/6.3.1/bits/stl_vector.h ****  * purpose.  It is provided "as is" without express or implied warranty.
  37:/home/zkmike/.local/share/renesas/e2_studio/toolchains/gcc_arm/gcc-arm-none-eabi-6-2017-q2-update/arm-none-eabi/include/c++/6.3.1/bits/stl_vector.h ****  *
  38:/home/zkmike/.local/share/renesas/e2_studio/toolchains/gcc_arm/gcc-arm-none-eabi-6-2017-q2-update/arm-none-eabi/include/c++/6.3.1/bits/stl_vector.h ****  *
  39:/home/zkmike/.local/share/renesas/e2_studio/toolchains/gcc_arm/gcc-arm-none-eabi-6-2017-q2-update/arm-none-eabi/include/c++/6.3.1/bits/stl_vector.h ****  * Copyright (c) 1996
  40:/home/zkmike/.local/share/renesas/e2_studio/toolchains/gcc_arm/gcc-arm-none-eabi-6-2017-q2-update/arm-none-eabi/include/c++/6.3.1/bits/stl_vector.h ****  * Silicon Graphics Computer Systems, Inc.
  41:/home/zkmike/.local/share/renesas/e2_studio/toolchains/gcc_arm/gcc-arm-none-eabi-6-2017-q2-update/arm-none-eabi/include/c++/6.3.1/bits/stl_vector.h ****  *
  42:/home/zkmike/.local/share/renesas/e2_studio/toolchains/gcc_arm/gcc-arm-none-eabi-6-2017-q2-update/arm-none-eabi/include/c++/6.3.1/bits/stl_vector.h ****  * Permission to use, copy, modify, distribute and sell this software
  43:/home/zkmike/.local/share/renesas/e2_studio/toolchains/gcc_arm/gcc-arm-none-eabi-6-2017-q2-update/arm-none-eabi/include/c++/6.3.1/bits/stl_vector.h ****  * and its documentation for any purpose is hereby granted without fee,
  44:/home/zkmike/.local/share/renesas/e2_studio/toolchains/gcc_arm/gcc-arm-none-eabi-6-2017-q2-update/arm-none-eabi/include/c++/6.3.1/bits/stl_vector.h ****  * provided that the above copyright notice appear in all copies and
  45:/home/zkmike/.local/share/renesas/e2_studio/toolchains/gcc_arm/gcc-arm-none-eabi-6-2017-q2-update/arm-none-eabi/include/c++/6.3.1/bits/stl_vector.h ****  * that both that copyright notice and this permission notice appear
  46:/home/zkmike/.local/share/renesas/e2_studio/toolchains/gcc_arm/gcc-arm-none-eabi-6-2017-q2-update/arm-none-eabi/include/c++/6.3.1/bits/stl_vector.h ****  * in supporting documentation.  Silicon Graphics makes no
  47:/home/zkmike/.local/share/renesas/e2_studio/toolchains/gcc_arm/gcc-arm-none-eabi-6-2017-q2-update/arm-none-eabi/include/c++/6.3.1/bits/stl_vector.h ****  * representations about the suitability of this  software for any
  48:/home/zkmike/.local/share/renesas/e2_studio/toolchains/gcc_arm/gcc-arm-none-eabi-6-2017-q2-update/arm-none-eabi/include/c++/6.3.1/bits/stl_vector.h ****  * purpose.  It is provided "as is" without express or implied warranty.
  49:/home/zkmike/.local/share/renesas/e2_studio/toolchains/gcc_arm/gcc-arm-none-eabi-6-2017-q2-update/arm-none-eabi/include/c++/6.3.1/bits/stl_vector.h ****  */
  50:/home/zkmike/.local/share/renesas/e2_studio/toolchains/gcc_arm/gcc-arm-none-eabi-6-2017-q2-update/arm-none-eabi/include/c++/6.3.1/bits/stl_vector.h **** 
  51:/home/zkmike/.local/share/renesas/e2_studio/toolchains/gcc_arm/gcc-arm-none-eabi-6-2017-q2-update/arm-none-eabi/include/c++/6.3.1/bits/stl_vector.h **** /** @file bits/stl_vector.h
  52:/home/zkmike/.local/share/renesas/e2_studio/toolchains/gcc_arm/gcc-arm-none-eabi-6-2017-q2-update/arm-none-eabi/include/c++/6.3.1/bits/stl_vector.h ****  *  This is an internal header file, included by other library headers.
  53:/home/zkmike/.local/share/renesas/e2_studio/toolchains/gcc_arm/gcc-arm-none-eabi-6-2017-q2-update/arm-none-eabi/include/c++/6.3.1/bits/stl_vector.h ****  *  Do not attempt to use it directly. @headername{vector}
  54:/home/zkmike/.local/share/renesas/e2_studio/toolchains/gcc_arm/gcc-arm-none-eabi-6-2017-q2-update/arm-none-eabi/include/c++/6.3.1/bits/stl_vector.h ****  */
  55:/home/zkmike/.local/share/renesas/e2_studio/toolchains/gcc_arm/gcc-arm-none-eabi-6-2017-q2-update/arm-none-eabi/include/c++/6.3.1/bits/stl_vector.h **** 
  56:/home/zkmike/.local/share/renesas/e2_studio/toolchains/gcc_arm/gcc-arm-none-eabi-6-2017-q2-update/arm-none-eabi/include/c++/6.3.1/bits/stl_vector.h **** #ifndef _STL_VECTOR_H
  57:/home/zkmike/.local/share/renesas/e2_studio/toolchains/gcc_arm/gcc-arm-none-eabi-6-2017-q2-update/arm-none-eabi/include/c++/6.3.1/bits/stl_vector.h **** #define _STL_VECTOR_H 1
  58:/home/zkmike/.local/share/renesas/e2_studio/toolchains/gcc_arm/gcc-arm-none-eabi-6-2017-q2-update/arm-none-eabi/include/c++/6.3.1/bits/stl_vector.h **** 
  59:/home/zkmike/.local/share/renesas/e2_studio/toolchains/gcc_arm/gcc-arm-none-eabi-6-2017-q2-update/arm-none-eabi/include/c++/6.3.1/bits/stl_vector.h **** #include <bits/stl_iterator_base_funcs.h>
  60:/home/zkmike/.local/share/renesas/e2_studio/toolchains/gcc_arm/gcc-arm-none-eabi-6-2017-q2-update/arm-none-eabi/include/c++/6.3.1/bits/stl_vector.h **** #include <bits/functexcept.h>
  61:/home/zkmike/.local/share/renesas/e2_studio/toolchains/gcc_arm/gcc-arm-none-eabi-6-2017-q2-update/arm-none-eabi/include/c++/6.3.1/bits/stl_vector.h **** #include <bits/concept_check.h>
  62:/home/zkmike/.local/share/renesas/e2_studio/toolchains/gcc_arm/gcc-arm-none-eabi-6-2017-q2-update/arm-none-eabi/include/c++/6.3.1/bits/stl_vector.h **** #if __cplusplus >= 201103L
  63:/home/zkmike/.local/share/renesas/e2_studio/toolchains/gcc_arm/gcc-arm-none-eabi-6-2017-q2-update/arm-none-eabi/include/c++/6.3.1/bits/stl_vector.h **** #include <initializer_list>
  64:/home/zkmike/.local/share/renesas/e2_studio/toolchains/gcc_arm/gcc-arm-none-eabi-6-2017-q2-update/arm-none-eabi/include/c++/6.3.1/bits/stl_vector.h **** #endif
  65:/home/zkmike/.local/share/renesas/e2_studio/toolchains/gcc_arm/gcc-arm-none-eabi-6-2017-q2-update/arm-none-eabi/include/c++/6.3.1/bits/stl_vector.h **** 
  66:/home/zkmike/.local/share/renesas/e2_studio/toolchains/gcc_arm/gcc-arm-none-eabi-6-2017-q2-update/arm-none-eabi/include/c++/6.3.1/bits/stl_vector.h **** namespace std _GLIBCXX_VISIBILITY(default)
  67:/home/zkmike/.local/share/renesas/e2_studio/toolchains/gcc_arm/gcc-arm-none-eabi-6-2017-q2-update/arm-none-eabi/include/c++/6.3.1/bits/stl_vector.h **** {
  68:/home/zkmike/.local/share/renesas/e2_studio/toolchains/gcc_arm/gcc-arm-none-eabi-6-2017-q2-update/arm-none-eabi/include/c++/6.3.1/bits/stl_vector.h **** _GLIBCXX_BEGIN_NAMESPACE_CONTAINER
  69:/home/zkmike/.local/share/renesas/e2_studio/toolchains/gcc_arm/gcc-arm-none-eabi-6-2017-q2-update/arm-none-eabi/include/c++/6.3.1/bits/stl_vector.h **** 
  70:/home/zkmike/.local/share/renesas/e2_studio/toolchains/gcc_arm/gcc-arm-none-eabi-6-2017-q2-update/arm-none-eabi/include/c++/6.3.1/bits/stl_vector.h ****   /// See bits/stl_deque.h's _Deque_base for an explanation.
  71:/home/zkmike/.local/share/renesas/e2_studio/toolchains/gcc_arm/gcc-arm-none-eabi-6-2017-q2-update/arm-none-eabi/include/c++/6.3.1/bits/stl_vector.h ****   template<typename _Tp, typename _Alloc>
  72:/home/zkmike/.local/share/renesas/e2_studio/toolchains/gcc_arm/gcc-arm-none-eabi-6-2017-q2-update/arm-none-eabi/include/c++/6.3.1/bits/stl_vector.h ****     struct _Vector_base
  73:/home/zkmike/.local/share/renesas/e2_studio/toolchains/gcc_arm/gcc-arm-none-eabi-6-2017-q2-update/arm-none-eabi/include/c++/6.3.1/bits/stl_vector.h ****     {
  74:/home/zkmike/.local/share/renesas/e2_studio/toolchains/gcc_arm/gcc-arm-none-eabi-6-2017-q2-update/arm-none-eabi/include/c++/6.3.1/bits/stl_vector.h ****       typedef typename __gnu_cxx::__alloc_traits<_Alloc>::template
  75:/home/zkmike/.local/share/renesas/e2_studio/toolchains/gcc_arm/gcc-arm-none-eabi-6-2017-q2-update/arm-none-eabi/include/c++/6.3.1/bits/stl_vector.h ****         rebind<_Tp>::other _Tp_alloc_type;
  76:/home/zkmike/.local/share/renesas/e2_studio/toolchains/gcc_arm/gcc-arm-none-eabi-6-2017-q2-update/arm-none-eabi/include/c++/6.3.1/bits/stl_vector.h ****       typedef typename __gnu_cxx::__alloc_traits<_Tp_alloc_type>::pointer
  77:/home/zkmike/.local/share/renesas/e2_studio/toolchains/gcc_arm/gcc-arm-none-eabi-6-2017-q2-update/arm-none-eabi/include/c++/6.3.1/bits/stl_vector.h ****        	pointer;
  78:/home/zkmike/.local/share/renesas/e2_studio/toolchains/gcc_arm/gcc-arm-none-eabi-6-2017-q2-update/arm-none-eabi/include/c++/6.3.1/bits/stl_vector.h **** 
  79:/home/zkmike/.local/share/renesas/e2_studio/toolchains/gcc_arm/gcc-arm-none-eabi-6-2017-q2-update/arm-none-eabi/include/c++/6.3.1/bits/stl_vector.h ****       struct _Vector_impl 
  80:/home/zkmike/.local/share/renesas/e2_studio/toolchains/gcc_arm/gcc-arm-none-eabi-6-2017-q2-update/arm-none-eabi/include/c++/6.3.1/bits/stl_vector.h ****       : public _Tp_alloc_type
  81:/home/zkmike/.local/share/renesas/e2_studio/toolchains/gcc_arm/gcc-arm-none-eabi-6-2017-q2-update/arm-none-eabi/include/c++/6.3.1/bits/stl_vector.h ****       {
  82:/home/zkmike/.local/share/renesas/e2_studio/toolchains/gcc_arm/gcc-arm-none-eabi-6-2017-q2-update/arm-none-eabi/include/c++/6.3.1/bits/stl_vector.h **** 	pointer _M_start;
  83:/home/zkmike/.local/share/renesas/e2_studio/toolchains/gcc_arm/gcc-arm-none-eabi-6-2017-q2-update/arm-none-eabi/include/c++/6.3.1/bits/stl_vector.h **** 	pointer _M_finish;
  84:/home/zkmike/.local/share/renesas/e2_studio/toolchains/gcc_arm/gcc-arm-none-eabi-6-2017-q2-update/arm-none-eabi/include/c++/6.3.1/bits/stl_vector.h **** 	pointer _M_end_of_storage;
  85:/home/zkmike/.local/share/renesas/e2_studio/toolchains/gcc_arm/gcc-arm-none-eabi-6-2017-q2-update/arm-none-eabi/include/c++/6.3.1/bits/stl_vector.h **** 
  86:/home/zkmike/.local/share/renesas/e2_studio/toolchains/gcc_arm/gcc-arm-none-eabi-6-2017-q2-update/arm-none-eabi/include/c++/6.3.1/bits/stl_vector.h **** 	_Vector_impl()
  87:/home/zkmike/.local/share/renesas/e2_studio/toolchains/gcc_arm/gcc-arm-none-eabi-6-2017-q2-update/arm-none-eabi/include/c++/6.3.1/bits/stl_vector.h **** 	: _Tp_alloc_type(), _M_start(), _M_finish(), _M_end_of_storage()
  88:/home/zkmike/.local/share/renesas/e2_studio/toolchains/gcc_arm/gcc-arm-none-eabi-6-2017-q2-update/arm-none-eabi/include/c++/6.3.1/bits/stl_vector.h **** 	{ }
  89:/home/zkmike/.local/share/renesas/e2_studio/toolchains/gcc_arm/gcc-arm-none-eabi-6-2017-q2-update/arm-none-eabi/include/c++/6.3.1/bits/stl_vector.h **** 
  90:/home/zkmike/.local/share/renesas/e2_studio/toolchains/gcc_arm/gcc-arm-none-eabi-6-2017-q2-update/arm-none-eabi/include/c++/6.3.1/bits/stl_vector.h **** 	_Vector_impl(_Tp_alloc_type const& __a) _GLIBCXX_NOEXCEPT
  91:/home/zkmike/.local/share/renesas/e2_studio/toolchains/gcc_arm/gcc-arm-none-eabi-6-2017-q2-update/arm-none-eabi/include/c++/6.3.1/bits/stl_vector.h **** 	: _Tp_alloc_type(__a), _M_start(), _M_finish(), _M_end_of_storage()
  92:/home/zkmike/.local/share/renesas/e2_studio/toolchains/gcc_arm/gcc-arm-none-eabi-6-2017-q2-update/arm-none-eabi/include/c++/6.3.1/bits/stl_vector.h **** 	{ }
  93:/home/zkmike/.local/share/renesas/e2_studio/toolchains/gcc_arm/gcc-arm-none-eabi-6-2017-q2-update/arm-none-eabi/include/c++/6.3.1/bits/stl_vector.h **** 
  94:/home/zkmike/.local/share/renesas/e2_studio/toolchains/gcc_arm/gcc-arm-none-eabi-6-2017-q2-update/arm-none-eabi/include/c++/6.3.1/bits/stl_vector.h **** #if __cplusplus >= 201103L
  95:/home/zkmike/.local/share/renesas/e2_studio/toolchains/gcc_arm/gcc-arm-none-eabi-6-2017-q2-update/arm-none-eabi/include/c++/6.3.1/bits/stl_vector.h **** 	_Vector_impl(_Tp_alloc_type&& __a) noexcept
  96:/home/zkmike/.local/share/renesas/e2_studio/toolchains/gcc_arm/gcc-arm-none-eabi-6-2017-q2-update/arm-none-eabi/include/c++/6.3.1/bits/stl_vector.h **** 	: _Tp_alloc_type(std::move(__a)),
  97:/home/zkmike/.local/share/renesas/e2_studio/toolchains/gcc_arm/gcc-arm-none-eabi-6-2017-q2-update/arm-none-eabi/include/c++/6.3.1/bits/stl_vector.h **** 	  _M_start(), _M_finish(), _M_end_of_storage()
  98:/home/zkmike/.local/share/renesas/e2_studio/toolchains/gcc_arm/gcc-arm-none-eabi-6-2017-q2-update/arm-none-eabi/include/c++/6.3.1/bits/stl_vector.h **** 	{ }
  99:/home/zkmike/.local/share/renesas/e2_studio/toolchains/gcc_arm/gcc-arm-none-eabi-6-2017-q2-update/arm-none-eabi/include/c++/6.3.1/bits/stl_vector.h **** #endif
 100:/home/zkmike/.local/share/renesas/e2_studio/toolchains/gcc_arm/gcc-arm-none-eabi-6-2017-q2-update/arm-none-eabi/include/c++/6.3.1/bits/stl_vector.h **** 
 101:/home/zkmike/.local/share/renesas/e2_studio/toolchains/gcc_arm/gcc-arm-none-eabi-6-2017-q2-update/arm-none-eabi/include/c++/6.3.1/bits/stl_vector.h **** 	void _M_swap_data(_Vector_impl& __x) _GLIBCXX_NOEXCEPT
 102:/home/zkmike/.local/share/renesas/e2_studio/toolchains/gcc_arm/gcc-arm-none-eabi-6-2017-q2-update/arm-none-eabi/include/c++/6.3.1/bits/stl_vector.h **** 	{
 103:/home/zkmike/.local/share/renesas/e2_studio/toolchains/gcc_arm/gcc-arm-none-eabi-6-2017-q2-update/arm-none-eabi/include/c++/6.3.1/bits/stl_vector.h **** 	  std::swap(_M_start, __x._M_start);
 104:/home/zkmike/.local/share/renesas/e2_studio/toolchains/gcc_arm/gcc-arm-none-eabi-6-2017-q2-update/arm-none-eabi/include/c++/6.3.1/bits/stl_vector.h **** 	  std::swap(_M_finish, __x._M_finish);
 105:/home/zkmike/.local/share/renesas/e2_studio/toolchains/gcc_arm/gcc-arm-none-eabi-6-2017-q2-update/arm-none-eabi/include/c++/6.3.1/bits/stl_vector.h **** 	  std::swap(_M_end_of_storage, __x._M_end_of_storage);
 106:/home/zkmike/.local/share/renesas/e2_studio/toolchains/gcc_arm/gcc-arm-none-eabi-6-2017-q2-update/arm-none-eabi/include/c++/6.3.1/bits/stl_vector.h **** 	}
 107:/home/zkmike/.local/share/renesas/e2_studio/toolchains/gcc_arm/gcc-arm-none-eabi-6-2017-q2-update/arm-none-eabi/include/c++/6.3.1/bits/stl_vector.h ****       };
 108:/home/zkmike/.local/share/renesas/e2_studio/toolchains/gcc_arm/gcc-arm-none-eabi-6-2017-q2-update/arm-none-eabi/include/c++/6.3.1/bits/stl_vector.h ****       
 109:/home/zkmike/.local/share/renesas/e2_studio/toolchains/gcc_arm/gcc-arm-none-eabi-6-2017-q2-update/arm-none-eabi/include/c++/6.3.1/bits/stl_vector.h ****     public:
 110:/home/zkmike/.local/share/renesas/e2_studio/toolchains/gcc_arm/gcc-arm-none-eabi-6-2017-q2-update/arm-none-eabi/include/c++/6.3.1/bits/stl_vector.h ****       typedef _Alloc allocator_type;
 111:/home/zkmike/.local/share/renesas/e2_studio/toolchains/gcc_arm/gcc-arm-none-eabi-6-2017-q2-update/arm-none-eabi/include/c++/6.3.1/bits/stl_vector.h **** 
 112:/home/zkmike/.local/share/renesas/e2_studio/toolchains/gcc_arm/gcc-arm-none-eabi-6-2017-q2-update/arm-none-eabi/include/c++/6.3.1/bits/stl_vector.h ****       _Tp_alloc_type&
 113:/home/zkmike/.local/share/renesas/e2_studio/toolchains/gcc_arm/gcc-arm-none-eabi-6-2017-q2-update/arm-none-eabi/include/c++/6.3.1/bits/stl_vector.h ****       _M_get_Tp_allocator() _GLIBCXX_NOEXCEPT
 114:/home/zkmike/.local/share/renesas/e2_studio/toolchains/gcc_arm/gcc-arm-none-eabi-6-2017-q2-update/arm-none-eabi/include/c++/6.3.1/bits/stl_vector.h ****       { return *static_cast<_Tp_alloc_type*>(&this->_M_impl); }
 115:/home/zkmike/.local/share/renesas/e2_studio/toolchains/gcc_arm/gcc-arm-none-eabi-6-2017-q2-update/arm-none-eabi/include/c++/6.3.1/bits/stl_vector.h **** 
 116:/home/zkmike/.local/share/renesas/e2_studio/toolchains/gcc_arm/gcc-arm-none-eabi-6-2017-q2-update/arm-none-eabi/include/c++/6.3.1/bits/stl_vector.h ****       const _Tp_alloc_type&
 117:/home/zkmike/.local/share/renesas/e2_studio/toolchains/gcc_arm/gcc-arm-none-eabi-6-2017-q2-update/arm-none-eabi/include/c++/6.3.1/bits/stl_vector.h ****       _M_get_Tp_allocator() const _GLIBCXX_NOEXCEPT
 118:/home/zkmike/.local/share/renesas/e2_studio/toolchains/gcc_arm/gcc-arm-none-eabi-6-2017-q2-update/arm-none-eabi/include/c++/6.3.1/bits/stl_vector.h ****       { return *static_cast<const _Tp_alloc_type*>(&this->_M_impl); }
 119:/home/zkmike/.local/share/renesas/e2_studio/toolchains/gcc_arm/gcc-arm-none-eabi-6-2017-q2-update/arm-none-eabi/include/c++/6.3.1/bits/stl_vector.h **** 
 120:/home/zkmike/.local/share/renesas/e2_studio/toolchains/gcc_arm/gcc-arm-none-eabi-6-2017-q2-update/arm-none-eabi/include/c++/6.3.1/bits/stl_vector.h ****       allocator_type
 121:/home/zkmike/.local/share/renesas/e2_studio/toolchains/gcc_arm/gcc-arm-none-eabi-6-2017-q2-update/arm-none-eabi/include/c++/6.3.1/bits/stl_vector.h ****       get_allocator() const _GLIBCXX_NOEXCEPT
 122:/home/zkmike/.local/share/renesas/e2_studio/toolchains/gcc_arm/gcc-arm-none-eabi-6-2017-q2-update/arm-none-eabi/include/c++/6.3.1/bits/stl_vector.h ****       { return allocator_type(_M_get_Tp_allocator()); }
 123:/home/zkmike/.local/share/renesas/e2_studio/toolchains/gcc_arm/gcc-arm-none-eabi-6-2017-q2-update/arm-none-eabi/include/c++/6.3.1/bits/stl_vector.h **** 
 124:/home/zkmike/.local/share/renesas/e2_studio/toolchains/gcc_arm/gcc-arm-none-eabi-6-2017-q2-update/arm-none-eabi/include/c++/6.3.1/bits/stl_vector.h ****       _Vector_base()
 125:/home/zkmike/.local/share/renesas/e2_studio/toolchains/gcc_arm/gcc-arm-none-eabi-6-2017-q2-update/arm-none-eabi/include/c++/6.3.1/bits/stl_vector.h ****       : _M_impl() { }
 126:/home/zkmike/.local/share/renesas/e2_studio/toolchains/gcc_arm/gcc-arm-none-eabi-6-2017-q2-update/arm-none-eabi/include/c++/6.3.1/bits/stl_vector.h **** 
 127:/home/zkmike/.local/share/renesas/e2_studio/toolchains/gcc_arm/gcc-arm-none-eabi-6-2017-q2-update/arm-none-eabi/include/c++/6.3.1/bits/stl_vector.h ****       _Vector_base(const allocator_type& __a) _GLIBCXX_NOEXCEPT
 128:/home/zkmike/.local/share/renesas/e2_studio/toolchains/gcc_arm/gcc-arm-none-eabi-6-2017-q2-update/arm-none-eabi/include/c++/6.3.1/bits/stl_vector.h ****       : _M_impl(__a) { }
 129:/home/zkmike/.local/share/renesas/e2_studio/toolchains/gcc_arm/gcc-arm-none-eabi-6-2017-q2-update/arm-none-eabi/include/c++/6.3.1/bits/stl_vector.h **** 
 130:/home/zkmike/.local/share/renesas/e2_studio/toolchains/gcc_arm/gcc-arm-none-eabi-6-2017-q2-update/arm-none-eabi/include/c++/6.3.1/bits/stl_vector.h ****       _Vector_base(size_t __n)
 131:/home/zkmike/.local/share/renesas/e2_studio/toolchains/gcc_arm/gcc-arm-none-eabi-6-2017-q2-update/arm-none-eabi/include/c++/6.3.1/bits/stl_vector.h ****       : _M_impl()
 132:/home/zkmike/.local/share/renesas/e2_studio/toolchains/gcc_arm/gcc-arm-none-eabi-6-2017-q2-update/arm-none-eabi/include/c++/6.3.1/bits/stl_vector.h ****       { _M_create_storage(__n); }
 133:/home/zkmike/.local/share/renesas/e2_studio/toolchains/gcc_arm/gcc-arm-none-eabi-6-2017-q2-update/arm-none-eabi/include/c++/6.3.1/bits/stl_vector.h **** 
 134:/home/zkmike/.local/share/renesas/e2_studio/toolchains/gcc_arm/gcc-arm-none-eabi-6-2017-q2-update/arm-none-eabi/include/c++/6.3.1/bits/stl_vector.h ****       _Vector_base(size_t __n, const allocator_type& __a)
 135:/home/zkmike/.local/share/renesas/e2_studio/toolchains/gcc_arm/gcc-arm-none-eabi-6-2017-q2-update/arm-none-eabi/include/c++/6.3.1/bits/stl_vector.h ****       : _M_impl(__a)
 136:/home/zkmike/.local/share/renesas/e2_studio/toolchains/gcc_arm/gcc-arm-none-eabi-6-2017-q2-update/arm-none-eabi/include/c++/6.3.1/bits/stl_vector.h ****       { _M_create_storage(__n); }
 137:/home/zkmike/.local/share/renesas/e2_studio/toolchains/gcc_arm/gcc-arm-none-eabi-6-2017-q2-update/arm-none-eabi/include/c++/6.3.1/bits/stl_vector.h **** 
 138:/home/zkmike/.local/share/renesas/e2_studio/toolchains/gcc_arm/gcc-arm-none-eabi-6-2017-q2-update/arm-none-eabi/include/c++/6.3.1/bits/stl_vector.h **** #if __cplusplus >= 201103L
 139:/home/zkmike/.local/share/renesas/e2_studio/toolchains/gcc_arm/gcc-arm-none-eabi-6-2017-q2-update/arm-none-eabi/include/c++/6.3.1/bits/stl_vector.h ****       _Vector_base(_Tp_alloc_type&& __a) noexcept
 140:/home/zkmike/.local/share/renesas/e2_studio/toolchains/gcc_arm/gcc-arm-none-eabi-6-2017-q2-update/arm-none-eabi/include/c++/6.3.1/bits/stl_vector.h ****       : _M_impl(std::move(__a)) { }
 141:/home/zkmike/.local/share/renesas/e2_studio/toolchains/gcc_arm/gcc-arm-none-eabi-6-2017-q2-update/arm-none-eabi/include/c++/6.3.1/bits/stl_vector.h **** 
 142:/home/zkmike/.local/share/renesas/e2_studio/toolchains/gcc_arm/gcc-arm-none-eabi-6-2017-q2-update/arm-none-eabi/include/c++/6.3.1/bits/stl_vector.h ****       _Vector_base(_Vector_base&& __x) noexcept
 143:/home/zkmike/.local/share/renesas/e2_studio/toolchains/gcc_arm/gcc-arm-none-eabi-6-2017-q2-update/arm-none-eabi/include/c++/6.3.1/bits/stl_vector.h ****       : _M_impl(std::move(__x._M_get_Tp_allocator()))
 144:/home/zkmike/.local/share/renesas/e2_studio/toolchains/gcc_arm/gcc-arm-none-eabi-6-2017-q2-update/arm-none-eabi/include/c++/6.3.1/bits/stl_vector.h ****       { this->_M_impl._M_swap_data(__x._M_impl); }
 145:/home/zkmike/.local/share/renesas/e2_studio/toolchains/gcc_arm/gcc-arm-none-eabi-6-2017-q2-update/arm-none-eabi/include/c++/6.3.1/bits/stl_vector.h **** 
 146:/home/zkmike/.local/share/renesas/e2_studio/toolchains/gcc_arm/gcc-arm-none-eabi-6-2017-q2-update/arm-none-eabi/include/c++/6.3.1/bits/stl_vector.h ****       _Vector_base(_Vector_base&& __x, const allocator_type& __a)
 147:/home/zkmike/.local/share/renesas/e2_studio/toolchains/gcc_arm/gcc-arm-none-eabi-6-2017-q2-update/arm-none-eabi/include/c++/6.3.1/bits/stl_vector.h ****       : _M_impl(__a)
 148:/home/zkmike/.local/share/renesas/e2_studio/toolchains/gcc_arm/gcc-arm-none-eabi-6-2017-q2-update/arm-none-eabi/include/c++/6.3.1/bits/stl_vector.h ****       {
 149:/home/zkmike/.local/share/renesas/e2_studio/toolchains/gcc_arm/gcc-arm-none-eabi-6-2017-q2-update/arm-none-eabi/include/c++/6.3.1/bits/stl_vector.h **** 	if (__x.get_allocator() == __a)
 150:/home/zkmike/.local/share/renesas/e2_studio/toolchains/gcc_arm/gcc-arm-none-eabi-6-2017-q2-update/arm-none-eabi/include/c++/6.3.1/bits/stl_vector.h **** 	  this->_M_impl._M_swap_data(__x._M_impl);
 151:/home/zkmike/.local/share/renesas/e2_studio/toolchains/gcc_arm/gcc-arm-none-eabi-6-2017-q2-update/arm-none-eabi/include/c++/6.3.1/bits/stl_vector.h **** 	else
 152:/home/zkmike/.local/share/renesas/e2_studio/toolchains/gcc_arm/gcc-arm-none-eabi-6-2017-q2-update/arm-none-eabi/include/c++/6.3.1/bits/stl_vector.h **** 	  {
 153:/home/zkmike/.local/share/renesas/e2_studio/toolchains/gcc_arm/gcc-arm-none-eabi-6-2017-q2-update/arm-none-eabi/include/c++/6.3.1/bits/stl_vector.h **** 	    size_t __n = __x._M_impl._M_finish - __x._M_impl._M_start;
 154:/home/zkmike/.local/share/renesas/e2_studio/toolchains/gcc_arm/gcc-arm-none-eabi-6-2017-q2-update/arm-none-eabi/include/c++/6.3.1/bits/stl_vector.h **** 	    _M_create_storage(__n);
 155:/home/zkmike/.local/share/renesas/e2_studio/toolchains/gcc_arm/gcc-arm-none-eabi-6-2017-q2-update/arm-none-eabi/include/c++/6.3.1/bits/stl_vector.h **** 	  }
 156:/home/zkmike/.local/share/renesas/e2_studio/toolchains/gcc_arm/gcc-arm-none-eabi-6-2017-q2-update/arm-none-eabi/include/c++/6.3.1/bits/stl_vector.h ****       }
 157:/home/zkmike/.local/share/renesas/e2_studio/toolchains/gcc_arm/gcc-arm-none-eabi-6-2017-q2-update/arm-none-eabi/include/c++/6.3.1/bits/stl_vector.h **** #endif
 158:/home/zkmike/.local/share/renesas/e2_studio/toolchains/gcc_arm/gcc-arm-none-eabi-6-2017-q2-update/arm-none-eabi/include/c++/6.3.1/bits/stl_vector.h **** 
 159:/home/zkmike/.local/share/renesas/e2_studio/toolchains/gcc_arm/gcc-arm-none-eabi-6-2017-q2-update/arm-none-eabi/include/c++/6.3.1/bits/stl_vector.h ****       ~_Vector_base() _GLIBCXX_NOEXCEPT
 160:/home/zkmike/.local/share/renesas/e2_studio/toolchains/gcc_arm/gcc-arm-none-eabi-6-2017-q2-update/arm-none-eabi/include/c++/6.3.1/bits/stl_vector.h ****       { _M_deallocate(this->_M_impl._M_start, this->_M_impl._M_end_of_storage
 161:/home/zkmike/.local/share/renesas/e2_studio/toolchains/gcc_arm/gcc-arm-none-eabi-6-2017-q2-update/arm-none-eabi/include/c++/6.3.1/bits/stl_vector.h **** 		      - this->_M_impl._M_start); }
 162:/home/zkmike/.local/share/renesas/e2_studio/toolchains/gcc_arm/gcc-arm-none-eabi-6-2017-q2-update/arm-none-eabi/include/c++/6.3.1/bits/stl_vector.h **** 
 163:/home/zkmike/.local/share/renesas/e2_studio/toolchains/gcc_arm/gcc-arm-none-eabi-6-2017-q2-update/arm-none-eabi/include/c++/6.3.1/bits/stl_vector.h ****     public:
 164:/home/zkmike/.local/share/renesas/e2_studio/toolchains/gcc_arm/gcc-arm-none-eabi-6-2017-q2-update/arm-none-eabi/include/c++/6.3.1/bits/stl_vector.h ****       _Vector_impl _M_impl;
 165:/home/zkmike/.local/share/renesas/e2_studio/toolchains/gcc_arm/gcc-arm-none-eabi-6-2017-q2-update/arm-none-eabi/include/c++/6.3.1/bits/stl_vector.h **** 
 166:/home/zkmike/.local/share/renesas/e2_studio/toolchains/gcc_arm/gcc-arm-none-eabi-6-2017-q2-update/arm-none-eabi/include/c++/6.3.1/bits/stl_vector.h ****       pointer
 167:/home/zkmike/.local/share/renesas/e2_studio/toolchains/gcc_arm/gcc-arm-none-eabi-6-2017-q2-update/arm-none-eabi/include/c++/6.3.1/bits/stl_vector.h ****       _M_allocate(size_t __n)
 168:/home/zkmike/.local/share/renesas/e2_studio/toolchains/gcc_arm/gcc-arm-none-eabi-6-2017-q2-update/arm-none-eabi/include/c++/6.3.1/bits/stl_vector.h ****       {
 169:/home/zkmike/.local/share/renesas/e2_studio/toolchains/gcc_arm/gcc-arm-none-eabi-6-2017-q2-update/arm-none-eabi/include/c++/6.3.1/bits/stl_vector.h **** 	typedef __gnu_cxx::__alloc_traits<_Tp_alloc_type> _Tr;
 170:/home/zkmike/.local/share/renesas/e2_studio/toolchains/gcc_arm/gcc-arm-none-eabi-6-2017-q2-update/arm-none-eabi/include/c++/6.3.1/bits/stl_vector.h **** 	return __n != 0 ? _Tr::allocate(_M_impl, __n) : pointer();
 171:/home/zkmike/.local/share/renesas/e2_studio/toolchains/gcc_arm/gcc-arm-none-eabi-6-2017-q2-update/arm-none-eabi/include/c++/6.3.1/bits/stl_vector.h ****       }
 172:/home/zkmike/.local/share/renesas/e2_studio/toolchains/gcc_arm/gcc-arm-none-eabi-6-2017-q2-update/arm-none-eabi/include/c++/6.3.1/bits/stl_vector.h **** 
 173:/home/zkmike/.local/share/renesas/e2_studio/toolchains/gcc_arm/gcc-arm-none-eabi-6-2017-q2-update/arm-none-eabi/include/c++/6.3.1/bits/stl_vector.h ****       void
 174:/home/zkmike/.local/share/renesas/e2_studio/toolchains/gcc_arm/gcc-arm-none-eabi-6-2017-q2-update/arm-none-eabi/include/c++/6.3.1/bits/stl_vector.h ****       _M_deallocate(pointer __p, size_t __n)
 175:/home/zkmike/.local/share/renesas/e2_studio/toolchains/gcc_arm/gcc-arm-none-eabi-6-2017-q2-update/arm-none-eabi/include/c++/6.3.1/bits/stl_vector.h ****       {
 176:/home/zkmike/.local/share/renesas/e2_studio/toolchains/gcc_arm/gcc-arm-none-eabi-6-2017-q2-update/arm-none-eabi/include/c++/6.3.1/bits/stl_vector.h **** 	typedef __gnu_cxx::__alloc_traits<_Tp_alloc_type> _Tr;
 177:/home/zkmike/.local/share/renesas/e2_studio/toolchains/gcc_arm/gcc-arm-none-eabi-6-2017-q2-update/arm-none-eabi/include/c++/6.3.1/bits/stl_vector.h **** 	if (__p)
 178:/home/zkmike/.local/share/renesas/e2_studio/toolchains/gcc_arm/gcc-arm-none-eabi-6-2017-q2-update/arm-none-eabi/include/c++/6.3.1/bits/stl_vector.h **** 	  _Tr::deallocate(_M_impl, __p, __n);
 179:/home/zkmike/.local/share/renesas/e2_studio/toolchains/gcc_arm/gcc-arm-none-eabi-6-2017-q2-update/arm-none-eabi/include/c++/6.3.1/bits/stl_vector.h ****       }
 180:/home/zkmike/.local/share/renesas/e2_studio/toolchains/gcc_arm/gcc-arm-none-eabi-6-2017-q2-update/arm-none-eabi/include/c++/6.3.1/bits/stl_vector.h **** 
 181:/home/zkmike/.local/share/renesas/e2_studio/toolchains/gcc_arm/gcc-arm-none-eabi-6-2017-q2-update/arm-none-eabi/include/c++/6.3.1/bits/stl_vector.h ****     private:
 182:/home/zkmike/.local/share/renesas/e2_studio/toolchains/gcc_arm/gcc-arm-none-eabi-6-2017-q2-update/arm-none-eabi/include/c++/6.3.1/bits/stl_vector.h ****       void
 183:/home/zkmike/.local/share/renesas/e2_studio/toolchains/gcc_arm/gcc-arm-none-eabi-6-2017-q2-update/arm-none-eabi/include/c++/6.3.1/bits/stl_vector.h ****       _M_create_storage(size_t __n)
 184:/home/zkmike/.local/share/renesas/e2_studio/toolchains/gcc_arm/gcc-arm-none-eabi-6-2017-q2-update/arm-none-eabi/include/c++/6.3.1/bits/stl_vector.h ****       {
 185:/home/zkmike/.local/share/renesas/e2_studio/toolchains/gcc_arm/gcc-arm-none-eabi-6-2017-q2-update/arm-none-eabi/include/c++/6.3.1/bits/stl_vector.h **** 	this->_M_impl._M_start = this->_M_allocate(__n);
 186:/home/zkmike/.local/share/renesas/e2_studio/toolchains/gcc_arm/gcc-arm-none-eabi-6-2017-q2-update/arm-none-eabi/include/c++/6.3.1/bits/stl_vector.h **** 	this->_M_impl._M_finish = this->_M_impl._M_start;
 187:/home/zkmike/.local/share/renesas/e2_studio/toolchains/gcc_arm/gcc-arm-none-eabi-6-2017-q2-update/arm-none-eabi/include/c++/6.3.1/bits/stl_vector.h **** 	this->_M_impl._M_end_of_storage = this->_M_impl._M_start + __n;
 188:/home/zkmike/.local/share/renesas/e2_studio/toolchains/gcc_arm/gcc-arm-none-eabi-6-2017-q2-update/arm-none-eabi/include/c++/6.3.1/bits/stl_vector.h ****       }
 189:/home/zkmike/.local/share/renesas/e2_studio/toolchains/gcc_arm/gcc-arm-none-eabi-6-2017-q2-update/arm-none-eabi/include/c++/6.3.1/bits/stl_vector.h ****     };
 190:/home/zkmike/.local/share/renesas/e2_studio/toolchains/gcc_arm/gcc-arm-none-eabi-6-2017-q2-update/arm-none-eabi/include/c++/6.3.1/bits/stl_vector.h **** 
 191:/home/zkmike/.local/share/renesas/e2_studio/toolchains/gcc_arm/gcc-arm-none-eabi-6-2017-q2-update/arm-none-eabi/include/c++/6.3.1/bits/stl_vector.h **** 
 192:/home/zkmike/.local/share/renesas/e2_studio/toolchains/gcc_arm/gcc-arm-none-eabi-6-2017-q2-update/arm-none-eabi/include/c++/6.3.1/bits/stl_vector.h ****   /**
 193:/home/zkmike/.local/share/renesas/e2_studio/toolchains/gcc_arm/gcc-arm-none-eabi-6-2017-q2-update/arm-none-eabi/include/c++/6.3.1/bits/stl_vector.h ****    *  @brief A standard container which offers fixed time access to
 194:/home/zkmike/.local/share/renesas/e2_studio/toolchains/gcc_arm/gcc-arm-none-eabi-6-2017-q2-update/arm-none-eabi/include/c++/6.3.1/bits/stl_vector.h ****    *  individual elements in any order.
 195:/home/zkmike/.local/share/renesas/e2_studio/toolchains/gcc_arm/gcc-arm-none-eabi-6-2017-q2-update/arm-none-eabi/include/c++/6.3.1/bits/stl_vector.h ****    *
 196:/home/zkmike/.local/share/renesas/e2_studio/toolchains/gcc_arm/gcc-arm-none-eabi-6-2017-q2-update/arm-none-eabi/include/c++/6.3.1/bits/stl_vector.h ****    *  @ingroup sequences
 197:/home/zkmike/.local/share/renesas/e2_studio/toolchains/gcc_arm/gcc-arm-none-eabi-6-2017-q2-update/arm-none-eabi/include/c++/6.3.1/bits/stl_vector.h ****    *
 198:/home/zkmike/.local/share/renesas/e2_studio/toolchains/gcc_arm/gcc-arm-none-eabi-6-2017-q2-update/arm-none-eabi/include/c++/6.3.1/bits/stl_vector.h ****    *  @tparam _Tp  Type of element.
 199:/home/zkmike/.local/share/renesas/e2_studio/toolchains/gcc_arm/gcc-arm-none-eabi-6-2017-q2-update/arm-none-eabi/include/c++/6.3.1/bits/stl_vector.h ****    *  @tparam _Alloc  Allocator type, defaults to allocator<_Tp>.
 200:/home/zkmike/.local/share/renesas/e2_studio/toolchains/gcc_arm/gcc-arm-none-eabi-6-2017-q2-update/arm-none-eabi/include/c++/6.3.1/bits/stl_vector.h ****    *
 201:/home/zkmike/.local/share/renesas/e2_studio/toolchains/gcc_arm/gcc-arm-none-eabi-6-2017-q2-update/arm-none-eabi/include/c++/6.3.1/bits/stl_vector.h ****    *  Meets the requirements of a <a href="tables.html#65">container</a>, a
 202:/home/zkmike/.local/share/renesas/e2_studio/toolchains/gcc_arm/gcc-arm-none-eabi-6-2017-q2-update/arm-none-eabi/include/c++/6.3.1/bits/stl_vector.h ****    *  <a href="tables.html#66">reversible container</a>, and a
 203:/home/zkmike/.local/share/renesas/e2_studio/toolchains/gcc_arm/gcc-arm-none-eabi-6-2017-q2-update/arm-none-eabi/include/c++/6.3.1/bits/stl_vector.h ****    *  <a href="tables.html#67">sequence</a>, including the
 204:/home/zkmike/.local/share/renesas/e2_studio/toolchains/gcc_arm/gcc-arm-none-eabi-6-2017-q2-update/arm-none-eabi/include/c++/6.3.1/bits/stl_vector.h ****    *  <a href="tables.html#68">optional sequence requirements</a> with the
 205:/home/zkmike/.local/share/renesas/e2_studio/toolchains/gcc_arm/gcc-arm-none-eabi-6-2017-q2-update/arm-none-eabi/include/c++/6.3.1/bits/stl_vector.h ****    *  %exception of @c push_front and @c pop_front.
 206:/home/zkmike/.local/share/renesas/e2_studio/toolchains/gcc_arm/gcc-arm-none-eabi-6-2017-q2-update/arm-none-eabi/include/c++/6.3.1/bits/stl_vector.h ****    *
 207:/home/zkmike/.local/share/renesas/e2_studio/toolchains/gcc_arm/gcc-arm-none-eabi-6-2017-q2-update/arm-none-eabi/include/c++/6.3.1/bits/stl_vector.h ****    *  In some terminology a %vector can be described as a dynamic
 208:/home/zkmike/.local/share/renesas/e2_studio/toolchains/gcc_arm/gcc-arm-none-eabi-6-2017-q2-update/arm-none-eabi/include/c++/6.3.1/bits/stl_vector.h ****    *  C-style array, it offers fast and efficient access to individual
 209:/home/zkmike/.local/share/renesas/e2_studio/toolchains/gcc_arm/gcc-arm-none-eabi-6-2017-q2-update/arm-none-eabi/include/c++/6.3.1/bits/stl_vector.h ****    *  elements in any order and saves the user from worrying about
 210:/home/zkmike/.local/share/renesas/e2_studio/toolchains/gcc_arm/gcc-arm-none-eabi-6-2017-q2-update/arm-none-eabi/include/c++/6.3.1/bits/stl_vector.h ****    *  memory and size allocation.  Subscripting ( @c [] ) access is
 211:/home/zkmike/.local/share/renesas/e2_studio/toolchains/gcc_arm/gcc-arm-none-eabi-6-2017-q2-update/arm-none-eabi/include/c++/6.3.1/bits/stl_vector.h ****    *  also provided as with C-style arrays.
 212:/home/zkmike/.local/share/renesas/e2_studio/toolchains/gcc_arm/gcc-arm-none-eabi-6-2017-q2-update/arm-none-eabi/include/c++/6.3.1/bits/stl_vector.h ****   */
 213:/home/zkmike/.local/share/renesas/e2_studio/toolchains/gcc_arm/gcc-arm-none-eabi-6-2017-q2-update/arm-none-eabi/include/c++/6.3.1/bits/stl_vector.h ****   template<typename _Tp, typename _Alloc = std::allocator<_Tp> >
 214:/home/zkmike/.local/share/renesas/e2_studio/toolchains/gcc_arm/gcc-arm-none-eabi-6-2017-q2-update/arm-none-eabi/include/c++/6.3.1/bits/stl_vector.h ****     class vector : protected _Vector_base<_Tp, _Alloc>
 215:/home/zkmike/.local/share/renesas/e2_studio/toolchains/gcc_arm/gcc-arm-none-eabi-6-2017-q2-update/arm-none-eabi/include/c++/6.3.1/bits/stl_vector.h ****     {
 216:/home/zkmike/.local/share/renesas/e2_studio/toolchains/gcc_arm/gcc-arm-none-eabi-6-2017-q2-update/arm-none-eabi/include/c++/6.3.1/bits/stl_vector.h ****       // Concept requirements.
 217:/home/zkmike/.local/share/renesas/e2_studio/toolchains/gcc_arm/gcc-arm-none-eabi-6-2017-q2-update/arm-none-eabi/include/c++/6.3.1/bits/stl_vector.h ****       typedef typename _Alloc::value_type                _Alloc_value_type;
 218:/home/zkmike/.local/share/renesas/e2_studio/toolchains/gcc_arm/gcc-arm-none-eabi-6-2017-q2-update/arm-none-eabi/include/c++/6.3.1/bits/stl_vector.h **** #if __cplusplus < 201103L
 219:/home/zkmike/.local/share/renesas/e2_studio/toolchains/gcc_arm/gcc-arm-none-eabi-6-2017-q2-update/arm-none-eabi/include/c++/6.3.1/bits/stl_vector.h ****       __glibcxx_class_requires(_Tp, _SGIAssignableConcept)
 220:/home/zkmike/.local/share/renesas/e2_studio/toolchains/gcc_arm/gcc-arm-none-eabi-6-2017-q2-update/arm-none-eabi/include/c++/6.3.1/bits/stl_vector.h **** #endif
 221:/home/zkmike/.local/share/renesas/e2_studio/toolchains/gcc_arm/gcc-arm-none-eabi-6-2017-q2-update/arm-none-eabi/include/c++/6.3.1/bits/stl_vector.h ****       __glibcxx_class_requires2(_Tp, _Alloc_value_type, _SameTypeConcept)
 222:/home/zkmike/.local/share/renesas/e2_studio/toolchains/gcc_arm/gcc-arm-none-eabi-6-2017-q2-update/arm-none-eabi/include/c++/6.3.1/bits/stl_vector.h ****       
 223:/home/zkmike/.local/share/renesas/e2_studio/toolchains/gcc_arm/gcc-arm-none-eabi-6-2017-q2-update/arm-none-eabi/include/c++/6.3.1/bits/stl_vector.h ****       typedef _Vector_base<_Tp, _Alloc>			 _Base;
 224:/home/zkmike/.local/share/renesas/e2_studio/toolchains/gcc_arm/gcc-arm-none-eabi-6-2017-q2-update/arm-none-eabi/include/c++/6.3.1/bits/stl_vector.h ****       typedef typename _Base::_Tp_alloc_type		 _Tp_alloc_type;
 225:/home/zkmike/.local/share/renesas/e2_studio/toolchains/gcc_arm/gcc-arm-none-eabi-6-2017-q2-update/arm-none-eabi/include/c++/6.3.1/bits/stl_vector.h ****       typedef __gnu_cxx::__alloc_traits<_Tp_alloc_type>  _Alloc_traits;
 226:/home/zkmike/.local/share/renesas/e2_studio/toolchains/gcc_arm/gcc-arm-none-eabi-6-2017-q2-update/arm-none-eabi/include/c++/6.3.1/bits/stl_vector.h **** 
 227:/home/zkmike/.local/share/renesas/e2_studio/toolchains/gcc_arm/gcc-arm-none-eabi-6-2017-q2-update/arm-none-eabi/include/c++/6.3.1/bits/stl_vector.h ****     public:
 228:/home/zkmike/.local/share/renesas/e2_studio/toolchains/gcc_arm/gcc-arm-none-eabi-6-2017-q2-update/arm-none-eabi/include/c++/6.3.1/bits/stl_vector.h ****       typedef _Tp					 value_type;
 229:/home/zkmike/.local/share/renesas/e2_studio/toolchains/gcc_arm/gcc-arm-none-eabi-6-2017-q2-update/arm-none-eabi/include/c++/6.3.1/bits/stl_vector.h ****       typedef typename _Base::pointer                    pointer;
 230:/home/zkmike/.local/share/renesas/e2_studio/toolchains/gcc_arm/gcc-arm-none-eabi-6-2017-q2-update/arm-none-eabi/include/c++/6.3.1/bits/stl_vector.h ****       typedef typename _Alloc_traits::const_pointer      const_pointer;
 231:/home/zkmike/.local/share/renesas/e2_studio/toolchains/gcc_arm/gcc-arm-none-eabi-6-2017-q2-update/arm-none-eabi/include/c++/6.3.1/bits/stl_vector.h ****       typedef typename _Alloc_traits::reference          reference;
 232:/home/zkmike/.local/share/renesas/e2_studio/toolchains/gcc_arm/gcc-arm-none-eabi-6-2017-q2-update/arm-none-eabi/include/c++/6.3.1/bits/stl_vector.h ****       typedef typename _Alloc_traits::const_reference    const_reference;
 233:/home/zkmike/.local/share/renesas/e2_studio/toolchains/gcc_arm/gcc-arm-none-eabi-6-2017-q2-update/arm-none-eabi/include/c++/6.3.1/bits/stl_vector.h ****       typedef __gnu_cxx::__normal_iterator<pointer, vector> iterator;
 234:/home/zkmike/.local/share/renesas/e2_studio/toolchains/gcc_arm/gcc-arm-none-eabi-6-2017-q2-update/arm-none-eabi/include/c++/6.3.1/bits/stl_vector.h ****       typedef __gnu_cxx::__normal_iterator<const_pointer, vector>
 235:/home/zkmike/.local/share/renesas/e2_studio/toolchains/gcc_arm/gcc-arm-none-eabi-6-2017-q2-update/arm-none-eabi/include/c++/6.3.1/bits/stl_vector.h ****       const_iterator;
 236:/home/zkmike/.local/share/renesas/e2_studio/toolchains/gcc_arm/gcc-arm-none-eabi-6-2017-q2-update/arm-none-eabi/include/c++/6.3.1/bits/stl_vector.h ****       typedef std::reverse_iterator<const_iterator>  const_reverse_iterator;
 237:/home/zkmike/.local/share/renesas/e2_studio/toolchains/gcc_arm/gcc-arm-none-eabi-6-2017-q2-update/arm-none-eabi/include/c++/6.3.1/bits/stl_vector.h ****       typedef std::reverse_iterator<iterator>		 reverse_iterator;
 238:/home/zkmike/.local/share/renesas/e2_studio/toolchains/gcc_arm/gcc-arm-none-eabi-6-2017-q2-update/arm-none-eabi/include/c++/6.3.1/bits/stl_vector.h ****       typedef size_t					 size_type;
 239:/home/zkmike/.local/share/renesas/e2_studio/toolchains/gcc_arm/gcc-arm-none-eabi-6-2017-q2-update/arm-none-eabi/include/c++/6.3.1/bits/stl_vector.h ****       typedef ptrdiff_t					 difference_type;
 240:/home/zkmike/.local/share/renesas/e2_studio/toolchains/gcc_arm/gcc-arm-none-eabi-6-2017-q2-update/arm-none-eabi/include/c++/6.3.1/bits/stl_vector.h ****       typedef _Alloc                        		 allocator_type;
 241:/home/zkmike/.local/share/renesas/e2_studio/toolchains/gcc_arm/gcc-arm-none-eabi-6-2017-q2-update/arm-none-eabi/include/c++/6.3.1/bits/stl_vector.h **** 
 242:/home/zkmike/.local/share/renesas/e2_studio/toolchains/gcc_arm/gcc-arm-none-eabi-6-2017-q2-update/arm-none-eabi/include/c++/6.3.1/bits/stl_vector.h ****     protected:
 243:/home/zkmike/.local/share/renesas/e2_studio/toolchains/gcc_arm/gcc-arm-none-eabi-6-2017-q2-update/arm-none-eabi/include/c++/6.3.1/bits/stl_vector.h ****       using _Base::_M_allocate;
 244:/home/zkmike/.local/share/renesas/e2_studio/toolchains/gcc_arm/gcc-arm-none-eabi-6-2017-q2-update/arm-none-eabi/include/c++/6.3.1/bits/stl_vector.h ****       using _Base::_M_deallocate;
 245:/home/zkmike/.local/share/renesas/e2_studio/toolchains/gcc_arm/gcc-arm-none-eabi-6-2017-q2-update/arm-none-eabi/include/c++/6.3.1/bits/stl_vector.h ****       using _Base::_M_impl;
 246:/home/zkmike/.local/share/renesas/e2_studio/toolchains/gcc_arm/gcc-arm-none-eabi-6-2017-q2-update/arm-none-eabi/include/c++/6.3.1/bits/stl_vector.h ****       using _Base::_M_get_Tp_allocator;
 247:/home/zkmike/.local/share/renesas/e2_studio/toolchains/gcc_arm/gcc-arm-none-eabi-6-2017-q2-update/arm-none-eabi/include/c++/6.3.1/bits/stl_vector.h **** 
 248:/home/zkmike/.local/share/renesas/e2_studio/toolchains/gcc_arm/gcc-arm-none-eabi-6-2017-q2-update/arm-none-eabi/include/c++/6.3.1/bits/stl_vector.h ****     public:
 249:/home/zkmike/.local/share/renesas/e2_studio/toolchains/gcc_arm/gcc-arm-none-eabi-6-2017-q2-update/arm-none-eabi/include/c++/6.3.1/bits/stl_vector.h ****       // [23.2.4.1] construct/copy/destroy
 250:/home/zkmike/.local/share/renesas/e2_studio/toolchains/gcc_arm/gcc-arm-none-eabi-6-2017-q2-update/arm-none-eabi/include/c++/6.3.1/bits/stl_vector.h ****       // (assign() and get_allocator() are also listed in this section)
 251:/home/zkmike/.local/share/renesas/e2_studio/toolchains/gcc_arm/gcc-arm-none-eabi-6-2017-q2-update/arm-none-eabi/include/c++/6.3.1/bits/stl_vector.h **** 
 252:/home/zkmike/.local/share/renesas/e2_studio/toolchains/gcc_arm/gcc-arm-none-eabi-6-2017-q2-update/arm-none-eabi/include/c++/6.3.1/bits/stl_vector.h ****       /**
 253:/home/zkmike/.local/share/renesas/e2_studio/toolchains/gcc_arm/gcc-arm-none-eabi-6-2017-q2-update/arm-none-eabi/include/c++/6.3.1/bits/stl_vector.h ****        *  @brief  Creates a %vector with no elements.
 254:/home/zkmike/.local/share/renesas/e2_studio/toolchains/gcc_arm/gcc-arm-none-eabi-6-2017-q2-update/arm-none-eabi/include/c++/6.3.1/bits/stl_vector.h ****        */
 255:/home/zkmike/.local/share/renesas/e2_studio/toolchains/gcc_arm/gcc-arm-none-eabi-6-2017-q2-update/arm-none-eabi/include/c++/6.3.1/bits/stl_vector.h ****       vector()
 256:/home/zkmike/.local/share/renesas/e2_studio/toolchains/gcc_arm/gcc-arm-none-eabi-6-2017-q2-update/arm-none-eabi/include/c++/6.3.1/bits/stl_vector.h **** #if __cplusplus >= 201103L
 257:/home/zkmike/.local/share/renesas/e2_studio/toolchains/gcc_arm/gcc-arm-none-eabi-6-2017-q2-update/arm-none-eabi/include/c++/6.3.1/bits/stl_vector.h ****       noexcept(is_nothrow_default_constructible<_Alloc>::value)
 258:/home/zkmike/.local/share/renesas/e2_studio/toolchains/gcc_arm/gcc-arm-none-eabi-6-2017-q2-update/arm-none-eabi/include/c++/6.3.1/bits/stl_vector.h **** #endif
 259:/home/zkmike/.local/share/renesas/e2_studio/toolchains/gcc_arm/gcc-arm-none-eabi-6-2017-q2-update/arm-none-eabi/include/c++/6.3.1/bits/stl_vector.h ****       : _Base() { }
 260:/home/zkmike/.local/share/renesas/e2_studio/toolchains/gcc_arm/gcc-arm-none-eabi-6-2017-q2-update/arm-none-eabi/include/c++/6.3.1/bits/stl_vector.h **** 
 261:/home/zkmike/.local/share/renesas/e2_studio/toolchains/gcc_arm/gcc-arm-none-eabi-6-2017-q2-update/arm-none-eabi/include/c++/6.3.1/bits/stl_vector.h ****       /**
 262:/home/zkmike/.local/share/renesas/e2_studio/toolchains/gcc_arm/gcc-arm-none-eabi-6-2017-q2-update/arm-none-eabi/include/c++/6.3.1/bits/stl_vector.h ****        *  @brief  Creates a %vector with no elements.
 263:/home/zkmike/.local/share/renesas/e2_studio/toolchains/gcc_arm/gcc-arm-none-eabi-6-2017-q2-update/arm-none-eabi/include/c++/6.3.1/bits/stl_vector.h ****        *  @param  __a  An allocator object.
 264:/home/zkmike/.local/share/renesas/e2_studio/toolchains/gcc_arm/gcc-arm-none-eabi-6-2017-q2-update/arm-none-eabi/include/c++/6.3.1/bits/stl_vector.h ****        */
 265:/home/zkmike/.local/share/renesas/e2_studio/toolchains/gcc_arm/gcc-arm-none-eabi-6-2017-q2-update/arm-none-eabi/include/c++/6.3.1/bits/stl_vector.h ****       explicit
 266:/home/zkmike/.local/share/renesas/e2_studio/toolchains/gcc_arm/gcc-arm-none-eabi-6-2017-q2-update/arm-none-eabi/include/c++/6.3.1/bits/stl_vector.h ****       vector(const allocator_type& __a) _GLIBCXX_NOEXCEPT
 267:/home/zkmike/.local/share/renesas/e2_studio/toolchains/gcc_arm/gcc-arm-none-eabi-6-2017-q2-update/arm-none-eabi/include/c++/6.3.1/bits/stl_vector.h ****       : _Base(__a) { }
 268:/home/zkmike/.local/share/renesas/e2_studio/toolchains/gcc_arm/gcc-arm-none-eabi-6-2017-q2-update/arm-none-eabi/include/c++/6.3.1/bits/stl_vector.h **** 
 269:/home/zkmike/.local/share/renesas/e2_studio/toolchains/gcc_arm/gcc-arm-none-eabi-6-2017-q2-update/arm-none-eabi/include/c++/6.3.1/bits/stl_vector.h **** #if __cplusplus >= 201103L
 270:/home/zkmike/.local/share/renesas/e2_studio/toolchains/gcc_arm/gcc-arm-none-eabi-6-2017-q2-update/arm-none-eabi/include/c++/6.3.1/bits/stl_vector.h ****       /**
 271:/home/zkmike/.local/share/renesas/e2_studio/toolchains/gcc_arm/gcc-arm-none-eabi-6-2017-q2-update/arm-none-eabi/include/c++/6.3.1/bits/stl_vector.h ****        *  @brief  Creates a %vector with default constructed elements.
 272:/home/zkmike/.local/share/renesas/e2_studio/toolchains/gcc_arm/gcc-arm-none-eabi-6-2017-q2-update/arm-none-eabi/include/c++/6.3.1/bits/stl_vector.h ****        *  @param  __n  The number of elements to initially create.
 273:/home/zkmike/.local/share/renesas/e2_studio/toolchains/gcc_arm/gcc-arm-none-eabi-6-2017-q2-update/arm-none-eabi/include/c++/6.3.1/bits/stl_vector.h ****        *  @param  __a  An allocator.
 274:/home/zkmike/.local/share/renesas/e2_studio/toolchains/gcc_arm/gcc-arm-none-eabi-6-2017-q2-update/arm-none-eabi/include/c++/6.3.1/bits/stl_vector.h ****        *
 275:/home/zkmike/.local/share/renesas/e2_studio/toolchains/gcc_arm/gcc-arm-none-eabi-6-2017-q2-update/arm-none-eabi/include/c++/6.3.1/bits/stl_vector.h ****        *  This constructor fills the %vector with @a __n default
 276:/home/zkmike/.local/share/renesas/e2_studio/toolchains/gcc_arm/gcc-arm-none-eabi-6-2017-q2-update/arm-none-eabi/include/c++/6.3.1/bits/stl_vector.h ****        *  constructed elements.
 277:/home/zkmike/.local/share/renesas/e2_studio/toolchains/gcc_arm/gcc-arm-none-eabi-6-2017-q2-update/arm-none-eabi/include/c++/6.3.1/bits/stl_vector.h ****        */
 278:/home/zkmike/.local/share/renesas/e2_studio/toolchains/gcc_arm/gcc-arm-none-eabi-6-2017-q2-update/arm-none-eabi/include/c++/6.3.1/bits/stl_vector.h ****       explicit
 279:/home/zkmike/.local/share/renesas/e2_studio/toolchains/gcc_arm/gcc-arm-none-eabi-6-2017-q2-update/arm-none-eabi/include/c++/6.3.1/bits/stl_vector.h ****       vector(size_type __n, const allocator_type& __a = allocator_type())
 280:/home/zkmike/.local/share/renesas/e2_studio/toolchains/gcc_arm/gcc-arm-none-eabi-6-2017-q2-update/arm-none-eabi/include/c++/6.3.1/bits/stl_vector.h ****       : _Base(__n, __a)
 281:/home/zkmike/.local/share/renesas/e2_studio/toolchains/gcc_arm/gcc-arm-none-eabi-6-2017-q2-update/arm-none-eabi/include/c++/6.3.1/bits/stl_vector.h ****       { _M_default_initialize(__n); }
 282:/home/zkmike/.local/share/renesas/e2_studio/toolchains/gcc_arm/gcc-arm-none-eabi-6-2017-q2-update/arm-none-eabi/include/c++/6.3.1/bits/stl_vector.h **** 
 283:/home/zkmike/.local/share/renesas/e2_studio/toolchains/gcc_arm/gcc-arm-none-eabi-6-2017-q2-update/arm-none-eabi/include/c++/6.3.1/bits/stl_vector.h ****       /**
 284:/home/zkmike/.local/share/renesas/e2_studio/toolchains/gcc_arm/gcc-arm-none-eabi-6-2017-q2-update/arm-none-eabi/include/c++/6.3.1/bits/stl_vector.h ****        *  @brief  Creates a %vector with copies of an exemplar element.
 285:/home/zkmike/.local/share/renesas/e2_studio/toolchains/gcc_arm/gcc-arm-none-eabi-6-2017-q2-update/arm-none-eabi/include/c++/6.3.1/bits/stl_vector.h ****        *  @param  __n  The number of elements to initially create.
 286:/home/zkmike/.local/share/renesas/e2_studio/toolchains/gcc_arm/gcc-arm-none-eabi-6-2017-q2-update/arm-none-eabi/include/c++/6.3.1/bits/stl_vector.h ****        *  @param  __value  An element to copy.
 287:/home/zkmike/.local/share/renesas/e2_studio/toolchains/gcc_arm/gcc-arm-none-eabi-6-2017-q2-update/arm-none-eabi/include/c++/6.3.1/bits/stl_vector.h ****        *  @param  __a  An allocator.
 288:/home/zkmike/.local/share/renesas/e2_studio/toolchains/gcc_arm/gcc-arm-none-eabi-6-2017-q2-update/arm-none-eabi/include/c++/6.3.1/bits/stl_vector.h ****        *
 289:/home/zkmike/.local/share/renesas/e2_studio/toolchains/gcc_arm/gcc-arm-none-eabi-6-2017-q2-update/arm-none-eabi/include/c++/6.3.1/bits/stl_vector.h ****        *  This constructor fills the %vector with @a __n copies of @a __value.
 290:/home/zkmike/.local/share/renesas/e2_studio/toolchains/gcc_arm/gcc-arm-none-eabi-6-2017-q2-update/arm-none-eabi/include/c++/6.3.1/bits/stl_vector.h ****        */
 291:/home/zkmike/.local/share/renesas/e2_studio/toolchains/gcc_arm/gcc-arm-none-eabi-6-2017-q2-update/arm-none-eabi/include/c++/6.3.1/bits/stl_vector.h ****       vector(size_type __n, const value_type& __value,
 292:/home/zkmike/.local/share/renesas/e2_studio/toolchains/gcc_arm/gcc-arm-none-eabi-6-2017-q2-update/arm-none-eabi/include/c++/6.3.1/bits/stl_vector.h **** 	     const allocator_type& __a = allocator_type())
 293:/home/zkmike/.local/share/renesas/e2_studio/toolchains/gcc_arm/gcc-arm-none-eabi-6-2017-q2-update/arm-none-eabi/include/c++/6.3.1/bits/stl_vector.h ****       : _Base(__n, __a)
 294:/home/zkmike/.local/share/renesas/e2_studio/toolchains/gcc_arm/gcc-arm-none-eabi-6-2017-q2-update/arm-none-eabi/include/c++/6.3.1/bits/stl_vector.h ****       { _M_fill_initialize(__n, __value); }
 295:/home/zkmike/.local/share/renesas/e2_studio/toolchains/gcc_arm/gcc-arm-none-eabi-6-2017-q2-update/arm-none-eabi/include/c++/6.3.1/bits/stl_vector.h **** #else
 296:/home/zkmike/.local/share/renesas/e2_studio/toolchains/gcc_arm/gcc-arm-none-eabi-6-2017-q2-update/arm-none-eabi/include/c++/6.3.1/bits/stl_vector.h ****       /**
 297:/home/zkmike/.local/share/renesas/e2_studio/toolchains/gcc_arm/gcc-arm-none-eabi-6-2017-q2-update/arm-none-eabi/include/c++/6.3.1/bits/stl_vector.h ****        *  @brief  Creates a %vector with copies of an exemplar element.
 298:/home/zkmike/.local/share/renesas/e2_studio/toolchains/gcc_arm/gcc-arm-none-eabi-6-2017-q2-update/arm-none-eabi/include/c++/6.3.1/bits/stl_vector.h ****        *  @param  __n  The number of elements to initially create.
 299:/home/zkmike/.local/share/renesas/e2_studio/toolchains/gcc_arm/gcc-arm-none-eabi-6-2017-q2-update/arm-none-eabi/include/c++/6.3.1/bits/stl_vector.h ****        *  @param  __value  An element to copy.
 300:/home/zkmike/.local/share/renesas/e2_studio/toolchains/gcc_arm/gcc-arm-none-eabi-6-2017-q2-update/arm-none-eabi/include/c++/6.3.1/bits/stl_vector.h ****        *  @param  __a  An allocator.
 301:/home/zkmike/.local/share/renesas/e2_studio/toolchains/gcc_arm/gcc-arm-none-eabi-6-2017-q2-update/arm-none-eabi/include/c++/6.3.1/bits/stl_vector.h ****        *
 302:/home/zkmike/.local/share/renesas/e2_studio/toolchains/gcc_arm/gcc-arm-none-eabi-6-2017-q2-update/arm-none-eabi/include/c++/6.3.1/bits/stl_vector.h ****        *  This constructor fills the %vector with @a __n copies of @a __value.
 303:/home/zkmike/.local/share/renesas/e2_studio/toolchains/gcc_arm/gcc-arm-none-eabi-6-2017-q2-update/arm-none-eabi/include/c++/6.3.1/bits/stl_vector.h ****        */
 304:/home/zkmike/.local/share/renesas/e2_studio/toolchains/gcc_arm/gcc-arm-none-eabi-6-2017-q2-update/arm-none-eabi/include/c++/6.3.1/bits/stl_vector.h ****       explicit
 305:/home/zkmike/.local/share/renesas/e2_studio/toolchains/gcc_arm/gcc-arm-none-eabi-6-2017-q2-update/arm-none-eabi/include/c++/6.3.1/bits/stl_vector.h ****       vector(size_type __n, const value_type& __value = value_type(),
 306:/home/zkmike/.local/share/renesas/e2_studio/toolchains/gcc_arm/gcc-arm-none-eabi-6-2017-q2-update/arm-none-eabi/include/c++/6.3.1/bits/stl_vector.h **** 	     const allocator_type& __a = allocator_type())
 307:/home/zkmike/.local/share/renesas/e2_studio/toolchains/gcc_arm/gcc-arm-none-eabi-6-2017-q2-update/arm-none-eabi/include/c++/6.3.1/bits/stl_vector.h ****       : _Base(__n, __a)
 308:/home/zkmike/.local/share/renesas/e2_studio/toolchains/gcc_arm/gcc-arm-none-eabi-6-2017-q2-update/arm-none-eabi/include/c++/6.3.1/bits/stl_vector.h ****       { _M_fill_initialize(__n, __value); }
 309:/home/zkmike/.local/share/renesas/e2_studio/toolchains/gcc_arm/gcc-arm-none-eabi-6-2017-q2-update/arm-none-eabi/include/c++/6.3.1/bits/stl_vector.h **** #endif
 310:/home/zkmike/.local/share/renesas/e2_studio/toolchains/gcc_arm/gcc-arm-none-eabi-6-2017-q2-update/arm-none-eabi/include/c++/6.3.1/bits/stl_vector.h **** 
 311:/home/zkmike/.local/share/renesas/e2_studio/toolchains/gcc_arm/gcc-arm-none-eabi-6-2017-q2-update/arm-none-eabi/include/c++/6.3.1/bits/stl_vector.h ****       /**
 312:/home/zkmike/.local/share/renesas/e2_studio/toolchains/gcc_arm/gcc-arm-none-eabi-6-2017-q2-update/arm-none-eabi/include/c++/6.3.1/bits/stl_vector.h ****        *  @brief  %Vector copy constructor.
 313:/home/zkmike/.local/share/renesas/e2_studio/toolchains/gcc_arm/gcc-arm-none-eabi-6-2017-q2-update/arm-none-eabi/include/c++/6.3.1/bits/stl_vector.h ****        *  @param  __x  A %vector of identical element and allocator types.
 314:/home/zkmike/.local/share/renesas/e2_studio/toolchains/gcc_arm/gcc-arm-none-eabi-6-2017-q2-update/arm-none-eabi/include/c++/6.3.1/bits/stl_vector.h ****        *
 315:/home/zkmike/.local/share/renesas/e2_studio/toolchains/gcc_arm/gcc-arm-none-eabi-6-2017-q2-update/arm-none-eabi/include/c++/6.3.1/bits/stl_vector.h ****        *  The newly-created %vector uses a copy of the allocation
 316:/home/zkmike/.local/share/renesas/e2_studio/toolchains/gcc_arm/gcc-arm-none-eabi-6-2017-q2-update/arm-none-eabi/include/c++/6.3.1/bits/stl_vector.h ****        *  object used by @a __x.  All the elements of @a __x are copied,
 317:/home/zkmike/.local/share/renesas/e2_studio/toolchains/gcc_arm/gcc-arm-none-eabi-6-2017-q2-update/arm-none-eabi/include/c++/6.3.1/bits/stl_vector.h ****        *  but any extra memory in
 318:/home/zkmike/.local/share/renesas/e2_studio/toolchains/gcc_arm/gcc-arm-none-eabi-6-2017-q2-update/arm-none-eabi/include/c++/6.3.1/bits/stl_vector.h ****        *  @a __x (for fast expansion) will not be copied.
 319:/home/zkmike/.local/share/renesas/e2_studio/toolchains/gcc_arm/gcc-arm-none-eabi-6-2017-q2-update/arm-none-eabi/include/c++/6.3.1/bits/stl_vector.h ****        */
 320:/home/zkmike/.local/share/renesas/e2_studio/toolchains/gcc_arm/gcc-arm-none-eabi-6-2017-q2-update/arm-none-eabi/include/c++/6.3.1/bits/stl_vector.h ****       vector(const vector& __x)
 321:/home/zkmike/.local/share/renesas/e2_studio/toolchains/gcc_arm/gcc-arm-none-eabi-6-2017-q2-update/arm-none-eabi/include/c++/6.3.1/bits/stl_vector.h ****       : _Base(__x.size(),
 322:/home/zkmike/.local/share/renesas/e2_studio/toolchains/gcc_arm/gcc-arm-none-eabi-6-2017-q2-update/arm-none-eabi/include/c++/6.3.1/bits/stl_vector.h ****         _Alloc_traits::_S_select_on_copy(__x._M_get_Tp_allocator()))
 323:/home/zkmike/.local/share/renesas/e2_studio/toolchains/gcc_arm/gcc-arm-none-eabi-6-2017-q2-update/arm-none-eabi/include/c++/6.3.1/bits/stl_vector.h ****       { this->_M_impl._M_finish =
 324:/home/zkmike/.local/share/renesas/e2_studio/toolchains/gcc_arm/gcc-arm-none-eabi-6-2017-q2-update/arm-none-eabi/include/c++/6.3.1/bits/stl_vector.h **** 	  std::__uninitialized_copy_a(__x.begin(), __x.end(),
 325:/home/zkmike/.local/share/renesas/e2_studio/toolchains/gcc_arm/gcc-arm-none-eabi-6-2017-q2-update/arm-none-eabi/include/c++/6.3.1/bits/stl_vector.h **** 				      this->_M_impl._M_start,
 326:/home/zkmike/.local/share/renesas/e2_studio/toolchains/gcc_arm/gcc-arm-none-eabi-6-2017-q2-update/arm-none-eabi/include/c++/6.3.1/bits/stl_vector.h **** 				      _M_get_Tp_allocator());
 327:/home/zkmike/.local/share/renesas/e2_studio/toolchains/gcc_arm/gcc-arm-none-eabi-6-2017-q2-update/arm-none-eabi/include/c++/6.3.1/bits/stl_vector.h ****       }
 328:/home/zkmike/.local/share/renesas/e2_studio/toolchains/gcc_arm/gcc-arm-none-eabi-6-2017-q2-update/arm-none-eabi/include/c++/6.3.1/bits/stl_vector.h **** 
 329:/home/zkmike/.local/share/renesas/e2_studio/toolchains/gcc_arm/gcc-arm-none-eabi-6-2017-q2-update/arm-none-eabi/include/c++/6.3.1/bits/stl_vector.h **** #if __cplusplus >= 201103L
 330:/home/zkmike/.local/share/renesas/e2_studio/toolchains/gcc_arm/gcc-arm-none-eabi-6-2017-q2-update/arm-none-eabi/include/c++/6.3.1/bits/stl_vector.h ****       /**
 331:/home/zkmike/.local/share/renesas/e2_studio/toolchains/gcc_arm/gcc-arm-none-eabi-6-2017-q2-update/arm-none-eabi/include/c++/6.3.1/bits/stl_vector.h ****        *  @brief  %Vector move constructor.
 332:/home/zkmike/.local/share/renesas/e2_studio/toolchains/gcc_arm/gcc-arm-none-eabi-6-2017-q2-update/arm-none-eabi/include/c++/6.3.1/bits/stl_vector.h ****        *  @param  __x  A %vector of identical element and allocator types.
 333:/home/zkmike/.local/share/renesas/e2_studio/toolchains/gcc_arm/gcc-arm-none-eabi-6-2017-q2-update/arm-none-eabi/include/c++/6.3.1/bits/stl_vector.h ****        *
 334:/home/zkmike/.local/share/renesas/e2_studio/toolchains/gcc_arm/gcc-arm-none-eabi-6-2017-q2-update/arm-none-eabi/include/c++/6.3.1/bits/stl_vector.h ****        *  The newly-created %vector contains the exact contents of @a __x.
 335:/home/zkmike/.local/share/renesas/e2_studio/toolchains/gcc_arm/gcc-arm-none-eabi-6-2017-q2-update/arm-none-eabi/include/c++/6.3.1/bits/stl_vector.h ****        *  The contents of @a __x are a valid, but unspecified %vector.
 336:/home/zkmike/.local/share/renesas/e2_studio/toolchains/gcc_arm/gcc-arm-none-eabi-6-2017-q2-update/arm-none-eabi/include/c++/6.3.1/bits/stl_vector.h ****        */
 337:/home/zkmike/.local/share/renesas/e2_studio/toolchains/gcc_arm/gcc-arm-none-eabi-6-2017-q2-update/arm-none-eabi/include/c++/6.3.1/bits/stl_vector.h ****       vector(vector&& __x) noexcept
 338:/home/zkmike/.local/share/renesas/e2_studio/toolchains/gcc_arm/gcc-arm-none-eabi-6-2017-q2-update/arm-none-eabi/include/c++/6.3.1/bits/stl_vector.h ****       : _Base(std::move(__x)) { }
 339:/home/zkmike/.local/share/renesas/e2_studio/toolchains/gcc_arm/gcc-arm-none-eabi-6-2017-q2-update/arm-none-eabi/include/c++/6.3.1/bits/stl_vector.h **** 
 340:/home/zkmike/.local/share/renesas/e2_studio/toolchains/gcc_arm/gcc-arm-none-eabi-6-2017-q2-update/arm-none-eabi/include/c++/6.3.1/bits/stl_vector.h ****       /// Copy constructor with alternative allocator
 341:/home/zkmike/.local/share/renesas/e2_studio/toolchains/gcc_arm/gcc-arm-none-eabi-6-2017-q2-update/arm-none-eabi/include/c++/6.3.1/bits/stl_vector.h ****       vector(const vector& __x, const allocator_type& __a)
 342:/home/zkmike/.local/share/renesas/e2_studio/toolchains/gcc_arm/gcc-arm-none-eabi-6-2017-q2-update/arm-none-eabi/include/c++/6.3.1/bits/stl_vector.h ****       : _Base(__x.size(), __a)
 343:/home/zkmike/.local/share/renesas/e2_studio/toolchains/gcc_arm/gcc-arm-none-eabi-6-2017-q2-update/arm-none-eabi/include/c++/6.3.1/bits/stl_vector.h ****       { this->_M_impl._M_finish =
 344:/home/zkmike/.local/share/renesas/e2_studio/toolchains/gcc_arm/gcc-arm-none-eabi-6-2017-q2-update/arm-none-eabi/include/c++/6.3.1/bits/stl_vector.h **** 	  std::__uninitialized_copy_a(__x.begin(), __x.end(),
 345:/home/zkmike/.local/share/renesas/e2_studio/toolchains/gcc_arm/gcc-arm-none-eabi-6-2017-q2-update/arm-none-eabi/include/c++/6.3.1/bits/stl_vector.h **** 				      this->_M_impl._M_start,
 346:/home/zkmike/.local/share/renesas/e2_studio/toolchains/gcc_arm/gcc-arm-none-eabi-6-2017-q2-update/arm-none-eabi/include/c++/6.3.1/bits/stl_vector.h **** 				      _M_get_Tp_allocator());
 347:/home/zkmike/.local/share/renesas/e2_studio/toolchains/gcc_arm/gcc-arm-none-eabi-6-2017-q2-update/arm-none-eabi/include/c++/6.3.1/bits/stl_vector.h ****       }
 348:/home/zkmike/.local/share/renesas/e2_studio/toolchains/gcc_arm/gcc-arm-none-eabi-6-2017-q2-update/arm-none-eabi/include/c++/6.3.1/bits/stl_vector.h **** 
 349:/home/zkmike/.local/share/renesas/e2_studio/toolchains/gcc_arm/gcc-arm-none-eabi-6-2017-q2-update/arm-none-eabi/include/c++/6.3.1/bits/stl_vector.h ****       /// Move constructor with alternative allocator
 350:/home/zkmike/.local/share/renesas/e2_studio/toolchains/gcc_arm/gcc-arm-none-eabi-6-2017-q2-update/arm-none-eabi/include/c++/6.3.1/bits/stl_vector.h ****       vector(vector&& __rv, const allocator_type& __m)
 351:/home/zkmike/.local/share/renesas/e2_studio/toolchains/gcc_arm/gcc-arm-none-eabi-6-2017-q2-update/arm-none-eabi/include/c++/6.3.1/bits/stl_vector.h ****       noexcept(_Alloc_traits::_S_always_equal())
 352:/home/zkmike/.local/share/renesas/e2_studio/toolchains/gcc_arm/gcc-arm-none-eabi-6-2017-q2-update/arm-none-eabi/include/c++/6.3.1/bits/stl_vector.h ****       : _Base(std::move(__rv), __m)
 353:/home/zkmike/.local/share/renesas/e2_studio/toolchains/gcc_arm/gcc-arm-none-eabi-6-2017-q2-update/arm-none-eabi/include/c++/6.3.1/bits/stl_vector.h ****       {
 354:/home/zkmike/.local/share/renesas/e2_studio/toolchains/gcc_arm/gcc-arm-none-eabi-6-2017-q2-update/arm-none-eabi/include/c++/6.3.1/bits/stl_vector.h **** 	if (__rv.get_allocator() != __m)
 355:/home/zkmike/.local/share/renesas/e2_studio/toolchains/gcc_arm/gcc-arm-none-eabi-6-2017-q2-update/arm-none-eabi/include/c++/6.3.1/bits/stl_vector.h **** 	  {
 356:/home/zkmike/.local/share/renesas/e2_studio/toolchains/gcc_arm/gcc-arm-none-eabi-6-2017-q2-update/arm-none-eabi/include/c++/6.3.1/bits/stl_vector.h **** 	    this->_M_impl._M_finish =
 357:/home/zkmike/.local/share/renesas/e2_studio/toolchains/gcc_arm/gcc-arm-none-eabi-6-2017-q2-update/arm-none-eabi/include/c++/6.3.1/bits/stl_vector.h **** 	      std::__uninitialized_move_a(__rv.begin(), __rv.end(),
 358:/home/zkmike/.local/share/renesas/e2_studio/toolchains/gcc_arm/gcc-arm-none-eabi-6-2017-q2-update/arm-none-eabi/include/c++/6.3.1/bits/stl_vector.h **** 					  this->_M_impl._M_start,
 359:/home/zkmike/.local/share/renesas/e2_studio/toolchains/gcc_arm/gcc-arm-none-eabi-6-2017-q2-update/arm-none-eabi/include/c++/6.3.1/bits/stl_vector.h **** 					  _M_get_Tp_allocator());
 360:/home/zkmike/.local/share/renesas/e2_studio/toolchains/gcc_arm/gcc-arm-none-eabi-6-2017-q2-update/arm-none-eabi/include/c++/6.3.1/bits/stl_vector.h **** 	    __rv.clear();
 361:/home/zkmike/.local/share/renesas/e2_studio/toolchains/gcc_arm/gcc-arm-none-eabi-6-2017-q2-update/arm-none-eabi/include/c++/6.3.1/bits/stl_vector.h **** 	  }
 362:/home/zkmike/.local/share/renesas/e2_studio/toolchains/gcc_arm/gcc-arm-none-eabi-6-2017-q2-update/arm-none-eabi/include/c++/6.3.1/bits/stl_vector.h ****       }
 363:/home/zkmike/.local/share/renesas/e2_studio/toolchains/gcc_arm/gcc-arm-none-eabi-6-2017-q2-update/arm-none-eabi/include/c++/6.3.1/bits/stl_vector.h **** 
 364:/home/zkmike/.local/share/renesas/e2_studio/toolchains/gcc_arm/gcc-arm-none-eabi-6-2017-q2-update/arm-none-eabi/include/c++/6.3.1/bits/stl_vector.h ****       /**
 365:/home/zkmike/.local/share/renesas/e2_studio/toolchains/gcc_arm/gcc-arm-none-eabi-6-2017-q2-update/arm-none-eabi/include/c++/6.3.1/bits/stl_vector.h ****        *  @brief  Builds a %vector from an initializer list.
 366:/home/zkmike/.local/share/renesas/e2_studio/toolchains/gcc_arm/gcc-arm-none-eabi-6-2017-q2-update/arm-none-eabi/include/c++/6.3.1/bits/stl_vector.h ****        *  @param  __l  An initializer_list.
 367:/home/zkmike/.local/share/renesas/e2_studio/toolchains/gcc_arm/gcc-arm-none-eabi-6-2017-q2-update/arm-none-eabi/include/c++/6.3.1/bits/stl_vector.h ****        *  @param  __a  An allocator.
 368:/home/zkmike/.local/share/renesas/e2_studio/toolchains/gcc_arm/gcc-arm-none-eabi-6-2017-q2-update/arm-none-eabi/include/c++/6.3.1/bits/stl_vector.h ****        *
 369:/home/zkmike/.local/share/renesas/e2_studio/toolchains/gcc_arm/gcc-arm-none-eabi-6-2017-q2-update/arm-none-eabi/include/c++/6.3.1/bits/stl_vector.h ****        *  Create a %vector consisting of copies of the elements in the
 370:/home/zkmike/.local/share/renesas/e2_studio/toolchains/gcc_arm/gcc-arm-none-eabi-6-2017-q2-update/arm-none-eabi/include/c++/6.3.1/bits/stl_vector.h ****        *  initializer_list @a __l.
 371:/home/zkmike/.local/share/renesas/e2_studio/toolchains/gcc_arm/gcc-arm-none-eabi-6-2017-q2-update/arm-none-eabi/include/c++/6.3.1/bits/stl_vector.h ****        *
 372:/home/zkmike/.local/share/renesas/e2_studio/toolchains/gcc_arm/gcc-arm-none-eabi-6-2017-q2-update/arm-none-eabi/include/c++/6.3.1/bits/stl_vector.h ****        *  This will call the element type's copy constructor N times
 373:/home/zkmike/.local/share/renesas/e2_studio/toolchains/gcc_arm/gcc-arm-none-eabi-6-2017-q2-update/arm-none-eabi/include/c++/6.3.1/bits/stl_vector.h ****        *  (where N is @a __l.size()) and do no memory reallocation.
 374:/home/zkmike/.local/share/renesas/e2_studio/toolchains/gcc_arm/gcc-arm-none-eabi-6-2017-q2-update/arm-none-eabi/include/c++/6.3.1/bits/stl_vector.h ****        */
 375:/home/zkmike/.local/share/renesas/e2_studio/toolchains/gcc_arm/gcc-arm-none-eabi-6-2017-q2-update/arm-none-eabi/include/c++/6.3.1/bits/stl_vector.h ****       vector(initializer_list<value_type> __l,
 376:/home/zkmike/.local/share/renesas/e2_studio/toolchains/gcc_arm/gcc-arm-none-eabi-6-2017-q2-update/arm-none-eabi/include/c++/6.3.1/bits/stl_vector.h **** 	     const allocator_type& __a = allocator_type())
 377:/home/zkmike/.local/share/renesas/e2_studio/toolchains/gcc_arm/gcc-arm-none-eabi-6-2017-q2-update/arm-none-eabi/include/c++/6.3.1/bits/stl_vector.h ****       : _Base(__a)
 378:/home/zkmike/.local/share/renesas/e2_studio/toolchains/gcc_arm/gcc-arm-none-eabi-6-2017-q2-update/arm-none-eabi/include/c++/6.3.1/bits/stl_vector.h ****       {
 379:/home/zkmike/.local/share/renesas/e2_studio/toolchains/gcc_arm/gcc-arm-none-eabi-6-2017-q2-update/arm-none-eabi/include/c++/6.3.1/bits/stl_vector.h **** 	_M_range_initialize(__l.begin(), __l.end(),
 380:/home/zkmike/.local/share/renesas/e2_studio/toolchains/gcc_arm/gcc-arm-none-eabi-6-2017-q2-update/arm-none-eabi/include/c++/6.3.1/bits/stl_vector.h **** 			    random_access_iterator_tag());
 381:/home/zkmike/.local/share/renesas/e2_studio/toolchains/gcc_arm/gcc-arm-none-eabi-6-2017-q2-update/arm-none-eabi/include/c++/6.3.1/bits/stl_vector.h ****       }
 382:/home/zkmike/.local/share/renesas/e2_studio/toolchains/gcc_arm/gcc-arm-none-eabi-6-2017-q2-update/arm-none-eabi/include/c++/6.3.1/bits/stl_vector.h **** #endif
 383:/home/zkmike/.local/share/renesas/e2_studio/toolchains/gcc_arm/gcc-arm-none-eabi-6-2017-q2-update/arm-none-eabi/include/c++/6.3.1/bits/stl_vector.h **** 
 384:/home/zkmike/.local/share/renesas/e2_studio/toolchains/gcc_arm/gcc-arm-none-eabi-6-2017-q2-update/arm-none-eabi/include/c++/6.3.1/bits/stl_vector.h ****       /**
 385:/home/zkmike/.local/share/renesas/e2_studio/toolchains/gcc_arm/gcc-arm-none-eabi-6-2017-q2-update/arm-none-eabi/include/c++/6.3.1/bits/stl_vector.h ****        *  @brief  Builds a %vector from a range.
 386:/home/zkmike/.local/share/renesas/e2_studio/toolchains/gcc_arm/gcc-arm-none-eabi-6-2017-q2-update/arm-none-eabi/include/c++/6.3.1/bits/stl_vector.h ****        *  @param  __first  An input iterator.
 387:/home/zkmike/.local/share/renesas/e2_studio/toolchains/gcc_arm/gcc-arm-none-eabi-6-2017-q2-update/arm-none-eabi/include/c++/6.3.1/bits/stl_vector.h ****        *  @param  __last  An input iterator.
 388:/home/zkmike/.local/share/renesas/e2_studio/toolchains/gcc_arm/gcc-arm-none-eabi-6-2017-q2-update/arm-none-eabi/include/c++/6.3.1/bits/stl_vector.h ****        *  @param  __a  An allocator.
 389:/home/zkmike/.local/share/renesas/e2_studio/toolchains/gcc_arm/gcc-arm-none-eabi-6-2017-q2-update/arm-none-eabi/include/c++/6.3.1/bits/stl_vector.h ****        *
 390:/home/zkmike/.local/share/renesas/e2_studio/toolchains/gcc_arm/gcc-arm-none-eabi-6-2017-q2-update/arm-none-eabi/include/c++/6.3.1/bits/stl_vector.h ****        *  Create a %vector consisting of copies of the elements from
 391:/home/zkmike/.local/share/renesas/e2_studio/toolchains/gcc_arm/gcc-arm-none-eabi-6-2017-q2-update/arm-none-eabi/include/c++/6.3.1/bits/stl_vector.h ****        *  [first,last).
 392:/home/zkmike/.local/share/renesas/e2_studio/toolchains/gcc_arm/gcc-arm-none-eabi-6-2017-q2-update/arm-none-eabi/include/c++/6.3.1/bits/stl_vector.h ****        *
 393:/home/zkmike/.local/share/renesas/e2_studio/toolchains/gcc_arm/gcc-arm-none-eabi-6-2017-q2-update/arm-none-eabi/include/c++/6.3.1/bits/stl_vector.h ****        *  If the iterators are forward, bidirectional, or
 394:/home/zkmike/.local/share/renesas/e2_studio/toolchains/gcc_arm/gcc-arm-none-eabi-6-2017-q2-update/arm-none-eabi/include/c++/6.3.1/bits/stl_vector.h ****        *  random-access, then this will call the elements' copy
 395:/home/zkmike/.local/share/renesas/e2_studio/toolchains/gcc_arm/gcc-arm-none-eabi-6-2017-q2-update/arm-none-eabi/include/c++/6.3.1/bits/stl_vector.h ****        *  constructor N times (where N is distance(first,last)) and do
 396:/home/zkmike/.local/share/renesas/e2_studio/toolchains/gcc_arm/gcc-arm-none-eabi-6-2017-q2-update/arm-none-eabi/include/c++/6.3.1/bits/stl_vector.h ****        *  no memory reallocation.  But if only input iterators are
 397:/home/zkmike/.local/share/renesas/e2_studio/toolchains/gcc_arm/gcc-arm-none-eabi-6-2017-q2-update/arm-none-eabi/include/c++/6.3.1/bits/stl_vector.h ****        *  used, then this will do at most 2N calls to the copy
 398:/home/zkmike/.local/share/renesas/e2_studio/toolchains/gcc_arm/gcc-arm-none-eabi-6-2017-q2-update/arm-none-eabi/include/c++/6.3.1/bits/stl_vector.h ****        *  constructor, and logN memory reallocations.
 399:/home/zkmike/.local/share/renesas/e2_studio/toolchains/gcc_arm/gcc-arm-none-eabi-6-2017-q2-update/arm-none-eabi/include/c++/6.3.1/bits/stl_vector.h ****        */
 400:/home/zkmike/.local/share/renesas/e2_studio/toolchains/gcc_arm/gcc-arm-none-eabi-6-2017-q2-update/arm-none-eabi/include/c++/6.3.1/bits/stl_vector.h **** #if __cplusplus >= 201103L
 401:/home/zkmike/.local/share/renesas/e2_studio/toolchains/gcc_arm/gcc-arm-none-eabi-6-2017-q2-update/arm-none-eabi/include/c++/6.3.1/bits/stl_vector.h ****       template<typename _InputIterator,
 402:/home/zkmike/.local/share/renesas/e2_studio/toolchains/gcc_arm/gcc-arm-none-eabi-6-2017-q2-update/arm-none-eabi/include/c++/6.3.1/bits/stl_vector.h **** 	       typename = std::_RequireInputIter<_InputIterator>>
 403:/home/zkmike/.local/share/renesas/e2_studio/toolchains/gcc_arm/gcc-arm-none-eabi-6-2017-q2-update/arm-none-eabi/include/c++/6.3.1/bits/stl_vector.h ****         vector(_InputIterator __first, _InputIterator __last,
 404:/home/zkmike/.local/share/renesas/e2_studio/toolchains/gcc_arm/gcc-arm-none-eabi-6-2017-q2-update/arm-none-eabi/include/c++/6.3.1/bits/stl_vector.h **** 	       const allocator_type& __a = allocator_type())
 405:/home/zkmike/.local/share/renesas/e2_studio/toolchains/gcc_arm/gcc-arm-none-eabi-6-2017-q2-update/arm-none-eabi/include/c++/6.3.1/bits/stl_vector.h **** 	: _Base(__a)
 406:/home/zkmike/.local/share/renesas/e2_studio/toolchains/gcc_arm/gcc-arm-none-eabi-6-2017-q2-update/arm-none-eabi/include/c++/6.3.1/bits/stl_vector.h ****         { _M_initialize_dispatch(__first, __last, __false_type()); }
 407:/home/zkmike/.local/share/renesas/e2_studio/toolchains/gcc_arm/gcc-arm-none-eabi-6-2017-q2-update/arm-none-eabi/include/c++/6.3.1/bits/stl_vector.h **** #else
 408:/home/zkmike/.local/share/renesas/e2_studio/toolchains/gcc_arm/gcc-arm-none-eabi-6-2017-q2-update/arm-none-eabi/include/c++/6.3.1/bits/stl_vector.h ****       template<typename _InputIterator>
 409:/home/zkmike/.local/share/renesas/e2_studio/toolchains/gcc_arm/gcc-arm-none-eabi-6-2017-q2-update/arm-none-eabi/include/c++/6.3.1/bits/stl_vector.h ****         vector(_InputIterator __first, _InputIterator __last,
 410:/home/zkmike/.local/share/renesas/e2_studio/toolchains/gcc_arm/gcc-arm-none-eabi-6-2017-q2-update/arm-none-eabi/include/c++/6.3.1/bits/stl_vector.h **** 	       const allocator_type& __a = allocator_type())
 411:/home/zkmike/.local/share/renesas/e2_studio/toolchains/gcc_arm/gcc-arm-none-eabi-6-2017-q2-update/arm-none-eabi/include/c++/6.3.1/bits/stl_vector.h **** 	: _Base(__a)
 412:/home/zkmike/.local/share/renesas/e2_studio/toolchains/gcc_arm/gcc-arm-none-eabi-6-2017-q2-update/arm-none-eabi/include/c++/6.3.1/bits/stl_vector.h ****         {
 413:/home/zkmike/.local/share/renesas/e2_studio/toolchains/gcc_arm/gcc-arm-none-eabi-6-2017-q2-update/arm-none-eabi/include/c++/6.3.1/bits/stl_vector.h **** 	  // Check whether it's an integral type.  If so, it's not an iterator.
 414:/home/zkmike/.local/share/renesas/e2_studio/toolchains/gcc_arm/gcc-arm-none-eabi-6-2017-q2-update/arm-none-eabi/include/c++/6.3.1/bits/stl_vector.h **** 	  typedef typename std::__is_integer<_InputIterator>::__type _Integral;
 415:/home/zkmike/.local/share/renesas/e2_studio/toolchains/gcc_arm/gcc-arm-none-eabi-6-2017-q2-update/arm-none-eabi/include/c++/6.3.1/bits/stl_vector.h **** 	  _M_initialize_dispatch(__first, __last, _Integral());
 416:/home/zkmike/.local/share/renesas/e2_studio/toolchains/gcc_arm/gcc-arm-none-eabi-6-2017-q2-update/arm-none-eabi/include/c++/6.3.1/bits/stl_vector.h **** 	}
 417:/home/zkmike/.local/share/renesas/e2_studio/toolchains/gcc_arm/gcc-arm-none-eabi-6-2017-q2-update/arm-none-eabi/include/c++/6.3.1/bits/stl_vector.h **** #endif
 418:/home/zkmike/.local/share/renesas/e2_studio/toolchains/gcc_arm/gcc-arm-none-eabi-6-2017-q2-update/arm-none-eabi/include/c++/6.3.1/bits/stl_vector.h **** 
 419:/home/zkmike/.local/share/renesas/e2_studio/toolchains/gcc_arm/gcc-arm-none-eabi-6-2017-q2-update/arm-none-eabi/include/c++/6.3.1/bits/stl_vector.h ****       /**
 420:/home/zkmike/.local/share/renesas/e2_studio/toolchains/gcc_arm/gcc-arm-none-eabi-6-2017-q2-update/arm-none-eabi/include/c++/6.3.1/bits/stl_vector.h ****        *  The dtor only erases the elements, and note that if the
 421:/home/zkmike/.local/share/renesas/e2_studio/toolchains/gcc_arm/gcc-arm-none-eabi-6-2017-q2-update/arm-none-eabi/include/c++/6.3.1/bits/stl_vector.h ****        *  elements themselves are pointers, the pointed-to memory is
 422:/home/zkmike/.local/share/renesas/e2_studio/toolchains/gcc_arm/gcc-arm-none-eabi-6-2017-q2-update/arm-none-eabi/include/c++/6.3.1/bits/stl_vector.h ****        *  not touched in any way.  Managing the pointer is the user's
 423:/home/zkmike/.local/share/renesas/e2_studio/toolchains/gcc_arm/gcc-arm-none-eabi-6-2017-q2-update/arm-none-eabi/include/c++/6.3.1/bits/stl_vector.h ****        *  responsibility.
 424:/home/zkmike/.local/share/renesas/e2_studio/toolchains/gcc_arm/gcc-arm-none-eabi-6-2017-q2-update/arm-none-eabi/include/c++/6.3.1/bits/stl_vector.h ****        */
 425:/home/zkmike/.local/share/renesas/e2_studio/toolchains/gcc_arm/gcc-arm-none-eabi-6-2017-q2-update/arm-none-eabi/include/c++/6.3.1/bits/stl_vector.h ****       ~vector() _GLIBCXX_NOEXCEPT
 426:/home/zkmike/.local/share/renesas/e2_studio/toolchains/gcc_arm/gcc-arm-none-eabi-6-2017-q2-update/arm-none-eabi/include/c++/6.3.1/bits/stl_vector.h ****       { std::_Destroy(this->_M_impl._M_start, this->_M_impl._M_finish,
 337              		.loc 4 426 0
 338 0010 080090E5 		ldr	r0, [r0, #8]
 339              	.LVL27:
 340              	.LBB524:
 341              	.LBB525:
 342              	.LBB526:
 177:/home/zkmike/.local/share/renesas/e2_studio/toolchains/gcc_arm/gcc-arm-none-eabi-6-2017-q2-update/arm-none-eabi/include/c++/6.3.1/bits/stl_vector.h **** 	  _Tr::deallocate(_M_impl, __p, __n);
 343              		.loc 4 177 0
 344 0014 000050E3 		cmp	r0, #0
 345 0018 0000000A 		beq	.L22
 346              	.LVL28:
 347              	.LBB527:
 348              	.LBB528:
 349              	.LBB529:
 350              		.file 5 "/home/zkmike/.local/share/renesas/e2_studio/toolchains/gcc_arm/gcc-arm-none-eabi-6-2017-q
   1:/home/zkmike/.local/share/renesas/e2_studio/toolchains/gcc_arm/gcc-arm-none-eabi-6-2017-q2-update/arm-none-eabi/include/c++/6.3.1/ext/new_allocator.h **** // Allocator that wraps operator new -*- C++ -*-
   2:/home/zkmike/.local/share/renesas/e2_studio/toolchains/gcc_arm/gcc-arm-none-eabi-6-2017-q2-update/arm-none-eabi/include/c++/6.3.1/ext/new_allocator.h **** 
   3:/home/zkmike/.local/share/renesas/e2_studio/toolchains/gcc_arm/gcc-arm-none-eabi-6-2017-q2-update/arm-none-eabi/include/c++/6.3.1/ext/new_allocator.h **** // Copyright (C) 2001-2016 Free Software Foundation, Inc.
   4:/home/zkmike/.local/share/renesas/e2_studio/toolchains/gcc_arm/gcc-arm-none-eabi-6-2017-q2-update/arm-none-eabi/include/c++/6.3.1/ext/new_allocator.h **** //
   5:/home/zkmike/.local/share/renesas/e2_studio/toolchains/gcc_arm/gcc-arm-none-eabi-6-2017-q2-update/arm-none-eabi/include/c++/6.3.1/ext/new_allocator.h **** // This file is part of the GNU ISO C++ Library.  This library is free
   6:/home/zkmike/.local/share/renesas/e2_studio/toolchains/gcc_arm/gcc-arm-none-eabi-6-2017-q2-update/arm-none-eabi/include/c++/6.3.1/ext/new_allocator.h **** // software; you can redistribute it and/or modify it under the
   7:/home/zkmike/.local/share/renesas/e2_studio/toolchains/gcc_arm/gcc-arm-none-eabi-6-2017-q2-update/arm-none-eabi/include/c++/6.3.1/ext/new_allocator.h **** // terms of the GNU General Public License as published by the
   8:/home/zkmike/.local/share/renesas/e2_studio/toolchains/gcc_arm/gcc-arm-none-eabi-6-2017-q2-update/arm-none-eabi/include/c++/6.3.1/ext/new_allocator.h **** // Free Software Foundation; either version 3, or (at your option)
   9:/home/zkmike/.local/share/renesas/e2_studio/toolchains/gcc_arm/gcc-arm-none-eabi-6-2017-q2-update/arm-none-eabi/include/c++/6.3.1/ext/new_allocator.h **** // any later version.
  10:/home/zkmike/.local/share/renesas/e2_studio/toolchains/gcc_arm/gcc-arm-none-eabi-6-2017-q2-update/arm-none-eabi/include/c++/6.3.1/ext/new_allocator.h **** 
  11:/home/zkmike/.local/share/renesas/e2_studio/toolchains/gcc_arm/gcc-arm-none-eabi-6-2017-q2-update/arm-none-eabi/include/c++/6.3.1/ext/new_allocator.h **** // This library is distributed in the hope that it will be useful,
  12:/home/zkmike/.local/share/renesas/e2_studio/toolchains/gcc_arm/gcc-arm-none-eabi-6-2017-q2-update/arm-none-eabi/include/c++/6.3.1/ext/new_allocator.h **** // but WITHOUT ANY WARRANTY; without even the implied warranty of
  13:/home/zkmike/.local/share/renesas/e2_studio/toolchains/gcc_arm/gcc-arm-none-eabi-6-2017-q2-update/arm-none-eabi/include/c++/6.3.1/ext/new_allocator.h **** // MERCHANTABILITY or FITNESS FOR A PARTICULAR PURPOSE.  See the
  14:/home/zkmike/.local/share/renesas/e2_studio/toolchains/gcc_arm/gcc-arm-none-eabi-6-2017-q2-update/arm-none-eabi/include/c++/6.3.1/ext/new_allocator.h **** // GNU General Public License for more details.
  15:/home/zkmike/.local/share/renesas/e2_studio/toolchains/gcc_arm/gcc-arm-none-eabi-6-2017-q2-update/arm-none-eabi/include/c++/6.3.1/ext/new_allocator.h **** 
  16:/home/zkmike/.local/share/renesas/e2_studio/toolchains/gcc_arm/gcc-arm-none-eabi-6-2017-q2-update/arm-none-eabi/include/c++/6.3.1/ext/new_allocator.h **** // Under Section 7 of GPL version 3, you are granted additional
  17:/home/zkmike/.local/share/renesas/e2_studio/toolchains/gcc_arm/gcc-arm-none-eabi-6-2017-q2-update/arm-none-eabi/include/c++/6.3.1/ext/new_allocator.h **** // permissions described in the GCC Runtime Library Exception, version
  18:/home/zkmike/.local/share/renesas/e2_studio/toolchains/gcc_arm/gcc-arm-none-eabi-6-2017-q2-update/arm-none-eabi/include/c++/6.3.1/ext/new_allocator.h **** // 3.1, as published by the Free Software Foundation.
  19:/home/zkmike/.local/share/renesas/e2_studio/toolchains/gcc_arm/gcc-arm-none-eabi-6-2017-q2-update/arm-none-eabi/include/c++/6.3.1/ext/new_allocator.h **** 
  20:/home/zkmike/.local/share/renesas/e2_studio/toolchains/gcc_arm/gcc-arm-none-eabi-6-2017-q2-update/arm-none-eabi/include/c++/6.3.1/ext/new_allocator.h **** // You should have received a copy of the GNU General Public License and
  21:/home/zkmike/.local/share/renesas/e2_studio/toolchains/gcc_arm/gcc-arm-none-eabi-6-2017-q2-update/arm-none-eabi/include/c++/6.3.1/ext/new_allocator.h **** // a copy of the GCC Runtime Library Exception along with this program;
  22:/home/zkmike/.local/share/renesas/e2_studio/toolchains/gcc_arm/gcc-arm-none-eabi-6-2017-q2-update/arm-none-eabi/include/c++/6.3.1/ext/new_allocator.h **** // see the files COPYING3 and COPYING.RUNTIME respectively.  If not, see
  23:/home/zkmike/.local/share/renesas/e2_studio/toolchains/gcc_arm/gcc-arm-none-eabi-6-2017-q2-update/arm-none-eabi/include/c++/6.3.1/ext/new_allocator.h **** // <http://www.gnu.org/licenses/>.
  24:/home/zkmike/.local/share/renesas/e2_studio/toolchains/gcc_arm/gcc-arm-none-eabi-6-2017-q2-update/arm-none-eabi/include/c++/6.3.1/ext/new_allocator.h **** 
  25:/home/zkmike/.local/share/renesas/e2_studio/toolchains/gcc_arm/gcc-arm-none-eabi-6-2017-q2-update/arm-none-eabi/include/c++/6.3.1/ext/new_allocator.h **** /** @file ext/new_allocator.h
  26:/home/zkmike/.local/share/renesas/e2_studio/toolchains/gcc_arm/gcc-arm-none-eabi-6-2017-q2-update/arm-none-eabi/include/c++/6.3.1/ext/new_allocator.h ****  *  This file is a GNU extension to the Standard C++ Library.
  27:/home/zkmike/.local/share/renesas/e2_studio/toolchains/gcc_arm/gcc-arm-none-eabi-6-2017-q2-update/arm-none-eabi/include/c++/6.3.1/ext/new_allocator.h ****  */
  28:/home/zkmike/.local/share/renesas/e2_studio/toolchains/gcc_arm/gcc-arm-none-eabi-6-2017-q2-update/arm-none-eabi/include/c++/6.3.1/ext/new_allocator.h **** 
  29:/home/zkmike/.local/share/renesas/e2_studio/toolchains/gcc_arm/gcc-arm-none-eabi-6-2017-q2-update/arm-none-eabi/include/c++/6.3.1/ext/new_allocator.h **** #ifndef _NEW_ALLOCATOR_H
  30:/home/zkmike/.local/share/renesas/e2_studio/toolchains/gcc_arm/gcc-arm-none-eabi-6-2017-q2-update/arm-none-eabi/include/c++/6.3.1/ext/new_allocator.h **** #define _NEW_ALLOCATOR_H 1
  31:/home/zkmike/.local/share/renesas/e2_studio/toolchains/gcc_arm/gcc-arm-none-eabi-6-2017-q2-update/arm-none-eabi/include/c++/6.3.1/ext/new_allocator.h **** 
  32:/home/zkmike/.local/share/renesas/e2_studio/toolchains/gcc_arm/gcc-arm-none-eabi-6-2017-q2-update/arm-none-eabi/include/c++/6.3.1/ext/new_allocator.h **** #include <bits/c++config.h>
  33:/home/zkmike/.local/share/renesas/e2_studio/toolchains/gcc_arm/gcc-arm-none-eabi-6-2017-q2-update/arm-none-eabi/include/c++/6.3.1/ext/new_allocator.h **** #include <new>
  34:/home/zkmike/.local/share/renesas/e2_studio/toolchains/gcc_arm/gcc-arm-none-eabi-6-2017-q2-update/arm-none-eabi/include/c++/6.3.1/ext/new_allocator.h **** #include <bits/functexcept.h>
  35:/home/zkmike/.local/share/renesas/e2_studio/toolchains/gcc_arm/gcc-arm-none-eabi-6-2017-q2-update/arm-none-eabi/include/c++/6.3.1/ext/new_allocator.h **** #include <bits/move.h>
  36:/home/zkmike/.local/share/renesas/e2_studio/toolchains/gcc_arm/gcc-arm-none-eabi-6-2017-q2-update/arm-none-eabi/include/c++/6.3.1/ext/new_allocator.h **** #if __cplusplus >= 201103L
  37:/home/zkmike/.local/share/renesas/e2_studio/toolchains/gcc_arm/gcc-arm-none-eabi-6-2017-q2-update/arm-none-eabi/include/c++/6.3.1/ext/new_allocator.h **** #include <type_traits>
  38:/home/zkmike/.local/share/renesas/e2_studio/toolchains/gcc_arm/gcc-arm-none-eabi-6-2017-q2-update/arm-none-eabi/include/c++/6.3.1/ext/new_allocator.h **** #endif
  39:/home/zkmike/.local/share/renesas/e2_studio/toolchains/gcc_arm/gcc-arm-none-eabi-6-2017-q2-update/arm-none-eabi/include/c++/6.3.1/ext/new_allocator.h **** 
  40:/home/zkmike/.local/share/renesas/e2_studio/toolchains/gcc_arm/gcc-arm-none-eabi-6-2017-q2-update/arm-none-eabi/include/c++/6.3.1/ext/new_allocator.h **** namespace __gnu_cxx _GLIBCXX_VISIBILITY(default)
  41:/home/zkmike/.local/share/renesas/e2_studio/toolchains/gcc_arm/gcc-arm-none-eabi-6-2017-q2-update/arm-none-eabi/include/c++/6.3.1/ext/new_allocator.h **** {
  42:/home/zkmike/.local/share/renesas/e2_studio/toolchains/gcc_arm/gcc-arm-none-eabi-6-2017-q2-update/arm-none-eabi/include/c++/6.3.1/ext/new_allocator.h **** _GLIBCXX_BEGIN_NAMESPACE_VERSION
  43:/home/zkmike/.local/share/renesas/e2_studio/toolchains/gcc_arm/gcc-arm-none-eabi-6-2017-q2-update/arm-none-eabi/include/c++/6.3.1/ext/new_allocator.h **** 
  44:/home/zkmike/.local/share/renesas/e2_studio/toolchains/gcc_arm/gcc-arm-none-eabi-6-2017-q2-update/arm-none-eabi/include/c++/6.3.1/ext/new_allocator.h ****   using std::size_t;
  45:/home/zkmike/.local/share/renesas/e2_studio/toolchains/gcc_arm/gcc-arm-none-eabi-6-2017-q2-update/arm-none-eabi/include/c++/6.3.1/ext/new_allocator.h ****   using std::ptrdiff_t;
  46:/home/zkmike/.local/share/renesas/e2_studio/toolchains/gcc_arm/gcc-arm-none-eabi-6-2017-q2-update/arm-none-eabi/include/c++/6.3.1/ext/new_allocator.h **** 
  47:/home/zkmike/.local/share/renesas/e2_studio/toolchains/gcc_arm/gcc-arm-none-eabi-6-2017-q2-update/arm-none-eabi/include/c++/6.3.1/ext/new_allocator.h ****   /**
  48:/home/zkmike/.local/share/renesas/e2_studio/toolchains/gcc_arm/gcc-arm-none-eabi-6-2017-q2-update/arm-none-eabi/include/c++/6.3.1/ext/new_allocator.h ****    *  @brief  An allocator that uses global new, as per [20.4].
  49:/home/zkmike/.local/share/renesas/e2_studio/toolchains/gcc_arm/gcc-arm-none-eabi-6-2017-q2-update/arm-none-eabi/include/c++/6.3.1/ext/new_allocator.h ****    *  @ingroup allocators
  50:/home/zkmike/.local/share/renesas/e2_studio/toolchains/gcc_arm/gcc-arm-none-eabi-6-2017-q2-update/arm-none-eabi/include/c++/6.3.1/ext/new_allocator.h ****    *
  51:/home/zkmike/.local/share/renesas/e2_studio/toolchains/gcc_arm/gcc-arm-none-eabi-6-2017-q2-update/arm-none-eabi/include/c++/6.3.1/ext/new_allocator.h ****    *  This is precisely the allocator defined in the C++ Standard. 
  52:/home/zkmike/.local/share/renesas/e2_studio/toolchains/gcc_arm/gcc-arm-none-eabi-6-2017-q2-update/arm-none-eabi/include/c++/6.3.1/ext/new_allocator.h ****    *    - all allocation calls operator new
  53:/home/zkmike/.local/share/renesas/e2_studio/toolchains/gcc_arm/gcc-arm-none-eabi-6-2017-q2-update/arm-none-eabi/include/c++/6.3.1/ext/new_allocator.h ****    *    - all deallocation calls operator delete
  54:/home/zkmike/.local/share/renesas/e2_studio/toolchains/gcc_arm/gcc-arm-none-eabi-6-2017-q2-update/arm-none-eabi/include/c++/6.3.1/ext/new_allocator.h ****    *
  55:/home/zkmike/.local/share/renesas/e2_studio/toolchains/gcc_arm/gcc-arm-none-eabi-6-2017-q2-update/arm-none-eabi/include/c++/6.3.1/ext/new_allocator.h ****    *  @tparam  _Tp  Type of allocated object.
  56:/home/zkmike/.local/share/renesas/e2_studio/toolchains/gcc_arm/gcc-arm-none-eabi-6-2017-q2-update/arm-none-eabi/include/c++/6.3.1/ext/new_allocator.h ****    */
  57:/home/zkmike/.local/share/renesas/e2_studio/toolchains/gcc_arm/gcc-arm-none-eabi-6-2017-q2-update/arm-none-eabi/include/c++/6.3.1/ext/new_allocator.h ****   template<typename _Tp>
  58:/home/zkmike/.local/share/renesas/e2_studio/toolchains/gcc_arm/gcc-arm-none-eabi-6-2017-q2-update/arm-none-eabi/include/c++/6.3.1/ext/new_allocator.h ****     class new_allocator
  59:/home/zkmike/.local/share/renesas/e2_studio/toolchains/gcc_arm/gcc-arm-none-eabi-6-2017-q2-update/arm-none-eabi/include/c++/6.3.1/ext/new_allocator.h ****     {
  60:/home/zkmike/.local/share/renesas/e2_studio/toolchains/gcc_arm/gcc-arm-none-eabi-6-2017-q2-update/arm-none-eabi/include/c++/6.3.1/ext/new_allocator.h ****     public:
  61:/home/zkmike/.local/share/renesas/e2_studio/toolchains/gcc_arm/gcc-arm-none-eabi-6-2017-q2-update/arm-none-eabi/include/c++/6.3.1/ext/new_allocator.h ****       typedef size_t     size_type;
  62:/home/zkmike/.local/share/renesas/e2_studio/toolchains/gcc_arm/gcc-arm-none-eabi-6-2017-q2-update/arm-none-eabi/include/c++/6.3.1/ext/new_allocator.h ****       typedef ptrdiff_t  difference_type;
  63:/home/zkmike/.local/share/renesas/e2_studio/toolchains/gcc_arm/gcc-arm-none-eabi-6-2017-q2-update/arm-none-eabi/include/c++/6.3.1/ext/new_allocator.h ****       typedef _Tp*       pointer;
  64:/home/zkmike/.local/share/renesas/e2_studio/toolchains/gcc_arm/gcc-arm-none-eabi-6-2017-q2-update/arm-none-eabi/include/c++/6.3.1/ext/new_allocator.h ****       typedef const _Tp* const_pointer;
  65:/home/zkmike/.local/share/renesas/e2_studio/toolchains/gcc_arm/gcc-arm-none-eabi-6-2017-q2-update/arm-none-eabi/include/c++/6.3.1/ext/new_allocator.h ****       typedef _Tp&       reference;
  66:/home/zkmike/.local/share/renesas/e2_studio/toolchains/gcc_arm/gcc-arm-none-eabi-6-2017-q2-update/arm-none-eabi/include/c++/6.3.1/ext/new_allocator.h ****       typedef const _Tp& const_reference;
  67:/home/zkmike/.local/share/renesas/e2_studio/toolchains/gcc_arm/gcc-arm-none-eabi-6-2017-q2-update/arm-none-eabi/include/c++/6.3.1/ext/new_allocator.h ****       typedef _Tp        value_type;
  68:/home/zkmike/.local/share/renesas/e2_studio/toolchains/gcc_arm/gcc-arm-none-eabi-6-2017-q2-update/arm-none-eabi/include/c++/6.3.1/ext/new_allocator.h **** 
  69:/home/zkmike/.local/share/renesas/e2_studio/toolchains/gcc_arm/gcc-arm-none-eabi-6-2017-q2-update/arm-none-eabi/include/c++/6.3.1/ext/new_allocator.h ****       template<typename _Tp1>
  70:/home/zkmike/.local/share/renesas/e2_studio/toolchains/gcc_arm/gcc-arm-none-eabi-6-2017-q2-update/arm-none-eabi/include/c++/6.3.1/ext/new_allocator.h ****         struct rebind
  71:/home/zkmike/.local/share/renesas/e2_studio/toolchains/gcc_arm/gcc-arm-none-eabi-6-2017-q2-update/arm-none-eabi/include/c++/6.3.1/ext/new_allocator.h ****         { typedef new_allocator<_Tp1> other; };
  72:/home/zkmike/.local/share/renesas/e2_studio/toolchains/gcc_arm/gcc-arm-none-eabi-6-2017-q2-update/arm-none-eabi/include/c++/6.3.1/ext/new_allocator.h **** 
  73:/home/zkmike/.local/share/renesas/e2_studio/toolchains/gcc_arm/gcc-arm-none-eabi-6-2017-q2-update/arm-none-eabi/include/c++/6.3.1/ext/new_allocator.h **** #if __cplusplus >= 201103L
  74:/home/zkmike/.local/share/renesas/e2_studio/toolchains/gcc_arm/gcc-arm-none-eabi-6-2017-q2-update/arm-none-eabi/include/c++/6.3.1/ext/new_allocator.h ****       // _GLIBCXX_RESOLVE_LIB_DEFECTS
  75:/home/zkmike/.local/share/renesas/e2_studio/toolchains/gcc_arm/gcc-arm-none-eabi-6-2017-q2-update/arm-none-eabi/include/c++/6.3.1/ext/new_allocator.h ****       // 2103. propagate_on_container_move_assignment
  76:/home/zkmike/.local/share/renesas/e2_studio/toolchains/gcc_arm/gcc-arm-none-eabi-6-2017-q2-update/arm-none-eabi/include/c++/6.3.1/ext/new_allocator.h ****       typedef std::true_type propagate_on_container_move_assignment;
  77:/home/zkmike/.local/share/renesas/e2_studio/toolchains/gcc_arm/gcc-arm-none-eabi-6-2017-q2-update/arm-none-eabi/include/c++/6.3.1/ext/new_allocator.h **** #endif
  78:/home/zkmike/.local/share/renesas/e2_studio/toolchains/gcc_arm/gcc-arm-none-eabi-6-2017-q2-update/arm-none-eabi/include/c++/6.3.1/ext/new_allocator.h **** 
  79:/home/zkmike/.local/share/renesas/e2_studio/toolchains/gcc_arm/gcc-arm-none-eabi-6-2017-q2-update/arm-none-eabi/include/c++/6.3.1/ext/new_allocator.h ****       new_allocator() _GLIBCXX_USE_NOEXCEPT { }
  80:/home/zkmike/.local/share/renesas/e2_studio/toolchains/gcc_arm/gcc-arm-none-eabi-6-2017-q2-update/arm-none-eabi/include/c++/6.3.1/ext/new_allocator.h **** 
  81:/home/zkmike/.local/share/renesas/e2_studio/toolchains/gcc_arm/gcc-arm-none-eabi-6-2017-q2-update/arm-none-eabi/include/c++/6.3.1/ext/new_allocator.h ****       new_allocator(const new_allocator&) _GLIBCXX_USE_NOEXCEPT { }
  82:/home/zkmike/.local/share/renesas/e2_studio/toolchains/gcc_arm/gcc-arm-none-eabi-6-2017-q2-update/arm-none-eabi/include/c++/6.3.1/ext/new_allocator.h **** 
  83:/home/zkmike/.local/share/renesas/e2_studio/toolchains/gcc_arm/gcc-arm-none-eabi-6-2017-q2-update/arm-none-eabi/include/c++/6.3.1/ext/new_allocator.h ****       template<typename _Tp1>
  84:/home/zkmike/.local/share/renesas/e2_studio/toolchains/gcc_arm/gcc-arm-none-eabi-6-2017-q2-update/arm-none-eabi/include/c++/6.3.1/ext/new_allocator.h ****         new_allocator(const new_allocator<_Tp1>&) _GLIBCXX_USE_NOEXCEPT { }
  85:/home/zkmike/.local/share/renesas/e2_studio/toolchains/gcc_arm/gcc-arm-none-eabi-6-2017-q2-update/arm-none-eabi/include/c++/6.3.1/ext/new_allocator.h **** 
  86:/home/zkmike/.local/share/renesas/e2_studio/toolchains/gcc_arm/gcc-arm-none-eabi-6-2017-q2-update/arm-none-eabi/include/c++/6.3.1/ext/new_allocator.h ****       ~new_allocator() _GLIBCXX_USE_NOEXCEPT { }
  87:/home/zkmike/.local/share/renesas/e2_studio/toolchains/gcc_arm/gcc-arm-none-eabi-6-2017-q2-update/arm-none-eabi/include/c++/6.3.1/ext/new_allocator.h **** 
  88:/home/zkmike/.local/share/renesas/e2_studio/toolchains/gcc_arm/gcc-arm-none-eabi-6-2017-q2-update/arm-none-eabi/include/c++/6.3.1/ext/new_allocator.h ****       pointer
  89:/home/zkmike/.local/share/renesas/e2_studio/toolchains/gcc_arm/gcc-arm-none-eabi-6-2017-q2-update/arm-none-eabi/include/c++/6.3.1/ext/new_allocator.h ****       address(reference __x) const _GLIBCXX_NOEXCEPT
  90:/home/zkmike/.local/share/renesas/e2_studio/toolchains/gcc_arm/gcc-arm-none-eabi-6-2017-q2-update/arm-none-eabi/include/c++/6.3.1/ext/new_allocator.h ****       { return std::__addressof(__x); }
  91:/home/zkmike/.local/share/renesas/e2_studio/toolchains/gcc_arm/gcc-arm-none-eabi-6-2017-q2-update/arm-none-eabi/include/c++/6.3.1/ext/new_allocator.h **** 
  92:/home/zkmike/.local/share/renesas/e2_studio/toolchains/gcc_arm/gcc-arm-none-eabi-6-2017-q2-update/arm-none-eabi/include/c++/6.3.1/ext/new_allocator.h ****       const_pointer
  93:/home/zkmike/.local/share/renesas/e2_studio/toolchains/gcc_arm/gcc-arm-none-eabi-6-2017-q2-update/arm-none-eabi/include/c++/6.3.1/ext/new_allocator.h ****       address(const_reference __x) const _GLIBCXX_NOEXCEPT
  94:/home/zkmike/.local/share/renesas/e2_studio/toolchains/gcc_arm/gcc-arm-none-eabi-6-2017-q2-update/arm-none-eabi/include/c++/6.3.1/ext/new_allocator.h ****       { return std::__addressof(__x); }
  95:/home/zkmike/.local/share/renesas/e2_studio/toolchains/gcc_arm/gcc-arm-none-eabi-6-2017-q2-update/arm-none-eabi/include/c++/6.3.1/ext/new_allocator.h **** 
  96:/home/zkmike/.local/share/renesas/e2_studio/toolchains/gcc_arm/gcc-arm-none-eabi-6-2017-q2-update/arm-none-eabi/include/c++/6.3.1/ext/new_allocator.h ****       // NB: __n is permitted to be 0.  The C++ standard says nothing
  97:/home/zkmike/.local/share/renesas/e2_studio/toolchains/gcc_arm/gcc-arm-none-eabi-6-2017-q2-update/arm-none-eabi/include/c++/6.3.1/ext/new_allocator.h ****       // about what the return value is when __n == 0.
  98:/home/zkmike/.local/share/renesas/e2_studio/toolchains/gcc_arm/gcc-arm-none-eabi-6-2017-q2-update/arm-none-eabi/include/c++/6.3.1/ext/new_allocator.h ****       pointer
  99:/home/zkmike/.local/share/renesas/e2_studio/toolchains/gcc_arm/gcc-arm-none-eabi-6-2017-q2-update/arm-none-eabi/include/c++/6.3.1/ext/new_allocator.h ****       allocate(size_type __n, const void* = 0)
 100:/home/zkmike/.local/share/renesas/e2_studio/toolchains/gcc_arm/gcc-arm-none-eabi-6-2017-q2-update/arm-none-eabi/include/c++/6.3.1/ext/new_allocator.h ****       { 
 101:/home/zkmike/.local/share/renesas/e2_studio/toolchains/gcc_arm/gcc-arm-none-eabi-6-2017-q2-update/arm-none-eabi/include/c++/6.3.1/ext/new_allocator.h **** 	if (__n > this->max_size())
 102:/home/zkmike/.local/share/renesas/e2_studio/toolchains/gcc_arm/gcc-arm-none-eabi-6-2017-q2-update/arm-none-eabi/include/c++/6.3.1/ext/new_allocator.h **** 	  std::__throw_bad_alloc();
 103:/home/zkmike/.local/share/renesas/e2_studio/toolchains/gcc_arm/gcc-arm-none-eabi-6-2017-q2-update/arm-none-eabi/include/c++/6.3.1/ext/new_allocator.h **** 
 104:/home/zkmike/.local/share/renesas/e2_studio/toolchains/gcc_arm/gcc-arm-none-eabi-6-2017-q2-update/arm-none-eabi/include/c++/6.3.1/ext/new_allocator.h **** 	return static_cast<_Tp*>(::operator new(__n * sizeof(_Tp)));
 105:/home/zkmike/.local/share/renesas/e2_studio/toolchains/gcc_arm/gcc-arm-none-eabi-6-2017-q2-update/arm-none-eabi/include/c++/6.3.1/ext/new_allocator.h ****       }
 106:/home/zkmike/.local/share/renesas/e2_studio/toolchains/gcc_arm/gcc-arm-none-eabi-6-2017-q2-update/arm-none-eabi/include/c++/6.3.1/ext/new_allocator.h **** 
 107:/home/zkmike/.local/share/renesas/e2_studio/toolchains/gcc_arm/gcc-arm-none-eabi-6-2017-q2-update/arm-none-eabi/include/c++/6.3.1/ext/new_allocator.h ****       // __p is not permitted to be a null pointer.
 108:/home/zkmike/.local/share/renesas/e2_studio/toolchains/gcc_arm/gcc-arm-none-eabi-6-2017-q2-update/arm-none-eabi/include/c++/6.3.1/ext/new_allocator.h ****       void
 109:/home/zkmike/.local/share/renesas/e2_studio/toolchains/gcc_arm/gcc-arm-none-eabi-6-2017-q2-update/arm-none-eabi/include/c++/6.3.1/ext/new_allocator.h ****       deallocate(pointer __p, size_type)
 110:/home/zkmike/.local/share/renesas/e2_studio/toolchains/gcc_arm/gcc-arm-none-eabi-6-2017-q2-update/arm-none-eabi/include/c++/6.3.1/ext/new_allocator.h ****       { ::operator delete(__p); }
 351              		.loc 5 110 0
 352 001c FEFFFFEB 		bl	_ZdlPv
 353              	.LVL29:
 354              	.L22:
 355              	.LBE529:
 356              	.LBE528:
 357              	.LBE527:
 358              	.LBE526:
 359              	.LBE525:
 360              	.LBE524:
 361              	.LBE523:
 362              	.LBE522:
 363              	.LBE521:
  57:/home/zkmike/workspace/RZA2M/rza2m_2d_barcode_sample_freertos_gcc/src/zxing_lib/zxing/common/Array.h ****   Array<T>& operator=(const Array<T> &other) {
 364              		.loc 1 57 0
 365 0020 0400A0E1 		mov	r0, r4
 366 0024 1080BDE8 		pop	{r4, pc}
 367              	.L25:
 368              		.align	2
 369              	.L24:
 370 0028 08000000 		.word	_ZTVN5zxing5ArrayIiEE+8
 371              		.cfi_endproc
 372              	.LFE2805:
 373              		.cantunwind
 374              		.fnend
 376              		.weak	_ZN5zxing5ArrayIiED1Ev
 377              		.set	_ZN5zxing5ArrayIiED1Ev,_ZN5zxing5ArrayIiED2Ev
 378              		.section	.text._ZN5zxing5ArrayIiED0Ev,"axG",%progbits,_ZN5zxing5ArrayIiED5Ev,comdat
 379              		.align	2
 380              		.weak	_ZN5zxing5ArrayIiED0Ev
 381              		.syntax unified
 382              		.arm
 383              		.fpu neon
 385              	_ZN5zxing5ArrayIiED0Ev:
 386              		.fnstart
 387              	.LFB2807:
  56:/home/zkmike/workspace/RZA2M/rza2m_2d_barcode_sample_freertos_gcc/src/zxing_lib/zxing/common/Array.h ****   }
 388              		.loc 1 56 0
 389              		.cfi_startproc
 390              		@ args = 0, pretend = 0, frame = 0
 391              		@ frame_needed = 0, uses_anonymous_args = 0
 392              	.LVL30:
 393 0000 10402DE9 		push	{r4, lr}
 394              		.cfi_def_cfa_offset 8
 395              		.cfi_offset 4, -8
 396              		.cfi_offset 14, -4
 397 0004 0040A0E1 		mov	r4, r0
 398              	.LVL31:
 399              	.LBB530:
 400              	.LBB531:
  57:/home/zkmike/workspace/RZA2M/rza2m_2d_barcode_sample_freertos_gcc/src/zxing_lib/zxing/common/Array.h ****   Array<T>& operator=(const Array<T> &other) {
 401              		.loc 1 57 0
 402 0008 24309FE5 		ldr	r3, .L29
 403 000c 003080E5 		str	r3, [r0]
 404              	.LVL32:
 405              	.LBB532:
 406              	.LBB533:
 407              		.loc 4 426 0
 408 0010 080090E5 		ldr	r0, [r0, #8]
 409              	.LVL33:
 410              	.LBB534:
 411              	.LBB535:
 412              	.LBB536:
 177:/home/zkmike/.local/share/renesas/e2_studio/toolchains/gcc_arm/gcc-arm-none-eabi-6-2017-q2-update/arm-none-eabi/include/c++/6.3.1/bits/stl_vector.h **** 	  _Tr::deallocate(_M_impl, __p, __n);
 413              		.loc 4 177 0
 414 0014 000050E3 		cmp	r0, #0
 415 0018 0000000A 		beq	.L27
 416              	.LVL34:
 417              	.LBB537:
 418              	.LBB538:
 419              	.LBB539:
 420              		.loc 5 110 0
 421 001c FEFFFFEB 		bl	_ZdlPv
 422              	.LVL35:
 423              	.L27:
 424              	.LBE539:
 425              	.LBE538:
 426              	.LBE537:
 427              	.LBE536:
 428              	.LBE535:
 429              	.LBE534:
 430              	.LBE533:
 431              	.LBE532:
 432              	.LBE531:
 433              	.LBE530:
  57:/home/zkmike/workspace/RZA2M/rza2m_2d_barcode_sample_freertos_gcc/src/zxing_lib/zxing/common/Array.h ****   Array<T>& operator=(const Array<T> &other) {
 434              		.loc 1 57 0
 435 0020 1410A0E3 		mov	r1, #20
 436 0024 0400A0E1 		mov	r0, r4
 437 0028 FEFFFFEB 		bl	_ZdlPvj
 438              	.LVL36:
 439 002c 0400A0E1 		mov	r0, r4
 440 0030 1080BDE8 		pop	{r4, pc}
 441              	.L30:
 442              		.align	2
 443              	.L29:
 444 0034 08000000 		.word	_ZTVN5zxing5ArrayIiEE+8
 445              		.cfi_endproc
 446              	.LFE2807:
 447              		.cantunwind
 448              		.fnend
 450              		.section	.text._Z41__static_initialization_and_destruction_0ii,"ax",%progbits
 451              		.align	2
 452              		.syntax unified
 453              		.arm
 454              		.fpu neon
 456              	_Z41__static_initialization_and_destruction_0ii:
 457              		.fnstart
 458              	.LFB2803:
 459              		.file 6 "../src/zxing_lib/zxing/pdf417/decoder/BitMatrixParser.cpp"
   1:../src/zxing_lib/zxing/pdf417/decoder/BitMatrixParser.cpp **** // -*- mode:c++; tab-width:2; indent-tabs-mode:nil; c-basic-offset:2 -*-
   2:../src/zxing_lib/zxing/pdf417/decoder/BitMatrixParser.cpp **** /*
   3:../src/zxing_lib/zxing/pdf417/decoder/BitMatrixParser.cpp ****  * Copyright 2008-2012 ZXing authors All rights reserved.
   4:../src/zxing_lib/zxing/pdf417/decoder/BitMatrixParser.cpp ****  *
   5:../src/zxing_lib/zxing/pdf417/decoder/BitMatrixParser.cpp ****  * Licensed under the Apache License, Version 2.0 (the "License");
   6:../src/zxing_lib/zxing/pdf417/decoder/BitMatrixParser.cpp ****  * you may not use this file except in compliance with the License.
   7:../src/zxing_lib/zxing/pdf417/decoder/BitMatrixParser.cpp ****  * You may obtain a copy of the License at
   8:../src/zxing_lib/zxing/pdf417/decoder/BitMatrixParser.cpp ****  *
   9:../src/zxing_lib/zxing/pdf417/decoder/BitMatrixParser.cpp ****  *      http://www.apache.org/licenses/LICENSE-2.0
  10:../src/zxing_lib/zxing/pdf417/decoder/BitMatrixParser.cpp ****  *
  11:../src/zxing_lib/zxing/pdf417/decoder/BitMatrixParser.cpp ****  * Unless required by applicable law or agreed to in writing, software
  12:../src/zxing_lib/zxing/pdf417/decoder/BitMatrixParser.cpp ****  * distributed under the License is distributed on an "AS IS" BASIS,
  13:../src/zxing_lib/zxing/pdf417/decoder/BitMatrixParser.cpp ****  * WITHOUT WARRANTIES OR CONDITIONS OF ANY KIND, either express or implied.
  14:../src/zxing_lib/zxing/pdf417/decoder/BitMatrixParser.cpp ****  * See the License for the specific language governing permissions and
  15:../src/zxing_lib/zxing/pdf417/decoder/BitMatrixParser.cpp ****  * limitations under the License.
  16:../src/zxing_lib/zxing/pdf417/decoder/BitMatrixParser.cpp ****  *
  17:../src/zxing_lib/zxing/pdf417/decoder/BitMatrixParser.cpp ****  * Modified by Hartmut Neubauer (HFN)
  18:../src/zxing_lib/zxing/pdf417/decoder/BitMatrixParser.cpp ****  *
  19:../src/zxing_lib/zxing/pdf417/decoder/BitMatrixParser.cpp ****  *   2012-06-27 HFN   plausibility checks of outer columns and modulus-3 conditions
  20:../src/zxing_lib/zxing/pdf417/decoder/BitMatrixParser.cpp ****  *                    of rows added.
  21:../src/zxing_lib/zxing/pdf417/decoder/BitMatrixParser.cpp ****  *   2012-09-?? HFN   because the Detector now counts the rows, there is no more
  22:../src/zxing_lib/zxing/pdf417/decoder/BitMatrixParser.cpp ****  *                    need to check the equality of consecutive rows. All rows are
  23:../src/zxing_lib/zxing/pdf417/decoder/BitMatrixParser.cpp ****  *                    parsed now.
  24:../src/zxing_lib/zxing/pdf417/decoder/BitMatrixParser.cpp ****  */
  25:../src/zxing_lib/zxing/pdf417/decoder/BitMatrixParser.cpp **** 
  26:../src/zxing_lib/zxing/pdf417/decoder/BitMatrixParser.cpp **** #include <zxing/pdf417/decoder/BitMatrixParser.h>
  27:../src/zxing_lib/zxing/pdf417/decoder/BitMatrixParser.cpp **** 
  28:../src/zxing_lib/zxing/pdf417/decoder/BitMatrixParser.cpp **** using zxing::pdf417::decoder::BitMatrixParser;
  29:../src/zxing_lib/zxing/pdf417/decoder/BitMatrixParser.cpp **** using zxing::ArrayRef;
  30:../src/zxing_lib/zxing/pdf417/decoder/BitMatrixParser.cpp **** 
  31:../src/zxing_lib/zxing/pdf417/decoder/BitMatrixParser.cpp **** // VC++
  32:../src/zxing_lib/zxing/pdf417/decoder/BitMatrixParser.cpp **** 
  33:../src/zxing_lib/zxing/pdf417/decoder/BitMatrixParser.cpp **** using zxing::Ref;
  34:../src/zxing_lib/zxing/pdf417/decoder/BitMatrixParser.cpp **** using zxing::BitMatrix;
  35:../src/zxing_lib/zxing/pdf417/decoder/BitMatrixParser.cpp **** 
  36:../src/zxing_lib/zxing/pdf417/decoder/BitMatrixParser.cpp **** const int BitMatrixParser::MAX_ROWS = 90;
  37:../src/zxing_lib/zxing/pdf417/decoder/BitMatrixParser.cpp **** // Maximum Codewords (Data + Error)
  38:../src/zxing_lib/zxing/pdf417/decoder/BitMatrixParser.cpp **** const int BitMatrixParser::MAX_CW_CAPACITY = 929;
  39:../src/zxing_lib/zxing/pdf417/decoder/BitMatrixParser.cpp **** const int BitMatrixParser::MODULES_IN_SYMBOL = 17;
  40:../src/zxing_lib/zxing/pdf417/decoder/BitMatrixParser.cpp **** 
  41:../src/zxing_lib/zxing/pdf417/decoder/BitMatrixParser.cpp **** BitMatrixParser::BitMatrixParser(Ref<BitMatrix> bitMatrix)
  42:../src/zxing_lib/zxing/pdf417/decoder/BitMatrixParser.cpp ****   : bitMatrix_(bitMatrix)
  43:../src/zxing_lib/zxing/pdf417/decoder/BitMatrixParser.cpp **** {
  44:../src/zxing_lib/zxing/pdf417/decoder/BitMatrixParser.cpp ****   rows_ = 0;
  45:../src/zxing_lib/zxing/pdf417/decoder/BitMatrixParser.cpp ****   leftColumnECData_ = 0;
  46:../src/zxing_lib/zxing/pdf417/decoder/BitMatrixParser.cpp ****   rightColumnECData_ = 0;
  47:../src/zxing_lib/zxing/pdf417/decoder/BitMatrixParser.cpp ****   for (int i = 0; i < 3; i++) {
  48:../src/zxing_lib/zxing/pdf417/decoder/BitMatrixParser.cpp ****     aLeftColumnTriple_[i]=0;
  49:../src/zxing_lib/zxing/pdf417/decoder/BitMatrixParser.cpp ****     aRightColumnTriple_[i]=0;
  50:../src/zxing_lib/zxing/pdf417/decoder/BitMatrixParser.cpp ****   }
  51:../src/zxing_lib/zxing/pdf417/decoder/BitMatrixParser.cpp ****   eraseCount_ = 0;
  52:../src/zxing_lib/zxing/pdf417/decoder/BitMatrixParser.cpp ****   ecLevel_ = -1;
  53:../src/zxing_lib/zxing/pdf417/decoder/BitMatrixParser.cpp **** }
  54:../src/zxing_lib/zxing/pdf417/decoder/BitMatrixParser.cpp **** 
  55:../src/zxing_lib/zxing/pdf417/decoder/BitMatrixParser.cpp **** /**
  56:../src/zxing_lib/zxing/pdf417/decoder/BitMatrixParser.cpp ****   * To ensure separability of rows, codewords of consecutive rows belong to
  57:../src/zxing_lib/zxing/pdf417/decoder/BitMatrixParser.cpp ****   * different subsets of all possible codewords. This routine scans the
  58:../src/zxing_lib/zxing/pdf417/decoder/BitMatrixParser.cpp ****   * symbols in the barcode. When it finds a number of consecutive rows which
  59:../src/zxing_lib/zxing/pdf417/decoder/BitMatrixParser.cpp ****   * are the same, it assumes that this is a row of codewords and processes
  60:../src/zxing_lib/zxing/pdf417/decoder/BitMatrixParser.cpp ****   * them into a codeword array.
  61:../src/zxing_lib/zxing/pdf417/decoder/BitMatrixParser.cpp ****   *
  62:../src/zxing_lib/zxing/pdf417/decoder/BitMatrixParser.cpp ****   * 2012-09-12 HFN: Because now, at an earlier stage, the Detector has counted
  63:../src/zxing_lib/zxing/pdf417/decoder/BitMatrixParser.cpp ****   * the rows, now it is no more necessary to check the equality of consecutive
  64:../src/zxing_lib/zxing/pdf417/decoder/BitMatrixParser.cpp ****   * rows. We now have to check every row.
  65:../src/zxing_lib/zxing/pdf417/decoder/BitMatrixParser.cpp ****   *
  66:../src/zxing_lib/zxing/pdf417/decoder/BitMatrixParser.cpp ****   * @return an array of codewords.
  67:../src/zxing_lib/zxing/pdf417/decoder/BitMatrixParser.cpp ****   * @throw FormatException for example if number of rows is too big or something
  68:../src/zxing_lib/zxing/pdf417/decoder/BitMatrixParser.cpp ****   * with row processing is bad
  69:../src/zxing_lib/zxing/pdf417/decoder/BitMatrixParser.cpp ****   */
  70:../src/zxing_lib/zxing/pdf417/decoder/BitMatrixParser.cpp **** ArrayRef<int> BitMatrixParser::readCodewords()
  71:../src/zxing_lib/zxing/pdf417/decoder/BitMatrixParser.cpp **** {
  72:../src/zxing_lib/zxing/pdf417/decoder/BitMatrixParser.cpp ****   //int width = bitMatrix_->getWidth();
  73:../src/zxing_lib/zxing/pdf417/decoder/BitMatrixParser.cpp ****   int height = bitMatrix_->getHeight();
  74:../src/zxing_lib/zxing/pdf417/decoder/BitMatrixParser.cpp **** 
  75:../src/zxing_lib/zxing/pdf417/decoder/BitMatrixParser.cpp ****   erasures_ = new Array<int>(MAX_CW_CAPACITY);
  76:../src/zxing_lib/zxing/pdf417/decoder/BitMatrixParser.cpp **** 
  77:../src/zxing_lib/zxing/pdf417/decoder/BitMatrixParser.cpp ****   ArrayRef<int> codewords (new Array<int>(MAX_CW_CAPACITY));
  78:../src/zxing_lib/zxing/pdf417/decoder/BitMatrixParser.cpp ****   int next = 0;
  79:../src/zxing_lib/zxing/pdf417/decoder/BitMatrixParser.cpp ****   int rowNumber = 0;
  80:../src/zxing_lib/zxing/pdf417/decoder/BitMatrixParser.cpp ****   for (int i = 0; i < height; i++) {
  81:../src/zxing_lib/zxing/pdf417/decoder/BitMatrixParser.cpp ****     if (rowNumber >= MAX_ROWS) {
  82:../src/zxing_lib/zxing/pdf417/decoder/BitMatrixParser.cpp ****       // Something is wrong, since we have exceeded
  83:../src/zxing_lib/zxing/pdf417/decoder/BitMatrixParser.cpp ****       // the maximum rows in the specification.
  84:../src/zxing_lib/zxing/pdf417/decoder/BitMatrixParser.cpp ****       throw FormatException("BitMatrixParser::readCodewords(PDF): Too many rows!");
  85:../src/zxing_lib/zxing/pdf417/decoder/BitMatrixParser.cpp ****     }
  86:../src/zxing_lib/zxing/pdf417/decoder/BitMatrixParser.cpp ****     // Process Row
  87:../src/zxing_lib/zxing/pdf417/decoder/BitMatrixParser.cpp ****     next = processRow(rowNumber, codewords, next);
  88:../src/zxing_lib/zxing/pdf417/decoder/BitMatrixParser.cpp ****     rowNumber++;
  89:../src/zxing_lib/zxing/pdf417/decoder/BitMatrixParser.cpp ****   }
  90:../src/zxing_lib/zxing/pdf417/decoder/BitMatrixParser.cpp ****   erasures_ = trimArray(erasures_, eraseCount_);
  91:../src/zxing_lib/zxing/pdf417/decoder/BitMatrixParser.cpp ****   return trimArray(codewords, next);
  92:../src/zxing_lib/zxing/pdf417/decoder/BitMatrixParser.cpp **** }
  93:../src/zxing_lib/zxing/pdf417/decoder/BitMatrixParser.cpp **** 
  94:../src/zxing_lib/zxing/pdf417/decoder/BitMatrixParser.cpp **** /**
  95:../src/zxing_lib/zxing/pdf417/decoder/BitMatrixParser.cpp ****  * Convert the symbols in the row to codewords.
  96:../src/zxing_lib/zxing/pdf417/decoder/BitMatrixParser.cpp ****  * Each PDF417 symbol character consists of four bar elements and four space
  97:../src/zxing_lib/zxing/pdf417/decoder/BitMatrixParser.cpp ****  * elements, each of which can be one to six modules wide. The four bar and
  98:../src/zxing_lib/zxing/pdf417/decoder/BitMatrixParser.cpp ****  * four space elements shall measure 17 modules in total.
  99:../src/zxing_lib/zxing/pdf417/decoder/BitMatrixParser.cpp ****  *
 100:../src/zxing_lib/zxing/pdf417/decoder/BitMatrixParser.cpp ****  * @param rowNumber   the current row number of codewords.
 101:../src/zxing_lib/zxing/pdf417/decoder/BitMatrixParser.cpp ****  * @param codewords   the codeword array to save codewords into.
 102:../src/zxing_lib/zxing/pdf417/decoder/BitMatrixParser.cpp ****  * @param next        the next available index into the codewords array.
 103:../src/zxing_lib/zxing/pdf417/decoder/BitMatrixParser.cpp ****  * @return the next available index into the codeword array after processing
 104:../src/zxing_lib/zxing/pdf417/decoder/BitMatrixParser.cpp ****  *         this row.
 105:../src/zxing_lib/zxing/pdf417/decoder/BitMatrixParser.cpp ****  */
 106:../src/zxing_lib/zxing/pdf417/decoder/BitMatrixParser.cpp **** int BitMatrixParser::processRow(int rowNumber, ArrayRef<int> codewords, int next) {
 107:../src/zxing_lib/zxing/pdf417/decoder/BitMatrixParser.cpp ****   int width = bitMatrix_->getWidth();
 108:../src/zxing_lib/zxing/pdf417/decoder/BitMatrixParser.cpp ****   int columnNumber = 0;
 109:../src/zxing_lib/zxing/pdf417/decoder/BitMatrixParser.cpp ****   int cwClusterNumber = -1;
 110:../src/zxing_lib/zxing/pdf417/decoder/BitMatrixParser.cpp ****   int64_t symbol = 0;
 111:../src/zxing_lib/zxing/pdf417/decoder/BitMatrixParser.cpp ****   for (int i = 0; i < width; i += MODULES_IN_SYMBOL) {
 112:../src/zxing_lib/zxing/pdf417/decoder/BitMatrixParser.cpp ****     for (int mask = MODULES_IN_SYMBOL - 1; mask >= 0; mask--) {
 113:../src/zxing_lib/zxing/pdf417/decoder/BitMatrixParser.cpp ****       if (bitMatrix_->get(i + (MODULES_IN_SYMBOL - 1 - mask), rowNumber)) {
 114:../src/zxing_lib/zxing/pdf417/decoder/BitMatrixParser.cpp ****         symbol |= int64_t(1) << mask;
 115:../src/zxing_lib/zxing/pdf417/decoder/BitMatrixParser.cpp ****       }
 116:../src/zxing_lib/zxing/pdf417/decoder/BitMatrixParser.cpp ****     }
 117:../src/zxing_lib/zxing/pdf417/decoder/BitMatrixParser.cpp ****     if (columnNumber > 0) {
 118:../src/zxing_lib/zxing/pdf417/decoder/BitMatrixParser.cpp ****       cwClusterNumber = -1;
 119:../src/zxing_lib/zxing/pdf417/decoder/BitMatrixParser.cpp ****       int cw = getCodeword(symbol,&cwClusterNumber);
 120:../src/zxing_lib/zxing/pdf417/decoder/BitMatrixParser.cpp ****       
 121:../src/zxing_lib/zxing/pdf417/decoder/BitMatrixParser.cpp ****       // 2012-06-27 HFN: cwClusterNumber should be the modulus of the row number by 3; otherwise,
 122:../src/zxing_lib/zxing/pdf417/decoder/BitMatrixParser.cpp ****       // handle the codeword as erasure:
 123:../src/zxing_lib/zxing/pdf417/decoder/BitMatrixParser.cpp ****       if ((cwClusterNumber >= 0) && (cwClusterNumber != rowNumber % 3)) {
 124:../src/zxing_lib/zxing/pdf417/decoder/BitMatrixParser.cpp ****         cw = -1;
 125:../src/zxing_lib/zxing/pdf417/decoder/BitMatrixParser.cpp ****       }
 126:../src/zxing_lib/zxing/pdf417/decoder/BitMatrixParser.cpp ****       
 127:../src/zxing_lib/zxing/pdf417/decoder/BitMatrixParser.cpp ****       if (cw < 0 && i < width - MODULES_IN_SYMBOL) {
 128:../src/zxing_lib/zxing/pdf417/decoder/BitMatrixParser.cpp ****         // Skip errors on the Right row indicator column
 129:../src/zxing_lib/zxing/pdf417/decoder/BitMatrixParser.cpp ****         if (eraseCount_ >= (int)erasures_->size()) {
 130:../src/zxing_lib/zxing/pdf417/decoder/BitMatrixParser.cpp ****           throw FormatException("BitMatrixParser::processRow(PDF417): eraseCount too big!");
 131:../src/zxing_lib/zxing/pdf417/decoder/BitMatrixParser.cpp ****         }
 132:../src/zxing_lib/zxing/pdf417/decoder/BitMatrixParser.cpp ****         erasures_[eraseCount_] = next;
 133:../src/zxing_lib/zxing/pdf417/decoder/BitMatrixParser.cpp ****         next++;
 134:../src/zxing_lib/zxing/pdf417/decoder/BitMatrixParser.cpp ****         eraseCount_++;
 135:../src/zxing_lib/zxing/pdf417/decoder/BitMatrixParser.cpp ****       } else {
 136:../src/zxing_lib/zxing/pdf417/decoder/BitMatrixParser.cpp ****         if (next >= codewords->size()) {
 137:../src/zxing_lib/zxing/pdf417/decoder/BitMatrixParser.cpp ****           throw FormatException("BitMatrixParser::processRow(PDF417): codewords index out of bound.
 138:../src/zxing_lib/zxing/pdf417/decoder/BitMatrixParser.cpp ****         }
 139:../src/zxing_lib/zxing/pdf417/decoder/BitMatrixParser.cpp ****         codewords[next++] = cw;
 140:../src/zxing_lib/zxing/pdf417/decoder/BitMatrixParser.cpp ****       }
 141:../src/zxing_lib/zxing/pdf417/decoder/BitMatrixParser.cpp ****     } else {
 142:../src/zxing_lib/zxing/pdf417/decoder/BitMatrixParser.cpp ****       // Left row indicator column
 143:../src/zxing_lib/zxing/pdf417/decoder/BitMatrixParser.cpp ****       cwClusterNumber = -1;
 144:../src/zxing_lib/zxing/pdf417/decoder/BitMatrixParser.cpp ****       int cw = getCodeword(symbol,&cwClusterNumber);
 145:../src/zxing_lib/zxing/pdf417/decoder/BitMatrixParser.cpp ****       aLeftColumnTriple_[rowNumber % 3] = cw; /* added 2012-06-22 hfn */
 146:../src/zxing_lib/zxing/pdf417/decoder/BitMatrixParser.cpp ****       if (ecLevel_ < 0 && rowNumber % 3 == 1) {
 147:../src/zxing_lib/zxing/pdf417/decoder/BitMatrixParser.cpp ****         leftColumnECData_ = cw;
 148:../src/zxing_lib/zxing/pdf417/decoder/BitMatrixParser.cpp ****       }
 149:../src/zxing_lib/zxing/pdf417/decoder/BitMatrixParser.cpp ****     }
 150:../src/zxing_lib/zxing/pdf417/decoder/BitMatrixParser.cpp ****     symbol = 0;
 151:../src/zxing_lib/zxing/pdf417/decoder/BitMatrixParser.cpp ****     columnNumber++;
 152:../src/zxing_lib/zxing/pdf417/decoder/BitMatrixParser.cpp ****   }
 153:../src/zxing_lib/zxing/pdf417/decoder/BitMatrixParser.cpp ****   if (columnNumber > 1) {
 154:../src/zxing_lib/zxing/pdf417/decoder/BitMatrixParser.cpp ****     // Right row indicator column is in codeword[next]
 155:../src/zxing_lib/zxing/pdf417/decoder/BitMatrixParser.cpp ****     // Overwrite the last codeword i.e. Right Row Indicator
 156:../src/zxing_lib/zxing/pdf417/decoder/BitMatrixParser.cpp ****     --next;
 157:../src/zxing_lib/zxing/pdf417/decoder/BitMatrixParser.cpp ****     aRightColumnTriple_[rowNumber % 3] = codewords[next]; /* added 2012-06-22 hfn */
 158:../src/zxing_lib/zxing/pdf417/decoder/BitMatrixParser.cpp ****     if (rowNumber % 3 == 2) {
 159:../src/zxing_lib/zxing/pdf417/decoder/BitMatrixParser.cpp ****       if (ecLevel_ < 0) {
 160:../src/zxing_lib/zxing/pdf417/decoder/BitMatrixParser.cpp ****         rightColumnECData_ = codewords[next];
 161:../src/zxing_lib/zxing/pdf417/decoder/BitMatrixParser.cpp ****         if (rightColumnECData_ == leftColumnECData_ && (int)leftColumnECData_ > 0) {  /* leftColumn
 162:../src/zxing_lib/zxing/pdf417/decoder/BitMatrixParser.cpp ****           ecLevel_ = ((rightColumnECData_ % 30) - rows_ % 3) / 3;
 163:../src/zxing_lib/zxing/pdf417/decoder/BitMatrixParser.cpp ****         }
 164:../src/zxing_lib/zxing/pdf417/decoder/BitMatrixParser.cpp ****       }
 165:../src/zxing_lib/zxing/pdf417/decoder/BitMatrixParser.cpp ****       // 2012-06-22 hfn: verify whether outer columns are still okay:
 166:../src/zxing_lib/zxing/pdf417/decoder/BitMatrixParser.cpp ****       if (!VerifyOuterColumns(rowNumber)) {
 167:../src/zxing_lib/zxing/pdf417/decoder/BitMatrixParser.cpp ****         throw FormatException("BitMatrixParser::processRow(PDF417): outer columns corrupted!");
 168:../src/zxing_lib/zxing/pdf417/decoder/BitMatrixParser.cpp ****       }
 169:../src/zxing_lib/zxing/pdf417/decoder/BitMatrixParser.cpp ****     }
 170:../src/zxing_lib/zxing/pdf417/decoder/BitMatrixParser.cpp ****     codewords[next] = 0;
 171:../src/zxing_lib/zxing/pdf417/decoder/BitMatrixParser.cpp ****   }
 172:../src/zxing_lib/zxing/pdf417/decoder/BitMatrixParser.cpp ****   return next;
 173:../src/zxing_lib/zxing/pdf417/decoder/BitMatrixParser.cpp **** }
 174:../src/zxing_lib/zxing/pdf417/decoder/BitMatrixParser.cpp **** 
 175:../src/zxing_lib/zxing/pdf417/decoder/BitMatrixParser.cpp **** /* Static methods. */  
 176:../src/zxing_lib/zxing/pdf417/decoder/BitMatrixParser.cpp **** 
 177:../src/zxing_lib/zxing/pdf417/decoder/BitMatrixParser.cpp **** /**
 178:../src/zxing_lib/zxing/pdf417/decoder/BitMatrixParser.cpp ****   * Trim the array to the required size.
 179:../src/zxing_lib/zxing/pdf417/decoder/BitMatrixParser.cpp ****   *
 180:../src/zxing_lib/zxing/pdf417/decoder/BitMatrixParser.cpp ****   * @param array the array
 181:../src/zxing_lib/zxing/pdf417/decoder/BitMatrixParser.cpp ****   * @param size  the size to trim it to
 182:../src/zxing_lib/zxing/pdf417/decoder/BitMatrixParser.cpp ****   * @return the new trimmed array
 183:../src/zxing_lib/zxing/pdf417/decoder/BitMatrixParser.cpp ****   */
 184:../src/zxing_lib/zxing/pdf417/decoder/BitMatrixParser.cpp **** ArrayRef<int> BitMatrixParser::trimArray(ArrayRef<int> array, int size)
 185:../src/zxing_lib/zxing/pdf417/decoder/BitMatrixParser.cpp **** {
 186:../src/zxing_lib/zxing/pdf417/decoder/BitMatrixParser.cpp ****   if (size < 0) {
 187:../src/zxing_lib/zxing/pdf417/decoder/BitMatrixParser.cpp ****     throw IllegalArgumentException("BitMatrixParser::trimArray: negative size!");
 188:../src/zxing_lib/zxing/pdf417/decoder/BitMatrixParser.cpp ****   }
 189:../src/zxing_lib/zxing/pdf417/decoder/BitMatrixParser.cpp ****   // 2012-10-12 hfn don't throw "NoErrorException" when size == 0
 190:../src/zxing_lib/zxing/pdf417/decoder/BitMatrixParser.cpp ****   ArrayRef<int> a = new Array<int>(size);
 191:../src/zxing_lib/zxing/pdf417/decoder/BitMatrixParser.cpp ****   for (int i = 0; i < size; i++) {
 192:../src/zxing_lib/zxing/pdf417/decoder/BitMatrixParser.cpp ****     a[i] = array[i];
 193:../src/zxing_lib/zxing/pdf417/decoder/BitMatrixParser.cpp ****   }
 194:../src/zxing_lib/zxing/pdf417/decoder/BitMatrixParser.cpp ****   return a;
 195:../src/zxing_lib/zxing/pdf417/decoder/BitMatrixParser.cpp **** }
 196:../src/zxing_lib/zxing/pdf417/decoder/BitMatrixParser.cpp **** 
 197:../src/zxing_lib/zxing/pdf417/decoder/BitMatrixParser.cpp **** /**
 198:../src/zxing_lib/zxing/pdf417/decoder/BitMatrixParser.cpp ****   * Translate the symbol into a codeword.
 199:../src/zxing_lib/zxing/pdf417/decoder/BitMatrixParser.cpp ****   *
 200:../src/zxing_lib/zxing/pdf417/decoder/BitMatrixParser.cpp ****   * @param symbol
 201:../src/zxing_lib/zxing/pdf417/decoder/BitMatrixParser.cpp ****   * @return the codeword corresponding to the symbol.
 202:../src/zxing_lib/zxing/pdf417/decoder/BitMatrixParser.cpp ****   */
 203:../src/zxing_lib/zxing/pdf417/decoder/BitMatrixParser.cpp **** 
 204:../src/zxing_lib/zxing/pdf417/decoder/BitMatrixParser.cpp **** /**
 205:../src/zxing_lib/zxing/pdf417/decoder/BitMatrixParser.cpp ****   * 2012-06-27 hfn With the second argument, it is possible to verify in which of the three
 206:../src/zxing_lib/zxing/pdf417/decoder/BitMatrixParser.cpp ****   * "blocks" of the codeword table the codeword has been found: 0, 1 or 2.
 207:../src/zxing_lib/zxing/pdf417/decoder/BitMatrixParser.cpp ****   */
 208:../src/zxing_lib/zxing/pdf417/decoder/BitMatrixParser.cpp **** int BitMatrixParser::getCodeword(int64_t symbol, int *pi)
 209:../src/zxing_lib/zxing/pdf417/decoder/BitMatrixParser.cpp **** {
 210:../src/zxing_lib/zxing/pdf417/decoder/BitMatrixParser.cpp ****   int64_t sym = symbol & 0x3FFFF;
 211:../src/zxing_lib/zxing/pdf417/decoder/BitMatrixParser.cpp ****   int i = findCodewordIndex(sym);
 212:../src/zxing_lib/zxing/pdf417/decoder/BitMatrixParser.cpp ****   if (i == -1) {
 213:../src/zxing_lib/zxing/pdf417/decoder/BitMatrixParser.cpp ****     return -1;
 214:../src/zxing_lib/zxing/pdf417/decoder/BitMatrixParser.cpp ****   } else {
 215:../src/zxing_lib/zxing/pdf417/decoder/BitMatrixParser.cpp ****     int cw = CODEWORD_TABLE[i] - 1;
 216:../src/zxing_lib/zxing/pdf417/decoder/BitMatrixParser.cpp ****     if (pi!= NULL) {
 217:../src/zxing_lib/zxing/pdf417/decoder/BitMatrixParser.cpp ****       *pi = cw / 929;
 218:../src/zxing_lib/zxing/pdf417/decoder/BitMatrixParser.cpp ****     }
 219:../src/zxing_lib/zxing/pdf417/decoder/BitMatrixParser.cpp ****     cw %= 929;
 220:../src/zxing_lib/zxing/pdf417/decoder/BitMatrixParser.cpp ****     return cw;
 221:../src/zxing_lib/zxing/pdf417/decoder/BitMatrixParser.cpp ****   }
 222:../src/zxing_lib/zxing/pdf417/decoder/BitMatrixParser.cpp **** }
 223:../src/zxing_lib/zxing/pdf417/decoder/BitMatrixParser.cpp **** 
 224:../src/zxing_lib/zxing/pdf417/decoder/BitMatrixParser.cpp **** /**
 225:../src/zxing_lib/zxing/pdf417/decoder/BitMatrixParser.cpp ****   * Use a binary search to find the index of the codeword corresponding to
 226:../src/zxing_lib/zxing/pdf417/decoder/BitMatrixParser.cpp ****   * this symbol.
 227:../src/zxing_lib/zxing/pdf417/decoder/BitMatrixParser.cpp ****   *
 228:../src/zxing_lib/zxing/pdf417/decoder/BitMatrixParser.cpp ****   * @param symbol the symbol from the barcode.
 229:../src/zxing_lib/zxing/pdf417/decoder/BitMatrixParser.cpp ****   * @return the index into the codeword table.
 230:../src/zxing_lib/zxing/pdf417/decoder/BitMatrixParser.cpp ****   */
 231:../src/zxing_lib/zxing/pdf417/decoder/BitMatrixParser.cpp **** int BitMatrixParser::findCodewordIndex(int64_t symbol)
 232:../src/zxing_lib/zxing/pdf417/decoder/BitMatrixParser.cpp **** {
 233:../src/zxing_lib/zxing/pdf417/decoder/BitMatrixParser.cpp ****   int first = 0;
 234:../src/zxing_lib/zxing/pdf417/decoder/BitMatrixParser.cpp ****   int upto = SYMBOL_TABLE_LENGTH;
 235:../src/zxing_lib/zxing/pdf417/decoder/BitMatrixParser.cpp ****   while (first < upto) {
 236:../src/zxing_lib/zxing/pdf417/decoder/BitMatrixParser.cpp ****     int mid = ((unsigned int)(first + upto)) >> 1; // Compute mid point.
 237:../src/zxing_lib/zxing/pdf417/decoder/BitMatrixParser.cpp ****     if (symbol < SYMBOL_TABLE[mid]) {
 238:../src/zxing_lib/zxing/pdf417/decoder/BitMatrixParser.cpp ****       upto = mid; // repeat search in bottom half.
 239:../src/zxing_lib/zxing/pdf417/decoder/BitMatrixParser.cpp ****     } else if (symbol > SYMBOL_TABLE[mid]) {
 240:../src/zxing_lib/zxing/pdf417/decoder/BitMatrixParser.cpp ****       first = mid + 1; // Repeat search in top half.
 241:../src/zxing_lib/zxing/pdf417/decoder/BitMatrixParser.cpp ****     } else {
 242:../src/zxing_lib/zxing/pdf417/decoder/BitMatrixParser.cpp ****       return mid; // Found it. return position
 243:../src/zxing_lib/zxing/pdf417/decoder/BitMatrixParser.cpp ****     }
 244:../src/zxing_lib/zxing/pdf417/decoder/BitMatrixParser.cpp ****   }
 245:../src/zxing_lib/zxing/pdf417/decoder/BitMatrixParser.cpp ****   return -1;
 246:../src/zxing_lib/zxing/pdf417/decoder/BitMatrixParser.cpp **** }
 247:../src/zxing_lib/zxing/pdf417/decoder/BitMatrixParser.cpp **** 
 248:../src/zxing_lib/zxing/pdf417/decoder/BitMatrixParser.cpp **** /*
 249:../src/zxing_lib/zxing/pdf417/decoder/BitMatrixParser.cpp ****  * 2012-06-22 hfn additional verification of outer columns
 250:../src/zxing_lib/zxing/pdf417/decoder/BitMatrixParser.cpp ****  */
 251:../src/zxing_lib/zxing/pdf417/decoder/BitMatrixParser.cpp **** bool BitMatrixParser::VerifyOuterColumns(int rownumber)
 252:../src/zxing_lib/zxing/pdf417/decoder/BitMatrixParser.cpp **** {
 253:../src/zxing_lib/zxing/pdf417/decoder/BitMatrixParser.cpp ****   return IsEqual(aLeftColumnTriple_[0], aRightColumnTriple_[1], rownumber)
 254:../src/zxing_lib/zxing/pdf417/decoder/BitMatrixParser.cpp ****       && IsEqual(aLeftColumnTriple_[1], aRightColumnTriple_[2], rownumber)
 255:../src/zxing_lib/zxing/pdf417/decoder/BitMatrixParser.cpp ****       && IsEqual(aLeftColumnTriple_[2], aRightColumnTriple_[0], rownumber);
 256:../src/zxing_lib/zxing/pdf417/decoder/BitMatrixParser.cpp **** }
 257:../src/zxing_lib/zxing/pdf417/decoder/BitMatrixParser.cpp **** 
 258:../src/zxing_lib/zxing/pdf417/decoder/BitMatrixParser.cpp **** /*
 259:../src/zxing_lib/zxing/pdf417/decoder/BitMatrixParser.cpp ****  * Verifies whether two codewords are equal or at least one of the codewords has not
 260:../src/zxing_lib/zxing/pdf417/decoder/BitMatrixParser.cpp ****  * been recognized.
 261:../src/zxing_lib/zxing/pdf417/decoder/BitMatrixParser.cpp ****  */
 262:../src/zxing_lib/zxing/pdf417/decoder/BitMatrixParser.cpp **** bool BitMatrixParser::IsEqual(int &a, int &b, int rownumber)
 263:../src/zxing_lib/zxing/pdf417/decoder/BitMatrixParser.cpp **** {
 264:../src/zxing_lib/zxing/pdf417/decoder/BitMatrixParser.cpp ****   int ret = (a == b) || (a == -1) || (b == -1);
 265:../src/zxing_lib/zxing/pdf417/decoder/BitMatrixParser.cpp ****   if (!ret) {
 266:../src/zxing_lib/zxing/pdf417/decoder/BitMatrixParser.cpp ****     int row3 = rownumber / 3;
 267:../src/zxing_lib/zxing/pdf417/decoder/BitMatrixParser.cpp ****     int row30 = row3 * 30;
 268:../src/zxing_lib/zxing/pdf417/decoder/BitMatrixParser.cpp ****     int row59 = row30 + 29;
 269:../src/zxing_lib/zxing/pdf417/decoder/BitMatrixParser.cpp ****     if (a < row30 || a > row59) {
 270:../src/zxing_lib/zxing/pdf417/decoder/BitMatrixParser.cpp ****       a = -1;
 271:../src/zxing_lib/zxing/pdf417/decoder/BitMatrixParser.cpp ****     }
 272:../src/zxing_lib/zxing/pdf417/decoder/BitMatrixParser.cpp ****     if (b < row30 || b > row59) {
 273:../src/zxing_lib/zxing/pdf417/decoder/BitMatrixParser.cpp ****       b = -1;
 274:../src/zxing_lib/zxing/pdf417/decoder/BitMatrixParser.cpp ****     }
 275:../src/zxing_lib/zxing/pdf417/decoder/BitMatrixParser.cpp ****   }
 276:../src/zxing_lib/zxing/pdf417/decoder/BitMatrixParser.cpp ****   return true;
 277:../src/zxing_lib/zxing/pdf417/decoder/BitMatrixParser.cpp **** }
 278:../src/zxing_lib/zxing/pdf417/decoder/BitMatrixParser.cpp **** 
 279:../src/zxing_lib/zxing/pdf417/decoder/BitMatrixParser.cpp **** const int BitMatrixParser::SYMBOL_TABLE[] =
 280:../src/zxing_lib/zxing/pdf417/decoder/BitMatrixParser.cpp **** {
 281:../src/zxing_lib/zxing/pdf417/decoder/BitMatrixParser.cpp ****   0x1025e, 0x1027a, 0x1029e,
 282:../src/zxing_lib/zxing/pdf417/decoder/BitMatrixParser.cpp ****   0x102bc, 0x102f2, 0x102f4, 0x1032e, 0x1034e, 0x1035c, 0x10396,
 283:../src/zxing_lib/zxing/pdf417/decoder/BitMatrixParser.cpp ****   0x103a6, 0x103ac, 0x10422, 0x10428, 0x10436, 0x10442, 0x10444,
 284:../src/zxing_lib/zxing/pdf417/decoder/BitMatrixParser.cpp ****   0x10448, 0x10450, 0x1045e, 0x10466, 0x1046c, 0x1047a, 0x10482,
 285:../src/zxing_lib/zxing/pdf417/decoder/BitMatrixParser.cpp ****   0x1049e, 0x104a0, 0x104bc, 0x104c6, 0x104d8, 0x104ee, 0x104f2,
 286:../src/zxing_lib/zxing/pdf417/decoder/BitMatrixParser.cpp ****   0x104f4, 0x10504, 0x10508, 0x10510, 0x1051e, 0x10520, 0x1053c,
 287:../src/zxing_lib/zxing/pdf417/decoder/BitMatrixParser.cpp ****   0x10540, 0x10578, 0x10586, 0x1058c, 0x10598, 0x105b0, 0x105be,
 288:../src/zxing_lib/zxing/pdf417/decoder/BitMatrixParser.cpp ****   0x105ce, 0x105dc, 0x105e2, 0x105e4, 0x105e8, 0x105f6, 0x1062e,
 289:../src/zxing_lib/zxing/pdf417/decoder/BitMatrixParser.cpp ****   0x1064e, 0x1065c, 0x1068e, 0x1069c, 0x106b8, 0x106de, 0x106fa,
 290:../src/zxing_lib/zxing/pdf417/decoder/BitMatrixParser.cpp ****   0x10716, 0x10726, 0x1072c, 0x10746, 0x1074c, 0x10758, 0x1076e,
 291:../src/zxing_lib/zxing/pdf417/decoder/BitMatrixParser.cpp ****   0x10792, 0x10794, 0x107a2, 0x107a4, 0x107a8, 0x107b6, 0x10822,
 292:../src/zxing_lib/zxing/pdf417/decoder/BitMatrixParser.cpp ****   0x10828, 0x10842, 0x10848, 0x10850, 0x1085e, 0x10866, 0x1086c,
 293:../src/zxing_lib/zxing/pdf417/decoder/BitMatrixParser.cpp ****   0x1087a, 0x10882, 0x10884, 0x10890, 0x1089e, 0x108a0, 0x108bc,
 294:../src/zxing_lib/zxing/pdf417/decoder/BitMatrixParser.cpp ****   0x108c6, 0x108cc, 0x108d8, 0x108ee, 0x108f2, 0x108f4, 0x10902,
 295:../src/zxing_lib/zxing/pdf417/decoder/BitMatrixParser.cpp ****   0x10908, 0x1091e, 0x10920, 0x1093c, 0x10940, 0x10978, 0x10986,
 296:../src/zxing_lib/zxing/pdf417/decoder/BitMatrixParser.cpp ****   0x10998, 0x109b0, 0x109be, 0x109ce, 0x109dc, 0x109e2, 0x109e4,
 297:../src/zxing_lib/zxing/pdf417/decoder/BitMatrixParser.cpp ****   0x109e8, 0x109f6, 0x10a08, 0x10a10, 0x10a1e, 0x10a20, 0x10a3c,
 298:../src/zxing_lib/zxing/pdf417/decoder/BitMatrixParser.cpp ****   0x10a40, 0x10a78, 0x10af0, 0x10b06, 0x10b0c, 0x10b18, 0x10b30,
 299:../src/zxing_lib/zxing/pdf417/decoder/BitMatrixParser.cpp ****   0x10b3e, 0x10b60, 0x10b7c, 0x10b8e, 0x10b9c, 0x10bb8, 0x10bc2,
 300:../src/zxing_lib/zxing/pdf417/decoder/BitMatrixParser.cpp ****   0x10bc4, 0x10bc8, 0x10bd0, 0x10bde, 0x10be6, 0x10bec, 0x10c2e,
 301:../src/zxing_lib/zxing/pdf417/decoder/BitMatrixParser.cpp ****   0x10c4e, 0x10c5c, 0x10c62, 0x10c64, 0x10c68, 0x10c76, 0x10c8e,
 302:../src/zxing_lib/zxing/pdf417/decoder/BitMatrixParser.cpp ****   0x10c9c, 0x10cb8, 0x10cc2, 0x10cc4, 0x10cc8, 0x10cd0, 0x10cde,
 303:../src/zxing_lib/zxing/pdf417/decoder/BitMatrixParser.cpp ****   0x10ce6, 0x10cec, 0x10cfa, 0x10d0e, 0x10d1c, 0x10d38, 0x10d70,
 304:../src/zxing_lib/zxing/pdf417/decoder/BitMatrixParser.cpp ****   0x10d7e, 0x10d82, 0x10d84, 0x10d88, 0x10d90, 0x10d9e, 0x10da0,
 305:../src/zxing_lib/zxing/pdf417/decoder/BitMatrixParser.cpp ****   0x10dbc, 0x10dc6, 0x10dcc, 0x10dd8, 0x10dee, 0x10df2, 0x10df4,
 306:../src/zxing_lib/zxing/pdf417/decoder/BitMatrixParser.cpp ****   0x10e16, 0x10e26, 0x10e2c, 0x10e46, 0x10e58, 0x10e6e, 0x10e86,
 307:../src/zxing_lib/zxing/pdf417/decoder/BitMatrixParser.cpp ****   0x10e8c, 0x10e98, 0x10eb0, 0x10ebe, 0x10ece, 0x10edc, 0x10f0a,
 308:../src/zxing_lib/zxing/pdf417/decoder/BitMatrixParser.cpp ****   0x10f12, 0x10f14, 0x10f22, 0x10f28, 0x10f36, 0x10f42, 0x10f44,
 309:../src/zxing_lib/zxing/pdf417/decoder/BitMatrixParser.cpp ****   0x10f48, 0x10f50, 0x10f5e, 0x10f66, 0x10f6c, 0x10fb2, 0x10fb4,
 310:../src/zxing_lib/zxing/pdf417/decoder/BitMatrixParser.cpp ****   0x11022, 0x11028, 0x11042, 0x11048, 0x11050, 0x1105e, 0x1107a,
 311:../src/zxing_lib/zxing/pdf417/decoder/BitMatrixParser.cpp ****   0x11082, 0x11084, 0x11090, 0x1109e, 0x110a0, 0x110bc, 0x110c6,
 312:../src/zxing_lib/zxing/pdf417/decoder/BitMatrixParser.cpp ****   0x110cc, 0x110d8, 0x110ee, 0x110f2, 0x110f4, 0x11102, 0x1111e,
 313:../src/zxing_lib/zxing/pdf417/decoder/BitMatrixParser.cpp ****   0x11120, 0x1113c, 0x11140, 0x11178, 0x11186, 0x11198, 0x111b0,
 314:../src/zxing_lib/zxing/pdf417/decoder/BitMatrixParser.cpp ****   0x111be, 0x111ce, 0x111dc, 0x111e2, 0x111e4, 0x111e8, 0x111f6,
 315:../src/zxing_lib/zxing/pdf417/decoder/BitMatrixParser.cpp ****   0x11208, 0x1121e, 0x11220, 0x11278, 0x112f0, 0x1130c, 0x11330,
 316:../src/zxing_lib/zxing/pdf417/decoder/BitMatrixParser.cpp ****   0x1133e, 0x11360, 0x1137c, 0x1138e, 0x1139c, 0x113b8, 0x113c2,
 317:../src/zxing_lib/zxing/pdf417/decoder/BitMatrixParser.cpp ****   0x113c8, 0x113d0, 0x113de, 0x113e6, 0x113ec, 0x11408, 0x11410,
 318:../src/zxing_lib/zxing/pdf417/decoder/BitMatrixParser.cpp ****   0x1141e, 0x11420, 0x1143c, 0x11440, 0x11478, 0x114f0, 0x115e0,
 319:../src/zxing_lib/zxing/pdf417/decoder/BitMatrixParser.cpp ****   0x1160c, 0x11618, 0x11630, 0x1163e, 0x11660, 0x1167c, 0x116c0,
 320:../src/zxing_lib/zxing/pdf417/decoder/BitMatrixParser.cpp ****   0x116f8, 0x1171c, 0x11738, 0x11770, 0x1177e, 0x11782, 0x11784,
 321:../src/zxing_lib/zxing/pdf417/decoder/BitMatrixParser.cpp ****   0x11788, 0x11790, 0x1179e, 0x117a0, 0x117bc, 0x117c6, 0x117cc,
 322:../src/zxing_lib/zxing/pdf417/decoder/BitMatrixParser.cpp ****   0x117d8, 0x117ee, 0x1182e, 0x11834, 0x1184e, 0x1185c, 0x11862,
 323:../src/zxing_lib/zxing/pdf417/decoder/BitMatrixParser.cpp ****   0x11864, 0x11868, 0x11876, 0x1188e, 0x1189c, 0x118b8, 0x118c2,
 324:../src/zxing_lib/zxing/pdf417/decoder/BitMatrixParser.cpp ****   0x118c8, 0x118d0, 0x118de, 0x118e6, 0x118ec, 0x118fa, 0x1190e,
 325:../src/zxing_lib/zxing/pdf417/decoder/BitMatrixParser.cpp ****   0x1191c, 0x11938, 0x11970, 0x1197e, 0x11982, 0x11984, 0x11990,
 326:../src/zxing_lib/zxing/pdf417/decoder/BitMatrixParser.cpp ****   0x1199e, 0x119a0, 0x119bc, 0x119c6, 0x119cc, 0x119d8, 0x119ee,
 327:../src/zxing_lib/zxing/pdf417/decoder/BitMatrixParser.cpp ****   0x119f2, 0x119f4, 0x11a0e, 0x11a1c, 0x11a38, 0x11a70, 0x11a7e,
 328:../src/zxing_lib/zxing/pdf417/decoder/BitMatrixParser.cpp ****   0x11ae0, 0x11afc, 0x11b08, 0x11b10, 0x11b1e, 0x11b20, 0x11b3c,
 329:../src/zxing_lib/zxing/pdf417/decoder/BitMatrixParser.cpp ****   0x11b40, 0x11b78, 0x11b8c, 0x11b98, 0x11bb0, 0x11bbe, 0x11bce,
 330:../src/zxing_lib/zxing/pdf417/decoder/BitMatrixParser.cpp ****   0x11bdc, 0x11be2, 0x11be4, 0x11be8, 0x11bf6, 0x11c16, 0x11c26,
 331:../src/zxing_lib/zxing/pdf417/decoder/BitMatrixParser.cpp ****   0x11c2c, 0x11c46, 0x11c4c, 0x11c58, 0x11c6e, 0x11c86, 0x11c98,
 332:../src/zxing_lib/zxing/pdf417/decoder/BitMatrixParser.cpp ****   0x11cb0, 0x11cbe, 0x11cce, 0x11cdc, 0x11ce2, 0x11ce4, 0x11ce8,
 333:../src/zxing_lib/zxing/pdf417/decoder/BitMatrixParser.cpp ****   0x11cf6, 0x11d06, 0x11d0c, 0x11d18, 0x11d30, 0x11d3e, 0x11d60,
 334:../src/zxing_lib/zxing/pdf417/decoder/BitMatrixParser.cpp ****   0x11d7c, 0x11d8e, 0x11d9c, 0x11db8, 0x11dc4, 0x11dc8, 0x11dd0,
 335:../src/zxing_lib/zxing/pdf417/decoder/BitMatrixParser.cpp ****   0x11dde, 0x11de6, 0x11dec, 0x11dfa, 0x11e0a, 0x11e12, 0x11e14,
 336:../src/zxing_lib/zxing/pdf417/decoder/BitMatrixParser.cpp ****   0x11e22, 0x11e24, 0x11e28, 0x11e36, 0x11e42, 0x11e44, 0x11e50,
 337:../src/zxing_lib/zxing/pdf417/decoder/BitMatrixParser.cpp ****   0x11e5e, 0x11e66, 0x11e6c, 0x11e82, 0x11e84, 0x11e88, 0x11e90,
 338:../src/zxing_lib/zxing/pdf417/decoder/BitMatrixParser.cpp ****   0x11e9e, 0x11ea0, 0x11ebc, 0x11ec6, 0x11ecc, 0x11ed8, 0x11eee,
 339:../src/zxing_lib/zxing/pdf417/decoder/BitMatrixParser.cpp ****   0x11f1a, 0x11f2e, 0x11f32, 0x11f34, 0x11f4e, 0x11f5c, 0x11f62,
 340:../src/zxing_lib/zxing/pdf417/decoder/BitMatrixParser.cpp ****   0x11f64, 0x11f68, 0x11f76, 0x12048, 0x1205e, 0x12082, 0x12084,
 341:../src/zxing_lib/zxing/pdf417/decoder/BitMatrixParser.cpp ****   0x12090, 0x1209e, 0x120a0, 0x120bc, 0x120d8, 0x120f2, 0x120f4,
 342:../src/zxing_lib/zxing/pdf417/decoder/BitMatrixParser.cpp ****   0x12108, 0x1211e, 0x12120, 0x1213c, 0x12140, 0x12178, 0x12186,
 343:../src/zxing_lib/zxing/pdf417/decoder/BitMatrixParser.cpp ****   0x12198, 0x121b0, 0x121be, 0x121e2, 0x121e4, 0x121e8, 0x121f6,
 344:../src/zxing_lib/zxing/pdf417/decoder/BitMatrixParser.cpp ****   0x12204, 0x12210, 0x1221e, 0x12220, 0x12278, 0x122f0, 0x12306,
 345:../src/zxing_lib/zxing/pdf417/decoder/BitMatrixParser.cpp ****   0x1230c, 0x12330, 0x1233e, 0x12360, 0x1237c, 0x1238e, 0x1239c,
 346:../src/zxing_lib/zxing/pdf417/decoder/BitMatrixParser.cpp ****   0x123b8, 0x123c2, 0x123c8, 0x123d0, 0x123e6, 0x123ec, 0x1241e,
 347:../src/zxing_lib/zxing/pdf417/decoder/BitMatrixParser.cpp ****   0x12420, 0x1243c, 0x124f0, 0x125e0, 0x12618, 0x1263e, 0x12660,
 348:../src/zxing_lib/zxing/pdf417/decoder/BitMatrixParser.cpp ****   0x1267c, 0x126c0, 0x126f8, 0x12738, 0x12770, 0x1277e, 0x12782,
 349:../src/zxing_lib/zxing/pdf417/decoder/BitMatrixParser.cpp ****   0x12784, 0x12790, 0x1279e, 0x127a0, 0x127bc, 0x127c6, 0x127cc,
 350:../src/zxing_lib/zxing/pdf417/decoder/BitMatrixParser.cpp ****   0x127d8, 0x127ee, 0x12820, 0x1283c, 0x12840, 0x12878, 0x128f0,
 351:../src/zxing_lib/zxing/pdf417/decoder/BitMatrixParser.cpp ****   0x129e0, 0x12bc0, 0x12c18, 0x12c30, 0x12c3e, 0x12c60, 0x12c7c,
 352:../src/zxing_lib/zxing/pdf417/decoder/BitMatrixParser.cpp ****   0x12cc0, 0x12cf8, 0x12df0, 0x12e1c, 0x12e38, 0x12e70, 0x12e7e,
 353:../src/zxing_lib/zxing/pdf417/decoder/BitMatrixParser.cpp ****   0x12ee0, 0x12efc, 0x12f04, 0x12f08, 0x12f10, 0x12f20, 0x12f3c,
 354:../src/zxing_lib/zxing/pdf417/decoder/BitMatrixParser.cpp ****   0x12f40, 0x12f78, 0x12f86, 0x12f8c, 0x12f98, 0x12fb0, 0x12fbe,
 355:../src/zxing_lib/zxing/pdf417/decoder/BitMatrixParser.cpp ****   0x12fce, 0x12fdc, 0x1302e, 0x1304e, 0x1305c, 0x13062, 0x13068,
 356:../src/zxing_lib/zxing/pdf417/decoder/BitMatrixParser.cpp ****   0x1308e, 0x1309c, 0x130b8, 0x130c2, 0x130c8, 0x130d0, 0x130de,
 357:../src/zxing_lib/zxing/pdf417/decoder/BitMatrixParser.cpp ****   0x130ec, 0x130fa, 0x1310e, 0x13138, 0x13170, 0x1317e, 0x13182,
 358:../src/zxing_lib/zxing/pdf417/decoder/BitMatrixParser.cpp ****   0x13184, 0x13190, 0x1319e, 0x131a0, 0x131bc, 0x131c6, 0x131cc,
 359:../src/zxing_lib/zxing/pdf417/decoder/BitMatrixParser.cpp ****   0x131d8, 0x131f2, 0x131f4, 0x1320e, 0x1321c, 0x13270, 0x1327e,
 360:../src/zxing_lib/zxing/pdf417/decoder/BitMatrixParser.cpp ****   0x132e0, 0x132fc, 0x13308, 0x1331e, 0x13320, 0x1333c, 0x13340,
 361:../src/zxing_lib/zxing/pdf417/decoder/BitMatrixParser.cpp ****   0x13378, 0x13386, 0x13398, 0x133b0, 0x133be, 0x133ce, 0x133dc,
 362:../src/zxing_lib/zxing/pdf417/decoder/BitMatrixParser.cpp ****   0x133e2, 0x133e4, 0x133e8, 0x133f6, 0x1340e, 0x1341c, 0x13438,
 363:../src/zxing_lib/zxing/pdf417/decoder/BitMatrixParser.cpp ****   0x13470, 0x1347e, 0x134e0, 0x134fc, 0x135c0, 0x135f8, 0x13608,
 364:../src/zxing_lib/zxing/pdf417/decoder/BitMatrixParser.cpp ****   0x13610, 0x1361e, 0x13620, 0x1363c, 0x13640, 0x13678, 0x136f0,
 365:../src/zxing_lib/zxing/pdf417/decoder/BitMatrixParser.cpp ****   0x1370c, 0x13718, 0x13730, 0x1373e, 0x13760, 0x1377c, 0x1379c,
 366:../src/zxing_lib/zxing/pdf417/decoder/BitMatrixParser.cpp ****   0x137b8, 0x137c2, 0x137c4, 0x137c8, 0x137d0, 0x137de, 0x137e6,
 367:../src/zxing_lib/zxing/pdf417/decoder/BitMatrixParser.cpp ****   0x137ec, 0x13816, 0x13826, 0x1382c, 0x13846, 0x1384c, 0x13858,
 368:../src/zxing_lib/zxing/pdf417/decoder/BitMatrixParser.cpp ****   0x1386e, 0x13874, 0x13886, 0x13898, 0x138b0, 0x138be, 0x138ce,
 369:../src/zxing_lib/zxing/pdf417/decoder/BitMatrixParser.cpp ****   0x138dc, 0x138e2, 0x138e4, 0x138e8, 0x13906, 0x1390c, 0x13930,
 370:../src/zxing_lib/zxing/pdf417/decoder/BitMatrixParser.cpp ****   0x1393e, 0x13960, 0x1397c, 0x1398e, 0x1399c, 0x139b8, 0x139c8,
 371:../src/zxing_lib/zxing/pdf417/decoder/BitMatrixParser.cpp ****   0x139d0, 0x139de, 0x139e6, 0x139ec, 0x139fa, 0x13a06, 0x13a0c,
 372:../src/zxing_lib/zxing/pdf417/decoder/BitMatrixParser.cpp ****   0x13a18, 0x13a30, 0x13a3e, 0x13a60, 0x13a7c, 0x13ac0, 0x13af8,
 373:../src/zxing_lib/zxing/pdf417/decoder/BitMatrixParser.cpp ****   0x13b0e, 0x13b1c, 0x13b38, 0x13b70, 0x13b7e, 0x13b88, 0x13b90,
 374:../src/zxing_lib/zxing/pdf417/decoder/BitMatrixParser.cpp ****   0x13b9e, 0x13ba0, 0x13bbc, 0x13bcc, 0x13bd8, 0x13bee, 0x13bf2,
 375:../src/zxing_lib/zxing/pdf417/decoder/BitMatrixParser.cpp ****   0x13bf4, 0x13c12, 0x13c14, 0x13c22, 0x13c24, 0x13c28, 0x13c36,
 376:../src/zxing_lib/zxing/pdf417/decoder/BitMatrixParser.cpp ****   0x13c42, 0x13c48, 0x13c50, 0x13c5e, 0x13c66, 0x13c6c, 0x13c82,
 377:../src/zxing_lib/zxing/pdf417/decoder/BitMatrixParser.cpp ****   0x13c84, 0x13c90, 0x13c9e, 0x13ca0, 0x13cbc, 0x13cc6, 0x13ccc,
 378:../src/zxing_lib/zxing/pdf417/decoder/BitMatrixParser.cpp ****   0x13cd8, 0x13cee, 0x13d02, 0x13d04, 0x13d08, 0x13d10, 0x13d1e,
 379:../src/zxing_lib/zxing/pdf417/decoder/BitMatrixParser.cpp ****   0x13d20, 0x13d3c, 0x13d40, 0x13d78, 0x13d86, 0x13d8c, 0x13d98,
 380:../src/zxing_lib/zxing/pdf417/decoder/BitMatrixParser.cpp ****   0x13db0, 0x13dbe, 0x13dce, 0x13ddc, 0x13de4, 0x13de8, 0x13df6,
 381:../src/zxing_lib/zxing/pdf417/decoder/BitMatrixParser.cpp ****   0x13e1a, 0x13e2e, 0x13e32, 0x13e34, 0x13e4e, 0x13e5c, 0x13e62,
 382:../src/zxing_lib/zxing/pdf417/decoder/BitMatrixParser.cpp ****   0x13e64, 0x13e68, 0x13e76, 0x13e8e, 0x13e9c, 0x13eb8, 0x13ec2,
 383:../src/zxing_lib/zxing/pdf417/decoder/BitMatrixParser.cpp ****   0x13ec4, 0x13ec8, 0x13ed0, 0x13ede, 0x13ee6, 0x13eec, 0x13f26,
 384:../src/zxing_lib/zxing/pdf417/decoder/BitMatrixParser.cpp ****   0x13f2c, 0x13f3a, 0x13f46, 0x13f4c, 0x13f58, 0x13f6e, 0x13f72,
 385:../src/zxing_lib/zxing/pdf417/decoder/BitMatrixParser.cpp ****   0x13f74, 0x14082, 0x1409e, 0x140a0, 0x140bc, 0x14104, 0x14108,
 386:../src/zxing_lib/zxing/pdf417/decoder/BitMatrixParser.cpp ****   0x14110, 0x1411e, 0x14120, 0x1413c, 0x14140, 0x14178, 0x1418c,
 387:../src/zxing_lib/zxing/pdf417/decoder/BitMatrixParser.cpp ****   0x14198, 0x141b0, 0x141be, 0x141e2, 0x141e4, 0x141e8, 0x14208,
 388:../src/zxing_lib/zxing/pdf417/decoder/BitMatrixParser.cpp ****   0x14210, 0x1421e, 0x14220, 0x1423c, 0x14240, 0x14278, 0x142f0,
 389:../src/zxing_lib/zxing/pdf417/decoder/BitMatrixParser.cpp ****   0x14306, 0x1430c, 0x14318, 0x14330, 0x1433e, 0x14360, 0x1437c,
 390:../src/zxing_lib/zxing/pdf417/decoder/BitMatrixParser.cpp ****   0x1438e, 0x143c2, 0x143c4, 0x143c8, 0x143d0, 0x143e6, 0x143ec,
 391:../src/zxing_lib/zxing/pdf417/decoder/BitMatrixParser.cpp ****   0x14408, 0x14410, 0x1441e, 0x14420, 0x1443c, 0x14440, 0x14478,
 392:../src/zxing_lib/zxing/pdf417/decoder/BitMatrixParser.cpp ****   0x144f0, 0x145e0, 0x1460c, 0x14618, 0x14630, 0x1463e, 0x14660,
 393:../src/zxing_lib/zxing/pdf417/decoder/BitMatrixParser.cpp ****   0x1467c, 0x146c0, 0x146f8, 0x1471c, 0x14738, 0x14770, 0x1477e,
 394:../src/zxing_lib/zxing/pdf417/decoder/BitMatrixParser.cpp ****   0x14782, 0x14784, 0x14788, 0x14790, 0x147a0, 0x147bc, 0x147c6,
 395:../src/zxing_lib/zxing/pdf417/decoder/BitMatrixParser.cpp ****   0x147cc, 0x147d8, 0x147ee, 0x14810, 0x14820, 0x1483c, 0x14840,
 396:../src/zxing_lib/zxing/pdf417/decoder/BitMatrixParser.cpp ****   0x14878, 0x148f0, 0x149e0, 0x14bc0, 0x14c30, 0x14c3e, 0x14c60,
 397:../src/zxing_lib/zxing/pdf417/decoder/BitMatrixParser.cpp ****   0x14c7c, 0x14cc0, 0x14cf8, 0x14df0, 0x14e38, 0x14e70, 0x14e7e,
 398:../src/zxing_lib/zxing/pdf417/decoder/BitMatrixParser.cpp ****   0x14ee0, 0x14efc, 0x14f04, 0x14f08, 0x14f10, 0x14f1e, 0x14f20,
 399:../src/zxing_lib/zxing/pdf417/decoder/BitMatrixParser.cpp ****   0x14f3c, 0x14f40, 0x14f78, 0x14f86, 0x14f8c, 0x14f98, 0x14fb0,
 400:../src/zxing_lib/zxing/pdf417/decoder/BitMatrixParser.cpp ****   0x14fce, 0x14fdc, 0x15020, 0x15040, 0x15078, 0x150f0, 0x151e0,
 401:../src/zxing_lib/zxing/pdf417/decoder/BitMatrixParser.cpp ****   0x153c0, 0x15860, 0x1587c, 0x158c0, 0x158f8, 0x159f0, 0x15be0,
 402:../src/zxing_lib/zxing/pdf417/decoder/BitMatrixParser.cpp ****   0x15c70, 0x15c7e, 0x15ce0, 0x15cfc, 0x15dc0, 0x15df8, 0x15e08,
 403:../src/zxing_lib/zxing/pdf417/decoder/BitMatrixParser.cpp ****   0x15e10, 0x15e20, 0x15e40, 0x15e78, 0x15ef0, 0x15f0c, 0x15f18,
 404:../src/zxing_lib/zxing/pdf417/decoder/BitMatrixParser.cpp ****   0x15f30, 0x15f60, 0x15f7c, 0x15f8e, 0x15f9c, 0x15fb8, 0x1604e,
 405:../src/zxing_lib/zxing/pdf417/decoder/BitMatrixParser.cpp ****   0x1605c, 0x1608e, 0x1609c, 0x160b8, 0x160c2, 0x160c4, 0x160c8,
 406:../src/zxing_lib/zxing/pdf417/decoder/BitMatrixParser.cpp ****   0x160de, 0x1610e, 0x1611c, 0x16138, 0x16170, 0x1617e, 0x16184,
 407:../src/zxing_lib/zxing/pdf417/decoder/BitMatrixParser.cpp ****   0x16188, 0x16190, 0x1619e, 0x161a0, 0x161bc, 0x161c6, 0x161cc,
 408:../src/zxing_lib/zxing/pdf417/decoder/BitMatrixParser.cpp ****   0x161d8, 0x161f2, 0x161f4, 0x1620e, 0x1621c, 0x16238, 0x16270,
 409:../src/zxing_lib/zxing/pdf417/decoder/BitMatrixParser.cpp ****   0x1627e, 0x162e0, 0x162fc, 0x16304, 0x16308, 0x16310, 0x1631e,
 410:../src/zxing_lib/zxing/pdf417/decoder/BitMatrixParser.cpp ****   0x16320, 0x1633c, 0x16340, 0x16378, 0x16386, 0x1638c, 0x16398,
 411:../src/zxing_lib/zxing/pdf417/decoder/BitMatrixParser.cpp ****   0x163b0, 0x163be, 0x163ce, 0x163dc, 0x163e2, 0x163e4, 0x163e8,
 412:../src/zxing_lib/zxing/pdf417/decoder/BitMatrixParser.cpp ****   0x163f6, 0x1640e, 0x1641c, 0x16438, 0x16470, 0x1647e, 0x164e0,
 413:../src/zxing_lib/zxing/pdf417/decoder/BitMatrixParser.cpp ****   0x164fc, 0x165c0, 0x165f8, 0x16610, 0x1661e, 0x16620, 0x1663c,
 414:../src/zxing_lib/zxing/pdf417/decoder/BitMatrixParser.cpp ****   0x16640, 0x16678, 0x166f0, 0x16718, 0x16730, 0x1673e, 0x16760,
 415:../src/zxing_lib/zxing/pdf417/decoder/BitMatrixParser.cpp ****   0x1677c, 0x1678e, 0x1679c, 0x167b8, 0x167c2, 0x167c4, 0x167c8,
 416:../src/zxing_lib/zxing/pdf417/decoder/BitMatrixParser.cpp ****   0x167d0, 0x167de, 0x167e6, 0x167ec, 0x1681c, 0x16838, 0x16870,
 417:../src/zxing_lib/zxing/pdf417/decoder/BitMatrixParser.cpp ****   0x168e0, 0x168fc, 0x169c0, 0x169f8, 0x16bf0, 0x16c10, 0x16c1e,
 418:../src/zxing_lib/zxing/pdf417/decoder/BitMatrixParser.cpp ****   0x16c20, 0x16c3c, 0x16c40, 0x16c78, 0x16cf0, 0x16de0, 0x16e18,
 419:../src/zxing_lib/zxing/pdf417/decoder/BitMatrixParser.cpp ****   0x16e30, 0x16e3e, 0x16e60, 0x16e7c, 0x16ec0, 0x16ef8, 0x16f1c,
 420:../src/zxing_lib/zxing/pdf417/decoder/BitMatrixParser.cpp ****   0x16f38, 0x16f70, 0x16f7e, 0x16f84, 0x16f88, 0x16f90, 0x16f9e,
 421:../src/zxing_lib/zxing/pdf417/decoder/BitMatrixParser.cpp ****   0x16fa0, 0x16fbc, 0x16fc6, 0x16fcc, 0x16fd8, 0x17026, 0x1702c,
 422:../src/zxing_lib/zxing/pdf417/decoder/BitMatrixParser.cpp ****   0x17046, 0x1704c, 0x17058, 0x1706e, 0x17086, 0x1708c, 0x17098,
 423:../src/zxing_lib/zxing/pdf417/decoder/BitMatrixParser.cpp ****   0x170b0, 0x170be, 0x170ce, 0x170dc, 0x170e8, 0x17106, 0x1710c,
 424:../src/zxing_lib/zxing/pdf417/decoder/BitMatrixParser.cpp ****   0x17118, 0x17130, 0x1713e, 0x17160, 0x1717c, 0x1718e, 0x1719c,
 425:../src/zxing_lib/zxing/pdf417/decoder/BitMatrixParser.cpp ****   0x171b8, 0x171c2, 0x171c4, 0x171c8, 0x171d0, 0x171de, 0x171e6,
 426:../src/zxing_lib/zxing/pdf417/decoder/BitMatrixParser.cpp ****   0x171ec, 0x171fa, 0x17206, 0x1720c, 0x17218, 0x17230, 0x1723e,
 427:../src/zxing_lib/zxing/pdf417/decoder/BitMatrixParser.cpp ****   0x17260, 0x1727c, 0x172c0, 0x172f8, 0x1730e, 0x1731c, 0x17338,
 428:../src/zxing_lib/zxing/pdf417/decoder/BitMatrixParser.cpp ****   0x17370, 0x1737e, 0x17388, 0x17390, 0x1739e, 0x173a0, 0x173bc,
 429:../src/zxing_lib/zxing/pdf417/decoder/BitMatrixParser.cpp ****   0x173cc, 0x173d8, 0x173ee, 0x173f2, 0x173f4, 0x1740c, 0x17418,
 430:../src/zxing_lib/zxing/pdf417/decoder/BitMatrixParser.cpp ****   0x17430, 0x1743e, 0x17460, 0x1747c, 0x174c0, 0x174f8, 0x175f0,
 431:../src/zxing_lib/zxing/pdf417/decoder/BitMatrixParser.cpp ****   0x1760e, 0x1761c, 0x17638, 0x17670, 0x1767e, 0x176e0, 0x176fc,
 432:../src/zxing_lib/zxing/pdf417/decoder/BitMatrixParser.cpp ****   0x17708, 0x17710, 0x1771e, 0x17720, 0x1773c, 0x17740, 0x17778,
 433:../src/zxing_lib/zxing/pdf417/decoder/BitMatrixParser.cpp ****   0x17798, 0x177b0, 0x177be, 0x177dc, 0x177e2, 0x177e4, 0x177e8,
 434:../src/zxing_lib/zxing/pdf417/decoder/BitMatrixParser.cpp ****   0x17822, 0x17824, 0x17828, 0x17836, 0x17842, 0x17844, 0x17848,
 435:../src/zxing_lib/zxing/pdf417/decoder/BitMatrixParser.cpp ****   0x17850, 0x1785e, 0x17866, 0x1786c, 0x17882, 0x17884, 0x17888,
 436:../src/zxing_lib/zxing/pdf417/decoder/BitMatrixParser.cpp ****   0x17890, 0x1789e, 0x178a0, 0x178bc, 0x178c6, 0x178cc, 0x178d8,
 437:../src/zxing_lib/zxing/pdf417/decoder/BitMatrixParser.cpp ****   0x178ee, 0x178f2, 0x178f4, 0x17902, 0x17904, 0x17908, 0x17910,
 438:../src/zxing_lib/zxing/pdf417/decoder/BitMatrixParser.cpp ****   0x1791e, 0x17920, 0x1793c, 0x17940, 0x17978, 0x17986, 0x1798c,
 439:../src/zxing_lib/zxing/pdf417/decoder/BitMatrixParser.cpp ****   0x17998, 0x179b0, 0x179be, 0x179ce, 0x179dc, 0x179e2, 0x179e4,
 440:../src/zxing_lib/zxing/pdf417/decoder/BitMatrixParser.cpp ****   0x179e8, 0x179f6, 0x17a04, 0x17a08, 0x17a10, 0x17a1e, 0x17a20,
 441:../src/zxing_lib/zxing/pdf417/decoder/BitMatrixParser.cpp ****   0x17a3c, 0x17a40, 0x17a78, 0x17af0, 0x17b06, 0x17b0c, 0x17b18,
 442:../src/zxing_lib/zxing/pdf417/decoder/BitMatrixParser.cpp ****   0x17b30, 0x17b3e, 0x17b60, 0x17b7c, 0x17b8e, 0x17b9c, 0x17bb8,
 443:../src/zxing_lib/zxing/pdf417/decoder/BitMatrixParser.cpp ****   0x17bc4, 0x17bc8, 0x17bd0, 0x17bde, 0x17be6, 0x17bec, 0x17c2e,
 444:../src/zxing_lib/zxing/pdf417/decoder/BitMatrixParser.cpp ****   0x17c32, 0x17c34, 0x17c4e, 0x17c5c, 0x17c62, 0x17c64, 0x17c68,
 445:../src/zxing_lib/zxing/pdf417/decoder/BitMatrixParser.cpp ****   0x17c76, 0x17c8e, 0x17c9c, 0x17cb8, 0x17cc2, 0x17cc4, 0x17cc8,
 446:../src/zxing_lib/zxing/pdf417/decoder/BitMatrixParser.cpp ****   0x17cd0, 0x17cde, 0x17ce6, 0x17cec, 0x17d0e, 0x17d1c, 0x17d38,
 447:../src/zxing_lib/zxing/pdf417/decoder/BitMatrixParser.cpp ****   0x17d70, 0x17d82, 0x17d84, 0x17d88, 0x17d90, 0x17d9e, 0x17da0,
 448:../src/zxing_lib/zxing/pdf417/decoder/BitMatrixParser.cpp ****   0x17dbc, 0x17dc6, 0x17dcc, 0x17dd8, 0x17dee, 0x17e26, 0x17e2c,
 449:../src/zxing_lib/zxing/pdf417/decoder/BitMatrixParser.cpp ****   0x17e3a, 0x17e46, 0x17e4c, 0x17e58, 0x17e6e, 0x17e72, 0x17e74,
 450:../src/zxing_lib/zxing/pdf417/decoder/BitMatrixParser.cpp ****   0x17e86, 0x17e8c, 0x17e98, 0x17eb0, 0x17ece, 0x17edc, 0x17ee2,
 451:../src/zxing_lib/zxing/pdf417/decoder/BitMatrixParser.cpp ****   0x17ee4, 0x17ee8, 0x17ef6, 0x1813a, 0x18172, 0x18174, 0x18216,
 452:../src/zxing_lib/zxing/pdf417/decoder/BitMatrixParser.cpp ****   0x18226, 0x1823a, 0x1824c, 0x18258, 0x1826e, 0x18272, 0x18274,
 453:../src/zxing_lib/zxing/pdf417/decoder/BitMatrixParser.cpp ****   0x18298, 0x182be, 0x182e2, 0x182e4, 0x182e8, 0x182f6, 0x1835e,
 454:../src/zxing_lib/zxing/pdf417/decoder/BitMatrixParser.cpp ****   0x1837a, 0x183ae, 0x183d6, 0x18416, 0x18426, 0x1842c, 0x1843a,
 455:../src/zxing_lib/zxing/pdf417/decoder/BitMatrixParser.cpp ****   0x18446, 0x18458, 0x1846e, 0x18472, 0x18474, 0x18486, 0x184b0,
 456:../src/zxing_lib/zxing/pdf417/decoder/BitMatrixParser.cpp ****   0x184be, 0x184ce, 0x184dc, 0x184e2, 0x184e4, 0x184e8, 0x184f6,
 457:../src/zxing_lib/zxing/pdf417/decoder/BitMatrixParser.cpp ****   0x18506, 0x1850c, 0x18518, 0x18530, 0x1853e, 0x18560, 0x1857c,
 458:../src/zxing_lib/zxing/pdf417/decoder/BitMatrixParser.cpp ****   0x1858e, 0x1859c, 0x185b8, 0x185c2, 0x185c4, 0x185c8, 0x185d0,
 459:../src/zxing_lib/zxing/pdf417/decoder/BitMatrixParser.cpp ****   0x185de, 0x185e6, 0x185ec, 0x185fa, 0x18612, 0x18614, 0x18622,
 460:../src/zxing_lib/zxing/pdf417/decoder/BitMatrixParser.cpp ****   0x18628, 0x18636, 0x18642, 0x18650, 0x1865e, 0x1867a, 0x18682,
 461:../src/zxing_lib/zxing/pdf417/decoder/BitMatrixParser.cpp ****   0x18684, 0x18688, 0x18690, 0x1869e, 0x186a0, 0x186bc, 0x186c6,
 462:../src/zxing_lib/zxing/pdf417/decoder/BitMatrixParser.cpp ****   0x186cc, 0x186d8, 0x186ee, 0x186f2, 0x186f4, 0x1872e, 0x1874e,
 463:../src/zxing_lib/zxing/pdf417/decoder/BitMatrixParser.cpp ****   0x1875c, 0x18796, 0x187a6, 0x187ac, 0x187d2, 0x187d4, 0x18826,
 464:../src/zxing_lib/zxing/pdf417/decoder/BitMatrixParser.cpp ****   0x1882c, 0x1883a, 0x18846, 0x1884c, 0x18858, 0x1886e, 0x18872,
 465:../src/zxing_lib/zxing/pdf417/decoder/BitMatrixParser.cpp ****   0x18874, 0x18886, 0x18898, 0x188b0, 0x188be, 0x188ce, 0x188dc,
 466:../src/zxing_lib/zxing/pdf417/decoder/BitMatrixParser.cpp ****   0x188e2, 0x188e4, 0x188e8, 0x188f6, 0x1890c, 0x18930, 0x1893e,
 467:../src/zxing_lib/zxing/pdf417/decoder/BitMatrixParser.cpp ****   0x18960, 0x1897c, 0x1898e, 0x189b8, 0x189c2, 0x189c8, 0x189d0,
 468:../src/zxing_lib/zxing/pdf417/decoder/BitMatrixParser.cpp ****   0x189de, 0x189e6, 0x189ec, 0x189fa, 0x18a18, 0x18a30, 0x18a3e,
 469:../src/zxing_lib/zxing/pdf417/decoder/BitMatrixParser.cpp ****   0x18a60, 0x18a7c, 0x18ac0, 0x18af8, 0x18b1c, 0x18b38, 0x18b70,
 470:../src/zxing_lib/zxing/pdf417/decoder/BitMatrixParser.cpp ****   0x18b7e, 0x18b82, 0x18b84, 0x18b88, 0x18b90, 0x18b9e, 0x18ba0,
 471:../src/zxing_lib/zxing/pdf417/decoder/BitMatrixParser.cpp ****   0x18bbc, 0x18bc6, 0x18bcc, 0x18bd8, 0x18bee, 0x18bf2, 0x18bf4,
 472:../src/zxing_lib/zxing/pdf417/decoder/BitMatrixParser.cpp ****   0x18c22, 0x18c24, 0x18c28, 0x18c36, 0x18c42, 0x18c48, 0x18c50,
 473:../src/zxing_lib/zxing/pdf417/decoder/BitMatrixParser.cpp ****   0x18c5e, 0x18c66, 0x18c7a, 0x18c82, 0x18c84, 0x18c90, 0x18c9e,
 474:../src/zxing_lib/zxing/pdf417/decoder/BitMatrixParser.cpp ****   0x18ca0, 0x18cbc, 0x18ccc, 0x18cf2, 0x18cf4, 0x18d04, 0x18d08,
 475:../src/zxing_lib/zxing/pdf417/decoder/BitMatrixParser.cpp ****   0x18d10, 0x18d1e, 0x18d20, 0x18d3c, 0x18d40, 0x18d78, 0x18d86,
 476:../src/zxing_lib/zxing/pdf417/decoder/BitMatrixParser.cpp ****   0x18d98, 0x18dce, 0x18de2, 0x18de4, 0x18de8, 0x18e2e, 0x18e32,
 477:../src/zxing_lib/zxing/pdf417/decoder/BitMatrixParser.cpp ****   0x18e34, 0x18e4e, 0x18e5c, 0x18e62, 0x18e64, 0x18e68, 0x18e8e,
 478:../src/zxing_lib/zxing/pdf417/decoder/BitMatrixParser.cpp ****   0x18e9c, 0x18eb8, 0x18ec2, 0x18ec4, 0x18ec8, 0x18ed0, 0x18efa,
 479:../src/zxing_lib/zxing/pdf417/decoder/BitMatrixParser.cpp ****   0x18f16, 0x18f26, 0x18f2c, 0x18f46, 0x18f4c, 0x18f58, 0x18f6e,
 480:../src/zxing_lib/zxing/pdf417/decoder/BitMatrixParser.cpp ****   0x18f8a, 0x18f92, 0x18f94, 0x18fa2, 0x18fa4, 0x18fa8, 0x18fb6,
 481:../src/zxing_lib/zxing/pdf417/decoder/BitMatrixParser.cpp ****   0x1902c, 0x1903a, 0x19046, 0x1904c, 0x19058, 0x19072, 0x19074,
 482:../src/zxing_lib/zxing/pdf417/decoder/BitMatrixParser.cpp ****   0x19086, 0x19098, 0x190b0, 0x190be, 0x190ce, 0x190dc, 0x190e2,
 483:../src/zxing_lib/zxing/pdf417/decoder/BitMatrixParser.cpp ****   0x190e8, 0x190f6, 0x19106, 0x1910c, 0x19130, 0x1913e, 0x19160,
 484:../src/zxing_lib/zxing/pdf417/decoder/BitMatrixParser.cpp ****   0x1917c, 0x1918e, 0x1919c, 0x191b8, 0x191c2, 0x191c8, 0x191d0,
 485:../src/zxing_lib/zxing/pdf417/decoder/BitMatrixParser.cpp ****   0x191de, 0x191e6, 0x191ec, 0x191fa, 0x19218, 0x1923e, 0x19260,
 486:../src/zxing_lib/zxing/pdf417/decoder/BitMatrixParser.cpp ****   0x1927c, 0x192c0, 0x192f8, 0x19338, 0x19370, 0x1937e, 0x19382,
 487:../src/zxing_lib/zxing/pdf417/decoder/BitMatrixParser.cpp ****   0x19384, 0x19390, 0x1939e, 0x193a0, 0x193bc, 0x193c6, 0x193cc,
 488:../src/zxing_lib/zxing/pdf417/decoder/BitMatrixParser.cpp ****   0x193d8, 0x193ee, 0x193f2, 0x193f4, 0x19430, 0x1943e, 0x19460,
 489:../src/zxing_lib/zxing/pdf417/decoder/BitMatrixParser.cpp ****   0x1947c, 0x194c0, 0x194f8, 0x195f0, 0x19638, 0x19670, 0x1967e,
 490:../src/zxing_lib/zxing/pdf417/decoder/BitMatrixParser.cpp ****   0x196e0, 0x196fc, 0x19702, 0x19704, 0x19708, 0x19710, 0x19720,
 491:../src/zxing_lib/zxing/pdf417/decoder/BitMatrixParser.cpp ****   0x1973c, 0x19740, 0x19778, 0x19786, 0x1978c, 0x19798, 0x197b0,
 492:../src/zxing_lib/zxing/pdf417/decoder/BitMatrixParser.cpp ****   0x197be, 0x197ce, 0x197dc, 0x197e2, 0x197e4, 0x197e8, 0x19822,
 493:../src/zxing_lib/zxing/pdf417/decoder/BitMatrixParser.cpp ****   0x19824, 0x19842, 0x19848, 0x19850, 0x1985e, 0x19866, 0x1987a,
 494:../src/zxing_lib/zxing/pdf417/decoder/BitMatrixParser.cpp ****   0x19882, 0x19884, 0x19890, 0x1989e, 0x198a0, 0x198bc, 0x198cc,
 495:../src/zxing_lib/zxing/pdf417/decoder/BitMatrixParser.cpp ****   0x198f2, 0x198f4, 0x19902, 0x19908, 0x1991e, 0x19920, 0x1993c,
 496:../src/zxing_lib/zxing/pdf417/decoder/BitMatrixParser.cpp ****   0x19940, 0x19978, 0x19986, 0x19998, 0x199ce, 0x199e2, 0x199e4,
 497:../src/zxing_lib/zxing/pdf417/decoder/BitMatrixParser.cpp ****   0x199e8, 0x19a08, 0x19a10, 0x19a1e, 0x19a20, 0x19a3c, 0x19a40,
 498:../src/zxing_lib/zxing/pdf417/decoder/BitMatrixParser.cpp ****   0x19a78, 0x19af0, 0x19b18, 0x19b3e, 0x19b60, 0x19b9c, 0x19bc2,
 499:../src/zxing_lib/zxing/pdf417/decoder/BitMatrixParser.cpp ****   0x19bc4, 0x19bc8, 0x19bd0, 0x19be6, 0x19c2e, 0x19c34, 0x19c4e,
 500:../src/zxing_lib/zxing/pdf417/decoder/BitMatrixParser.cpp ****   0x19c5c, 0x19c62, 0x19c64, 0x19c68, 0x19c8e, 0x19c9c, 0x19cb8,
 501:../src/zxing_lib/zxing/pdf417/decoder/BitMatrixParser.cpp ****   0x19cc2, 0x19cc8, 0x19cd0, 0x19ce6, 0x19cfa, 0x19d0e, 0x19d1c,
 502:../src/zxing_lib/zxing/pdf417/decoder/BitMatrixParser.cpp ****   0x19d38, 0x19d70, 0x19d7e, 0x19d82, 0x19d84, 0x19d88, 0x19d90,
 503:../src/zxing_lib/zxing/pdf417/decoder/BitMatrixParser.cpp ****   0x19da0, 0x19dcc, 0x19df2, 0x19df4, 0x19e16, 0x19e26, 0x19e2c,
 504:../src/zxing_lib/zxing/pdf417/decoder/BitMatrixParser.cpp ****   0x19e46, 0x19e4c, 0x19e58, 0x19e74, 0x19e86, 0x19e8c, 0x19e98,
 505:../src/zxing_lib/zxing/pdf417/decoder/BitMatrixParser.cpp ****   0x19eb0, 0x19ebe, 0x19ece, 0x19ee2, 0x19ee4, 0x19ee8, 0x19f0a,
 506:../src/zxing_lib/zxing/pdf417/decoder/BitMatrixParser.cpp ****   0x19f12, 0x19f14, 0x19f22, 0x19f24, 0x19f28, 0x19f42, 0x19f44,
 507:../src/zxing_lib/zxing/pdf417/decoder/BitMatrixParser.cpp ****   0x19f48, 0x19f50, 0x19f5e, 0x19f6c, 0x19f9a, 0x19fae, 0x19fb2,
 508:../src/zxing_lib/zxing/pdf417/decoder/BitMatrixParser.cpp ****   0x19fb4, 0x1a046, 0x1a04c, 0x1a072, 0x1a074, 0x1a086, 0x1a08c,
 509:../src/zxing_lib/zxing/pdf417/decoder/BitMatrixParser.cpp ****   0x1a098, 0x1a0b0, 0x1a0be, 0x1a0e2, 0x1a0e4, 0x1a0e8, 0x1a0f6,
 510:../src/zxing_lib/zxing/pdf417/decoder/BitMatrixParser.cpp ****   0x1a106, 0x1a10c, 0x1a118, 0x1a130, 0x1a13e, 0x1a160, 0x1a17c,
 511:../src/zxing_lib/zxing/pdf417/decoder/BitMatrixParser.cpp ****   0x1a18e, 0x1a19c, 0x1a1b8, 0x1a1c2, 0x1a1c4, 0x1a1c8, 0x1a1d0,
 512:../src/zxing_lib/zxing/pdf417/decoder/BitMatrixParser.cpp ****   0x1a1de, 0x1a1e6, 0x1a1ec, 0x1a218, 0x1a230, 0x1a23e, 0x1a260,
 513:../src/zxing_lib/zxing/pdf417/decoder/BitMatrixParser.cpp ****   0x1a27c, 0x1a2c0, 0x1a2f8, 0x1a31c, 0x1a338, 0x1a370, 0x1a37e,
 514:../src/zxing_lib/zxing/pdf417/decoder/BitMatrixParser.cpp ****   0x1a382, 0x1a384, 0x1a388, 0x1a390, 0x1a39e, 0x1a3a0, 0x1a3bc,
 515:../src/zxing_lib/zxing/pdf417/decoder/BitMatrixParser.cpp ****   0x1a3c6, 0x1a3cc, 0x1a3d8, 0x1a3ee, 0x1a3f2, 0x1a3f4, 0x1a418,
 516:../src/zxing_lib/zxing/pdf417/decoder/BitMatrixParser.cpp ****   0x1a430, 0x1a43e, 0x1a460, 0x1a47c, 0x1a4c0, 0x1a4f8, 0x1a5f0,
 517:../src/zxing_lib/zxing/pdf417/decoder/BitMatrixParser.cpp ****   0x1a61c, 0x1a638, 0x1a670, 0x1a67e, 0x1a6e0, 0x1a6fc, 0x1a702,
 518:../src/zxing_lib/zxing/pdf417/decoder/BitMatrixParser.cpp ****   0x1a704, 0x1a708, 0x1a710, 0x1a71e, 0x1a720, 0x1a73c, 0x1a740,
 519:../src/zxing_lib/zxing/pdf417/decoder/BitMatrixParser.cpp ****   0x1a778, 0x1a786, 0x1a78c, 0x1a798, 0x1a7b0, 0x1a7be, 0x1a7ce,
 520:../src/zxing_lib/zxing/pdf417/decoder/BitMatrixParser.cpp ****   0x1a7dc, 0x1a7e2, 0x1a7e4, 0x1a7e8, 0x1a830, 0x1a860, 0x1a87c,
 521:../src/zxing_lib/zxing/pdf417/decoder/BitMatrixParser.cpp ****   0x1a8c0, 0x1a8f8, 0x1a9f0, 0x1abe0, 0x1ac70, 0x1ac7e, 0x1ace0,
 522:../src/zxing_lib/zxing/pdf417/decoder/BitMatrixParser.cpp ****   0x1acfc, 0x1adc0, 0x1adf8, 0x1ae04, 0x1ae08, 0x1ae10, 0x1ae20,
 523:../src/zxing_lib/zxing/pdf417/decoder/BitMatrixParser.cpp ****   0x1ae3c, 0x1ae40, 0x1ae78, 0x1aef0, 0x1af06, 0x1af0c, 0x1af18,
 524:../src/zxing_lib/zxing/pdf417/decoder/BitMatrixParser.cpp ****   0x1af30, 0x1af3e, 0x1af60, 0x1af7c, 0x1af8e, 0x1af9c, 0x1afb8,
 525:../src/zxing_lib/zxing/pdf417/decoder/BitMatrixParser.cpp ****   0x1afc4, 0x1afc8, 0x1afd0, 0x1afde, 0x1b042, 0x1b05e, 0x1b07a,
 526:../src/zxing_lib/zxing/pdf417/decoder/BitMatrixParser.cpp ****   0x1b082, 0x1b084, 0x1b088, 0x1b090, 0x1b09e, 0x1b0a0, 0x1b0bc,
 527:../src/zxing_lib/zxing/pdf417/decoder/BitMatrixParser.cpp ****   0x1b0cc, 0x1b0f2, 0x1b0f4, 0x1b102, 0x1b104, 0x1b108, 0x1b110,
 528:../src/zxing_lib/zxing/pdf417/decoder/BitMatrixParser.cpp ****   0x1b11e, 0x1b120, 0x1b13c, 0x1b140, 0x1b178, 0x1b186, 0x1b198,
 529:../src/zxing_lib/zxing/pdf417/decoder/BitMatrixParser.cpp ****   0x1b1ce, 0x1b1e2, 0x1b1e4, 0x1b1e8, 0x1b204, 0x1b208, 0x1b210,
 530:../src/zxing_lib/zxing/pdf417/decoder/BitMatrixParser.cpp ****   0x1b21e, 0x1b220, 0x1b23c, 0x1b240, 0x1b278, 0x1b2f0, 0x1b30c,
 531:../src/zxing_lib/zxing/pdf417/decoder/BitMatrixParser.cpp ****   0x1b33e, 0x1b360, 0x1b39c, 0x1b3c2, 0x1b3c4, 0x1b3c8, 0x1b3d0,
 532:../src/zxing_lib/zxing/pdf417/decoder/BitMatrixParser.cpp ****   0x1b3e6, 0x1b410, 0x1b41e, 0x1b420, 0x1b43c, 0x1b440, 0x1b478,
 533:../src/zxing_lib/zxing/pdf417/decoder/BitMatrixParser.cpp ****   0x1b4f0, 0x1b5e0, 0x1b618, 0x1b660, 0x1b67c, 0x1b6c0, 0x1b738,
 534:../src/zxing_lib/zxing/pdf417/decoder/BitMatrixParser.cpp ****   0x1b782, 0x1b784, 0x1b788, 0x1b790, 0x1b79e, 0x1b7a0, 0x1b7cc,
 535:../src/zxing_lib/zxing/pdf417/decoder/BitMatrixParser.cpp ****   0x1b82e, 0x1b84e, 0x1b85c, 0x1b88e, 0x1b89c, 0x1b8b8, 0x1b8c2,
 536:../src/zxing_lib/zxing/pdf417/decoder/BitMatrixParser.cpp ****   0x1b8c4, 0x1b8c8, 0x1b8d0, 0x1b8e6, 0x1b8fa, 0x1b90e, 0x1b91c,
 537:../src/zxing_lib/zxing/pdf417/decoder/BitMatrixParser.cpp ****   0x1b938, 0x1b970, 0x1b97e, 0x1b982, 0x1b984, 0x1b988, 0x1b990,
 538:../src/zxing_lib/zxing/pdf417/decoder/BitMatrixParser.cpp ****   0x1b99e, 0x1b9a0, 0x1b9cc, 0x1b9f2, 0x1b9f4, 0x1ba0e, 0x1ba1c,
 539:../src/zxing_lib/zxing/pdf417/decoder/BitMatrixParser.cpp ****   0x1ba38, 0x1ba70, 0x1ba7e, 0x1bae0, 0x1bafc, 0x1bb08, 0x1bb10,
 540:../src/zxing_lib/zxing/pdf417/decoder/BitMatrixParser.cpp ****   0x1bb20, 0x1bb3c, 0x1bb40, 0x1bb98, 0x1bbce, 0x1bbe2, 0x1bbe4,
 541:../src/zxing_lib/zxing/pdf417/decoder/BitMatrixParser.cpp ****   0x1bbe8, 0x1bc16, 0x1bc26, 0x1bc2c, 0x1bc46, 0x1bc4c, 0x1bc58,
 542:../src/zxing_lib/zxing/pdf417/decoder/BitMatrixParser.cpp ****   0x1bc72, 0x1bc74, 0x1bc86, 0x1bc8c, 0x1bc98, 0x1bcb0, 0x1bcbe,
 543:../src/zxing_lib/zxing/pdf417/decoder/BitMatrixParser.cpp ****   0x1bcce, 0x1bce2, 0x1bce4, 0x1bce8, 0x1bd06, 0x1bd0c, 0x1bd18,
 544:../src/zxing_lib/zxing/pdf417/decoder/BitMatrixParser.cpp ****   0x1bd30, 0x1bd3e, 0x1bd60, 0x1bd7c, 0x1bd9c, 0x1bdc2, 0x1bdc4,
 545:../src/zxing_lib/zxing/pdf417/decoder/BitMatrixParser.cpp ****   0x1bdc8, 0x1bdd0, 0x1bde6, 0x1bdfa, 0x1be12, 0x1be14, 0x1be22,
 546:../src/zxing_lib/zxing/pdf417/decoder/BitMatrixParser.cpp ****   0x1be24, 0x1be28, 0x1be42, 0x1be44, 0x1be48, 0x1be50, 0x1be5e,
 547:../src/zxing_lib/zxing/pdf417/decoder/BitMatrixParser.cpp ****   0x1be66, 0x1be82, 0x1be84, 0x1be88, 0x1be90, 0x1be9e, 0x1bea0,
 548:../src/zxing_lib/zxing/pdf417/decoder/BitMatrixParser.cpp ****   0x1bebc, 0x1becc, 0x1bef4, 0x1bf1a, 0x1bf2e, 0x1bf32, 0x1bf34,
 549:../src/zxing_lib/zxing/pdf417/decoder/BitMatrixParser.cpp ****   0x1bf4e, 0x1bf5c, 0x1bf62, 0x1bf64, 0x1bf68, 0x1c09a, 0x1c0b2,
 550:../src/zxing_lib/zxing/pdf417/decoder/BitMatrixParser.cpp ****   0x1c0b4, 0x1c11a, 0x1c132, 0x1c134, 0x1c162, 0x1c164, 0x1c168,
 551:../src/zxing_lib/zxing/pdf417/decoder/BitMatrixParser.cpp ****   0x1c176, 0x1c1ba, 0x1c21a, 0x1c232, 0x1c234, 0x1c24e, 0x1c25c,
 552:../src/zxing_lib/zxing/pdf417/decoder/BitMatrixParser.cpp ****   0x1c262, 0x1c264, 0x1c268, 0x1c276, 0x1c28e, 0x1c2c2, 0x1c2c4,
 553:../src/zxing_lib/zxing/pdf417/decoder/BitMatrixParser.cpp ****   0x1c2c8, 0x1c2d0, 0x1c2de, 0x1c2e6, 0x1c2ec, 0x1c2fa, 0x1c316,
 554:../src/zxing_lib/zxing/pdf417/decoder/BitMatrixParser.cpp ****   0x1c326, 0x1c33a, 0x1c346, 0x1c34c, 0x1c372, 0x1c374, 0x1c41a,
 555:../src/zxing_lib/zxing/pdf417/decoder/BitMatrixParser.cpp ****   0x1c42e, 0x1c432, 0x1c434, 0x1c44e, 0x1c45c, 0x1c462, 0x1c464,
 556:../src/zxing_lib/zxing/pdf417/decoder/BitMatrixParser.cpp ****   0x1c468, 0x1c476, 0x1c48e, 0x1c49c, 0x1c4b8, 0x1c4c2, 0x1c4c8,
 557:../src/zxing_lib/zxing/pdf417/decoder/BitMatrixParser.cpp ****   0x1c4d0, 0x1c4de, 0x1c4e6, 0x1c4ec, 0x1c4fa, 0x1c51c, 0x1c538,
 558:../src/zxing_lib/zxing/pdf417/decoder/BitMatrixParser.cpp ****   0x1c570, 0x1c57e, 0x1c582, 0x1c584, 0x1c588, 0x1c590, 0x1c59e,
 559:../src/zxing_lib/zxing/pdf417/decoder/BitMatrixParser.cpp ****   0x1c5a0, 0x1c5bc, 0x1c5c6, 0x1c5cc, 0x1c5d8, 0x1c5ee, 0x1c5f2,
 560:../src/zxing_lib/zxing/pdf417/decoder/BitMatrixParser.cpp ****   0x1c5f4, 0x1c616, 0x1c626, 0x1c62c, 0x1c63a, 0x1c646, 0x1c64c,
 561:../src/zxing_lib/zxing/pdf417/decoder/BitMatrixParser.cpp ****   0x1c658, 0x1c66e, 0x1c672, 0x1c674, 0x1c686, 0x1c68c, 0x1c698,
 562:../src/zxing_lib/zxing/pdf417/decoder/BitMatrixParser.cpp ****   0x1c6b0, 0x1c6be, 0x1c6ce, 0x1c6dc, 0x1c6e2, 0x1c6e4, 0x1c6e8,
 563:../src/zxing_lib/zxing/pdf417/decoder/BitMatrixParser.cpp ****   0x1c712, 0x1c714, 0x1c722, 0x1c728, 0x1c736, 0x1c742, 0x1c744,
 564:../src/zxing_lib/zxing/pdf417/decoder/BitMatrixParser.cpp ****   0x1c748, 0x1c750, 0x1c75e, 0x1c766, 0x1c76c, 0x1c77a, 0x1c7ae,
 565:../src/zxing_lib/zxing/pdf417/decoder/BitMatrixParser.cpp ****   0x1c7d6, 0x1c7ea, 0x1c81a, 0x1c82e, 0x1c832, 0x1c834, 0x1c84e,
 566:../src/zxing_lib/zxing/pdf417/decoder/BitMatrixParser.cpp ****   0x1c85c, 0x1c862, 0x1c864, 0x1c868, 0x1c876, 0x1c88e, 0x1c89c,
 567:../src/zxing_lib/zxing/pdf417/decoder/BitMatrixParser.cpp ****   0x1c8b8, 0x1c8c2, 0x1c8c8, 0x1c8d0, 0x1c8de, 0x1c8e6, 0x1c8ec,
 568:../src/zxing_lib/zxing/pdf417/decoder/BitMatrixParser.cpp ****   0x1c8fa, 0x1c90e, 0x1c938, 0x1c970, 0x1c97e, 0x1c982, 0x1c984,
 569:../src/zxing_lib/zxing/pdf417/decoder/BitMatrixParser.cpp ****   0x1c990, 0x1c99e, 0x1c9a0, 0x1c9bc, 0x1c9c6, 0x1c9cc, 0x1c9d8,
 570:../src/zxing_lib/zxing/pdf417/decoder/BitMatrixParser.cpp ****   0x1c9ee, 0x1c9f2, 0x1c9f4, 0x1ca38, 0x1ca70, 0x1ca7e, 0x1cae0,
 571:../src/zxing_lib/zxing/pdf417/decoder/BitMatrixParser.cpp ****   0x1cafc, 0x1cb02, 0x1cb04, 0x1cb08, 0x1cb10, 0x1cb20, 0x1cb3c,
 572:../src/zxing_lib/zxing/pdf417/decoder/BitMatrixParser.cpp ****   0x1cb40, 0x1cb78, 0x1cb86, 0x1cb8c, 0x1cb98, 0x1cbb0, 0x1cbbe,
 573:../src/zxing_lib/zxing/pdf417/decoder/BitMatrixParser.cpp ****   0x1cbce, 0x1cbdc, 0x1cbe2, 0x1cbe4, 0x1cbe8, 0x1cbf6, 0x1cc16,
 574:../src/zxing_lib/zxing/pdf417/decoder/BitMatrixParser.cpp ****   0x1cc26, 0x1cc2c, 0x1cc3a, 0x1cc46, 0x1cc58, 0x1cc72, 0x1cc74,
 575:../src/zxing_lib/zxing/pdf417/decoder/BitMatrixParser.cpp ****   0x1cc86, 0x1ccb0, 0x1ccbe, 0x1ccce, 0x1cce2, 0x1cce4, 0x1cce8,
 576:../src/zxing_lib/zxing/pdf417/decoder/BitMatrixParser.cpp ****   0x1cd06, 0x1cd0c, 0x1cd18, 0x1cd30, 0x1cd3e, 0x1cd60, 0x1cd7c,
 577:../src/zxing_lib/zxing/pdf417/decoder/BitMatrixParser.cpp ****   0x1cd9c, 0x1cdc2, 0x1cdc4, 0x1cdc8, 0x1cdd0, 0x1cdde, 0x1cde6,
 578:../src/zxing_lib/zxing/pdf417/decoder/BitMatrixParser.cpp ****   0x1cdfa, 0x1ce22, 0x1ce28, 0x1ce42, 0x1ce50, 0x1ce5e, 0x1ce66,
 579:../src/zxing_lib/zxing/pdf417/decoder/BitMatrixParser.cpp ****   0x1ce7a, 0x1ce82, 0x1ce84, 0x1ce88, 0x1ce90, 0x1ce9e, 0x1cea0,
 580:../src/zxing_lib/zxing/pdf417/decoder/BitMatrixParser.cpp ****   0x1cebc, 0x1cecc, 0x1cef2, 0x1cef4, 0x1cf2e, 0x1cf32, 0x1cf34,
 581:../src/zxing_lib/zxing/pdf417/decoder/BitMatrixParser.cpp ****   0x1cf4e, 0x1cf5c, 0x1cf62, 0x1cf64, 0x1cf68, 0x1cf96, 0x1cfa6,
 582:../src/zxing_lib/zxing/pdf417/decoder/BitMatrixParser.cpp ****   0x1cfac, 0x1cfca, 0x1cfd2, 0x1cfd4, 0x1d02e, 0x1d032, 0x1d034,
 583:../src/zxing_lib/zxing/pdf417/decoder/BitMatrixParser.cpp ****   0x1d04e, 0x1d05c, 0x1d062, 0x1d064, 0x1d068, 0x1d076, 0x1d08e,
 584:../src/zxing_lib/zxing/pdf417/decoder/BitMatrixParser.cpp ****   0x1d09c, 0x1d0b8, 0x1d0c2, 0x1d0c4, 0x1d0c8, 0x1d0d0, 0x1d0de,
 585:../src/zxing_lib/zxing/pdf417/decoder/BitMatrixParser.cpp ****   0x1d0e6, 0x1d0ec, 0x1d0fa, 0x1d11c, 0x1d138, 0x1d170, 0x1d17e,
 586:../src/zxing_lib/zxing/pdf417/decoder/BitMatrixParser.cpp ****   0x1d182, 0x1d184, 0x1d188, 0x1d190, 0x1d19e, 0x1d1a0, 0x1d1bc,
 587:../src/zxing_lib/zxing/pdf417/decoder/BitMatrixParser.cpp ****   0x1d1c6, 0x1d1cc, 0x1d1d8, 0x1d1ee, 0x1d1f2, 0x1d1f4, 0x1d21c,
 588:../src/zxing_lib/zxing/pdf417/decoder/BitMatrixParser.cpp ****   0x1d238, 0x1d270, 0x1d27e, 0x1d2e0, 0x1d2fc, 0x1d302, 0x1d304,
 589:../src/zxing_lib/zxing/pdf417/decoder/BitMatrixParser.cpp ****   0x1d308, 0x1d310, 0x1d31e, 0x1d320, 0x1d33c, 0x1d340, 0x1d378,
 590:../src/zxing_lib/zxing/pdf417/decoder/BitMatrixParser.cpp ****   0x1d386, 0x1d38c, 0x1d398, 0x1d3b0, 0x1d3be, 0x1d3ce, 0x1d3dc,
 591:../src/zxing_lib/zxing/pdf417/decoder/BitMatrixParser.cpp ****   0x1d3e2, 0x1d3e4, 0x1d3e8, 0x1d3f6, 0x1d470, 0x1d47e, 0x1d4e0,
 592:../src/zxing_lib/zxing/pdf417/decoder/BitMatrixParser.cpp ****   0x1d4fc, 0x1d5c0, 0x1d5f8, 0x1d604, 0x1d608, 0x1d610, 0x1d620,
 593:../src/zxing_lib/zxing/pdf417/decoder/BitMatrixParser.cpp ****   0x1d640, 0x1d678, 0x1d6f0, 0x1d706, 0x1d70c, 0x1d718, 0x1d730,
 594:../src/zxing_lib/zxing/pdf417/decoder/BitMatrixParser.cpp ****   0x1d73e, 0x1d760, 0x1d77c, 0x1d78e, 0x1d79c, 0x1d7b8, 0x1d7c2,
 595:../src/zxing_lib/zxing/pdf417/decoder/BitMatrixParser.cpp ****   0x1d7c4, 0x1d7c8, 0x1d7d0, 0x1d7de, 0x1d7e6, 0x1d7ec, 0x1d826,
 596:../src/zxing_lib/zxing/pdf417/decoder/BitMatrixParser.cpp ****   0x1d82c, 0x1d83a, 0x1d846, 0x1d84c, 0x1d858, 0x1d872, 0x1d874,
 597:../src/zxing_lib/zxing/pdf417/decoder/BitMatrixParser.cpp ****   0x1d886, 0x1d88c, 0x1d898, 0x1d8b0, 0x1d8be, 0x1d8ce, 0x1d8e2,
 598:../src/zxing_lib/zxing/pdf417/decoder/BitMatrixParser.cpp ****   0x1d8e4, 0x1d8e8, 0x1d8f6, 0x1d90c, 0x1d918, 0x1d930, 0x1d93e,
 599:../src/zxing_lib/zxing/pdf417/decoder/BitMatrixParser.cpp ****   0x1d960, 0x1d97c, 0x1d99c, 0x1d9c2, 0x1d9c4, 0x1d9c8, 0x1d9d0,
 600:../src/zxing_lib/zxing/pdf417/decoder/BitMatrixParser.cpp ****   0x1d9e6, 0x1d9fa, 0x1da0c, 0x1da18, 0x1da30, 0x1da3e, 0x1da60,
 601:../src/zxing_lib/zxing/pdf417/decoder/BitMatrixParser.cpp ****   0x1da7c, 0x1dac0, 0x1daf8, 0x1db38, 0x1db82, 0x1db84, 0x1db88,
 602:../src/zxing_lib/zxing/pdf417/decoder/BitMatrixParser.cpp ****   0x1db90, 0x1db9e, 0x1dba0, 0x1dbcc, 0x1dbf2, 0x1dbf4, 0x1dc22,
 603:../src/zxing_lib/zxing/pdf417/decoder/BitMatrixParser.cpp ****   0x1dc42, 0x1dc44, 0x1dc48, 0x1dc50, 0x1dc5e, 0x1dc66, 0x1dc7a,
 604:../src/zxing_lib/zxing/pdf417/decoder/BitMatrixParser.cpp ****   0x1dc82, 0x1dc84, 0x1dc88, 0x1dc90, 0x1dc9e, 0x1dca0, 0x1dcbc,
 605:../src/zxing_lib/zxing/pdf417/decoder/BitMatrixParser.cpp ****   0x1dccc, 0x1dcf2, 0x1dcf4, 0x1dd04, 0x1dd08, 0x1dd10, 0x1dd1e,
 606:../src/zxing_lib/zxing/pdf417/decoder/BitMatrixParser.cpp ****   0x1dd20, 0x1dd3c, 0x1dd40, 0x1dd78, 0x1dd86, 0x1dd98, 0x1ddce,
 607:../src/zxing_lib/zxing/pdf417/decoder/BitMatrixParser.cpp ****   0x1dde2, 0x1dde4, 0x1dde8, 0x1de2e, 0x1de32, 0x1de34, 0x1de4e,
 608:../src/zxing_lib/zxing/pdf417/decoder/BitMatrixParser.cpp ****   0x1de5c, 0x1de62, 0x1de64, 0x1de68, 0x1de8e, 0x1de9c, 0x1deb8,
 609:../src/zxing_lib/zxing/pdf417/decoder/BitMatrixParser.cpp ****   0x1dec2, 0x1dec4, 0x1dec8, 0x1ded0, 0x1dee6, 0x1defa, 0x1df16,
 610:../src/zxing_lib/zxing/pdf417/decoder/BitMatrixParser.cpp ****   0x1df26, 0x1df2c, 0x1df46, 0x1df4c, 0x1df58, 0x1df72, 0x1df74,
 611:../src/zxing_lib/zxing/pdf417/decoder/BitMatrixParser.cpp ****   0x1df8a, 0x1df92, 0x1df94, 0x1dfa2, 0x1dfa4, 0x1dfa8, 0x1e08a,
 612:../src/zxing_lib/zxing/pdf417/decoder/BitMatrixParser.cpp ****   0x1e092, 0x1e094, 0x1e0a2, 0x1e0a4, 0x1e0a8, 0x1e0b6, 0x1e0da,
 613:../src/zxing_lib/zxing/pdf417/decoder/BitMatrixParser.cpp ****   0x1e10a, 0x1e112, 0x1e114, 0x1e122, 0x1e124, 0x1e128, 0x1e136,
 614:../src/zxing_lib/zxing/pdf417/decoder/BitMatrixParser.cpp ****   0x1e142, 0x1e144, 0x1e148, 0x1e150, 0x1e166, 0x1e16c, 0x1e17a,
 615:../src/zxing_lib/zxing/pdf417/decoder/BitMatrixParser.cpp ****   0x1e19a, 0x1e1b2, 0x1e1b4, 0x1e20a, 0x1e212, 0x1e214, 0x1e222,
 616:../src/zxing_lib/zxing/pdf417/decoder/BitMatrixParser.cpp ****   0x1e224, 0x1e228, 0x1e236, 0x1e242, 0x1e248, 0x1e250, 0x1e25e,
 617:../src/zxing_lib/zxing/pdf417/decoder/BitMatrixParser.cpp ****   0x1e266, 0x1e26c, 0x1e27a, 0x1e282, 0x1e284, 0x1e288, 0x1e290,
 618:../src/zxing_lib/zxing/pdf417/decoder/BitMatrixParser.cpp ****   0x1e2a0, 0x1e2bc, 0x1e2c6, 0x1e2cc, 0x1e2d8, 0x1e2ee, 0x1e2f2,
 619:../src/zxing_lib/zxing/pdf417/decoder/BitMatrixParser.cpp ****   0x1e2f4, 0x1e31a, 0x1e332, 0x1e334, 0x1e35c, 0x1e362, 0x1e364,
 620:../src/zxing_lib/zxing/pdf417/decoder/BitMatrixParser.cpp ****   0x1e368, 0x1e3ba, 0x1e40a, 0x1e412, 0x1e414, 0x1e422, 0x1e428,
 621:../src/zxing_lib/zxing/pdf417/decoder/BitMatrixParser.cpp ****   0x1e436, 0x1e442, 0x1e448, 0x1e450, 0x1e45e, 0x1e466, 0x1e46c,
 622:../src/zxing_lib/zxing/pdf417/decoder/BitMatrixParser.cpp ****   0x1e47a, 0x1e482, 0x1e484, 0x1e490, 0x1e49e, 0x1e4a0, 0x1e4bc,
 623:../src/zxing_lib/zxing/pdf417/decoder/BitMatrixParser.cpp ****   0x1e4c6, 0x1e4cc, 0x1e4d8, 0x1e4ee, 0x1e4f2, 0x1e4f4, 0x1e502,
 624:../src/zxing_lib/zxing/pdf417/decoder/BitMatrixParser.cpp ****   0x1e504, 0x1e508, 0x1e510, 0x1e51e, 0x1e520, 0x1e53c, 0x1e540,
 625:../src/zxing_lib/zxing/pdf417/decoder/BitMatrixParser.cpp ****   0x1e578, 0x1e586, 0x1e58c, 0x1e598, 0x1e5b0, 0x1e5be, 0x1e5ce,
 626:../src/zxing_lib/zxing/pdf417/decoder/BitMatrixParser.cpp ****   0x1e5dc, 0x1e5e2, 0x1e5e4, 0x1e5e8, 0x1e5f6, 0x1e61a, 0x1e62e,
 627:../src/zxing_lib/zxing/pdf417/decoder/BitMatrixParser.cpp ****   0x1e632, 0x1e634, 0x1e64e, 0x1e65c, 0x1e662, 0x1e668, 0x1e68e,
 628:../src/zxing_lib/zxing/pdf417/decoder/BitMatrixParser.cpp ****   0x1e69c, 0x1e6b8, 0x1e6c2, 0x1e6c4, 0x1e6c8, 0x1e6d0, 0x1e6e6,
 629:../src/zxing_lib/zxing/pdf417/decoder/BitMatrixParser.cpp ****   0x1e6fa, 0x1e716, 0x1e726, 0x1e72c, 0x1e73a, 0x1e746, 0x1e74c,
 630:../src/zxing_lib/zxing/pdf417/decoder/BitMatrixParser.cpp ****   0x1e758, 0x1e772, 0x1e774, 0x1e792, 0x1e794, 0x1e7a2, 0x1e7a4,
 631:../src/zxing_lib/zxing/pdf417/decoder/BitMatrixParser.cpp ****   0x1e7a8, 0x1e7b6, 0x1e812, 0x1e814, 0x1e822, 0x1e824, 0x1e828,
 632:../src/zxing_lib/zxing/pdf417/decoder/BitMatrixParser.cpp ****   0x1e836, 0x1e842, 0x1e844, 0x1e848, 0x1e850, 0x1e85e, 0x1e866,
 633:../src/zxing_lib/zxing/pdf417/decoder/BitMatrixParser.cpp ****   0x1e86c, 0x1e87a, 0x1e882, 0x1e884, 0x1e888, 0x1e890, 0x1e89e,
 634:../src/zxing_lib/zxing/pdf417/decoder/BitMatrixParser.cpp ****   0x1e8a0, 0x1e8bc, 0x1e8c6, 0x1e8cc, 0x1e8d8, 0x1e8ee, 0x1e8f2,
 635:../src/zxing_lib/zxing/pdf417/decoder/BitMatrixParser.cpp ****   0x1e8f4, 0x1e902, 0x1e904, 0x1e908, 0x1e910, 0x1e920, 0x1e93c,
 636:../src/zxing_lib/zxing/pdf417/decoder/BitMatrixParser.cpp ****   0x1e940, 0x1e978, 0x1e986, 0x1e98c, 0x1e998, 0x1e9b0, 0x1e9be,
 637:../src/zxing_lib/zxing/pdf417/decoder/BitMatrixParser.cpp ****   0x1e9ce, 0x1e9dc, 0x1e9e2, 0x1e9e4, 0x1e9e8, 0x1e9f6, 0x1ea04,
 638:../src/zxing_lib/zxing/pdf417/decoder/BitMatrixParser.cpp ****   0x1ea08, 0x1ea10, 0x1ea20, 0x1ea40, 0x1ea78, 0x1eaf0, 0x1eb06,
 639:../src/zxing_lib/zxing/pdf417/decoder/BitMatrixParser.cpp ****   0x1eb0c, 0x1eb18, 0x1eb30, 0x1eb3e, 0x1eb60, 0x1eb7c, 0x1eb8e,
 640:../src/zxing_lib/zxing/pdf417/decoder/BitMatrixParser.cpp ****   0x1eb9c, 0x1ebb8, 0x1ebc2, 0x1ebc4, 0x1ebc8, 0x1ebd0, 0x1ebde,
 641:../src/zxing_lib/zxing/pdf417/decoder/BitMatrixParser.cpp ****   0x1ebe6, 0x1ebec, 0x1ec1a, 0x1ec2e, 0x1ec32, 0x1ec34, 0x1ec4e,
 642:../src/zxing_lib/zxing/pdf417/decoder/BitMatrixParser.cpp ****   0x1ec5c, 0x1ec62, 0x1ec64, 0x1ec68, 0x1ec8e, 0x1ec9c, 0x1ecb8,
 643:../src/zxing_lib/zxing/pdf417/decoder/BitMatrixParser.cpp ****   0x1ecc2, 0x1ecc4, 0x1ecc8, 0x1ecd0, 0x1ece6, 0x1ecfa, 0x1ed0e,
 644:../src/zxing_lib/zxing/pdf417/decoder/BitMatrixParser.cpp ****   0x1ed1c, 0x1ed38, 0x1ed70, 0x1ed7e, 0x1ed82, 0x1ed84, 0x1ed88,
 645:../src/zxing_lib/zxing/pdf417/decoder/BitMatrixParser.cpp ****   0x1ed90, 0x1ed9e, 0x1eda0, 0x1edcc, 0x1edf2, 0x1edf4, 0x1ee16,
 646:../src/zxing_lib/zxing/pdf417/decoder/BitMatrixParser.cpp ****   0x1ee26, 0x1ee2c, 0x1ee3a, 0x1ee46, 0x1ee4c, 0x1ee58, 0x1ee6e,
 647:../src/zxing_lib/zxing/pdf417/decoder/BitMatrixParser.cpp ****   0x1ee72, 0x1ee74, 0x1ee86, 0x1ee8c, 0x1ee98, 0x1eeb0, 0x1eebe,
 648:../src/zxing_lib/zxing/pdf417/decoder/BitMatrixParser.cpp ****   0x1eece, 0x1eedc, 0x1eee2, 0x1eee4, 0x1eee8, 0x1ef12, 0x1ef22,
 649:../src/zxing_lib/zxing/pdf417/decoder/BitMatrixParser.cpp ****   0x1ef24, 0x1ef28, 0x1ef36, 0x1ef42, 0x1ef44, 0x1ef48, 0x1ef50,
 650:../src/zxing_lib/zxing/pdf417/decoder/BitMatrixParser.cpp ****   0x1ef5e, 0x1ef66, 0x1ef6c, 0x1ef7a, 0x1efae, 0x1efb2, 0x1efb4,
 651:../src/zxing_lib/zxing/pdf417/decoder/BitMatrixParser.cpp ****   0x1efd6, 0x1f096, 0x1f0a6, 0x1f0ac, 0x1f0ba, 0x1f0ca, 0x1f0d2,
 652:../src/zxing_lib/zxing/pdf417/decoder/BitMatrixParser.cpp ****   0x1f0d4, 0x1f116, 0x1f126, 0x1f12c, 0x1f13a, 0x1f146, 0x1f14c,
 653:../src/zxing_lib/zxing/pdf417/decoder/BitMatrixParser.cpp ****   0x1f158, 0x1f16e, 0x1f172, 0x1f174, 0x1f18a, 0x1f192, 0x1f194,
 654:../src/zxing_lib/zxing/pdf417/decoder/BitMatrixParser.cpp ****   0x1f1a2, 0x1f1a4, 0x1f1a8, 0x1f1da, 0x1f216, 0x1f226, 0x1f22c,
 655:../src/zxing_lib/zxing/pdf417/decoder/BitMatrixParser.cpp ****   0x1f23a, 0x1f246, 0x1f258, 0x1f26e, 0x1f272, 0x1f274, 0x1f286,
 656:../src/zxing_lib/zxing/pdf417/decoder/BitMatrixParser.cpp ****   0x1f28c, 0x1f298, 0x1f2b0, 0x1f2be, 0x1f2ce, 0x1f2dc, 0x1f2e2,
 657:../src/zxing_lib/zxing/pdf417/decoder/BitMatrixParser.cpp ****   0x1f2e4, 0x1f2e8, 0x1f2f6, 0x1f30a, 0x1f312, 0x1f314, 0x1f322,
 658:../src/zxing_lib/zxing/pdf417/decoder/BitMatrixParser.cpp ****   0x1f328, 0x1f342, 0x1f344, 0x1f348, 0x1f350, 0x1f35e, 0x1f366,
 659:../src/zxing_lib/zxing/pdf417/decoder/BitMatrixParser.cpp ****   0x1f37a, 0x1f39a, 0x1f3ae, 0x1f3b2, 0x1f3b4, 0x1f416, 0x1f426,
 660:../src/zxing_lib/zxing/pdf417/decoder/BitMatrixParser.cpp ****   0x1f42c, 0x1f43a, 0x1f446, 0x1f44c, 0x1f458, 0x1f46e, 0x1f472,
 661:../src/zxing_lib/zxing/pdf417/decoder/BitMatrixParser.cpp ****   0x1f474, 0x1f486, 0x1f48c, 0x1f498, 0x1f4b0, 0x1f4be, 0x1f4ce,
 662:../src/zxing_lib/zxing/pdf417/decoder/BitMatrixParser.cpp ****   0x1f4dc, 0x1f4e2, 0x1f4e4, 0x1f4e8, 0x1f4f6, 0x1f506, 0x1f50c,
 663:../src/zxing_lib/zxing/pdf417/decoder/BitMatrixParser.cpp ****   0x1f518, 0x1f530, 0x1f53e, 0x1f560, 0x1f57c, 0x1f58e, 0x1f59c,
 664:../src/zxing_lib/zxing/pdf417/decoder/BitMatrixParser.cpp ****   0x1f5b8, 0x1f5c2, 0x1f5c4, 0x1f5c8, 0x1f5d0, 0x1f5de, 0x1f5e6,
 665:../src/zxing_lib/zxing/pdf417/decoder/BitMatrixParser.cpp ****   0x1f5ec, 0x1f5fa, 0x1f60a, 0x1f612, 0x1f614, 0x1f622, 0x1f624,
 666:../src/zxing_lib/zxing/pdf417/decoder/BitMatrixParser.cpp ****   0x1f628, 0x1f636, 0x1f642, 0x1f644, 0x1f648, 0x1f650, 0x1f65e,
 667:../src/zxing_lib/zxing/pdf417/decoder/BitMatrixParser.cpp ****   0x1f666, 0x1f67a, 0x1f682, 0x1f684, 0x1f688, 0x1f690, 0x1f69e,
 668:../src/zxing_lib/zxing/pdf417/decoder/BitMatrixParser.cpp ****   0x1f6a0, 0x1f6bc, 0x1f6cc, 0x1f6f2, 0x1f6f4, 0x1f71a, 0x1f72e,
 669:../src/zxing_lib/zxing/pdf417/decoder/BitMatrixParser.cpp ****   0x1f732, 0x1f734, 0x1f74e, 0x1f75c, 0x1f762, 0x1f764, 0x1f768,
 670:../src/zxing_lib/zxing/pdf417/decoder/BitMatrixParser.cpp ****   0x1f776, 0x1f796, 0x1f7a6, 0x1f7ac, 0x1f7ba, 0x1f7d2, 0x1f7d4,
 671:../src/zxing_lib/zxing/pdf417/decoder/BitMatrixParser.cpp ****   0x1f89a, 0x1f8ae, 0x1f8b2, 0x1f8b4, 0x1f8d6, 0x1f8ea, 0x1f91a,
 672:../src/zxing_lib/zxing/pdf417/decoder/BitMatrixParser.cpp ****   0x1f92e, 0x1f932, 0x1f934, 0x1f94e, 0x1f95c, 0x1f962, 0x1f964,
 673:../src/zxing_lib/zxing/pdf417/decoder/BitMatrixParser.cpp ****   0x1f968, 0x1f976, 0x1f996, 0x1f9a6, 0x1f9ac, 0x1f9ba, 0x1f9ca,
 674:../src/zxing_lib/zxing/pdf417/decoder/BitMatrixParser.cpp ****   0x1f9d2, 0x1f9d4, 0x1fa1a, 0x1fa2e, 0x1fa32, 0x1fa34, 0x1fa4e,
 675:../src/zxing_lib/zxing/pdf417/decoder/BitMatrixParser.cpp ****   0x1fa5c, 0x1fa62, 0x1fa64, 0x1fa68, 0x1fa76, 0x1fa8e, 0x1fa9c,
 676:../src/zxing_lib/zxing/pdf417/decoder/BitMatrixParser.cpp ****   0x1fab8, 0x1fac2, 0x1fac4, 0x1fac8, 0x1fad0, 0x1fade, 0x1fae6,
 677:../src/zxing_lib/zxing/pdf417/decoder/BitMatrixParser.cpp ****   0x1faec, 0x1fb16, 0x1fb26, 0x1fb2c, 0x1fb3a, 0x1fb46, 0x1fb4c,
 678:../src/zxing_lib/zxing/pdf417/decoder/BitMatrixParser.cpp ****   0x1fb58, 0x1fb6e, 0x1fb72, 0x1fb74, 0x1fb8a, 0x1fb92, 0x1fb94,
 679:../src/zxing_lib/zxing/pdf417/decoder/BitMatrixParser.cpp ****   0x1fba2, 0x1fba4, 0x1fba8, 0x1fbb6, 0x1fbda
 680:../src/zxing_lib/zxing/pdf417/decoder/BitMatrixParser.cpp **** };
 681:../src/zxing_lib/zxing/pdf417/decoder/BitMatrixParser.cpp **** 
 682:../src/zxing_lib/zxing/pdf417/decoder/BitMatrixParser.cpp **** const int BitMatrixParser::CODEWORD_TABLE[] =
 683:../src/zxing_lib/zxing/pdf417/decoder/BitMatrixParser.cpp **** {
 684:../src/zxing_lib/zxing/pdf417/decoder/BitMatrixParser.cpp ****   2627, 1819, 2622, 2621, 1813, 1812, 2729, 2724, 2723,
 685:../src/zxing_lib/zxing/pdf417/decoder/BitMatrixParser.cpp ****   2779, 2774, 2773,  902,  896,  908,  868,  865,  861,
 686:../src/zxing_lib/zxing/pdf417/decoder/BitMatrixParser.cpp ****   859, 2511,  873,  871, 1780,  835, 2493,  825, 2491,
 687:../src/zxing_lib/zxing/pdf417/decoder/BitMatrixParser.cpp ****   842,  837,  844, 1764, 1762,  811,  810,  809, 2483,
 688:../src/zxing_lib/zxing/pdf417/decoder/BitMatrixParser.cpp ****   807, 2482,  806, 2480,  815,  814,  813,  812, 2484,
 689:../src/zxing_lib/zxing/pdf417/decoder/BitMatrixParser.cpp ****   817,  816, 1745, 1744, 1742, 1746, 2655, 2637, 2635,
 690:../src/zxing_lib/zxing/pdf417/decoder/BitMatrixParser.cpp ****   2626, 2625, 2623, 2628, 1820, 2752, 2739, 2737, 2728,
 691:../src/zxing_lib/zxing/pdf417/decoder/BitMatrixParser.cpp ****   2727, 2725, 2730, 2785, 2783, 2778, 2777, 2775, 2780,
 692:../src/zxing_lib/zxing/pdf417/decoder/BitMatrixParser.cpp ****   787,  781,  747,  739,  736, 2413,  754,  752, 1719,
 693:../src/zxing_lib/zxing/pdf417/decoder/BitMatrixParser.cpp ****   692,  689,  681, 2371,  678, 2369,  700,  697,  694,
 694:../src/zxing_lib/zxing/pdf417/decoder/BitMatrixParser.cpp ****   703, 1688, 1686,  642,  638, 2343,  631, 2341,  627,
 695:../src/zxing_lib/zxing/pdf417/decoder/BitMatrixParser.cpp ****   2338,  651,  646,  643, 2345,  654,  652, 1652, 1650,
 696:../src/zxing_lib/zxing/pdf417/decoder/BitMatrixParser.cpp ****   1647, 1654,  601,  599, 2322,  596, 2321,  594, 2319,
 697:../src/zxing_lib/zxing/pdf417/decoder/BitMatrixParser.cpp ****   2317,  611,  610,  608,  606, 2324,  603, 2323,  615,
 698:../src/zxing_lib/zxing/pdf417/decoder/BitMatrixParser.cpp ****   614,  612, 1617, 1616, 1614, 1612,  616, 1619, 1618,
 699:../src/zxing_lib/zxing/pdf417/decoder/BitMatrixParser.cpp ****   2575, 2538, 2536,  905,  901,  898,  909, 2509, 2507,
 700:../src/zxing_lib/zxing/pdf417/decoder/BitMatrixParser.cpp ****   2504,  870,  867,  864,  860, 2512,  875,  872, 1781,
 701:../src/zxing_lib/zxing/pdf417/decoder/BitMatrixParser.cpp ****   2490, 2489, 2487, 2485, 1748,  836,  834,  832,  830,
 702:../src/zxing_lib/zxing/pdf417/decoder/BitMatrixParser.cpp ****   2494,  827, 2492,  843,  841,  839,  845, 1765, 1763,
 703:../src/zxing_lib/zxing/pdf417/decoder/BitMatrixParser.cpp ****   2701, 2676, 2674, 2653, 2648, 2656, 2634, 2633, 2631,
 704:../src/zxing_lib/zxing/pdf417/decoder/BitMatrixParser.cpp ****   2629, 1821, 2638, 2636, 2770, 2763, 2761, 2750, 2745,
 705:../src/zxing_lib/zxing/pdf417/decoder/BitMatrixParser.cpp ****   2753, 2736, 2735, 2733, 2731, 1848, 2740, 2738, 2786,
 706:../src/zxing_lib/zxing/pdf417/decoder/BitMatrixParser.cpp ****   2784,  591,  588,  576,  569,  566, 2296, 1590,  537,
 707:../src/zxing_lib/zxing/pdf417/decoder/BitMatrixParser.cpp ****   534,  526, 2276,  522, 2274,  545,  542,  539,  548,
 708:../src/zxing_lib/zxing/pdf417/decoder/BitMatrixParser.cpp ****   1572, 1570,  481, 2245,  466, 2242,  462, 2239,  492,
 709:../src/zxing_lib/zxing/pdf417/decoder/BitMatrixParser.cpp ****   485,  482, 2249,  496,  494, 1534, 1531, 1528, 1538,
 710:../src/zxing_lib/zxing/pdf417/decoder/BitMatrixParser.cpp ****   413, 2196,  406, 2191, 2188,  425,  419, 2202,  415,
 711:../src/zxing_lib/zxing/pdf417/decoder/BitMatrixParser.cpp ****   2199,  432,  430,  427, 1472, 1467, 1464,  433, 1476,
 712:../src/zxing_lib/zxing/pdf417/decoder/BitMatrixParser.cpp ****   1474,  368,  367, 2160,  365, 2159,  362, 2157, 2155,
 713:../src/zxing_lib/zxing/pdf417/decoder/BitMatrixParser.cpp ****   2152,  378,  377,  375, 2166,  372, 2165,  369, 2162,
 714:../src/zxing_lib/zxing/pdf417/decoder/BitMatrixParser.cpp ****   383,  381,  379, 2168, 1419, 1418, 1416, 1414,  385,
 715:../src/zxing_lib/zxing/pdf417/decoder/BitMatrixParser.cpp ****   1411,  384, 1423, 1422, 1420, 1424, 2461,  802, 2441,
 716:../src/zxing_lib/zxing/pdf417/decoder/BitMatrixParser.cpp ****   2439,  790,  786,  783,  794, 2409, 2406, 2403,  750,
 717:../src/zxing_lib/zxing/pdf417/decoder/BitMatrixParser.cpp ****   742,  738, 2414,  756,  753, 1720, 2367, 2365, 2362,
 718:../src/zxing_lib/zxing/pdf417/decoder/BitMatrixParser.cpp ****   2359, 1663,  693,  691,  684, 2373,  680, 2370,  702,
 719:../src/zxing_lib/zxing/pdf417/decoder/BitMatrixParser.cpp ****   699,  696,  704, 1690, 1687, 2337, 2336, 2334, 2332,
 720:../src/zxing_lib/zxing/pdf417/decoder/BitMatrixParser.cpp ****   1624, 2329, 1622,  640,  637, 2344,  634, 2342,  630,
 721:../src/zxing_lib/zxing/pdf417/decoder/BitMatrixParser.cpp ****   2340,  650,  648,  645, 2346,  655,  653, 1653, 1651,
 722:../src/zxing_lib/zxing/pdf417/decoder/BitMatrixParser.cpp ****   1649, 1655, 2612, 2597, 2595, 2571, 2568, 2565, 2576,
 723:../src/zxing_lib/zxing/pdf417/decoder/BitMatrixParser.cpp ****   2534, 2529, 2526, 1787, 2540, 2537,  907,  904,  900,
 724:../src/zxing_lib/zxing/pdf417/decoder/BitMatrixParser.cpp ****   910, 2503, 2502, 2500, 2498, 1768, 2495, 1767, 2510,
 725:../src/zxing_lib/zxing/pdf417/decoder/BitMatrixParser.cpp ****   2508, 2506,  869,  866,  863, 2513,  876,  874, 1782,
 726:../src/zxing_lib/zxing/pdf417/decoder/BitMatrixParser.cpp ****   2720, 2713, 2711, 2697, 2694, 2691, 2702, 2672, 2670,
 727:../src/zxing_lib/zxing/pdf417/decoder/BitMatrixParser.cpp ****   2664, 1828, 2678, 2675, 2647, 2646, 2644, 2642, 1823,
 728:../src/zxing_lib/zxing/pdf417/decoder/BitMatrixParser.cpp ****   2639, 1822, 2654, 2652, 2650, 2657, 2771, 1855, 2765,
 729:../src/zxing_lib/zxing/pdf417/decoder/BitMatrixParser.cpp ****   2762, 1850, 1849, 2751, 2749, 2747, 2754,  353, 2148,
 730:../src/zxing_lib/zxing/pdf417/decoder/BitMatrixParser.cpp ****   344,  342,  336, 2142,  332, 2140,  345, 1375, 1373,
 731:../src/zxing_lib/zxing/pdf417/decoder/BitMatrixParser.cpp ****   306, 2130,  299, 2128,  295, 2125,  319,  314,  311,
 732:../src/zxing_lib/zxing/pdf417/decoder/BitMatrixParser.cpp ****   2132, 1354, 1352, 1349, 1356,  262,  257, 2101,  253,
 733:../src/zxing_lib/zxing/pdf417/decoder/BitMatrixParser.cpp ****   2096, 2093,  274,  273,  267, 2107,  263, 2104,  280,
 734:../src/zxing_lib/zxing/pdf417/decoder/BitMatrixParser.cpp ****   278,  275, 1316, 1311, 1308, 1320, 1318, 2052,  202,
 735:../src/zxing_lib/zxing/pdf417/decoder/BitMatrixParser.cpp ****   2050, 2044, 2040,  219, 2063,  212, 2060,  208, 2055,
 736:../src/zxing_lib/zxing/pdf417/decoder/BitMatrixParser.cpp ****   224,  221, 2066, 1260, 1258, 1252,  231, 1248,  229,
 737:../src/zxing_lib/zxing/pdf417/decoder/BitMatrixParser.cpp ****   1266, 1264, 1261, 1268,  155, 1998,  153, 1996, 1994,
 738:../src/zxing_lib/zxing/pdf417/decoder/BitMatrixParser.cpp ****   1991, 1988,  165,  164, 2007,  162, 2006,  159, 2003,
 739:../src/zxing_lib/zxing/pdf417/decoder/BitMatrixParser.cpp ****   2000,  172,  171,  169, 2012,  166, 2010, 1186, 1184,
 740:../src/zxing_lib/zxing/pdf417/decoder/BitMatrixParser.cpp ****   1182, 1179,  175, 1176,  173, 1192, 1191, 1189, 1187,
 741:../src/zxing_lib/zxing/pdf417/decoder/BitMatrixParser.cpp ****   176, 1194, 1193, 2313, 2307, 2305,  592,  589, 2294,
 742:../src/zxing_lib/zxing/pdf417/decoder/BitMatrixParser.cpp ****   2292, 2289,  578,  572,  568, 2297,  580, 1591, 2272,
 743:../src/zxing_lib/zxing/pdf417/decoder/BitMatrixParser.cpp ****   2267, 2264, 1547,  538,  536,  529, 2278,  525, 2275,
 744:../src/zxing_lib/zxing/pdf417/decoder/BitMatrixParser.cpp ****   547,  544,  541, 1574, 1571, 2237, 2235, 2229, 1493,
 745:../src/zxing_lib/zxing/pdf417/decoder/BitMatrixParser.cpp ****   2225, 1489,  478, 2247,  470, 2244,  465, 2241,  493,
 746:../src/zxing_lib/zxing/pdf417/decoder/BitMatrixParser.cpp ****   488,  484, 2250,  498,  495, 1536, 1533, 1530, 1539,
 747:../src/zxing_lib/zxing/pdf417/decoder/BitMatrixParser.cpp ****   2187, 2186, 2184, 2182, 1432, 2179, 1430, 2176, 1427,
 748:../src/zxing_lib/zxing/pdf417/decoder/BitMatrixParser.cpp ****   414,  412, 2197,  409, 2195,  405, 2193, 2190,  426,
 749:../src/zxing_lib/zxing/pdf417/decoder/BitMatrixParser.cpp ****   424,  421, 2203,  418, 2201,  431,  429, 1473, 1471,
 750:../src/zxing_lib/zxing/pdf417/decoder/BitMatrixParser.cpp ****   1469, 1466,  434, 1477, 1475, 2478, 2472, 2470, 2459,
 751:../src/zxing_lib/zxing/pdf417/decoder/BitMatrixParser.cpp ****   2457, 2454, 2462,  803, 2437, 2432, 2429, 1726, 2443,
 752:../src/zxing_lib/zxing/pdf417/decoder/BitMatrixParser.cpp ****   2440,  792,  789,  785, 2401, 2399, 2393, 1702, 2389,
 753:../src/zxing_lib/zxing/pdf417/decoder/BitMatrixParser.cpp ****   1699, 2411, 2408, 2405,  745,  741, 2415,  758,  755,
 754:../src/zxing_lib/zxing/pdf417/decoder/BitMatrixParser.cpp ****   1721, 2358, 2357, 2355, 2353, 1661, 2350, 1660, 2347,
 755:../src/zxing_lib/zxing/pdf417/decoder/BitMatrixParser.cpp ****   1657, 2368, 2366, 2364, 2361, 1666,  690,  687, 2374,
 756:../src/zxing_lib/zxing/pdf417/decoder/BitMatrixParser.cpp ****   683, 2372,  701,  698,  705, 1691, 1689, 2619, 2617,
 757:../src/zxing_lib/zxing/pdf417/decoder/BitMatrixParser.cpp ****   2610, 2608, 2605, 2613, 2593, 2588, 2585, 1803, 2599,
 758:../src/zxing_lib/zxing/pdf417/decoder/BitMatrixParser.cpp ****   2596, 2563, 2561, 2555, 1797, 2551, 1795, 2573, 2570,
 759:../src/zxing_lib/zxing/pdf417/decoder/BitMatrixParser.cpp ****   2567, 2577, 2525, 2524, 2522, 2520, 1786, 2517, 1785,
 760:../src/zxing_lib/zxing/pdf417/decoder/BitMatrixParser.cpp ****   2514, 1783, 2535, 2533, 2531, 2528, 1788, 2541, 2539,
 761:../src/zxing_lib/zxing/pdf417/decoder/BitMatrixParser.cpp ****   906,  903,  911, 2721, 1844, 2715, 2712, 1838, 1836,
 762:../src/zxing_lib/zxing/pdf417/decoder/BitMatrixParser.cpp ****   2699, 2696, 2693, 2703, 1827, 1826, 1824, 2673, 2671,
 763:../src/zxing_lib/zxing/pdf417/decoder/BitMatrixParser.cpp ****   2669, 2666, 1829, 2679, 2677, 1858, 1857, 2772, 1854,
 764:../src/zxing_lib/zxing/pdf417/decoder/BitMatrixParser.cpp ****   1853, 1851, 1856, 2766, 2764,  143, 1987,  139, 1986,
 765:../src/zxing_lib/zxing/pdf417/decoder/BitMatrixParser.cpp ****   135,  133,  131, 1984,  128, 1983,  125, 1981,  138,
 766:../src/zxing_lib/zxing/pdf417/decoder/BitMatrixParser.cpp ****   137,  136, 1985, 1133, 1132, 1130,  112,  110, 1974,
 767:../src/zxing_lib/zxing/pdf417/decoder/BitMatrixParser.cpp ****   107, 1973,  104, 1971, 1969,  122,  121,  119,  117,
 768:../src/zxing_lib/zxing/pdf417/decoder/BitMatrixParser.cpp ****   1977,  114, 1976,  124, 1115, 1114, 1112, 1110, 1117,
 769:../src/zxing_lib/zxing/pdf417/decoder/BitMatrixParser.cpp ****   1116,   84,   83, 1953,   81, 1952,   78, 1950, 1948,
 770:../src/zxing_lib/zxing/pdf417/decoder/BitMatrixParser.cpp ****   1945,   94,   93,   91, 1959,   88, 1958,   85, 1955,
 771:../src/zxing_lib/zxing/pdf417/decoder/BitMatrixParser.cpp ****   99,   97,   95, 1961, 1086, 1085, 1083, 1081, 1078,
 772:../src/zxing_lib/zxing/pdf417/decoder/BitMatrixParser.cpp ****   100, 1090, 1089, 1087, 1091,   49,   47, 1917,   44,
 773:../src/zxing_lib/zxing/pdf417/decoder/BitMatrixParser.cpp ****   1915, 1913, 1910, 1907,   59, 1926,   56, 1925,   53,
 774:../src/zxing_lib/zxing/pdf417/decoder/BitMatrixParser.cpp ****   1922, 1919,   66,   64, 1931,   61, 1929, 1042, 1040,
 775:../src/zxing_lib/zxing/pdf417/decoder/BitMatrixParser.cpp ****   1038,   71, 1035,   70, 1032,   68, 1048, 1047, 1045,
 776:../src/zxing_lib/zxing/pdf417/decoder/BitMatrixParser.cpp ****   1043, 1050, 1049,   12,   10, 1869, 1867, 1864, 1861,
 777:../src/zxing_lib/zxing/pdf417/decoder/BitMatrixParser.cpp ****   21, 1880,   19, 1877, 1874, 1871,   28, 1888,   25,
 778:../src/zxing_lib/zxing/pdf417/decoder/BitMatrixParser.cpp ****   1886,   22, 1883,  982,  980,  977,  974,   32,   30,
 779:../src/zxing_lib/zxing/pdf417/decoder/BitMatrixParser.cpp ****   991,  989,  987,  984,   34,  995,  994,  992, 2151,
 780:../src/zxing_lib/zxing/pdf417/decoder/BitMatrixParser.cpp ****   2150, 2147, 2146, 2144,  356,  355,  354, 2149, 2139,
 781:../src/zxing_lib/zxing/pdf417/decoder/BitMatrixParser.cpp ****   2138, 2136, 2134, 1359,  343,  341,  338, 2143,  335,
 782:../src/zxing_lib/zxing/pdf417/decoder/BitMatrixParser.cpp ****   2141,  348,  347,  346, 1376, 1374, 2124, 2123, 2121,
 783:../src/zxing_lib/zxing/pdf417/decoder/BitMatrixParser.cpp ****   2119, 1326, 2116, 1324,  310,  308,  305, 2131,  302,
 784:../src/zxing_lib/zxing/pdf417/decoder/BitMatrixParser.cpp ****   2129,  298, 2127,  320,  318,  316,  313, 2133,  322,
 785:../src/zxing_lib/zxing/pdf417/decoder/BitMatrixParser.cpp ****   321, 1355, 1353, 1351, 1357, 2092, 2091, 2089, 2087,
 786:../src/zxing_lib/zxing/pdf417/decoder/BitMatrixParser.cpp ****   1276, 2084, 1274, 2081, 1271,  259, 2102,  256, 2100,
 787:../src/zxing_lib/zxing/pdf417/decoder/BitMatrixParser.cpp ****   252, 2098, 2095,  272,  269, 2108,  266, 2106,  281,
 788:../src/zxing_lib/zxing/pdf417/decoder/BitMatrixParser.cpp ****   279,  277, 1317, 1315, 1313, 1310,  282, 1321, 1319,
 789:../src/zxing_lib/zxing/pdf417/decoder/BitMatrixParser.cpp ****   2039, 2037, 2035, 2032, 1203, 2029, 1200, 1197,  207,
 790:../src/zxing_lib/zxing/pdf417/decoder/BitMatrixParser.cpp ****   2053,  205, 2051,  201, 2049, 2046, 2043,  220,  218,
 791:../src/zxing_lib/zxing/pdf417/decoder/BitMatrixParser.cpp ****   2064,  215, 2062,  211, 2059,  228,  226,  223, 2069,
 792:../src/zxing_lib/zxing/pdf417/decoder/BitMatrixParser.cpp ****   1259, 1257, 1254,  232, 1251,  230, 1267, 1265, 1263,
 793:../src/zxing_lib/zxing/pdf417/decoder/BitMatrixParser.cpp ****   2316, 2315, 2312, 2311, 2309, 2314, 2304, 2303, 2301,
 794:../src/zxing_lib/zxing/pdf417/decoder/BitMatrixParser.cpp ****   2299, 1593, 2308, 2306,  590, 2288, 2287, 2285, 2283,
 795:../src/zxing_lib/zxing/pdf417/decoder/BitMatrixParser.cpp ****   1578, 2280, 1577, 2295, 2293, 2291,  579,  577,  574,
 796:../src/zxing_lib/zxing/pdf417/decoder/BitMatrixParser.cpp ****   571, 2298,  582,  581, 1592, 2263, 2262, 2260, 2258,
 797:../src/zxing_lib/zxing/pdf417/decoder/BitMatrixParser.cpp ****   1545, 2255, 1544, 2252, 1541, 2273, 2271, 2269, 2266,
 798:../src/zxing_lib/zxing/pdf417/decoder/BitMatrixParser.cpp ****   1550,  535,  532, 2279,  528, 2277,  546,  543,  549,
 799:../src/zxing_lib/zxing/pdf417/decoder/BitMatrixParser.cpp ****   1575, 1573, 2224, 2222, 2220, 1486, 2217, 1485, 2214,
 800:../src/zxing_lib/zxing/pdf417/decoder/BitMatrixParser.cpp ****   1482, 1479, 2238, 2236, 2234, 2231, 1496, 2228, 1492,
 801:../src/zxing_lib/zxing/pdf417/decoder/BitMatrixParser.cpp ****   480,  477, 2248,  473, 2246,  469, 2243,  490,  487,
 802:../src/zxing_lib/zxing/pdf417/decoder/BitMatrixParser.cpp ****   2251,  497, 1537, 1535, 1532, 2477, 2476, 2474, 2479,
 803:../src/zxing_lib/zxing/pdf417/decoder/BitMatrixParser.cpp ****   2469, 2468, 2466, 2464, 1730, 2473, 2471, 2453, 2452,
 804:../src/zxing_lib/zxing/pdf417/decoder/BitMatrixParser.cpp ****   2450, 2448, 1729, 2445, 1728, 2460, 2458, 2456, 2463,
 805:../src/zxing_lib/zxing/pdf417/decoder/BitMatrixParser.cpp ****   805,  804, 2428, 2427, 2425, 2423, 1725, 2420, 1724,
