   1              		.cpu cortex-a9
   2              		.eabi_attribute 28, 1
   3              		.eabi_attribute 20, 1
   4              		.eabi_attribute 21, 1
   5              		.eabi_attribute 23, 3
   6              		.eabi_attribute 24, 1
   7              		.eabi_attribute 25, 1
   8              		.eabi_attribute 26, 1
   9              		.eabi_attribute 30, 1
  10              		.eabi_attribute 34, 0
  11              		.eabi_attribute 18, 4
  12              		.file	"Code93Reader.cpp"
  13              		.text
  14              	.Ltext0:
  15              		.cfi_sections	.debug_frame
  16              		.section	.text._ZNK5zxing9Exception4whatEv,"axG",%progbits,_ZNK5zxing9Exception4whatEv,comdat
  17              		.align	2
  18              		.weak	_ZNK5zxing9Exception4whatEv
  19              		.syntax unified
  20              		.arm
  21              		.fpu neon
  23              	_ZNK5zxing9Exception4whatEv:
  24              		.fnstart
  25              	.LFB1871:
  26              		.file 1 "/home/zkmike/workspace/RZA2M/rza2m_2d_barcode_sample_freertos_gcc/src/zxing_lib/zxing/Exc
   1:/home/zkmike/workspace/RZA2M/rza2m_2d_barcode_sample_freertos_gcc/src/zxing_lib/zxing/Exception.h **** // -*- mode:c++; tab-width:2; indent-tabs-mode:nil; c-basic-offset:2 -*-
   2:/home/zkmike/workspace/RZA2M/rza2m_2d_barcode_sample_freertos_gcc/src/zxing_lib/zxing/Exception.h **** #ifndef __EXCEPTION_H__
   3:/home/zkmike/workspace/RZA2M/rza2m_2d_barcode_sample_freertos_gcc/src/zxing_lib/zxing/Exception.h **** #define __EXCEPTION_H__
   4:/home/zkmike/workspace/RZA2M/rza2m_2d_barcode_sample_freertos_gcc/src/zxing_lib/zxing/Exception.h **** 
   5:/home/zkmike/workspace/RZA2M/rza2m_2d_barcode_sample_freertos_gcc/src/zxing_lib/zxing/Exception.h **** /*
   6:/home/zkmike/workspace/RZA2M/rza2m_2d_barcode_sample_freertos_gcc/src/zxing_lib/zxing/Exception.h ****  *  Exception.h
   7:/home/zkmike/workspace/RZA2M/rza2m_2d_barcode_sample_freertos_gcc/src/zxing_lib/zxing/Exception.h ****  *  ZXing
   8:/home/zkmike/workspace/RZA2M/rza2m_2d_barcode_sample_freertos_gcc/src/zxing_lib/zxing/Exception.h ****  *
   9:/home/zkmike/workspace/RZA2M/rza2m_2d_barcode_sample_freertos_gcc/src/zxing_lib/zxing/Exception.h ****  *  Copyright 2010 ZXing authors All rights reserved.
  10:/home/zkmike/workspace/RZA2M/rza2m_2d_barcode_sample_freertos_gcc/src/zxing_lib/zxing/Exception.h ****  *
  11:/home/zkmike/workspace/RZA2M/rza2m_2d_barcode_sample_freertos_gcc/src/zxing_lib/zxing/Exception.h ****  * Licensed under the Apache License, Version 2.0 (the "License");
  12:/home/zkmike/workspace/RZA2M/rza2m_2d_barcode_sample_freertos_gcc/src/zxing_lib/zxing/Exception.h ****  * you may not use this file except in compliance with the License.
  13:/home/zkmike/workspace/RZA2M/rza2m_2d_barcode_sample_freertos_gcc/src/zxing_lib/zxing/Exception.h ****  * You may obtain a copy of the License at
  14:/home/zkmike/workspace/RZA2M/rza2m_2d_barcode_sample_freertos_gcc/src/zxing_lib/zxing/Exception.h ****  *
  15:/home/zkmike/workspace/RZA2M/rza2m_2d_barcode_sample_freertos_gcc/src/zxing_lib/zxing/Exception.h ****  *      http://www.apache.org/licenses/LICENSE-2.0
  16:/home/zkmike/workspace/RZA2M/rza2m_2d_barcode_sample_freertos_gcc/src/zxing_lib/zxing/Exception.h ****  *
  17:/home/zkmike/workspace/RZA2M/rza2m_2d_barcode_sample_freertos_gcc/src/zxing_lib/zxing/Exception.h ****  * Unless required by applicable law or agreed to in writing, software
  18:/home/zkmike/workspace/RZA2M/rza2m_2d_barcode_sample_freertos_gcc/src/zxing_lib/zxing/Exception.h ****  * distributed under the License is distributed on an "AS IS" BASIS,
  19:/home/zkmike/workspace/RZA2M/rza2m_2d_barcode_sample_freertos_gcc/src/zxing_lib/zxing/Exception.h ****  * WITHOUT WARRANTIES OR CONDITIONS OF ANY KIND, either express or implied.
  20:/home/zkmike/workspace/RZA2M/rza2m_2d_barcode_sample_freertos_gcc/src/zxing_lib/zxing/Exception.h ****  * See the License for the specific language governing permissions and
  21:/home/zkmike/workspace/RZA2M/rza2m_2d_barcode_sample_freertos_gcc/src/zxing_lib/zxing/Exception.h ****  * limitations under the License.
  22:/home/zkmike/workspace/RZA2M/rza2m_2d_barcode_sample_freertos_gcc/src/zxing_lib/zxing/Exception.h ****  */
  23:/home/zkmike/workspace/RZA2M/rza2m_2d_barcode_sample_freertos_gcc/src/zxing_lib/zxing/Exception.h **** 
  24:/home/zkmike/workspace/RZA2M/rza2m_2d_barcode_sample_freertos_gcc/src/zxing_lib/zxing/Exception.h **** #include <string>
  25:/home/zkmike/workspace/RZA2M/rza2m_2d_barcode_sample_freertos_gcc/src/zxing_lib/zxing/Exception.h **** #include <exception>
  26:/home/zkmike/workspace/RZA2M/rza2m_2d_barcode_sample_freertos_gcc/src/zxing_lib/zxing/Exception.h **** 
  27:/home/zkmike/workspace/RZA2M/rza2m_2d_barcode_sample_freertos_gcc/src/zxing_lib/zxing/Exception.h **** namespace zxing {
  28:/home/zkmike/workspace/RZA2M/rza2m_2d_barcode_sample_freertos_gcc/src/zxing_lib/zxing/Exception.h **** 
  29:/home/zkmike/workspace/RZA2M/rza2m_2d_barcode_sample_freertos_gcc/src/zxing_lib/zxing/Exception.h **** class Exception : public std::exception {
  30:/home/zkmike/workspace/RZA2M/rza2m_2d_barcode_sample_freertos_gcc/src/zxing_lib/zxing/Exception.h **** private:
  31:/home/zkmike/workspace/RZA2M/rza2m_2d_barcode_sample_freertos_gcc/src/zxing_lib/zxing/Exception.h ****   char const* const message;
  32:/home/zkmike/workspace/RZA2M/rza2m_2d_barcode_sample_freertos_gcc/src/zxing_lib/zxing/Exception.h **** 
  33:/home/zkmike/workspace/RZA2M/rza2m_2d_barcode_sample_freertos_gcc/src/zxing_lib/zxing/Exception.h **** public:
  34:/home/zkmike/workspace/RZA2M/rza2m_2d_barcode_sample_freertos_gcc/src/zxing_lib/zxing/Exception.h ****   Exception() throw() : message(0) {}
  35:/home/zkmike/workspace/RZA2M/rza2m_2d_barcode_sample_freertos_gcc/src/zxing_lib/zxing/Exception.h ****   Exception(const char* msg) throw() : message(copy(msg)) {}
  36:/home/zkmike/workspace/RZA2M/rza2m_2d_barcode_sample_freertos_gcc/src/zxing_lib/zxing/Exception.h ****   Exception(Exception const& that) throw() : std::exception(that), message(copy(that.message)) {}
  37:/home/zkmike/workspace/RZA2M/rza2m_2d_barcode_sample_freertos_gcc/src/zxing_lib/zxing/Exception.h ****   ~Exception() throw() {
  38:/home/zkmike/workspace/RZA2M/rza2m_2d_barcode_sample_freertos_gcc/src/zxing_lib/zxing/Exception.h ****     if(message) {
  39:/home/zkmike/workspace/RZA2M/rza2m_2d_barcode_sample_freertos_gcc/src/zxing_lib/zxing/Exception.h ****       deleteMessage();
  40:/home/zkmike/workspace/RZA2M/rza2m_2d_barcode_sample_freertos_gcc/src/zxing_lib/zxing/Exception.h ****     }
  41:/home/zkmike/workspace/RZA2M/rza2m_2d_barcode_sample_freertos_gcc/src/zxing_lib/zxing/Exception.h ****   }
  42:/home/zkmike/workspace/RZA2M/rza2m_2d_barcode_sample_freertos_gcc/src/zxing_lib/zxing/Exception.h ****   char const* what() const throw() {return message ? message : "";}
  27              		.loc 1 42 0
  28              		.cfi_startproc
  29              		@ args = 0, pretend = 0, frame = 0
  30              		@ frame_needed = 0, uses_anonymous_args = 0
  31              		@ link register save eliminated.
  32              	.LVL0:
  33              		.loc 1 42 0
  34 0000 040090E5 		ldr	r0, [r0, #4]
  35              	.LVL1:
  36 0004 000050E3 		cmp	r0, #0
  37 0008 1EFF2F11 		bxne	lr
  38 000c 000000E3 		movw	r0, #:lower16:.LC0
  39 0010 000040E3 		movt	r0, #:upper16:.LC0
  40 0014 1EFF2FE1 		bx	lr
  41              		.cfi_endproc
  42              	.LFE1871:
  43              		.cantunwind
  44              		.fnend
  46              		.section	.text._ZN5zxing8ArrayRefINS_3RefINS_11ResultPointEEEED2Ev,"axG",%progbits,_ZN5zxing8Array
  47              		.align	2
  48              		.weak	_ZN5zxing8ArrayRefINS_3RefINS_11ResultPointEEEED2Ev
  49              		.syntax unified
  50              		.arm
  51              		.fpu neon
  53              	_ZN5zxing8ArrayRefINS_3RefINS_11ResultPointEEEED2Ev:
  54              		.fnstart
  55              	.LFB2549:
  56              		.file 2 "/home/zkmike/workspace/RZA2M/rza2m_2d_barcode_sample_freertos_gcc/src/zxing_lib/zxing/com
   1:/home/zkmike/workspace/RZA2M/rza2m_2d_barcode_sample_freertos_gcc/src/zxing_lib/zxing/common/Array.h **** // -*- mode:c++; tab-width:2; indent-tabs-mode:nil; c-basic-offset:2 -*-
   2:/home/zkmike/workspace/RZA2M/rza2m_2d_barcode_sample_freertos_gcc/src/zxing_lib/zxing/common/Array.h **** #ifndef __ARRAY_H__
   3:/home/zkmike/workspace/RZA2M/rza2m_2d_barcode_sample_freertos_gcc/src/zxing_lib/zxing/common/Array.h **** #define __ARRAY_H__
   4:/home/zkmike/workspace/RZA2M/rza2m_2d_barcode_sample_freertos_gcc/src/zxing_lib/zxing/common/Array.h **** 
   5:/home/zkmike/workspace/RZA2M/rza2m_2d_barcode_sample_freertos_gcc/src/zxing_lib/zxing/common/Array.h **** /*
   6:/home/zkmike/workspace/RZA2M/rza2m_2d_barcode_sample_freertos_gcc/src/zxing_lib/zxing/common/Array.h ****  *  Array.h
   7:/home/zkmike/workspace/RZA2M/rza2m_2d_barcode_sample_freertos_gcc/src/zxing_lib/zxing/common/Array.h ****  *  zxing
   8:/home/zkmike/workspace/RZA2M/rza2m_2d_barcode_sample_freertos_gcc/src/zxing_lib/zxing/common/Array.h ****  *
   9:/home/zkmike/workspace/RZA2M/rza2m_2d_barcode_sample_freertos_gcc/src/zxing_lib/zxing/common/Array.h ****  *  Copyright 2010 ZXing authors All rights reserved.
  10:/home/zkmike/workspace/RZA2M/rza2m_2d_barcode_sample_freertos_gcc/src/zxing_lib/zxing/common/Array.h ****  *
  11:/home/zkmike/workspace/RZA2M/rza2m_2d_barcode_sample_freertos_gcc/src/zxing_lib/zxing/common/Array.h ****  * Licensed under the Apache License, Version 2.0 (the "License");
  12:/home/zkmike/workspace/RZA2M/rza2m_2d_barcode_sample_freertos_gcc/src/zxing_lib/zxing/common/Array.h ****  * you may not use this file except in compliance with the License.
  13:/home/zkmike/workspace/RZA2M/rza2m_2d_barcode_sample_freertos_gcc/src/zxing_lib/zxing/common/Array.h ****  * You may obtain a copy of the License at
  14:/home/zkmike/workspace/RZA2M/rza2m_2d_barcode_sample_freertos_gcc/src/zxing_lib/zxing/common/Array.h ****  *
  15:/home/zkmike/workspace/RZA2M/rza2m_2d_barcode_sample_freertos_gcc/src/zxing_lib/zxing/common/Array.h ****  *      http://www.apache.org/licenses/LICENSE-2.0
  16:/home/zkmike/workspace/RZA2M/rza2m_2d_barcode_sample_freertos_gcc/src/zxing_lib/zxing/common/Array.h ****  *
  17:/home/zkmike/workspace/RZA2M/rza2m_2d_barcode_sample_freertos_gcc/src/zxing_lib/zxing/common/Array.h ****  * Unless required by applicable law or agreed to in writing, software
  18:/home/zkmike/workspace/RZA2M/rza2m_2d_barcode_sample_freertos_gcc/src/zxing_lib/zxing/common/Array.h ****  * distributed under the License is distributed on an "AS IS" BASIS,
  19:/home/zkmike/workspace/RZA2M/rza2m_2d_barcode_sample_freertos_gcc/src/zxing_lib/zxing/common/Array.h ****  * WITHOUT WARRANTIES OR CONDITIONS OF ANY KIND, either express or implied.
  20:/home/zkmike/workspace/RZA2M/rza2m_2d_barcode_sample_freertos_gcc/src/zxing_lib/zxing/common/Array.h ****  * See the License for the specific language governing permissions and
  21:/home/zkmike/workspace/RZA2M/rza2m_2d_barcode_sample_freertos_gcc/src/zxing_lib/zxing/common/Array.h ****  * limitations under the License.
  22:/home/zkmike/workspace/RZA2M/rza2m_2d_barcode_sample_freertos_gcc/src/zxing_lib/zxing/common/Array.h ****  */
  23:/home/zkmike/workspace/RZA2M/rza2m_2d_barcode_sample_freertos_gcc/src/zxing_lib/zxing/common/Array.h **** 
  24:/home/zkmike/workspace/RZA2M/rza2m_2d_barcode_sample_freertos_gcc/src/zxing_lib/zxing/common/Array.h **** #include <vector>
  25:/home/zkmike/workspace/RZA2M/rza2m_2d_barcode_sample_freertos_gcc/src/zxing_lib/zxing/common/Array.h **** 
  26:/home/zkmike/workspace/RZA2M/rza2m_2d_barcode_sample_freertos_gcc/src/zxing_lib/zxing/common/Array.h **** #include <zxing/common/Counted.h>
  27:/home/zkmike/workspace/RZA2M/rza2m_2d_barcode_sample_freertos_gcc/src/zxing_lib/zxing/common/Array.h **** 
  28:/home/zkmike/workspace/RZA2M/rza2m_2d_barcode_sample_freertos_gcc/src/zxing_lib/zxing/common/Array.h **** namespace zxing {
  29:/home/zkmike/workspace/RZA2M/rza2m_2d_barcode_sample_freertos_gcc/src/zxing_lib/zxing/common/Array.h **** 
  30:/home/zkmike/workspace/RZA2M/rza2m_2d_barcode_sample_freertos_gcc/src/zxing_lib/zxing/common/Array.h **** template<typename T> class Array : public Counted {
  31:/home/zkmike/workspace/RZA2M/rza2m_2d_barcode_sample_freertos_gcc/src/zxing_lib/zxing/common/Array.h **** protected:
  32:/home/zkmike/workspace/RZA2M/rza2m_2d_barcode_sample_freertos_gcc/src/zxing_lib/zxing/common/Array.h **** public:
  33:/home/zkmike/workspace/RZA2M/rza2m_2d_barcode_sample_freertos_gcc/src/zxing_lib/zxing/common/Array.h ****   std::vector<T> values_;
  34:/home/zkmike/workspace/RZA2M/rza2m_2d_barcode_sample_freertos_gcc/src/zxing_lib/zxing/common/Array.h ****   Array() {}
  35:/home/zkmike/workspace/RZA2M/rza2m_2d_barcode_sample_freertos_gcc/src/zxing_lib/zxing/common/Array.h ****   Array(int n) :
  36:/home/zkmike/workspace/RZA2M/rza2m_2d_barcode_sample_freertos_gcc/src/zxing_lib/zxing/common/Array.h ****       Counted(), values_(n, T()) {
  37:/home/zkmike/workspace/RZA2M/rza2m_2d_barcode_sample_freertos_gcc/src/zxing_lib/zxing/common/Array.h ****   }
  38:/home/zkmike/workspace/RZA2M/rza2m_2d_barcode_sample_freertos_gcc/src/zxing_lib/zxing/common/Array.h ****   Array(T const* ts, int n) :
  39:/home/zkmike/workspace/RZA2M/rza2m_2d_barcode_sample_freertos_gcc/src/zxing_lib/zxing/common/Array.h ****       Counted(), values_(ts, ts+n) {
  40:/home/zkmike/workspace/RZA2M/rza2m_2d_barcode_sample_freertos_gcc/src/zxing_lib/zxing/common/Array.h ****   }
  41:/home/zkmike/workspace/RZA2M/rza2m_2d_barcode_sample_freertos_gcc/src/zxing_lib/zxing/common/Array.h ****   Array(T const* ts, T const* te) :
  42:/home/zkmike/workspace/RZA2M/rza2m_2d_barcode_sample_freertos_gcc/src/zxing_lib/zxing/common/Array.h ****       Counted(), values_(ts, te) {
  43:/home/zkmike/workspace/RZA2M/rza2m_2d_barcode_sample_freertos_gcc/src/zxing_lib/zxing/common/Array.h ****   }
  44:/home/zkmike/workspace/RZA2M/rza2m_2d_barcode_sample_freertos_gcc/src/zxing_lib/zxing/common/Array.h ****   Array(T v, int n) :
  45:/home/zkmike/workspace/RZA2M/rza2m_2d_barcode_sample_freertos_gcc/src/zxing_lib/zxing/common/Array.h ****       Counted(), values_(n, v) {
  46:/home/zkmike/workspace/RZA2M/rza2m_2d_barcode_sample_freertos_gcc/src/zxing_lib/zxing/common/Array.h ****   }
  47:/home/zkmike/workspace/RZA2M/rza2m_2d_barcode_sample_freertos_gcc/src/zxing_lib/zxing/common/Array.h ****   Array(std::vector<T> &v) :
  48:/home/zkmike/workspace/RZA2M/rza2m_2d_barcode_sample_freertos_gcc/src/zxing_lib/zxing/common/Array.h ****       Counted(), values_(v) {
  49:/home/zkmike/workspace/RZA2M/rza2m_2d_barcode_sample_freertos_gcc/src/zxing_lib/zxing/common/Array.h ****   }
  50:/home/zkmike/workspace/RZA2M/rza2m_2d_barcode_sample_freertos_gcc/src/zxing_lib/zxing/common/Array.h ****   Array(Array<T> &other) :
  51:/home/zkmike/workspace/RZA2M/rza2m_2d_barcode_sample_freertos_gcc/src/zxing_lib/zxing/common/Array.h ****       Counted(), values_(other.values_) {
  52:/home/zkmike/workspace/RZA2M/rza2m_2d_barcode_sample_freertos_gcc/src/zxing_lib/zxing/common/Array.h ****   }
  53:/home/zkmike/workspace/RZA2M/rza2m_2d_barcode_sample_freertos_gcc/src/zxing_lib/zxing/common/Array.h ****   Array(Array<T> *other) :
  54:/home/zkmike/workspace/RZA2M/rza2m_2d_barcode_sample_freertos_gcc/src/zxing_lib/zxing/common/Array.h ****       Counted(), values_(other->values_) {
  55:/home/zkmike/workspace/RZA2M/rza2m_2d_barcode_sample_freertos_gcc/src/zxing_lib/zxing/common/Array.h ****   }
  56:/home/zkmike/workspace/RZA2M/rza2m_2d_barcode_sample_freertos_gcc/src/zxing_lib/zxing/common/Array.h ****   virtual ~Array() {
  57:/home/zkmike/workspace/RZA2M/rza2m_2d_barcode_sample_freertos_gcc/src/zxing_lib/zxing/common/Array.h ****   }
  58:/home/zkmike/workspace/RZA2M/rza2m_2d_barcode_sample_freertos_gcc/src/zxing_lib/zxing/common/Array.h ****   Array<T>& operator=(const Array<T> &other) {
  59:/home/zkmike/workspace/RZA2M/rza2m_2d_barcode_sample_freertos_gcc/src/zxing_lib/zxing/common/Array.h ****     values_ = other.values_;
  60:/home/zkmike/workspace/RZA2M/rza2m_2d_barcode_sample_freertos_gcc/src/zxing_lib/zxing/common/Array.h ****     return *this;
  61:/home/zkmike/workspace/RZA2M/rza2m_2d_barcode_sample_freertos_gcc/src/zxing_lib/zxing/common/Array.h ****   }
  62:/home/zkmike/workspace/RZA2M/rza2m_2d_barcode_sample_freertos_gcc/src/zxing_lib/zxing/common/Array.h ****   Array<T>& operator=(const std::vector<T> &array) {
  63:/home/zkmike/workspace/RZA2M/rza2m_2d_barcode_sample_freertos_gcc/src/zxing_lib/zxing/common/Array.h ****     values_ = array;
  64:/home/zkmike/workspace/RZA2M/rza2m_2d_barcode_sample_freertos_gcc/src/zxing_lib/zxing/common/Array.h ****     return *this;
  65:/home/zkmike/workspace/RZA2M/rza2m_2d_barcode_sample_freertos_gcc/src/zxing_lib/zxing/common/Array.h ****   }
  66:/home/zkmike/workspace/RZA2M/rza2m_2d_barcode_sample_freertos_gcc/src/zxing_lib/zxing/common/Array.h ****   T const& operator[](int i) const {
  67:/home/zkmike/workspace/RZA2M/rza2m_2d_barcode_sample_freertos_gcc/src/zxing_lib/zxing/common/Array.h ****     return values_[i];
  68:/home/zkmike/workspace/RZA2M/rza2m_2d_barcode_sample_freertos_gcc/src/zxing_lib/zxing/common/Array.h ****   }
  69:/home/zkmike/workspace/RZA2M/rza2m_2d_barcode_sample_freertos_gcc/src/zxing_lib/zxing/common/Array.h ****   T& operator[](int i) {
  70:/home/zkmike/workspace/RZA2M/rza2m_2d_barcode_sample_freertos_gcc/src/zxing_lib/zxing/common/Array.h ****     return values_[i];
  71:/home/zkmike/workspace/RZA2M/rza2m_2d_barcode_sample_freertos_gcc/src/zxing_lib/zxing/common/Array.h ****   }
  72:/home/zkmike/workspace/RZA2M/rza2m_2d_barcode_sample_freertos_gcc/src/zxing_lib/zxing/common/Array.h ****   int size() const {
  73:/home/zkmike/workspace/RZA2M/rza2m_2d_barcode_sample_freertos_gcc/src/zxing_lib/zxing/common/Array.h ****     return values_.size();
  74:/home/zkmike/workspace/RZA2M/rza2m_2d_barcode_sample_freertos_gcc/src/zxing_lib/zxing/common/Array.h ****   }
  75:/home/zkmike/workspace/RZA2M/rza2m_2d_barcode_sample_freertos_gcc/src/zxing_lib/zxing/common/Array.h ****   bool empty() const {
  76:/home/zkmike/workspace/RZA2M/rza2m_2d_barcode_sample_freertos_gcc/src/zxing_lib/zxing/common/Array.h ****     return values_.size() == 0;
  77:/home/zkmike/workspace/RZA2M/rza2m_2d_barcode_sample_freertos_gcc/src/zxing_lib/zxing/common/Array.h ****   }
  78:/home/zkmike/workspace/RZA2M/rza2m_2d_barcode_sample_freertos_gcc/src/zxing_lib/zxing/common/Array.h ****   std::vector<T> const& values() const {
  79:/home/zkmike/workspace/RZA2M/rza2m_2d_barcode_sample_freertos_gcc/src/zxing_lib/zxing/common/Array.h ****     return values_;
  80:/home/zkmike/workspace/RZA2M/rza2m_2d_barcode_sample_freertos_gcc/src/zxing_lib/zxing/common/Array.h ****   }
  81:/home/zkmike/workspace/RZA2M/rza2m_2d_barcode_sample_freertos_gcc/src/zxing_lib/zxing/common/Array.h ****   std::vector<T>& values() {
  82:/home/zkmike/workspace/RZA2M/rza2m_2d_barcode_sample_freertos_gcc/src/zxing_lib/zxing/common/Array.h ****     return values_;
  83:/home/zkmike/workspace/RZA2M/rza2m_2d_barcode_sample_freertos_gcc/src/zxing_lib/zxing/common/Array.h ****   }
  84:/home/zkmike/workspace/RZA2M/rza2m_2d_barcode_sample_freertos_gcc/src/zxing_lib/zxing/common/Array.h **** };
  85:/home/zkmike/workspace/RZA2M/rza2m_2d_barcode_sample_freertos_gcc/src/zxing_lib/zxing/common/Array.h **** 
  86:/home/zkmike/workspace/RZA2M/rza2m_2d_barcode_sample_freertos_gcc/src/zxing_lib/zxing/common/Array.h **** template<typename T> class ArrayRef : public Counted {
  87:/home/zkmike/workspace/RZA2M/rza2m_2d_barcode_sample_freertos_gcc/src/zxing_lib/zxing/common/Array.h **** private:
  88:/home/zkmike/workspace/RZA2M/rza2m_2d_barcode_sample_freertos_gcc/src/zxing_lib/zxing/common/Array.h **** public:
  89:/home/zkmike/workspace/RZA2M/rza2m_2d_barcode_sample_freertos_gcc/src/zxing_lib/zxing/common/Array.h ****   Array<T> *array_;
  90:/home/zkmike/workspace/RZA2M/rza2m_2d_barcode_sample_freertos_gcc/src/zxing_lib/zxing/common/Array.h ****   ArrayRef() :
  91:/home/zkmike/workspace/RZA2M/rza2m_2d_barcode_sample_freertos_gcc/src/zxing_lib/zxing/common/Array.h ****       array_(0) {
  92:/home/zkmike/workspace/RZA2M/rza2m_2d_barcode_sample_freertos_gcc/src/zxing_lib/zxing/common/Array.h ****   }
  93:/home/zkmike/workspace/RZA2M/rza2m_2d_barcode_sample_freertos_gcc/src/zxing_lib/zxing/common/Array.h ****   explicit ArrayRef(int n) :
  94:/home/zkmike/workspace/RZA2M/rza2m_2d_barcode_sample_freertos_gcc/src/zxing_lib/zxing/common/Array.h ****       array_(0) {
  95:/home/zkmike/workspace/RZA2M/rza2m_2d_barcode_sample_freertos_gcc/src/zxing_lib/zxing/common/Array.h ****     reset(new Array<T> (n));
  96:/home/zkmike/workspace/RZA2M/rza2m_2d_barcode_sample_freertos_gcc/src/zxing_lib/zxing/common/Array.h ****   }
  97:/home/zkmike/workspace/RZA2M/rza2m_2d_barcode_sample_freertos_gcc/src/zxing_lib/zxing/common/Array.h ****   ArrayRef(T *ts, int n) :
  98:/home/zkmike/workspace/RZA2M/rza2m_2d_barcode_sample_freertos_gcc/src/zxing_lib/zxing/common/Array.h ****       array_(0) {
  99:/home/zkmike/workspace/RZA2M/rza2m_2d_barcode_sample_freertos_gcc/src/zxing_lib/zxing/common/Array.h ****     reset(new Array<T> (ts, n));
 100:/home/zkmike/workspace/RZA2M/rza2m_2d_barcode_sample_freertos_gcc/src/zxing_lib/zxing/common/Array.h ****   }
 101:/home/zkmike/workspace/RZA2M/rza2m_2d_barcode_sample_freertos_gcc/src/zxing_lib/zxing/common/Array.h ****   ArrayRef(Array<T> *a) :
 102:/home/zkmike/workspace/RZA2M/rza2m_2d_barcode_sample_freertos_gcc/src/zxing_lib/zxing/common/Array.h ****       array_(0) {
 103:/home/zkmike/workspace/RZA2M/rza2m_2d_barcode_sample_freertos_gcc/src/zxing_lib/zxing/common/Array.h ****     reset(a);
 104:/home/zkmike/workspace/RZA2M/rza2m_2d_barcode_sample_freertos_gcc/src/zxing_lib/zxing/common/Array.h ****   }
 105:/home/zkmike/workspace/RZA2M/rza2m_2d_barcode_sample_freertos_gcc/src/zxing_lib/zxing/common/Array.h ****   ArrayRef(const ArrayRef &other) :
 106:/home/zkmike/workspace/RZA2M/rza2m_2d_barcode_sample_freertos_gcc/src/zxing_lib/zxing/common/Array.h ****       Counted(), array_(0) {
 107:/home/zkmike/workspace/RZA2M/rza2m_2d_barcode_sample_freertos_gcc/src/zxing_lib/zxing/common/Array.h ****     reset(other.array_);
 108:/home/zkmike/workspace/RZA2M/rza2m_2d_barcode_sample_freertos_gcc/src/zxing_lib/zxing/common/Array.h ****   }
 109:/home/zkmike/workspace/RZA2M/rza2m_2d_barcode_sample_freertos_gcc/src/zxing_lib/zxing/common/Array.h **** 
 110:/home/zkmike/workspace/RZA2M/rza2m_2d_barcode_sample_freertos_gcc/src/zxing_lib/zxing/common/Array.h ****   template<class Y>
 111:/home/zkmike/workspace/RZA2M/rza2m_2d_barcode_sample_freertos_gcc/src/zxing_lib/zxing/common/Array.h ****   ArrayRef(const ArrayRef<Y> &other) :
 112:/home/zkmike/workspace/RZA2M/rza2m_2d_barcode_sample_freertos_gcc/src/zxing_lib/zxing/common/Array.h ****       array_(0) {
 113:/home/zkmike/workspace/RZA2M/rza2m_2d_barcode_sample_freertos_gcc/src/zxing_lib/zxing/common/Array.h ****     reset(static_cast<const Array<T> *>(other.array_));
 114:/home/zkmike/workspace/RZA2M/rza2m_2d_barcode_sample_freertos_gcc/src/zxing_lib/zxing/common/Array.h ****   }
 115:/home/zkmike/workspace/RZA2M/rza2m_2d_barcode_sample_freertos_gcc/src/zxing_lib/zxing/common/Array.h **** 
 116:/home/zkmike/workspace/RZA2M/rza2m_2d_barcode_sample_freertos_gcc/src/zxing_lib/zxing/common/Array.h ****   ~ArrayRef() {
  57              		.loc 2 116 0
  58              		.cfi_startproc
  59              		@ args = 0, pretend = 0, frame = 0
  60              		@ frame_needed = 0, uses_anonymous_args = 0
  61              	.LVL2:
  62 0000 10402DE9 		push	{r4, lr}
  63              		.cfi_def_cfa_offset 8
  64              		.cfi_offset 4, -8
  65              		.cfi_offset 14, -4
  66 0004 0040A0E1 		mov	r4, r0
  67              	.LBB1228:
 117:/home/zkmike/workspace/RZA2M/rza2m_2d_barcode_sample_freertos_gcc/src/zxing_lib/zxing/common/Array.h ****     if (array_) {
 118:/home/zkmike/workspace/RZA2M/rza2m_2d_barcode_sample_freertos_gcc/src/zxing_lib/zxing/common/Array.h ****       array_->release();
 119:/home/zkmike/workspace/RZA2M/rza2m_2d_barcode_sample_freertos_gcc/src/zxing_lib/zxing/common/Array.h ****     }
 120:/home/zkmike/workspace/RZA2M/rza2m_2d_barcode_sample_freertos_gcc/src/zxing_lib/zxing/common/Array.h ****     array_ = 0;
 121:/home/zkmike/workspace/RZA2M/rza2m_2d_barcode_sample_freertos_gcc/src/zxing_lib/zxing/common/Array.h ****   }
  68              		.loc 2 121 0
  69 0008 44309FE5 		ldr	r3, .L7
  70 000c 003080E5 		str	r3, [r0]
 117:/home/zkmike/workspace/RZA2M/rza2m_2d_barcode_sample_freertos_gcc/src/zxing_lib/zxing/common/Array.h ****     if (array_) {
  71              		.loc 2 117 0
  72 0010 080090E5 		ldr	r0, [r0, #8]
  73              	.LVL3:
  74 0014 000050E3 		cmp	r0, #0
  75 0018 0400000A 		beq	.L4
  76              	.LVL4:
  77              	.LBB1229:
  78              	.LBB1230:
  79              		.file 3 "/home/zkmike/workspace/RZA2M/rza2m_2d_barcode_sample_freertos_gcc/src/zxing_lib/zxing/com
   1:/home/zkmike/workspace/RZA2M/rza2m_2d_barcode_sample_freertos_gcc/src/zxing_lib/zxing/common/Counted.h **** // -*- mode:c++; tab-width:2; indent-tabs-mode:nil; c-basic-offset:2 -*-
   2:/home/zkmike/workspace/RZA2M/rza2m_2d_barcode_sample_freertos_gcc/src/zxing_lib/zxing/common/Counted.h **** #ifndef __COUNTED_H__
   3:/home/zkmike/workspace/RZA2M/rza2m_2d_barcode_sample_freertos_gcc/src/zxing_lib/zxing/common/Counted.h **** #define __COUNTED_H__
   4:/home/zkmike/workspace/RZA2M/rza2m_2d_barcode_sample_freertos_gcc/src/zxing_lib/zxing/common/Counted.h **** 
   5:/home/zkmike/workspace/RZA2M/rza2m_2d_barcode_sample_freertos_gcc/src/zxing_lib/zxing/common/Counted.h **** /*
   6:/home/zkmike/workspace/RZA2M/rza2m_2d_barcode_sample_freertos_gcc/src/zxing_lib/zxing/common/Counted.h ****  *  Copyright 2010 ZXing authors All rights reserved.
   7:/home/zkmike/workspace/RZA2M/rza2m_2d_barcode_sample_freertos_gcc/src/zxing_lib/zxing/common/Counted.h ****  *
   8:/home/zkmike/workspace/RZA2M/rza2m_2d_barcode_sample_freertos_gcc/src/zxing_lib/zxing/common/Counted.h ****  * Licensed under the Apache License, Version 2.0 (the "License");
   9:/home/zkmike/workspace/RZA2M/rza2m_2d_barcode_sample_freertos_gcc/src/zxing_lib/zxing/common/Counted.h ****  * you may not use this file except in compliance with the License.
  10:/home/zkmike/workspace/RZA2M/rza2m_2d_barcode_sample_freertos_gcc/src/zxing_lib/zxing/common/Counted.h ****  * You may obtain a copy of the License at
  11:/home/zkmike/workspace/RZA2M/rza2m_2d_barcode_sample_freertos_gcc/src/zxing_lib/zxing/common/Counted.h ****  *
  12:/home/zkmike/workspace/RZA2M/rza2m_2d_barcode_sample_freertos_gcc/src/zxing_lib/zxing/common/Counted.h ****  *      http://www.apache.org/licenses/LICENSE-2.0
  13:/home/zkmike/workspace/RZA2M/rza2m_2d_barcode_sample_freertos_gcc/src/zxing_lib/zxing/common/Counted.h ****  *
  14:/home/zkmike/workspace/RZA2M/rza2m_2d_barcode_sample_freertos_gcc/src/zxing_lib/zxing/common/Counted.h ****  * Unless required by applicable law or agreed to in writing, software
  15:/home/zkmike/workspace/RZA2M/rza2m_2d_barcode_sample_freertos_gcc/src/zxing_lib/zxing/common/Counted.h ****  * distributed under the License is distributed on an "AS IS" BASIS,
  16:/home/zkmike/workspace/RZA2M/rza2m_2d_barcode_sample_freertos_gcc/src/zxing_lib/zxing/common/Counted.h ****  * WITHOUT WARRANTIES OR CONDITIONS OF ANY KIND, either express or implied.
  17:/home/zkmike/workspace/RZA2M/rza2m_2d_barcode_sample_freertos_gcc/src/zxing_lib/zxing/common/Counted.h ****  * See the License for the specific language governing permissions and
  18:/home/zkmike/workspace/RZA2M/rza2m_2d_barcode_sample_freertos_gcc/src/zxing_lib/zxing/common/Counted.h ****  * limitations under the License.
  19:/home/zkmike/workspace/RZA2M/rza2m_2d_barcode_sample_freertos_gcc/src/zxing_lib/zxing/common/Counted.h ****  */
  20:/home/zkmike/workspace/RZA2M/rza2m_2d_barcode_sample_freertos_gcc/src/zxing_lib/zxing/common/Counted.h **** 
  21:/home/zkmike/workspace/RZA2M/rza2m_2d_barcode_sample_freertos_gcc/src/zxing_lib/zxing/common/Counted.h **** #include <iostream>
  22:/home/zkmike/workspace/RZA2M/rza2m_2d_barcode_sample_freertos_gcc/src/zxing_lib/zxing/common/Counted.h **** 
  23:/home/zkmike/workspace/RZA2M/rza2m_2d_barcode_sample_freertos_gcc/src/zxing_lib/zxing/common/Counted.h **** namespace zxing {
  24:/home/zkmike/workspace/RZA2M/rza2m_2d_barcode_sample_freertos_gcc/src/zxing_lib/zxing/common/Counted.h **** 
  25:/home/zkmike/workspace/RZA2M/rza2m_2d_barcode_sample_freertos_gcc/src/zxing_lib/zxing/common/Counted.h **** /* base class for reference-counted objects */
  26:/home/zkmike/workspace/RZA2M/rza2m_2d_barcode_sample_freertos_gcc/src/zxing_lib/zxing/common/Counted.h **** class Counted {
  27:/home/zkmike/workspace/RZA2M/rza2m_2d_barcode_sample_freertos_gcc/src/zxing_lib/zxing/common/Counted.h **** private:
  28:/home/zkmike/workspace/RZA2M/rza2m_2d_barcode_sample_freertos_gcc/src/zxing_lib/zxing/common/Counted.h ****   unsigned int count_;
  29:/home/zkmike/workspace/RZA2M/rza2m_2d_barcode_sample_freertos_gcc/src/zxing_lib/zxing/common/Counted.h **** public:
  30:/home/zkmike/workspace/RZA2M/rza2m_2d_barcode_sample_freertos_gcc/src/zxing_lib/zxing/common/Counted.h ****   Counted() :
  31:/home/zkmike/workspace/RZA2M/rza2m_2d_barcode_sample_freertos_gcc/src/zxing_lib/zxing/common/Counted.h ****       count_(0) {
  32:/home/zkmike/workspace/RZA2M/rza2m_2d_barcode_sample_freertos_gcc/src/zxing_lib/zxing/common/Counted.h ****   }
  33:/home/zkmike/workspace/RZA2M/rza2m_2d_barcode_sample_freertos_gcc/src/zxing_lib/zxing/common/Counted.h ****   virtual ~Counted() {
  34:/home/zkmike/workspace/RZA2M/rza2m_2d_barcode_sample_freertos_gcc/src/zxing_lib/zxing/common/Counted.h ****   }
  35:/home/zkmike/workspace/RZA2M/rza2m_2d_barcode_sample_freertos_gcc/src/zxing_lib/zxing/common/Counted.h ****   Counted *retain() {
  36:/home/zkmike/workspace/RZA2M/rza2m_2d_barcode_sample_freertos_gcc/src/zxing_lib/zxing/common/Counted.h ****     count_++;
  37:/home/zkmike/workspace/RZA2M/rza2m_2d_barcode_sample_freertos_gcc/src/zxing_lib/zxing/common/Counted.h ****     return this;
  38:/home/zkmike/workspace/RZA2M/rza2m_2d_barcode_sample_freertos_gcc/src/zxing_lib/zxing/common/Counted.h ****   }
  39:/home/zkmike/workspace/RZA2M/rza2m_2d_barcode_sample_freertos_gcc/src/zxing_lib/zxing/common/Counted.h ****   void release() {
  40:/home/zkmike/workspace/RZA2M/rza2m_2d_barcode_sample_freertos_gcc/src/zxing_lib/zxing/common/Counted.h ****     count_--;
  80              		.loc 3 40 0
  81 001c 043090E5 		ldr	r3, [r0, #4]
  82 0020 013043E2 		sub	r3, r3, #1
  83 0024 043080E5 		str	r3, [r0, #4]
  41:/home/zkmike/workspace/RZA2M/rza2m_2d_barcode_sample_freertos_gcc/src/zxing_lib/zxing/common/Counted.h ****     if (count_ == 0) {
  84              		.loc 3 41 0
  85 0028 000053E3 		cmp	r3, #0
  86 002c 0100000A 		beq	.L6
  87              	.LVL5:
  88              	.L4:
  89              	.LBE1230:
  90              	.LBE1229:
  91              	.LBE1228:
  92              		.loc 2 121 0
  93 0030 0400A0E1 		mov	r0, r4
  94 0034 1080BDE8 		pop	{r4, pc}
  95              	.LVL6:
  96              	.L6:
  97              	.LBB1233:
  98              	.LBB1232:
  99              	.LBB1231:
  42:/home/zkmike/workspace/RZA2M/rza2m_2d_barcode_sample_freertos_gcc/src/zxing_lib/zxing/common/Counted.h ****       count_ = 0xDEADF001;
 100              		.loc 3 42 0
 101 0038 01300FE3 		movw	r3, #61441
 102 003c AD3E4DE3 		movt	r3, 57005
 103 0040 043080E5 		str	r3, [r0, #4]
  43:/home/zkmike/workspace/RZA2M/rza2m_2d_barcode_sample_freertos_gcc/src/zxing_lib/zxing/common/Counted.h ****       delete this;
 104              		.loc 3 43 0
 105 0044 003090E5 		ldr	r3, [r0]
 106 0048 043093E5 		ldr	r3, [r3, #4]
 107 004c 33FF2FE1 		blx	r3
 108              	.LVL7:
 109 0050 F6FFFFEA 		b	.L4
 110              	.L8:
 111              		.align	2
 112              	.L7:
 113 0054 08000000 		.word	_ZTVN5zxing8ArrayRefINS_3RefINS_11ResultPointEEEEE+8
 114              	.LBE1231:
 115              	.LBE1232:
 116              	.LBE1233:
 117              		.cfi_endproc
 118              	.LFE2549:
 119              		.cantunwind
 120              		.fnend
 122              		.weak	_ZN5zxing8ArrayRefINS_3RefINS_11ResultPointEEEED1Ev
 123              		.set	_ZN5zxing8ArrayRefINS_3RefINS_11ResultPointEEEED1Ev,_ZN5zxing8ArrayRefINS_3RefINS_11ResultPoi
 124              		.section	.text._ZN5zxing8ArrayRefIcED2Ev,"axG",%progbits,_ZN5zxing8ArrayRefIcED5Ev,comdat
 125              		.align	2
 126              		.weak	_ZN5zxing8ArrayRefIcED2Ev
 127              		.syntax unified
 128              		.arm
 129              		.fpu neon
 131              	_ZN5zxing8ArrayRefIcED2Ev:
 132              		.fnstart
 133              	.LFB2564:
 116:/home/zkmike/workspace/RZA2M/rza2m_2d_barcode_sample_freertos_gcc/src/zxing_lib/zxing/common/Array.h ****     if (array_) {
 134              		.loc 2 116 0
 135              		.cfi_startproc
 136              		@ args = 0, pretend = 0, frame = 0
 137              		@ frame_needed = 0, uses_anonymous_args = 0
 138              	.LVL8:
 139 0000 10402DE9 		push	{r4, lr}
 140              		.cfi_def_cfa_offset 8
 141              		.cfi_offset 4, -8
 142              		.cfi_offset 14, -4
 143 0004 0040A0E1 		mov	r4, r0
 144              	.LBB1234:
 145              		.loc 2 121 0
 146 0008 44309FE5 		ldr	r3, .L13
 147 000c 003080E5 		str	r3, [r0]
 117:/home/zkmike/workspace/RZA2M/rza2m_2d_barcode_sample_freertos_gcc/src/zxing_lib/zxing/common/Array.h ****       array_->release();
 148              		.loc 2 117 0
 149 0010 080090E5 		ldr	r0, [r0, #8]
 150              	.LVL9:
 151 0014 000050E3 		cmp	r0, #0
 152 0018 0400000A 		beq	.L10
 153              	.LVL10:
 154              	.LBB1235:
 155              	.LBB1236:
  40:/home/zkmike/workspace/RZA2M/rza2m_2d_barcode_sample_freertos_gcc/src/zxing_lib/zxing/common/Counted.h ****     if (count_ == 0) {
 156              		.loc 3 40 0
 157 001c 043090E5 		ldr	r3, [r0, #4]
 158 0020 013043E2 		sub	r3, r3, #1
 159 0024 043080E5 		str	r3, [r0, #4]
  41:/home/zkmike/workspace/RZA2M/rza2m_2d_barcode_sample_freertos_gcc/src/zxing_lib/zxing/common/Counted.h ****       count_ = 0xDEADF001;
 160              		.loc 3 41 0
 161 0028 000053E3 		cmp	r3, #0
 162 002c 0100000A 		beq	.L12
 163              	.LVL11:
 164              	.L10:
 165              	.LBE1236:
 166              	.LBE1235:
 167              	.LBE1234:
 168              		.loc 2 121 0
 169 0030 0400A0E1 		mov	r0, r4
 170 0034 1080BDE8 		pop	{r4, pc}
 171              	.LVL12:
 172              	.L12:
 173              	.LBB1239:
 174              	.LBB1238:
 175              	.LBB1237:
  42:/home/zkmike/workspace/RZA2M/rza2m_2d_barcode_sample_freertos_gcc/src/zxing_lib/zxing/common/Counted.h ****       delete this;
 176              		.loc 3 42 0
 177 0038 01300FE3 		movw	r3, #61441
 178 003c AD3E4DE3 		movt	r3, 57005
 179 0040 043080E5 		str	r3, [r0, #4]
 180              		.loc 3 43 0
 181 0044 003090E5 		ldr	r3, [r0]
 182 0048 043093E5 		ldr	r3, [r3, #4]
 183 004c 33FF2FE1 		blx	r3
 184              	.LVL13:
 185 0050 F6FFFFEA 		b	.L10
 186              	.L14:
 187              		.align	2
 188              	.L13:
 189 0054 08000000 		.word	_ZTVN5zxing8ArrayRefIcEE+8
 190              	.LBE1237:
 191              	.LBE1238:
 192              	.LBE1239:
 193              		.cfi_endproc
 194              	.LFE2564:
 195              		.cantunwind
 196              		.fnend
 198              		.weak	_ZN5zxing8ArrayRefIcED1Ev
 199              		.set	_ZN5zxing8ArrayRefIcED1Ev,_ZN5zxing8ArrayRefIcED2Ev
 200              		.section	.text._ZN5zxing4oned12Code93ReaderD2Ev,"axG",%progbits,_ZN5zxing4oned12Code93ReaderD5Ev,c
 201              		.align	2
 202              		.weak	_ZN5zxing4oned12Code93ReaderD2Ev
 203              		.syntax unified
 204              		.arm
 205              		.fpu neon
 207              	_ZN5zxing4oned12Code93ReaderD2Ev:
 208              		.fnstart
 209              	.LFB2958:
 210              		.file 4 "../src/zxing_lib/zxing/oned/Code93Reader.h"
   1:../src/zxing_lib/zxing/oned/Code93Reader.h **** // -*- mode:c++; tab-width:2; indent-tabs-mode:nil; c-basic-offset:2 -*-
   2:../src/zxing_lib/zxing/oned/Code93Reader.h **** #ifndef __CODE_93_READER_H__
   3:../src/zxing_lib/zxing/oned/Code93Reader.h **** #define __CODE_93_READER_H__
   4:../src/zxing_lib/zxing/oned/Code93Reader.h **** /*
   5:../src/zxing_lib/zxing/oned/Code93Reader.h ****  *  Code93Reader.h
   6:../src/zxing_lib/zxing/oned/Code93Reader.h ****  *  ZXing
   7:../src/zxing_lib/zxing/oned/Code93Reader.h ****  *
   8:../src/zxing_lib/zxing/oned/Code93Reader.h ****  *  Copyright 2010 ZXing authors All rights reserved.
   9:../src/zxing_lib/zxing/oned/Code93Reader.h ****  *
  10:../src/zxing_lib/zxing/oned/Code93Reader.h ****  * Licensed under the Apache License, Version 2.0 (the "License");
  11:../src/zxing_lib/zxing/oned/Code93Reader.h ****  * you may not use this file except in compliance with the License.
  12:../src/zxing_lib/zxing/oned/Code93Reader.h ****  * You may obtain a copy of the License at
  13:../src/zxing_lib/zxing/oned/Code93Reader.h ****  *
  14:../src/zxing_lib/zxing/oned/Code93Reader.h ****  *      http://www.apache.org/licenses/LICENSE-2.0
  15:../src/zxing_lib/zxing/oned/Code93Reader.h ****  *
  16:../src/zxing_lib/zxing/oned/Code93Reader.h ****  * Unless required by applicable law or agreed to in writing, software
  17:../src/zxing_lib/zxing/oned/Code93Reader.h ****  * distributed under the License is distributed on an "AS IS" BASIS,
  18:../src/zxing_lib/zxing/oned/Code93Reader.h ****  * WITHOUT WARRANTIES OR CONDITIONS OF ANY KIND, either express or implied.
  19:../src/zxing_lib/zxing/oned/Code93Reader.h ****  * See the License for the specific language governing permissions and
  20:../src/zxing_lib/zxing/oned/Code93Reader.h ****  * limitations under the License.
  21:../src/zxing_lib/zxing/oned/Code93Reader.h ****  */
  22:../src/zxing_lib/zxing/oned/Code93Reader.h **** 
  23:../src/zxing_lib/zxing/oned/Code93Reader.h **** #include <zxing/oned/OneDReader.h>
  24:../src/zxing_lib/zxing/oned/Code93Reader.h **** #include <zxing/common/BitArray.h>
  25:../src/zxing_lib/zxing/oned/Code93Reader.h **** #include <zxing/Result.h>
  26:../src/zxing_lib/zxing/oned/Code93Reader.h **** 
  27:../src/zxing_lib/zxing/oned/Code93Reader.h **** namespace zxing {
  28:../src/zxing_lib/zxing/oned/Code93Reader.h **** namespace oned {
  29:../src/zxing_lib/zxing/oned/Code93Reader.h **** 
  30:../src/zxing_lib/zxing/oned/Code93Reader.h **** /**
  31:../src/zxing_lib/zxing/oned/Code93Reader.h ****  * <p>Decodes Code 93 barcodes. This does not support "Full ASCII Code 93" yet.</p>
  32:../src/zxing_lib/zxing/oned/Code93Reader.h ****  * Ported form Java (author Sean Owen)
  33:../src/zxing_lib/zxing/oned/Code93Reader.h ****  * @author Lukasz Warchol
  34:../src/zxing_lib/zxing/oned/Code93Reader.h ****  */
  35:../src/zxing_lib/zxing/oned/Code93Reader.h **** class Code93Reader : public OneDReader {
 211              		.loc 4 35 0
 212              		.cfi_startproc
 213              		@ args = 0, pretend = 0, frame = 0
 214              		@ frame_needed = 0, uses_anonymous_args = 0
 215              	.LVL14:
 216 0000 10402DE9 		push	{r4, lr}
 217              		.cfi_def_cfa_offset 8
 218              		.cfi_offset 4, -8
 219              		.cfi_offset 14, -4
 220 0004 0040A0E1 		mov	r4, r0
 221              	.LBB1270:
 222              		.loc 4 35 0
 223 0008 38309FE5 		ldr	r3, .L19
 224 000c 003080E5 		str	r3, [r0]
 225              	.LVL15:
 226              	.LBB1271:
 227              	.LBB1272:
 228              		.file 5 "/home/zkmike/.local/share/renesas/e2_studio/toolchains/gcc_arm/gcc-arm-none-eabi-6-2017-q
   1:/home/zkmike/.local/share/renesas/e2_studio/toolchains/gcc_arm/gcc-arm-none-eabi-6-2017-q2-update/arm-none-eabi/include/c++/6.3.1/bits/stl_vector.h **** // Vector implementation -*- C++ -*-
   2:/home/zkmike/.local/share/renesas/e2_studio/toolchains/gcc_arm/gcc-arm-none-eabi-6-2017-q2-update/arm-none-eabi/include/c++/6.3.1/bits/stl_vector.h **** 
   3:/home/zkmike/.local/share/renesas/e2_studio/toolchains/gcc_arm/gcc-arm-none-eabi-6-2017-q2-update/arm-none-eabi/include/c++/6.3.1/bits/stl_vector.h **** // Copyright (C) 2001-2016 Free Software Foundation, Inc.
   4:/home/zkmike/.local/share/renesas/e2_studio/toolchains/gcc_arm/gcc-arm-none-eabi-6-2017-q2-update/arm-none-eabi/include/c++/6.3.1/bits/stl_vector.h **** //
   5:/home/zkmike/.local/share/renesas/e2_studio/toolchains/gcc_arm/gcc-arm-none-eabi-6-2017-q2-update/arm-none-eabi/include/c++/6.3.1/bits/stl_vector.h **** // This file is part of the GNU ISO C++ Library.  This library is free
   6:/home/zkmike/.local/share/renesas/e2_studio/toolchains/gcc_arm/gcc-arm-none-eabi-6-2017-q2-update/arm-none-eabi/include/c++/6.3.1/bits/stl_vector.h **** // software; you can redistribute it and/or modify it under the
   7:/home/zkmike/.local/share/renesas/e2_studio/toolchains/gcc_arm/gcc-arm-none-eabi-6-2017-q2-update/arm-none-eabi/include/c++/6.3.1/bits/stl_vector.h **** // terms of the GNU General Public License as published by the
   8:/home/zkmike/.local/share/renesas/e2_studio/toolchains/gcc_arm/gcc-arm-none-eabi-6-2017-q2-update/arm-none-eabi/include/c++/6.3.1/bits/stl_vector.h **** // Free Software Foundation; either version 3, or (at your option)
   9:/home/zkmike/.local/share/renesas/e2_studio/toolchains/gcc_arm/gcc-arm-none-eabi-6-2017-q2-update/arm-none-eabi/include/c++/6.3.1/bits/stl_vector.h **** // any later version.
  10:/home/zkmike/.local/share/renesas/e2_studio/toolchains/gcc_arm/gcc-arm-none-eabi-6-2017-q2-update/arm-none-eabi/include/c++/6.3.1/bits/stl_vector.h **** 
  11:/home/zkmike/.local/share/renesas/e2_studio/toolchains/gcc_arm/gcc-arm-none-eabi-6-2017-q2-update/arm-none-eabi/include/c++/6.3.1/bits/stl_vector.h **** // This library is distributed in the hope that it will be useful,
  12:/home/zkmike/.local/share/renesas/e2_studio/toolchains/gcc_arm/gcc-arm-none-eabi-6-2017-q2-update/arm-none-eabi/include/c++/6.3.1/bits/stl_vector.h **** // but WITHOUT ANY WARRANTY; without even the implied warranty of
  13:/home/zkmike/.local/share/renesas/e2_studio/toolchains/gcc_arm/gcc-arm-none-eabi-6-2017-q2-update/arm-none-eabi/include/c++/6.3.1/bits/stl_vector.h **** // MERCHANTABILITY or FITNESS FOR A PARTICULAR PURPOSE.  See the
  14:/home/zkmike/.local/share/renesas/e2_studio/toolchains/gcc_arm/gcc-arm-none-eabi-6-2017-q2-update/arm-none-eabi/include/c++/6.3.1/bits/stl_vector.h **** // GNU General Public License for more details.
  15:/home/zkmike/.local/share/renesas/e2_studio/toolchains/gcc_arm/gcc-arm-none-eabi-6-2017-q2-update/arm-none-eabi/include/c++/6.3.1/bits/stl_vector.h **** 
  16:/home/zkmike/.local/share/renesas/e2_studio/toolchains/gcc_arm/gcc-arm-none-eabi-6-2017-q2-update/arm-none-eabi/include/c++/6.3.1/bits/stl_vector.h **** // Under Section 7 of GPL version 3, you are granted additional
  17:/home/zkmike/.local/share/renesas/e2_studio/toolchains/gcc_arm/gcc-arm-none-eabi-6-2017-q2-update/arm-none-eabi/include/c++/6.3.1/bits/stl_vector.h **** // permissions described in the GCC Runtime Library Exception, version
  18:/home/zkmike/.local/share/renesas/e2_studio/toolchains/gcc_arm/gcc-arm-none-eabi-6-2017-q2-update/arm-none-eabi/include/c++/6.3.1/bits/stl_vector.h **** // 3.1, as published by the Free Software Foundation.
  19:/home/zkmike/.local/share/renesas/e2_studio/toolchains/gcc_arm/gcc-arm-none-eabi-6-2017-q2-update/arm-none-eabi/include/c++/6.3.1/bits/stl_vector.h **** 
  20:/home/zkmike/.local/share/renesas/e2_studio/toolchains/gcc_arm/gcc-arm-none-eabi-6-2017-q2-update/arm-none-eabi/include/c++/6.3.1/bits/stl_vector.h **** // You should have received a copy of the GNU General Public License and
  21:/home/zkmike/.local/share/renesas/e2_studio/toolchains/gcc_arm/gcc-arm-none-eabi-6-2017-q2-update/arm-none-eabi/include/c++/6.3.1/bits/stl_vector.h **** // a copy of the GCC Runtime Library Exception along with this program;
  22:/home/zkmike/.local/share/renesas/e2_studio/toolchains/gcc_arm/gcc-arm-none-eabi-6-2017-q2-update/arm-none-eabi/include/c++/6.3.1/bits/stl_vector.h **** // see the files COPYING3 and COPYING.RUNTIME respectively.  If not, see
  23:/home/zkmike/.local/share/renesas/e2_studio/toolchains/gcc_arm/gcc-arm-none-eabi-6-2017-q2-update/arm-none-eabi/include/c++/6.3.1/bits/stl_vector.h **** // <http://www.gnu.org/licenses/>.
  24:/home/zkmike/.local/share/renesas/e2_studio/toolchains/gcc_arm/gcc-arm-none-eabi-6-2017-q2-update/arm-none-eabi/include/c++/6.3.1/bits/stl_vector.h **** 
  25:/home/zkmike/.local/share/renesas/e2_studio/toolchains/gcc_arm/gcc-arm-none-eabi-6-2017-q2-update/arm-none-eabi/include/c++/6.3.1/bits/stl_vector.h **** /*
  26:/home/zkmike/.local/share/renesas/e2_studio/toolchains/gcc_arm/gcc-arm-none-eabi-6-2017-q2-update/arm-none-eabi/include/c++/6.3.1/bits/stl_vector.h ****  *
  27:/home/zkmike/.local/share/renesas/e2_studio/toolchains/gcc_arm/gcc-arm-none-eabi-6-2017-q2-update/arm-none-eabi/include/c++/6.3.1/bits/stl_vector.h ****  * Copyright (c) 1994
  28:/home/zkmike/.local/share/renesas/e2_studio/toolchains/gcc_arm/gcc-arm-none-eabi-6-2017-q2-update/arm-none-eabi/include/c++/6.3.1/bits/stl_vector.h ****  * Hewlett-Packard Company
  29:/home/zkmike/.local/share/renesas/e2_studio/toolchains/gcc_arm/gcc-arm-none-eabi-6-2017-q2-update/arm-none-eabi/include/c++/6.3.1/bits/stl_vector.h ****  *
  30:/home/zkmike/.local/share/renesas/e2_studio/toolchains/gcc_arm/gcc-arm-none-eabi-6-2017-q2-update/arm-none-eabi/include/c++/6.3.1/bits/stl_vector.h ****  * Permission to use, copy, modify, distribute and sell this software
  31:/home/zkmike/.local/share/renesas/e2_studio/toolchains/gcc_arm/gcc-arm-none-eabi-6-2017-q2-update/arm-none-eabi/include/c++/6.3.1/bits/stl_vector.h ****  * and its documentation for any purpose is hereby granted without fee,
  32:/home/zkmike/.local/share/renesas/e2_studio/toolchains/gcc_arm/gcc-arm-none-eabi-6-2017-q2-update/arm-none-eabi/include/c++/6.3.1/bits/stl_vector.h ****  * provided that the above copyright notice appear in all copies and
  33:/home/zkmike/.local/share/renesas/e2_studio/toolchains/gcc_arm/gcc-arm-none-eabi-6-2017-q2-update/arm-none-eabi/include/c++/6.3.1/bits/stl_vector.h ****  * that both that copyright notice and this permission notice appear
  34:/home/zkmike/.local/share/renesas/e2_studio/toolchains/gcc_arm/gcc-arm-none-eabi-6-2017-q2-update/arm-none-eabi/include/c++/6.3.1/bits/stl_vector.h ****  * in supporting documentation.  Hewlett-Packard Company makes no
  35:/home/zkmike/.local/share/renesas/e2_studio/toolchains/gcc_arm/gcc-arm-none-eabi-6-2017-q2-update/arm-none-eabi/include/c++/6.3.1/bits/stl_vector.h ****  * representations about the suitability of this software for any
  36:/home/zkmike/.local/share/renesas/e2_studio/toolchains/gcc_arm/gcc-arm-none-eabi-6-2017-q2-update/arm-none-eabi/include/c++/6.3.1/bits/stl_vector.h ****  * purpose.  It is provided "as is" without express or implied warranty.
  37:/home/zkmike/.local/share/renesas/e2_studio/toolchains/gcc_arm/gcc-arm-none-eabi-6-2017-q2-update/arm-none-eabi/include/c++/6.3.1/bits/stl_vector.h ****  *
  38:/home/zkmike/.local/share/renesas/e2_studio/toolchains/gcc_arm/gcc-arm-none-eabi-6-2017-q2-update/arm-none-eabi/include/c++/6.3.1/bits/stl_vector.h ****  *
  39:/home/zkmike/.local/share/renesas/e2_studio/toolchains/gcc_arm/gcc-arm-none-eabi-6-2017-q2-update/arm-none-eabi/include/c++/6.3.1/bits/stl_vector.h ****  * Copyright (c) 1996
  40:/home/zkmike/.local/share/renesas/e2_studio/toolchains/gcc_arm/gcc-arm-none-eabi-6-2017-q2-update/arm-none-eabi/include/c++/6.3.1/bits/stl_vector.h ****  * Silicon Graphics Computer Systems, Inc.
  41:/home/zkmike/.local/share/renesas/e2_studio/toolchains/gcc_arm/gcc-arm-none-eabi-6-2017-q2-update/arm-none-eabi/include/c++/6.3.1/bits/stl_vector.h ****  *
  42:/home/zkmike/.local/share/renesas/e2_studio/toolchains/gcc_arm/gcc-arm-none-eabi-6-2017-q2-update/arm-none-eabi/include/c++/6.3.1/bits/stl_vector.h ****  * Permission to use, copy, modify, distribute and sell this software
  43:/home/zkmike/.local/share/renesas/e2_studio/toolchains/gcc_arm/gcc-arm-none-eabi-6-2017-q2-update/arm-none-eabi/include/c++/6.3.1/bits/stl_vector.h ****  * and its documentation for any purpose is hereby granted without fee,
  44:/home/zkmike/.local/share/renesas/e2_studio/toolchains/gcc_arm/gcc-arm-none-eabi-6-2017-q2-update/arm-none-eabi/include/c++/6.3.1/bits/stl_vector.h ****  * provided that the above copyright notice appear in all copies and
  45:/home/zkmike/.local/share/renesas/e2_studio/toolchains/gcc_arm/gcc-arm-none-eabi-6-2017-q2-update/arm-none-eabi/include/c++/6.3.1/bits/stl_vector.h ****  * that both that copyright notice and this permission notice appear
  46:/home/zkmike/.local/share/renesas/e2_studio/toolchains/gcc_arm/gcc-arm-none-eabi-6-2017-q2-update/arm-none-eabi/include/c++/6.3.1/bits/stl_vector.h ****  * in supporting documentation.  Silicon Graphics makes no
  47:/home/zkmike/.local/share/renesas/e2_studio/toolchains/gcc_arm/gcc-arm-none-eabi-6-2017-q2-update/arm-none-eabi/include/c++/6.3.1/bits/stl_vector.h ****  * representations about the suitability of this  software for any
  48:/home/zkmike/.local/share/renesas/e2_studio/toolchains/gcc_arm/gcc-arm-none-eabi-6-2017-q2-update/arm-none-eabi/include/c++/6.3.1/bits/stl_vector.h ****  * purpose.  It is provided "as is" without express or implied warranty.
  49:/home/zkmike/.local/share/renesas/e2_studio/toolchains/gcc_arm/gcc-arm-none-eabi-6-2017-q2-update/arm-none-eabi/include/c++/6.3.1/bits/stl_vector.h ****  */
  50:/home/zkmike/.local/share/renesas/e2_studio/toolchains/gcc_arm/gcc-arm-none-eabi-6-2017-q2-update/arm-none-eabi/include/c++/6.3.1/bits/stl_vector.h **** 
  51:/home/zkmike/.local/share/renesas/e2_studio/toolchains/gcc_arm/gcc-arm-none-eabi-6-2017-q2-update/arm-none-eabi/include/c++/6.3.1/bits/stl_vector.h **** /** @file bits/stl_vector.h
  52:/home/zkmike/.local/share/renesas/e2_studio/toolchains/gcc_arm/gcc-arm-none-eabi-6-2017-q2-update/arm-none-eabi/include/c++/6.3.1/bits/stl_vector.h ****  *  This is an internal header file, included by other library headers.
  53:/home/zkmike/.local/share/renesas/e2_studio/toolchains/gcc_arm/gcc-arm-none-eabi-6-2017-q2-update/arm-none-eabi/include/c++/6.3.1/bits/stl_vector.h ****  *  Do not attempt to use it directly. @headername{vector}
  54:/home/zkmike/.local/share/renesas/e2_studio/toolchains/gcc_arm/gcc-arm-none-eabi-6-2017-q2-update/arm-none-eabi/include/c++/6.3.1/bits/stl_vector.h ****  */
  55:/home/zkmike/.local/share/renesas/e2_studio/toolchains/gcc_arm/gcc-arm-none-eabi-6-2017-q2-update/arm-none-eabi/include/c++/6.3.1/bits/stl_vector.h **** 
  56:/home/zkmike/.local/share/renesas/e2_studio/toolchains/gcc_arm/gcc-arm-none-eabi-6-2017-q2-update/arm-none-eabi/include/c++/6.3.1/bits/stl_vector.h **** #ifndef _STL_VECTOR_H
  57:/home/zkmike/.local/share/renesas/e2_studio/toolchains/gcc_arm/gcc-arm-none-eabi-6-2017-q2-update/arm-none-eabi/include/c++/6.3.1/bits/stl_vector.h **** #define _STL_VECTOR_H 1
  58:/home/zkmike/.local/share/renesas/e2_studio/toolchains/gcc_arm/gcc-arm-none-eabi-6-2017-q2-update/arm-none-eabi/include/c++/6.3.1/bits/stl_vector.h **** 
  59:/home/zkmike/.local/share/renesas/e2_studio/toolchains/gcc_arm/gcc-arm-none-eabi-6-2017-q2-update/arm-none-eabi/include/c++/6.3.1/bits/stl_vector.h **** #include <bits/stl_iterator_base_funcs.h>
  60:/home/zkmike/.local/share/renesas/e2_studio/toolchains/gcc_arm/gcc-arm-none-eabi-6-2017-q2-update/arm-none-eabi/include/c++/6.3.1/bits/stl_vector.h **** #include <bits/functexcept.h>
  61:/home/zkmike/.local/share/renesas/e2_studio/toolchains/gcc_arm/gcc-arm-none-eabi-6-2017-q2-update/arm-none-eabi/include/c++/6.3.1/bits/stl_vector.h **** #include <bits/concept_check.h>
  62:/home/zkmike/.local/share/renesas/e2_studio/toolchains/gcc_arm/gcc-arm-none-eabi-6-2017-q2-update/arm-none-eabi/include/c++/6.3.1/bits/stl_vector.h **** #if __cplusplus >= 201103L
  63:/home/zkmike/.local/share/renesas/e2_studio/toolchains/gcc_arm/gcc-arm-none-eabi-6-2017-q2-update/arm-none-eabi/include/c++/6.3.1/bits/stl_vector.h **** #include <initializer_list>
  64:/home/zkmike/.local/share/renesas/e2_studio/toolchains/gcc_arm/gcc-arm-none-eabi-6-2017-q2-update/arm-none-eabi/include/c++/6.3.1/bits/stl_vector.h **** #endif
  65:/home/zkmike/.local/share/renesas/e2_studio/toolchains/gcc_arm/gcc-arm-none-eabi-6-2017-q2-update/arm-none-eabi/include/c++/6.3.1/bits/stl_vector.h **** 
  66:/home/zkmike/.local/share/renesas/e2_studio/toolchains/gcc_arm/gcc-arm-none-eabi-6-2017-q2-update/arm-none-eabi/include/c++/6.3.1/bits/stl_vector.h **** namespace std _GLIBCXX_VISIBILITY(default)
  67:/home/zkmike/.local/share/renesas/e2_studio/toolchains/gcc_arm/gcc-arm-none-eabi-6-2017-q2-update/arm-none-eabi/include/c++/6.3.1/bits/stl_vector.h **** {
  68:/home/zkmike/.local/share/renesas/e2_studio/toolchains/gcc_arm/gcc-arm-none-eabi-6-2017-q2-update/arm-none-eabi/include/c++/6.3.1/bits/stl_vector.h **** _GLIBCXX_BEGIN_NAMESPACE_CONTAINER
  69:/home/zkmike/.local/share/renesas/e2_studio/toolchains/gcc_arm/gcc-arm-none-eabi-6-2017-q2-update/arm-none-eabi/include/c++/6.3.1/bits/stl_vector.h **** 
  70:/home/zkmike/.local/share/renesas/e2_studio/toolchains/gcc_arm/gcc-arm-none-eabi-6-2017-q2-update/arm-none-eabi/include/c++/6.3.1/bits/stl_vector.h ****   /// See bits/stl_deque.h's _Deque_base for an explanation.
  71:/home/zkmike/.local/share/renesas/e2_studio/toolchains/gcc_arm/gcc-arm-none-eabi-6-2017-q2-update/arm-none-eabi/include/c++/6.3.1/bits/stl_vector.h ****   template<typename _Tp, typename _Alloc>
  72:/home/zkmike/.local/share/renesas/e2_studio/toolchains/gcc_arm/gcc-arm-none-eabi-6-2017-q2-update/arm-none-eabi/include/c++/6.3.1/bits/stl_vector.h ****     struct _Vector_base
  73:/home/zkmike/.local/share/renesas/e2_studio/toolchains/gcc_arm/gcc-arm-none-eabi-6-2017-q2-update/arm-none-eabi/include/c++/6.3.1/bits/stl_vector.h ****     {
  74:/home/zkmike/.local/share/renesas/e2_studio/toolchains/gcc_arm/gcc-arm-none-eabi-6-2017-q2-update/arm-none-eabi/include/c++/6.3.1/bits/stl_vector.h ****       typedef typename __gnu_cxx::__alloc_traits<_Alloc>::template
  75:/home/zkmike/.local/share/renesas/e2_studio/toolchains/gcc_arm/gcc-arm-none-eabi-6-2017-q2-update/arm-none-eabi/include/c++/6.3.1/bits/stl_vector.h ****         rebind<_Tp>::other _Tp_alloc_type;
  76:/home/zkmike/.local/share/renesas/e2_studio/toolchains/gcc_arm/gcc-arm-none-eabi-6-2017-q2-update/arm-none-eabi/include/c++/6.3.1/bits/stl_vector.h ****       typedef typename __gnu_cxx::__alloc_traits<_Tp_alloc_type>::pointer
  77:/home/zkmike/.local/share/renesas/e2_studio/toolchains/gcc_arm/gcc-arm-none-eabi-6-2017-q2-update/arm-none-eabi/include/c++/6.3.1/bits/stl_vector.h ****        	pointer;
  78:/home/zkmike/.local/share/renesas/e2_studio/toolchains/gcc_arm/gcc-arm-none-eabi-6-2017-q2-update/arm-none-eabi/include/c++/6.3.1/bits/stl_vector.h **** 
  79:/home/zkmike/.local/share/renesas/e2_studio/toolchains/gcc_arm/gcc-arm-none-eabi-6-2017-q2-update/arm-none-eabi/include/c++/6.3.1/bits/stl_vector.h ****       struct _Vector_impl 
  80:/home/zkmike/.local/share/renesas/e2_studio/toolchains/gcc_arm/gcc-arm-none-eabi-6-2017-q2-update/arm-none-eabi/include/c++/6.3.1/bits/stl_vector.h ****       : public _Tp_alloc_type
  81:/home/zkmike/.local/share/renesas/e2_studio/toolchains/gcc_arm/gcc-arm-none-eabi-6-2017-q2-update/arm-none-eabi/include/c++/6.3.1/bits/stl_vector.h ****       {
  82:/home/zkmike/.local/share/renesas/e2_studio/toolchains/gcc_arm/gcc-arm-none-eabi-6-2017-q2-update/arm-none-eabi/include/c++/6.3.1/bits/stl_vector.h **** 	pointer _M_start;
  83:/home/zkmike/.local/share/renesas/e2_studio/toolchains/gcc_arm/gcc-arm-none-eabi-6-2017-q2-update/arm-none-eabi/include/c++/6.3.1/bits/stl_vector.h **** 	pointer _M_finish;
  84:/home/zkmike/.local/share/renesas/e2_studio/toolchains/gcc_arm/gcc-arm-none-eabi-6-2017-q2-update/arm-none-eabi/include/c++/6.3.1/bits/stl_vector.h **** 	pointer _M_end_of_storage;
  85:/home/zkmike/.local/share/renesas/e2_studio/toolchains/gcc_arm/gcc-arm-none-eabi-6-2017-q2-update/arm-none-eabi/include/c++/6.3.1/bits/stl_vector.h **** 
  86:/home/zkmike/.local/share/renesas/e2_studio/toolchains/gcc_arm/gcc-arm-none-eabi-6-2017-q2-update/arm-none-eabi/include/c++/6.3.1/bits/stl_vector.h **** 	_Vector_impl()
  87:/home/zkmike/.local/share/renesas/e2_studio/toolchains/gcc_arm/gcc-arm-none-eabi-6-2017-q2-update/arm-none-eabi/include/c++/6.3.1/bits/stl_vector.h **** 	: _Tp_alloc_type(), _M_start(), _M_finish(), _M_end_of_storage()
  88:/home/zkmike/.local/share/renesas/e2_studio/toolchains/gcc_arm/gcc-arm-none-eabi-6-2017-q2-update/arm-none-eabi/include/c++/6.3.1/bits/stl_vector.h **** 	{ }
  89:/home/zkmike/.local/share/renesas/e2_studio/toolchains/gcc_arm/gcc-arm-none-eabi-6-2017-q2-update/arm-none-eabi/include/c++/6.3.1/bits/stl_vector.h **** 
  90:/home/zkmike/.local/share/renesas/e2_studio/toolchains/gcc_arm/gcc-arm-none-eabi-6-2017-q2-update/arm-none-eabi/include/c++/6.3.1/bits/stl_vector.h **** 	_Vector_impl(_Tp_alloc_type const& __a) _GLIBCXX_NOEXCEPT
  91:/home/zkmike/.local/share/renesas/e2_studio/toolchains/gcc_arm/gcc-arm-none-eabi-6-2017-q2-update/arm-none-eabi/include/c++/6.3.1/bits/stl_vector.h **** 	: _Tp_alloc_type(__a), _M_start(), _M_finish(), _M_end_of_storage()
  92:/home/zkmike/.local/share/renesas/e2_studio/toolchains/gcc_arm/gcc-arm-none-eabi-6-2017-q2-update/arm-none-eabi/include/c++/6.3.1/bits/stl_vector.h **** 	{ }
  93:/home/zkmike/.local/share/renesas/e2_studio/toolchains/gcc_arm/gcc-arm-none-eabi-6-2017-q2-update/arm-none-eabi/include/c++/6.3.1/bits/stl_vector.h **** 
  94:/home/zkmike/.local/share/renesas/e2_studio/toolchains/gcc_arm/gcc-arm-none-eabi-6-2017-q2-update/arm-none-eabi/include/c++/6.3.1/bits/stl_vector.h **** #if __cplusplus >= 201103L
  95:/home/zkmike/.local/share/renesas/e2_studio/toolchains/gcc_arm/gcc-arm-none-eabi-6-2017-q2-update/arm-none-eabi/include/c++/6.3.1/bits/stl_vector.h **** 	_Vector_impl(_Tp_alloc_type&& __a) noexcept
  96:/home/zkmike/.local/share/renesas/e2_studio/toolchains/gcc_arm/gcc-arm-none-eabi-6-2017-q2-update/arm-none-eabi/include/c++/6.3.1/bits/stl_vector.h **** 	: _Tp_alloc_type(std::move(__a)),
  97:/home/zkmike/.local/share/renesas/e2_studio/toolchains/gcc_arm/gcc-arm-none-eabi-6-2017-q2-update/arm-none-eabi/include/c++/6.3.1/bits/stl_vector.h **** 	  _M_start(), _M_finish(), _M_end_of_storage()
  98:/home/zkmike/.local/share/renesas/e2_studio/toolchains/gcc_arm/gcc-arm-none-eabi-6-2017-q2-update/arm-none-eabi/include/c++/6.3.1/bits/stl_vector.h **** 	{ }
  99:/home/zkmike/.local/share/renesas/e2_studio/toolchains/gcc_arm/gcc-arm-none-eabi-6-2017-q2-update/arm-none-eabi/include/c++/6.3.1/bits/stl_vector.h **** #endif
 100:/home/zkmike/.local/share/renesas/e2_studio/toolchains/gcc_arm/gcc-arm-none-eabi-6-2017-q2-update/arm-none-eabi/include/c++/6.3.1/bits/stl_vector.h **** 
 101:/home/zkmike/.local/share/renesas/e2_studio/toolchains/gcc_arm/gcc-arm-none-eabi-6-2017-q2-update/arm-none-eabi/include/c++/6.3.1/bits/stl_vector.h **** 	void _M_swap_data(_Vector_impl& __x) _GLIBCXX_NOEXCEPT
 102:/home/zkmike/.local/share/renesas/e2_studio/toolchains/gcc_arm/gcc-arm-none-eabi-6-2017-q2-update/arm-none-eabi/include/c++/6.3.1/bits/stl_vector.h **** 	{
 103:/home/zkmike/.local/share/renesas/e2_studio/toolchains/gcc_arm/gcc-arm-none-eabi-6-2017-q2-update/arm-none-eabi/include/c++/6.3.1/bits/stl_vector.h **** 	  std::swap(_M_start, __x._M_start);
 104:/home/zkmike/.local/share/renesas/e2_studio/toolchains/gcc_arm/gcc-arm-none-eabi-6-2017-q2-update/arm-none-eabi/include/c++/6.3.1/bits/stl_vector.h **** 	  std::swap(_M_finish, __x._M_finish);
 105:/home/zkmike/.local/share/renesas/e2_studio/toolchains/gcc_arm/gcc-arm-none-eabi-6-2017-q2-update/arm-none-eabi/include/c++/6.3.1/bits/stl_vector.h **** 	  std::swap(_M_end_of_storage, __x._M_end_of_storage);
 106:/home/zkmike/.local/share/renesas/e2_studio/toolchains/gcc_arm/gcc-arm-none-eabi-6-2017-q2-update/arm-none-eabi/include/c++/6.3.1/bits/stl_vector.h **** 	}
 107:/home/zkmike/.local/share/renesas/e2_studio/toolchains/gcc_arm/gcc-arm-none-eabi-6-2017-q2-update/arm-none-eabi/include/c++/6.3.1/bits/stl_vector.h ****       };
 108:/home/zkmike/.local/share/renesas/e2_studio/toolchains/gcc_arm/gcc-arm-none-eabi-6-2017-q2-update/arm-none-eabi/include/c++/6.3.1/bits/stl_vector.h ****       
 109:/home/zkmike/.local/share/renesas/e2_studio/toolchains/gcc_arm/gcc-arm-none-eabi-6-2017-q2-update/arm-none-eabi/include/c++/6.3.1/bits/stl_vector.h ****     public:
 110:/home/zkmike/.local/share/renesas/e2_studio/toolchains/gcc_arm/gcc-arm-none-eabi-6-2017-q2-update/arm-none-eabi/include/c++/6.3.1/bits/stl_vector.h ****       typedef _Alloc allocator_type;
 111:/home/zkmike/.local/share/renesas/e2_studio/toolchains/gcc_arm/gcc-arm-none-eabi-6-2017-q2-update/arm-none-eabi/include/c++/6.3.1/bits/stl_vector.h **** 
 112:/home/zkmike/.local/share/renesas/e2_studio/toolchains/gcc_arm/gcc-arm-none-eabi-6-2017-q2-update/arm-none-eabi/include/c++/6.3.1/bits/stl_vector.h ****       _Tp_alloc_type&
 113:/home/zkmike/.local/share/renesas/e2_studio/toolchains/gcc_arm/gcc-arm-none-eabi-6-2017-q2-update/arm-none-eabi/include/c++/6.3.1/bits/stl_vector.h ****       _M_get_Tp_allocator() _GLIBCXX_NOEXCEPT
 114:/home/zkmike/.local/share/renesas/e2_studio/toolchains/gcc_arm/gcc-arm-none-eabi-6-2017-q2-update/arm-none-eabi/include/c++/6.3.1/bits/stl_vector.h ****       { return *static_cast<_Tp_alloc_type*>(&this->_M_impl); }
 115:/home/zkmike/.local/share/renesas/e2_studio/toolchains/gcc_arm/gcc-arm-none-eabi-6-2017-q2-update/arm-none-eabi/include/c++/6.3.1/bits/stl_vector.h **** 
 116:/home/zkmike/.local/share/renesas/e2_studio/toolchains/gcc_arm/gcc-arm-none-eabi-6-2017-q2-update/arm-none-eabi/include/c++/6.3.1/bits/stl_vector.h ****       const _Tp_alloc_type&
 117:/home/zkmike/.local/share/renesas/e2_studio/toolchains/gcc_arm/gcc-arm-none-eabi-6-2017-q2-update/arm-none-eabi/include/c++/6.3.1/bits/stl_vector.h ****       _M_get_Tp_allocator() const _GLIBCXX_NOEXCEPT
 118:/home/zkmike/.local/share/renesas/e2_studio/toolchains/gcc_arm/gcc-arm-none-eabi-6-2017-q2-update/arm-none-eabi/include/c++/6.3.1/bits/stl_vector.h ****       { return *static_cast<const _Tp_alloc_type*>(&this->_M_impl); }
 119:/home/zkmike/.local/share/renesas/e2_studio/toolchains/gcc_arm/gcc-arm-none-eabi-6-2017-q2-update/arm-none-eabi/include/c++/6.3.1/bits/stl_vector.h **** 
 120:/home/zkmike/.local/share/renesas/e2_studio/toolchains/gcc_arm/gcc-arm-none-eabi-6-2017-q2-update/arm-none-eabi/include/c++/6.3.1/bits/stl_vector.h ****       allocator_type
 121:/home/zkmike/.local/share/renesas/e2_studio/toolchains/gcc_arm/gcc-arm-none-eabi-6-2017-q2-update/arm-none-eabi/include/c++/6.3.1/bits/stl_vector.h ****       get_allocator() const _GLIBCXX_NOEXCEPT
 122:/home/zkmike/.local/share/renesas/e2_studio/toolchains/gcc_arm/gcc-arm-none-eabi-6-2017-q2-update/arm-none-eabi/include/c++/6.3.1/bits/stl_vector.h ****       { return allocator_type(_M_get_Tp_allocator()); }
 123:/home/zkmike/.local/share/renesas/e2_studio/toolchains/gcc_arm/gcc-arm-none-eabi-6-2017-q2-update/arm-none-eabi/include/c++/6.3.1/bits/stl_vector.h **** 
 124:/home/zkmike/.local/share/renesas/e2_studio/toolchains/gcc_arm/gcc-arm-none-eabi-6-2017-q2-update/arm-none-eabi/include/c++/6.3.1/bits/stl_vector.h ****       _Vector_base()
 125:/home/zkmike/.local/share/renesas/e2_studio/toolchains/gcc_arm/gcc-arm-none-eabi-6-2017-q2-update/arm-none-eabi/include/c++/6.3.1/bits/stl_vector.h ****       : _M_impl() { }
 126:/home/zkmike/.local/share/renesas/e2_studio/toolchains/gcc_arm/gcc-arm-none-eabi-6-2017-q2-update/arm-none-eabi/include/c++/6.3.1/bits/stl_vector.h **** 
 127:/home/zkmike/.local/share/renesas/e2_studio/toolchains/gcc_arm/gcc-arm-none-eabi-6-2017-q2-update/arm-none-eabi/include/c++/6.3.1/bits/stl_vector.h ****       _Vector_base(const allocator_type& __a) _GLIBCXX_NOEXCEPT
 128:/home/zkmike/.local/share/renesas/e2_studio/toolchains/gcc_arm/gcc-arm-none-eabi-6-2017-q2-update/arm-none-eabi/include/c++/6.3.1/bits/stl_vector.h ****       : _M_impl(__a) { }
 129:/home/zkmike/.local/share/renesas/e2_studio/toolchains/gcc_arm/gcc-arm-none-eabi-6-2017-q2-update/arm-none-eabi/include/c++/6.3.1/bits/stl_vector.h **** 
 130:/home/zkmike/.local/share/renesas/e2_studio/toolchains/gcc_arm/gcc-arm-none-eabi-6-2017-q2-update/arm-none-eabi/include/c++/6.3.1/bits/stl_vector.h ****       _Vector_base(size_t __n)
 131:/home/zkmike/.local/share/renesas/e2_studio/toolchains/gcc_arm/gcc-arm-none-eabi-6-2017-q2-update/arm-none-eabi/include/c++/6.3.1/bits/stl_vector.h ****       : _M_impl()
 132:/home/zkmike/.local/share/renesas/e2_studio/toolchains/gcc_arm/gcc-arm-none-eabi-6-2017-q2-update/arm-none-eabi/include/c++/6.3.1/bits/stl_vector.h ****       { _M_create_storage(__n); }
 133:/home/zkmike/.local/share/renesas/e2_studio/toolchains/gcc_arm/gcc-arm-none-eabi-6-2017-q2-update/arm-none-eabi/include/c++/6.3.1/bits/stl_vector.h **** 
 134:/home/zkmike/.local/share/renesas/e2_studio/toolchains/gcc_arm/gcc-arm-none-eabi-6-2017-q2-update/arm-none-eabi/include/c++/6.3.1/bits/stl_vector.h ****       _Vector_base(size_t __n, const allocator_type& __a)
 135:/home/zkmike/.local/share/renesas/e2_studio/toolchains/gcc_arm/gcc-arm-none-eabi-6-2017-q2-update/arm-none-eabi/include/c++/6.3.1/bits/stl_vector.h ****       : _M_impl(__a)
 136:/home/zkmike/.local/share/renesas/e2_studio/toolchains/gcc_arm/gcc-arm-none-eabi-6-2017-q2-update/arm-none-eabi/include/c++/6.3.1/bits/stl_vector.h ****       { _M_create_storage(__n); }
 137:/home/zkmike/.local/share/renesas/e2_studio/toolchains/gcc_arm/gcc-arm-none-eabi-6-2017-q2-update/arm-none-eabi/include/c++/6.3.1/bits/stl_vector.h **** 
 138:/home/zkmike/.local/share/renesas/e2_studio/toolchains/gcc_arm/gcc-arm-none-eabi-6-2017-q2-update/arm-none-eabi/include/c++/6.3.1/bits/stl_vector.h **** #if __cplusplus >= 201103L
 139:/home/zkmike/.local/share/renesas/e2_studio/toolchains/gcc_arm/gcc-arm-none-eabi-6-2017-q2-update/arm-none-eabi/include/c++/6.3.1/bits/stl_vector.h ****       _Vector_base(_Tp_alloc_type&& __a) noexcept
 140:/home/zkmike/.local/share/renesas/e2_studio/toolchains/gcc_arm/gcc-arm-none-eabi-6-2017-q2-update/arm-none-eabi/include/c++/6.3.1/bits/stl_vector.h ****       : _M_impl(std::move(__a)) { }
 141:/home/zkmike/.local/share/renesas/e2_studio/toolchains/gcc_arm/gcc-arm-none-eabi-6-2017-q2-update/arm-none-eabi/include/c++/6.3.1/bits/stl_vector.h **** 
 142:/home/zkmike/.local/share/renesas/e2_studio/toolchains/gcc_arm/gcc-arm-none-eabi-6-2017-q2-update/arm-none-eabi/include/c++/6.3.1/bits/stl_vector.h ****       _Vector_base(_Vector_base&& __x) noexcept
 143:/home/zkmike/.local/share/renesas/e2_studio/toolchains/gcc_arm/gcc-arm-none-eabi-6-2017-q2-update/arm-none-eabi/include/c++/6.3.1/bits/stl_vector.h ****       : _M_impl(std::move(__x._M_get_Tp_allocator()))
 144:/home/zkmike/.local/share/renesas/e2_studio/toolchains/gcc_arm/gcc-arm-none-eabi-6-2017-q2-update/arm-none-eabi/include/c++/6.3.1/bits/stl_vector.h ****       { this->_M_impl._M_swap_data(__x._M_impl); }
 145:/home/zkmike/.local/share/renesas/e2_studio/toolchains/gcc_arm/gcc-arm-none-eabi-6-2017-q2-update/arm-none-eabi/include/c++/6.3.1/bits/stl_vector.h **** 
 146:/home/zkmike/.local/share/renesas/e2_studio/toolchains/gcc_arm/gcc-arm-none-eabi-6-2017-q2-update/arm-none-eabi/include/c++/6.3.1/bits/stl_vector.h ****       _Vector_base(_Vector_base&& __x, const allocator_type& __a)
 147:/home/zkmike/.local/share/renesas/e2_studio/toolchains/gcc_arm/gcc-arm-none-eabi-6-2017-q2-update/arm-none-eabi/include/c++/6.3.1/bits/stl_vector.h ****       : _M_impl(__a)
 148:/home/zkmike/.local/share/renesas/e2_studio/toolchains/gcc_arm/gcc-arm-none-eabi-6-2017-q2-update/arm-none-eabi/include/c++/6.3.1/bits/stl_vector.h ****       {
 149:/home/zkmike/.local/share/renesas/e2_studio/toolchains/gcc_arm/gcc-arm-none-eabi-6-2017-q2-update/arm-none-eabi/include/c++/6.3.1/bits/stl_vector.h **** 	if (__x.get_allocator() == __a)
 150:/home/zkmike/.local/share/renesas/e2_studio/toolchains/gcc_arm/gcc-arm-none-eabi-6-2017-q2-update/arm-none-eabi/include/c++/6.3.1/bits/stl_vector.h **** 	  this->_M_impl._M_swap_data(__x._M_impl);
 151:/home/zkmike/.local/share/renesas/e2_studio/toolchains/gcc_arm/gcc-arm-none-eabi-6-2017-q2-update/arm-none-eabi/include/c++/6.3.1/bits/stl_vector.h **** 	else
 152:/home/zkmike/.local/share/renesas/e2_studio/toolchains/gcc_arm/gcc-arm-none-eabi-6-2017-q2-update/arm-none-eabi/include/c++/6.3.1/bits/stl_vector.h **** 	  {
 153:/home/zkmike/.local/share/renesas/e2_studio/toolchains/gcc_arm/gcc-arm-none-eabi-6-2017-q2-update/arm-none-eabi/include/c++/6.3.1/bits/stl_vector.h **** 	    size_t __n = __x._M_impl._M_finish - __x._M_impl._M_start;
 154:/home/zkmike/.local/share/renesas/e2_studio/toolchains/gcc_arm/gcc-arm-none-eabi-6-2017-q2-update/arm-none-eabi/include/c++/6.3.1/bits/stl_vector.h **** 	    _M_create_storage(__n);
 155:/home/zkmike/.local/share/renesas/e2_studio/toolchains/gcc_arm/gcc-arm-none-eabi-6-2017-q2-update/arm-none-eabi/include/c++/6.3.1/bits/stl_vector.h **** 	  }
 156:/home/zkmike/.local/share/renesas/e2_studio/toolchains/gcc_arm/gcc-arm-none-eabi-6-2017-q2-update/arm-none-eabi/include/c++/6.3.1/bits/stl_vector.h ****       }
 157:/home/zkmike/.local/share/renesas/e2_studio/toolchains/gcc_arm/gcc-arm-none-eabi-6-2017-q2-update/arm-none-eabi/include/c++/6.3.1/bits/stl_vector.h **** #endif
 158:/home/zkmike/.local/share/renesas/e2_studio/toolchains/gcc_arm/gcc-arm-none-eabi-6-2017-q2-update/arm-none-eabi/include/c++/6.3.1/bits/stl_vector.h **** 
 159:/home/zkmike/.local/share/renesas/e2_studio/toolchains/gcc_arm/gcc-arm-none-eabi-6-2017-q2-update/arm-none-eabi/include/c++/6.3.1/bits/stl_vector.h ****       ~_Vector_base() _GLIBCXX_NOEXCEPT
 160:/home/zkmike/.local/share/renesas/e2_studio/toolchains/gcc_arm/gcc-arm-none-eabi-6-2017-q2-update/arm-none-eabi/include/c++/6.3.1/bits/stl_vector.h ****       { _M_deallocate(this->_M_impl._M_start, this->_M_impl._M_end_of_storage
 161:/home/zkmike/.local/share/renesas/e2_studio/toolchains/gcc_arm/gcc-arm-none-eabi-6-2017-q2-update/arm-none-eabi/include/c++/6.3.1/bits/stl_vector.h **** 		      - this->_M_impl._M_start); }
 162:/home/zkmike/.local/share/renesas/e2_studio/toolchains/gcc_arm/gcc-arm-none-eabi-6-2017-q2-update/arm-none-eabi/include/c++/6.3.1/bits/stl_vector.h **** 
 163:/home/zkmike/.local/share/renesas/e2_studio/toolchains/gcc_arm/gcc-arm-none-eabi-6-2017-q2-update/arm-none-eabi/include/c++/6.3.1/bits/stl_vector.h ****     public:
 164:/home/zkmike/.local/share/renesas/e2_studio/toolchains/gcc_arm/gcc-arm-none-eabi-6-2017-q2-update/arm-none-eabi/include/c++/6.3.1/bits/stl_vector.h ****       _Vector_impl _M_impl;
 165:/home/zkmike/.local/share/renesas/e2_studio/toolchains/gcc_arm/gcc-arm-none-eabi-6-2017-q2-update/arm-none-eabi/include/c++/6.3.1/bits/stl_vector.h **** 
 166:/home/zkmike/.local/share/renesas/e2_studio/toolchains/gcc_arm/gcc-arm-none-eabi-6-2017-q2-update/arm-none-eabi/include/c++/6.3.1/bits/stl_vector.h ****       pointer
 167:/home/zkmike/.local/share/renesas/e2_studio/toolchains/gcc_arm/gcc-arm-none-eabi-6-2017-q2-update/arm-none-eabi/include/c++/6.3.1/bits/stl_vector.h ****       _M_allocate(size_t __n)
 168:/home/zkmike/.local/share/renesas/e2_studio/toolchains/gcc_arm/gcc-arm-none-eabi-6-2017-q2-update/arm-none-eabi/include/c++/6.3.1/bits/stl_vector.h ****       {
 169:/home/zkmike/.local/share/renesas/e2_studio/toolchains/gcc_arm/gcc-arm-none-eabi-6-2017-q2-update/arm-none-eabi/include/c++/6.3.1/bits/stl_vector.h **** 	typedef __gnu_cxx::__alloc_traits<_Tp_alloc_type> _Tr;
 170:/home/zkmike/.local/share/renesas/e2_studio/toolchains/gcc_arm/gcc-arm-none-eabi-6-2017-q2-update/arm-none-eabi/include/c++/6.3.1/bits/stl_vector.h **** 	return __n != 0 ? _Tr::allocate(_M_impl, __n) : pointer();
 171:/home/zkmike/.local/share/renesas/e2_studio/toolchains/gcc_arm/gcc-arm-none-eabi-6-2017-q2-update/arm-none-eabi/include/c++/6.3.1/bits/stl_vector.h ****       }
 172:/home/zkmike/.local/share/renesas/e2_studio/toolchains/gcc_arm/gcc-arm-none-eabi-6-2017-q2-update/arm-none-eabi/include/c++/6.3.1/bits/stl_vector.h **** 
 173:/home/zkmike/.local/share/renesas/e2_studio/toolchains/gcc_arm/gcc-arm-none-eabi-6-2017-q2-update/arm-none-eabi/include/c++/6.3.1/bits/stl_vector.h ****       void
 174:/home/zkmike/.local/share/renesas/e2_studio/toolchains/gcc_arm/gcc-arm-none-eabi-6-2017-q2-update/arm-none-eabi/include/c++/6.3.1/bits/stl_vector.h ****       _M_deallocate(pointer __p, size_t __n)
 175:/home/zkmike/.local/share/renesas/e2_studio/toolchains/gcc_arm/gcc-arm-none-eabi-6-2017-q2-update/arm-none-eabi/include/c++/6.3.1/bits/stl_vector.h ****       {
 176:/home/zkmike/.local/share/renesas/e2_studio/toolchains/gcc_arm/gcc-arm-none-eabi-6-2017-q2-update/arm-none-eabi/include/c++/6.3.1/bits/stl_vector.h **** 	typedef __gnu_cxx::__alloc_traits<_Tp_alloc_type> _Tr;
 177:/home/zkmike/.local/share/renesas/e2_studio/toolchains/gcc_arm/gcc-arm-none-eabi-6-2017-q2-update/arm-none-eabi/include/c++/6.3.1/bits/stl_vector.h **** 	if (__p)
 178:/home/zkmike/.local/share/renesas/e2_studio/toolchains/gcc_arm/gcc-arm-none-eabi-6-2017-q2-update/arm-none-eabi/include/c++/6.3.1/bits/stl_vector.h **** 	  _Tr::deallocate(_M_impl, __p, __n);
 179:/home/zkmike/.local/share/renesas/e2_studio/toolchains/gcc_arm/gcc-arm-none-eabi-6-2017-q2-update/arm-none-eabi/include/c++/6.3.1/bits/stl_vector.h ****       }
 180:/home/zkmike/.local/share/renesas/e2_studio/toolchains/gcc_arm/gcc-arm-none-eabi-6-2017-q2-update/arm-none-eabi/include/c++/6.3.1/bits/stl_vector.h **** 
 181:/home/zkmike/.local/share/renesas/e2_studio/toolchains/gcc_arm/gcc-arm-none-eabi-6-2017-q2-update/arm-none-eabi/include/c++/6.3.1/bits/stl_vector.h ****     private:
 182:/home/zkmike/.local/share/renesas/e2_studio/toolchains/gcc_arm/gcc-arm-none-eabi-6-2017-q2-update/arm-none-eabi/include/c++/6.3.1/bits/stl_vector.h ****       void
 183:/home/zkmike/.local/share/renesas/e2_studio/toolchains/gcc_arm/gcc-arm-none-eabi-6-2017-q2-update/arm-none-eabi/include/c++/6.3.1/bits/stl_vector.h ****       _M_create_storage(size_t __n)
 184:/home/zkmike/.local/share/renesas/e2_studio/toolchains/gcc_arm/gcc-arm-none-eabi-6-2017-q2-update/arm-none-eabi/include/c++/6.3.1/bits/stl_vector.h ****       {
 185:/home/zkmike/.local/share/renesas/e2_studio/toolchains/gcc_arm/gcc-arm-none-eabi-6-2017-q2-update/arm-none-eabi/include/c++/6.3.1/bits/stl_vector.h **** 	this->_M_impl._M_start = this->_M_allocate(__n);
 186:/home/zkmike/.local/share/renesas/e2_studio/toolchains/gcc_arm/gcc-arm-none-eabi-6-2017-q2-update/arm-none-eabi/include/c++/6.3.1/bits/stl_vector.h **** 	this->_M_impl._M_finish = this->_M_impl._M_start;
 187:/home/zkmike/.local/share/renesas/e2_studio/toolchains/gcc_arm/gcc-arm-none-eabi-6-2017-q2-update/arm-none-eabi/include/c++/6.3.1/bits/stl_vector.h **** 	this->_M_impl._M_end_of_storage = this->_M_impl._M_start + __n;
 188:/home/zkmike/.local/share/renesas/e2_studio/toolchains/gcc_arm/gcc-arm-none-eabi-6-2017-q2-update/arm-none-eabi/include/c++/6.3.1/bits/stl_vector.h ****       }
 189:/home/zkmike/.local/share/renesas/e2_studio/toolchains/gcc_arm/gcc-arm-none-eabi-6-2017-q2-update/arm-none-eabi/include/c++/6.3.1/bits/stl_vector.h ****     };
 190:/home/zkmike/.local/share/renesas/e2_studio/toolchains/gcc_arm/gcc-arm-none-eabi-6-2017-q2-update/arm-none-eabi/include/c++/6.3.1/bits/stl_vector.h **** 
 191:/home/zkmike/.local/share/renesas/e2_studio/toolchains/gcc_arm/gcc-arm-none-eabi-6-2017-q2-update/arm-none-eabi/include/c++/6.3.1/bits/stl_vector.h **** 
 192:/home/zkmike/.local/share/renesas/e2_studio/toolchains/gcc_arm/gcc-arm-none-eabi-6-2017-q2-update/arm-none-eabi/include/c++/6.3.1/bits/stl_vector.h ****   /**
 193:/home/zkmike/.local/share/renesas/e2_studio/toolchains/gcc_arm/gcc-arm-none-eabi-6-2017-q2-update/arm-none-eabi/include/c++/6.3.1/bits/stl_vector.h ****    *  @brief A standard container which offers fixed time access to
 194:/home/zkmike/.local/share/renesas/e2_studio/toolchains/gcc_arm/gcc-arm-none-eabi-6-2017-q2-update/arm-none-eabi/include/c++/6.3.1/bits/stl_vector.h ****    *  individual elements in any order.
 195:/home/zkmike/.local/share/renesas/e2_studio/toolchains/gcc_arm/gcc-arm-none-eabi-6-2017-q2-update/arm-none-eabi/include/c++/6.3.1/bits/stl_vector.h ****    *
 196:/home/zkmike/.local/share/renesas/e2_studio/toolchains/gcc_arm/gcc-arm-none-eabi-6-2017-q2-update/arm-none-eabi/include/c++/6.3.1/bits/stl_vector.h ****    *  @ingroup sequences
 197:/home/zkmike/.local/share/renesas/e2_studio/toolchains/gcc_arm/gcc-arm-none-eabi-6-2017-q2-update/arm-none-eabi/include/c++/6.3.1/bits/stl_vector.h ****    *
 198:/home/zkmike/.local/share/renesas/e2_studio/toolchains/gcc_arm/gcc-arm-none-eabi-6-2017-q2-update/arm-none-eabi/include/c++/6.3.1/bits/stl_vector.h ****    *  @tparam _Tp  Type of element.
 199:/home/zkmike/.local/share/renesas/e2_studio/toolchains/gcc_arm/gcc-arm-none-eabi-6-2017-q2-update/arm-none-eabi/include/c++/6.3.1/bits/stl_vector.h ****    *  @tparam _Alloc  Allocator type, defaults to allocator<_Tp>.
 200:/home/zkmike/.local/share/renesas/e2_studio/toolchains/gcc_arm/gcc-arm-none-eabi-6-2017-q2-update/arm-none-eabi/include/c++/6.3.1/bits/stl_vector.h ****    *
 201:/home/zkmike/.local/share/renesas/e2_studio/toolchains/gcc_arm/gcc-arm-none-eabi-6-2017-q2-update/arm-none-eabi/include/c++/6.3.1/bits/stl_vector.h ****    *  Meets the requirements of a <a href="tables.html#65">container</a>, a
 202:/home/zkmike/.local/share/renesas/e2_studio/toolchains/gcc_arm/gcc-arm-none-eabi-6-2017-q2-update/arm-none-eabi/include/c++/6.3.1/bits/stl_vector.h ****    *  <a href="tables.html#66">reversible container</a>, and a
 203:/home/zkmike/.local/share/renesas/e2_studio/toolchains/gcc_arm/gcc-arm-none-eabi-6-2017-q2-update/arm-none-eabi/include/c++/6.3.1/bits/stl_vector.h ****    *  <a href="tables.html#67">sequence</a>, including the
 204:/home/zkmike/.local/share/renesas/e2_studio/toolchains/gcc_arm/gcc-arm-none-eabi-6-2017-q2-update/arm-none-eabi/include/c++/6.3.1/bits/stl_vector.h ****    *  <a href="tables.html#68">optional sequence requirements</a> with the
 205:/home/zkmike/.local/share/renesas/e2_studio/toolchains/gcc_arm/gcc-arm-none-eabi-6-2017-q2-update/arm-none-eabi/include/c++/6.3.1/bits/stl_vector.h ****    *  %exception of @c push_front and @c pop_front.
 206:/home/zkmike/.local/share/renesas/e2_studio/toolchains/gcc_arm/gcc-arm-none-eabi-6-2017-q2-update/arm-none-eabi/include/c++/6.3.1/bits/stl_vector.h ****    *
 207:/home/zkmike/.local/share/renesas/e2_studio/toolchains/gcc_arm/gcc-arm-none-eabi-6-2017-q2-update/arm-none-eabi/include/c++/6.3.1/bits/stl_vector.h ****    *  In some terminology a %vector can be described as a dynamic
 208:/home/zkmike/.local/share/renesas/e2_studio/toolchains/gcc_arm/gcc-arm-none-eabi-6-2017-q2-update/arm-none-eabi/include/c++/6.3.1/bits/stl_vector.h ****    *  C-style array, it offers fast and efficient access to individual
 209:/home/zkmike/.local/share/renesas/e2_studio/toolchains/gcc_arm/gcc-arm-none-eabi-6-2017-q2-update/arm-none-eabi/include/c++/6.3.1/bits/stl_vector.h ****    *  elements in any order and saves the user from worrying about
 210:/home/zkmike/.local/share/renesas/e2_studio/toolchains/gcc_arm/gcc-arm-none-eabi-6-2017-q2-update/arm-none-eabi/include/c++/6.3.1/bits/stl_vector.h ****    *  memory and size allocation.  Subscripting ( @c [] ) access is
 211:/home/zkmike/.local/share/renesas/e2_studio/toolchains/gcc_arm/gcc-arm-none-eabi-6-2017-q2-update/arm-none-eabi/include/c++/6.3.1/bits/stl_vector.h ****    *  also provided as with C-style arrays.
 212:/home/zkmike/.local/share/renesas/e2_studio/toolchains/gcc_arm/gcc-arm-none-eabi-6-2017-q2-update/arm-none-eabi/include/c++/6.3.1/bits/stl_vector.h ****   */
 213:/home/zkmike/.local/share/renesas/e2_studio/toolchains/gcc_arm/gcc-arm-none-eabi-6-2017-q2-update/arm-none-eabi/include/c++/6.3.1/bits/stl_vector.h ****   template<typename _Tp, typename _Alloc = std::allocator<_Tp> >
 214:/home/zkmike/.local/share/renesas/e2_studio/toolchains/gcc_arm/gcc-arm-none-eabi-6-2017-q2-update/arm-none-eabi/include/c++/6.3.1/bits/stl_vector.h ****     class vector : protected _Vector_base<_Tp, _Alloc>
 215:/home/zkmike/.local/share/renesas/e2_studio/toolchains/gcc_arm/gcc-arm-none-eabi-6-2017-q2-update/arm-none-eabi/include/c++/6.3.1/bits/stl_vector.h ****     {
 216:/home/zkmike/.local/share/renesas/e2_studio/toolchains/gcc_arm/gcc-arm-none-eabi-6-2017-q2-update/arm-none-eabi/include/c++/6.3.1/bits/stl_vector.h ****       // Concept requirements.
 217:/home/zkmike/.local/share/renesas/e2_studio/toolchains/gcc_arm/gcc-arm-none-eabi-6-2017-q2-update/arm-none-eabi/include/c++/6.3.1/bits/stl_vector.h ****       typedef typename _Alloc::value_type                _Alloc_value_type;
 218:/home/zkmike/.local/share/renesas/e2_studio/toolchains/gcc_arm/gcc-arm-none-eabi-6-2017-q2-update/arm-none-eabi/include/c++/6.3.1/bits/stl_vector.h **** #if __cplusplus < 201103L
 219:/home/zkmike/.local/share/renesas/e2_studio/toolchains/gcc_arm/gcc-arm-none-eabi-6-2017-q2-update/arm-none-eabi/include/c++/6.3.1/bits/stl_vector.h ****       __glibcxx_class_requires(_Tp, _SGIAssignableConcept)
 220:/home/zkmike/.local/share/renesas/e2_studio/toolchains/gcc_arm/gcc-arm-none-eabi-6-2017-q2-update/arm-none-eabi/include/c++/6.3.1/bits/stl_vector.h **** #endif
 221:/home/zkmike/.local/share/renesas/e2_studio/toolchains/gcc_arm/gcc-arm-none-eabi-6-2017-q2-update/arm-none-eabi/include/c++/6.3.1/bits/stl_vector.h ****       __glibcxx_class_requires2(_Tp, _Alloc_value_type, _SameTypeConcept)
 222:/home/zkmike/.local/share/renesas/e2_studio/toolchains/gcc_arm/gcc-arm-none-eabi-6-2017-q2-update/arm-none-eabi/include/c++/6.3.1/bits/stl_vector.h ****       
 223:/home/zkmike/.local/share/renesas/e2_studio/toolchains/gcc_arm/gcc-arm-none-eabi-6-2017-q2-update/arm-none-eabi/include/c++/6.3.1/bits/stl_vector.h ****       typedef _Vector_base<_Tp, _Alloc>			 _Base;
 224:/home/zkmike/.local/share/renesas/e2_studio/toolchains/gcc_arm/gcc-arm-none-eabi-6-2017-q2-update/arm-none-eabi/include/c++/6.3.1/bits/stl_vector.h ****       typedef typename _Base::_Tp_alloc_type		 _Tp_alloc_type;
 225:/home/zkmike/.local/share/renesas/e2_studio/toolchains/gcc_arm/gcc-arm-none-eabi-6-2017-q2-update/arm-none-eabi/include/c++/6.3.1/bits/stl_vector.h ****       typedef __gnu_cxx::__alloc_traits<_Tp_alloc_type>  _Alloc_traits;
 226:/home/zkmike/.local/share/renesas/e2_studio/toolchains/gcc_arm/gcc-arm-none-eabi-6-2017-q2-update/arm-none-eabi/include/c++/6.3.1/bits/stl_vector.h **** 
 227:/home/zkmike/.local/share/renesas/e2_studio/toolchains/gcc_arm/gcc-arm-none-eabi-6-2017-q2-update/arm-none-eabi/include/c++/6.3.1/bits/stl_vector.h ****     public:
 228:/home/zkmike/.local/share/renesas/e2_studio/toolchains/gcc_arm/gcc-arm-none-eabi-6-2017-q2-update/arm-none-eabi/include/c++/6.3.1/bits/stl_vector.h ****       typedef _Tp					 value_type;
 229:/home/zkmike/.local/share/renesas/e2_studio/toolchains/gcc_arm/gcc-arm-none-eabi-6-2017-q2-update/arm-none-eabi/include/c++/6.3.1/bits/stl_vector.h ****       typedef typename _Base::pointer                    pointer;
 230:/home/zkmike/.local/share/renesas/e2_studio/toolchains/gcc_arm/gcc-arm-none-eabi-6-2017-q2-update/arm-none-eabi/include/c++/6.3.1/bits/stl_vector.h ****       typedef typename _Alloc_traits::const_pointer      const_pointer;
 231:/home/zkmike/.local/share/renesas/e2_studio/toolchains/gcc_arm/gcc-arm-none-eabi-6-2017-q2-update/arm-none-eabi/include/c++/6.3.1/bits/stl_vector.h ****       typedef typename _Alloc_traits::reference          reference;
 232:/home/zkmike/.local/share/renesas/e2_studio/toolchains/gcc_arm/gcc-arm-none-eabi-6-2017-q2-update/arm-none-eabi/include/c++/6.3.1/bits/stl_vector.h ****       typedef typename _Alloc_traits::const_reference    const_reference;
 233:/home/zkmike/.local/share/renesas/e2_studio/toolchains/gcc_arm/gcc-arm-none-eabi-6-2017-q2-update/arm-none-eabi/include/c++/6.3.1/bits/stl_vector.h ****       typedef __gnu_cxx::__normal_iterator<pointer, vector> iterator;
 234:/home/zkmike/.local/share/renesas/e2_studio/toolchains/gcc_arm/gcc-arm-none-eabi-6-2017-q2-update/arm-none-eabi/include/c++/6.3.1/bits/stl_vector.h ****       typedef __gnu_cxx::__normal_iterator<const_pointer, vector>
 235:/home/zkmike/.local/share/renesas/e2_studio/toolchains/gcc_arm/gcc-arm-none-eabi-6-2017-q2-update/arm-none-eabi/include/c++/6.3.1/bits/stl_vector.h ****       const_iterator;
 236:/home/zkmike/.local/share/renesas/e2_studio/toolchains/gcc_arm/gcc-arm-none-eabi-6-2017-q2-update/arm-none-eabi/include/c++/6.3.1/bits/stl_vector.h ****       typedef std::reverse_iterator<const_iterator>  const_reverse_iterator;
 237:/home/zkmike/.local/share/renesas/e2_studio/toolchains/gcc_arm/gcc-arm-none-eabi-6-2017-q2-update/arm-none-eabi/include/c++/6.3.1/bits/stl_vector.h ****       typedef std::reverse_iterator<iterator>		 reverse_iterator;
 238:/home/zkmike/.local/share/renesas/e2_studio/toolchains/gcc_arm/gcc-arm-none-eabi-6-2017-q2-update/arm-none-eabi/include/c++/6.3.1/bits/stl_vector.h ****       typedef size_t					 size_type;
 239:/home/zkmike/.local/share/renesas/e2_studio/toolchains/gcc_arm/gcc-arm-none-eabi-6-2017-q2-update/arm-none-eabi/include/c++/6.3.1/bits/stl_vector.h ****       typedef ptrdiff_t					 difference_type;
 240:/home/zkmike/.local/share/renesas/e2_studio/toolchains/gcc_arm/gcc-arm-none-eabi-6-2017-q2-update/arm-none-eabi/include/c++/6.3.1/bits/stl_vector.h ****       typedef _Alloc                        		 allocator_type;
 241:/home/zkmike/.local/share/renesas/e2_studio/toolchains/gcc_arm/gcc-arm-none-eabi-6-2017-q2-update/arm-none-eabi/include/c++/6.3.1/bits/stl_vector.h **** 
 242:/home/zkmike/.local/share/renesas/e2_studio/toolchains/gcc_arm/gcc-arm-none-eabi-6-2017-q2-update/arm-none-eabi/include/c++/6.3.1/bits/stl_vector.h ****     protected:
 243:/home/zkmike/.local/share/renesas/e2_studio/toolchains/gcc_arm/gcc-arm-none-eabi-6-2017-q2-update/arm-none-eabi/include/c++/6.3.1/bits/stl_vector.h ****       using _Base::_M_allocate;
 244:/home/zkmike/.local/share/renesas/e2_studio/toolchains/gcc_arm/gcc-arm-none-eabi-6-2017-q2-update/arm-none-eabi/include/c++/6.3.1/bits/stl_vector.h ****       using _Base::_M_deallocate;
 245:/home/zkmike/.local/share/renesas/e2_studio/toolchains/gcc_arm/gcc-arm-none-eabi-6-2017-q2-update/arm-none-eabi/include/c++/6.3.1/bits/stl_vector.h ****       using _Base::_M_impl;
 246:/home/zkmike/.local/share/renesas/e2_studio/toolchains/gcc_arm/gcc-arm-none-eabi-6-2017-q2-update/arm-none-eabi/include/c++/6.3.1/bits/stl_vector.h ****       using _Base::_M_get_Tp_allocator;
 247:/home/zkmike/.local/share/renesas/e2_studio/toolchains/gcc_arm/gcc-arm-none-eabi-6-2017-q2-update/arm-none-eabi/include/c++/6.3.1/bits/stl_vector.h **** 
 248:/home/zkmike/.local/share/renesas/e2_studio/toolchains/gcc_arm/gcc-arm-none-eabi-6-2017-q2-update/arm-none-eabi/include/c++/6.3.1/bits/stl_vector.h ****     public:
 249:/home/zkmike/.local/share/renesas/e2_studio/toolchains/gcc_arm/gcc-arm-none-eabi-6-2017-q2-update/arm-none-eabi/include/c++/6.3.1/bits/stl_vector.h ****       // [23.2.4.1] construct/copy/destroy
 250:/home/zkmike/.local/share/renesas/e2_studio/toolchains/gcc_arm/gcc-arm-none-eabi-6-2017-q2-update/arm-none-eabi/include/c++/6.3.1/bits/stl_vector.h ****       // (assign() and get_allocator() are also listed in this section)
 251:/home/zkmike/.local/share/renesas/e2_studio/toolchains/gcc_arm/gcc-arm-none-eabi-6-2017-q2-update/arm-none-eabi/include/c++/6.3.1/bits/stl_vector.h **** 
 252:/home/zkmike/.local/share/renesas/e2_studio/toolchains/gcc_arm/gcc-arm-none-eabi-6-2017-q2-update/arm-none-eabi/include/c++/6.3.1/bits/stl_vector.h ****       /**
 253:/home/zkmike/.local/share/renesas/e2_studio/toolchains/gcc_arm/gcc-arm-none-eabi-6-2017-q2-update/arm-none-eabi/include/c++/6.3.1/bits/stl_vector.h ****        *  @brief  Creates a %vector with no elements.
 254:/home/zkmike/.local/share/renesas/e2_studio/toolchains/gcc_arm/gcc-arm-none-eabi-6-2017-q2-update/arm-none-eabi/include/c++/6.3.1/bits/stl_vector.h ****        */
 255:/home/zkmike/.local/share/renesas/e2_studio/toolchains/gcc_arm/gcc-arm-none-eabi-6-2017-q2-update/arm-none-eabi/include/c++/6.3.1/bits/stl_vector.h ****       vector()
 256:/home/zkmike/.local/share/renesas/e2_studio/toolchains/gcc_arm/gcc-arm-none-eabi-6-2017-q2-update/arm-none-eabi/include/c++/6.3.1/bits/stl_vector.h **** #if __cplusplus >= 201103L
 257:/home/zkmike/.local/share/renesas/e2_studio/toolchains/gcc_arm/gcc-arm-none-eabi-6-2017-q2-update/arm-none-eabi/include/c++/6.3.1/bits/stl_vector.h ****       noexcept(is_nothrow_default_constructible<_Alloc>::value)
 258:/home/zkmike/.local/share/renesas/e2_studio/toolchains/gcc_arm/gcc-arm-none-eabi-6-2017-q2-update/arm-none-eabi/include/c++/6.3.1/bits/stl_vector.h **** #endif
 259:/home/zkmike/.local/share/renesas/e2_studio/toolchains/gcc_arm/gcc-arm-none-eabi-6-2017-q2-update/arm-none-eabi/include/c++/6.3.1/bits/stl_vector.h ****       : _Base() { }
 260:/home/zkmike/.local/share/renesas/e2_studio/toolchains/gcc_arm/gcc-arm-none-eabi-6-2017-q2-update/arm-none-eabi/include/c++/6.3.1/bits/stl_vector.h **** 
 261:/home/zkmike/.local/share/renesas/e2_studio/toolchains/gcc_arm/gcc-arm-none-eabi-6-2017-q2-update/arm-none-eabi/include/c++/6.3.1/bits/stl_vector.h ****       /**
 262:/home/zkmike/.local/share/renesas/e2_studio/toolchains/gcc_arm/gcc-arm-none-eabi-6-2017-q2-update/arm-none-eabi/include/c++/6.3.1/bits/stl_vector.h ****        *  @brief  Creates a %vector with no elements.
 263:/home/zkmike/.local/share/renesas/e2_studio/toolchains/gcc_arm/gcc-arm-none-eabi-6-2017-q2-update/arm-none-eabi/include/c++/6.3.1/bits/stl_vector.h ****        *  @param  __a  An allocator object.
 264:/home/zkmike/.local/share/renesas/e2_studio/toolchains/gcc_arm/gcc-arm-none-eabi-6-2017-q2-update/arm-none-eabi/include/c++/6.3.1/bits/stl_vector.h ****        */
 265:/home/zkmike/.local/share/renesas/e2_studio/toolchains/gcc_arm/gcc-arm-none-eabi-6-2017-q2-update/arm-none-eabi/include/c++/6.3.1/bits/stl_vector.h ****       explicit
 266:/home/zkmike/.local/share/renesas/e2_studio/toolchains/gcc_arm/gcc-arm-none-eabi-6-2017-q2-update/arm-none-eabi/include/c++/6.3.1/bits/stl_vector.h ****       vector(const allocator_type& __a) _GLIBCXX_NOEXCEPT
 267:/home/zkmike/.local/share/renesas/e2_studio/toolchains/gcc_arm/gcc-arm-none-eabi-6-2017-q2-update/arm-none-eabi/include/c++/6.3.1/bits/stl_vector.h ****       : _Base(__a) { }
 268:/home/zkmike/.local/share/renesas/e2_studio/toolchains/gcc_arm/gcc-arm-none-eabi-6-2017-q2-update/arm-none-eabi/include/c++/6.3.1/bits/stl_vector.h **** 
 269:/home/zkmike/.local/share/renesas/e2_studio/toolchains/gcc_arm/gcc-arm-none-eabi-6-2017-q2-update/arm-none-eabi/include/c++/6.3.1/bits/stl_vector.h **** #if __cplusplus >= 201103L
 270:/home/zkmike/.local/share/renesas/e2_studio/toolchains/gcc_arm/gcc-arm-none-eabi-6-2017-q2-update/arm-none-eabi/include/c++/6.3.1/bits/stl_vector.h ****       /**
 271:/home/zkmike/.local/share/renesas/e2_studio/toolchains/gcc_arm/gcc-arm-none-eabi-6-2017-q2-update/arm-none-eabi/include/c++/6.3.1/bits/stl_vector.h ****        *  @brief  Creates a %vector with default constructed elements.
 272:/home/zkmike/.local/share/renesas/e2_studio/toolchains/gcc_arm/gcc-arm-none-eabi-6-2017-q2-update/arm-none-eabi/include/c++/6.3.1/bits/stl_vector.h ****        *  @param  __n  The number of elements to initially create.
 273:/home/zkmike/.local/share/renesas/e2_studio/toolchains/gcc_arm/gcc-arm-none-eabi-6-2017-q2-update/arm-none-eabi/include/c++/6.3.1/bits/stl_vector.h ****        *  @param  __a  An allocator.
 274:/home/zkmike/.local/share/renesas/e2_studio/toolchains/gcc_arm/gcc-arm-none-eabi-6-2017-q2-update/arm-none-eabi/include/c++/6.3.1/bits/stl_vector.h ****        *
 275:/home/zkmike/.local/share/renesas/e2_studio/toolchains/gcc_arm/gcc-arm-none-eabi-6-2017-q2-update/arm-none-eabi/include/c++/6.3.1/bits/stl_vector.h ****        *  This constructor fills the %vector with @a __n default
 276:/home/zkmike/.local/share/renesas/e2_studio/toolchains/gcc_arm/gcc-arm-none-eabi-6-2017-q2-update/arm-none-eabi/include/c++/6.3.1/bits/stl_vector.h ****        *  constructed elements.
 277:/home/zkmike/.local/share/renesas/e2_studio/toolchains/gcc_arm/gcc-arm-none-eabi-6-2017-q2-update/arm-none-eabi/include/c++/6.3.1/bits/stl_vector.h ****        */
 278:/home/zkmike/.local/share/renesas/e2_studio/toolchains/gcc_arm/gcc-arm-none-eabi-6-2017-q2-update/arm-none-eabi/include/c++/6.3.1/bits/stl_vector.h ****       explicit
 279:/home/zkmike/.local/share/renesas/e2_studio/toolchains/gcc_arm/gcc-arm-none-eabi-6-2017-q2-update/arm-none-eabi/include/c++/6.3.1/bits/stl_vector.h ****       vector(size_type __n, const allocator_type& __a = allocator_type())
 280:/home/zkmike/.local/share/renesas/e2_studio/toolchains/gcc_arm/gcc-arm-none-eabi-6-2017-q2-update/arm-none-eabi/include/c++/6.3.1/bits/stl_vector.h ****       : _Base(__n, __a)
 281:/home/zkmike/.local/share/renesas/e2_studio/toolchains/gcc_arm/gcc-arm-none-eabi-6-2017-q2-update/arm-none-eabi/include/c++/6.3.1/bits/stl_vector.h ****       { _M_default_initialize(__n); }
 282:/home/zkmike/.local/share/renesas/e2_studio/toolchains/gcc_arm/gcc-arm-none-eabi-6-2017-q2-update/arm-none-eabi/include/c++/6.3.1/bits/stl_vector.h **** 
 283:/home/zkmike/.local/share/renesas/e2_studio/toolchains/gcc_arm/gcc-arm-none-eabi-6-2017-q2-update/arm-none-eabi/include/c++/6.3.1/bits/stl_vector.h ****       /**
 284:/home/zkmike/.local/share/renesas/e2_studio/toolchains/gcc_arm/gcc-arm-none-eabi-6-2017-q2-update/arm-none-eabi/include/c++/6.3.1/bits/stl_vector.h ****        *  @brief  Creates a %vector with copies of an exemplar element.
 285:/home/zkmike/.local/share/renesas/e2_studio/toolchains/gcc_arm/gcc-arm-none-eabi-6-2017-q2-update/arm-none-eabi/include/c++/6.3.1/bits/stl_vector.h ****        *  @param  __n  The number of elements to initially create.
 286:/home/zkmike/.local/share/renesas/e2_studio/toolchains/gcc_arm/gcc-arm-none-eabi-6-2017-q2-update/arm-none-eabi/include/c++/6.3.1/bits/stl_vector.h ****        *  @param  __value  An element to copy.
 287:/home/zkmike/.local/share/renesas/e2_studio/toolchains/gcc_arm/gcc-arm-none-eabi-6-2017-q2-update/arm-none-eabi/include/c++/6.3.1/bits/stl_vector.h ****        *  @param  __a  An allocator.
 288:/home/zkmike/.local/share/renesas/e2_studio/toolchains/gcc_arm/gcc-arm-none-eabi-6-2017-q2-update/arm-none-eabi/include/c++/6.3.1/bits/stl_vector.h ****        *
 289:/home/zkmike/.local/share/renesas/e2_studio/toolchains/gcc_arm/gcc-arm-none-eabi-6-2017-q2-update/arm-none-eabi/include/c++/6.3.1/bits/stl_vector.h ****        *  This constructor fills the %vector with @a __n copies of @a __value.
 290:/home/zkmike/.local/share/renesas/e2_studio/toolchains/gcc_arm/gcc-arm-none-eabi-6-2017-q2-update/arm-none-eabi/include/c++/6.3.1/bits/stl_vector.h ****        */
 291:/home/zkmike/.local/share/renesas/e2_studio/toolchains/gcc_arm/gcc-arm-none-eabi-6-2017-q2-update/arm-none-eabi/include/c++/6.3.1/bits/stl_vector.h ****       vector(size_type __n, const value_type& __value,
 292:/home/zkmike/.local/share/renesas/e2_studio/toolchains/gcc_arm/gcc-arm-none-eabi-6-2017-q2-update/arm-none-eabi/include/c++/6.3.1/bits/stl_vector.h **** 	     const allocator_type& __a = allocator_type())
 293:/home/zkmike/.local/share/renesas/e2_studio/toolchains/gcc_arm/gcc-arm-none-eabi-6-2017-q2-update/arm-none-eabi/include/c++/6.3.1/bits/stl_vector.h ****       : _Base(__n, __a)
 294:/home/zkmike/.local/share/renesas/e2_studio/toolchains/gcc_arm/gcc-arm-none-eabi-6-2017-q2-update/arm-none-eabi/include/c++/6.3.1/bits/stl_vector.h ****       { _M_fill_initialize(__n, __value); }
 295:/home/zkmike/.local/share/renesas/e2_studio/toolchains/gcc_arm/gcc-arm-none-eabi-6-2017-q2-update/arm-none-eabi/include/c++/6.3.1/bits/stl_vector.h **** #else
 296:/home/zkmike/.local/share/renesas/e2_studio/toolchains/gcc_arm/gcc-arm-none-eabi-6-2017-q2-update/arm-none-eabi/include/c++/6.3.1/bits/stl_vector.h ****       /**
 297:/home/zkmike/.local/share/renesas/e2_studio/toolchains/gcc_arm/gcc-arm-none-eabi-6-2017-q2-update/arm-none-eabi/include/c++/6.3.1/bits/stl_vector.h ****        *  @brief  Creates a %vector with copies of an exemplar element.
 298:/home/zkmike/.local/share/renesas/e2_studio/toolchains/gcc_arm/gcc-arm-none-eabi-6-2017-q2-update/arm-none-eabi/include/c++/6.3.1/bits/stl_vector.h ****        *  @param  __n  The number of elements to initially create.
 299:/home/zkmike/.local/share/renesas/e2_studio/toolchains/gcc_arm/gcc-arm-none-eabi-6-2017-q2-update/arm-none-eabi/include/c++/6.3.1/bits/stl_vector.h ****        *  @param  __value  An element to copy.
 300:/home/zkmike/.local/share/renesas/e2_studio/toolchains/gcc_arm/gcc-arm-none-eabi-6-2017-q2-update/arm-none-eabi/include/c++/6.3.1/bits/stl_vector.h ****        *  @param  __a  An allocator.
 301:/home/zkmike/.local/share/renesas/e2_studio/toolchains/gcc_arm/gcc-arm-none-eabi-6-2017-q2-update/arm-none-eabi/include/c++/6.3.1/bits/stl_vector.h ****        *
 302:/home/zkmike/.local/share/renesas/e2_studio/toolchains/gcc_arm/gcc-arm-none-eabi-6-2017-q2-update/arm-none-eabi/include/c++/6.3.1/bits/stl_vector.h ****        *  This constructor fills the %vector with @a __n copies of @a __value.
 303:/home/zkmike/.local/share/renesas/e2_studio/toolchains/gcc_arm/gcc-arm-none-eabi-6-2017-q2-update/arm-none-eabi/include/c++/6.3.1/bits/stl_vector.h ****        */
 304:/home/zkmike/.local/share/renesas/e2_studio/toolchains/gcc_arm/gcc-arm-none-eabi-6-2017-q2-update/arm-none-eabi/include/c++/6.3.1/bits/stl_vector.h ****       explicit
 305:/home/zkmike/.local/share/renesas/e2_studio/toolchains/gcc_arm/gcc-arm-none-eabi-6-2017-q2-update/arm-none-eabi/include/c++/6.3.1/bits/stl_vector.h ****       vector(size_type __n, const value_type& __value = value_type(),
 306:/home/zkmike/.local/share/renesas/e2_studio/toolchains/gcc_arm/gcc-arm-none-eabi-6-2017-q2-update/arm-none-eabi/include/c++/6.3.1/bits/stl_vector.h **** 	     const allocator_type& __a = allocator_type())
 307:/home/zkmike/.local/share/renesas/e2_studio/toolchains/gcc_arm/gcc-arm-none-eabi-6-2017-q2-update/arm-none-eabi/include/c++/6.3.1/bits/stl_vector.h ****       : _Base(__n, __a)
 308:/home/zkmike/.local/share/renesas/e2_studio/toolchains/gcc_arm/gcc-arm-none-eabi-6-2017-q2-update/arm-none-eabi/include/c++/6.3.1/bits/stl_vector.h ****       { _M_fill_initialize(__n, __value); }
 309:/home/zkmike/.local/share/renesas/e2_studio/toolchains/gcc_arm/gcc-arm-none-eabi-6-2017-q2-update/arm-none-eabi/include/c++/6.3.1/bits/stl_vector.h **** #endif
 310:/home/zkmike/.local/share/renesas/e2_studio/toolchains/gcc_arm/gcc-arm-none-eabi-6-2017-q2-update/arm-none-eabi/include/c++/6.3.1/bits/stl_vector.h **** 
 311:/home/zkmike/.local/share/renesas/e2_studio/toolchains/gcc_arm/gcc-arm-none-eabi-6-2017-q2-update/arm-none-eabi/include/c++/6.3.1/bits/stl_vector.h ****       /**
 312:/home/zkmike/.local/share/renesas/e2_studio/toolchains/gcc_arm/gcc-arm-none-eabi-6-2017-q2-update/arm-none-eabi/include/c++/6.3.1/bits/stl_vector.h ****        *  @brief  %Vector copy constructor.
 313:/home/zkmike/.local/share/renesas/e2_studio/toolchains/gcc_arm/gcc-arm-none-eabi-6-2017-q2-update/arm-none-eabi/include/c++/6.3.1/bits/stl_vector.h ****        *  @param  __x  A %vector of identical element and allocator types.
 314:/home/zkmike/.local/share/renesas/e2_studio/toolchains/gcc_arm/gcc-arm-none-eabi-6-2017-q2-update/arm-none-eabi/include/c++/6.3.1/bits/stl_vector.h ****        *
 315:/home/zkmike/.local/share/renesas/e2_studio/toolchains/gcc_arm/gcc-arm-none-eabi-6-2017-q2-update/arm-none-eabi/include/c++/6.3.1/bits/stl_vector.h ****        *  The newly-created %vector uses a copy of the allocation
 316:/home/zkmike/.local/share/renesas/e2_studio/toolchains/gcc_arm/gcc-arm-none-eabi-6-2017-q2-update/arm-none-eabi/include/c++/6.3.1/bits/stl_vector.h ****        *  object used by @a __x.  All the elements of @a __x are copied,
 317:/home/zkmike/.local/share/renesas/e2_studio/toolchains/gcc_arm/gcc-arm-none-eabi-6-2017-q2-update/arm-none-eabi/include/c++/6.3.1/bits/stl_vector.h ****        *  but any extra memory in
 318:/home/zkmike/.local/share/renesas/e2_studio/toolchains/gcc_arm/gcc-arm-none-eabi-6-2017-q2-update/arm-none-eabi/include/c++/6.3.1/bits/stl_vector.h ****        *  @a __x (for fast expansion) will not be copied.
 319:/home/zkmike/.local/share/renesas/e2_studio/toolchains/gcc_arm/gcc-arm-none-eabi-6-2017-q2-update/arm-none-eabi/include/c++/6.3.1/bits/stl_vector.h ****        */
 320:/home/zkmike/.local/share/renesas/e2_studio/toolchains/gcc_arm/gcc-arm-none-eabi-6-2017-q2-update/arm-none-eabi/include/c++/6.3.1/bits/stl_vector.h ****       vector(const vector& __x)
 321:/home/zkmike/.local/share/renesas/e2_studio/toolchains/gcc_arm/gcc-arm-none-eabi-6-2017-q2-update/arm-none-eabi/include/c++/6.3.1/bits/stl_vector.h ****       : _Base(__x.size(),
 322:/home/zkmike/.local/share/renesas/e2_studio/toolchains/gcc_arm/gcc-arm-none-eabi-6-2017-q2-update/arm-none-eabi/include/c++/6.3.1/bits/stl_vector.h ****         _Alloc_traits::_S_select_on_copy(__x._M_get_Tp_allocator()))
 323:/home/zkmike/.local/share/renesas/e2_studio/toolchains/gcc_arm/gcc-arm-none-eabi-6-2017-q2-update/arm-none-eabi/include/c++/6.3.1/bits/stl_vector.h ****       { this->_M_impl._M_finish =
 324:/home/zkmike/.local/share/renesas/e2_studio/toolchains/gcc_arm/gcc-arm-none-eabi-6-2017-q2-update/arm-none-eabi/include/c++/6.3.1/bits/stl_vector.h **** 	  std::__uninitialized_copy_a(__x.begin(), __x.end(),
 325:/home/zkmike/.local/share/renesas/e2_studio/toolchains/gcc_arm/gcc-arm-none-eabi-6-2017-q2-update/arm-none-eabi/include/c++/6.3.1/bits/stl_vector.h **** 				      this->_M_impl._M_start,
 326:/home/zkmike/.local/share/renesas/e2_studio/toolchains/gcc_arm/gcc-arm-none-eabi-6-2017-q2-update/arm-none-eabi/include/c++/6.3.1/bits/stl_vector.h **** 				      _M_get_Tp_allocator());
 327:/home/zkmike/.local/share/renesas/e2_studio/toolchains/gcc_arm/gcc-arm-none-eabi-6-2017-q2-update/arm-none-eabi/include/c++/6.3.1/bits/stl_vector.h ****       }
 328:/home/zkmike/.local/share/renesas/e2_studio/toolchains/gcc_arm/gcc-arm-none-eabi-6-2017-q2-update/arm-none-eabi/include/c++/6.3.1/bits/stl_vector.h **** 
 329:/home/zkmike/.local/share/renesas/e2_studio/toolchains/gcc_arm/gcc-arm-none-eabi-6-2017-q2-update/arm-none-eabi/include/c++/6.3.1/bits/stl_vector.h **** #if __cplusplus >= 201103L
 330:/home/zkmike/.local/share/renesas/e2_studio/toolchains/gcc_arm/gcc-arm-none-eabi-6-2017-q2-update/arm-none-eabi/include/c++/6.3.1/bits/stl_vector.h ****       /**
 331:/home/zkmike/.local/share/renesas/e2_studio/toolchains/gcc_arm/gcc-arm-none-eabi-6-2017-q2-update/arm-none-eabi/include/c++/6.3.1/bits/stl_vector.h ****        *  @brief  %Vector move constructor.
 332:/home/zkmike/.local/share/renesas/e2_studio/toolchains/gcc_arm/gcc-arm-none-eabi-6-2017-q2-update/arm-none-eabi/include/c++/6.3.1/bits/stl_vector.h ****        *  @param  __x  A %vector of identical element and allocator types.
 333:/home/zkmike/.local/share/renesas/e2_studio/toolchains/gcc_arm/gcc-arm-none-eabi-6-2017-q2-update/arm-none-eabi/include/c++/6.3.1/bits/stl_vector.h ****        *
 334:/home/zkmike/.local/share/renesas/e2_studio/toolchains/gcc_arm/gcc-arm-none-eabi-6-2017-q2-update/arm-none-eabi/include/c++/6.3.1/bits/stl_vector.h ****        *  The newly-created %vector contains the exact contents of @a __x.
 335:/home/zkmike/.local/share/renesas/e2_studio/toolchains/gcc_arm/gcc-arm-none-eabi-6-2017-q2-update/arm-none-eabi/include/c++/6.3.1/bits/stl_vector.h ****        *  The contents of @a __x are a valid, but unspecified %vector.
 336:/home/zkmike/.local/share/renesas/e2_studio/toolchains/gcc_arm/gcc-arm-none-eabi-6-2017-q2-update/arm-none-eabi/include/c++/6.3.1/bits/stl_vector.h ****        */
 337:/home/zkmike/.local/share/renesas/e2_studio/toolchains/gcc_arm/gcc-arm-none-eabi-6-2017-q2-update/arm-none-eabi/include/c++/6.3.1/bits/stl_vector.h ****       vector(vector&& __x) noexcept
 338:/home/zkmike/.local/share/renesas/e2_studio/toolchains/gcc_arm/gcc-arm-none-eabi-6-2017-q2-update/arm-none-eabi/include/c++/6.3.1/bits/stl_vector.h ****       : _Base(std::move(__x)) { }
 339:/home/zkmike/.local/share/renesas/e2_studio/toolchains/gcc_arm/gcc-arm-none-eabi-6-2017-q2-update/arm-none-eabi/include/c++/6.3.1/bits/stl_vector.h **** 
 340:/home/zkmike/.local/share/renesas/e2_studio/toolchains/gcc_arm/gcc-arm-none-eabi-6-2017-q2-update/arm-none-eabi/include/c++/6.3.1/bits/stl_vector.h ****       /// Copy constructor with alternative allocator
 341:/home/zkmike/.local/share/renesas/e2_studio/toolchains/gcc_arm/gcc-arm-none-eabi-6-2017-q2-update/arm-none-eabi/include/c++/6.3.1/bits/stl_vector.h ****       vector(const vector& __x, const allocator_type& __a)
 342:/home/zkmike/.local/share/renesas/e2_studio/toolchains/gcc_arm/gcc-arm-none-eabi-6-2017-q2-update/arm-none-eabi/include/c++/6.3.1/bits/stl_vector.h ****       : _Base(__x.size(), __a)
 343:/home/zkmike/.local/share/renesas/e2_studio/toolchains/gcc_arm/gcc-arm-none-eabi-6-2017-q2-update/arm-none-eabi/include/c++/6.3.1/bits/stl_vector.h ****       { this->_M_impl._M_finish =
 344:/home/zkmike/.local/share/renesas/e2_studio/toolchains/gcc_arm/gcc-arm-none-eabi-6-2017-q2-update/arm-none-eabi/include/c++/6.3.1/bits/stl_vector.h **** 	  std::__uninitialized_copy_a(__x.begin(), __x.end(),
 345:/home/zkmike/.local/share/renesas/e2_studio/toolchains/gcc_arm/gcc-arm-none-eabi-6-2017-q2-update/arm-none-eabi/include/c++/6.3.1/bits/stl_vector.h **** 				      this->_M_impl._M_start,
 346:/home/zkmike/.local/share/renesas/e2_studio/toolchains/gcc_arm/gcc-arm-none-eabi-6-2017-q2-update/arm-none-eabi/include/c++/6.3.1/bits/stl_vector.h **** 				      _M_get_Tp_allocator());
 347:/home/zkmike/.local/share/renesas/e2_studio/toolchains/gcc_arm/gcc-arm-none-eabi-6-2017-q2-update/arm-none-eabi/include/c++/6.3.1/bits/stl_vector.h ****       }
 348:/home/zkmike/.local/share/renesas/e2_studio/toolchains/gcc_arm/gcc-arm-none-eabi-6-2017-q2-update/arm-none-eabi/include/c++/6.3.1/bits/stl_vector.h **** 
 349:/home/zkmike/.local/share/renesas/e2_studio/toolchains/gcc_arm/gcc-arm-none-eabi-6-2017-q2-update/arm-none-eabi/include/c++/6.3.1/bits/stl_vector.h ****       /// Move constructor with alternative allocator
 350:/home/zkmike/.local/share/renesas/e2_studio/toolchains/gcc_arm/gcc-arm-none-eabi-6-2017-q2-update/arm-none-eabi/include/c++/6.3.1/bits/stl_vector.h ****       vector(vector&& __rv, const allocator_type& __m)
 351:/home/zkmike/.local/share/renesas/e2_studio/toolchains/gcc_arm/gcc-arm-none-eabi-6-2017-q2-update/arm-none-eabi/include/c++/6.3.1/bits/stl_vector.h ****       noexcept(_Alloc_traits::_S_always_equal())
 352:/home/zkmike/.local/share/renesas/e2_studio/toolchains/gcc_arm/gcc-arm-none-eabi-6-2017-q2-update/arm-none-eabi/include/c++/6.3.1/bits/stl_vector.h ****       : _Base(std::move(__rv), __m)
 353:/home/zkmike/.local/share/renesas/e2_studio/toolchains/gcc_arm/gcc-arm-none-eabi-6-2017-q2-update/arm-none-eabi/include/c++/6.3.1/bits/stl_vector.h ****       {
 354:/home/zkmike/.local/share/renesas/e2_studio/toolchains/gcc_arm/gcc-arm-none-eabi-6-2017-q2-update/arm-none-eabi/include/c++/6.3.1/bits/stl_vector.h **** 	if (__rv.get_allocator() != __m)
 355:/home/zkmike/.local/share/renesas/e2_studio/toolchains/gcc_arm/gcc-arm-none-eabi-6-2017-q2-update/arm-none-eabi/include/c++/6.3.1/bits/stl_vector.h **** 	  {
 356:/home/zkmike/.local/share/renesas/e2_studio/toolchains/gcc_arm/gcc-arm-none-eabi-6-2017-q2-update/arm-none-eabi/include/c++/6.3.1/bits/stl_vector.h **** 	    this->_M_impl._M_finish =
 357:/home/zkmike/.local/share/renesas/e2_studio/toolchains/gcc_arm/gcc-arm-none-eabi-6-2017-q2-update/arm-none-eabi/include/c++/6.3.1/bits/stl_vector.h **** 	      std::__uninitialized_move_a(__rv.begin(), __rv.end(),
 358:/home/zkmike/.local/share/renesas/e2_studio/toolchains/gcc_arm/gcc-arm-none-eabi-6-2017-q2-update/arm-none-eabi/include/c++/6.3.1/bits/stl_vector.h **** 					  this->_M_impl._M_start,
 359:/home/zkmike/.local/share/renesas/e2_studio/toolchains/gcc_arm/gcc-arm-none-eabi-6-2017-q2-update/arm-none-eabi/include/c++/6.3.1/bits/stl_vector.h **** 					  _M_get_Tp_allocator());
 360:/home/zkmike/.local/share/renesas/e2_studio/toolchains/gcc_arm/gcc-arm-none-eabi-6-2017-q2-update/arm-none-eabi/include/c++/6.3.1/bits/stl_vector.h **** 	    __rv.clear();
 361:/home/zkmike/.local/share/renesas/e2_studio/toolchains/gcc_arm/gcc-arm-none-eabi-6-2017-q2-update/arm-none-eabi/include/c++/6.3.1/bits/stl_vector.h **** 	  }
 362:/home/zkmike/.local/share/renesas/e2_studio/toolchains/gcc_arm/gcc-arm-none-eabi-6-2017-q2-update/arm-none-eabi/include/c++/6.3.1/bits/stl_vector.h ****       }
 363:/home/zkmike/.local/share/renesas/e2_studio/toolchains/gcc_arm/gcc-arm-none-eabi-6-2017-q2-update/arm-none-eabi/include/c++/6.3.1/bits/stl_vector.h **** 
 364:/home/zkmike/.local/share/renesas/e2_studio/toolchains/gcc_arm/gcc-arm-none-eabi-6-2017-q2-update/arm-none-eabi/include/c++/6.3.1/bits/stl_vector.h ****       /**
 365:/home/zkmike/.local/share/renesas/e2_studio/toolchains/gcc_arm/gcc-arm-none-eabi-6-2017-q2-update/arm-none-eabi/include/c++/6.3.1/bits/stl_vector.h ****        *  @brief  Builds a %vector from an initializer list.
 366:/home/zkmike/.local/share/renesas/e2_studio/toolchains/gcc_arm/gcc-arm-none-eabi-6-2017-q2-update/arm-none-eabi/include/c++/6.3.1/bits/stl_vector.h ****        *  @param  __l  An initializer_list.
 367:/home/zkmike/.local/share/renesas/e2_studio/toolchains/gcc_arm/gcc-arm-none-eabi-6-2017-q2-update/arm-none-eabi/include/c++/6.3.1/bits/stl_vector.h ****        *  @param  __a  An allocator.
 368:/home/zkmike/.local/share/renesas/e2_studio/toolchains/gcc_arm/gcc-arm-none-eabi-6-2017-q2-update/arm-none-eabi/include/c++/6.3.1/bits/stl_vector.h ****        *
 369:/home/zkmike/.local/share/renesas/e2_studio/toolchains/gcc_arm/gcc-arm-none-eabi-6-2017-q2-update/arm-none-eabi/include/c++/6.3.1/bits/stl_vector.h ****        *  Create a %vector consisting of copies of the elements in the
 370:/home/zkmike/.local/share/renesas/e2_studio/toolchains/gcc_arm/gcc-arm-none-eabi-6-2017-q2-update/arm-none-eabi/include/c++/6.3.1/bits/stl_vector.h ****        *  initializer_list @a __l.
 371:/home/zkmike/.local/share/renesas/e2_studio/toolchains/gcc_arm/gcc-arm-none-eabi-6-2017-q2-update/arm-none-eabi/include/c++/6.3.1/bits/stl_vector.h ****        *
 372:/home/zkmike/.local/share/renesas/e2_studio/toolchains/gcc_arm/gcc-arm-none-eabi-6-2017-q2-update/arm-none-eabi/include/c++/6.3.1/bits/stl_vector.h ****        *  This will call the element type's copy constructor N times
 373:/home/zkmike/.local/share/renesas/e2_studio/toolchains/gcc_arm/gcc-arm-none-eabi-6-2017-q2-update/arm-none-eabi/include/c++/6.3.1/bits/stl_vector.h ****        *  (where N is @a __l.size()) and do no memory reallocation.
 374:/home/zkmike/.local/share/renesas/e2_studio/toolchains/gcc_arm/gcc-arm-none-eabi-6-2017-q2-update/arm-none-eabi/include/c++/6.3.1/bits/stl_vector.h ****        */
 375:/home/zkmike/.local/share/renesas/e2_studio/toolchains/gcc_arm/gcc-arm-none-eabi-6-2017-q2-update/arm-none-eabi/include/c++/6.3.1/bits/stl_vector.h ****       vector(initializer_list<value_type> __l,
 376:/home/zkmike/.local/share/renesas/e2_studio/toolchains/gcc_arm/gcc-arm-none-eabi-6-2017-q2-update/arm-none-eabi/include/c++/6.3.1/bits/stl_vector.h **** 	     const allocator_type& __a = allocator_type())
 377:/home/zkmike/.local/share/renesas/e2_studio/toolchains/gcc_arm/gcc-arm-none-eabi-6-2017-q2-update/arm-none-eabi/include/c++/6.3.1/bits/stl_vector.h ****       : _Base(__a)
 378:/home/zkmike/.local/share/renesas/e2_studio/toolchains/gcc_arm/gcc-arm-none-eabi-6-2017-q2-update/arm-none-eabi/include/c++/6.3.1/bits/stl_vector.h ****       {
 379:/home/zkmike/.local/share/renesas/e2_studio/toolchains/gcc_arm/gcc-arm-none-eabi-6-2017-q2-update/arm-none-eabi/include/c++/6.3.1/bits/stl_vector.h **** 	_M_range_initialize(__l.begin(), __l.end(),
 380:/home/zkmike/.local/share/renesas/e2_studio/toolchains/gcc_arm/gcc-arm-none-eabi-6-2017-q2-update/arm-none-eabi/include/c++/6.3.1/bits/stl_vector.h **** 			    random_access_iterator_tag());
 381:/home/zkmike/.local/share/renesas/e2_studio/toolchains/gcc_arm/gcc-arm-none-eabi-6-2017-q2-update/arm-none-eabi/include/c++/6.3.1/bits/stl_vector.h ****       }
 382:/home/zkmike/.local/share/renesas/e2_studio/toolchains/gcc_arm/gcc-arm-none-eabi-6-2017-q2-update/arm-none-eabi/include/c++/6.3.1/bits/stl_vector.h **** #endif
 383:/home/zkmike/.local/share/renesas/e2_studio/toolchains/gcc_arm/gcc-arm-none-eabi-6-2017-q2-update/arm-none-eabi/include/c++/6.3.1/bits/stl_vector.h **** 
 384:/home/zkmike/.local/share/renesas/e2_studio/toolchains/gcc_arm/gcc-arm-none-eabi-6-2017-q2-update/arm-none-eabi/include/c++/6.3.1/bits/stl_vector.h ****       /**
 385:/home/zkmike/.local/share/renesas/e2_studio/toolchains/gcc_arm/gcc-arm-none-eabi-6-2017-q2-update/arm-none-eabi/include/c++/6.3.1/bits/stl_vector.h ****        *  @brief  Builds a %vector from a range.
 386:/home/zkmike/.local/share/renesas/e2_studio/toolchains/gcc_arm/gcc-arm-none-eabi-6-2017-q2-update/arm-none-eabi/include/c++/6.3.1/bits/stl_vector.h ****        *  @param  __first  An input iterator.
 387:/home/zkmike/.local/share/renesas/e2_studio/toolchains/gcc_arm/gcc-arm-none-eabi-6-2017-q2-update/arm-none-eabi/include/c++/6.3.1/bits/stl_vector.h ****        *  @param  __last  An input iterator.
 388:/home/zkmike/.local/share/renesas/e2_studio/toolchains/gcc_arm/gcc-arm-none-eabi-6-2017-q2-update/arm-none-eabi/include/c++/6.3.1/bits/stl_vector.h ****        *  @param  __a  An allocator.
 389:/home/zkmike/.local/share/renesas/e2_studio/toolchains/gcc_arm/gcc-arm-none-eabi-6-2017-q2-update/arm-none-eabi/include/c++/6.3.1/bits/stl_vector.h ****        *
 390:/home/zkmike/.local/share/renesas/e2_studio/toolchains/gcc_arm/gcc-arm-none-eabi-6-2017-q2-update/arm-none-eabi/include/c++/6.3.1/bits/stl_vector.h ****        *  Create a %vector consisting of copies of the elements from
 391:/home/zkmike/.local/share/renesas/e2_studio/toolchains/gcc_arm/gcc-arm-none-eabi-6-2017-q2-update/arm-none-eabi/include/c++/6.3.1/bits/stl_vector.h ****        *  [first,last).
 392:/home/zkmike/.local/share/renesas/e2_studio/toolchains/gcc_arm/gcc-arm-none-eabi-6-2017-q2-update/arm-none-eabi/include/c++/6.3.1/bits/stl_vector.h ****        *
 393:/home/zkmike/.local/share/renesas/e2_studio/toolchains/gcc_arm/gcc-arm-none-eabi-6-2017-q2-update/arm-none-eabi/include/c++/6.3.1/bits/stl_vector.h ****        *  If the iterators are forward, bidirectional, or
 394:/home/zkmike/.local/share/renesas/e2_studio/toolchains/gcc_arm/gcc-arm-none-eabi-6-2017-q2-update/arm-none-eabi/include/c++/6.3.1/bits/stl_vector.h ****        *  random-access, then this will call the elements' copy
 395:/home/zkmike/.local/share/renesas/e2_studio/toolchains/gcc_arm/gcc-arm-none-eabi-6-2017-q2-update/arm-none-eabi/include/c++/6.3.1/bits/stl_vector.h ****        *  constructor N times (where N is distance(first,last)) and do
 396:/home/zkmike/.local/share/renesas/e2_studio/toolchains/gcc_arm/gcc-arm-none-eabi-6-2017-q2-update/arm-none-eabi/include/c++/6.3.1/bits/stl_vector.h ****        *  no memory reallocation.  But if only input iterators are
 397:/home/zkmike/.local/share/renesas/e2_studio/toolchains/gcc_arm/gcc-arm-none-eabi-6-2017-q2-update/arm-none-eabi/include/c++/6.3.1/bits/stl_vector.h ****        *  used, then this will do at most 2N calls to the copy
 398:/home/zkmike/.local/share/renesas/e2_studio/toolchains/gcc_arm/gcc-arm-none-eabi-6-2017-q2-update/arm-none-eabi/include/c++/6.3.1/bits/stl_vector.h ****        *  constructor, and logN memory reallocations.
 399:/home/zkmike/.local/share/renesas/e2_studio/toolchains/gcc_arm/gcc-arm-none-eabi-6-2017-q2-update/arm-none-eabi/include/c++/6.3.1/bits/stl_vector.h ****        */
 400:/home/zkmike/.local/share/renesas/e2_studio/toolchains/gcc_arm/gcc-arm-none-eabi-6-2017-q2-update/arm-none-eabi/include/c++/6.3.1/bits/stl_vector.h **** #if __cplusplus >= 201103L
 401:/home/zkmike/.local/share/renesas/e2_studio/toolchains/gcc_arm/gcc-arm-none-eabi-6-2017-q2-update/arm-none-eabi/include/c++/6.3.1/bits/stl_vector.h ****       template<typename _InputIterator,
 402:/home/zkmike/.local/share/renesas/e2_studio/toolchains/gcc_arm/gcc-arm-none-eabi-6-2017-q2-update/arm-none-eabi/include/c++/6.3.1/bits/stl_vector.h **** 	       typename = std::_RequireInputIter<_InputIterator>>
 403:/home/zkmike/.local/share/renesas/e2_studio/toolchains/gcc_arm/gcc-arm-none-eabi-6-2017-q2-update/arm-none-eabi/include/c++/6.3.1/bits/stl_vector.h ****         vector(_InputIterator __first, _InputIterator __last,
 404:/home/zkmike/.local/share/renesas/e2_studio/toolchains/gcc_arm/gcc-arm-none-eabi-6-2017-q2-update/arm-none-eabi/include/c++/6.3.1/bits/stl_vector.h **** 	       const allocator_type& __a = allocator_type())
 405:/home/zkmike/.local/share/renesas/e2_studio/toolchains/gcc_arm/gcc-arm-none-eabi-6-2017-q2-update/arm-none-eabi/include/c++/6.3.1/bits/stl_vector.h **** 	: _Base(__a)
 406:/home/zkmike/.local/share/renesas/e2_studio/toolchains/gcc_arm/gcc-arm-none-eabi-6-2017-q2-update/arm-none-eabi/include/c++/6.3.1/bits/stl_vector.h ****         { _M_initialize_dispatch(__first, __last, __false_type()); }
 407:/home/zkmike/.local/share/renesas/e2_studio/toolchains/gcc_arm/gcc-arm-none-eabi-6-2017-q2-update/arm-none-eabi/include/c++/6.3.1/bits/stl_vector.h **** #else
 408:/home/zkmike/.local/share/renesas/e2_studio/toolchains/gcc_arm/gcc-arm-none-eabi-6-2017-q2-update/arm-none-eabi/include/c++/6.3.1/bits/stl_vector.h ****       template<typename _InputIterator>
 409:/home/zkmike/.local/share/renesas/e2_studio/toolchains/gcc_arm/gcc-arm-none-eabi-6-2017-q2-update/arm-none-eabi/include/c++/6.3.1/bits/stl_vector.h ****         vector(_InputIterator __first, _InputIterator __last,
 410:/home/zkmike/.local/share/renesas/e2_studio/toolchains/gcc_arm/gcc-arm-none-eabi-6-2017-q2-update/arm-none-eabi/include/c++/6.3.1/bits/stl_vector.h **** 	       const allocator_type& __a = allocator_type())
 411:/home/zkmike/.local/share/renesas/e2_studio/toolchains/gcc_arm/gcc-arm-none-eabi-6-2017-q2-update/arm-none-eabi/include/c++/6.3.1/bits/stl_vector.h **** 	: _Base(__a)
 412:/home/zkmike/.local/share/renesas/e2_studio/toolchains/gcc_arm/gcc-arm-none-eabi-6-2017-q2-update/arm-none-eabi/include/c++/6.3.1/bits/stl_vector.h ****         {
 413:/home/zkmike/.local/share/renesas/e2_studio/toolchains/gcc_arm/gcc-arm-none-eabi-6-2017-q2-update/arm-none-eabi/include/c++/6.3.1/bits/stl_vector.h **** 	  // Check whether it's an integral type.  If so, it's not an iterator.
 414:/home/zkmike/.local/share/renesas/e2_studio/toolchains/gcc_arm/gcc-arm-none-eabi-6-2017-q2-update/arm-none-eabi/include/c++/6.3.1/bits/stl_vector.h **** 	  typedef typename std::__is_integer<_InputIterator>::__type _Integral;
 415:/home/zkmike/.local/share/renesas/e2_studio/toolchains/gcc_arm/gcc-arm-none-eabi-6-2017-q2-update/arm-none-eabi/include/c++/6.3.1/bits/stl_vector.h **** 	  _M_initialize_dispatch(__first, __last, _Integral());
 416:/home/zkmike/.local/share/renesas/e2_studio/toolchains/gcc_arm/gcc-arm-none-eabi-6-2017-q2-update/arm-none-eabi/include/c++/6.3.1/bits/stl_vector.h **** 	}
 417:/home/zkmike/.local/share/renesas/e2_studio/toolchains/gcc_arm/gcc-arm-none-eabi-6-2017-q2-update/arm-none-eabi/include/c++/6.3.1/bits/stl_vector.h **** #endif
 418:/home/zkmike/.local/share/renesas/e2_studio/toolchains/gcc_arm/gcc-arm-none-eabi-6-2017-q2-update/arm-none-eabi/include/c++/6.3.1/bits/stl_vector.h **** 
 419:/home/zkmike/.local/share/renesas/e2_studio/toolchains/gcc_arm/gcc-arm-none-eabi-6-2017-q2-update/arm-none-eabi/include/c++/6.3.1/bits/stl_vector.h ****       /**
 420:/home/zkmike/.local/share/renesas/e2_studio/toolchains/gcc_arm/gcc-arm-none-eabi-6-2017-q2-update/arm-none-eabi/include/c++/6.3.1/bits/stl_vector.h ****        *  The dtor only erases the elements, and note that if the
 421:/home/zkmike/.local/share/renesas/e2_studio/toolchains/gcc_arm/gcc-arm-none-eabi-6-2017-q2-update/arm-none-eabi/include/c++/6.3.1/bits/stl_vector.h ****        *  elements themselves are pointers, the pointed-to memory is
 422:/home/zkmike/.local/share/renesas/e2_studio/toolchains/gcc_arm/gcc-arm-none-eabi-6-2017-q2-update/arm-none-eabi/include/c++/6.3.1/bits/stl_vector.h ****        *  not touched in any way.  Managing the pointer is the user's
 423:/home/zkmike/.local/share/renesas/e2_studio/toolchains/gcc_arm/gcc-arm-none-eabi-6-2017-q2-update/arm-none-eabi/include/c++/6.3.1/bits/stl_vector.h ****        *  responsibility.
 424:/home/zkmike/.local/share/renesas/e2_studio/toolchains/gcc_arm/gcc-arm-none-eabi-6-2017-q2-update/arm-none-eabi/include/c++/6.3.1/bits/stl_vector.h ****        */
 425:/home/zkmike/.local/share/renesas/e2_studio/toolchains/gcc_arm/gcc-arm-none-eabi-6-2017-q2-update/arm-none-eabi/include/c++/6.3.1/bits/stl_vector.h ****       ~vector() _GLIBCXX_NOEXCEPT
 426:/home/zkmike/.local/share/renesas/e2_studio/toolchains/gcc_arm/gcc-arm-none-eabi-6-2017-q2-update/arm-none-eabi/include/c++/6.3.1/bits/stl_vector.h ****       { std::_Destroy(this->_M_impl._M_start, this->_M_impl._M_finish,
 229              		.loc 5 426 0
 230 0010 200090E5 		ldr	r0, [r0, #32]
 231              	.LVL16:
 232              	.LBB1273:
 233              	.LBB1274:
 234              	.LBB1275:
 177:/home/zkmike/.local/share/renesas/e2_studio/toolchains/gcc_arm/gcc-arm-none-eabi-6-2017-q2-update/arm-none-eabi/include/c++/6.3.1/bits/stl_vector.h **** 	  _Tr::deallocate(_M_impl, __p, __n);
 235              		.loc 5 177 0
 236 0014 000050E3 		cmp	r0, #0
 237 0018 0000000A 		beq	.L16
 238              	.LVL17:
 239              	.LBB1276:
 240              	.LBB1277:
 241              	.LBB1278:
 242              		.file 6 "/home/zkmike/.local/share/renesas/e2_studio/toolchains/gcc_arm/gcc-arm-none-eabi-6-2017-q
   1:/home/zkmike/.local/share/renesas/e2_studio/toolchains/gcc_arm/gcc-arm-none-eabi-6-2017-q2-update/arm-none-eabi/include/c++/6.3.1/ext/new_allocator.h **** // Allocator that wraps operator new -*- C++ -*-
   2:/home/zkmike/.local/share/renesas/e2_studio/toolchains/gcc_arm/gcc-arm-none-eabi-6-2017-q2-update/arm-none-eabi/include/c++/6.3.1/ext/new_allocator.h **** 
   3:/home/zkmike/.local/share/renesas/e2_studio/toolchains/gcc_arm/gcc-arm-none-eabi-6-2017-q2-update/arm-none-eabi/include/c++/6.3.1/ext/new_allocator.h **** // Copyright (C) 2001-2016 Free Software Foundation, Inc.
   4:/home/zkmike/.local/share/renesas/e2_studio/toolchains/gcc_arm/gcc-arm-none-eabi-6-2017-q2-update/arm-none-eabi/include/c++/6.3.1/ext/new_allocator.h **** //
   5:/home/zkmike/.local/share/renesas/e2_studio/toolchains/gcc_arm/gcc-arm-none-eabi-6-2017-q2-update/arm-none-eabi/include/c++/6.3.1/ext/new_allocator.h **** // This file is part of the GNU ISO C++ Library.  This library is free
   6:/home/zkmike/.local/share/renesas/e2_studio/toolchains/gcc_arm/gcc-arm-none-eabi-6-2017-q2-update/arm-none-eabi/include/c++/6.3.1/ext/new_allocator.h **** // software; you can redistribute it and/or modify it under the
   7:/home/zkmike/.local/share/renesas/e2_studio/toolchains/gcc_arm/gcc-arm-none-eabi-6-2017-q2-update/arm-none-eabi/include/c++/6.3.1/ext/new_allocator.h **** // terms of the GNU General Public License as published by the
   8:/home/zkmike/.local/share/renesas/e2_studio/toolchains/gcc_arm/gcc-arm-none-eabi-6-2017-q2-update/arm-none-eabi/include/c++/6.3.1/ext/new_allocator.h **** // Free Software Foundation; either version 3, or (at your option)
   9:/home/zkmike/.local/share/renesas/e2_studio/toolchains/gcc_arm/gcc-arm-none-eabi-6-2017-q2-update/arm-none-eabi/include/c++/6.3.1/ext/new_allocator.h **** // any later version.
  10:/home/zkmike/.local/share/renesas/e2_studio/toolchains/gcc_arm/gcc-arm-none-eabi-6-2017-q2-update/arm-none-eabi/include/c++/6.3.1/ext/new_allocator.h **** 
  11:/home/zkmike/.local/share/renesas/e2_studio/toolchains/gcc_arm/gcc-arm-none-eabi-6-2017-q2-update/arm-none-eabi/include/c++/6.3.1/ext/new_allocator.h **** // This library is distributed in the hope that it will be useful,
  12:/home/zkmike/.local/share/renesas/e2_studio/toolchains/gcc_arm/gcc-arm-none-eabi-6-2017-q2-update/arm-none-eabi/include/c++/6.3.1/ext/new_allocator.h **** // but WITHOUT ANY WARRANTY; without even the implied warranty of
  13:/home/zkmike/.local/share/renesas/e2_studio/toolchains/gcc_arm/gcc-arm-none-eabi-6-2017-q2-update/arm-none-eabi/include/c++/6.3.1/ext/new_allocator.h **** // MERCHANTABILITY or FITNESS FOR A PARTICULAR PURPOSE.  See the
  14:/home/zkmike/.local/share/renesas/e2_studio/toolchains/gcc_arm/gcc-arm-none-eabi-6-2017-q2-update/arm-none-eabi/include/c++/6.3.1/ext/new_allocator.h **** // GNU General Public License for more details.
  15:/home/zkmike/.local/share/renesas/e2_studio/toolchains/gcc_arm/gcc-arm-none-eabi-6-2017-q2-update/arm-none-eabi/include/c++/6.3.1/ext/new_allocator.h **** 
  16:/home/zkmike/.local/share/renesas/e2_studio/toolchains/gcc_arm/gcc-arm-none-eabi-6-2017-q2-update/arm-none-eabi/include/c++/6.3.1/ext/new_allocator.h **** // Under Section 7 of GPL version 3, you are granted additional
  17:/home/zkmike/.local/share/renesas/e2_studio/toolchains/gcc_arm/gcc-arm-none-eabi-6-2017-q2-update/arm-none-eabi/include/c++/6.3.1/ext/new_allocator.h **** // permissions described in the GCC Runtime Library Exception, version
  18:/home/zkmike/.local/share/renesas/e2_studio/toolchains/gcc_arm/gcc-arm-none-eabi-6-2017-q2-update/arm-none-eabi/include/c++/6.3.1/ext/new_allocator.h **** // 3.1, as published by the Free Software Foundation.
  19:/home/zkmike/.local/share/renesas/e2_studio/toolchains/gcc_arm/gcc-arm-none-eabi-6-2017-q2-update/arm-none-eabi/include/c++/6.3.1/ext/new_allocator.h **** 
  20:/home/zkmike/.local/share/renesas/e2_studio/toolchains/gcc_arm/gcc-arm-none-eabi-6-2017-q2-update/arm-none-eabi/include/c++/6.3.1/ext/new_allocator.h **** // You should have received a copy of the GNU General Public License and
  21:/home/zkmike/.local/share/renesas/e2_studio/toolchains/gcc_arm/gcc-arm-none-eabi-6-2017-q2-update/arm-none-eabi/include/c++/6.3.1/ext/new_allocator.h **** // a copy of the GCC Runtime Library Exception along with this program;
  22:/home/zkmike/.local/share/renesas/e2_studio/toolchains/gcc_arm/gcc-arm-none-eabi-6-2017-q2-update/arm-none-eabi/include/c++/6.3.1/ext/new_allocator.h **** // see the files COPYING3 and COPYING.RUNTIME respectively.  If not, see
  23:/home/zkmike/.local/share/renesas/e2_studio/toolchains/gcc_arm/gcc-arm-none-eabi-6-2017-q2-update/arm-none-eabi/include/c++/6.3.1/ext/new_allocator.h **** // <http://www.gnu.org/licenses/>.
  24:/home/zkmike/.local/share/renesas/e2_studio/toolchains/gcc_arm/gcc-arm-none-eabi-6-2017-q2-update/arm-none-eabi/include/c++/6.3.1/ext/new_allocator.h **** 
  25:/home/zkmike/.local/share/renesas/e2_studio/toolchains/gcc_arm/gcc-arm-none-eabi-6-2017-q2-update/arm-none-eabi/include/c++/6.3.1/ext/new_allocator.h **** /** @file ext/new_allocator.h
  26:/home/zkmike/.local/share/renesas/e2_studio/toolchains/gcc_arm/gcc-arm-none-eabi-6-2017-q2-update/arm-none-eabi/include/c++/6.3.1/ext/new_allocator.h ****  *  This file is a GNU extension to the Standard C++ Library.
  27:/home/zkmike/.local/share/renesas/e2_studio/toolchains/gcc_arm/gcc-arm-none-eabi-6-2017-q2-update/arm-none-eabi/include/c++/6.3.1/ext/new_allocator.h ****  */
  28:/home/zkmike/.local/share/renesas/e2_studio/toolchains/gcc_arm/gcc-arm-none-eabi-6-2017-q2-update/arm-none-eabi/include/c++/6.3.1/ext/new_allocator.h **** 
  29:/home/zkmike/.local/share/renesas/e2_studio/toolchains/gcc_arm/gcc-arm-none-eabi-6-2017-q2-update/arm-none-eabi/include/c++/6.3.1/ext/new_allocator.h **** #ifndef _NEW_ALLOCATOR_H
  30:/home/zkmike/.local/share/renesas/e2_studio/toolchains/gcc_arm/gcc-arm-none-eabi-6-2017-q2-update/arm-none-eabi/include/c++/6.3.1/ext/new_allocator.h **** #define _NEW_ALLOCATOR_H 1
  31:/home/zkmike/.local/share/renesas/e2_studio/toolchains/gcc_arm/gcc-arm-none-eabi-6-2017-q2-update/arm-none-eabi/include/c++/6.3.1/ext/new_allocator.h **** 
  32:/home/zkmike/.local/share/renesas/e2_studio/toolchains/gcc_arm/gcc-arm-none-eabi-6-2017-q2-update/arm-none-eabi/include/c++/6.3.1/ext/new_allocator.h **** #include <bits/c++config.h>
  33:/home/zkmike/.local/share/renesas/e2_studio/toolchains/gcc_arm/gcc-arm-none-eabi-6-2017-q2-update/arm-none-eabi/include/c++/6.3.1/ext/new_allocator.h **** #include <new>
  34:/home/zkmike/.local/share/renesas/e2_studio/toolchains/gcc_arm/gcc-arm-none-eabi-6-2017-q2-update/arm-none-eabi/include/c++/6.3.1/ext/new_allocator.h **** #include <bits/functexcept.h>
  35:/home/zkmike/.local/share/renesas/e2_studio/toolchains/gcc_arm/gcc-arm-none-eabi-6-2017-q2-update/arm-none-eabi/include/c++/6.3.1/ext/new_allocator.h **** #include <bits/move.h>
  36:/home/zkmike/.local/share/renesas/e2_studio/toolchains/gcc_arm/gcc-arm-none-eabi-6-2017-q2-update/arm-none-eabi/include/c++/6.3.1/ext/new_allocator.h **** #if __cplusplus >= 201103L
  37:/home/zkmike/.local/share/renesas/e2_studio/toolchains/gcc_arm/gcc-arm-none-eabi-6-2017-q2-update/arm-none-eabi/include/c++/6.3.1/ext/new_allocator.h **** #include <type_traits>
  38:/home/zkmike/.local/share/renesas/e2_studio/toolchains/gcc_arm/gcc-arm-none-eabi-6-2017-q2-update/arm-none-eabi/include/c++/6.3.1/ext/new_allocator.h **** #endif
  39:/home/zkmike/.local/share/renesas/e2_studio/toolchains/gcc_arm/gcc-arm-none-eabi-6-2017-q2-update/arm-none-eabi/include/c++/6.3.1/ext/new_allocator.h **** 
  40:/home/zkmike/.local/share/renesas/e2_studio/toolchains/gcc_arm/gcc-arm-none-eabi-6-2017-q2-update/arm-none-eabi/include/c++/6.3.1/ext/new_allocator.h **** namespace __gnu_cxx _GLIBCXX_VISIBILITY(default)
  41:/home/zkmike/.local/share/renesas/e2_studio/toolchains/gcc_arm/gcc-arm-none-eabi-6-2017-q2-update/arm-none-eabi/include/c++/6.3.1/ext/new_allocator.h **** {
  42:/home/zkmike/.local/share/renesas/e2_studio/toolchains/gcc_arm/gcc-arm-none-eabi-6-2017-q2-update/arm-none-eabi/include/c++/6.3.1/ext/new_allocator.h **** _GLIBCXX_BEGIN_NAMESPACE_VERSION
  43:/home/zkmike/.local/share/renesas/e2_studio/toolchains/gcc_arm/gcc-arm-none-eabi-6-2017-q2-update/arm-none-eabi/include/c++/6.3.1/ext/new_allocator.h **** 
  44:/home/zkmike/.local/share/renesas/e2_studio/toolchains/gcc_arm/gcc-arm-none-eabi-6-2017-q2-update/arm-none-eabi/include/c++/6.3.1/ext/new_allocator.h ****   using std::size_t;
  45:/home/zkmike/.local/share/renesas/e2_studio/toolchains/gcc_arm/gcc-arm-none-eabi-6-2017-q2-update/arm-none-eabi/include/c++/6.3.1/ext/new_allocator.h ****   using std::ptrdiff_t;
  46:/home/zkmike/.local/share/renesas/e2_studio/toolchains/gcc_arm/gcc-arm-none-eabi-6-2017-q2-update/arm-none-eabi/include/c++/6.3.1/ext/new_allocator.h **** 
  47:/home/zkmike/.local/share/renesas/e2_studio/toolchains/gcc_arm/gcc-arm-none-eabi-6-2017-q2-update/arm-none-eabi/include/c++/6.3.1/ext/new_allocator.h ****   /**
  48:/home/zkmike/.local/share/renesas/e2_studio/toolchains/gcc_arm/gcc-arm-none-eabi-6-2017-q2-update/arm-none-eabi/include/c++/6.3.1/ext/new_allocator.h ****    *  @brief  An allocator that uses global new, as per [20.4].
  49:/home/zkmike/.local/share/renesas/e2_studio/toolchains/gcc_arm/gcc-arm-none-eabi-6-2017-q2-update/arm-none-eabi/include/c++/6.3.1/ext/new_allocator.h ****    *  @ingroup allocators
  50:/home/zkmike/.local/share/renesas/e2_studio/toolchains/gcc_arm/gcc-arm-none-eabi-6-2017-q2-update/arm-none-eabi/include/c++/6.3.1/ext/new_allocator.h ****    *
  51:/home/zkmike/.local/share/renesas/e2_studio/toolchains/gcc_arm/gcc-arm-none-eabi-6-2017-q2-update/arm-none-eabi/include/c++/6.3.1/ext/new_allocator.h ****    *  This is precisely the allocator defined in the C++ Standard. 
  52:/home/zkmike/.local/share/renesas/e2_studio/toolchains/gcc_arm/gcc-arm-none-eabi-6-2017-q2-update/arm-none-eabi/include/c++/6.3.1/ext/new_allocator.h ****    *    - all allocation calls operator new
  53:/home/zkmike/.local/share/renesas/e2_studio/toolchains/gcc_arm/gcc-arm-none-eabi-6-2017-q2-update/arm-none-eabi/include/c++/6.3.1/ext/new_allocator.h ****    *    - all deallocation calls operator delete
  54:/home/zkmike/.local/share/renesas/e2_studio/toolchains/gcc_arm/gcc-arm-none-eabi-6-2017-q2-update/arm-none-eabi/include/c++/6.3.1/ext/new_allocator.h ****    *
  55:/home/zkmike/.local/share/renesas/e2_studio/toolchains/gcc_arm/gcc-arm-none-eabi-6-2017-q2-update/arm-none-eabi/include/c++/6.3.1/ext/new_allocator.h ****    *  @tparam  _Tp  Type of allocated object.
  56:/home/zkmike/.local/share/renesas/e2_studio/toolchains/gcc_arm/gcc-arm-none-eabi-6-2017-q2-update/arm-none-eabi/include/c++/6.3.1/ext/new_allocator.h ****    */
  57:/home/zkmike/.local/share/renesas/e2_studio/toolchains/gcc_arm/gcc-arm-none-eabi-6-2017-q2-update/arm-none-eabi/include/c++/6.3.1/ext/new_allocator.h ****   template<typename _Tp>
  58:/home/zkmike/.local/share/renesas/e2_studio/toolchains/gcc_arm/gcc-arm-none-eabi-6-2017-q2-update/arm-none-eabi/include/c++/6.3.1/ext/new_allocator.h ****     class new_allocator
  59:/home/zkmike/.local/share/renesas/e2_studio/toolchains/gcc_arm/gcc-arm-none-eabi-6-2017-q2-update/arm-none-eabi/include/c++/6.3.1/ext/new_allocator.h ****     {
  60:/home/zkmike/.local/share/renesas/e2_studio/toolchains/gcc_arm/gcc-arm-none-eabi-6-2017-q2-update/arm-none-eabi/include/c++/6.3.1/ext/new_allocator.h ****     public:
  61:/home/zkmike/.local/share/renesas/e2_studio/toolchains/gcc_arm/gcc-arm-none-eabi-6-2017-q2-update/arm-none-eabi/include/c++/6.3.1/ext/new_allocator.h ****       typedef size_t     size_type;
  62:/home/zkmike/.local/share/renesas/e2_studio/toolchains/gcc_arm/gcc-arm-none-eabi-6-2017-q2-update/arm-none-eabi/include/c++/6.3.1/ext/new_allocator.h ****       typedef ptrdiff_t  difference_type;
  63:/home/zkmike/.local/share/renesas/e2_studio/toolchains/gcc_arm/gcc-arm-none-eabi-6-2017-q2-update/arm-none-eabi/include/c++/6.3.1/ext/new_allocator.h ****       typedef _Tp*       pointer;
  64:/home/zkmike/.local/share/renesas/e2_studio/toolchains/gcc_arm/gcc-arm-none-eabi-6-2017-q2-update/arm-none-eabi/include/c++/6.3.1/ext/new_allocator.h ****       typedef const _Tp* const_pointer;
  65:/home/zkmike/.local/share/renesas/e2_studio/toolchains/gcc_arm/gcc-arm-none-eabi-6-2017-q2-update/arm-none-eabi/include/c++/6.3.1/ext/new_allocator.h ****       typedef _Tp&       reference;
  66:/home/zkmike/.local/share/renesas/e2_studio/toolchains/gcc_arm/gcc-arm-none-eabi-6-2017-q2-update/arm-none-eabi/include/c++/6.3.1/ext/new_allocator.h ****       typedef const _Tp& const_reference;
  67:/home/zkmike/.local/share/renesas/e2_studio/toolchains/gcc_arm/gcc-arm-none-eabi-6-2017-q2-update/arm-none-eabi/include/c++/6.3.1/ext/new_allocator.h ****       typedef _Tp        value_type;
  68:/home/zkmike/.local/share/renesas/e2_studio/toolchains/gcc_arm/gcc-arm-none-eabi-6-2017-q2-update/arm-none-eabi/include/c++/6.3.1/ext/new_allocator.h **** 
  69:/home/zkmike/.local/share/renesas/e2_studio/toolchains/gcc_arm/gcc-arm-none-eabi-6-2017-q2-update/arm-none-eabi/include/c++/6.3.1/ext/new_allocator.h ****       template<typename _Tp1>
  70:/home/zkmike/.local/share/renesas/e2_studio/toolchains/gcc_arm/gcc-arm-none-eabi-6-2017-q2-update/arm-none-eabi/include/c++/6.3.1/ext/new_allocator.h ****         struct rebind
  71:/home/zkmike/.local/share/renesas/e2_studio/toolchains/gcc_arm/gcc-arm-none-eabi-6-2017-q2-update/arm-none-eabi/include/c++/6.3.1/ext/new_allocator.h ****         { typedef new_allocator<_Tp1> other; };
  72:/home/zkmike/.local/share/renesas/e2_studio/toolchains/gcc_arm/gcc-arm-none-eabi-6-2017-q2-update/arm-none-eabi/include/c++/6.3.1/ext/new_allocator.h **** 
  73:/home/zkmike/.local/share/renesas/e2_studio/toolchains/gcc_arm/gcc-arm-none-eabi-6-2017-q2-update/arm-none-eabi/include/c++/6.3.1/ext/new_allocator.h **** #if __cplusplus >= 201103L
  74:/home/zkmike/.local/share/renesas/e2_studio/toolchains/gcc_arm/gcc-arm-none-eabi-6-2017-q2-update/arm-none-eabi/include/c++/6.3.1/ext/new_allocator.h ****       // _GLIBCXX_RESOLVE_LIB_DEFECTS
  75:/home/zkmike/.local/share/renesas/e2_studio/toolchains/gcc_arm/gcc-arm-none-eabi-6-2017-q2-update/arm-none-eabi/include/c++/6.3.1/ext/new_allocator.h ****       // 2103. propagate_on_container_move_assignment
  76:/home/zkmike/.local/share/renesas/e2_studio/toolchains/gcc_arm/gcc-arm-none-eabi-6-2017-q2-update/arm-none-eabi/include/c++/6.3.1/ext/new_allocator.h ****       typedef std::true_type propagate_on_container_move_assignment;
  77:/home/zkmike/.local/share/renesas/e2_studio/toolchains/gcc_arm/gcc-arm-none-eabi-6-2017-q2-update/arm-none-eabi/include/c++/6.3.1/ext/new_allocator.h **** #endif
  78:/home/zkmike/.local/share/renesas/e2_studio/toolchains/gcc_arm/gcc-arm-none-eabi-6-2017-q2-update/arm-none-eabi/include/c++/6.3.1/ext/new_allocator.h **** 
  79:/home/zkmike/.local/share/renesas/e2_studio/toolchains/gcc_arm/gcc-arm-none-eabi-6-2017-q2-update/arm-none-eabi/include/c++/6.3.1/ext/new_allocator.h ****       new_allocator() _GLIBCXX_USE_NOEXCEPT { }
  80:/home/zkmike/.local/share/renesas/e2_studio/toolchains/gcc_arm/gcc-arm-none-eabi-6-2017-q2-update/arm-none-eabi/include/c++/6.3.1/ext/new_allocator.h **** 
  81:/home/zkmike/.local/share/renesas/e2_studio/toolchains/gcc_arm/gcc-arm-none-eabi-6-2017-q2-update/arm-none-eabi/include/c++/6.3.1/ext/new_allocator.h ****       new_allocator(const new_allocator&) _GLIBCXX_USE_NOEXCEPT { }
  82:/home/zkmike/.local/share/renesas/e2_studio/toolchains/gcc_arm/gcc-arm-none-eabi-6-2017-q2-update/arm-none-eabi/include/c++/6.3.1/ext/new_allocator.h **** 
  83:/home/zkmike/.local/share/renesas/e2_studio/toolchains/gcc_arm/gcc-arm-none-eabi-6-2017-q2-update/arm-none-eabi/include/c++/6.3.1/ext/new_allocator.h ****       template<typename _Tp1>
  84:/home/zkmike/.local/share/renesas/e2_studio/toolchains/gcc_arm/gcc-arm-none-eabi-6-2017-q2-update/arm-none-eabi/include/c++/6.3.1/ext/new_allocator.h ****         new_allocator(const new_allocator<_Tp1>&) _GLIBCXX_USE_NOEXCEPT { }
  85:/home/zkmike/.local/share/renesas/e2_studio/toolchains/gcc_arm/gcc-arm-none-eabi-6-2017-q2-update/arm-none-eabi/include/c++/6.3.1/ext/new_allocator.h **** 
  86:/home/zkmike/.local/share/renesas/e2_studio/toolchains/gcc_arm/gcc-arm-none-eabi-6-2017-q2-update/arm-none-eabi/include/c++/6.3.1/ext/new_allocator.h ****       ~new_allocator() _GLIBCXX_USE_NOEXCEPT { }
  87:/home/zkmike/.local/share/renesas/e2_studio/toolchains/gcc_arm/gcc-arm-none-eabi-6-2017-q2-update/arm-none-eabi/include/c++/6.3.1/ext/new_allocator.h **** 
  88:/home/zkmike/.local/share/renesas/e2_studio/toolchains/gcc_arm/gcc-arm-none-eabi-6-2017-q2-update/arm-none-eabi/include/c++/6.3.1/ext/new_allocator.h ****       pointer
  89:/home/zkmike/.local/share/renesas/e2_studio/toolchains/gcc_arm/gcc-arm-none-eabi-6-2017-q2-update/arm-none-eabi/include/c++/6.3.1/ext/new_allocator.h ****       address(reference __x) const _GLIBCXX_NOEXCEPT
  90:/home/zkmike/.local/share/renesas/e2_studio/toolchains/gcc_arm/gcc-arm-none-eabi-6-2017-q2-update/arm-none-eabi/include/c++/6.3.1/ext/new_allocator.h ****       { return std::__addressof(__x); }
  91:/home/zkmike/.local/share/renesas/e2_studio/toolchains/gcc_arm/gcc-arm-none-eabi-6-2017-q2-update/arm-none-eabi/include/c++/6.3.1/ext/new_allocator.h **** 
  92:/home/zkmike/.local/share/renesas/e2_studio/toolchains/gcc_arm/gcc-arm-none-eabi-6-2017-q2-update/arm-none-eabi/include/c++/6.3.1/ext/new_allocator.h ****       const_pointer
  93:/home/zkmike/.local/share/renesas/e2_studio/toolchains/gcc_arm/gcc-arm-none-eabi-6-2017-q2-update/arm-none-eabi/include/c++/6.3.1/ext/new_allocator.h ****       address(const_reference __x) const _GLIBCXX_NOEXCEPT
  94:/home/zkmike/.local/share/renesas/e2_studio/toolchains/gcc_arm/gcc-arm-none-eabi-6-2017-q2-update/arm-none-eabi/include/c++/6.3.1/ext/new_allocator.h ****       { return std::__addressof(__x); }
  95:/home/zkmike/.local/share/renesas/e2_studio/toolchains/gcc_arm/gcc-arm-none-eabi-6-2017-q2-update/arm-none-eabi/include/c++/6.3.1/ext/new_allocator.h **** 
  96:/home/zkmike/.local/share/renesas/e2_studio/toolchains/gcc_arm/gcc-arm-none-eabi-6-2017-q2-update/arm-none-eabi/include/c++/6.3.1/ext/new_allocator.h ****       // NB: __n is permitted to be 0.  The C++ standard says nothing
  97:/home/zkmike/.local/share/renesas/e2_studio/toolchains/gcc_arm/gcc-arm-none-eabi-6-2017-q2-update/arm-none-eabi/include/c++/6.3.1/ext/new_allocator.h ****       // about what the return value is when __n == 0.
  98:/home/zkmike/.local/share/renesas/e2_studio/toolchains/gcc_arm/gcc-arm-none-eabi-6-2017-q2-update/arm-none-eabi/include/c++/6.3.1/ext/new_allocator.h ****       pointer
  99:/home/zkmike/.local/share/renesas/e2_studio/toolchains/gcc_arm/gcc-arm-none-eabi-6-2017-q2-update/arm-none-eabi/include/c++/6.3.1/ext/new_allocator.h ****       allocate(size_type __n, const void* = 0)
 100:/home/zkmike/.local/share/renesas/e2_studio/toolchains/gcc_arm/gcc-arm-none-eabi-6-2017-q2-update/arm-none-eabi/include/c++/6.3.1/ext/new_allocator.h ****       { 
 101:/home/zkmike/.local/share/renesas/e2_studio/toolchains/gcc_arm/gcc-arm-none-eabi-6-2017-q2-update/arm-none-eabi/include/c++/6.3.1/ext/new_allocator.h **** 	if (__n > this->max_size())
 102:/home/zkmike/.local/share/renesas/e2_studio/toolchains/gcc_arm/gcc-arm-none-eabi-6-2017-q2-update/arm-none-eabi/include/c++/6.3.1/ext/new_allocator.h **** 	  std::__throw_bad_alloc();
 103:/home/zkmike/.local/share/renesas/e2_studio/toolchains/gcc_arm/gcc-arm-none-eabi-6-2017-q2-update/arm-none-eabi/include/c++/6.3.1/ext/new_allocator.h **** 
 104:/home/zkmike/.local/share/renesas/e2_studio/toolchains/gcc_arm/gcc-arm-none-eabi-6-2017-q2-update/arm-none-eabi/include/c++/6.3.1/ext/new_allocator.h **** 	return static_cast<_Tp*>(::operator new(__n * sizeof(_Tp)));
 105:/home/zkmike/.local/share/renesas/e2_studio/toolchains/gcc_arm/gcc-arm-none-eabi-6-2017-q2-update/arm-none-eabi/include/c++/6.3.1/ext/new_allocator.h ****       }
 106:/home/zkmike/.local/share/renesas/e2_studio/toolchains/gcc_arm/gcc-arm-none-eabi-6-2017-q2-update/arm-none-eabi/include/c++/6.3.1/ext/new_allocator.h **** 
 107:/home/zkmike/.local/share/renesas/e2_studio/toolchains/gcc_arm/gcc-arm-none-eabi-6-2017-q2-update/arm-none-eabi/include/c++/6.3.1/ext/new_allocator.h ****       // __p is not permitted to be a null pointer.
 108:/home/zkmike/.local/share/renesas/e2_studio/toolchains/gcc_arm/gcc-arm-none-eabi-6-2017-q2-update/arm-none-eabi/include/c++/6.3.1/ext/new_allocator.h ****       void
 109:/home/zkmike/.local/share/renesas/e2_studio/toolchains/gcc_arm/gcc-arm-none-eabi-6-2017-q2-update/arm-none-eabi/include/c++/6.3.1/ext/new_allocator.h ****       deallocate(pointer __p, size_type)
 110:/home/zkmike/.local/share/renesas/e2_studio/toolchains/gcc_arm/gcc-arm-none-eabi-6-2017-q2-update/arm-none-eabi/include/c++/6.3.1/ext/new_allocator.h ****       { ::operator delete(__p); }
 243              		.loc 6 110 0
 244 001c FEFFFFEB 		bl	_ZdlPv
 245              	.LVL18:
 246              	.L16:
 247              	.LBE1278:
 248              	.LBE1277:
 249              	.LBE1276:
 250              	.LBE1275:
 251              	.LBE1274:
 252              	.LBE1273:
 253              	.LBE1272:
 254              	.LBE1271:
 255              	.LBB1279:
 256              	.LBB1280:
 257              	.LBB1281:
 258              	.LBB1282:
 259              	.LBB1283:
 260              	.LBB1284:
 261              		.file 7 "/home/zkmike/.local/share/renesas/e2_studio/toolchains/gcc_arm/gcc-arm-none-eabi-6-2017-q
   1:/home/zkmike/.local/share/renesas/e2_studio/toolchains/gcc_arm/gcc-arm-none-eabi-6-2017-q2-update/arm-none-eabi/include/c++/6.3.1/bits/basic_string.h **** // Components for manipulating sequences of characters -*- C++ -*-
   2:/home/zkmike/.local/share/renesas/e2_studio/toolchains/gcc_arm/gcc-arm-none-eabi-6-2017-q2-update/arm-none-eabi/include/c++/6.3.1/bits/basic_string.h **** 
   3:/home/zkmike/.local/share/renesas/e2_studio/toolchains/gcc_arm/gcc-arm-none-eabi-6-2017-q2-update/arm-none-eabi/include/c++/6.3.1/bits/basic_string.h **** // Copyright (C) 1997-2016 Free Software Foundation, Inc.
   4:/home/zkmike/.local/share/renesas/e2_studio/toolchains/gcc_arm/gcc-arm-none-eabi-6-2017-q2-update/arm-none-eabi/include/c++/6.3.1/bits/basic_string.h **** //
   5:/home/zkmike/.local/share/renesas/e2_studio/toolchains/gcc_arm/gcc-arm-none-eabi-6-2017-q2-update/arm-none-eabi/include/c++/6.3.1/bits/basic_string.h **** // This file is part of the GNU ISO C++ Library.  This library is free
   6:/home/zkmike/.local/share/renesas/e2_studio/toolchains/gcc_arm/gcc-arm-none-eabi-6-2017-q2-update/arm-none-eabi/include/c++/6.3.1/bits/basic_string.h **** // software; you can redistribute it and/or modify it under the
   7:/home/zkmike/.local/share/renesas/e2_studio/toolchains/gcc_arm/gcc-arm-none-eabi-6-2017-q2-update/arm-none-eabi/include/c++/6.3.1/bits/basic_string.h **** // terms of the GNU General Public License as published by the
   8:/home/zkmike/.local/share/renesas/e2_studio/toolchains/gcc_arm/gcc-arm-none-eabi-6-2017-q2-update/arm-none-eabi/include/c++/6.3.1/bits/basic_string.h **** // Free Software Foundation; either version 3, or (at your option)
   9:/home/zkmike/.local/share/renesas/e2_studio/toolchains/gcc_arm/gcc-arm-none-eabi-6-2017-q2-update/arm-none-eabi/include/c++/6.3.1/bits/basic_string.h **** // any later version.
  10:/home/zkmike/.local/share/renesas/e2_studio/toolchains/gcc_arm/gcc-arm-none-eabi-6-2017-q2-update/arm-none-eabi/include/c++/6.3.1/bits/basic_string.h **** 
  11:/home/zkmike/.local/share/renesas/e2_studio/toolchains/gcc_arm/gcc-arm-none-eabi-6-2017-q2-update/arm-none-eabi/include/c++/6.3.1/bits/basic_string.h **** // This library is distributed in the hope that it will be useful,
  12:/home/zkmike/.local/share/renesas/e2_studio/toolchains/gcc_arm/gcc-arm-none-eabi-6-2017-q2-update/arm-none-eabi/include/c++/6.3.1/bits/basic_string.h **** // but WITHOUT ANY WARRANTY; without even the implied warranty of
  13:/home/zkmike/.local/share/renesas/e2_studio/toolchains/gcc_arm/gcc-arm-none-eabi-6-2017-q2-update/arm-none-eabi/include/c++/6.3.1/bits/basic_string.h **** // MERCHANTABILITY or FITNESS FOR A PARTICULAR PURPOSE.  See the
  14:/home/zkmike/.local/share/renesas/e2_studio/toolchains/gcc_arm/gcc-arm-none-eabi-6-2017-q2-update/arm-none-eabi/include/c++/6.3.1/bits/basic_string.h **** // GNU General Public License for more details.
  15:/home/zkmike/.local/share/renesas/e2_studio/toolchains/gcc_arm/gcc-arm-none-eabi-6-2017-q2-update/arm-none-eabi/include/c++/6.3.1/bits/basic_string.h **** 
  16:/home/zkmike/.local/share/renesas/e2_studio/toolchains/gcc_arm/gcc-arm-none-eabi-6-2017-q2-update/arm-none-eabi/include/c++/6.3.1/bits/basic_string.h **** // Under Section 7 of GPL version 3, you are granted additional
  17:/home/zkmike/.local/share/renesas/e2_studio/toolchains/gcc_arm/gcc-arm-none-eabi-6-2017-q2-update/arm-none-eabi/include/c++/6.3.1/bits/basic_string.h **** // permissions described in the GCC Runtime Library Exception, version
  18:/home/zkmike/.local/share/renesas/e2_studio/toolchains/gcc_arm/gcc-arm-none-eabi-6-2017-q2-update/arm-none-eabi/include/c++/6.3.1/bits/basic_string.h **** // 3.1, as published by the Free Software Foundation.
  19:/home/zkmike/.local/share/renesas/e2_studio/toolchains/gcc_arm/gcc-arm-none-eabi-6-2017-q2-update/arm-none-eabi/include/c++/6.3.1/bits/basic_string.h **** 
  20:/home/zkmike/.local/share/renesas/e2_studio/toolchains/gcc_arm/gcc-arm-none-eabi-6-2017-q2-update/arm-none-eabi/include/c++/6.3.1/bits/basic_string.h **** // You should have received a copy of the GNU General Public License and
  21:/home/zkmike/.local/share/renesas/e2_studio/toolchains/gcc_arm/gcc-arm-none-eabi-6-2017-q2-update/arm-none-eabi/include/c++/6.3.1/bits/basic_string.h **** // a copy of the GCC Runtime Library Exception along with this program;
  22:/home/zkmike/.local/share/renesas/e2_studio/toolchains/gcc_arm/gcc-arm-none-eabi-6-2017-q2-update/arm-none-eabi/include/c++/6.3.1/bits/basic_string.h **** // see the files COPYING3 and COPYING.RUNTIME respectively.  If not, see
  23:/home/zkmike/.local/share/renesas/e2_studio/toolchains/gcc_arm/gcc-arm-none-eabi-6-2017-q2-update/arm-none-eabi/include/c++/6.3.1/bits/basic_string.h **** // <http://www.gnu.org/licenses/>.
  24:/home/zkmike/.local/share/renesas/e2_studio/toolchains/gcc_arm/gcc-arm-none-eabi-6-2017-q2-update/arm-none-eabi/include/c++/6.3.1/bits/basic_string.h **** 
  25:/home/zkmike/.local/share/renesas/e2_studio/toolchains/gcc_arm/gcc-arm-none-eabi-6-2017-q2-update/arm-none-eabi/include/c++/6.3.1/bits/basic_string.h **** /** @file bits/basic_string.h
  26:/home/zkmike/.local/share/renesas/e2_studio/toolchains/gcc_arm/gcc-arm-none-eabi-6-2017-q2-update/arm-none-eabi/include/c++/6.3.1/bits/basic_string.h ****  *  This is an internal header file, included by other library headers.
  27:/home/zkmike/.local/share/renesas/e2_studio/toolchains/gcc_arm/gcc-arm-none-eabi-6-2017-q2-update/arm-none-eabi/include/c++/6.3.1/bits/basic_string.h ****  *  Do not attempt to use it directly. @headername{string}
  28:/home/zkmike/.local/share/renesas/e2_studio/toolchains/gcc_arm/gcc-arm-none-eabi-6-2017-q2-update/arm-none-eabi/include/c++/6.3.1/bits/basic_string.h ****  */
  29:/home/zkmike/.local/share/renesas/e2_studio/toolchains/gcc_arm/gcc-arm-none-eabi-6-2017-q2-update/arm-none-eabi/include/c++/6.3.1/bits/basic_string.h **** 
  30:/home/zkmike/.local/share/renesas/e2_studio/toolchains/gcc_arm/gcc-arm-none-eabi-6-2017-q2-update/arm-none-eabi/include/c++/6.3.1/bits/basic_string.h **** //
  31:/home/zkmike/.local/share/renesas/e2_studio/toolchains/gcc_arm/gcc-arm-none-eabi-6-2017-q2-update/arm-none-eabi/include/c++/6.3.1/bits/basic_string.h **** // ISO C++ 14882: 21 Strings library
  32:/home/zkmike/.local/share/renesas/e2_studio/toolchains/gcc_arm/gcc-arm-none-eabi-6-2017-q2-update/arm-none-eabi/include/c++/6.3.1/bits/basic_string.h **** //
  33:/home/zkmike/.local/share/renesas/e2_studio/toolchains/gcc_arm/gcc-arm-none-eabi-6-2017-q2-update/arm-none-eabi/include/c++/6.3.1/bits/basic_string.h **** 
  34:/home/zkmike/.local/share/renesas/e2_studio/toolchains/gcc_arm/gcc-arm-none-eabi-6-2017-q2-update/arm-none-eabi/include/c++/6.3.1/bits/basic_string.h **** #ifndef _BASIC_STRING_H
  35:/home/zkmike/.local/share/renesas/e2_studio/toolchains/gcc_arm/gcc-arm-none-eabi-6-2017-q2-update/arm-none-eabi/include/c++/6.3.1/bits/basic_string.h **** #define _BASIC_STRING_H 1
  36:/home/zkmike/.local/share/renesas/e2_studio/toolchains/gcc_arm/gcc-arm-none-eabi-6-2017-q2-update/arm-none-eabi/include/c++/6.3.1/bits/basic_string.h **** 
  37:/home/zkmike/.local/share/renesas/e2_studio/toolchains/gcc_arm/gcc-arm-none-eabi-6-2017-q2-update/arm-none-eabi/include/c++/6.3.1/bits/basic_string.h **** #pragma GCC system_header
  38:/home/zkmike/.local/share/renesas/e2_studio/toolchains/gcc_arm/gcc-arm-none-eabi-6-2017-q2-update/arm-none-eabi/include/c++/6.3.1/bits/basic_string.h **** 
  39:/home/zkmike/.local/share/renesas/e2_studio/toolchains/gcc_arm/gcc-arm-none-eabi-6-2017-q2-update/arm-none-eabi/include/c++/6.3.1/bits/basic_string.h **** #include <ext/atomicity.h>
  40:/home/zkmike/.local/share/renesas/e2_studio/toolchains/gcc_arm/gcc-arm-none-eabi-6-2017-q2-update/arm-none-eabi/include/c++/6.3.1/bits/basic_string.h **** #include <ext/alloc_traits.h>
  41:/home/zkmike/.local/share/renesas/e2_studio/toolchains/gcc_arm/gcc-arm-none-eabi-6-2017-q2-update/arm-none-eabi/include/c++/6.3.1/bits/basic_string.h **** #include <debug/debug.h>
  42:/home/zkmike/.local/share/renesas/e2_studio/toolchains/gcc_arm/gcc-arm-none-eabi-6-2017-q2-update/arm-none-eabi/include/c++/6.3.1/bits/basic_string.h **** 
  43:/home/zkmike/.local/share/renesas/e2_studio/toolchains/gcc_arm/gcc-arm-none-eabi-6-2017-q2-update/arm-none-eabi/include/c++/6.3.1/bits/basic_string.h **** #if __cplusplus >= 201103L
  44:/home/zkmike/.local/share/renesas/e2_studio/toolchains/gcc_arm/gcc-arm-none-eabi-6-2017-q2-update/arm-none-eabi/include/c++/6.3.1/bits/basic_string.h **** #include <initializer_list>
  45:/home/zkmike/.local/share/renesas/e2_studio/toolchains/gcc_arm/gcc-arm-none-eabi-6-2017-q2-update/arm-none-eabi/include/c++/6.3.1/bits/basic_string.h **** #endif
  46:/home/zkmike/.local/share/renesas/e2_studio/toolchains/gcc_arm/gcc-arm-none-eabi-6-2017-q2-update/arm-none-eabi/include/c++/6.3.1/bits/basic_string.h **** 
  47:/home/zkmike/.local/share/renesas/e2_studio/toolchains/gcc_arm/gcc-arm-none-eabi-6-2017-q2-update/arm-none-eabi/include/c++/6.3.1/bits/basic_string.h **** namespace std _GLIBCXX_VISIBILITY(default)
  48:/home/zkmike/.local/share/renesas/e2_studio/toolchains/gcc_arm/gcc-arm-none-eabi-6-2017-q2-update/arm-none-eabi/include/c++/6.3.1/bits/basic_string.h **** {
  49:/home/zkmike/.local/share/renesas/e2_studio/toolchains/gcc_arm/gcc-arm-none-eabi-6-2017-q2-update/arm-none-eabi/include/c++/6.3.1/bits/basic_string.h **** _GLIBCXX_BEGIN_NAMESPACE_VERSION
  50:/home/zkmike/.local/share/renesas/e2_studio/toolchains/gcc_arm/gcc-arm-none-eabi-6-2017-q2-update/arm-none-eabi/include/c++/6.3.1/bits/basic_string.h **** 
  51:/home/zkmike/.local/share/renesas/e2_studio/toolchains/gcc_arm/gcc-arm-none-eabi-6-2017-q2-update/arm-none-eabi/include/c++/6.3.1/bits/basic_string.h **** #if _GLIBCXX_USE_CXX11_ABI
  52:/home/zkmike/.local/share/renesas/e2_studio/toolchains/gcc_arm/gcc-arm-none-eabi-6-2017-q2-update/arm-none-eabi/include/c++/6.3.1/bits/basic_string.h **** _GLIBCXX_BEGIN_NAMESPACE_CXX11
  53:/home/zkmike/.local/share/renesas/e2_studio/toolchains/gcc_arm/gcc-arm-none-eabi-6-2017-q2-update/arm-none-eabi/include/c++/6.3.1/bits/basic_string.h ****   /**
  54:/home/zkmike/.local/share/renesas/e2_studio/toolchains/gcc_arm/gcc-arm-none-eabi-6-2017-q2-update/arm-none-eabi/include/c++/6.3.1/bits/basic_string.h ****    *  @class basic_string basic_string.h <string>
  55:/home/zkmike/.local/share/renesas/e2_studio/toolchains/gcc_arm/gcc-arm-none-eabi-6-2017-q2-update/arm-none-eabi/include/c++/6.3.1/bits/basic_string.h ****    *  @brief  Managing sequences of characters and character-like objects.
  56:/home/zkmike/.local/share/renesas/e2_studio/toolchains/gcc_arm/gcc-arm-none-eabi-6-2017-q2-update/arm-none-eabi/include/c++/6.3.1/bits/basic_string.h ****    *
  57:/home/zkmike/.local/share/renesas/e2_studio/toolchains/gcc_arm/gcc-arm-none-eabi-6-2017-q2-update/arm-none-eabi/include/c++/6.3.1/bits/basic_string.h ****    *  @ingroup strings
  58:/home/zkmike/.local/share/renesas/e2_studio/toolchains/gcc_arm/gcc-arm-none-eabi-6-2017-q2-update/arm-none-eabi/include/c++/6.3.1/bits/basic_string.h ****    *  @ingroup sequences
  59:/home/zkmike/.local/share/renesas/e2_studio/toolchains/gcc_arm/gcc-arm-none-eabi-6-2017-q2-update/arm-none-eabi/include/c++/6.3.1/bits/basic_string.h ****    *
  60:/home/zkmike/.local/share/renesas/e2_studio/toolchains/gcc_arm/gcc-arm-none-eabi-6-2017-q2-update/arm-none-eabi/include/c++/6.3.1/bits/basic_string.h ****    *  @tparam _CharT  Type of character
  61:/home/zkmike/.local/share/renesas/e2_studio/toolchains/gcc_arm/gcc-arm-none-eabi-6-2017-q2-update/arm-none-eabi/include/c++/6.3.1/bits/basic_string.h ****    *  @tparam _Traits  Traits for character type, defaults to
  62:/home/zkmike/.local/share/renesas/e2_studio/toolchains/gcc_arm/gcc-arm-none-eabi-6-2017-q2-update/arm-none-eabi/include/c++/6.3.1/bits/basic_string.h ****    *                   char_traits<_CharT>.
  63:/home/zkmike/.local/share/renesas/e2_studio/toolchains/gcc_arm/gcc-arm-none-eabi-6-2017-q2-update/arm-none-eabi/include/c++/6.3.1/bits/basic_string.h ****    *  @tparam _Alloc  Allocator type, defaults to allocator<_CharT>.
  64:/home/zkmike/.local/share/renesas/e2_studio/toolchains/gcc_arm/gcc-arm-none-eabi-6-2017-q2-update/arm-none-eabi/include/c++/6.3.1/bits/basic_string.h ****    *
  65:/home/zkmike/.local/share/renesas/e2_studio/toolchains/gcc_arm/gcc-arm-none-eabi-6-2017-q2-update/arm-none-eabi/include/c++/6.3.1/bits/basic_string.h ****    *  Meets the requirements of a <a href="tables.html#65">container</a>, a
  66:/home/zkmike/.local/share/renesas/e2_studio/toolchains/gcc_arm/gcc-arm-none-eabi-6-2017-q2-update/arm-none-eabi/include/c++/6.3.1/bits/basic_string.h ****    *  <a href="tables.html#66">reversible container</a>, and a
  67:/home/zkmike/.local/share/renesas/e2_studio/toolchains/gcc_arm/gcc-arm-none-eabi-6-2017-q2-update/arm-none-eabi/include/c++/6.3.1/bits/basic_string.h ****    *  <a href="tables.html#67">sequence</a>.  Of the
  68:/home/zkmike/.local/share/renesas/e2_studio/toolchains/gcc_arm/gcc-arm-none-eabi-6-2017-q2-update/arm-none-eabi/include/c++/6.3.1/bits/basic_string.h ****    *  <a href="tables.html#68">optional sequence requirements</a>, only
  69:/home/zkmike/.local/share/renesas/e2_studio/toolchains/gcc_arm/gcc-arm-none-eabi-6-2017-q2-update/arm-none-eabi/include/c++/6.3.1/bits/basic_string.h ****    *  @c push_back, @c at, and @c %array access are supported.
  70:/home/zkmike/.local/share/renesas/e2_studio/toolchains/gcc_arm/gcc-arm-none-eabi-6-2017-q2-update/arm-none-eabi/include/c++/6.3.1/bits/basic_string.h ****    */
  71:/home/zkmike/.local/share/renesas/e2_studio/toolchains/gcc_arm/gcc-arm-none-eabi-6-2017-q2-update/arm-none-eabi/include/c++/6.3.1/bits/basic_string.h ****   template<typename _CharT, typename _Traits, typename _Alloc>
  72:/home/zkmike/.local/share/renesas/e2_studio/toolchains/gcc_arm/gcc-arm-none-eabi-6-2017-q2-update/arm-none-eabi/include/c++/6.3.1/bits/basic_string.h ****     class basic_string
  73:/home/zkmike/.local/share/renesas/e2_studio/toolchains/gcc_arm/gcc-arm-none-eabi-6-2017-q2-update/arm-none-eabi/include/c++/6.3.1/bits/basic_string.h ****     {
  74:/home/zkmike/.local/share/renesas/e2_studio/toolchains/gcc_arm/gcc-arm-none-eabi-6-2017-q2-update/arm-none-eabi/include/c++/6.3.1/bits/basic_string.h ****       typedef typename __gnu_cxx::__alloc_traits<_Alloc>::template
  75:/home/zkmike/.local/share/renesas/e2_studio/toolchains/gcc_arm/gcc-arm-none-eabi-6-2017-q2-update/arm-none-eabi/include/c++/6.3.1/bits/basic_string.h **** 	rebind<_CharT>::other _Char_alloc_type;
  76:/home/zkmike/.local/share/renesas/e2_studio/toolchains/gcc_arm/gcc-arm-none-eabi-6-2017-q2-update/arm-none-eabi/include/c++/6.3.1/bits/basic_string.h ****       typedef __gnu_cxx::__alloc_traits<_Char_alloc_type> _Alloc_traits;
  77:/home/zkmike/.local/share/renesas/e2_studio/toolchains/gcc_arm/gcc-arm-none-eabi-6-2017-q2-update/arm-none-eabi/include/c++/6.3.1/bits/basic_string.h **** 
  78:/home/zkmike/.local/share/renesas/e2_studio/toolchains/gcc_arm/gcc-arm-none-eabi-6-2017-q2-update/arm-none-eabi/include/c++/6.3.1/bits/basic_string.h ****       // Types:
  79:/home/zkmike/.local/share/renesas/e2_studio/toolchains/gcc_arm/gcc-arm-none-eabi-6-2017-q2-update/arm-none-eabi/include/c++/6.3.1/bits/basic_string.h ****     public:
  80:/home/zkmike/.local/share/renesas/e2_studio/toolchains/gcc_arm/gcc-arm-none-eabi-6-2017-q2-update/arm-none-eabi/include/c++/6.3.1/bits/basic_string.h ****       typedef _Traits					traits_type;
  81:/home/zkmike/.local/share/renesas/e2_studio/toolchains/gcc_arm/gcc-arm-none-eabi-6-2017-q2-update/arm-none-eabi/include/c++/6.3.1/bits/basic_string.h ****       typedef typename _Traits::char_type		value_type;
  82:/home/zkmike/.local/share/renesas/e2_studio/toolchains/gcc_arm/gcc-arm-none-eabi-6-2017-q2-update/arm-none-eabi/include/c++/6.3.1/bits/basic_string.h ****       typedef _Char_alloc_type				allocator_type;
  83:/home/zkmike/.local/share/renesas/e2_studio/toolchains/gcc_arm/gcc-arm-none-eabi-6-2017-q2-update/arm-none-eabi/include/c++/6.3.1/bits/basic_string.h ****       typedef typename _Alloc_traits::size_type		size_type;
  84:/home/zkmike/.local/share/renesas/e2_studio/toolchains/gcc_arm/gcc-arm-none-eabi-6-2017-q2-update/arm-none-eabi/include/c++/6.3.1/bits/basic_string.h ****       typedef typename _Alloc_traits::difference_type	difference_type;
  85:/home/zkmike/.local/share/renesas/e2_studio/toolchains/gcc_arm/gcc-arm-none-eabi-6-2017-q2-update/arm-none-eabi/include/c++/6.3.1/bits/basic_string.h ****       typedef typename _Alloc_traits::reference		reference;
  86:/home/zkmike/.local/share/renesas/e2_studio/toolchains/gcc_arm/gcc-arm-none-eabi-6-2017-q2-update/arm-none-eabi/include/c++/6.3.1/bits/basic_string.h ****       typedef typename _Alloc_traits::const_reference	const_reference;
  87:/home/zkmike/.local/share/renesas/e2_studio/toolchains/gcc_arm/gcc-arm-none-eabi-6-2017-q2-update/arm-none-eabi/include/c++/6.3.1/bits/basic_string.h ****       typedef typename _Alloc_traits::pointer		pointer;
  88:/home/zkmike/.local/share/renesas/e2_studio/toolchains/gcc_arm/gcc-arm-none-eabi-6-2017-q2-update/arm-none-eabi/include/c++/6.3.1/bits/basic_string.h ****       typedef typename _Alloc_traits::const_pointer	const_pointer;
  89:/home/zkmike/.local/share/renesas/e2_studio/toolchains/gcc_arm/gcc-arm-none-eabi-6-2017-q2-update/arm-none-eabi/include/c++/6.3.1/bits/basic_string.h ****       typedef __gnu_cxx::__normal_iterator<pointer, basic_string>  iterator;
  90:/home/zkmike/.local/share/renesas/e2_studio/toolchains/gcc_arm/gcc-arm-none-eabi-6-2017-q2-update/arm-none-eabi/include/c++/6.3.1/bits/basic_string.h ****       typedef __gnu_cxx::__normal_iterator<const_pointer, basic_string>
  91:/home/zkmike/.local/share/renesas/e2_studio/toolchains/gcc_arm/gcc-arm-none-eabi-6-2017-q2-update/arm-none-eabi/include/c++/6.3.1/bits/basic_string.h **** 							const_iterator;
  92:/home/zkmike/.local/share/renesas/e2_studio/toolchains/gcc_arm/gcc-arm-none-eabi-6-2017-q2-update/arm-none-eabi/include/c++/6.3.1/bits/basic_string.h ****       typedef std::reverse_iterator<const_iterator>	const_reverse_iterator;
  93:/home/zkmike/.local/share/renesas/e2_studio/toolchains/gcc_arm/gcc-arm-none-eabi-6-2017-q2-update/arm-none-eabi/include/c++/6.3.1/bits/basic_string.h ****       typedef std::reverse_iterator<iterator>		reverse_iterator;
  94:/home/zkmike/.local/share/renesas/e2_studio/toolchains/gcc_arm/gcc-arm-none-eabi-6-2017-q2-update/arm-none-eabi/include/c++/6.3.1/bits/basic_string.h **** 
  95:/home/zkmike/.local/share/renesas/e2_studio/toolchains/gcc_arm/gcc-arm-none-eabi-6-2017-q2-update/arm-none-eabi/include/c++/6.3.1/bits/basic_string.h ****       ///  Value returned by various member functions when they fail.
  96:/home/zkmike/.local/share/renesas/e2_studio/toolchains/gcc_arm/gcc-arm-none-eabi-6-2017-q2-update/arm-none-eabi/include/c++/6.3.1/bits/basic_string.h ****       static const size_type	npos = static_cast<size_type>(-1);
  97:/home/zkmike/.local/share/renesas/e2_studio/toolchains/gcc_arm/gcc-arm-none-eabi-6-2017-q2-update/arm-none-eabi/include/c++/6.3.1/bits/basic_string.h **** 
  98:/home/zkmike/.local/share/renesas/e2_studio/toolchains/gcc_arm/gcc-arm-none-eabi-6-2017-q2-update/arm-none-eabi/include/c++/6.3.1/bits/basic_string.h ****     private:
  99:/home/zkmike/.local/share/renesas/e2_studio/toolchains/gcc_arm/gcc-arm-none-eabi-6-2017-q2-update/arm-none-eabi/include/c++/6.3.1/bits/basic_string.h ****       // type used for positions in insert, erase etc.
 100:/home/zkmike/.local/share/renesas/e2_studio/toolchains/gcc_arm/gcc-arm-none-eabi-6-2017-q2-update/arm-none-eabi/include/c++/6.3.1/bits/basic_string.h **** #if __cplusplus < 201103L
 101:/home/zkmike/.local/share/renesas/e2_studio/toolchains/gcc_arm/gcc-arm-none-eabi-6-2017-q2-update/arm-none-eabi/include/c++/6.3.1/bits/basic_string.h ****       typedef iterator __const_iterator;
 102:/home/zkmike/.local/share/renesas/e2_studio/toolchains/gcc_arm/gcc-arm-none-eabi-6-2017-q2-update/arm-none-eabi/include/c++/6.3.1/bits/basic_string.h **** #else
 103:/home/zkmike/.local/share/renesas/e2_studio/toolchains/gcc_arm/gcc-arm-none-eabi-6-2017-q2-update/arm-none-eabi/include/c++/6.3.1/bits/basic_string.h ****       typedef const_iterator __const_iterator;
 104:/home/zkmike/.local/share/renesas/e2_studio/toolchains/gcc_arm/gcc-arm-none-eabi-6-2017-q2-update/arm-none-eabi/include/c++/6.3.1/bits/basic_string.h **** #endif
 105:/home/zkmike/.local/share/renesas/e2_studio/toolchains/gcc_arm/gcc-arm-none-eabi-6-2017-q2-update/arm-none-eabi/include/c++/6.3.1/bits/basic_string.h **** 
 106:/home/zkmike/.local/share/renesas/e2_studio/toolchains/gcc_arm/gcc-arm-none-eabi-6-2017-q2-update/arm-none-eabi/include/c++/6.3.1/bits/basic_string.h ****       // Use empty-base optimization: http://www.cantrip.org/emptyopt.html
 107:/home/zkmike/.local/share/renesas/e2_studio/toolchains/gcc_arm/gcc-arm-none-eabi-6-2017-q2-update/arm-none-eabi/include/c++/6.3.1/bits/basic_string.h ****       struct _Alloc_hider : allocator_type // TODO check __is_final
 108:/home/zkmike/.local/share/renesas/e2_studio/toolchains/gcc_arm/gcc-arm-none-eabi-6-2017-q2-update/arm-none-eabi/include/c++/6.3.1/bits/basic_string.h ****       {
 109:/home/zkmike/.local/share/renesas/e2_studio/toolchains/gcc_arm/gcc-arm-none-eabi-6-2017-q2-update/arm-none-eabi/include/c++/6.3.1/bits/basic_string.h **** 	_Alloc_hider(pointer __dat, const _Alloc& __a = _Alloc())
 110:/home/zkmike/.local/share/renesas/e2_studio/toolchains/gcc_arm/gcc-arm-none-eabi-6-2017-q2-update/arm-none-eabi/include/c++/6.3.1/bits/basic_string.h **** 	: allocator_type(__a), _M_p(__dat) { }
 111:/home/zkmike/.local/share/renesas/e2_studio/toolchains/gcc_arm/gcc-arm-none-eabi-6-2017-q2-update/arm-none-eabi/include/c++/6.3.1/bits/basic_string.h **** 
 112:/home/zkmike/.local/share/renesas/e2_studio/toolchains/gcc_arm/gcc-arm-none-eabi-6-2017-q2-update/arm-none-eabi/include/c++/6.3.1/bits/basic_string.h **** 	pointer _M_p; // The actual data.
 113:/home/zkmike/.local/share/renesas/e2_studio/toolchains/gcc_arm/gcc-arm-none-eabi-6-2017-q2-update/arm-none-eabi/include/c++/6.3.1/bits/basic_string.h ****       };
 114:/home/zkmike/.local/share/renesas/e2_studio/toolchains/gcc_arm/gcc-arm-none-eabi-6-2017-q2-update/arm-none-eabi/include/c++/6.3.1/bits/basic_string.h **** 
 115:/home/zkmike/.local/share/renesas/e2_studio/toolchains/gcc_arm/gcc-arm-none-eabi-6-2017-q2-update/arm-none-eabi/include/c++/6.3.1/bits/basic_string.h ****       _Alloc_hider	_M_dataplus;
 116:/home/zkmike/.local/share/renesas/e2_studio/toolchains/gcc_arm/gcc-arm-none-eabi-6-2017-q2-update/arm-none-eabi/include/c++/6.3.1/bits/basic_string.h ****       size_type		_M_string_length;
 117:/home/zkmike/.local/share/renesas/e2_studio/toolchains/gcc_arm/gcc-arm-none-eabi-6-2017-q2-update/arm-none-eabi/include/c++/6.3.1/bits/basic_string.h **** 
 118:/home/zkmike/.local/share/renesas/e2_studio/toolchains/gcc_arm/gcc-arm-none-eabi-6-2017-q2-update/arm-none-eabi/include/c++/6.3.1/bits/basic_string.h ****       enum { _S_local_capacity = 15 / sizeof(_CharT) };
 119:/home/zkmike/.local/share/renesas/e2_studio/toolchains/gcc_arm/gcc-arm-none-eabi-6-2017-q2-update/arm-none-eabi/include/c++/6.3.1/bits/basic_string.h **** 
 120:/home/zkmike/.local/share/renesas/e2_studio/toolchains/gcc_arm/gcc-arm-none-eabi-6-2017-q2-update/arm-none-eabi/include/c++/6.3.1/bits/basic_string.h ****       union
 121:/home/zkmike/.local/share/renesas/e2_studio/toolchains/gcc_arm/gcc-arm-none-eabi-6-2017-q2-update/arm-none-eabi/include/c++/6.3.1/bits/basic_string.h ****       {
 122:/home/zkmike/.local/share/renesas/e2_studio/toolchains/gcc_arm/gcc-arm-none-eabi-6-2017-q2-update/arm-none-eabi/include/c++/6.3.1/bits/basic_string.h **** 	_CharT           _M_local_buf[_S_local_capacity + 1];
 123:/home/zkmike/.local/share/renesas/e2_studio/toolchains/gcc_arm/gcc-arm-none-eabi-6-2017-q2-update/arm-none-eabi/include/c++/6.3.1/bits/basic_string.h **** 	size_type        _M_allocated_capacity;
 124:/home/zkmike/.local/share/renesas/e2_studio/toolchains/gcc_arm/gcc-arm-none-eabi-6-2017-q2-update/arm-none-eabi/include/c++/6.3.1/bits/basic_string.h ****       };
 125:/home/zkmike/.local/share/renesas/e2_studio/toolchains/gcc_arm/gcc-arm-none-eabi-6-2017-q2-update/arm-none-eabi/include/c++/6.3.1/bits/basic_string.h **** 
 126:/home/zkmike/.local/share/renesas/e2_studio/toolchains/gcc_arm/gcc-arm-none-eabi-6-2017-q2-update/arm-none-eabi/include/c++/6.3.1/bits/basic_string.h ****       void
 127:/home/zkmike/.local/share/renesas/e2_studio/toolchains/gcc_arm/gcc-arm-none-eabi-6-2017-q2-update/arm-none-eabi/include/c++/6.3.1/bits/basic_string.h ****       _M_data(pointer __p)
 128:/home/zkmike/.local/share/renesas/e2_studio/toolchains/gcc_arm/gcc-arm-none-eabi-6-2017-q2-update/arm-none-eabi/include/c++/6.3.1/bits/basic_string.h ****       { _M_dataplus._M_p = __p; }
 129:/home/zkmike/.local/share/renesas/e2_studio/toolchains/gcc_arm/gcc-arm-none-eabi-6-2017-q2-update/arm-none-eabi/include/c++/6.3.1/bits/basic_string.h **** 
 130:/home/zkmike/.local/share/renesas/e2_studio/toolchains/gcc_arm/gcc-arm-none-eabi-6-2017-q2-update/arm-none-eabi/include/c++/6.3.1/bits/basic_string.h ****       void
 131:/home/zkmike/.local/share/renesas/e2_studio/toolchains/gcc_arm/gcc-arm-none-eabi-6-2017-q2-update/arm-none-eabi/include/c++/6.3.1/bits/basic_string.h ****       _M_length(size_type __length)
 132:/home/zkmike/.local/share/renesas/e2_studio/toolchains/gcc_arm/gcc-arm-none-eabi-6-2017-q2-update/arm-none-eabi/include/c++/6.3.1/bits/basic_string.h ****       { _M_string_length = __length; }
 133:/home/zkmike/.local/share/renesas/e2_studio/toolchains/gcc_arm/gcc-arm-none-eabi-6-2017-q2-update/arm-none-eabi/include/c++/6.3.1/bits/basic_string.h **** 
 134:/home/zkmike/.local/share/renesas/e2_studio/toolchains/gcc_arm/gcc-arm-none-eabi-6-2017-q2-update/arm-none-eabi/include/c++/6.3.1/bits/basic_string.h ****       pointer
 135:/home/zkmike/.local/share/renesas/e2_studio/toolchains/gcc_arm/gcc-arm-none-eabi-6-2017-q2-update/arm-none-eabi/include/c++/6.3.1/bits/basic_string.h ****       _M_data() const
 136:/home/zkmike/.local/share/renesas/e2_studio/toolchains/gcc_arm/gcc-arm-none-eabi-6-2017-q2-update/arm-none-eabi/include/c++/6.3.1/bits/basic_string.h ****       { return _M_dataplus._M_p; }
 262              		.loc 7 136 0
 263 0020 0430A0E1 		mov	r3, r4
 264 0024 0800B3E5 		ldr	r0, [r3, #8]!
 265              	.LVL19:
 266              	.LBE1284:
 267              	.LBE1283:
 268              	.LBB1285:
 269              	.LBB1286:
 137:/home/zkmike/.local/share/renesas/e2_studio/toolchains/gcc_arm/gcc-arm-none-eabi-6-2017-q2-update/arm-none-eabi/include/c++/6.3.1/bits/basic_string.h **** 
 138:/home/zkmike/.local/share/renesas/e2_studio/toolchains/gcc_arm/gcc-arm-none-eabi-6-2017-q2-update/arm-none-eabi/include/c++/6.3.1/bits/basic_string.h ****       pointer
 139:/home/zkmike/.local/share/renesas/e2_studio/toolchains/gcc_arm/gcc-arm-none-eabi-6-2017-q2-update/arm-none-eabi/include/c++/6.3.1/bits/basic_string.h ****       _M_local_data()
 140:/home/zkmike/.local/share/renesas/e2_studio/toolchains/gcc_arm/gcc-arm-none-eabi-6-2017-q2-update/arm-none-eabi/include/c++/6.3.1/bits/basic_string.h ****       {
 141:/home/zkmike/.local/share/renesas/e2_studio/toolchains/gcc_arm/gcc-arm-none-eabi-6-2017-q2-update/arm-none-eabi/include/c++/6.3.1/bits/basic_string.h **** #if __cplusplus >= 201103L
 142:/home/zkmike/.local/share/renesas/e2_studio/toolchains/gcc_arm/gcc-arm-none-eabi-6-2017-q2-update/arm-none-eabi/include/c++/6.3.1/bits/basic_string.h **** 	return std::pointer_traits<pointer>::pointer_to(*_M_local_buf);
 143:/home/zkmike/.local/share/renesas/e2_studio/toolchains/gcc_arm/gcc-arm-none-eabi-6-2017-q2-update/arm-none-eabi/include/c++/6.3.1/bits/basic_string.h **** #else
 144:/home/zkmike/.local/share/renesas/e2_studio/toolchains/gcc_arm/gcc-arm-none-eabi-6-2017-q2-update/arm-none-eabi/include/c++/6.3.1/bits/basic_string.h **** 	return pointer(_M_local_buf);
 145:/home/zkmike/.local/share/renesas/e2_studio/toolchains/gcc_arm/gcc-arm-none-eabi-6-2017-q2-update/arm-none-eabi/include/c++/6.3.1/bits/basic_string.h **** #endif
 146:/home/zkmike/.local/share/renesas/e2_studio/toolchains/gcc_arm/gcc-arm-none-eabi-6-2017-q2-update/arm-none-eabi/include/c++/6.3.1/bits/basic_string.h ****       }
 147:/home/zkmike/.local/share/renesas/e2_studio/toolchains/gcc_arm/gcc-arm-none-eabi-6-2017-q2-update/arm-none-eabi/include/c++/6.3.1/bits/basic_string.h **** 
 148:/home/zkmike/.local/share/renesas/e2_studio/toolchains/gcc_arm/gcc-arm-none-eabi-6-2017-q2-update/arm-none-eabi/include/c++/6.3.1/bits/basic_string.h ****       const_pointer
 149:/home/zkmike/.local/share/renesas/e2_studio/toolchains/gcc_arm/gcc-arm-none-eabi-6-2017-q2-update/arm-none-eabi/include/c++/6.3.1/bits/basic_string.h ****       _M_local_data() const
 150:/home/zkmike/.local/share/renesas/e2_studio/toolchains/gcc_arm/gcc-arm-none-eabi-6-2017-q2-update/arm-none-eabi/include/c++/6.3.1/bits/basic_string.h ****       {
 151:/home/zkmike/.local/share/renesas/e2_studio/toolchains/gcc_arm/gcc-arm-none-eabi-6-2017-q2-update/arm-none-eabi/include/c++/6.3.1/bits/basic_string.h **** #if __cplusplus >= 201103L
 152:/home/zkmike/.local/share/renesas/e2_studio/toolchains/gcc_arm/gcc-arm-none-eabi-6-2017-q2-update/arm-none-eabi/include/c++/6.3.1/bits/basic_string.h **** 	return std::pointer_traits<const_pointer>::pointer_to(*_M_local_buf);
 270              		.loc 7 152 0
 271 0028 083083E2 		add	r3, r3, #8
 272              	.LVL20:
 273              	.LBE1286:
 274              	.LBE1285:
 275              	.LBE1282:
 153:/home/zkmike/.local/share/renesas/e2_studio/toolchains/gcc_arm/gcc-arm-none-eabi-6-2017-q2-update/arm-none-eabi/include/c++/6.3.1/bits/basic_string.h **** #else
 154:/home/zkmike/.local/share/renesas/e2_studio/toolchains/gcc_arm/gcc-arm-none-eabi-6-2017-q2-update/arm-none-eabi/include/c++/6.3.1/bits/basic_string.h **** 	return const_pointer(_M_local_buf);
 155:/home/zkmike/.local/share/renesas/e2_studio/toolchains/gcc_arm/gcc-arm-none-eabi-6-2017-q2-update/arm-none-eabi/include/c++/6.3.1/bits/basic_string.h **** #endif
 156:/home/zkmike/.local/share/renesas/e2_studio/toolchains/gcc_arm/gcc-arm-none-eabi-6-2017-q2-update/arm-none-eabi/include/c++/6.3.1/bits/basic_string.h ****       }
 157:/home/zkmike/.local/share/renesas/e2_studio/toolchains/gcc_arm/gcc-arm-none-eabi-6-2017-q2-update/arm-none-eabi/include/c++/6.3.1/bits/basic_string.h **** 
 158:/home/zkmike/.local/share/renesas/e2_studio/toolchains/gcc_arm/gcc-arm-none-eabi-6-2017-q2-update/arm-none-eabi/include/c++/6.3.1/bits/basic_string.h ****       void
 159:/home/zkmike/.local/share/renesas/e2_studio/toolchains/gcc_arm/gcc-arm-none-eabi-6-2017-q2-update/arm-none-eabi/include/c++/6.3.1/bits/basic_string.h ****       _M_capacity(size_type __capacity)
 160:/home/zkmike/.local/share/renesas/e2_studio/toolchains/gcc_arm/gcc-arm-none-eabi-6-2017-q2-update/arm-none-eabi/include/c++/6.3.1/bits/basic_string.h ****       { _M_allocated_capacity = __capacity; }
 161:/home/zkmike/.local/share/renesas/e2_studio/toolchains/gcc_arm/gcc-arm-none-eabi-6-2017-q2-update/arm-none-eabi/include/c++/6.3.1/bits/basic_string.h **** 
 162:/home/zkmike/.local/share/renesas/e2_studio/toolchains/gcc_arm/gcc-arm-none-eabi-6-2017-q2-update/arm-none-eabi/include/c++/6.3.1/bits/basic_string.h ****       void
 163:/home/zkmike/.local/share/renesas/e2_studio/toolchains/gcc_arm/gcc-arm-none-eabi-6-2017-q2-update/arm-none-eabi/include/c++/6.3.1/bits/basic_string.h ****       _M_set_length(size_type __n)
 164:/home/zkmike/.local/share/renesas/e2_studio/toolchains/gcc_arm/gcc-arm-none-eabi-6-2017-q2-update/arm-none-eabi/include/c++/6.3.1/bits/basic_string.h ****       {
 165:/home/zkmike/.local/share/renesas/e2_studio/toolchains/gcc_arm/gcc-arm-none-eabi-6-2017-q2-update/arm-none-eabi/include/c++/6.3.1/bits/basic_string.h **** 	_M_length(__n);
 166:/home/zkmike/.local/share/renesas/e2_studio/toolchains/gcc_arm/gcc-arm-none-eabi-6-2017-q2-update/arm-none-eabi/include/c++/6.3.1/bits/basic_string.h **** 	traits_type::assign(_M_data()[__n], _CharT());
 167:/home/zkmike/.local/share/renesas/e2_studio/toolchains/gcc_arm/gcc-arm-none-eabi-6-2017-q2-update/arm-none-eabi/include/c++/6.3.1/bits/basic_string.h ****       }
 168:/home/zkmike/.local/share/renesas/e2_studio/toolchains/gcc_arm/gcc-arm-none-eabi-6-2017-q2-update/arm-none-eabi/include/c++/6.3.1/bits/basic_string.h **** 
 169:/home/zkmike/.local/share/renesas/e2_studio/toolchains/gcc_arm/gcc-arm-none-eabi-6-2017-q2-update/arm-none-eabi/include/c++/6.3.1/bits/basic_string.h ****       bool
 170:/home/zkmike/.local/share/renesas/e2_studio/toolchains/gcc_arm/gcc-arm-none-eabi-6-2017-q2-update/arm-none-eabi/include/c++/6.3.1/bits/basic_string.h ****       _M_is_local() const
 171:/home/zkmike/.local/share/renesas/e2_studio/toolchains/gcc_arm/gcc-arm-none-eabi-6-2017-q2-update/arm-none-eabi/include/c++/6.3.1/bits/basic_string.h ****       { return _M_data() == _M_local_data(); }
 172:/home/zkmike/.local/share/renesas/e2_studio/toolchains/gcc_arm/gcc-arm-none-eabi-6-2017-q2-update/arm-none-eabi/include/c++/6.3.1/bits/basic_string.h **** 
 173:/home/zkmike/.local/share/renesas/e2_studio/toolchains/gcc_arm/gcc-arm-none-eabi-6-2017-q2-update/arm-none-eabi/include/c++/6.3.1/bits/basic_string.h ****       // Create & Destroy
 174:/home/zkmike/.local/share/renesas/e2_studio/toolchains/gcc_arm/gcc-arm-none-eabi-6-2017-q2-update/arm-none-eabi/include/c++/6.3.1/bits/basic_string.h ****       pointer
 175:/home/zkmike/.local/share/renesas/e2_studio/toolchains/gcc_arm/gcc-arm-none-eabi-6-2017-q2-update/arm-none-eabi/include/c++/6.3.1/bits/basic_string.h ****       _M_create(size_type&, size_type);
 176:/home/zkmike/.local/share/renesas/e2_studio/toolchains/gcc_arm/gcc-arm-none-eabi-6-2017-q2-update/arm-none-eabi/include/c++/6.3.1/bits/basic_string.h **** 
 177:/home/zkmike/.local/share/renesas/e2_studio/toolchains/gcc_arm/gcc-arm-none-eabi-6-2017-q2-update/arm-none-eabi/include/c++/6.3.1/bits/basic_string.h ****       void
 178:/home/zkmike/.local/share/renesas/e2_studio/toolchains/gcc_arm/gcc-arm-none-eabi-6-2017-q2-update/arm-none-eabi/include/c++/6.3.1/bits/basic_string.h ****       _M_dispose()
 179:/home/zkmike/.local/share/renesas/e2_studio/toolchains/gcc_arm/gcc-arm-none-eabi-6-2017-q2-update/arm-none-eabi/include/c++/6.3.1/bits/basic_string.h ****       {
 180:/home/zkmike/.local/share/renesas/e2_studio/toolchains/gcc_arm/gcc-arm-none-eabi-6-2017-q2-update/arm-none-eabi/include/c++/6.3.1/bits/basic_string.h **** 	if (!_M_is_local())
 276              		.loc 7 180 0
 277 002c 030050E1 		cmp	r0, r3
 278 0030 0000000A 		beq	.L17
 279              	.LVL21:
 280              	.LBB1287:
 281              	.LBB1288:
 282              	.LBB1289:
 283              	.LBB1290:
 284              		.loc 6 110 0
 285 0034 FEFFFFEB 		bl	_ZdlPv
 286              	.LVL22:
 287              	.L17:
 288              	.LBE1290:
 289              	.LBE1289:
 290              	.LBE1288:
 291              	.LBE1287:
 292              	.LBE1281:
 293              	.LBE1280:
 294              	.LBE1279:
 295              		.loc 4 35 0
 296 0038 0400A0E1 		mov	r0, r4
 297 003c FEFFFFEB 		bl	_ZN5zxing4oned10OneDReaderD2Ev
 298              	.LVL23:
 299              	.LBE1270:
 300 0040 0400A0E1 		mov	r0, r4
 301 0044 1080BDE8 		pop	{r4, pc}
 302              	.L20:
 303              		.align	2
 304              	.L19:
 305 0048 08000000 		.word	.LANCHOR0+8
 306              		.cfi_endproc
 307              	.LFE2958:
 308              		.cantunwind
 309              		.fnend
 311              		.weak	_ZN5zxing4oned12Code93ReaderD1Ev
 312              		.set	_ZN5zxing4oned12Code93ReaderD1Ev,_ZN5zxing4oned12Code93ReaderD2Ev
 313              		.section	.text._ZN5zxing8ArrayRefINS_3RefINS_11ResultPointEEEED0Ev,"axG",%progbits,_ZN5zxing8Array
 314              		.align	2
 315              		.weak	_ZN5zxing8ArrayRefINS_3RefINS_11ResultPointEEEED0Ev
 316              		.syntax unified
 317              		.arm
 318              		.fpu neon
 320              	_ZN5zxing8ArrayRefINS_3RefINS_11ResultPointEEEED0Ev:
 321              		.fnstart
 322              	.LFB2551:
 116:/home/zkmike/workspace/RZA2M/rza2m_2d_barcode_sample_freertos_gcc/src/zxing_lib/zxing/common/Array.h ****     if (array_) {
 323              		.loc 2 116 0
 324              		.cfi_startproc
 325              		@ args = 0, pretend = 0, frame = 0
 326              		@ frame_needed = 0, uses_anonymous_args = 0
 327              	.LVL24:
 328 0000 10402DE9 		push	{r4, lr}
 329              		.cfi_def_cfa_offset 8
 330              		.cfi_offset 4, -8
 331              		.cfi_offset 14, -4
 332 0004 0040A0E1 		mov	r4, r0
 333              	.LVL25:
 334              	.LBB1291:
 335              	.LBB1292:
 336              		.loc 2 121 0
 337 0008 50309FE5 		ldr	r3, .L25
 338 000c 003080E5 		str	r3, [r0]
 117:/home/zkmike/workspace/RZA2M/rza2m_2d_barcode_sample_freertos_gcc/src/zxing_lib/zxing/common/Array.h ****       array_->release();
 339              		.loc 2 117 0
 340 0010 080090E5 		ldr	r0, [r0, #8]
 341              	.LVL26:
 342 0014 000050E3 		cmp	r0, #0
 343 0018 0400000A 		beq	.L22
 344              	.LVL27:
 345              	.LBB1293:
 346              	.LBB1294:
  40:/home/zkmike/workspace/RZA2M/rza2m_2d_barcode_sample_freertos_gcc/src/zxing_lib/zxing/common/Counted.h ****     if (count_ == 0) {
 347              		.loc 3 40 0
 348 001c 043090E5 		ldr	r3, [r0, #4]
 349 0020 013043E2 		sub	r3, r3, #1
 350 0024 043080E5 		str	r3, [r0, #4]
  41:/home/zkmike/workspace/RZA2M/rza2m_2d_barcode_sample_freertos_gcc/src/zxing_lib/zxing/common/Counted.h ****       count_ = 0xDEADF001;
 351              		.loc 3 41 0
 352 0028 000053E3 		cmp	r3, #0
 353 002c 0400000A 		beq	.L24
 354              	.LVL28:
 355              	.L22:
 356              	.LBE1294:
 357              	.LBE1293:
 358              	.LBE1292:
 359              	.LBE1291:
 360              		.loc 2 121 0
 361 0030 0C10A0E3 		mov	r1, #12
 362 0034 0400A0E1 		mov	r0, r4
 363 0038 FEFFFFEB 		bl	_ZdlPvj
 364              	.LVL29:
 365 003c 0400A0E1 		mov	r0, r4
 366 0040 1080BDE8 		pop	{r4, pc}
 367              	.LVL30:
 368              	.L24:
 369              	.LBB1298:
 370              	.LBB1297:
 371              	.LBB1296:
 372              	.LBB1295:
  42:/home/zkmike/workspace/RZA2M/rza2m_2d_barcode_sample_freertos_gcc/src/zxing_lib/zxing/common/Counted.h ****       delete this;
 373              		.loc 3 42 0
 374 0044 01300FE3 		movw	r3, #61441
 375 0048 AD3E4DE3 		movt	r3, 57005
 376 004c 043080E5 		str	r3, [r0, #4]
 377              		.loc 3 43 0
 378 0050 003090E5 		ldr	r3, [r0]
 379 0054 043093E5 		ldr	r3, [r3, #4]
 380 0058 33FF2FE1 		blx	r3
 381              	.LVL31:
 382 005c F3FFFFEA 		b	.L22
 383              	.L26:
 384              		.align	2
 385              	.L25:
 386 0060 08000000 		.word	_ZTVN5zxing8ArrayRefINS_3RefINS_11ResultPointEEEEE+8
 387              	.LBE1295:
 388              	.LBE1296:
 389              	.LBE1297:
 390              	.LBE1298:
 391              		.cfi_endproc
 392              	.LFE2551:
 393              		.cantunwind
 394              		.fnend
 396              		.section	.text._ZN5zxing8ArrayRefIcED0Ev,"axG",%progbits,_ZN5zxing8ArrayRefIcED5Ev,comdat
 397              		.align	2
 398              		.weak	_ZN5zxing8ArrayRefIcED0Ev
 399              		.syntax unified
 400              		.arm
 401              		.fpu neon
 403              	_ZN5zxing8ArrayRefIcED0Ev:
 404              		.fnstart
 405              	.LFB2566:
 116:/home/zkmike/workspace/RZA2M/rza2m_2d_barcode_sample_freertos_gcc/src/zxing_lib/zxing/common/Array.h ****     if (array_) {
 406              		.loc 2 116 0
 407              		.cfi_startproc
 408              		@ args = 0, pretend = 0, frame = 0
 409              		@ frame_needed = 0, uses_anonymous_args = 0
 410              	.LVL32:
 411 0000 10402DE9 		push	{r4, lr}
 412              		.cfi_def_cfa_offset 8
 413              		.cfi_offset 4, -8
 414              		.cfi_offset 14, -4
 415 0004 0040A0E1 		mov	r4, r0
 416              	.LVL33:
 417              	.LBB1299:
 418              	.LBB1300:
 419              		.loc 2 121 0
 420 0008 50309FE5 		ldr	r3, .L31
 421 000c 003080E5 		str	r3, [r0]
 117:/home/zkmike/workspace/RZA2M/rza2m_2d_barcode_sample_freertos_gcc/src/zxing_lib/zxing/common/Array.h ****       array_->release();
 422              		.loc 2 117 0
 423 0010 080090E5 		ldr	r0, [r0, #8]
 424              	.LVL34:
 425 0014 000050E3 		cmp	r0, #0
 426 0018 0400000A 		beq	.L28
 427              	.LVL35:
 428              	.LBB1301:
 429              	.LBB1302:
  40:/home/zkmike/workspace/RZA2M/rza2m_2d_barcode_sample_freertos_gcc/src/zxing_lib/zxing/common/Counted.h ****     if (count_ == 0) {
 430              		.loc 3 40 0
 431 001c 043090E5 		ldr	r3, [r0, #4]
 432 0020 013043E2 		sub	r3, r3, #1
 433 0024 043080E5 		str	r3, [r0, #4]
  41:/home/zkmike/workspace/RZA2M/rza2m_2d_barcode_sample_freertos_gcc/src/zxing_lib/zxing/common/Counted.h ****       count_ = 0xDEADF001;
 434              		.loc 3 41 0
 435 0028 000053E3 		cmp	r3, #0
 436 002c 0400000A 		beq	.L30
 437              	.LVL36:
 438              	.L28:
 439              	.LBE1302:
 440              	.LBE1301:
 441              	.LBE1300:
 442              	.LBE1299:
 443              		.loc 2 121 0
 444 0030 0C10A0E3 		mov	r1, #12
 445 0034 0400A0E1 		mov	r0, r4
 446 0038 FEFFFFEB 		bl	_ZdlPvj
 447              	.LVL37:
 448 003c 0400A0E1 		mov	r0, r4
 449 0040 1080BDE8 		pop	{r4, pc}
 450              	.LVL38:
 451              	.L30:
 452              	.LBB1306:
 453              	.LBB1305:
 454              	.LBB1304:
 455              	.LBB1303:
  42:/home/zkmike/workspace/RZA2M/rza2m_2d_barcode_sample_freertos_gcc/src/zxing_lib/zxing/common/Counted.h ****       delete this;
 456              		.loc 3 42 0
 457 0044 01300FE3 		movw	r3, #61441
 458 0048 AD3E4DE3 		movt	r3, 57005
 459 004c 043080E5 		str	r3, [r0, #4]
 460              		.loc 3 43 0
 461 0050 003090E5 		ldr	r3, [r0]
 462 0054 043093E5 		ldr	r3, [r3, #4]
 463 0058 33FF2FE1 		blx	r3
 464              	.LVL39:
 465 005c F3FFFFEA 		b	.L28
 466              	.L32:
 467              		.align	2
 468              	.L31:
 469 0060 08000000 		.word	_ZTVN5zxing8ArrayRefIcEE+8
 470              	.LBE1303:
 471              	.LBE1304:
 472              	.LBE1305:
 473              	.LBE1306:
 474              		.cfi_endproc
 475              	.LFE2566:
 476              		.cantunwind
 477              		.fnend
 479              		.section	.text._ZN5zxing5ArrayINS_3RefINS_11ResultPointEEEED0Ev,"axG",%progbits,_ZN5zxing5ArrayINS
 480              		.align	2
 481              		.weak	_ZN5zxing5ArrayINS_3RefINS_11ResultPointEEEED0Ev
 482              		.syntax unified
 483              		.arm
 484              		.fpu neon
 486              	_ZN5zxing5ArrayINS_3RefINS_11ResultPointEEEED0Ev:
 487              		.fnstart
 488              	.LFB2965:
  56:/home/zkmike/workspace/RZA2M/rza2m_2d_barcode_sample_freertos_gcc/src/zxing_lib/zxing/common/Array.h ****   }
 489              		.loc 2 56 0
 490              		.cfi_startproc
 491              		@ args = 0, pretend = 0, frame = 0
 492              		@ frame_needed = 0, uses_anonymous_args = 0
 493              	.LVL40:
 494 0000 70402DE9 		push	{r4, r5, r6, lr}
 495              		.cfi_def_cfa_offset 16
 496              		.cfi_offset 4, -16
 497              		.cfi_offset 5, -12
 498              		.cfi_offset 6, -8
 499              		.cfi_offset 14, -4
 500 0004 0060A0E1 		mov	r6, r0
 501              	.LVL41:
 502              	.LBB1334:
 503              	.LBB1335:
  57:/home/zkmike/workspace/RZA2M/rza2m_2d_barcode_sample_freertos_gcc/src/zxing_lib/zxing/common/Array.h ****   Array<T>& operator=(const Array<T> &other) {
 504              		.loc 2 57 0
 505 0008 0030A0E1 		mov	r3, r0
 506 000c 78209FE5 		ldr	r2, .L39
 507 0010 082083E4 		str	r2, [r3], #8
 508              	.LVL42:
 509              	.LBB1336:
 510              	.LBB1337:
 511              		.loc 5 426 0
 512 0014 084090E5 		ldr	r4, [r0, #8]
 513 0018 045093E5 		ldr	r5, [r3, #4]
 514              	.LVL43:
 515 001c 000000EA 		b	.L36
 516              	.LVL44:
 517              	.L35:
 518              	.LBB1338:
 519              	.LBB1339:
 520              	.LBB1340:
 521              	.LBB1341:
 522              	.LBB1342:
 523              		.file 8 "/home/zkmike/.local/share/renesas/e2_studio/toolchains/gcc_arm/gcc-arm-none-eabi-6-2017-q
   1:/home/zkmike/.local/share/renesas/e2_studio/toolchains/gcc_arm/gcc-arm-none-eabi-6-2017-q2-update/arm-none-eabi/include/c++/6.3.1/bits/stl_construct.h **** // nonstandard construct and destroy functions -*- C++ -*-
   2:/home/zkmike/.local/share/renesas/e2_studio/toolchains/gcc_arm/gcc-arm-none-eabi-6-2017-q2-update/arm-none-eabi/include/c++/6.3.1/bits/stl_construct.h **** 
   3:/home/zkmike/.local/share/renesas/e2_studio/toolchains/gcc_arm/gcc-arm-none-eabi-6-2017-q2-update/arm-none-eabi/include/c++/6.3.1/bits/stl_construct.h **** // Copyright (C) 2001-2016 Free Software Foundation, Inc.
   4:/home/zkmike/.local/share/renesas/e2_studio/toolchains/gcc_arm/gcc-arm-none-eabi-6-2017-q2-update/arm-none-eabi/include/c++/6.3.1/bits/stl_construct.h **** //
   5:/home/zkmike/.local/share/renesas/e2_studio/toolchains/gcc_arm/gcc-arm-none-eabi-6-2017-q2-update/arm-none-eabi/include/c++/6.3.1/bits/stl_construct.h **** // This file is part of the GNU ISO C++ Library.  This library is free
   6:/home/zkmike/.local/share/renesas/e2_studio/toolchains/gcc_arm/gcc-arm-none-eabi-6-2017-q2-update/arm-none-eabi/include/c++/6.3.1/bits/stl_construct.h **** // software; you can redistribute it and/or modify it under the
   7:/home/zkmike/.local/share/renesas/e2_studio/toolchains/gcc_arm/gcc-arm-none-eabi-6-2017-q2-update/arm-none-eabi/include/c++/6.3.1/bits/stl_construct.h **** // terms of the GNU General Public License as published by the
   8:/home/zkmike/.local/share/renesas/e2_studio/toolchains/gcc_arm/gcc-arm-none-eabi-6-2017-q2-update/arm-none-eabi/include/c++/6.3.1/bits/stl_construct.h **** // Free Software Foundation; either version 3, or (at your option)
   9:/home/zkmike/.local/share/renesas/e2_studio/toolchains/gcc_arm/gcc-arm-none-eabi-6-2017-q2-update/arm-none-eabi/include/c++/6.3.1/bits/stl_construct.h **** // any later version.
  10:/home/zkmike/.local/share/renesas/e2_studio/toolchains/gcc_arm/gcc-arm-none-eabi-6-2017-q2-update/arm-none-eabi/include/c++/6.3.1/bits/stl_construct.h **** 
  11:/home/zkmike/.local/share/renesas/e2_studio/toolchains/gcc_arm/gcc-arm-none-eabi-6-2017-q2-update/arm-none-eabi/include/c++/6.3.1/bits/stl_construct.h **** // This library is distributed in the hope that it will be useful,
  12:/home/zkmike/.local/share/renesas/e2_studio/toolchains/gcc_arm/gcc-arm-none-eabi-6-2017-q2-update/arm-none-eabi/include/c++/6.3.1/bits/stl_construct.h **** // but WITHOUT ANY WARRANTY; without even the implied warranty of
  13:/home/zkmike/.local/share/renesas/e2_studio/toolchains/gcc_arm/gcc-arm-none-eabi-6-2017-q2-update/arm-none-eabi/include/c++/6.3.1/bits/stl_construct.h **** // MERCHANTABILITY or FITNESS FOR A PARTICULAR PURPOSE.  See the
  14:/home/zkmike/.local/share/renesas/e2_studio/toolchains/gcc_arm/gcc-arm-none-eabi-6-2017-q2-update/arm-none-eabi/include/c++/6.3.1/bits/stl_construct.h **** // GNU General Public License for more details.
  15:/home/zkmike/.local/share/renesas/e2_studio/toolchains/gcc_arm/gcc-arm-none-eabi-6-2017-q2-update/arm-none-eabi/include/c++/6.3.1/bits/stl_construct.h **** 
  16:/home/zkmike/.local/share/renesas/e2_studio/toolchains/gcc_arm/gcc-arm-none-eabi-6-2017-q2-update/arm-none-eabi/include/c++/6.3.1/bits/stl_construct.h **** // Under Section 7 of GPL version 3, you are granted additional
  17:/home/zkmike/.local/share/renesas/e2_studio/toolchains/gcc_arm/gcc-arm-none-eabi-6-2017-q2-update/arm-none-eabi/include/c++/6.3.1/bits/stl_construct.h **** // permissions described in the GCC Runtime Library Exception, version
  18:/home/zkmike/.local/share/renesas/e2_studio/toolchains/gcc_arm/gcc-arm-none-eabi-6-2017-q2-update/arm-none-eabi/include/c++/6.3.1/bits/stl_construct.h **** // 3.1, as published by the Free Software Foundation.
  19:/home/zkmike/.local/share/renesas/e2_studio/toolchains/gcc_arm/gcc-arm-none-eabi-6-2017-q2-update/arm-none-eabi/include/c++/6.3.1/bits/stl_construct.h **** 
  20:/home/zkmike/.local/share/renesas/e2_studio/toolchains/gcc_arm/gcc-arm-none-eabi-6-2017-q2-update/arm-none-eabi/include/c++/6.3.1/bits/stl_construct.h **** // You should have received a copy of the GNU General Public License and
  21:/home/zkmike/.local/share/renesas/e2_studio/toolchains/gcc_arm/gcc-arm-none-eabi-6-2017-q2-update/arm-none-eabi/include/c++/6.3.1/bits/stl_construct.h **** // a copy of the GCC Runtime Library Exception along with this program;
  22:/home/zkmike/.local/share/renesas/e2_studio/toolchains/gcc_arm/gcc-arm-none-eabi-6-2017-q2-update/arm-none-eabi/include/c++/6.3.1/bits/stl_construct.h **** // see the files COPYING3 and COPYING.RUNTIME respectively.  If not, see
  23:/home/zkmike/.local/share/renesas/e2_studio/toolchains/gcc_arm/gcc-arm-none-eabi-6-2017-q2-update/arm-none-eabi/include/c++/6.3.1/bits/stl_construct.h **** // <http://www.gnu.org/licenses/>.
  24:/home/zkmike/.local/share/renesas/e2_studio/toolchains/gcc_arm/gcc-arm-none-eabi-6-2017-q2-update/arm-none-eabi/include/c++/6.3.1/bits/stl_construct.h **** 
  25:/home/zkmike/.local/share/renesas/e2_studio/toolchains/gcc_arm/gcc-arm-none-eabi-6-2017-q2-update/arm-none-eabi/include/c++/6.3.1/bits/stl_construct.h **** /*
  26:/home/zkmike/.local/share/renesas/e2_studio/toolchains/gcc_arm/gcc-arm-none-eabi-6-2017-q2-update/arm-none-eabi/include/c++/6.3.1/bits/stl_construct.h ****  *
  27:/home/zkmike/.local/share/renesas/e2_studio/toolchains/gcc_arm/gcc-arm-none-eabi-6-2017-q2-update/arm-none-eabi/include/c++/6.3.1/bits/stl_construct.h ****  * Copyright (c) 1994
  28:/home/zkmike/.local/share/renesas/e2_studio/toolchains/gcc_arm/gcc-arm-none-eabi-6-2017-q2-update/arm-none-eabi/include/c++/6.3.1/bits/stl_construct.h ****  * Hewlett-Packard Company
  29:/home/zkmike/.local/share/renesas/e2_studio/toolchains/gcc_arm/gcc-arm-none-eabi-6-2017-q2-update/arm-none-eabi/include/c++/6.3.1/bits/stl_construct.h ****  *
  30:/home/zkmike/.local/share/renesas/e2_studio/toolchains/gcc_arm/gcc-arm-none-eabi-6-2017-q2-update/arm-none-eabi/include/c++/6.3.1/bits/stl_construct.h ****  * Permission to use, copy, modify, distribute and sell this software
  31:/home/zkmike/.local/share/renesas/e2_studio/toolchains/gcc_arm/gcc-arm-none-eabi-6-2017-q2-update/arm-none-eabi/include/c++/6.3.1/bits/stl_construct.h ****  * and its documentation for any purpose is hereby granted without fee,
  32:/home/zkmike/.local/share/renesas/e2_studio/toolchains/gcc_arm/gcc-arm-none-eabi-6-2017-q2-update/arm-none-eabi/include/c++/6.3.1/bits/stl_construct.h ****  * provided that the above copyright notice appear in all copies and
  33:/home/zkmike/.local/share/renesas/e2_studio/toolchains/gcc_arm/gcc-arm-none-eabi-6-2017-q2-update/arm-none-eabi/include/c++/6.3.1/bits/stl_construct.h ****  * that both that copyright notice and this permission notice appear
  34:/home/zkmike/.local/share/renesas/e2_studio/toolchains/gcc_arm/gcc-arm-none-eabi-6-2017-q2-update/arm-none-eabi/include/c++/6.3.1/bits/stl_construct.h ****  * in supporting documentation.  Hewlett-Packard Company makes no
  35:/home/zkmike/.local/share/renesas/e2_studio/toolchains/gcc_arm/gcc-arm-none-eabi-6-2017-q2-update/arm-none-eabi/include/c++/6.3.1/bits/stl_construct.h ****  * representations about the suitability of this software for any
  36:/home/zkmike/.local/share/renesas/e2_studio/toolchains/gcc_arm/gcc-arm-none-eabi-6-2017-q2-update/arm-none-eabi/include/c++/6.3.1/bits/stl_construct.h ****  * purpose.  It is provided "as is" without express or implied warranty.
  37:/home/zkmike/.local/share/renesas/e2_studio/toolchains/gcc_arm/gcc-arm-none-eabi-6-2017-q2-update/arm-none-eabi/include/c++/6.3.1/bits/stl_construct.h ****  *
  38:/home/zkmike/.local/share/renesas/e2_studio/toolchains/gcc_arm/gcc-arm-none-eabi-6-2017-q2-update/arm-none-eabi/include/c++/6.3.1/bits/stl_construct.h ****  *
  39:/home/zkmike/.local/share/renesas/e2_studio/toolchains/gcc_arm/gcc-arm-none-eabi-6-2017-q2-update/arm-none-eabi/include/c++/6.3.1/bits/stl_construct.h ****  * Copyright (c) 1996,1997
  40:/home/zkmike/.local/share/renesas/e2_studio/toolchains/gcc_arm/gcc-arm-none-eabi-6-2017-q2-update/arm-none-eabi/include/c++/6.3.1/bits/stl_construct.h ****  * Silicon Graphics Computer Systems, Inc.
  41:/home/zkmike/.local/share/renesas/e2_studio/toolchains/gcc_arm/gcc-arm-none-eabi-6-2017-q2-update/arm-none-eabi/include/c++/6.3.1/bits/stl_construct.h ****  *
  42:/home/zkmike/.local/share/renesas/e2_studio/toolchains/gcc_arm/gcc-arm-none-eabi-6-2017-q2-update/arm-none-eabi/include/c++/6.3.1/bits/stl_construct.h ****  * Permission to use, copy, modify, distribute and sell this software
  43:/home/zkmike/.local/share/renesas/e2_studio/toolchains/gcc_arm/gcc-arm-none-eabi-6-2017-q2-update/arm-none-eabi/include/c++/6.3.1/bits/stl_construct.h ****  * and its documentation for any purpose is hereby granted without fee,
  44:/home/zkmike/.local/share/renesas/e2_studio/toolchains/gcc_arm/gcc-arm-none-eabi-6-2017-q2-update/arm-none-eabi/include/c++/6.3.1/bits/stl_construct.h ****  * provided that the above copyright notice appear in all copies and
  45:/home/zkmike/.local/share/renesas/e2_studio/toolchains/gcc_arm/gcc-arm-none-eabi-6-2017-q2-update/arm-none-eabi/include/c++/6.3.1/bits/stl_construct.h ****  * that both that copyright notice and this permission notice appear
  46:/home/zkmike/.local/share/renesas/e2_studio/toolchains/gcc_arm/gcc-arm-none-eabi-6-2017-q2-update/arm-none-eabi/include/c++/6.3.1/bits/stl_construct.h ****  * in supporting documentation.  Silicon Graphics makes no
  47:/home/zkmike/.local/share/renesas/e2_studio/toolchains/gcc_arm/gcc-arm-none-eabi-6-2017-q2-update/arm-none-eabi/include/c++/6.3.1/bits/stl_construct.h ****  * representations about the suitability of this software for any
  48:/home/zkmike/.local/share/renesas/e2_studio/toolchains/gcc_arm/gcc-arm-none-eabi-6-2017-q2-update/arm-none-eabi/include/c++/6.3.1/bits/stl_construct.h ****  * purpose.  It is provided "as is" without express or implied warranty.
  49:/home/zkmike/.local/share/renesas/e2_studio/toolchains/gcc_arm/gcc-arm-none-eabi-6-2017-q2-update/arm-none-eabi/include/c++/6.3.1/bits/stl_construct.h ****  */
  50:/home/zkmike/.local/share/renesas/e2_studio/toolchains/gcc_arm/gcc-arm-none-eabi-6-2017-q2-update/arm-none-eabi/include/c++/6.3.1/bits/stl_construct.h **** 
  51:/home/zkmike/.local/share/renesas/e2_studio/toolchains/gcc_arm/gcc-arm-none-eabi-6-2017-q2-update/arm-none-eabi/include/c++/6.3.1/bits/stl_construct.h **** /** @file bits/stl_construct.h
  52:/home/zkmike/.local/share/renesas/e2_studio/toolchains/gcc_arm/gcc-arm-none-eabi-6-2017-q2-update/arm-none-eabi/include/c++/6.3.1/bits/stl_construct.h ****  *  This is an internal header file, included by other library headers.
  53:/home/zkmike/.local/share/renesas/e2_studio/toolchains/gcc_arm/gcc-arm-none-eabi-6-2017-q2-update/arm-none-eabi/include/c++/6.3.1/bits/stl_construct.h ****  *  Do not attempt to use it directly. @headername{memory}
  54:/home/zkmike/.local/share/renesas/e2_studio/toolchains/gcc_arm/gcc-arm-none-eabi-6-2017-q2-update/arm-none-eabi/include/c++/6.3.1/bits/stl_construct.h ****  */
  55:/home/zkmike/.local/share/renesas/e2_studio/toolchains/gcc_arm/gcc-arm-none-eabi-6-2017-q2-update/arm-none-eabi/include/c++/6.3.1/bits/stl_construct.h **** 
  56:/home/zkmike/.local/share/renesas/e2_studio/toolchains/gcc_arm/gcc-arm-none-eabi-6-2017-q2-update/arm-none-eabi/include/c++/6.3.1/bits/stl_construct.h **** #ifndef _STL_CONSTRUCT_H
  57:/home/zkmike/.local/share/renesas/e2_studio/toolchains/gcc_arm/gcc-arm-none-eabi-6-2017-q2-update/arm-none-eabi/include/c++/6.3.1/bits/stl_construct.h **** #define _STL_CONSTRUCT_H 1
  58:/home/zkmike/.local/share/renesas/e2_studio/toolchains/gcc_arm/gcc-arm-none-eabi-6-2017-q2-update/arm-none-eabi/include/c++/6.3.1/bits/stl_construct.h **** 
  59:/home/zkmike/.local/share/renesas/e2_studio/toolchains/gcc_arm/gcc-arm-none-eabi-6-2017-q2-update/arm-none-eabi/include/c++/6.3.1/bits/stl_construct.h **** #include <new>
  60:/home/zkmike/.local/share/renesas/e2_studio/toolchains/gcc_arm/gcc-arm-none-eabi-6-2017-q2-update/arm-none-eabi/include/c++/6.3.1/bits/stl_construct.h **** #include <bits/move.h>
  61:/home/zkmike/.local/share/renesas/e2_studio/toolchains/gcc_arm/gcc-arm-none-eabi-6-2017-q2-update/arm-none-eabi/include/c++/6.3.1/bits/stl_construct.h **** #include <ext/alloc_traits.h>
  62:/home/zkmike/.local/share/renesas/e2_studio/toolchains/gcc_arm/gcc-arm-none-eabi-6-2017-q2-update/arm-none-eabi/include/c++/6.3.1/bits/stl_construct.h **** 
  63:/home/zkmike/.local/share/renesas/e2_studio/toolchains/gcc_arm/gcc-arm-none-eabi-6-2017-q2-update/arm-none-eabi/include/c++/6.3.1/bits/stl_construct.h **** namespace std _GLIBCXX_VISIBILITY(default)
  64:/home/zkmike/.local/share/renesas/e2_studio/toolchains/gcc_arm/gcc-arm-none-eabi-6-2017-q2-update/arm-none-eabi/include/c++/6.3.1/bits/stl_construct.h **** {
  65:/home/zkmike/.local/share/renesas/e2_studio/toolchains/gcc_arm/gcc-arm-none-eabi-6-2017-q2-update/arm-none-eabi/include/c++/6.3.1/bits/stl_construct.h **** _GLIBCXX_BEGIN_NAMESPACE_VERSION
  66:/home/zkmike/.local/share/renesas/e2_studio/toolchains/gcc_arm/gcc-arm-none-eabi-6-2017-q2-update/arm-none-eabi/include/c++/6.3.1/bits/stl_construct.h **** 
  67:/home/zkmike/.local/share/renesas/e2_studio/toolchains/gcc_arm/gcc-arm-none-eabi-6-2017-q2-update/arm-none-eabi/include/c++/6.3.1/bits/stl_construct.h ****   /**
  68:/home/zkmike/.local/share/renesas/e2_studio/toolchains/gcc_arm/gcc-arm-none-eabi-6-2017-q2-update/arm-none-eabi/include/c++/6.3.1/bits/stl_construct.h ****    * Constructs an object in existing memory by invoking an allocated
  69:/home/zkmike/.local/share/renesas/e2_studio/toolchains/gcc_arm/gcc-arm-none-eabi-6-2017-q2-update/arm-none-eabi/include/c++/6.3.1/bits/stl_construct.h ****    * object's constructor with an initializer.
  70:/home/zkmike/.local/share/renesas/e2_studio/toolchains/gcc_arm/gcc-arm-none-eabi-6-2017-q2-update/arm-none-eabi/include/c++/6.3.1/bits/stl_construct.h ****    */
  71:/home/zkmike/.local/share/renesas/e2_studio/toolchains/gcc_arm/gcc-arm-none-eabi-6-2017-q2-update/arm-none-eabi/include/c++/6.3.1/bits/stl_construct.h **** #if __cplusplus >= 201103L
  72:/home/zkmike/.local/share/renesas/e2_studio/toolchains/gcc_arm/gcc-arm-none-eabi-6-2017-q2-update/arm-none-eabi/include/c++/6.3.1/bits/stl_construct.h ****   template<typename _T1, typename... _Args>
  73:/home/zkmike/.local/share/renesas/e2_studio/toolchains/gcc_arm/gcc-arm-none-eabi-6-2017-q2-update/arm-none-eabi/include/c++/6.3.1/bits/stl_construct.h ****     inline void
  74:/home/zkmike/.local/share/renesas/e2_studio/toolchains/gcc_arm/gcc-arm-none-eabi-6-2017-q2-update/arm-none-eabi/include/c++/6.3.1/bits/stl_construct.h ****     _Construct(_T1* __p, _Args&&... __args)
  75:/home/zkmike/.local/share/renesas/e2_studio/toolchains/gcc_arm/gcc-arm-none-eabi-6-2017-q2-update/arm-none-eabi/include/c++/6.3.1/bits/stl_construct.h ****     { ::new(static_cast<void*>(__p)) _T1(std::forward<_Args>(__args)...); }
  76:/home/zkmike/.local/share/renesas/e2_studio/toolchains/gcc_arm/gcc-arm-none-eabi-6-2017-q2-update/arm-none-eabi/include/c++/6.3.1/bits/stl_construct.h **** #else
  77:/home/zkmike/.local/share/renesas/e2_studio/toolchains/gcc_arm/gcc-arm-none-eabi-6-2017-q2-update/arm-none-eabi/include/c++/6.3.1/bits/stl_construct.h ****   template<typename _T1, typename _T2>
  78:/home/zkmike/.local/share/renesas/e2_studio/toolchains/gcc_arm/gcc-arm-none-eabi-6-2017-q2-update/arm-none-eabi/include/c++/6.3.1/bits/stl_construct.h ****     inline void
  79:/home/zkmike/.local/share/renesas/e2_studio/toolchains/gcc_arm/gcc-arm-none-eabi-6-2017-q2-update/arm-none-eabi/include/c++/6.3.1/bits/stl_construct.h ****     _Construct(_T1* __p, const _T2& __value)
  80:/home/zkmike/.local/share/renesas/e2_studio/toolchains/gcc_arm/gcc-arm-none-eabi-6-2017-q2-update/arm-none-eabi/include/c++/6.3.1/bits/stl_construct.h ****     {
  81:/home/zkmike/.local/share/renesas/e2_studio/toolchains/gcc_arm/gcc-arm-none-eabi-6-2017-q2-update/arm-none-eabi/include/c++/6.3.1/bits/stl_construct.h ****       // _GLIBCXX_RESOLVE_LIB_DEFECTS
  82:/home/zkmike/.local/share/renesas/e2_studio/toolchains/gcc_arm/gcc-arm-none-eabi-6-2017-q2-update/arm-none-eabi/include/c++/6.3.1/bits/stl_construct.h ****       // 402. wrong new expression in [some_]allocator::construct
  83:/home/zkmike/.local/share/renesas/e2_studio/toolchains/gcc_arm/gcc-arm-none-eabi-6-2017-q2-update/arm-none-eabi/include/c++/6.3.1/bits/stl_construct.h ****       ::new(static_cast<void*>(__p)) _T1(__value);
  84:/home/zkmike/.local/share/renesas/e2_studio/toolchains/gcc_arm/gcc-arm-none-eabi-6-2017-q2-update/arm-none-eabi/include/c++/6.3.1/bits/stl_construct.h ****     }
  85:/home/zkmike/.local/share/renesas/e2_studio/toolchains/gcc_arm/gcc-arm-none-eabi-6-2017-q2-update/arm-none-eabi/include/c++/6.3.1/bits/stl_construct.h **** #endif
  86:/home/zkmike/.local/share/renesas/e2_studio/toolchains/gcc_arm/gcc-arm-none-eabi-6-2017-q2-update/arm-none-eabi/include/c++/6.3.1/bits/stl_construct.h **** 
  87:/home/zkmike/.local/share/renesas/e2_studio/toolchains/gcc_arm/gcc-arm-none-eabi-6-2017-q2-update/arm-none-eabi/include/c++/6.3.1/bits/stl_construct.h ****   /**
  88:/home/zkmike/.local/share/renesas/e2_studio/toolchains/gcc_arm/gcc-arm-none-eabi-6-2017-q2-update/arm-none-eabi/include/c++/6.3.1/bits/stl_construct.h ****    * Destroy the object pointed to by a pointer type.
  89:/home/zkmike/.local/share/renesas/e2_studio/toolchains/gcc_arm/gcc-arm-none-eabi-6-2017-q2-update/arm-none-eabi/include/c++/6.3.1/bits/stl_construct.h ****    */
  90:/home/zkmike/.local/share/renesas/e2_studio/toolchains/gcc_arm/gcc-arm-none-eabi-6-2017-q2-update/arm-none-eabi/include/c++/6.3.1/bits/stl_construct.h ****   template<typename _Tp>
  91:/home/zkmike/.local/share/renesas/e2_studio/toolchains/gcc_arm/gcc-arm-none-eabi-6-2017-q2-update/arm-none-eabi/include/c++/6.3.1/bits/stl_construct.h ****     inline void
  92:/home/zkmike/.local/share/renesas/e2_studio/toolchains/gcc_arm/gcc-arm-none-eabi-6-2017-q2-update/arm-none-eabi/include/c++/6.3.1/bits/stl_construct.h ****     _Destroy(_Tp* __pointer)
  93:/home/zkmike/.local/share/renesas/e2_studio/toolchains/gcc_arm/gcc-arm-none-eabi-6-2017-q2-update/arm-none-eabi/include/c++/6.3.1/bits/stl_construct.h ****     { __pointer->~_Tp(); }
  94:/home/zkmike/.local/share/renesas/e2_studio/toolchains/gcc_arm/gcc-arm-none-eabi-6-2017-q2-update/arm-none-eabi/include/c++/6.3.1/bits/stl_construct.h **** 
  95:/home/zkmike/.local/share/renesas/e2_studio/toolchains/gcc_arm/gcc-arm-none-eabi-6-2017-q2-update/arm-none-eabi/include/c++/6.3.1/bits/stl_construct.h ****   template<bool>
  96:/home/zkmike/.local/share/renesas/e2_studio/toolchains/gcc_arm/gcc-arm-none-eabi-6-2017-q2-update/arm-none-eabi/include/c++/6.3.1/bits/stl_construct.h ****     struct _Destroy_aux
  97:/home/zkmike/.local/share/renesas/e2_studio/toolchains/gcc_arm/gcc-arm-none-eabi-6-2017-q2-update/arm-none-eabi/include/c++/6.3.1/bits/stl_construct.h ****     {
  98:/home/zkmike/.local/share/renesas/e2_studio/toolchains/gcc_arm/gcc-arm-none-eabi-6-2017-q2-update/arm-none-eabi/include/c++/6.3.1/bits/stl_construct.h ****       template<typename _ForwardIterator>
  99:/home/zkmike/.local/share/renesas/e2_studio/toolchains/gcc_arm/gcc-arm-none-eabi-6-2017-q2-update/arm-none-eabi/include/c++/6.3.1/bits/stl_construct.h ****         static void
 100:/home/zkmike/.local/share/renesas/e2_studio/toolchains/gcc_arm/gcc-arm-none-eabi-6-2017-q2-update/arm-none-eabi/include/c++/6.3.1/bits/stl_construct.h ****         __destroy(_ForwardIterator __first, _ForwardIterator __last)
 101:/home/zkmike/.local/share/renesas/e2_studio/toolchains/gcc_arm/gcc-arm-none-eabi-6-2017-q2-update/arm-none-eabi/include/c++/6.3.1/bits/stl_construct.h **** 	{
 102:/home/zkmike/.local/share/renesas/e2_studio/toolchains/gcc_arm/gcc-arm-none-eabi-6-2017-q2-update/arm-none-eabi/include/c++/6.3.1/bits/stl_construct.h **** 	  for (; __first != __last; ++__first)
 524              		.loc 8 102 0
 525 0020 044084E2 		add	r4, r4, #4
 526              	.LVL45:
 527              	.L36:
 528 0024 040055E1 		cmp	r5, r4
 529 0028 0E00000A 		beq	.L34
 530              	.LBB1343:
 531              	.LBB1344:
 532              	.LBB1345:
  44:/home/zkmike/workspace/RZA2M/rza2m_2d_barcode_sample_freertos_gcc/src/zxing_lib/zxing/common/Counted.h ****     }
  45:/home/zkmike/workspace/RZA2M/rza2m_2d_barcode_sample_freertos_gcc/src/zxing_lib/zxing/common/Counted.h ****   }
  46:/home/zkmike/workspace/RZA2M/rza2m_2d_barcode_sample_freertos_gcc/src/zxing_lib/zxing/common/Counted.h **** 
  47:/home/zkmike/workspace/RZA2M/rza2m_2d_barcode_sample_freertos_gcc/src/zxing_lib/zxing/common/Counted.h **** 
  48:/home/zkmike/workspace/RZA2M/rza2m_2d_barcode_sample_freertos_gcc/src/zxing_lib/zxing/common/Counted.h ****   /* return the current count for denugging purposes or similar */
  49:/home/zkmike/workspace/RZA2M/rza2m_2d_barcode_sample_freertos_gcc/src/zxing_lib/zxing/common/Counted.h ****   int count() const {
  50:/home/zkmike/workspace/RZA2M/rza2m_2d_barcode_sample_freertos_gcc/src/zxing_lib/zxing/common/Counted.h ****     return count_;
  51:/home/zkmike/workspace/RZA2M/rza2m_2d_barcode_sample_freertos_gcc/src/zxing_lib/zxing/common/Counted.h ****   }
  52:/home/zkmike/workspace/RZA2M/rza2m_2d_barcode_sample_freertos_gcc/src/zxing_lib/zxing/common/Counted.h **** };
  53:/home/zkmike/workspace/RZA2M/rza2m_2d_barcode_sample_freertos_gcc/src/zxing_lib/zxing/common/Counted.h **** 
  54:/home/zkmike/workspace/RZA2M/rza2m_2d_barcode_sample_freertos_gcc/src/zxing_lib/zxing/common/Counted.h **** /* counting reference to reference-counted objects */
  55:/home/zkmike/workspace/RZA2M/rza2m_2d_barcode_sample_freertos_gcc/src/zxing_lib/zxing/common/Counted.h **** template<typename T> class Ref {
  56:/home/zkmike/workspace/RZA2M/rza2m_2d_barcode_sample_freertos_gcc/src/zxing_lib/zxing/common/Counted.h **** private:
  57:/home/zkmike/workspace/RZA2M/rza2m_2d_barcode_sample_freertos_gcc/src/zxing_lib/zxing/common/Counted.h **** public:
  58:/home/zkmike/workspace/RZA2M/rza2m_2d_barcode_sample_freertos_gcc/src/zxing_lib/zxing/common/Counted.h ****   T *object_;
  59:/home/zkmike/workspace/RZA2M/rza2m_2d_barcode_sample_freertos_gcc/src/zxing_lib/zxing/common/Counted.h ****   explicit Ref(T *o = 0) :
  60:/home/zkmike/workspace/RZA2M/rza2m_2d_barcode_sample_freertos_gcc/src/zxing_lib/zxing/common/Counted.h ****       object_(0) {
  61:/home/zkmike/workspace/RZA2M/rza2m_2d_barcode_sample_freertos_gcc/src/zxing_lib/zxing/common/Counted.h ****     reset(o);
  62:/home/zkmike/workspace/RZA2M/rza2m_2d_barcode_sample_freertos_gcc/src/zxing_lib/zxing/common/Counted.h ****   }
  63:/home/zkmike/workspace/RZA2M/rza2m_2d_barcode_sample_freertos_gcc/src/zxing_lib/zxing/common/Counted.h ****   Ref(const Ref &other) :
  64:/home/zkmike/workspace/RZA2M/rza2m_2d_barcode_sample_freertos_gcc/src/zxing_lib/zxing/common/Counted.h ****       object_(0) {
  65:/home/zkmike/workspace/RZA2M/rza2m_2d_barcode_sample_freertos_gcc/src/zxing_lib/zxing/common/Counted.h ****     reset(other.object_);
  66:/home/zkmike/workspace/RZA2M/rza2m_2d_barcode_sample_freertos_gcc/src/zxing_lib/zxing/common/Counted.h ****   }
  67:/home/zkmike/workspace/RZA2M/rza2m_2d_barcode_sample_freertos_gcc/src/zxing_lib/zxing/common/Counted.h **** 
  68:/home/zkmike/workspace/RZA2M/rza2m_2d_barcode_sample_freertos_gcc/src/zxing_lib/zxing/common/Counted.h ****   template<class Y>
  69:/home/zkmike/workspace/RZA2M/rza2m_2d_barcode_sample_freertos_gcc/src/zxing_lib/zxing/common/Counted.h ****   Ref(const Ref<Y> &other) :
  70:/home/zkmike/workspace/RZA2M/rza2m_2d_barcode_sample_freertos_gcc/src/zxing_lib/zxing/common/Counted.h ****       object_(0) {
  71:/home/zkmike/workspace/RZA2M/rza2m_2d_barcode_sample_freertos_gcc/src/zxing_lib/zxing/common/Counted.h ****     reset(other.object_);
  72:/home/zkmike/workspace/RZA2M/rza2m_2d_barcode_sample_freertos_gcc/src/zxing_lib/zxing/common/Counted.h ****   }
  73:/home/zkmike/workspace/RZA2M/rza2m_2d_barcode_sample_freertos_gcc/src/zxing_lib/zxing/common/Counted.h **** 
  74:/home/zkmike/workspace/RZA2M/rza2m_2d_barcode_sample_freertos_gcc/src/zxing_lib/zxing/common/Counted.h ****   ~Ref() {
  75:/home/zkmike/workspace/RZA2M/rza2m_2d_barcode_sample_freertos_gcc/src/zxing_lib/zxing/common/Counted.h ****     if (object_) {
 533              		.loc 3 75 0
 534 002c 000094E5 		ldr	r0, [r4]
 535 0030 000050E3 		cmp	r0, #0
 536 0034 F9FFFF0A 		beq	.L35
 537              	.LVL46:
 538              	.LBB1346:
 539              	.LBB1347:
  40:/home/zkmike/workspace/RZA2M/rza2m_2d_barcode_sample_freertos_gcc/src/zxing_lib/zxing/common/Counted.h ****     if (count_ == 0) {
 540              		.loc 3 40 0
 541 0038 043090E5 		ldr	r3, [r0, #4]
 542 003c 013043E2 		sub	r3, r3, #1
 543 0040 043080E5 		str	r3, [r0, #4]
  41:/home/zkmike/workspace/RZA2M/rza2m_2d_barcode_sample_freertos_gcc/src/zxing_lib/zxing/common/Counted.h ****       count_ = 0xDEADF001;
 544              		.loc 3 41 0
 545 0044 000053E3 		cmp	r3, #0
 546 0048 F4FFFF1A 		bne	.L35
  42:/home/zkmike/workspace/RZA2M/rza2m_2d_barcode_sample_freertos_gcc/src/zxing_lib/zxing/common/Counted.h ****       delete this;
 547              		.loc 3 42 0
 548 004c 01300FE3 		movw	r3, #61441
 549 0050 AD3E4DE3 		movt	r3, 57005
 550 0054 043080E5 		str	r3, [r0, #4]
  43:/home/zkmike/workspace/RZA2M/rza2m_2d_barcode_sample_freertos_gcc/src/zxing_lib/zxing/common/Counted.h ****     }
 551              		.loc 3 43 0
 552 0058 003090E5 		ldr	r3, [r0]
 553 005c 043093E5 		ldr	r3, [r3, #4]
 554 0060 33FF2FE1 		blx	r3
 555              	.LVL47:
 556 0064 EDFFFFEA 		b	.L35
 557              	.L34:
 558              	.LVL48:
 559              	.LBE1347:
 560              	.LBE1346:
 561              	.LBE1345:
 562              	.LBE1344:
 563              	.LBE1343:
 564              	.LBE1342:
 565              	.LBE1341:
 566              	.LBE1340:
 567              	.LBE1339:
 568              	.LBE1338:
 569              	.LBB1348:
 570              	.LBB1349:
 160:/home/zkmike/.local/share/renesas/e2_studio/toolchains/gcc_arm/gcc-arm-none-eabi-6-2017-q2-update/arm-none-eabi/include/c++/6.3.1/bits/stl_vector.h **** 		      - this->_M_impl._M_start); }
 571              		.loc 5 160 0
 572 0068 080096E5 		ldr	r0, [r6, #8]
 573              	.LVL49:
 574              	.LBB1350:
 575              	.LBB1351:
 177:/home/zkmike/.local/share/renesas/e2_studio/toolchains/gcc_arm/gcc-arm-none-eabi-6-2017-q2-update/arm-none-eabi/include/c++/6.3.1/bits/stl_vector.h **** 	  _Tr::deallocate(_M_impl, __p, __n);
 576              		.loc 5 177 0
 577 006c 000050E3 		cmp	r0, #0
 578 0070 0000000A 		beq	.L37
 579              	.LVL50:
 580              	.LBB1352:
 581              	.LBB1353:
 582              	.LBB1354:
 583              		.loc 6 110 0
 584 0074 FEFFFFEB 		bl	_ZdlPv
 585              	.LVL51:
 586              	.L37:
 587              	.LBE1354:
 588              	.LBE1353:
 589              	.LBE1352:
 590              	.LBE1351:
 591              	.LBE1350:
 592              	.LBE1349:
 593              	.LBE1348:
 594              	.LBE1337:
 595              	.LBE1336:
 596              	.LBE1335:
 597              	.LBE1334:
  57:/home/zkmike/workspace/RZA2M/rza2m_2d_barcode_sample_freertos_gcc/src/zxing_lib/zxing/common/Array.h ****   Array<T>& operator=(const Array<T> &other) {
 598              		.loc 2 57 0
 599 0078 1410A0E3 		mov	r1, #20
 600 007c 0600A0E1 		mov	r0, r6
 601 0080 FEFFFFEB 		bl	_ZdlPvj
 602              	.LVL52:
 603 0084 0600A0E1 		mov	r0, r6
 604 0088 7080BDE8 		pop	{r4, r5, r6, pc}
 605              	.L40:
 606              		.align	2
 607              	.L39:
 608 008c 08000000 		.word	_ZTVN5zxing5ArrayINS_3RefINS_11ResultPointEEEEE+8
 609              		.cfi_endproc
 610              	.LFE2965:
 611              		.cantunwind
 612              		.fnend
 614              		.section	.text._ZN5zxing9ExceptionD2Ev,"axG",%progbits,_ZN5zxing9ExceptionD5Ev,comdat
 615              		.align	2
 616              		.weak	_ZN5zxing9ExceptionD2Ev
 617              		.syntax unified
 618              		.arm
 619              		.fpu neon
 621              	_ZN5zxing9ExceptionD2Ev:
 622              		.fnstart
 623              	.LFB1868:
  37:/home/zkmike/workspace/RZA2M/rza2m_2d_barcode_sample_freertos_gcc/src/zxing_lib/zxing/Exception.h ****     if(message) {
 624              		.loc 1 37 0
 625              		.cfi_startproc
 626              		.cfi_personality 0,__gxx_personality_v0
 627              		.cfi_lsda 0,.LLSDA1868
 628              		@ args = 0, pretend = 0, frame = 0
 629              		@ frame_needed = 0, uses_anonymous_args = 0
 630              	.LVL53:
 631 0000 70402DE9 		push	{r4, r5, r6, lr}
 632              		.save {r4, r5, r6, lr}
 633              		.cfi_def_cfa_offset 16
 634              		.cfi_offset 4, -16
 635              		.cfi_offset 5, -12
 636              		.cfi_offset 6, -8
 637              		.cfi_offset 14, -4
 638 0004 0040A0E1 		mov	r4, r0
 639              	.LBB1356:
  37:/home/zkmike/workspace/RZA2M/rza2m_2d_barcode_sample_freertos_gcc/src/zxing_lib/zxing/Exception.h ****     if(message) {
 640              		.loc 1 37 0
 641 0008 48309FE5 		ldr	r3, .L48
 642 000c 003080E5 		str	r3, [r0]
  38:/home/zkmike/workspace/RZA2M/rza2m_2d_barcode_sample_freertos_gcc/src/zxing_lib/zxing/Exception.h ****       deleteMessage();
 643              		.loc 1 38 0
 644 0010 043090E5 		ldr	r3, [r0, #4]
 645 0014 000053E3 		cmp	r3, #0
 646 0018 0A00000A 		beq	.L42
 647              	.LEHB0:
  39:/home/zkmike/workspace/RZA2M/rza2m_2d_barcode_sample_freertos_gcc/src/zxing_lib/zxing/Exception.h ****     }
 648              		.loc 1 39 0
 649 001c FEFFFFEB 		bl	_ZN5zxing9Exception13deleteMessageEv
 650              	.LVL54:
 651              	.LEHE0:
 652 0020 080000EA 		b	.L42
 653              	.L45:
 654 0024 0050A0E1 		mov	r5, r0
 655 0028 0160A0E1 		mov	r6, r1
  37:/home/zkmike/workspace/RZA2M/rza2m_2d_barcode_sample_freertos_gcc/src/zxing_lib/zxing/Exception.h ****     if(message) {
 656              		.loc 1 37 0
 657 002c 0400A0E1 		mov	r0, r4
 658 0030 FEFFFFEB 		bl	_ZNSt9exceptionD2Ev
 659              	.LVL55:
 660 0034 010076E3 		cmn	r6, #1
 661 0038 0000000A 		beq	.L44
 662              	.LEHB1:
 663 003c FEFFFFEB 		bl	__cxa_end_cleanup
 664              	.LVL56:
 665              	.L44:
 666              	.LBE1356:
 667 0040 0500A0E1 		mov	r0, r5
 668 0044 FEFFFFEB 		bl	__cxa_call_unexpected
 669              	.LVL57:
 670              	.LEHE1:
 671              	.L42:
 672              	.LBB1357:
 673 0048 0400A0E1 		mov	r0, r4
 674 004c FEFFFFEB 		bl	_ZNSt9exceptionD2Ev
 675              	.LVL58:
 676              	.LBE1357:
  41:/home/zkmike/workspace/RZA2M/rza2m_2d_barcode_sample_freertos_gcc/src/zxing_lib/zxing/Exception.h ****   char const* what() const throw() {return message ? message : "";}
 677              		.loc 1 41 0
 678 0050 0400A0E1 		mov	r0, r4
 679 0054 7080BDE8 		pop	{r4, r5, r6, pc}
 680              	.L49:
 681              		.align	2
 682              	.L48:
 683 0058 08000000 		.word	_ZTVN5zxing9ExceptionE+8
 684              		.cfi_endproc
 685              	.LFE1868:
 686              		.global	__gxx_personality_v0
 687              		.personality	__gxx_personality_v0
 688              		.handlerdata
 689              		.align	2
 690              	.LLSDA1868:
 691 0008 FF       		.byte	0xff
 692 0009 10       		.byte	0x10
 693 000a 11       		.uleb128 .LLSDATT1868-.LLSDATTD1868
 694              	.LLSDATTD1868:
 695 000b 01       		.byte	0x1
 696 000c 08       		.uleb128 .LLSDACSE1868-.LLSDACSB1868
 697              	.LLSDACSB1868:
 698 000d 1C       		.uleb128 .LEHB0-.LFB1868
 699 000e 04       		.uleb128 .LEHE0-.LEHB0
 700 000f 24       		.uleb128 .L45-.LFB1868
 701 0010 03       		.uleb128 0x3
 702 0011 3C       		.uleb128 .LEHB1-.LFB1868
 703 0012 0C       		.uleb128 .LEHE1-.LEHB1
 704 0013 00       		.uleb128 0
 705 0014 00       		.uleb128 0
 706              	.LLSDACSE1868:
 707 0015 7F       		.byte	0x7f
 708 0016 00       		.byte	0
 709 0017 00       		.byte	0
 710 0018 7D       		.byte	0x7d
 711 0019 000000   		.align	2
 712              	.LLSDATT1868:
 713 001c 00000000 		.word	0
 714              		.section	.text._ZN5zxing9ExceptionD2Ev,"axG",%progbits,_ZN5zxing9ExceptionD5Ev,comdat
 715              		.fnend
 717              		.weak	_ZN5zxing9ExceptionD1Ev
 718              		.set	_ZN5zxing9ExceptionD1Ev,_ZN5zxing9ExceptionD2Ev
 719              		.section	.text._Z41__static_initialization_and_destruction_0ii,"ax",%progbits
 720              		.align	2
 721              		.syntax unified
 722              		.arm
 723              		.fpu neon
 725              	_Z41__static_initialization_and_destruction_0ii:
 726              		.fnstart
 727              	.LFB2961:
 728              		.file 9 "../src/zxing_lib/zxing/oned/Code93Reader.cpp"
   1:../src/zxing_lib/zxing/oned/Code93Reader.cpp **** // -*- mode:c++; tab-width:2; indent-tabs-mode:nil; c-basic-offset:2 -*-
   2:../src/zxing_lib/zxing/oned/Code93Reader.cpp **** /*
   3:../src/zxing_lib/zxing/oned/Code93Reader.cpp ****  *  Copyright 2010 ZXing authors All rights reserved.
   4:../src/zxing_lib/zxing/oned/Code93Reader.cpp ****  *
   5:../src/zxing_lib/zxing/oned/Code93Reader.cpp ****  * Licensed under the Apache License, Version 2.0 (the "License");
   6:../src/zxing_lib/zxing/oned/Code93Reader.cpp ****  * you may not use this file except in compliance with the License.
   7:../src/zxing_lib/zxing/oned/Code93Reader.cpp ****  * You may obtain a copy of the License at
   8:../src/zxing_lib/zxing/oned/Code93Reader.cpp ****  *
   9:../src/zxing_lib/zxing/oned/Code93Reader.cpp ****  *      http://www.apache.org/licenses/LICENSE-2.0
  10:../src/zxing_lib/zxing/oned/Code93Reader.cpp ****  *
  11:../src/zxing_lib/zxing/oned/Code93Reader.cpp ****  * Unless required by applicable law or agreed to in writing, software
  12:../src/zxing_lib/zxing/oned/Code93Reader.cpp ****  * distributed under the License is distributed on an "AS IS" BASIS,
  13:../src/zxing_lib/zxing/oned/Code93Reader.cpp ****  * WITHOUT WARRANTIES OR CONDITIONS OF ANY KIND, either express or implied.
  14:../src/zxing_lib/zxing/oned/Code93Reader.cpp ****  * See the License for the specific language governing permissions and
  15:../src/zxing_lib/zxing/oned/Code93Reader.cpp ****  * limitations under the License.
  16:../src/zxing_lib/zxing/oned/Code93Reader.cpp ****  */
  17:../src/zxing_lib/zxing/oned/Code93Reader.cpp **** 
  18:../src/zxing_lib/zxing/oned/Code93Reader.cpp **** #include "Code93Reader.h"
  19:../src/zxing_lib/zxing/oned/Code93Reader.cpp **** #include <zxing/oned/OneDResultPoint.h>
  20:../src/zxing_lib/zxing/oned/Code93Reader.cpp **** #include <zxing/common/Array.h>
  21:../src/zxing_lib/zxing/oned/Code93Reader.cpp **** #include <zxing/ReaderException.h>
  22:../src/zxing_lib/zxing/oned/Code93Reader.cpp **** #include <zxing/FormatException.h>
  23:../src/zxing_lib/zxing/oned/Code93Reader.cpp **** #include <zxing/NotFoundException.h>
  24:../src/zxing_lib/zxing/oned/Code93Reader.cpp **** #include <zxing/ChecksumException.h>
  25:../src/zxing_lib/zxing/oned/Code93Reader.cpp **** #include <math.h>
  26:../src/zxing_lib/zxing/oned/Code93Reader.cpp **** #include <limits.h>
  27:../src/zxing_lib/zxing/oned/Code93Reader.cpp **** 
  28:../src/zxing_lib/zxing/oned/Code93Reader.cpp **** using std::vector;
  29:../src/zxing_lib/zxing/oned/Code93Reader.cpp **** using std::string;
  30:../src/zxing_lib/zxing/oned/Code93Reader.cpp **** using zxing::Ref;
  31:../src/zxing_lib/zxing/oned/Code93Reader.cpp **** using zxing::Result;
  32:../src/zxing_lib/zxing/oned/Code93Reader.cpp **** using zxing::String;
  33:../src/zxing_lib/zxing/oned/Code93Reader.cpp **** using zxing::NotFoundException;
  34:../src/zxing_lib/zxing/oned/Code93Reader.cpp **** using zxing::ChecksumException;
  35:../src/zxing_lib/zxing/oned/Code93Reader.cpp **** using zxing::oned::Code93Reader;
  36:../src/zxing_lib/zxing/oned/Code93Reader.cpp **** 
  37:../src/zxing_lib/zxing/oned/Code93Reader.cpp **** // VC++
  38:../src/zxing_lib/zxing/oned/Code93Reader.cpp **** using zxing::BitArray;
  39:../src/zxing_lib/zxing/oned/Code93Reader.cpp **** 
  40:../src/zxing_lib/zxing/oned/Code93Reader.cpp **** namespace {
  41:../src/zxing_lib/zxing/oned/Code93Reader.cpp ****   char const ALPHABET[] =
  42:../src/zxing_lib/zxing/oned/Code93Reader.cpp ****     "0123456789ABCDEFGHIJKLMNOPQRSTUVWXYZ-. $/+%abcd*";
  43:../src/zxing_lib/zxing/oned/Code93Reader.cpp ****   string ALPHABET_STRING (ALPHABET);
  44:../src/zxing_lib/zxing/oned/Code93Reader.cpp **** 
  45:../src/zxing_lib/zxing/oned/Code93Reader.cpp ****   /**
  46:../src/zxing_lib/zxing/oned/Code93Reader.cpp ****    * These represent the encodings of characters, as patterns of wide and narrow bars.
  47:../src/zxing_lib/zxing/oned/Code93Reader.cpp ****    * The 9 least-significant bits of each int correspond to the pattern of wide and narrow.
  48:../src/zxing_lib/zxing/oned/Code93Reader.cpp ****    */
  49:../src/zxing_lib/zxing/oned/Code93Reader.cpp ****   int const CHARACTER_ENCODINGS[] = {
  50:../src/zxing_lib/zxing/oned/Code93Reader.cpp ****     0x114, 0x148, 0x144, 0x142, 0x128, 0x124, 0x122, 0x150, 0x112, 0x10A, // 0-9
  51:../src/zxing_lib/zxing/oned/Code93Reader.cpp ****     0x1A8, 0x1A4, 0x1A2, 0x194, 0x192, 0x18A, 0x168, 0x164, 0x162, 0x134, // A-J
  52:../src/zxing_lib/zxing/oned/Code93Reader.cpp ****     0x11A, 0x158, 0x14C, 0x146, 0x12C, 0x116, 0x1B4, 0x1B2, 0x1AC, 0x1A6, // K-T
  53:../src/zxing_lib/zxing/oned/Code93Reader.cpp ****     0x196, 0x19A, 0x16C, 0x166, 0x136, 0x13A, // U-Z
  54:../src/zxing_lib/zxing/oned/Code93Reader.cpp ****     0x12E, 0x1D4, 0x1D2, 0x1CA, 0x16E, 0x176, 0x1AE, // - - %
  55:../src/zxing_lib/zxing/oned/Code93Reader.cpp ****     0x126, 0x1DA, 0x1D6, 0x132, 0x15E, // Control chars? $-*
  56:../src/zxing_lib/zxing/oned/Code93Reader.cpp ****   };
  57:../src/zxing_lib/zxing/oned/Code93Reader.cpp ****   int const CHARACTER_ENCODINGS_LENGTH = 
  58:../src/zxing_lib/zxing/oned/Code93Reader.cpp ****     (int)sizeof(CHARACTER_ENCODINGS)/sizeof(CHARACTER_ENCODINGS[0]);
  59:../src/zxing_lib/zxing/oned/Code93Reader.cpp ****   const int ASTERISK_ENCODING = CHARACTER_ENCODINGS[47];
  60:../src/zxing_lib/zxing/oned/Code93Reader.cpp **** }
  61:../src/zxing_lib/zxing/oned/Code93Reader.cpp **** 
  62:../src/zxing_lib/zxing/oned/Code93Reader.cpp **** Code93Reader::Code93Reader() {
  63:../src/zxing_lib/zxing/oned/Code93Reader.cpp ****   decodeRowResult.reserve(20);
  64:../src/zxing_lib/zxing/oned/Code93Reader.cpp ****   counters.resize(6);
  65:../src/zxing_lib/zxing/oned/Code93Reader.cpp **** }
  66:../src/zxing_lib/zxing/oned/Code93Reader.cpp **** 
  67:../src/zxing_lib/zxing/oned/Code93Reader.cpp **** Ref<Result> Code93Reader::decodeRow(int rowNumber, Ref<BitArray> row) {
  68:../src/zxing_lib/zxing/oned/Code93Reader.cpp ****   Range start (findAsteriskPattern(row));
  69:../src/zxing_lib/zxing/oned/Code93Reader.cpp ****   // Read off white space    
  70:../src/zxing_lib/zxing/oned/Code93Reader.cpp ****   int nextStart = row->getNextSet(start[1]);
  71:../src/zxing_lib/zxing/oned/Code93Reader.cpp ****   int end = row->getSize();
  72:../src/zxing_lib/zxing/oned/Code93Reader.cpp **** 
  73:../src/zxing_lib/zxing/oned/Code93Reader.cpp ****   vector<int>& theCounters (counters);
  74:../src/zxing_lib/zxing/oned/Code93Reader.cpp ****   { // Arrays.fill(counters, 0);
  75:../src/zxing_lib/zxing/oned/Code93Reader.cpp ****     int size = theCounters.size();
  76:../src/zxing_lib/zxing/oned/Code93Reader.cpp ****     theCounters.resize(0);
  77:../src/zxing_lib/zxing/oned/Code93Reader.cpp ****     theCounters.resize(size); }
  78:../src/zxing_lib/zxing/oned/Code93Reader.cpp ****   string& result (decodeRowResult);
  79:../src/zxing_lib/zxing/oned/Code93Reader.cpp ****   result.clear();
  80:../src/zxing_lib/zxing/oned/Code93Reader.cpp **** 
  81:../src/zxing_lib/zxing/oned/Code93Reader.cpp ****   char decodedChar;
  82:../src/zxing_lib/zxing/oned/Code93Reader.cpp ****   int lastStart;
  83:../src/zxing_lib/zxing/oned/Code93Reader.cpp ****   do {
  84:../src/zxing_lib/zxing/oned/Code93Reader.cpp ****     recordPattern(row, nextStart, theCounters);
  85:../src/zxing_lib/zxing/oned/Code93Reader.cpp ****     int pattern = toPattern(theCounters);
  86:../src/zxing_lib/zxing/oned/Code93Reader.cpp ****     if (pattern < 0) {
  87:../src/zxing_lib/zxing/oned/Code93Reader.cpp ****       throw NotFoundException();
  88:../src/zxing_lib/zxing/oned/Code93Reader.cpp ****     }
  89:../src/zxing_lib/zxing/oned/Code93Reader.cpp ****     decodedChar = patternToChar(pattern);
  90:../src/zxing_lib/zxing/oned/Code93Reader.cpp ****     result.append(1, decodedChar);
  91:../src/zxing_lib/zxing/oned/Code93Reader.cpp ****     lastStart = nextStart;
  92:../src/zxing_lib/zxing/oned/Code93Reader.cpp ****     for(int i=0, e=theCounters.size(); i < e; ++i) {
  93:../src/zxing_lib/zxing/oned/Code93Reader.cpp ****       nextStart += theCounters[i];
  94:../src/zxing_lib/zxing/oned/Code93Reader.cpp ****     }
  95:../src/zxing_lib/zxing/oned/Code93Reader.cpp ****     // Read off white space
  96:../src/zxing_lib/zxing/oned/Code93Reader.cpp ****     nextStart = row->getNextSet(nextStart);
  97:../src/zxing_lib/zxing/oned/Code93Reader.cpp ****   } while (decodedChar != '*');
  98:../src/zxing_lib/zxing/oned/Code93Reader.cpp ****   result.resize(result.length() - 1); // remove asterisk
  99:../src/zxing_lib/zxing/oned/Code93Reader.cpp **** 
 100:../src/zxing_lib/zxing/oned/Code93Reader.cpp ****   // Look for whitespace after pattern:
 101:../src/zxing_lib/zxing/oned/Code93Reader.cpp ****   int lastPatternSize = 0;
 102:../src/zxing_lib/zxing/oned/Code93Reader.cpp ****   for (int i = 0, e = theCounters.size(); i < e; i++) {
 103:../src/zxing_lib/zxing/oned/Code93Reader.cpp ****     lastPatternSize += theCounters[i];
 104:../src/zxing_lib/zxing/oned/Code93Reader.cpp ****   }
 105:../src/zxing_lib/zxing/oned/Code93Reader.cpp ****   
 106:../src/zxing_lib/zxing/oned/Code93Reader.cpp ****   // Should be at least one more black module
 107:../src/zxing_lib/zxing/oned/Code93Reader.cpp ****   if (nextStart == end || !row->get(nextStart)) {
 108:../src/zxing_lib/zxing/oned/Code93Reader.cpp ****     throw NotFoundException();
 109:../src/zxing_lib/zxing/oned/Code93Reader.cpp ****   }
 110:../src/zxing_lib/zxing/oned/Code93Reader.cpp **** 
 111:../src/zxing_lib/zxing/oned/Code93Reader.cpp ****   if (result.length() < 2) {
 112:../src/zxing_lib/zxing/oned/Code93Reader.cpp ****     // false positive -- need at least 2 checksum digits
 113:../src/zxing_lib/zxing/oned/Code93Reader.cpp ****     throw NotFoundException();
 114:../src/zxing_lib/zxing/oned/Code93Reader.cpp ****   }
 115:../src/zxing_lib/zxing/oned/Code93Reader.cpp **** 
 116:../src/zxing_lib/zxing/oned/Code93Reader.cpp ****   checkChecksums(result);
 117:../src/zxing_lib/zxing/oned/Code93Reader.cpp ****   // Remove checksum digits
 118:../src/zxing_lib/zxing/oned/Code93Reader.cpp ****   result.resize(result.length() - 2);
 119:../src/zxing_lib/zxing/oned/Code93Reader.cpp **** 
 120:../src/zxing_lib/zxing/oned/Code93Reader.cpp ****   Ref<String> resultString = decodeExtended(result);
 121:../src/zxing_lib/zxing/oned/Code93Reader.cpp **** 
 122:../src/zxing_lib/zxing/oned/Code93Reader.cpp ****   float left = (float) (start[1] + start[0]) / 2.0f;
 123:../src/zxing_lib/zxing/oned/Code93Reader.cpp ****   float right = lastStart + lastPatternSize / 2.0f;
 124:../src/zxing_lib/zxing/oned/Code93Reader.cpp **** 
 125:../src/zxing_lib/zxing/oned/Code93Reader.cpp ****   ArrayRef< Ref<ResultPoint> > resultPoints (2);
 126:../src/zxing_lib/zxing/oned/Code93Reader.cpp ****   resultPoints[0] = 
 127:../src/zxing_lib/zxing/oned/Code93Reader.cpp ****     Ref<OneDResultPoint>(new OneDResultPoint(left, (float) rowNumber));
 128:../src/zxing_lib/zxing/oned/Code93Reader.cpp ****   resultPoints[1] =
 129:../src/zxing_lib/zxing/oned/Code93Reader.cpp ****     Ref<OneDResultPoint>(new OneDResultPoint(right, (float) rowNumber));
 130:../src/zxing_lib/zxing/oned/Code93Reader.cpp ****   
 131:../src/zxing_lib/zxing/oned/Code93Reader.cpp ****   return Ref<Result>(new Result(
 132:../src/zxing_lib/zxing/oned/Code93Reader.cpp ****                        resultString,
 133:../src/zxing_lib/zxing/oned/Code93Reader.cpp ****                        ArrayRef<char>(),
 134:../src/zxing_lib/zxing/oned/Code93Reader.cpp ****                        resultPoints,
 135:../src/zxing_lib/zxing/oned/Code93Reader.cpp ****                        BarcodeFormat::CODE_93));
 136:../src/zxing_lib/zxing/oned/Code93Reader.cpp **** }
 137:../src/zxing_lib/zxing/oned/Code93Reader.cpp **** 
 138:../src/zxing_lib/zxing/oned/Code93Reader.cpp **** Code93Reader::Range Code93Reader::findAsteriskPattern(Ref<BitArray> row)  {
 139:../src/zxing_lib/zxing/oned/Code93Reader.cpp ****   int width = row->getSize();
 140:../src/zxing_lib/zxing/oned/Code93Reader.cpp ****   int rowOffset = row->getNextSet(0);
 141:../src/zxing_lib/zxing/oned/Code93Reader.cpp **** 
 142:../src/zxing_lib/zxing/oned/Code93Reader.cpp ****   { // Arrays.fill(counters, 0);
 143:../src/zxing_lib/zxing/oned/Code93Reader.cpp ****     int size = counters.size();
 144:../src/zxing_lib/zxing/oned/Code93Reader.cpp ****     counters.resize(0);
 145:../src/zxing_lib/zxing/oned/Code93Reader.cpp ****     counters.resize(size); }
 146:../src/zxing_lib/zxing/oned/Code93Reader.cpp ****   vector<int>& theCounters (counters);
 147:../src/zxing_lib/zxing/oned/Code93Reader.cpp **** 
 148:../src/zxing_lib/zxing/oned/Code93Reader.cpp ****   int patternStart = rowOffset;
 149:../src/zxing_lib/zxing/oned/Code93Reader.cpp ****   bool isWhite = false;
 150:../src/zxing_lib/zxing/oned/Code93Reader.cpp ****   int patternLength = theCounters.size();
 151:../src/zxing_lib/zxing/oned/Code93Reader.cpp **** 
 152:../src/zxing_lib/zxing/oned/Code93Reader.cpp ****   int counterPosition = 0;
 153:../src/zxing_lib/zxing/oned/Code93Reader.cpp ****   for (int i = rowOffset; i < width; i++) {
 154:../src/zxing_lib/zxing/oned/Code93Reader.cpp ****     if (row->get(i) ^ isWhite) {
 155:../src/zxing_lib/zxing/oned/Code93Reader.cpp ****       theCounters[counterPosition]++;
 156:../src/zxing_lib/zxing/oned/Code93Reader.cpp ****     } else {
 157:../src/zxing_lib/zxing/oned/Code93Reader.cpp ****       if (counterPosition == patternLength - 1) {
 158:../src/zxing_lib/zxing/oned/Code93Reader.cpp ****         if (toPattern(theCounters) == ASTERISK_ENCODING) {
 159:../src/zxing_lib/zxing/oned/Code93Reader.cpp ****           return Range(patternStart, i);
 160:../src/zxing_lib/zxing/oned/Code93Reader.cpp ****         }
 161:../src/zxing_lib/zxing/oned/Code93Reader.cpp ****         patternStart += theCounters[0] + theCounters[1];
 162:../src/zxing_lib/zxing/oned/Code93Reader.cpp ****         for (int y = 2; y < patternLength; y++) {
 163:../src/zxing_lib/zxing/oned/Code93Reader.cpp ****           theCounters[y - 2] = theCounters[y];
 164:../src/zxing_lib/zxing/oned/Code93Reader.cpp ****         }
 165:../src/zxing_lib/zxing/oned/Code93Reader.cpp ****         theCounters[patternLength - 2] = 0;
 166:../src/zxing_lib/zxing/oned/Code93Reader.cpp ****         theCounters[patternLength - 1] = 0;
 167:../src/zxing_lib/zxing/oned/Code93Reader.cpp ****         counterPosition--;
 168:../src/zxing_lib/zxing/oned/Code93Reader.cpp ****       } else {
 169:../src/zxing_lib/zxing/oned/Code93Reader.cpp ****         counterPosition++;
 170:../src/zxing_lib/zxing/oned/Code93Reader.cpp ****       }
 171:../src/zxing_lib/zxing/oned/Code93Reader.cpp ****       theCounters[counterPosition] = 1;
 172:../src/zxing_lib/zxing/oned/Code93Reader.cpp ****       isWhite = !isWhite;
 173:../src/zxing_lib/zxing/oned/Code93Reader.cpp ****     }
 174:../src/zxing_lib/zxing/oned/Code93Reader.cpp ****   }
 175:../src/zxing_lib/zxing/oned/Code93Reader.cpp ****   throw NotFoundException();
 176:../src/zxing_lib/zxing/oned/Code93Reader.cpp **** }
 177:../src/zxing_lib/zxing/oned/Code93Reader.cpp **** 
 178:../src/zxing_lib/zxing/oned/Code93Reader.cpp **** int Code93Reader::toPattern(vector<int>& counters) {
 179:../src/zxing_lib/zxing/oned/Code93Reader.cpp ****   int max = counters.size();
 180:../src/zxing_lib/zxing/oned/Code93Reader.cpp ****   int sum = 0;
 181:../src/zxing_lib/zxing/oned/Code93Reader.cpp ****   for(int i=0, e=counters.size(); i<e; ++i) {
 182:../src/zxing_lib/zxing/oned/Code93Reader.cpp ****     sum += counters[i];
 183:../src/zxing_lib/zxing/oned/Code93Reader.cpp ****   }
 184:../src/zxing_lib/zxing/oned/Code93Reader.cpp ****   int pattern = 0;
 185:../src/zxing_lib/zxing/oned/Code93Reader.cpp ****   for (int i = 0; i < max; i++) {
 186:../src/zxing_lib/zxing/oned/Code93Reader.cpp ****     int scaled = int(counters[i] * 9.0f / sum);
 187:../src/zxing_lib/zxing/oned/Code93Reader.cpp ****     if (scaled < 1 || scaled > 4) {
 188:../src/zxing_lib/zxing/oned/Code93Reader.cpp ****       return -1;
 189:../src/zxing_lib/zxing/oned/Code93Reader.cpp ****     }
 190:../src/zxing_lib/zxing/oned/Code93Reader.cpp ****     if ((i & 0x01) == 0) {
 191:../src/zxing_lib/zxing/oned/Code93Reader.cpp ****       for (int j = 0; j < scaled; j++) {
 192:../src/zxing_lib/zxing/oned/Code93Reader.cpp ****         pattern = (pattern << 1) | 0x01;
 193:../src/zxing_lib/zxing/oned/Code93Reader.cpp ****       }
 194:../src/zxing_lib/zxing/oned/Code93Reader.cpp ****     } else {
 195:../src/zxing_lib/zxing/oned/Code93Reader.cpp ****       pattern <<= scaled;
 196:../src/zxing_lib/zxing/oned/Code93Reader.cpp ****     }
 197:../src/zxing_lib/zxing/oned/Code93Reader.cpp ****   }
 198:../src/zxing_lib/zxing/oned/Code93Reader.cpp ****   return pattern;
 199:../src/zxing_lib/zxing/oned/Code93Reader.cpp **** }
 200:../src/zxing_lib/zxing/oned/Code93Reader.cpp **** 
 201:../src/zxing_lib/zxing/oned/Code93Reader.cpp **** char Code93Reader::patternToChar(int pattern)  {
 202:../src/zxing_lib/zxing/oned/Code93Reader.cpp ****   for (int i = 0; i < CHARACTER_ENCODINGS_LENGTH; i++) {
 203:../src/zxing_lib/zxing/oned/Code93Reader.cpp ****     if (CHARACTER_ENCODINGS[i] == pattern) {
 204:../src/zxing_lib/zxing/oned/Code93Reader.cpp ****       return ALPHABET[i];
 205:../src/zxing_lib/zxing/oned/Code93Reader.cpp ****     }
 206:../src/zxing_lib/zxing/oned/Code93Reader.cpp ****   }
 207:../src/zxing_lib/zxing/oned/Code93Reader.cpp ****   throw NotFoundException();
 208:../src/zxing_lib/zxing/oned/Code93Reader.cpp **** }
 209:../src/zxing_lib/zxing/oned/Code93Reader.cpp **** 
 210:../src/zxing_lib/zxing/oned/Code93Reader.cpp **** Ref<String> Code93Reader::decodeExtended(string const& encoded)  {
 211:../src/zxing_lib/zxing/oned/Code93Reader.cpp ****   int length = encoded.length();
 212:../src/zxing_lib/zxing/oned/Code93Reader.cpp ****   string decoded;
 213:../src/zxing_lib/zxing/oned/Code93Reader.cpp ****   for (int i = 0; i < length; i++) {
 214:../src/zxing_lib/zxing/oned/Code93Reader.cpp ****     char c = encoded[i];
 215:../src/zxing_lib/zxing/oned/Code93Reader.cpp ****     if (c >= 'a' && c <= 'd') {
 216:../src/zxing_lib/zxing/oned/Code93Reader.cpp ****       if (i >= length - 1) {
 217:../src/zxing_lib/zxing/oned/Code93Reader.cpp ****         throw FormatException::getFormatInstance();
 218:../src/zxing_lib/zxing/oned/Code93Reader.cpp ****       }
 219:../src/zxing_lib/zxing/oned/Code93Reader.cpp ****       char next = encoded[i + 1];
 220:../src/zxing_lib/zxing/oned/Code93Reader.cpp ****       char decodedChar = '\0';
 221:../src/zxing_lib/zxing/oned/Code93Reader.cpp ****       switch (c) {
 222:../src/zxing_lib/zxing/oned/Code93Reader.cpp ****       case 'd':
 223:../src/zxing_lib/zxing/oned/Code93Reader.cpp ****         // +A to +Z map to a to z
 224:../src/zxing_lib/zxing/oned/Code93Reader.cpp ****         if (next >= 'A' && next <= 'Z') {
 225:../src/zxing_lib/zxing/oned/Code93Reader.cpp ****           decodedChar = (char) (next + 32);
 226:../src/zxing_lib/zxing/oned/Code93Reader.cpp ****         } else {
 227:../src/zxing_lib/zxing/oned/Code93Reader.cpp ****           throw FormatException::getFormatInstance();
 228:../src/zxing_lib/zxing/oned/Code93Reader.cpp ****         }
 229:../src/zxing_lib/zxing/oned/Code93Reader.cpp ****         break;
 230:../src/zxing_lib/zxing/oned/Code93Reader.cpp ****       case 'a':
 231:../src/zxing_lib/zxing/oned/Code93Reader.cpp ****         // $A to $Z map to control codes SH to SB
 232:../src/zxing_lib/zxing/oned/Code93Reader.cpp ****         if (next >= 'A' && next <= 'Z') {
 233:../src/zxing_lib/zxing/oned/Code93Reader.cpp ****           decodedChar = (char) (next - 64);
 234:../src/zxing_lib/zxing/oned/Code93Reader.cpp ****         } else {
 235:../src/zxing_lib/zxing/oned/Code93Reader.cpp ****           throw FormatException::getFormatInstance();
 236:../src/zxing_lib/zxing/oned/Code93Reader.cpp ****         }
 237:../src/zxing_lib/zxing/oned/Code93Reader.cpp ****         break;
 238:../src/zxing_lib/zxing/oned/Code93Reader.cpp ****       case 'b':
 239:../src/zxing_lib/zxing/oned/Code93Reader.cpp ****         // %A to %E map to control codes ESC to US
 240:../src/zxing_lib/zxing/oned/Code93Reader.cpp ****         if (next >= 'A' && next <= 'E') {
 241:../src/zxing_lib/zxing/oned/Code93Reader.cpp ****           decodedChar = (char) (next - 38);
 242:../src/zxing_lib/zxing/oned/Code93Reader.cpp ****         } else if (next >= 'F' && next <= 'J') {
 243:../src/zxing_lib/zxing/oned/Code93Reader.cpp ****           // %F to %J map to ; < = > ?
 244:../src/zxing_lib/zxing/oned/Code93Reader.cpp ****           decodedChar = (char) (next - 11);
 245:../src/zxing_lib/zxing/oned/Code93Reader.cpp ****         } else if (next >= 'K' && next <= 'O') {
 246:../src/zxing_lib/zxing/oned/Code93Reader.cpp ****           // %K to %O map to [ \ ] ^ _
 247:../src/zxing_lib/zxing/oned/Code93Reader.cpp ****           decodedChar = (char) (next + 16);
 248:../src/zxing_lib/zxing/oned/Code93Reader.cpp ****         } else if (next >= 'P' && next <= 'S') {
 249:../src/zxing_lib/zxing/oned/Code93Reader.cpp ****           // %P to %S map to { | } ~
 250:../src/zxing_lib/zxing/oned/Code93Reader.cpp ****           decodedChar = (char) (next + 43);
 251:../src/zxing_lib/zxing/oned/Code93Reader.cpp ****         } else if (next >= 'T' && next <= 'Z') {
 252:../src/zxing_lib/zxing/oned/Code93Reader.cpp ****           // %T to %Z all map to DEL (127)
 253:../src/zxing_lib/zxing/oned/Code93Reader.cpp ****           decodedChar = 127;
 254:../src/zxing_lib/zxing/oned/Code93Reader.cpp ****         } else {
 255:../src/zxing_lib/zxing/oned/Code93Reader.cpp ****           throw FormatException::getFormatInstance();
 256:../src/zxing_lib/zxing/oned/Code93Reader.cpp ****         }
 257:../src/zxing_lib/zxing/oned/Code93Reader.cpp ****         break;
 258:../src/zxing_lib/zxing/oned/Code93Reader.cpp ****       case 'c':
 259:../src/zxing_lib/zxing/oned/Code93Reader.cpp ****         // /A to /O map to ! to , and /Z maps to :
 260:../src/zxing_lib/zxing/oned/Code93Reader.cpp ****         if (next >= 'A' && next <= 'O') {
 261:../src/zxing_lib/zxing/oned/Code93Reader.cpp ****           decodedChar = (char) (next - 32);
 262:../src/zxing_lib/zxing/oned/Code93Reader.cpp ****         } else if (next == 'Z') {
 263:../src/zxing_lib/zxing/oned/Code93Reader.cpp ****           decodedChar = ':';
 264:../src/zxing_lib/zxing/oned/Code93Reader.cpp ****         } else {
 265:../src/zxing_lib/zxing/oned/Code93Reader.cpp ****           throw FormatException::getFormatInstance();
 266:../src/zxing_lib/zxing/oned/Code93Reader.cpp ****         }
 267:../src/zxing_lib/zxing/oned/Code93Reader.cpp ****         break;
 268:../src/zxing_lib/zxing/oned/Code93Reader.cpp ****       }
 269:../src/zxing_lib/zxing/oned/Code93Reader.cpp ****       decoded.append(1, decodedChar);
 270:../src/zxing_lib/zxing/oned/Code93Reader.cpp ****       // bump up i again since we read two characters
 271:../src/zxing_lib/zxing/oned/Code93Reader.cpp ****       i++;
 272:../src/zxing_lib/zxing/oned/Code93Reader.cpp ****     } else {
 273:../src/zxing_lib/zxing/oned/Code93Reader.cpp ****       decoded.append(1, c);
 274:../src/zxing_lib/zxing/oned/Code93Reader.cpp ****     }
 275:../src/zxing_lib/zxing/oned/Code93Reader.cpp ****   }
 276:../src/zxing_lib/zxing/oned/Code93Reader.cpp ****   return Ref<String>(new String(decoded));
 277:../src/zxing_lib/zxing/oned/Code93Reader.cpp **** }
 278:../src/zxing_lib/zxing/oned/Code93Reader.cpp **** 
 279:../src/zxing_lib/zxing/oned/Code93Reader.cpp **** void Code93Reader::checkChecksums(string const& result) {
 280:../src/zxing_lib/zxing/oned/Code93Reader.cpp ****   int length = result.length();
 281:../src/zxing_lib/zxing/oned/Code93Reader.cpp ****   checkOneChecksum(result, length - 2, 20);
 282:../src/zxing_lib/zxing/oned/Code93Reader.cpp ****   checkOneChecksum(result, length - 1, 15);
 283:../src/zxing_lib/zxing/oned/Code93Reader.cpp **** }
 284:../src/zxing_lib/zxing/oned/Code93Reader.cpp **** 
 285:../src/zxing_lib/zxing/oned/Code93Reader.cpp **** void Code93Reader::checkOneChecksum(string const& result,
 286:../src/zxing_lib/zxing/oned/Code93Reader.cpp ****                                     int checkPosition,
 287:../src/zxing_lib/zxing/oned/Code93Reader.cpp ****                                     int weightMax) {
 288:../src/zxing_lib/zxing/oned/Code93Reader.cpp ****   int weight = 1;
 289:../src/zxing_lib/zxing/oned/Code93Reader.cpp ****   int total = 0;
 290:../src/zxing_lib/zxing/oned/Code93Reader.cpp ****   for (int i = checkPosition - 1; i >= 0; i--) {
 291:../src/zxing_lib/zxing/oned/Code93Reader.cpp ****     total += weight * ALPHABET_STRING.find_first_of(result[i]);
 292:../src/zxing_lib/zxing/oned/Code93Reader.cpp ****     if (++weight > weightMax) {
 293:../src/zxing_lib/zxing/oned/Code93Reader.cpp ****       weight = 1;
 294:../src/zxing_lib/zxing/oned/Code93Reader.cpp ****     }
 295:../src/zxing_lib/zxing/oned/Code93Reader.cpp ****   }
 296:../src/zxing_lib/zxing/oned/Code93Reader.cpp ****   if (result[checkPosition] != ALPHABET[total % 47]) {
 297:../src/zxing_lib/zxing/oned/Code93Reader.cpp ****     throw ChecksumException();
 298:../src/zxing_lib/zxing/oned/Code93Reader.cpp ****   }
 299:../src/zxing_lib/zxing/oned/Code93Reader.cpp **** }
 729              		.loc 9 299 0
 730              		.cfi_startproc
 731              		@ args = 0, pretend = 0, frame = 8
 732              		@ frame_needed = 0, uses_anonymous_args = 0
 733              	.LVL59:
 734 0000 010050E3 		cmp	r0, #1
 735 0004 1EFF2F11 		bxne	lr
 736              		.loc 9 299 0 is_stmt 0 discriminator 1
 737 0008 FF3F0FE3 		movw	r3, #65535
 738 000c 030051E1 		cmp	r1, r3
 739 0010 1EFF2F11 		bxne	lr
 740              		.loc 9 299 0
 741 0014 30402DE9 		push	{r4, r5, lr}
 742              		.cfi_def_cfa_offset 12
 743              		.cfi_offset 4, -12
 744              		.cfi_offset 5, -8
 745              		.cfi_offset 14, -4
 746 0018 0CD04DE2 		sub	sp, sp, #12
 747              		.cfi_def_cfa_offset 24
 748              		.file 10 "/home/zkmike/.local/share/renesas/e2_studio/toolchains/gcc_arm/gcc-arm-none-eabi-6-2017-
   1:/home/zkmike/.local/share/renesas/e2_studio/toolchains/gcc_arm/gcc-arm-none-eabi-6-2017-q2-update/arm-none-eabi/include/c++/6.3.1/iostream **** // Standard iostream objects -*- C++ -*-
   2:/home/zkmike/.local/share/renesas/e2_studio/toolchains/gcc_arm/gcc-arm-none-eabi-6-2017-q2-update/arm-none-eabi/include/c++/6.3.1/iostream **** 
   3:/home/zkmike/.local/share/renesas/e2_studio/toolchains/gcc_arm/gcc-arm-none-eabi-6-2017-q2-update/arm-none-eabi/include/c++/6.3.1/iostream **** // Copyright (C) 1997-2016 Free Software Foundation, Inc.
   4:/home/zkmike/.local/share/renesas/e2_studio/toolchains/gcc_arm/gcc-arm-none-eabi-6-2017-q2-update/arm-none-eabi/include/c++/6.3.1/iostream **** //
   5:/home/zkmike/.local/share/renesas/e2_studio/toolchains/gcc_arm/gcc-arm-none-eabi-6-2017-q2-update/arm-none-eabi/include/c++/6.3.1/iostream **** // This file is part of the GNU ISO C++ Library.  This library is free
   6:/home/zkmike/.local/share/renesas/e2_studio/toolchains/gcc_arm/gcc-arm-none-eabi-6-2017-q2-update/arm-none-eabi/include/c++/6.3.1/iostream **** // software; you can redistribute it and/or modify it under the
   7:/home/zkmike/.local/share/renesas/e2_studio/toolchains/gcc_arm/gcc-arm-none-eabi-6-2017-q2-update/arm-none-eabi/include/c++/6.3.1/iostream **** // terms of the GNU General Public License as published by the
